(dp1
S'skills'
p2
(lp3
S'differential equations'
p4
aS'edc'
p5
aS'qualitative research'
p6
aS'energy efficiency'
p7
aS'chinese'
p8
aS'apache storm'
p9
aS'hedge funds'
p10
aS'redis'
p11
aS'chaid'
p12
aS'computer forensics'
p13
aS'bioconductor'
p14
aS'ggplot2'
p15
aS'dsp'
p16
aS'system design'
p17
aS'go'
p18
aS'user experience design'
p19
aS'equity research'
p20
aS'microsoft sql server'
p21
aS'content management'
p22
aS'technical leadership'
p23
aS'game design'
p24
aS'cognitive neuroscience'
p25
aS'flask'
p26
aS'digital imaging'
p27
aS'fuzzy logic'
p28
aS'scientific visualization'
p29
aS'behavioral targeting'
p30
aS'matlab'
p31
aS'agile methodologies'
p32
aS'master data management'
p33
aS'drug discovery'
p34
aS'junit'
p35
aS'data entry'
p36
aS'materials science'
p37
aS'computational mathematics'
p38
aS'semiconductor industry'
p39
aS'sap bi'
p40
aS'cloudera impala'
p41
aS'automotive'
p42
aS'etl tools'
p43
aS'health informatics'
p44
aS'computer hardware'
p45
aS'decision trees'
p46
aS'facebook'
p47
aS'nanomaterials'
p48
aS'metabolomics'
p49
aS'erp'
p50
aS'infectious diseases'
p51
aS'voip'
p52
aS'event management'
p53
aS'grid computing'
p54
aS'employee engagement'
p55
aS'risk assessment'
p56
aS'solver'
p57
aS'lisp'
p58
aS'mercurial'
p59
aS'risk modeling'
p60
aS'mapreduce'
p61
aS'hive'
p62
aS'engineering management'
p63
aS'civil engineering'
p64
aS'olap'
p65
aS'financial services'
p66
aS'asp'
p67
aS'real estate'
p68
aS'penetration testing'
p69
aS'cms'
p70
aS'functional programming'
p71
aS'predictive analytics'
p72
aS'logistics'
p73
aS'numerical analysis'
p74
aS'air force'
p75
aS'pmp'
p76
aS'unsupervised learning'
p77
aS'global health'
p78
aS'network science'
p79
aS'computational neuroscience'
p80
aS'teradata'
p81
aS'cvs'
p82
aS'business insights'
p83
aS'meta-analysis'
p84
aS'process improvement'
p85
aS'data-driven decision making'
p86
aS'information design'
p87
aS'it management'
p88
aS'batch processing'
p89
aS'pmo'
p90
aS'literature reviews'
p91
aVpanda
p92
aS'vmware'
p93
aS'job analysis'
p94
aS'solution selling'
p95
aS'evolutionary biology'
p96
aS'statistical consulting'
p97
aS'network optimization'
p98
aS'datastage'
p99
aS'clinical development'
p100
aS'microbiology'
p101
aS'time management'
p102
aS'access'
p103
aS'cancer research'
p104
aS'ssis'
p105
aS'large-scale data analysis'
p106
aS'esri'
p107
aS'mac os'
p108
aS'professional services'
p109
aS'awk'
p110
aS'go-to-market strategy'
p111
aS'segmentation'
p112
aS'team leadership'
p113
aS'transportation'
p114
aS'environmental science'
p115
aS'stochastic processes'
p116
aS'random forests'
p117
aS'matplotlib'
p118
aS'customer analysis'
p119
aS'water'
p120
aS'crystal reports'
p121
aS'sql db2'
p122
aS'21 cfr part 11'
p123
aS'statistical modeling'
p124
aS'ubuntu'
p125
aS'apache'
p126
aS'openmp'
p127
aS'science communication'
p128
aS'b2b'
p129
aS'information technology'
p130
aS'business process management'
p131
aS'software development'
p132
aS'medical imaging'
p133
aS'search'
p134
aS'glm'
p135
aS'final cut pro'
p136
aS'data cleaning'
p137
aS'root'
p138
aS'consumer insights'
p139
aS'economics'
p140
aS'test automation'
p141
aS'multivariate statistics'
p142
aS'credit'
p143
aS'rdf'
p144
aS'product launch'
p145
aS'advertising'
p146
aS'windows azure'
p147
aS'military'
p148
aS'microsoft access'
p149
aS'personalized medicine'
p150
aS'options'
p151
aS'patents'
p152
aS'qualtrics'
p153
aS'computer architecture'
p154
aS'classification'
p155
aS'cdma'
p156
aS'probabilistic models'
p157
aS'clinical study design'
p158
aS'adobe creative suite'
p159
aS'healthcare analytics'
p160
aS'test driven development'
p161
aS'graphic design'
p162
aS'vis'
p163
aS'unix'
p164
aS'healthcare information technology'
p165
aS'account management'
p166
aS'mobile advertising'
p167
aS'web scraping'
p168
aS'outsourcing'
p169
aS'experimentation'
p170
aS'social media'
p171
aS'conjoint analysis'
p172
aS'web analytics'
p173
aS'open source'
p174
aS'army'
p175
aS'j2ee'
p176
aS'microeconomics'
p177
aS'petroleum'
p178
aS'devops'
p179
aS'governance'
p180
aS'perl'
p181
aS'crowdsourcing'
p182
aS'risk management'
p183
aS'campaign management'
p184
aS'visio'
p185
aS'bonds'
p186
aS'erwin'
p187
aS'gsm'
p188
aS'data management'
p189
aS'quality assurance'
p190
aS'structural equation modeling'
p191
aS'performance management'
p192
aS'web design'
p193
aS'rapidminer'
p194
aS'lean manufacturing'
p195
aS'jmp'
p196
aS'hl7'
p197
aS'cplex'
p198
aS'business process'
p199
aS'process automation'
p200
aS'investment strategies'
p201
aS'computational linguistics'
p202
aS'data processing'
p203
aS'teaching'
p204
aS'html 5'
p205
aS'project management'
p206
aS'grant writing'
p207
aS'database administration'
p208
aS'scientific analysis'
p209
aS'genetic algorithms'
p210
aS'word'
p211
aS'science'
p212
aS'applied mathematics'
p213
aS'eclipse'
p214
aS'web content'
p215
aS'machine learning'
p216
aS'psychometrics'
p217
aS'hidden markov models'
p218
aS'mobile applications'
p219
aS'budgets'
p220
aS'customer acquisition'
p221
aS'visual basic'
p222
aS'ms office suite'
p223
aS'cluster analysis'
p224
aS'scripting'
p225
aS'cad'
p226
aS'speech recognition'
p227
aS'parallel computing'
p228
aS'educational technology'
p229
aS'portfolio management'
p230
aS'semantic web'
p231
aS'cognitive science'
p232
aS'financial risk management'
p233
aS'revenue analysis'
p234
aS'display advertising'
p235
aS'portfolio optimization'
p236
aS'simulation'
p237
aS'random forest'
p238
aS'business modeling'
p239
aS'simulink'
p240
aS'sip'
p241
aS'cryptography'
p242
aS'contract negotiation'
p243
aS'power bi'
p244
aS'sharepoint'
p245
aS'sas enterprise guide'
p246
aS'tableau'
p247
aS'application architecture'
p248
aS'market research'
p249
aS'gcp'
p250
aS'computer vision'
p251
aS'business planning'
p252
aS'ehr'
p253
aS'text classification'
p254
aS'product innovation'
p255
aS'amazon s3'
p256
aS'hypothesis testing'
p257
aS'unstructured data'
p258
aS'css'
p259
aS'3d visualization'
p260
aS'object recognition'
p261
aS'computational biology'
p262
aS'algebra'
p263
aS'philosophy'
p264
aS'leadership development'
p265
aS'multivariate testing'
p266
aS'entrepreneurship'
p267
aS'sustainability'
p268
aS'theano'
p269
aS'political science'
p270
aS'data wrangling'
p271
aS'arduino'
p272
aS'bootstrapping'
p273
aS'extract transform load etl'
p274
aS'mpi'
p275
aS'data'
p276
aS'metrology'
p277
aS'a'
aS'technical training'
p278
aS'github'
p279
aS'sparql'
p280
aS'commodity'
p281
aS'remote sensing'
p282
aS'object oriented design'
p283
aS'market making'
p284
aS'documentation'
p285
aS'derivatives'
p286
aS'django'
p287
aS'google analytics'
p288
aS'causal inference'
p289
aS'sharepoint designer'
p290
aS'algorithms'
p291
aS'healthcare'
p292
aS'tutoring'
p293
aS'nltk'
p294
aS'aerospace engineering'
p295
aS'jira'
p296
aS'photoshop'
p297
aS'oncology'
p298
aS'b2b marketing'
p299
aS'health economics'
p300
aS'sql server reporting services ssrs'
p301
aS'crystal ball'
p302
aS'intellectual property'
p303
aS'data warehouse architecture'
p304
aS'data acquisition'
p305
aS'strategic leadership'
p306
aS'radar'
p307
aS'quality control'
p308
aS'marketing research'
p309
aS'hbase'
p310
aS'multi-channel marketing'
p311
aS'fundraising'
p312
aS'rnaseq'
p313
aS'linguistics'
p314
aS'db2'
p315
aS'capital markets'
p316
aS'google docs'
p317
aS'anomaly detection'
p318
aS'pcr'
p319
aS'process engineering'
p320
aS'bloomberg terminal'
p321
aS'product marketing'
p322
aS'monte carlo simulation'
p323
aS'writing'
p324
aS'supply chain management'
p325
aS'digital media'
p326
aS'coaching'
p327
aS'spring framework'
p328
aS'statistical software'
p329
aS'wordpress'
p330
aS'microstrategy'
p331
aS'reverse engineering'
p332
aS'policy'
p333
aS'linux system administration'
p334
aS'pca'
p335
aS'soa'
p336
aS'operational planning'
p337
aS'finance'
p338
aS'customer relationship management crm'
p339
aS'python'
p340
aS'semantic analysis'
p341
aS'private equity'
p342
aS'postgis'
p343
aS'due diligence'
p344
aS'survey design'
p345
aS'scipy'
p346
aS'combinatorial optimization'
p347
aS'algorithm development'
p348
aS'technical documentation'
p349
aS'business development'
p350
aS'business transformation'
p351
aS'servers'
p352
aS'analytical skills'
p353
aS'cloudera'
p354
aVbayesian method
p355
aS'outcomes research'
p356
aS'spatial analysis'
p357
aS'innovation management'
p358
aS'svm'
p359
aS'.net'
p360
aS'communication skills'
p361
aS'user acceptance testing'
p362
aS'pharmaceutical industry'
p363
aS'program evaluation'
p364
aS'regression models'
p365
aS'association rules'
p366
aS'root cause analysis'
p367
aS'logistic regression'
p368
aS'drug development'
p369
aS'soc'
p370
aS'crm'
p371
aS'data analytics'
p372
aS'sap bw'
p373
aS'cartography'
p374
aS'knowledge management'
p375
aS'energy'
p376
aS'decision support'
p377
aS'computational chemistry'
p378
aS'information extraction'
p379
aS'sas base'
p380
aS'enterprise software'
p381
aS'trading'
p382
aS'ec2'
p383
aS'personalization'
p384
aS'relational databases'
p385
aS'firmware'
p386
aS'direct marketing'
p387
aS'insurance'
p388
aS'collaborative problem solving'
p389
aS'requirements management'
p390
aS'psychology'
p391
aS'jdbc'
p392
aS'image processing'
p393
aS'ssas'
p394
aS'questionnaire design'
p395
aS'web 2.0'
p396
aS'scientific computing'
p397
aS'research design'
p398
aS'research'
p399
aS'mahout'
p400
aS'urban planning'
p401
aS'vendor management'
p402
aS'survey methodology'
p403
aS'database marketing'
p404
aS'sdlc'
p405
aS'business requirements'
p406
aS'medicine'
p407
aS'electronics'
p408
aS'it service management'
p409
aS'netbeans'
p410
aS'statistical tools'
p411
aS'quickbooks'
p412
aS'molecular modeling'
p413
aS'factor analysis'
p414
aS'hibernate'
p415
aS'embedded software'
p416
aS'theory'
p417
aS'transportation engineering'
p418
aS'client presentation'
p419
aS'cissp'
p420
aS'data scientist'
p421
aS'cart'
p422
aS'data quality'
p423
aS'business analytics'
p424
aS'ajax'
p425
aS'statistics'
p426
aS'algorithm design'
p427
aS'foreign policy'
p428
aS'gis'
p429
aS'sensors'
p430
aS'mathematical analysis'
p431
aS'photography'
p432
aS'bash'
p433
aS'training'
p434
aS'knime'
p435
aS'open source software'
p436
aS'partial differential equations'
p437
aS'drupal'
p438
aS'optics'
p439
aS'sustainable development'
p440
aS'programming'
p441
aS'mobile devices'
p442
aS'business objects'
p443
aS'traffic engineering'
p444
aS'mvc'
p445
aS'elasticsearch'
p446
aS'opencv'
p447
aS'lte'
p448
aS'data security'
p449
aS'requirements analysis'
p450
aS'field work'
p451
aS'retail'
p452
aS'rapid prototyping'
p453
aS'microsoft azure'
p454
aS'scalding'
p455
aS'customer insight'
p456
aS'probability'
p457
aS'indesign'
p458
aS'proteomics'
p459
aS'bioinformatics'
p460
aS'demand forecasting'
p461
aS'proofreading'
p462
aS'ecology'
p463
aS'marketing strategy'
p464
aS'spanish'
p465
aS'mathematical modeling'
p466
aS'neo4j'
p467
aS'financial reporting'
p468
aS'marketing management'
p469
aS'dimensionality reduction'
p470
aS'clinical data management'
p471
aS'management'
p472
aS'weka'
p473
aS'hedging'
p474
aS'community development'
p475
aS'project portfolio management'
p476
aS'artificial neural networks'
p477
aS'interviews'
p478
aS'struts'
p479
aS'recruiting'
p480
aS'trading systems'
p481
aS'enterprise architecture'
p482
aS'abap'
p483
aS'gurobi'
p484
aS'climate change'
p485
aS'advanced analytics'
p486
aS'gpu'
p487
aS'scheme'
p488
aS'dimensional modeling'
p489
aS'operating systems'
p490
aS'software documentation'
p491
aS'text mining'
p492
aS'shiny'
p493
aS'content strategy'
p494
aS'mathematical programming'
p495
aS'apache spark'
p496
aS'actuarial science'
p497
aS'strategic thinking'
p498
aS'healthcare consulting'
p499
aS'mongodb'
p500
aS'instructional design'
p501
aS'xquery'
p502
aS'performance improvement'
p503
aS'translation'
p504
aS'semantics'
p505
aS'jquery'
p506
aS'business intelligence tools'
p507
aS'data collection'
p508
aS'performance metrics'
p509
aS'quantitative analytics'
p510
aS'linear algebra'
p511
aS'solution architecture'
p512
aS'lucene'
p513
aS'data engineering'
p514
aS'organizational leadership'
p515
aS'r'
aS'discrete mathematics'
p516
aS'kalman filtering'
p517
aS'fixed income'
p518
aS'impala'
p519
aS'game theory'
p520
aS'it strategy'
p521
aS'supply chain optimization'
p522
aS'debugging'
p523
aS'bootstrap'
p524
aS'management consulting'
p525
aS'competitive analysis'
p526
aS'ant'
p527
aS'business intelligence'
p528
aS'graphical models'
p529
aS'physical chemistry'
p530
aS'corporate development'
p531
aS'angularjs'
p532
aS'sas'
p533
aS'market basket analysis'
p534
aS'sap'
p535
aS'amazon web services'
p536
aS'cassandra'
p537
aS'instrumentation'
p538
aS'e-commerce'
p539
aS'user experience'
p540
aS'counterterrorism'
p541
aS'data governance'
p542
aS'predictive modeling'
p543
aS'microcontrollers'
p544
aS'marketing automation'
p545
aS'system architecture'
p546
aS'project coordination'
p547
aS'dna sequencing'
p548
aS'natural language processing'
p549
aS'ms project'
p550
aS'test planning'
p551
aS'financial analysis'
p552
aS'failure analysis'
p553
aS'soap'
p554
aS'erdas imagine'
p555
aS'calculus'
p556
aS'competitive intelligence'
p557
aS'hdfs'
p558
aS'collaboration'
p559
aS'aws'
p560
aS'arena'
p561
aS'bigquery'
p562
aS'scientific writing'
p563
aS'metrics'
p564
aS'pentaho'
p565
aS'biomedical informatics'
p566
aS'oozie'
p567
aS'technical writing'
p568
aS'discrete event simulation'
p569
aS'public speaking'
p570
aS'customer segmentation strategy'
p571
aS'latex'
p572
aS'obiee'
p573
aS'design patterns'
p574
aS'system testing'
p575
aS'software engineering'
p576
aS'sql server'
p577
aS'windows'
p578
aS'people skills'
p579
aS'microsoft word'
p580
aS'convex optimization'
p581
aS'excel vba'
p582
aS'dod'
p583
aS'linear regression'
p584
aS'os x'
p585
aS'knowledge representation'
p586
aS'financial engineering'
p587
aS'databases'
p588
aS'investment management'
p589
aS'physics'
p590
aS'pre-sales'
p591
aS'vulnerability assessment'
p592
aS'oracle database'
p593
aS'nlp'
p594
aS'supply chain'
p595
aS'unix shell scripting'
p596
aS'survival analysis'
p597
aS'german'
p598
aS'asic'
p599
aS'nonlinear optimization'
p600
aS'lean startup'
p601
aS'adult education'
p602
aS'operations management'
p603
aS'strategic planning'
p604
aS'node.js'
p605
aS'spring mvc'
p606
aS'visual studio'
p607
aS'vertica'
p608
aS'email marketing'
p609
aS'network security'
p610
aS'creative problem solving'
p611
aS'biometrics'
p612
aS'd3'
p613
aS'geography'
p614
aS'xml'
p615
aS'cell'
p616
aS'technical communication'
p617
aS'editing'
p618
aS'graph databases'
p619
aS'biostatistics'
p620
aS'big data'
p621
aS'lua'
p622
aS'critical thinking'
p623
aS'asset management'
p624
aS'web marketing'
p625
aS'microarray'
p626
aS'envi'
p627
aS'microscopy'
p628
aS'geospatial intelligence'
p629
aS'basel ii'
p630
aS'networking'
p631
aS'disease management'
p632
aS'earth science'
p633
aS'risk analytics'
p634
aS'android development'
p635
aS'population genetics'
p636
aS'policy analysis'
p637
aS'apache kafka'
p638
aS'software development life cycle sdlc'
p639
aS'graph theory'
p640
aS'data modeling'
p641
aS'copywriting'
p642
aS'recommender systems'
p643
aS'pyspark'
p644
aS'public health'
p645
aS'biophysics'
p646
aS'risk analysis'
p647
aS'mandarin'
p648
aS'talent management'
p649
aS'dynamic programming'
p650
aS'oracle sql developer'
p651
aS'tcp'
p652
aS'powerpivot'
p653
aS'systems biology'
p654
aS'itil'
p655
aS'credit risk'
p656
aS'blogging'
p657
aS'flume'
p658
aS'collaborative filtering'
p659
aS'digital strategy'
p660
aS'amazon ec2'
p661
aS'mac os x'
p662
aS'geospatial modeling'
p663
aS'investment banking'
p664
aS'banking'
p665
aS'sequence analysis'
p666
aS'credit analysis'
p667
aS'architecture'
p668
aS'emr'
p669
aS'api development'
p670
aS'high availability'
p671
aS'cro'
p672
aS'information architecture'
p673
aS'quality improvement'
p674
aS'cognos'
p675
aS'active directory'
p676
aS'intelligence'
p677
aS'testing'
p678
aS'economic development'
p679
aS'presentation skills'
p680
aS'c++'
p681
aS'eviews'
p682
aS'analytics'
p683
aS'proposal writing'
p684
aS'defense'
p685
aS'rf'
p686
aS'system administration'
p687
aS'biomarker discovery'
p688
aS'seo'
p689
aS'distributed computing'
p690
aS'sem'
p691
aS'integrated marketing'
p692
aS'arm'
p693
aS'php'
p694
aS'direct mail'
p695
aS'data architecture'
p696
aS'quantitative finance'
p697
aS'corporate finance'
p698
aS'programming languages'
p699
aS'statistical computing'
p700
aS'machine vision'
p701
aS'information management'
p702
aS'big data analytics'
p703
aS'social network analysis'
p704
aS'new business development'
p705
aS'verilog'
p706
aS'stata'
p707
aS'design experiments'
p708
aS'computational physics'
p709
aS'fluorescence'
p710
aS'amazon web services aws'
p711
aS'oracle pl'
p712
aS'electronic trading'
p713
aS'keynote'
p714
aS'xslt'
p715
aS'database design'
p716
aS'customer service'
p717
aS'javascript'
p718
aS'alteryx'
p719
aS'scalability'
p720
aS'molecular genetics'
p721
aS'data structures'
p722
aS'mentoring'
p723
aS'minitab'
p724
aS'control theory'
p725
aS'modeling'
p726
aS'spark'
p727
aS'solr'
p728
aS'decision analysis'
p729
aS'c'
aS'inventory management'
p730
aS'hydrology'
p731
aS'data visualization'
p732
aS'software service saas'
p733
aS'quantitative research'
p734
aS'microsoft powerpoint'
p735
aS'budgeting'
p736
aS'security clearance'
p737
aS'technical analysis'
p738
aS'customer analytics'
p739
aS'press releases'
p740
aS'customer support'
p741
aS'core java'
p742
aS'internet things'
p743
aS'probability theory'
p744
aVbayesian statistic
p745
aS'environmental engineering'
p746
aS'etl'
p747
aS'html5'
p748
aS'negotiation'
p749
aS'gps'
p750
aS'forecasting'
p751
aS'octave'
p752
aS'shell scripting'
p753
aS'characterization'
p754
aS'attribution modeling'
p755
aS'r programming'
p756
aS'data science'
p757
aS'robotics'
p758
aS'reinforcement learning'
p759
aS'thought leadership'
p760
aS'grants'
p761
aS'data warehousing'
p762
aS'anova'
p763
aS'linux'
p764
aS'simulation modeling'
p765
aS'fourier analysis'
p766
aS'database management'
p767
aS'telecommunications'
p768
aS'information visualization'
p769
aS'qlikview'
p770
aS'pricing optimization'
p771
aS'java'
p772
aS'publishing'
p773
aS'mechanical engineering'
p774
aS'omniture'
p775
aS'deep learning'
p776
aS'user interface'
p777
aS'strategy'
p778
aS'asp.net mvc'
p779
aS'commodity markets'
p780
aS'json'
p781
aS'secondary research'
p782
aS'teamwork'
p783
aS'mixed model'
p784
aS'dreamweaver'
p785
aS'event planning'
p786
aS'tensorflow'
p787
aS'numpy'
p788
aS'statistical learning'
p789
aS'operations research'
p790
aS'analysis services'
p791
aS'dashboarding'
p792
aS'customer satisfaction'
p793
aS'statistical data analysis'
p794
aS'human resources'
p795
aS'visual analytics'
p796
aS'business analysis'
p797
aS'molecular biology'
p798
aS'marketing communications'
p799
aS'credit cards'
p800
aS'healthcare industry'
p801
aS'spotfire'
p802
aS'vba'
p803
aS'sales operations'
p804
aS'apache pig'
p805
aS'strategic partnerships'
p806
aS'aviation'
p807
aS'ruby'
p808
aS'survey research'
p809
aS'hardware diagnostics'
p810
aS'software quality assurance'
p811
aVbayesian network
p812
aS'econometric modeling'
p813
aS'non-profits'
p814
aS'hedis'
p815
aS'consumer behaviour'
p816
aS'lean six sigma'
p817
aS'sap erp'
p818
aS'program development'
p819
aS'health insurance'
p820
aS'strategic communications'
p821
aS'optimization algorithms'
p822
aS'statistical arbitrage'
p823
aS'decision modeling'
p824
aS'optimization'
p825
aS'dashboard'
p826
aS'editorial'
p827
aS'vb.net'
p828
aS'product management'
p829
aS'team management'
p830
aS'advertising research'
p831
aS'application development'
p832
aS'trend analysis'
p833
aS'scientific programming'
p834
aS'r studio'
p835
aS'ip'
p836
aS'project planning'
p837
aS'simulations'
p838
aS'avro'
p839
aS'hardware'
p840
aS'cluster'
p841
aS'microsoft crm'
p842
aS'ansible'
p843
aS'operational excellence'
p844
aS'statistical analysis'
p845
aS'adobe photoshop'
p846
aS'politics'
p847
aS'signal processing'
p848
aS'ic'
p849
aS'sas programming'
p850
aS'regression'
p851
aS'integer programming'
p852
aS'sql database design'
p853
aS'nanofabrication'
p854
aS'clinical trials'
p855
aS'program management'
p856
aS'digital signal processing'
p857
aS'servlets'
p858
aS'hadoop'
p859
aS'quantitative investing'
p860
aS'lamp'
p861
aS'coffeescript'
p862
aS'sap netweaver'
p863
aS'html'
p864
aS'fraud detection'
p865
aS'online advertising'
p866
aS'google cloud platform'
p867
aS'weblogic'
p868
aS'web mining'
p869
aS'android'
p870
aS'web development'
p871
aS'semiconductor device'
p872
aS'human computer interaction'
p873
aS'sentiment analysis'
p874
aS'six sigma'
p875
aS'quality management'
p876
aS'ios'
p877
aS'automation'
p878
aS'assembly language'
p879
aS'presentations'
p880
aS'medicaid'
p881
aS'architectures'
p882
aS'bloomberg'
p883
aS't-sql'
p884
aS'bayesian inference'
p885
aS'hipaa'
p886
aS'statistical programming'
p887
aS'model selection'
p888
aS'process development'
p889
aS'business process re-engineering'
p890
aS'awesomeness'
p891
aS'pattern recognition'
p892
aS'in vitro'
p893
aS'ampl'
p894
aS'presto'
p895
aS'start-ups'
p896
aS'eye tracking'
p897
aS'market data'
p898
aS'image analysis'
p899
aS'analysis'
p900
aS'sas enterprise miner'
p901
aS'data center'
p902
aS'procurement'
p903
aS'materials'
p904
aS'command'
p905
aS'data integration'
p906
aS'business process design'
p907
aS'english'
p908
aS'netezza'
p909
aS'organization'
p910
aS'docker'
p911
aS'chemistry'
p912
aS'video editing'
p913
aS'investments'
p914
aS'sap hana'
p915
aS'digital marketing'
p916
aS'web applications'
p917
aS'solaris'
p918
aS'mobile marketing'
p919
aS'nosql'
p920
aS'model validation'
p921
aS'excel'
p922
aS'proprietary trading'
p923
aS'rest'
p924
aS'trading strategies'
p925
aS'spss modeler'
p926
aS'tcl'
p927
aS'product strategy'
p928
aS'mysql'
p929
aS'digital analytics'
p930
aS'distributed systems'
p931
aS'change management'
p932
aS'visualization'
p933
aS'microsoft project'
p934
aS'french'
p935
aS'autocad'
p936
aS'cancer'
p937
aS'complex systems'
p938
aS'time series analysis'
p939
aS'agile'
p940
aS'bayesian statistics'
p941
aS'outlook'
p942
aS'd3.js'
p943
aS'subversion'
p944
aS'fortran'
p945
aS'evolutionary computation'
p946
aS'oracle sql'
p947
aS'prezi'
p948
aS'principal component analysis'
p949
aS'gmp'
p950
aS'microsoft excel'
p951
aS'css3'
p952
aS'optimizations'
p953
aS'gams'
p954
aS'oop'
p955
aS'government'
p956
aS'design thinking'
p957
aS'windows server'
p958
aS'wcf'
p959
aS'user research'
p960
aS'experimental design'
p961
aS'salesforce.com'
p962
aS'product design'
p963
aS'military experience'
p964
aS'julia'
p965
aS'aerospace'
p966
aS'performance tuning'
p967
aS'sequencing'
p968
aS'distributed algorithms'
p969
aS'nanotechnology'
p970
aS'social networking'
p971
aS'pharmacovigilance'
p972
aS'customer experience'
p973
aS'equities'
p974
aS'apache hive'
p975
aS'swift'
p976
aS'regular expressions'
p977
aS'systems analysis'
p978
aS'scikit-learn'
p979
aS'systems design'
p980
aS'securities'
p981
aS'online marketing'
p982
aS'managed care'
p983
aS'cognition'
p984
aS'statistical inference'
p985
aS'security'
p986
aS'rstudio'
p987
aS'market analysis'
p988
aS'venture capital'
p989
aS'financial markets'
p990
aS'centos'
p991
aS'text analytics'
p992
aS'public relations'
p993
aS'spring'
p994
aS'data mining'
p995
aS'regression testing'
p996
aS'information retrieval'
p997
aS'sql development'
p998
aS'health policy'
p999
aS'asp.net'
p1000
aS'geospatial data'
p1001
aS'pricing'
p1002
aS'usability testing'
p1003
aS'public policy'
p1004
aS'cascading style sheets css'
p1005
aS'econometrics'
p1006
aS'teradata sql'
p1007
aS'structured finance'
p1008
aS'market risk'
p1009
aS'sociology'
p1010
aS'genetics'
p1011
aS'optimal control'
p1012
aS'scala'
p1013
aS'team building'
p1014
aS'data migration'
p1015
aS'lead generation'
p1016
aS'saas'
p1017
aS'integration'
p1018
aS'web crawling'
p1019
aS'online research'
p1020
aS'mathematical statistics'
p1021
aS'technical recruiting'
p1022
aS'web services'
p1023
aS'innovation'
p1024
aS'information security'
p1025
aS'uml'
p1026
aS'monetization'
p1027
aS'greenplum'
p1028
aS'assay development'
p1029
aS'biology'
p1030
aS'data analysis'
p1031
aS'product development'
p1032
aS'process optimization'
p1033
aS'genomics'
p1034
aS'marketing'
p1035
aS'informatica'
p1036
aS'processing'
p1037
aS'performance measurement'
p1038
aS'maven'
p1039
aS'epidemiology'
p1040
aS'leadership'
p1041
aS'biomarkers'
p1042
aS'google adwords'
p1043
aS'windows 7'
p1044
aS'informatics'
p1045
aS'dna'
p1046
aS'manufacturing'
p1047
aS'loans'
p1048
aS'eeg'
p1049
aS'rdbms'
p1050
aS'financial risk'
p1051
aS'b testing'
p1052
aS'postgresql'
p1053
aS'national security'
p1054
aS'gis analysis'
p1055
aS'staff development'
p1056
aS'marketing analytics'
p1057
aS'primary research'
p1058
aS'spss'
p1059
aS'arcgis'
p1060
aS'idl'
p1061
aS'medicare'
p1062
aS'cuda'
p1063
aS'executive management'
p1064
aS'cyber-security'
p1065
aS'jsp'
p1066
aS'international business'
p1067
aS'clojure'
p1068
aS'microsoft office'
p1069
aS'powerpoint'
p1070
aS'ppc'
p1071
aS'owl'
p1072
aS'consulting'
p1073
aS'neural networks'
p1074
aS'government contracting'
p1075
aS'vhdl'
p1076
aS'communication'
p1077
aS'splunk'
p1078
aS'intelligence analysis'
p1079
aS'dashboards'
p1080
aS'mllib'
p1081
aS'user interface design'
p1082
aS'haskell'
p1083
aS'statistical sampling'
p1084
aS'troubleshooting'
p1085
aS'problem solving'
p1086
aS'oracle e-business suite'
p1087
aS'sports'
p1088
aS'quantitative analysis'
p1089
aS'enterprise risk management'
p1090
aS'visual basic applications vba'
p1091
aS'lingo'
p1092
aS'clustering'
p1093
aS'pricing analysis'
p1094
aS'git'
p1095
aS'multivariate analysis'
p1096
aS'marketing mix modeling'
p1097
aS'opengl'
p1098
aS'vbscript'
p1099
aS'strategic consulting'
p1100
aS'continuous improvement'
p1101
aS'statistica'
p1102
aS'heroku'
p1103
aS'energy policy'
p1104
aS'emacs'
p1105
aS'data munging'
p1106
aS'renewable energy'
p1107
aS'astrophysics'
p1108
aS'music'
p1109
aS'pivot tables'
p1110
aS'linear programming'
p1111
aS'artificial intelligence'
p1112
aS'systems engineering'
p1113
aS'feature extraction'
p1114
aS'biomedical engineering'
p1115
aS'business process improvement'
p1116
aS'apis'
p1117
aS'ruby rails'
p1118
aS'computer graphics'
p1119
aS'linq'
p1120
aS'website development'
p1121
aS'wireless'
p1122
aS'process modeling'
p1123
aS'construction'
p1124
aS'chemical engineering'
p1125
aS'computer security'
p1126
aS'pricing strategy'
p1127
aS'information theory'
p1128
aS'valuation'
p1129
aS'fda'
p1130
aS'software design'
p1131
aS'life sciences'
p1132
aS'fraud'
p1133
aS'illustrator'
p1134
aS'parallel programming'
p1135
aS'community outreach'
p1136
aS'human factors'
p1137
aS'smart grid'
p1138
aS'agile project management'
p1139
aS'demand generation'
p1140
aS'credit scoring'
p1141
aS'amazon redshift'
p1142
aS'pl'
p1143
aS'spectroscopy'
p1144
aS'e-learning'
p1145
aS'electrical engineering'
p1146
aS'clinical research'
p1147
aS'organizational effectiveness'
p1148
aS'powershell'
p1149
aS'pharmacology'
p1150
aS'virtualization'
p1151
aS'higher education'
p1152
aS'performance testing'
p1153
aS'computational genomics'
p1154
aS'regression analysis'
p1155
aS'sqoop'
p1156
aS'immunology'
p1157
aS'sales'
p1158
aS'restful webservices'
p1159
aS'pig'
p1160
aS'report writing'
p1161
aS'engineering'
p1162
aS'ssrs'
p1163
aS'gephi'
p1164
aS'high performance computing'
p1165
aS'laboratory'
p1166
aS'accounting'
p1167
aS'education'
p1168
aS'hospitals'
p1169
aS'objective-c'
p1170
aS'economic research'
p1171
aS'iis'
p1172
aS'biochemistry'
p1173
aS'mathematica'
p1174
aS'storage'
p1175
aS'h2o'
p1176
aS'agent-based modeling'
p1177
aS'social sciences'
p1178
aS'sybase'
p1179
aS'quantitative models'
p1180
aS'computer science'
p1181
aS'health services research'
p1182
aS'cheminformatics'
p1183
aS'database development'
p1184
aS'mathematics'
p1185
aS'pandas'
p1186
aS'product lifecycle management'
p1187
aS'mri'
p1188
aS'financial modeling'
p1189
aS'reliability engineering'
p1190
aS'toad'
p1191
aS'gas'
p1192
aS'cobol'
p1193
aS'scrum'
p1194
aS'customer retention'
p1195
aS'ggplot'
p1196
aS'interaction design'
p1197
aS'sql'
p1198
aS'neuroscience'
p1199
aS'astronomy'
p1200
aS'cell biology'
p1201
aS'emerging markets'
p1202
aS'disaster recovery'
p1203
aS'tomcat'
p1204
aS'groovy'
p1205
aS'cloud computing'
p1206
aS'wifi'
p1207
aS'business strategy'
p1208
aS'unit testing'
p1209
aS'organizational development'
p1210
aS'information assurance'
p1211
aS'jenkins'
p1212
aS'exploratory data analysis'
p1213
aS'stochastic modeling'
p1214
aS'oracle'
p1215
aS'biotechnology'
p1216
aS'validation'
p1217
aS'industrial engineering'
p1218
aS'industrial organization'
p1219
asS'working-year'
p1220
(lp1221
V(15, 20]
p1222
aV(5, 10]
p1223
aV(0, 2]
p1224
aV(2, 5]
p1225
aV(20, 30)
p1226
aS'[0]'
p1227
aV(10, 15]
p1228
asS'major'
p1229
(lp1230
VLinguistics
p1231
aVStatistics
p1232
aVPsychology
p1233
aVSociology
p1234
aVAstrophysics
p1235
aVMathematics
p1236
aVBusiness
p1237
aVInformation Science
p1238
aVComputer Science
p1239
aVData Science
p1240
aVEconomics
p1241
aVCognitive Science
p1242
aVChemical Engineering
p1243
aVBiological Engineering
p1244
aVPhysics
p1245
aVManagement Science and Engineering
p1246
aVTransportation Engineering
p1247
aVIndustrial Engineering
p1248
aVElectrical and Electronics Engineering
p1249
aVEngineering
p1250
aVEnvironmental Engineering
p1251
aVOperations Research
p1252
aVGeography
p1253
asS'education'
p1254
(lp1255
VBachelor
p1256
aVMaster
p1257
aVDoctor
p1258
asS'responsibility'
p1259
(lp1260
S'build dashboard'
p1261
aS'architect system'
p1262
aS'non-routine analysis problem'
p1263
aS'transform data set'
p1264
aS'insight'
p1265
aS'manage data'
p1266
aS'provide mentorship'
p1267
aS'cross-functionally'
p1268
aS'exploratory analysis'
p1269
aS'product leadership'
p1270
aS'evaluate ... experiment'
p1271
aS'improvement'
p1272
aS'analytic'
p1273
aS'presentation'
p1274
aS'transformation'
p1275
aS'financial model'
p1276
aS'prioritize lead'
p1277
aS'quantitative information'
p1278
aS'report'
p1279
aS'monitor ... metric'
p1280
aS'discover pattern'
p1281
aS'drive ... model'
p1282
aS'experiment analysis'
p1283
aS'manage decision'
p1284
aS'manipulate ... data set'
p1285
aS'ad-hoc exploratory'
p1286
aS'develop ... system'
p1287
aS'design'
p1288
aS'cost benefit'
p1289
aS'recommendation'
p1290
aS'extract'
p1291
aS'cost-benefit'
p1292
aS'mine data'
p1293
aS'explore opportunity'
p1294
aS'pattern'
p1295
aS'ensure accuracy'
p1296
aS'forecast'
p1297
aS'track ... activity'
p1298
aS'automate report'
p1299
aS'evaluation'
p1300
aS'data analysis'
p1301
aS'build model'
p1302
aS'provide leadership'
p1303
aS'processing'
p1304
aS'communicate'
p1305
aS'create rule'
p1306
aS'statistical method'
p1307
aS'problem statement'
p1308
aS'interface'
p1309
aS'product decision'
p1310
aS'data gathering'
p1311
aS'support platform'
p1312
aS'simulation'
p1313
aS'product launch'
p1314
aS'implement'
p1315
aS'engineering design'
p1316
aS'business recommendation'
p1317
aS'forecasting'
p1318
aVproduct operation
p1319
aS'manipulate ... dataset'
p1320
aVtest hypothesis
p1321
aS'identify opportunity'
p1322
aS'due diligence'
p1323
aS'drive ... decision'
p1324
aS'data mining'
p1325
aS'quantitative analysis'
p1326
aS'decision making'
p1327
aS'formulate'
p1328
aS'construct'
p1329
aS'develop ... model'
p1330
aS'tactical initiative'
p1331
aS'complex data set'
p1332
aS'prototype'
p1333
aS'data sourcing'
p1334
aS'data infrastructure'
p1335
aS'business problem'
p1336
aS'collect data'
p1337
aS'statistical model'
p1338
aS'understand'
p1339
aS'key decision'
p1340
aS'identify ... trend'
p1341
aS'design ... experiment'
p1342
aS'ensure data integrity'
p1343
aS'data collection'
p1344
aVass ... improvement
p1345
aS'optimization'
p1346
aS'analytical method'
p1347
aS'go-to-market strategy'
p1348
aS'predict'
p1349
aVrequirement specification
p1350
aS'solve problem'
p1351
aS'modeling'
p1352
aS'information'
p1353
aS'cross functionally'
p1354
aS'define metric'
p1355
aS'visual display'
p1356
aS'ongoing deliverable'
p1357
aS'development'
p1358
aS'product'
p1359
aS'large data set'
p1360
aS'decision-making'
p1361
aS'mapping'
p1362
aS'ownership'
p1363
aS'data wrangling'
p1364
aS'evaluate ... metric'
p1365
aS'normalization'
p1366
aS'test ... model'
p1367
aS'documentation'
p1368
aS'analysis'
p1369
aS'model'
p1370
aS'build solution'
p1371
aS'validate ... model'
p1372
aS'data aggregation'
p1373
as.