(dp1
I0
I8192
sI1
I1
sI2
I8194
sI3
I8195
sI4
I4
sI5
I5
sI6
I8
sI7
I9
sI8
I10
sI9
I8204
sI10
I13
sI11
I14
sI12
I8207
sI13
I16
sI14
I17
sI15
I18
sI16
I20
sI17
I8213
sI18
I8214
sI19
I23
sI20
I24
sI21
I8217
sI22
I26
sI23
I8219
sI24
I28
sI25
I29
sI26
I30
sI27
I32
sI28
I33
sI29
I8226
sI30
I36
sI31
I8229
sI32
I38
sI33
I39
sI34
I40
sI35
I8233
sI36
I42
sI37
I43
sI38
I44
sI39
I8237
sI40
I46
sI41
I8239
sI42
I8240
sI43
I8200
sI44
I50
sI45
I8243
sI46
I52
sI47
I8245
sI48
I54
sI49
I8247
sI50
I56
sI51
I57
sI52
I58
sI53
I59
sI54
I60
sI55
I8202
sI56
I62
sI57
I63
sI58
I65
sI59
I66
sI60
I67
sI61
I68
sI62
I8261
sI63
I70
sI64
I72
sI65
I73
sI66
I74
sI67
I75
sI68
I8268
sI69
I77
sI70
I78
sI71
I79
sI72
I80
sI73
I83
sI74
I84
sI75
I85
sI76
I8278
sI77
I87
sI78
I88
sI79
I8283
sI80
I92
sI81
I93
sI82
I94
sI83
I95
sI84
I8288
sI85
I97
sI86
I98
sI87
I99
sI88
I100
sI89
I101
sI90
I102
sI91
I103
sI92
I104
sI93
I8297
sI94
I106
sI95
I107
sI96
I8300
sI97
I109
sI98
I8302
sI99
I111
sI100
I112
sI101
I8305
sI102
I114
sI103
I8307
sI104
I116
sI105
I8309
sI106
I118
sI107
I8311
sI108
I120
sI109
I121
sI110
I123
sI111
I124
sI112
I125
sI113
I126
sI114
I127
sI115
I128
sI116
I129
sI117
I130
sI118
I8323
sI119
I8324
sI120
I133
sI121
I8327
sI122
I136
sI123
I137
sI124
I138
sI125
I139
sI126
I140
sI127
I142
sI128
I143
sI129
I144
sI130
I145
sI131
I8338
sI132
I147
sI133
I8340
sI134
I8341
sI135
I150
sI136
I151
sI137
I152
sI138
I154
sI139
I155
sI140
I158
sI141
I160
sI142
I161
sI143
I8354
sI144
I163
sI145
I8356
sI146
I8357
sI147
I8358
sI148
I167
sI149
I168
sI150
I170
sI151
I171
sI152
I172
sI153
I175
sI154
I8368
sI155
I177
sI156
I8370
sI157
I180
sI158
I181
sI159
I8374
sI160
I8375
sI161
I184
sI162
I185
sI163
I8378
sI164
I187
sI165
I189
sI166
I190
sI167
I191
sI168
I8384
sI169
I193
sI170
I194
sI171
I195
sI172
I197
sI173
I8390
sI174
I199
sI175
I8393
sI176
I202
sI177
I8395
sI178
I204
sI179
I205
sI180
I206
sI181
I8399
sI182
I210
sI183
I8403
sI184
I212
sI185
I8405
sI186
I214
sI187
I216
sI188
I217
sI189
I8410
sI190
I219
sI191
I8412
sI192
I221
sI193
I222
sI194
I223
sI195
I225
sI196
I8418
sI197
I227
sI198
I228
sI199
I8230
sI200
I8423
sI201
I8424
sI202
I233
sI203
I235
sI204
I236
sI205
I237
sI206
I238
sI207
I239
sI208
I8433
sI209
I242
sI210
I243
sI211
I244
sI212
I245
sI213
I246
sI214
I247
sI215
I248
sI216
I249
sI217
I250
sI218
I8444
sI219
I253
sI220
I254
sI221
I256
sI222
I257
sI223
I258
sI224
I259
sI225
I260
sI226
I261
sI227
I263
sI228
I264
sI229
I8236
sI230
I266
sI231
I268
sI232
I269
sI233
I8463
sI234
I272
sI235
I273
sI236
I274
sI237
I8467
sI238
I276
sI239
I277
sI240
I279
sI241
I280
sI242
I8473
sI243
I282
sI244
I8475
sI245
I284
sI246
I285
sI247
I286
sI248
I287
sI249
I289
sI250
I290
sI251
I291
sI252
I293
sI253
I294
sI254
I296
sI255
I8489
sI256
I298
sI257
I299
sI258
I300
sI259
I301
sI260
I302
sI261
I305
sI262
I307
sI263
I308
sI264
I8501
sI265
I310
sI266
I311
sI267
I8244
sI268
I8506
sI269
I315
sI270
I317
sI271
I8510
sI272
I319
sI273
I320
sI274
I324
sI275
I325
sI276
I326
sI277
I327
sI278
I328
sI279
I329
sI280
I8522
sI281
I331
sI282
I332
sI283
I333
sI284
I334
sI285
I335
sI286
I336
sI287
I337
sI288
I8531
sI289
I340
sI290
I341
sI291
I344
sI292
I345
sI293
I347
sI294
I348
sI295
I349
sI296
I351
sI297
I353
sI298
I354
sI299
I8251
sI300
I357
sI301
I358
sI302
I362
sI303
I364
sI304
I366
sI305
I370
sI306
I371
sI307
I372
sI308
I377
sI309
I378
sI310
I379
sI311
I380
sI312
I381
sI313
I382
sI314
I385
sI315
I386
sI316
I388
sI317
I389
sI318
I391
sI319
I393
sI320
I394
sI321
I397
sI322
I400
sI323
I402
sI324
I403
sI325
I404
sI326
I406
sI327
I407
sI328
I408
sI329
I8260
sI330
I411
sI331
I413
sI332
I414
sI333
I415
sI334
I418
sI335
I420
sI336
I421
sI337
I423
sI338
I425
sI339
I429
sI340
I430
sI341
I431
sI342
I432
sI343
I434
sI344
I435
sI345
I436
sI346
I437
sI347
I438
sI348
I439
sI349
I440
sI350
I442
sI351
I443
sI352
I444
sI353
I445
sI354
I446
sI355
I447
sI356
I448
sI357
I451
sI358
I454
sI359
I455
sI360
I457
sI361
I458
sI362
I459
sI363
I461
sI364
I466
sI365
I468
sI366
I469
sI367
I470
sI368
I474
sI369
I475
sI370
I477
sI371
I478
sI372
I479
sI373
I480
sI374
I481
sI375
I482
sI376
I483
sI377
I484
sI378
I485
sI379
I487
sI380
I488
sI381
I489
sI382
I491
sI383
I492
sI384
I493
sI385
I494
sI386
I495
sI387
I496
sI388
I498
sI389
I499
sI390
I501
sI391
I502
sI392
I503
sI393
I504
sI394
I7109
sI395
I509
sI396
I510
sI397
I513
sI398
I515
sI399
I516
sI400
I521
sI401
I522
sI402
I523
sI403
I526
sI404
I527
sI405
I528
sI406
I529
sI407
I530
sI408
I531
sI409
I532
sI410
I534
sI411
I535
sI412
I537
sI413
I540
sI414
I542
sI415
I546
sI416
I549
sI417
I553
sI418
I556
sI419
I557
sI420
I558
sI421
I559
sI422
I560
sI423
I561
sI424
I563
sI425
I564
sI426
I8286
sI427
I568
sI428
I569
sI429
I571
sI430
I572
sI431
I577
sI432
I578
sI433
I579
sI434
I580
sI435
I581
sI436
I8289
sI437
I584
sI438
I585
sI439
I586
sI440
I587
sI441
I588
sI442
I8290
sI443
I590
sI444
I594
sI445
I8291
sI446
I596
sI447
I598
sI448
I599
sI449
I600
sI450
I8292
sI451
I602
sI452
I605
sI453
I608
sI454
I609
sI455
I610
sI456
I611
sI457
I612
sI458
I614
sI459
I615
sI460
I616
sI461
I617
sI462
I8295
sI463
I620
sI464
I621
sI465
I622
sI466
I624
sI467
I626
sI468
I627
sI469
I628
sI470
I629
sI471
I630
sI472
I632
sI473
I633
sI474
I638
sI475
I640
sI476
I641
sI477
I643
sI478
I645
sI479
I648
sI480
I650
sI481
I652
sI482
I653
sI483
I654
sI484
I656
sI485
I657
sI486
I8478
sI487
I659
sI488
I660
sI489
I661
sI490
I662
sI491
I663
sI492
I664
sI493
I665
sI494
I666
sI495
I667
sI496
I668
sI497
I669
sI498
I670
sI499
I672
sI500
I673
sI501
I674
sI502
I675
sI503
I676
sI504
I677
sI505
I678
sI506
I680
sI507
I681
sI508
I683
sI509
I8306
sI510
I687
sI511
I689
sI512
I690
sI513
I691
sI514
I693
sI515
I694
sI516
I695
sI517
I8308
sI518
I698
sI519
I703
sI520
I704
sI521
I705
sI522
I708
sI523
I8310
sI524
I710
sI525
I711
sI526
I713
sI527
I715
sI528
I716
sI529
I719
sI530
I723
sI531
I724
sI532
I725
sI533
I727
sI534
I728
sI535
I729
sI536
I732
sI537
I736
sI538
I738
sI539
I739
sI540
I740
sI541
I742
sI542
I743
sI543
I744
sI544
I745
sI545
I747
sI546
I749
sI547
I8317
sI548
I752
sI549
I754
sI550
I755
sI551
I757
sI552
I761
sI553
I762
sI554
I763
sI555
I764
sI556
I769
sI557
I770
sI558
I8209
sI559
I773
sI560
I775
sI561
I779
sI562
I8322
sI563
I783
sI564
I784
sI565
I785
sI566
I786
sI567
I790
sI568
I791
sI569
I793
sI570
I794
sI571
I795
sI572
I796
sI573
I797
sI574
I8325
sI575
I800
sI576
I803
sI577
I805
sI578
I806
sI579
I808
sI580
I809
sI581
I811
sI582
I813
sI583
I815
sI584
I816
sI585
I8516
sI586
I818
sI587
I820
sI588
I821
sI589
I822
sI590
I8329
sI591
I824
sI592
I825
sI593
I826
sI594
I827
sI595
I830
sI596
I831
sI597
I835
sI598
I837
sI599
I840
sI600
I8332
sI601
I843
sI602
I844
sI603
I846
sI604
I848
sI605
I850
sI606
I851
sI607
I853
sI608
I856
sI609
I857
sI610
I860
sI611
I862
sI612
I864
sI613
I865
sI614
I866
sI615
I868
sI616
I870
sI617
I871
sI618
I872
sI619
I874
sI620
I875
sI621
I879
sI622
I880
sI623
I882
sI624
I8339
sI625
I884
sI626
I885
sI627
I886
sI628
I887
sI629
I889
sI630
I891
sI631
I892
sI632
I894
sI633
I895
sI634
I896
sI635
I897
sI636
I898
sI637
I899
sI638
I900
sI639
I901
sI640
I903
sI641
I904
sI642
I905
sI643
I906
sI644
I908
sI645
I909
sI646
I912
sI647
I913
sI648
I915
sI649
I916
sI650
I917
sI651
I919
sI652
I920
sI653
I921
sI654
I924
sI655
I925
sI656
I926
sI657
I927
sI658
I928
sI659
I929
sI660
I933
sI661
I934
sI662
I935
sI663
I940
sI664
I941
sI665
I944
sI666
I945
sI667
I947
sI668
I949
sI669
I950
sI670
I951
sI671
I952
sI672
I955
sI673
I957
sI674
I958
sI675
I960
sI676
I8352
sI677
I962
sI678
I963
sI679
I964
sI680
I965
sI681
I966
sI682
I8353
sI683
I970
sI684
I971
sI685
I974
sI686
I975
sI687
I978
sI688
I979
sI689
I980
sI690
I981
sI691
I982
sI692
I983
sI693
I985
sI694
I989
sI695
I990
sI696
I991
sI697
I993
sI698
I994
sI699
I997
sI700
I998
sI701
I8359
sI702
I1005
sI703
I1006
sI704
I1007
sI705
I1008
sI706
I1009
sI707
I1010
sI708
I1012
sI709
I1015
sI710
I1016
sI711
I1017
sI712
I1018
sI713
I1020
sI714
I1024
sI715
I1026
sI716
I1027
sI717
I1029
sI718
I1030
sI719
I1031
sI720
I1033
sI721
I1034
sI722
I1035
sI723
I1036
sI724
I1037
sI725
I1038
sI726
I1040
sI727
I1043
sI728
I1046
sI729
I1047
sI730
I1048
sI731
I1049
sI732
I1051
sI733
I1052
sI734
I1053
sI735
I1055
sI736
I1056
sI737
I1057
sI738
I1058
sI739
I1060
sI740
I1064
sI741
I1065
sI742
I1067
sI743
I1068
sI744
I1070
sI745
I1075
sI746
I1077
sI747
I1078
sI748
I1080
sI749
I8372
sI750
I1083
sI751
I1084
sI752
I1085
sI753
I1088
sI754
I1089
sI755
I1090
sI756
I1091
sI757
I1092
sI758
I1094
sI759
I1098
sI760
I1102
sI761
I8376
sI762
I1107
sI763
I1108
sI764
I1109
sI765
I8377
sI766
I1112
sI767
I1114
sI768
I1115
sI769
I1116
sI770
I1118
sI771
I1119
sI772
I1120
sI773
I1122
sI774
I1123
sI775
I1124
sI776
I1125
sI777
I1126
sI778
I1127
sI779
I1130
sI780
I1131
sI781
I1132
sI782
I1134
sI783
I1136
sI784
I1138
sI785
I1139
sI786
I1141
sI787
I1142
sI788
I1146
sI789
I8383
sI790
I1148
sI791
I1150
sI792
I1152
sI793
I1153
sI794
I1154
sI795
I1155
sI796
I1156
sI797
I1157
sI798
I1160
sI799
I1162
sI800
I1165
sI801
I1168
sI802
I1169
sI803
I8387
sI804
I1173
sI805
I1174
sI806
I1176
sI807
I1177
sI808
I1182
sI809
I1183
sI810
I1187
sI811
I1190
sI812
I1193
sI813
I8391
sI814
I1198
sI815
I1199
sI816
I1200
sI817
I1201
sI818
I1202
sI819
I1209
sI820
I1210
sI821
I1211
sI822
I8394
sI823
I1217
sI824
I1219
sI825
I1220
sI826
I1221
sI827
I8396
sI828
I1226
sI829
I1228
sI830
I1231
sI831
I1232
sI832
I1234
sI833
I1236
sI834
I1237
sI835
I1238
sI836
I1241
sI837
I1245
sI838
I1246
sI839
I1247
sI840
I1248
sI841
I8225
sI842
I1254
sI843
I1256
sI844
I1257
sI845
I1260
sI846
I8402
sI847
I1263
sI848
I1264
sI849
I1266
sI850
I1267
sI851
I1268
sI852
I1269
sI853
I1271
sI854
I1272
sI855
I8404
sI856
I1274
sI857
I1280
sI858
I1281
sI859
I1284
sI860
I1285
sI861
I1286
sI862
I1288
sI863
I1290
sI864
I1292
sI865
I1295
sI866
I1296
sI867
I1297
sI868
I1299
sI869
I1300
sI870
I1301
sI871
I1310
sI872
I1313
sI873
I1316
sI874
I1319
sI875
I1320
sI876
I1324
sI877
I1328
sI878
I1330
sI879
I1332
sI880
I8414
sI881
I1334
sI882
I1336
sI883
I1337
sI884
I1338
sI885
I1339
sI886
I1341
sI887
I1342
sI888
I8228
sI889
I1344
sI890
I1345
sI891
I1346
sI892
I1347
sI893
I1355
sI894
I1357
sI895
I1358
sI896
I1359
sI897
I1360
sI898
I1363
sI899
I1364
sI900
I1366
sI901
I1369
sI902
I1370
sI903
I1373
sI904
I1375
sI905
I1376
sI906
I1377
sI907
I1378
sI908
I1379
sI909
I1380
sI910
I1382
sI911
I1383
sI912
I1386
sI913
I1389
sI914
I1395
sI915
I1396
sI916
I1398
sI917
I1399
sI918
I1402
sI919
I1404
sI920
I1405
sI921
I1406
sI922
I1407
sI923
I1408
sI924
I1409
sI925
I1410
sI926
I1411
sI927
I1412
sI928
I1413
sI929
I1415
sI930
I8428
sI931
I1418
sI932
I1419
sI933
I1421
sI934
I1422
sI935
I1425
sI936
I1426
sI937
I1427
sI938
I1429
sI939
I1430
sI940
I8231
sI941
I8431
sI942
I1436
sI943
I1437
sI944
I1438
sI945
I1440
sI946
I1443
sI947
I1444
sI948
I1445
sI949
I1446
sI950
I1448
sI951
I1452
sI952
I1453
sI953
I1455
sI954
I1456
sI955
I1457
sI956
I1458
sI957
I1459
sI958
I1460
sI959
I1461
sI960
I1462
sI961
I8436
sI962
I1466
sI963
I1469
sI964
I1470
sI965
I8437
sI966
I1477
sI967
I1481
sI968
I1482
sI969
I1483
sI970
I1486
sI971
I1487
sI972
I1489
sI973
I1490
sI974
I1491
sI975
I1492
sI976
I1493
sI977
I1494
sI978
I1495
sI979
I1496
sI980
I1498
sI981
I1499
sI982
I1500
sI983
I1501
sI984
I1502
sI985
I1503
sI986
I1504
sI987
I1509
sI988
I1512
sI989
I1513
sI990
I1515
sI991
I1516
sI992
I1517
sI993
I1519
sI994
I1521
sI995
I1523
sI996
I1524
sI997
I8446
sI998
I1527
sI999
I1528
sI1000
I1531
sI1001
I1534
sI1002
I1535
sI1003
I1538
sI1004
I1539
sI1005
I1540
sI1006
I1541
sI1007
I1543
sI1008
I1545
sI1009
I1546
sI1010
I1547
sI1011
I1551
sI1012
I1553
sI1013
I1554
sI1014
I1555
sI1015
I1556
sI1016
I1558
sI1017
I1560
sI1018
I1561
sI1019
I1562
sI1020
I1566
sI1021
I1568
sI1022
I1570
sI1023
I1571
sI1024
I1575
sI1025
I1576
sI1026
I1577
sI1027
I1578
sI1028
I1579
sI1029
I1581
sI1030
I1582
sI1031
I1584
sI1032
I1586
sI1033
I1587
sI1034
I8457
sI1035
I1596
sI1036
I1597
sI1037
I1599
sI1038
I1417
sI1039
I1603
sI1040
I1604
sI1041
I1606
sI1042
I1607
sI1043
I3054
sI1044
I1610
sI1045
I1612
sI1046
I1615
sI1047
I1616
sI1048
I1622
sI1049
I1623
sI1050
I1625
sI1051
I1626
sI1052
I271
sI1053
I1628
sI1054
I1631
sI1055
I1632
sI1056
I1633
sI1057
I1636
sI1058
I1637
sI1059
I1638
sI1060
I1641
sI1061
I1642
sI1062
I1643
sI1063
I1644
sI1064
I8466
sI1065
I1647
sI1066
I1648
sI1067
I8511
sI1068
I1650
sI1069
I1651
sI1070
I1652
sI1071
I1653
sI1072
I1654
sI1073
I1657
sI1074
I1659
sI1075
I1660
sI1076
I1661
sI1077
I1662
sI1078
I1663
sI1079
I1665
sI1080
I1666
sI1081
I1669
sI1082
I1672
sI1083
I1674
sI1084
I1675
sI1085
I1676
sI1086
I1677
sI1087
I1678
sI1088
I1681
sI1089
I1682
sI1090
I1687
sI1091
I1690
sI1092
I1691
sI1093
I1692
sI1094
I1693
sI1095
I1694
sI1096
I1695
sI1097
I1696
sI1098
I1697
sI1099
I1699
sI1100
I1701
sI1101
I1703
sI1102
I1704
sI1103
I8476
sI1104
I1707
sI1105
I1709
sI1106
I1710
sI1107
I8477
sI1108
I1713
sI1109
I1715
sI1110
I1716
sI1111
I1717
sI1112
I1718
sI1113
I1721
sI1114
I1722
sI1115
I8479
sI1116
I1724
sI1117
I1727
sI1118
I1729
sI1119
I1731
sI1120
I1732
sI1121
I1733
sI1122
I1734
sI1123
I8481
sI1124
I1737
sI1125
I1738
sI1126
I1739
sI1127
I1744
sI1128
I1756
sI1129
I1757
sI1130
I1758
sI1131
I1759
sI1132
I1760
sI1133
I1763
sI1134
I1765
sI1135
I1768
sI1136
I1769
sI1137
I1771
sI1138
I1776
sI1139
I8488
sI1140
I1778
sI1141
I1779
sI1142
I1780
sI1143
I1784
sI1144
I1785
sI1145
I1786
sI1146
I1791
sI1147
I1792
sI1148
I1795
sI1149
I1796
sI1150
I1797
sI1151
I8468
sI1152
I1800
sI1153
I1801
sI1154
I1802
sI1155
I1804
sI1156
I1805
sI1157
I1807
sI1158
I1813
sI1159
I1815
sI1160
I1821
sI1161
I1823
sI1162
I1824
sI1163
I1825
sI1164
I1827
sI1165
I1828
sI1166
I8517
sI1167
I1831
sI1168
I1832
sI1169
I1834
sI1170
I1840
sI1171
I1841
sI1172
I8499
sI1173
I1844
sI1174
I1847
sI1175
I1848
sI1176
I1849
sI1177
I1850
sI1178
I1853
sI1179
I1856
sI1180
I1858
sI1181
I1859
sI1182
I1860
sI1183
I8502
sI1184
I1862
sI1185
I1863
sI1186
I1864
sI1187
I1866
sI1188
I1868
sI1189
I1870
sI1190
I1872
sI1191
I1873
sI1192
I1874
sI1193
I7139
sI1194
I1877
sI1195
I1879
sI1196
I1880
sI1197
I8246
sI1198
I1886
sI1199
I1889
sI1200
I1890
sI1201
I1891
sI1202
I1893
sI1203
I1894
sI1204
I1896
sI1205
I1900
sI1206
I1901
sI1207
I1902
sI1208
I1903
sI1209
I1907
sI1210
I1908
sI1211
I1909
sI1212
I1911
sI1213
I1912
sI1214
I1913
sI1215
I1915
sI1216
I1917
sI1217
I1919
sI1218
I8512
sI1219
I1923
sI1220
I1924
sI1221
I1925
sI1222
I1926
sI1223
I1929
sI1224
I1932
sI1225
I1934
sI1226
I1936
sI1227
I1938
sI1228
I1939
sI1229
I1940
sI1230
I1941
sI1231
I1942
sI1232
I8248
sI1233
I1944
sI1234
I1945
sI1235
I1946
sI1236
I1948
sI1237
I8469
sI1238
I1950
sI1239
I1951
sI1240
I1952
sI1241
I1953
sI1242
I1955
sI1243
I1956
sI1244
I8519
sI1245
I1966
sI1246
I1968
sI1247
I8520
sI1248
I1971
sI1249
I8521
sI1250
I1978
sI1251
I1981
sI1252
I1982
sI1253
I1983
sI1254
I1984
sI1255
I1991
sI1256
I1992
sI1257
I1993
sI1258
I1995
sI1259
I1997
sI1260
I8525
sI1261
I2002
sI1262
I8250
sI1263
I2004
sI1264
I8526
sI1265
I2009
sI1266
I8527
sI1267
I2012
sI1268
I2014
sI1269
I2015
sI1270
I2018
sI1271
I2021
sI1272
I2022
sI1273
I8529
sI1274
I2026
sI1275
I2029
sI1276
I2030
sI1277
I2033
sI1278
I2036
sI1279
I2038
sI1280
I2039
sI1281
I8524
sI1282
I8532
sI1283
I2044
sI1284
I2046
sI1285
I2050
sI1286
I2051
sI1287
I2055
sI1288
I2058
sI1289
I2060
sI1290
I2064
sI1291
I2068
sI1292
I2069
sI1293
I2075
sI1294
I2076
sI1295
I2077
sI1296
I2078
sI1297
I2079
sI1298
I2080
sI1299
I2082
sI1300
I2083
sI1301
I2085
sI1302
I2086
sI1303
I2087
sI1304
I2089
sI1305
I2090
sI1306
I2091
sI1307
I2092
sI1308
I2095
sI1309
I2098
sI1310
I2100
sI1311
I2101
sI1312
I2102
sI1313
I2103
sI1314
I2104
sI1315
I2107
sI1316
I2108
sI1317
I2110
sI1318
I2111
sI1319
I2112
sI1320
I2115
sI1321
I2120
sI1322
I2122
sI1323
I2123
sI1324
I2124
sI1325
I2125
sI1326
I2129
sI1327
I2130
sI1328
I2131
sI1329
I2133
sI1330
I2134
sI1331
I2137
sI1332
I2138
sI1333
I2139
sI1334
I2140
sI1335
I2141
sI1336
I2143
sI1337
I2144
sI1338
I2146
sI1339
I2148
sI1340
I2149
sI1341
I2150
sI1342
I2151
sI1343
I2152
sI1344
I8255
sI1345
I2159
sI1346
I2162
sI1347
I2163
sI1348
I2164
sI1349
I2174
sI1350
I2175
sI1351
I2176
sI1352
I2177
sI1353
I2180
sI1354
I2182
sI1355
I2184
sI1356
I2187
sI1357
I2188
sI1358
I2189
sI1359
I2190
sI1360
I2192
sI1361
I2193
sI1362
I2194
sI1363
I2195
sI1364
I2198
sI1365
I2199
sI1366
I2200
sI1367
I2201
sI1368
I2203
sI1369
I2204
sI1370
I2205
sI1371
I2209
sI1372
I2210
sI1373
I2212
sI1374
I2213
sI1375
I2214
sI1376
I2218
sI1377
I2219
sI1378
I2221
sI1379
I2223
sI1380
I2224
sI1381
I2228
sI1382
I2230
sI1383
I2232
sI1384
I2237
sI1385
I2238
sI1386
I2239
sI1387
I2240
sI1388
I2241
sI1389
I2244
sI1390
I2246
sI1391
I2249
sI1392
I2250
sI1393
I2253
sI1394
I2255
sI1395
I2259
sI1396
I2260
sI1397
I2261
sI1398
I2262
sI1399
I2264
sI1400
I2265
sI1401
I2266
sI1402
I2269
sI1403
I2270
sI1404
I2271
sI1405
I2272
sI1406
I2274
sI1407
I2275
sI1408
I2276
sI1409
I2277
sI1410
I2278
sI1411
I2279
sI1412
I2280
sI1413
I2281
sI1414
I2282
sI1415
I2283
sI1416
I2284
sI1417
I2285
sI1418
I2287
sI1419
I2288
sI1420
I2289
sI1421
I2291
sI1422
I2292
sI1423
I2293
sI1424
I2294
sI1425
I2299
sI1426
I2301
sI1427
I2305
sI1428
I2306
sI1429
I2308
sI1430
I2309
sI1431
I2310
sI1432
I2311
sI1433
I2312
sI1434
I2313
sI1435
I2314
sI1436
I2315
sI1437
I2316
sI1438
I2317
sI1439
I2318
sI1440
I2320
sI1441
I2321
sI1442
I2322
sI1443
I2323
sI1444
I2325
sI1445
I2326
sI1446
I2327
sI1447
I2328
sI1448
I2329
sI1449
I2330
sI1450
I2331
sI1451
I2332
sI1452
I2333
sI1453
I2337
sI1454
I2339
sI1455
I2340
sI1456
I2341
sI1457
I2342
sI1458
I2344
sI1459
I2345
sI1460
I2347
sI1461
I2348
sI1462
I2349
sI1463
I2350
sI1464
I2351
sI1465
I2352
sI1466
I2353
sI1467
I2355
sI1468
I2356
sI1469
I2357
sI1470
I2358
sI1471
I2360
sI1472
I2361
sI1473
I2362
sI1474
I2363
sI1475
I8262
sI1476
I2365
sI1477
I2366
sI1478
I2367
sI1479
I2369
sI1480
I2370
sI1481
I2371
sI1482
I2372
sI1483
I2374
sI1484
I2375
sI1485
I2377
sI1486
I2378
sI1487
I2380
sI1488
I2381
sI1489
I2382
sI1490
I2383
sI1491
I2385
sI1492
I2387
sI1493
I2388
sI1494
I2389
sI1495
I2391
sI1496
I2392
sI1497
I2393
sI1498
I2394
sI1499
I2395
sI1500
I2396
sI1501
I2397
sI1502
I2399
sI1503
I2400
sI1504
I2401
sI1505
I2404
sI1506
I2406
sI1507
I2408
sI1508
I2411
sI1509
I2413
sI1510
I2414
sI1511
I2415
sI1512
I2417
sI1513
I2418
sI1514
I2420
sI1515
I2423
sI1516
I2424
sI1517
I2425
sI1518
I2426
sI1519
I2428
sI1520
I2430
sI1521
I2432
sI1522
I2435
sI1523
I2436
sI1524
I2437
sI1525
I2438
sI1526
I2440
sI1527
I2441
sI1528
I2442
sI1529
I2444
sI1530
I2445
sI1531
I2446
sI1532
I2447
sI1533
I2448
sI1534
I2454
sI1535
I2456
sI1536
I2457
sI1537
I2458
sI1538
I2461
sI1539
I2462
sI1540
I2465
sI1541
I2467
sI1542
I2469
sI1543
I2471
sI1544
I2472
sI1545
I2473
sI1546
I2475
sI1547
I2478
sI1548
I2480
sI1549
I2482
sI1550
I2484
sI1551
I2488
sI1552
I2490
sI1553
I2491
sI1554
I2495
sI1555
I2498
sI1556
I2504
sI1557
I2505
sI1558
I2506
sI1559
I2507
sI1560
I2508
sI1561
I2513
sI1562
I2514
sI1563
I2515
sI1564
I7709
sI1565
I2517
sI1566
I2518
sI1567
I2521
sI1568
I2522
sI1569
I2523
sI1570
I2525
sI1571
I2526
sI1572
I2527
sI1573
I2528
sI1574
I2529
sI1575
I2530
sI1576
I2531
sI1577
I2533
sI1578
I2535
sI1579
I2536
sI1580
I2539
sI1581
I2540
sI1582
I2541
sI1583
I2542
sI1584
I2548
sI1585
I2549
sI1586
I2554
sI1587
I2555
sI1588
I2556
sI1589
I2558
sI1590
I2559
sI1591
I2560
sI1592
I2561
sI1593
I2562
sI1594
I2565
sI1595
I2569
sI1596
I2570
sI1597
I2573
sI1598
I2579
sI1599
I2580
sI1600
I2581
sI1601
I2582
sI1602
I2583
sI1603
I2584
sI1604
I2586
sI1605
I2587
sI1606
I2589
sI1607
I2591
sI1608
I2592
sI1609
I2593
sI1610
I2594
sI1611
I2595
sI1612
I2597
sI1613
I2598
sI1614
I2599
sI1615
I2602
sI1616
I2603
sI1617
I2605
sI1618
I2607
sI1619
I2608
sI1620
I6088
sI1621
I2613
sI1622
I2615
sI1623
I2616
sI1624
I2617
sI1625
I2618
sI1626
I2621
sI1627
I2624
sI1628
I2625
sI1629
I2630
sI1630
I2635
sI1631
I2637
sI1632
I2639
sI1633
I2642
sI1634
I2643
sI1635
I2646
sI1636
I2650
sI1637
I2651
sI1638
I2652
sI1639
I2653
sI1640
I2659
sI1641
I2660
sI1642
I2661
sI1643
I2662
sI1644
I8272
sI1645
I2665
sI1646
I2666
sI1647
I2667
sI1648
I2669
sI1649
I2672
sI1650
I2675
sI1651
I2676
sI1652
I2677
sI1653
I2679
sI1654
I2681
sI1655
I2682
sI1656
I2684
sI1657
I2685
sI1658
I2686
sI1659
I2688
sI1660
I2689
sI1661
I2691
sI1662
I2692
sI1663
I2694
sI1664
I2695
sI1665
I2697
sI1666
I2699
sI1667
I2703
sI1668
I7455
sI1669
I2709
sI1670
I2710
sI1671
I2711
sI1672
I2713
sI1673
I2714
sI1674
I2716
sI1675
I2719
sI1676
I2720
sI1677
I2721
sI1678
I2723
sI1679
I2725
sI1680
I2726
sI1681
I2727
sI1682
I2728
sI1683
I2731
sI1684
I2733
sI1685
I2734
sI1686
I2737
sI1687
I2738
sI1688
I2740
sI1689
I2741
sI1690
I2746
sI1691
I2747
sI1692
I2748
sI1693
I2749
sI1694
I2753
sI1695
I2754
sI1696
I2755
sI1697
I2757
sI1698
I2761
sI1699
I2762
sI1700
I2764
sI1701
I2765
sI1702
I2768
sI1703
I2769
sI1704
I2773
sI1705
I2774
sI1706
I2776
sI1707
I2778
sI1708
I2781
sI1709
I2783
sI1710
I2784
sI1711
I2785
sI1712
I2788
sI1713
I2789
sI1714
I2793
sI1715
I2796
sI1716
I2797
sI1717
I2798
sI1718
I2799
sI1719
I2800
sI1720
I2801
sI1721
I2803
sI1722
I2804
sI1723
I2805
sI1724
I2806
sI1725
I2808
sI1726
I2813
sI1727
I2814
sI1728
I2815
sI1729
I2817
sI1730
I2819
sI1731
I2820
sI1732
I2821
sI1733
I2825
sI1734
I2827
sI1735
I2828
sI1736
I2829
sI1737
I2830
sI1738
I2832
sI1739
I2833
sI1740
I2834
sI1741
I2836
sI1742
I2838
sI1743
I2841
sI1744
I2842
sI1745
I2843
sI1746
I2845
sI1747
I2847
sI1748
I2848
sI1749
I2849
sI1750
I2850
sI1751
I2852
sI1752
I2854
sI1753
I2855
sI1754
I2856
sI1755
I2857
sI1756
I2858
sI1757
I2860
sI1758
I2861
sI1759
I2863
sI1760
I2866
sI1761
I2867
sI1762
I2869
sI1763
I2871
sI1764
I2872
sI1765
I2873
sI1766
I2874
sI1767
I2876
sI1768
I2877
sI1769
I2882
sI1770
I2883
sI1771
I2885
sI1772
I2886
sI1773
I8257
sI1774
I2888
sI1775
I2889
sI1776
I2890
sI1777
I2891
sI1778
I2892
sI1779
I2893
sI1780
I2897
sI1781
I2898
sI1782
I2900
sI1783
I2901
sI1784
I2902
sI1785
I8280
sI1786
I2905
sI1787
I2907
sI1788
I2909
sI1789
I2910
sI1790
I2914
sI1791
I2917
sI1792
I2918
sI1793
I2919
sI1794
I2922
sI1795
I2926
sI1796
I2927
sI1797
I2930
sI1798
I2931
sI1799
I2933
sI1800
I2934
sI1801
I2937
sI1802
I2940
sI1803
I2943
sI1804
I2947
sI1805
I2948
sI1806
I2949
sI1807
I2954
sI1808
I2955
sI1809
I2956
sI1810
I2957
sI1811
I2958
sI1812
I2959
sI1813
I2961
sI1814
I2963
sI1815
I2965
sI1816
I2966
sI1817
I2967
sI1818
I2968
sI1819
I2975
sI1820
I2976
sI1821
I2978
sI1822
I2979
sI1823
I2981
sI1824
I2982
sI1825
I2984
sI1826
I2985
sI1827
I2986
sI1828
I2990
sI1829
I2992
sI1830
I2994
sI1831
I2995
sI1832
I2996
sI1833
I2998
sI1834
I2999
sI1835
I3000
sI1836
I3001
sI1837
I3002
sI1838
I3003
sI1839
I3005
sI1840
I3007
sI1841
I3009
sI1842
I3012
sI1843
I3015
sI1844
I3016
sI1845
I3018
sI1846
I3021
sI1847
I3026
sI1848
I3027
sI1849
I3028
sI1850
I3029
sI1851
I3030
sI1852
I3032
sI1853
I3033
sI1854
I3035
sI1855
I3040
sI1856
I3041
sI1857
I3043
sI1858
I3044
sI1859
I3045
sI1860
I3049
sI1861
I3050
sI1862
I3051
sI1863
I3052
sI1864
I3053
sI1865
I8471
sI1866
I3055
sI1867
I3056
sI1868
I3059
sI1869
I3061
sI1870
I3062
sI1871
I3063
sI1872
I3064
sI1873
I3066
sI1874
I3069
sI1875
I3070
sI1876
I3072
sI1877
I3073
sI1878
I3081
sI1879
I3083
sI1880
I3086
sI1881
I3087
sI1882
I3090
sI1883
I3091
sI1884
I3095
sI1885
I3097
sI1886
I3098
sI1887
I3100
sI1888
I3101
sI1889
I3102
sI1890
I3105
sI1891
I3107
sI1892
I3108
sI1893
I3110
sI1894
I3111
sI1895
I3112
sI1896
I3113
sI1897
I3114
sI1898
I3115
sI1899
I3116
sI1900
I3119
sI1901
I3120
sI1902
I3121
sI1903
I3122
sI1904
I3127
sI1905
I3128
sI1906
I3129
sI1907
I3130
sI1908
I3132
sI1909
I3136
sI1910
I3140
sI1911
I3142
sI1912
I3144
sI1913
I3149
sI1914
I3150
sI1915
I3152
sI1916
I3153
sI1917
I3154
sI1918
I3155
sI1919
I3156
sI1920
I3157
sI1921
I3159
sI1922
I3160
sI1923
I3161
sI1924
I3162
sI1925
I3164
sI1926
I3165
sI1927
I3167
sI1928
I3168
sI1929
I3170
sI1930
I3172
sI1931
I3173
sI1932
I3175
sI1933
I3176
sI1934
I3177
sI1935
I3179
sI1936
I3180
sI1937
I3181
sI1938
I3182
sI1939
I3183
sI1940
I3184
sI1941
I3185
sI1942
I3186
sI1943
I8259
sI1944
I3190
sI1945
I3193
sI1946
I3194
sI1947
I3196
sI1948
I3198
sI1949
I3199
sI1950
I3201
sI1951
I3203
sI1952
I3205
sI1953
I3206
sI1954
I3207
sI1955
I3208
sI1956
I3209
sI1957
I3212
sI1958
I3214
sI1959
I3215
sI1960
I3216
sI1961
I3217
sI1962
I3219
sI1963
I3221
sI1964
I3224
sI1965
I3229
sI1966
I3230
sI1967
I3231
sI1968
I3233
sI1969
I3234
sI1970
I3238
sI1971
I3239
sI1972
I3241
sI1973
I3242
sI1974
I3244
sI1975
I3245
sI1976
I3246
sI1977
I3247
sI1978
I3248
sI1979
I3251
sI1980
I3254
sI1981
I3255
sI1982
I3256
sI1983
I3257
sI1984
I3259
sI1985
I3262
sI1986
I3263
sI1987
I3265
sI1988
I3269
sI1989
I3270
sI1990
I3273
sI1991
I3277
sI1992
I3279
sI1993
I3280
sI1994
I3282
sI1995
I3283
sI1996
I3284
sI1997
I3285
sI1998
I3287
sI1999
I3288
sI2000
I3289
sI2001
I3290
sI2002
I3292
sI2003
I3295
sI2004
I3297
sI2005
I3299
sI2006
I3300
sI2007
I3301
sI2008
I3302
sI2009
I3303
sI2010
I3304
sI2011
I3306
sI2012
I3308
sI2013
I3309
sI2014
I3310
sI2015
I3313
sI2016
I3314
sI2017
I3315
sI2018
I3316
sI2019
I3317
sI2020
I3318
sI2021
I3322
sI2022
I3325
sI2023
I3326
sI2024
I3327
sI2025
I3328
sI2026
I3330
sI2027
I3331
sI2028
I3333
sI2029
I3334
sI2030
I3335
sI2031
I3336
sI2032
I3337
sI2033
I3338
sI2034
I3339
sI2035
I3341
sI2036
I3342
sI2037
I3344
sI2038
I3345
sI2039
I3346
sI2040
I3350
sI2041
I3353
sI2042
I3354
sI2043
I3355
sI2044
I3356
sI2045
I3357
sI2046
I3358
sI2047
I3359
sI2048
I3360
sI2049
I3361
sI2050
I3362
sI2051
I3363
sI2052
I3364
sI2053
I3365
sI2054
I3366
sI2055
I3367
sI2056
I3368
sI2057
I3369
sI2058
I3370
sI2059
I3371
sI2060
I3374
sI2061
I3376
sI2062
I3378
sI2063
I3379
sI2064
I3380
sI2065
I3381
sI2066
I3382
sI2067
I3383
sI2068
I3385
sI2069
I3387
sI2070
I3388
sI2071
I3389
sI2072
I3391
sI2073
I3392
sI2074
I3393
sI2075
I3395
sI2076
I3398
sI2077
I3399
sI2078
I3400
sI2079
I3401
sI2080
I3403
sI2081
I3404
sI2082
I3406
sI2083
I3407
sI2084
I3409
sI2085
I3410
sI2086
I3411
sI2087
I3413
sI2088
I3414
sI2089
I3415
sI2090
I3417
sI2091
I3418
sI2092
I3419
sI2093
I3420
sI2094
I3421
sI2095
I3422
sI2096
I3423
sI2097
I3424
sI2098
I3425
sI2099
I3426
sI2100
I3427
sI2101
I3429
sI2102
I3430
sI2103
I3431
sI2104
I3432
sI2105
I3433
sI2106
I3434
sI2107
I3435
sI2108
I3436
sI2109
I3437
sI2110
I3438
sI2111
I3439
sI2112
I3440
sI2113
I3441
sI2114
I3442
sI2115
I3443
sI2116
I3444
sI2117
I3445
sI2118
I3446
sI2119
I3447
sI2120
I3448
sI2121
I3449
sI2122
I3450
sI2123
I3451
sI2124
I3452
sI2125
I3454
sI2126
I3455
sI2127
I3457
sI2128
I3458
sI2129
I3459
sI2130
I3460
sI2131
I3461
sI2132
I3462
sI2133
I3464
sI2134
I3465
sI2135
I3466
sI2136
I3469
sI2137
I3470
sI2138
I3471
sI2139
I3472
sI2140
I3474
sI2141
I8299
sI2142
I3477
sI2143
I3478
sI2144
I3479
sI2145
I3480
sI2146
I3481
sI2147
I3482
sI2148
I3483
sI2149
I3484
sI2150
I3486
sI2151
I3488
sI2152
I3489
sI2153
I3490
sI2154
I3491
sI2155
I3492
sI2156
I3494
sI2157
I3495
sI2158
I3496
sI2159
I3497
sI2160
I3498
sI2161
I3499
sI2162
I3500
sI2163
I3502
sI2164
I3503
sI2165
I3504
sI2166
I3505
sI2167
I3507
sI2168
I3508
sI2169
I3509
sI2170
I3510
sI2171
I3511
sI2172
I3512
sI2173
I3513
sI2174
I3514
sI2175
I3515
sI2176
I3516
sI2177
I3517
sI2178
I3518
sI2179
I3519
sI2180
I3521
sI2181
I3522
sI2182
I3523
sI2183
I3524
sI2184
I3525
sI2185
I3526
sI2186
I3527
sI2187
I3529
sI2188
I3530
sI2189
I3531
sI2190
I3533
sI2191
I3534
sI2192
I3536
sI2193
I3537
sI2194
I3538
sI2195
I3539
sI2196
I3540
sI2197
I3541
sI2198
I3543
sI2199
I3544
sI2200
I3546
sI2201
I3547
sI2202
I3549
sI2203
I3550
sI2204
I3551
sI2205
I3552
sI2206
I3553
sI2207
I3554
sI2208
I3555
sI2209
I3556
sI2210
I3558
sI2211
I3559
sI2212
I3561
sI2213
I3562
sI2214
I3563
sI2215
I3564
sI2216
I3566
sI2217
I3567
sI2218
I3568
sI2219
I3569
sI2220
I3570
sI2221
I3571
sI2222
I3572
sI2223
I3573
sI2224
I3574
sI2225
I3575
sI2226
I3576
sI2227
I3577
sI2228
I3578
sI2229
I3580
sI2230
I3581
sI2231
I3582
sI2232
I3585
sI2233
I3586
sI2234
I3587
sI2235
I3588
sI2236
I3589
sI2237
I3591
sI2238
I3592
sI2239
I3593
sI2240
I3594
sI2241
I3595
sI2242
I3598
sI2243
I3599
sI2244
I3600
sI2245
I3602
sI2246
I3603
sI2247
I3604
sI2248
I3605
sI2249
I3607
sI2250
I3608
sI2251
I3609
sI2252
I3612
sI2253
I3614
sI2254
I3615
sI2255
I3617
sI2256
I3619
sI2257
I3621
sI2258
I3622
sI2259
I3623
sI2260
I3624
sI2261
I3625
sI2262
I3626
sI2263
I3627
sI2264
I3628
sI2265
I3629
sI2266
I3630
sI2267
I3631
sI2268
I3632
sI2269
I3633
sI2270
I3634
sI2271
I3636
sI2272
I3638
sI2273
I3639
sI2274
I3640
sI2275
I3642
sI2276
I3645
sI2277
I3647
sI2278
I3648
sI2279
I3649
sI2280
I3650
sI2281
I3651
sI2282
I3653
sI2283
I3654
sI2284
I3655
sI2285
I3656
sI2286
I3657
sI2287
I3658
sI2288
I3659
sI2289
I3660
sI2290
I3661
sI2291
I3665
sI2292
I3666
sI2293
I3667
sI2294
I3668
sI2295
I3669
sI2296
I3670
sI2297
I3671
sI2298
I3673
sI2299
I3675
sI2300
I3677
sI2301
I3678
sI2302
I3679
sI2303
I3680
sI2304
I3681
sI2305
I3682
sI2306
I3683
sI2307
I3685
sI2308
I3686
sI2309
I3690
sI2310
I3693
sI2311
I3694
sI2312
I3696
sI2313
I3697
sI2314
I3698
sI2315
I3699
sI2316
I3700
sI2317
I3701
sI2318
I3702
sI2319
I3703
sI2320
I3704
sI2321
I3705
sI2322
I3706
sI2323
I3707
sI2324
I3708
sI2325
I3710
sI2326
I3711
sI2327
I3712
sI2328
I3713
sI2329
I3714
sI2330
I3716
sI2331
I3717
sI2332
I3718
sI2333
I3719
sI2334
I3720
sI2335
I3721
sI2336
I3722
sI2337
I3723
sI2338
I3725
sI2339
I3726
sI2340
I3727
sI2341
I3728
sI2342
I3729
sI2343
I3730
sI2344
I3731
sI2345
I3733
sI2346
I3734
sI2347
I3735
sI2348
I3736
sI2349
I3737
sI2350
I3738
sI2351
I3740
sI2352
I3741
sI2353
I3742
sI2354
I3745
sI2355
I3746
sI2356
I3747
sI2357
I3748
sI2358
I3750
sI2359
I3751
sI2360
I3752
sI2361
I3754
sI2362
I3755
sI2363
I3756
sI2364
I3758
sI2365
I3761
sI2366
I3762
sI2367
I3763
sI2368
I3764
sI2369
I3765
sI2370
I3766
sI2371
I3768
sI2372
I3769
sI2373
I3770
sI2374
I3771
sI2375
I3772
sI2376
I3775
sI2377
I3777
sI2378
I3779
sI2379
I3780
sI2380
I3781
sI2381
I3782
sI2382
I3783
sI2383
I3785
sI2384
I3786
sI2385
I3787
sI2386
I3788
sI2387
I3789
sI2388
I3790
sI2389
I3791
sI2390
I3792
sI2391
I3793
sI2392
I3796
sI2393
I3797
sI2394
I3798
sI2395
I3799
sI2396
I3801
sI2397
I3803
sI2398
I3804
sI2399
I3806
sI2400
I3807
sI2401
I3809
sI2402
I3811
sI2403
I3812
sI2404
I3814
sI2405
I3815
sI2406
I3816
sI2407
I3817
sI2408
I3818
sI2409
I3819
sI2410
I3821
sI2411
I3823
sI2412
I3824
sI2413
I3825
sI2414
I3827
sI2415
I3828
sI2416
I3829
sI2417
I3830
sI2418
I3831
sI2419
I3833
sI2420
I3834
sI2421
I3836
sI2422
I3837
sI2423
I3838
sI2424
I3839
sI2425
I3840
sI2426
I3842
sI2427
I3843
sI2428
I3845
sI2429
I3847
sI2430
I3850
sI2431
I3852
sI2432
I3853
sI2433
I3854
sI2434
I3857
sI2435
I3858
sI2436
I3859
sI2437
I3860
sI2438
I3861
sI2439
I3862
sI2440
I3863
sI2441
I3864
sI2442
I3865
sI2443
I3866
sI2444
I3867
sI2445
I3871
sI2446
I3872
sI2447
I3873
sI2448
I3874
sI2449
I3875
sI2450
I3876
sI2451
I3878
sI2452
I3879
sI2453
I3880
sI2454
I3881
sI2455
I3882
sI2456
I3883
sI2457
I3884
sI2458
I3885
sI2459
I3887
sI2460
I3888
sI2461
I3889
sI2462
I3890
sI2463
I3891
sI2464
I3892
sI2465
I3893
sI2466
I3894
sI2467
I8313
sI2468
I3896
sI2469
I3900
sI2470
I3901
sI2471
I3903
sI2472
I3904
sI2473
I3906
sI2474
I3907
sI2475
I3908
sI2476
I3909
sI2477
I3910
sI2478
I3911
sI2479
I3912
sI2480
I3913
sI2481
I3914
sI2482
I3915
sI2483
I3916
sI2484
I3917
sI2485
I3918
sI2486
I3919
sI2487
I3921
sI2488
I3922
sI2489
I3923
sI2490
I3924
sI2491
I3925
sI2492
I3926
sI2493
I3927
sI2494
I3928
sI2495
I3930
sI2496
I3931
sI2497
I3933
sI2498
I3934
sI2499
I3935
sI2500
I3936
sI2501
I3937
sI2502
I3940
sI2503
I3941
sI2504
I3942
sI2505
I3944
sI2506
I3945
sI2507
I3946
sI2508
I3947
sI2509
I3949
sI2510
I3950
sI2511
I3952
sI2512
I3953
sI2513
I3954
sI2514
I8315
sI2515
I3957
sI2516
I3958
sI2517
I3959
sI2518
I3960
sI2519
I3961
sI2520
I3962
sI2521
I3963
sI2522
I3964
sI2523
I3966
sI2524
I3967
sI2525
I3969
sI2526
I3972
sI2527
I3973
sI2528
I3974
sI2529
I3975
sI2530
I3976
sI2531
I3977
sI2532
I3978
sI2533
I3979
sI2534
I3980
sI2535
I3981
sI2536
I3982
sI2537
I3984
sI2538
I8316
sI2539
I3986
sI2540
I3988
sI2541
I3989
sI2542
I3991
sI2543
I3992
sI2544
I3993
sI2545
I3994
sI2546
I3995
sI2547
I3998
sI2548
I3999
sI2549
I4000
sI2550
I4001
sI2551
I4002
sI2552
I4005
sI2553
I4006
sI2554
I4007
sI2555
I4008
sI2556
I4009
sI2557
I4010
sI2558
I4011
sI2559
I4012
sI2560
I4013
sI2561
I4014
sI2562
I4015
sI2563
I4016
sI2564
I4017
sI2565
I4018
sI2566
I4021
sI2567
I4022
sI2568
I4026
sI2569
I4027
sI2570
I4028
sI2571
I4030
sI2572
I8238
sI2573
I4032
sI2574
I4033
sI2575
I4036
sI2576
I4037
sI2577
I4038
sI2578
I4040
sI2579
I4041
sI2580
I4042
sI2581
I4044
sI2582
I4045
sI2583
I4046
sI2584
I4048
sI2585
I4049
sI2586
I4050
sI2587
I4052
sI2588
I4053
sI2589
I4054
sI2590
I4055
sI2591
I4056
sI2592
I4057
sI2593
I4059
sI2594
I4060
sI2595
I4061
sI2596
I4062
sI2597
I4063
sI2598
I4064
sI2599
I4066
sI2600
I4067
sI2601
I4069
sI2602
I4070
sI2603
I4071
sI2604
I4072
sI2605
I4073
sI2606
I8319
sI2607
I4076
sI2608
I4077
sI2609
I4079
sI2610
I4080
sI2611
I4081
sI2612
I4082
sI2613
I4083
sI2614
I4084
sI2615
I4085
sI2616
I4086
sI2617
I4087
sI2618
I4088
sI2619
I4090
sI2620
I4091
sI2621
I4092
sI2622
I4093
sI2623
I4095
sI2624
I4096
sI2625
I4097
sI2626
I4099
sI2627
I4100
sI2628
I4101
sI2629
I4104
sI2630
I4105
sI2631
I4106
sI2632
I4108
sI2633
I4109
sI2634
I4110
sI2635
I4111
sI2636
I4112
sI2637
I4114
sI2638
I4115
sI2639
I4116
sI2640
I4117
sI2641
I4118
sI2642
I4119
sI2643
I4120
sI2644
I4123
sI2645
I4124
sI2646
I4125
sI2647
I4126
sI2648
I4128
sI2649
I4129
sI2650
I4130
sI2651
I4131
sI2652
I4132
sI2653
I4133
sI2654
I4134
sI2655
I4136
sI2656
I4137
sI2657
I4138
sI2658
I4139
sI2659
I4142
sI2660
I4144
sI2661
I4145
sI2662
I4146
sI2663
I4148
sI2664
I4149
sI2665
I4150
sI2666
I4151
sI2667
I4152
sI2668
I4153
sI2669
I4154
sI2670
I4155
sI2671
I4156
sI2672
I4157
sI2673
I4158
sI2674
I4159
sI2675
I4160
sI2676
I4161
sI2677
I4162
sI2678
I4164
sI2679
I4165
sI2680
I4167
sI2681
I4168
sI2682
I4169
sI2683
I4170
sI2684
I4171
sI2685
I4172
sI2686
I4173
sI2687
I4174
sI2688
I4176
sI2689
I4177
sI2690
I4178
sI2691
I4179
sI2692
I4180
sI2693
I4181
sI2694
I4184
sI2695
I4185
sI2696
I4187
sI2697
I4188
sI2698
I4189
sI2699
I4190
sI2700
I4191
sI2701
I4192
sI2702
I4193
sI2703
I4194
sI2704
I4197
sI2705
I4198
sI2706
I4199
sI2707
I4200
sI2708
I4201
sI2709
I4202
sI2710
I4203
sI2711
I4204
sI2712
I4205
sI2713
I4206
sI2714
I4207
sI2715
I4209
sI2716
I4210
sI2717
I4211
sI2718
I4212
sI2719
I4213
sI2720
I4214
sI2721
I4215
sI2722
I4217
sI2723
I4218
sI2724
I4219
sI2725
I4221
sI2726
I4222
sI2727
I4223
sI2728
I4224
sI2729
I4225
sI2730
I4228
sI2731
I4229
sI2732
I4232
sI2733
I4233
sI2734
I4235
sI2735
I4236
sI2736
I8266
sI2737
I4238
sI2738
I4244
sI2739
I4248
sI2740
I4250
sI2741
I4252
sI2742
I4253
sI2743
I4254
sI2744
I4255
sI2745
I4266
sI2746
I4268
sI2747
I4270
sI2748
I4272
sI2749
I4275
sI2750
I4281
sI2751
I4283
sI2752
I4287
sI2753
I4288
sI2754
I4289
sI2755
I4290
sI2756
I4292
sI2757
I4297
sI2758
I4298
sI2759
I4299
sI2760
I4305
sI2761
I4306
sI2762
I4307
sI2763
I4310
sI2764
I4314
sI2765
I4317
sI2766
I4318
sI2767
I4319
sI2768
I4321
sI2769
I4323
sI2770
I4324
sI2771
I4328
sI2772
I4329
sI2773
I4337
sI2774
I4338
sI2775
I4340
sI2776
I4341
sI2777
I4345
sI2778
I4350
sI2779
I4351
sI2780
I4355
sI2781
I4356
sI2782
I4357
sI2783
I4359
sI2784
I4360
sI2785
I4361
sI2786
I4362
sI2787
I4363
sI2788
I4364
sI2789
I4365
sI2790
I4366
sI2791
I4367
sI2792
I4369
sI2793
I4370
sI2794
I4381
sI2795
I4382
sI2796
I4386
sI2797
I4387
sI2798
I4389
sI2799
I4390
sI2800
I4391
sI2801
I8320
sI2802
I4397
sI2803
I4398
sI2804
I4400
sI2805
I4402
sI2806
I4404
sI2807
I4405
sI2808
I4406
sI2809
I4407
sI2810
I4408
sI2811
I4409
sI2812
I4411
sI2813
I4412
sI2814
I4418
sI2815
I4419
sI2816
I4420
sI2817
I4423
sI2818
I4424
sI2819
I4425
sI2820
I4428
sI2821
I4429
sI2822
I4431
sI2823
I4434
sI2824
I4436
sI2825
I4442
sI2826
I4443
sI2827
I4447
sI2828
I4450
sI2829
I4451
sI2830
I4454
sI2831
I4456
sI2832
I4457
sI2833
I4458
sI2834
I4459
sI2835
I4461
sI2836
I4462
sI2837
I4463
sI2838
I4464
sI2839
I3475
sI2840
I4469
sI2841
I4470
sI2842
I4473
sI2843
I4477
sI2844
I4478
sI2845
I4480
sI2846
I4481
sI2847
I4482
sI2848
I4483
sI2849
I4484
sI2850
I4486
sI2851
I4487
sI2852
I4489
sI2853
I4490
sI2854
I4491
sI2855
I4492
sI2856
I4495
sI2857
I4496
sI2858
I4499
sI2859
I4501
sI2860
I8486
sI2861
I4505
sI2862
I4508
sI2863
I4510
sI2864
I4511
sI2865
I4514
sI2866
I4515
sI2867
I4516
sI2868
I4517
sI2869
I4518
sI2870
I4519
sI2871
I4520
sI2872
I4524
sI2873
I8334
sI2874
I4527
sI2875
I4529
sI2876
I4530
sI2877
I4531
sI2878
I4532
sI2879
I4533
sI2880
I4534
sI2881
I4536
sI2882
I4537
sI2883
I4539
sI2884
I4541
sI2885
I4542
sI2886
I4548
sI2887
I4549
sI2888
I4560
sI2889
I4562
sI2890
I4564
sI2891
I4566
sI2892
I4570
sI2893
I4574
sI2894
I4577
sI2895
I4578
sI2896
I4579
sI2897
I4582
sI2898
I4583
sI2899
I4585
sI2900
I8336
sI2901
I4590
sI2902
I4591
sI2903
I4592
sI2904
I4597
sI2905
I4603
sI2906
I4606
sI2907
I4607
sI2908
I4608
sI2909
I4611
sI2910
I4612
sI2911
I4616
sI2912
I4618
sI2913
I4623
sI2914
I4625
sI2915
I4627
sI2916
I4629
sI2917
I4633
sI2918
I4637
sI2919
I4639
sI2920
I4640
sI2921
I4641
sI2922
I4642
sI2923
I4643
sI2924
I4644
sI2925
I4647
sI2926
I4649
sI2927
I4650
sI2928
I4652
sI2929
I4655
sI2930
I4656
sI2931
I4657
sI2932
I4658
sI2933
I4660
sI2934
I4662
sI2935
I4665
sI2936
I4668
sI2937
I4669
sI2938
I4672
sI2939
I4674
sI2940
I4675
sI2941
I4678
sI2942
I4679
sI2943
I4680
sI2944
I4681
sI2945
I4683
sI2946
I4689
sI2947
I4691
sI2948
I4693
sI2949
I4694
sI2950
I8067
sI2951
I4702
sI2952
I4704
sI2953
I4710
sI2954
I4712
sI2955
I4713
sI2956
I4717
sI2957
I4718
sI2958
I4719
sI2959
I4720
sI2960
I4721
sI2961
I4722
sI2962
I4723
sI2963
I4725
sI2964
I4732
sI2965
I4733
sI2966
I4735
sI2967
I4736
sI2968
I4739
sI2969
I4740
sI2970
I4741
sI2971
I4742
sI2972
I4744
sI2973
I4748
sI2974
I4752
sI2975
I4753
sI2976
I4754
sI2977
I4758
sI2978
I4759
sI2979
I4762
sI2980
I4763
sI2981
I4764
sI2982
I4766
sI2983
I8215
sI2984
I4772
sI2985
I4775
sI2986
I4776
sI2987
I4778
sI2988
I4779
sI2989
I4781
sI2990
I4782
sI2991
I4783
sI2992
I4784
sI2993
I4785
sI2994
I4788
sI2995
I8070
sI2996
I4791
sI2997
I4799
sI2998
I4800
sI2999
I4802
sI3000
I4805
sI3001
I4806
sI3002
I4807
sI3003
I4811
sI3004
I4812
sI3005
I4814
sI3006
I4815
sI3007
I4819
sI3008
I4820
sI3009
I4821
sI3010
I4823
sI3011
I4825
sI3012
I8344
sI3013
I4827
sI3014
I4828
sI3015
I4830
sI3016
I4832
sI3017
I4833
sI3018
I4836
sI3019
I4838
sI3020
I4839
sI3021
I4840
sI3022
I4842
sI3023
I4846
sI3024
I4847
sI3025
I4852
sI3026
I4853
sI3027
I4854
sI3028
I4857
sI3029
I4860
sI3030
I4861
sI3031
I4863
sI3032
I4865
sI3033
I4866
sI3034
I4867
sI3035
I4870
sI3036
I4871
sI3037
I4874
sI3038
I4875
sI3039
I4876
sI3040
I4878
sI3041
I4880
sI3042
I4881
sI3043
I4887
sI3044
I4888
sI3045
I4892
sI3046
I4899
sI3047
I4900
sI3048
I4902
sI3049
I4903
sI3050
I4907
sI3051
I4908
sI3052
I4911
sI3053
I4913
sI3054
I4914
sI3055
I4915
sI3056
I4917
sI3057
I4918
sI3058
I4919
sI3059
I4920
sI3060
I4923
sI3061
I4925
sI3062
I4926
sI3063
I4928
sI3064
I4930
sI3065
I4931
sI3066
I4932
sI3067
I4933
sI3068
I4934
sI3069
I4935
sI3070
I4937
sI3071
I4938
sI3072
I4940
sI3073
I4942
sI3074
I4948
sI3075
I4949
sI3076
I4951
sI3077
I4952
sI3078
I4953
sI3079
I4954
sI3080
I4956
sI3081
I4957
sI3082
I4959
sI3083
I4960
sI3084
I4962
sI3085
I4963
sI3086
I4964
sI3087
I4965
sI3088
I4967
sI3089
I4968
sI3090
I4970
sI3091
I4971
sI3092
I4974
sI3093
I4978
sI3094
I4979
sI3095
I4980
sI3096
I4982
sI3097
I4984
sI3098
I4985
sI3099
I4988
sI3100
I4989
sI3101
I4991
sI3102
I4992
sI3103
I4995
sI3104
I4997
sI3105
I4998
sI3106
I4999
sI3107
I5006
sI3108
I5007
sI3109
I5010
sI3110
I5011
sI3111
I5013
sI3112
I5014
sI3113
I5015
sI3114
I5016
sI3115
I5017
sI3116
I5020
sI3117
I5021
sI3118
I5023
sI3119
I5024
sI3120
I5026
sI3121
I5028
sI3122
I5030
sI3123
I5032
sI3124
I5033
sI3125
I6987
sI3126
I5037
sI3127
I5039
sI3128
I5040
sI3129
I5041
sI3130
I5045
sI3131
I5050
sI3132
I5051
sI3133
I5052
sI3134
I5055
sI3135
I5060
sI3136
I5061
sI3137
I5062
sI3138
I5063
sI3139
I5064
sI3140
I5067
sI3141
I5068
sI3142
I5072
sI3143
I5076
sI3144
I5077
sI3145
I5079
sI3146
I5081
sI3147
I5082
sI3148
I5083
sI3149
I5084
sI3150
I5085
sI3151
I5086
sI3152
I5088
sI3153
I5089
sI3154
I5092
sI3155
I5094
sI3156
I5095
sI3157
I5098
sI3158
I5099
sI3159
I5101
sI3160
I5102
sI3161
I5103
sI3162
I5104
sI3163
I5107
sI3164
I5108
sI3165
I5109
sI3166
I5111
sI3167
I5112
sI3168
I5116
sI3169
I5117
sI3170
I5118
sI3171
I5119
sI3172
I5120
sI3173
I5121
sI3174
I5122
sI3175
I5123
sI3176
I5124
sI3177
I5125
sI3178
I5129
sI3179
I5131
sI3180
I5132
sI3181
I5134
sI3182
I5137
sI3183
I5138
sI3184
I8321
sI3185
I5143
sI3186
I5144
sI3187
I5147
sI3188
I5148
sI3189
I5155
sI3190
I5157
sI3191
I5160
sI3192
I5163
sI3193
I5168
sI3194
I5171
sI3195
I5173
sI3196
I5174
sI3197
I5176
sI3198
I5177
sI3199
I5178
sI3200
I5179
sI3201
I7387
sI3202
I5182
sI3203
I5183
sI3204
I5184
sI3205
I5185
sI3206
I5186
sI3207
I5187
sI3208
I5191
sI3209
I5193
sI3210
I5195
sI3211
I5196
sI3212
I5197
sI3213
I5199
sI3214
I5200
sI3215
I5201
sI3216
I5202
sI3217
I5203
sI3218
I5206
sI3219
I5210
sI3220
I5212
sI3221
I5215
sI3222
I5217
sI3223
I5219
sI3224
I5222
sI3225
I5224
sI3226
I5228
sI3227
I5229
sI3228
I5231
sI3229
I5232
sI3230
I5234
sI3231
I5239
sI3232
I5243
sI3233
I5244
sI3234
I5245
sI3235
I5246
sI3236
I5248
sI3237
I5249
sI3238
I5250
sI3239
I5251
sI3240
I5252
sI3241
I5258
sI3242
I5259
sI3243
I5260
sI3244
I5261
sI3245
I5262
sI3246
I5266
sI3247
I5267
sI3248
I5270
sI3249
I5274
sI3250
I5278
sI3251
I5282
sI3252
I5287
sI3253
I5289
sI3254
I5290
sI3255
I5291
sI3256
I5294
sI3257
I5295
sI3258
I5297
sI3259
I5304
sI3260
I5308
sI3261
I5314
sI3262
I5316
sI3263
I5320
sI3264
I5321
sI3265
I5322
sI3266
I5323
sI3267
I5324
sI3268
I5326
sI3269
I5330
sI3270
I5332
sI3271
I5335
sI3272
I5337
sI3273
I5341
sI3274
I5343
sI3275
I5348
sI3276
I5349
sI3277
I5350
sI3278
I5351
sI3279
I5352
sI3280
I5353
sI3281
I5354
sI3282
I5359
sI3283
I5362
sI3284
I5370
sI3285
I5372
sI3286
I5376
sI3287
I5377
sI3288
I5378
sI3289
I5380
sI3290
I5384
sI3291
I5385
sI3292
I5387
sI3293
I5392
sI3294
I5395
sI3295
I5396
sI3296
I5397
sI3297
I5399
sI3298
I5401
sI3299
I5403
sI3300
I5405
sI3301
I5406
sI3302
I5408
sI3303
I5409
sI3304
I5412
sI3305
I5414
sI3306
I5416
sI3307
I5417
sI3308
I5420
sI3309
I5421
sI3310
I5422
sI3311
I5423
sI3312
I5424
sI3313
I5425
sI3314
I5426
sI3315
I5429
sI3316
I5431
sI3317
I5432
sI3318
I5433
sI3319
I5434
sI3320
I5437
sI3321
I5439
sI3322
I5440
sI3323
I5441
sI3324
I5443
sI3325
I5444
sI3326
I5445
sI3327
I5446
sI3328
I5449
sI3329
I5451
sI3330
I5452
sI3331
I5454
sI3332
I5455
sI3333
I5456
sI3334
I5461
sI3335
I5462
sI3336
I5463
sI3337
I5464
sI3338
I5465
sI3339
I5466
sI3340
I5469
sI3341
I5470
sI3342
I5472
sI3343
I5474
sI3344
I5477
sI3345
I5482
sI3346
I5485
sI3347
I5486
sI3348
I5487
sI3349
I5488
sI3350
I5489
sI3351
I5490
sI3352
I5492
sI3353
I5493
sI3354
I5494
sI3355
I5495
sI3356
I5496
sI3357
I5498
sI3358
I5500
sI3359
I5504
sI3360
I5505
sI3361
I5506
sI3362
I5509
sI3363
I5511
sI3364
I5512
sI3365
I5516
sI3366
I5517
sI3367
I5522
sI3368
I5523
sI3369
I5524
sI3370
I5527
sI3371
I5528
sI3372
I5529
sI3373
I5531
sI3374
I5535
sI3375
I5538
sI3376
I5540
sI3377
I5543
sI3378
I5544
sI3379
I5546
sI3380
I5547
sI3381
I5549
sI3382
I5550
sI3383
I5554
sI3384
I5555
sI3385
I5556
sI3386
I5557
sI3387
I5559
sI3388
I5560
sI3389
I5561
sI3390
I5562
sI3391
I5563
sI3392
I5564
sI3393
I5565
sI3394
I5567
sI3395
I5569
sI3396
I5571
sI3397
I5572
sI3398
I5578
sI3399
I5579
sI3400
I5581
sI3401
I5584
sI3402
I5585
sI3403
I5586
sI3404
I5588
sI3405
I5590
sI3406
I5591
sI3407
I5592
sI3408
I5593
sI3409
I5594
sI3410
I5599
sI3411
I5600
sI3412
I5602
sI3413
I5604
sI3414
I5605
sI3415
I5607
sI3416
I5609
sI3417
I5613
sI3418
I5616
sI3419
I5617
sI3420
I5619
sI3421
I5622
sI3422
I5623
sI3423
I5624
sI3424
I5625
sI3425
I5628
sI3426
I5630
sI3427
I5634
sI3428
I5635
sI3429
I5636
sI3430
I5637
sI3431
I5639
sI3432
I5644
sI3433
I5646
sI3434
I5648
sI3435
I5653
sI3436
I5657
sI3437
I5658
sI3438
I5661
sI3439
I5662
sI3440
I5663
sI3441
I5665
sI3442
I5666
sI3443
I5667
sI3444
I5670
sI3445
I5671
sI3446
I5673
sI3447
I5674
sI3448
I5678
sI3449
I5679
sI3450
I5681
sI3451
I5682
sI3452
I5684
sI3453
I7774
sI3454
I5686
sI3455
I5687
sI3456
I5688
sI3457
I5689
sI3458
I5692
sI3459
I5693
sI3460
I5694
sI3461
I5701
sI3462
I5703
sI3463
I8494
sI3464
I5706
sI3465
I5707
sI3466
I5709
sI3467
I5711
sI3468
I5713
sI3469
I5716
sI3470
I5717
sI3471
I5718
sI3472
I5719
sI3473
I5722
sI3474
I5723
sI3475
I5726
sI3476
I5728
sI3477
I5732
sI3478
I5735
sI3479
I5736
sI3480
I5739
sI3481
I5740
sI3482
I5741
sI3483
I5742
sI3484
I5745
sI3485
I5748
sI3486
I5749
sI3487
I5754
sI3488
I5756
sI3489
I5757
sI3490
I5759
sI3491
I5760
sI3492
I5763
sI3493
I5766
sI3494
I961
sI3495
I5769
sI3496
I5771
sI3497
I5772
sI3498
I5774
sI3499
I5775
sI3500
I5778
sI3501
I5779
sI3502
I5781
sI3503
I5784
sI3504
I5786
sI3505
I5787
sI3506
I5788
sI3507
I5789
sI3508
I5790
sI3509
I5792
sI3510
I5793
sI3511
I5795
sI3512
I5798
sI3513
I5799
sI3514
I5801
sI3515
I5802
sI3516
I5803
sI3517
I5805
sI3518
I5806
sI3519
I5807
sI3520
I5809
sI3521
I5811
sI3522
I5815
sI3523
I5816
sI3524
I5818
sI3525
I5821
sI3526
I5822
sI3527
I5824
sI3528
I5825
sI3529
I5826
sI3530
I5827
sI3531
I5828
sI3532
I5830
sI3533
I5831
sI3534
I5832
sI3535
I5835
sI3536
I5837
sI3537
I5838
sI3538
I5839
sI3539
I5841
sI3540
I5843
sI3541
I5844
sI3542
I5852
sI3543
I5854
sI3544
I5858
sI3545
I5860
sI3546
I5861
sI3547
I5864
sI3548
I5868
sI3549
I5871
sI3550
I5872
sI3551
I5873
sI3552
I5874
sI3553
I5876
sI3554
I8379
sI3555
I5878
sI3556
I5879
sI3557
I5882
sI3558
I5884
sI3559
I5886
sI3560
I5892
sI3561
I5895
sI3562
I5901
sI3563
I5902
sI3564
I5904
sI3565
I5905
sI3566
I5906
sI3567
I5908
sI3568
I5909
sI3569
I5911
sI3570
I5912
sI3571
I5914
sI3572
I5916
sI3573
I5918
sI3574
I5919
sI3575
I5922
sI3576
I5923
sI3577
I5926
sI3578
I5927
sI3579
I5929
sI3580
I5930
sI3581
I5931
sI3582
I5932
sI3583
I5934
sI3584
I5936
sI3585
I5937
sI3586
I5938
sI3587
I5939
sI3588
I5942
sI3589
I5943
sI3590
I5944
sI3591
I5945
sI3592
I5946
sI3593
I5949
sI3594
I5950
sI3595
I5954
sI3596
I5956
sI3597
I5877
sI3598
I5959
sI3599
I5962
sI3600
I8382
sI3601
I5972
sI3602
I5973
sI3603
I5974
sI3604
I5976
sI3605
I5979
sI3606
I5981
sI3607
I5982
sI3608
I5985
sI3609
I5986
sI3610
I5988
sI3611
I5993
sI3612
I5994
sI3613
I5995
sI3614
I5996
sI3615
I5997
sI3616
I5998
sI3617
I6003
sI3618
I6008
sI3619
I6009
sI3620
I6011
sI3621
I6012
sI3622
I6015
sI3623
I6016
sI3624
I6020
sI3625
I6021
sI3626
I6022
sI3627
I6023
sI3628
I6024
sI3629
I6026
sI3630
I6027
sI3631
I6028
sI3632
I6029
sI3633
I6034
sI3634
I6037
sI3635
I6038
sI3636
I6042
sI3637
I6047
sI3638
I6048
sI3639
I6049
sI3640
I6050
sI3641
I6052
sI3642
I6053
sI3643
I6054
sI3644
I6055
sI3645
I6056
sI3646
I6057
sI3647
I6058
sI3648
I6060
sI3649
I6061
sI3650
I6062
sI3651
I6063
sI3652
I6065
sI3653
I6067
sI3654
I6069
sI3655
I6070
sI3656
I6071
sI3657
I6073
sI3658
I6075
sI3659
I6076
sI3660
I6077
sI3661
I6078
sI3662
I6080
sI3663
I6083
sI3664
I6085
sI3665
I6087
sI3666
I8386
sI3667
I6089
sI3668
I6090
sI3669
I6091
sI3670
I6094
sI3671
I6095
sI3672
I6097
sI3673
I6098
sI3674
I6102
sI3675
I6104
sI3676
I6105
sI3677
I6107
sI3678
I6108
sI3679
I6109
sI3680
I6111
sI3681
I6112
sI3682
I6115
sI3683
I6117
sI3684
I6118
sI3685
I6123
sI3686
I6125
sI3687
I6126
sI3688
I6127
sI3689
I6128
sI3690
I6131
sI3691
I6134
sI3692
I6135
sI3693
I6136
sI3694
I6137
sI3695
I6138
sI3696
I6139
sI3697
I8318
sI3698
I6145
sI3699
I6147
sI3700
I6148
sI3701
I6150
sI3702
I6152
sI3703
I6153
sI3704
I6158
sI3705
I6159
sI3706
I6161
sI3707
I6162
sI3708
I6164
sI3709
I6165
sI3710
I6167
sI3711
I6168
sI3712
I6169
sI3713
I6170
sI3714
I6172
sI3715
I6174
sI3716
I6176
sI3717
I6177
sI3718
I6178
sI3719
I6180
sI3720
I6181
sI3721
I6182
sI3722
I6183
sI3723
I6184
sI3724
I6186
sI3725
I6187
sI3726
I6188
sI3727
I6189
sI3728
I6190
sI3729
I6192
sI3730
I6193
sI3731
I6194
sI3732
I6195
sI3733
I6196
sI3734
I6197
sI3735
I6198
sI3736
I6199
sI3737
I6200
sI3738
I6201
sI3739
I6202
sI3740
I6203
sI3741
I6204
sI3742
I6205
sI3743
I6207
sI3744
I6208
sI3745
I6209
sI3746
I6211
sI3747
I6212
sI3748
I6214
sI3749
I6215
sI3750
I6218
sI3751
I6221
sI3752
I6222
sI3753
I6224
sI3754
I6225
sI3755
I6227
sI3756
I6229
sI3757
I6236
sI3758
I6237
sI3759
I6238
sI3760
I6239
sI3761
I6240
sI3762
I6241
sI3763
I6242
sI3764
I6243
sI3765
I6244
sI3766
I6245
sI3767
I6248
sI3768
I6249
sI3769
I6251
sI3770
I6252
sI3771
I6253
sI3772
I6255
sI3773
I6256
sI3774
I6257
sI3775
I6258
sI3776
I6259
sI3777
I6260
sI3778
I6261
sI3779
I6264
sI3780
I6266
sI3781
I6270
sI3782
I6274
sI3783
I6276
sI3784
I6280
sI3785
I6281
sI3786
I6286
sI3787
I6288
sI3788
I6291
sI3789
I6294
sI3790
I6295
sI3791
I6296
sI3792
I6297
sI3793
I6299
sI3794
I6300
sI3795
I6301
sI3796
I6302
sI3797
I6307
sI3798
I6309
sI3799
I6310
sI3800
I6311
sI3801
I6312
sI3802
I6313
sI3803
I6314
sI3804
I6315
sI3805
I6316
sI3806
I6317
sI3807
I6320
sI3808
I6321
sI3809
I6323
sI3810
I6324
sI3811
I6328
sI3812
I6329
sI3813
I6330
sI3814
I6331
sI3815
I6335
sI3816
I6336
sI3817
I6339
sI3818
I6340
sI3819
I6347
sI3820
I6352
sI3821
I6355
sI3822
I6356
sI3823
I6357
sI3824
I6360
sI3825
I6361
sI3826
I6363
sI3827
I6366
sI3828
I6367
sI3829
I6368
sI3830
I6375
sI3831
I6377
sI3832
I6378
sI3833
I6379
sI3834
I6381
sI3835
I6384
sI3836
I6385
sI3837
I6387
sI3838
I6388
sI3839
I6389
sI3840
I6391
sI3841
I6392
sI3842
I6394
sI3843
I6396
sI3844
I6397
sI3845
I6401
sI3846
I6402
sI3847
I6403
sI3848
I6407
sI3849
I6411
sI3850
I6412
sI3851
I6420
sI3852
I6421
sI3853
I6426
sI3854
I6427
sI3855
I6428
sI3856
I6434
sI3857
I6435
sI3858
I6440
sI3859
I6443
sI3860
I6446
sI3861
I6447
sI3862
I6448
sI3863
I6449
sI3864
I6450
sI3865
I6452
sI3866
I6453
sI3867
I6454
sI3868
I6455
sI3869
I6456
sI3870
I6457
sI3871
I6458
sI3872
I6460
sI3873
I6462
sI3874
I6463
sI3875
I6464
sI3876
I6466
sI3877
I6467
sI3878
I6470
sI3879
I6472
sI3880
I6473
sI3881
I6475
sI3882
I6476
sI3883
I6477
sI3884
I6478
sI3885
I6479
sI3886
I6480
sI3887
I6483
sI3888
I6484
sI3889
I6485
sI3890
I6489
sI3891
I6492
sI3892
I6493
sI3893
I6494
sI3894
I6495
sI3895
I6497
sI3896
I6498
sI3897
I6500
sI3898
I7319
sI3899
I6502
sI3900
I6504
sI3901
I6508
sI3902
I6512
sI3903
I6513
sI3904
I6515
sI3905
I6518
sI3906
I6519
sI3907
I6522
sI3908
I6524
sI3909
I6527
sI3910
I6529
sI3911
I6532
sI3912
I6534
sI3913
I6538
sI3914
I6539
sI3915
I6541
sI3916
I6543
sI3917
I6545
sI3918
I6547
sI3919
I6549
sI3920
I6550
sI3921
I6551
sI3922
I6555
sI3923
I6556
sI3924
I6557
sI3925
I6558
sI3926
I6560
sI3927
I6565
sI3928
I6566
sI3929
I6567
sI3930
I6568
sI3931
I6570
sI3932
I6574
sI3933
I6576
sI3934
I6577
sI3935
I6579
sI3936
I6581
sI3937
I6582
sI3938
I6584
sI3939
I6586
sI3940
I6589
sI3941
I6590
sI3942
I6591
sI3943
I6593
sI3944
I6594
sI3945
I6596
sI3946
I6597
sI3947
I6598
sI3948
I6604
sI3949
I6605
sI3950
I6606
sI3951
I6608
sI3952
I6609
sI3953
I6618
sI3954
I6619
sI3955
I6621
sI3956
I6622
sI3957
I6625
sI3958
I6627
sI3959
I6628
sI3960
I6629
sI3961
I6631
sI3962
I6634
sI3963
I6635
sI3964
I6636
sI3965
I6637
sI3966
I6638
sI3967
I6639
sI3968
I6641
sI3969
I6642
sI3970
I6645
sI3971
I6650
sI3972
I6654
sI3973
I6656
sI3974
I6659
sI3975
I6661
sI3976
I6662
sI3977
I6663
sI3978
I6665
sI3979
I6667
sI3980
I6668
sI3981
I6669
sI3982
I6671
sI3983
I6672
sI3984
I6673
sI3985
I6674
sI3986
I6675
sI3987
I6676
sI3988
I6680
sI3989
I6681
sI3990
I6682
sI3991
I6683
sI3992
I6684
sI3993
I6686
sI3994
I6687
sI3995
I8406
sI3996
I6689
sI3997
I6690
sI3998
I6691
sI3999
I6693
sI4000
I6694
sI4001
I6695
sI4002
I6696
sI4003
I6698
sI4004
I6699
sI4005
I6700
sI4006
I6703
sI4007
I6704
sI4008
I6705
sI4009
I6706
sI4010
I6707
sI4011
I6708
sI4012
I6712
sI4013
I6713
sI4014
I6715
sI4015
I6716
sI4016
I6718
sI4017
I6719
sI4018
I6720
sI4019
I6721
sI4020
I6722
sI4021
I6723
sI4022
I6724
sI4023
I6726
sI4024
I6727
sI4025
I6729
sI4026
I6730
sI4027
I6732
sI4028
I6733
sI4029
I6734
sI4030
I6735
sI4031
I6737
sI4032
I6738
sI4033
I6742
sI4034
I6746
sI4035
I6747
sI4036
I6748
sI4037
I6749
sI4038
I6750
sI4039
I6753
sI4040
I6754
sI4041
I6755
sI4042
I6756
sI4043
I6757
sI4044
I6758
sI4045
I6759
sI4046
I6763
sI4047
I6764
sI4048
I6765
sI4049
I6766
sI4050
I6768
sI4051
I6769
sI4052
I6770
sI4053
I6771
sI4054
I6772
sI4055
I6774
sI4056
I6776
sI4057
I6777
sI4058
I6778
sI4059
I6779
sI4060
I6780
sI4061
I6781
sI4062
I6782
sI4063
I6783
sI4064
I6785
sI4065
I6787
sI4066
I6788
sI4067
I6789
sI4068
I6791
sI4069
I6792
sI4070
I6793
sI4071
I6795
sI4072
I6797
sI4073
I6800
sI4074
I6801
sI4075
I6802
sI4076
I6804
sI4077
I6806
sI4078
I6807
sI4079
I6808
sI4080
I6809
sI4081
I6810
sI4082
I6812
sI4083
I6813
sI4084
I6814
sI4085
I6815
sI4086
I6816
sI4087
I6817
sI4088
I6818
sI4089
I6819
sI4090
I6820
sI4091
I6821
sI4092
I6822
sI4093
I6823
sI4094
I1591
sI4095
I6826
sI4096
I6829
sI4097
I6830
sI4098
I6831
sI4099
I6835
sI4100
I6836
sI4101
I6838
sI4102
I6839
sI4103
I6840
sI4104
I6841
sI4105
I6842
sI4106
I6843
sI4107
I6845
sI4108
I6846
sI4109
I6847
sI4110
I6848
sI4111
I6850
sI4112
I6852
sI4113
I6854
sI4114
I6856
sI4115
I6857
sI4116
I6858
sI4117
I6859
sI4118
I6861
sI4119
I6862
sI4120
I6863
sI4121
I6864
sI4122
I6865
sI4123
I6868
sI4124
I6869
sI4125
I5957
sI4126
I6871
sI4127
I6872
sI4128
I6873
sI4129
I6874
sI4130
I6875
sI4131
I6876
sI4132
I6877
sI4133
I6878
sI4134
I6880
sI4135
I6881
sI4136
I6883
sI4137
I6884
sI4138
I6886
sI4139
I6887
sI4140
I6888
sI4141
I6890
sI4142
I6892
sI4143
I6893
sI4144
I6895
sI4145
I6897
sI4146
I6898
sI4147
I6900
sI4148
I6901
sI4149
I6902
sI4150
I6903
sI4151
I6905
sI4152
I6906
sI4153
I6907
sI4154
I6908
sI4155
I6909
sI4156
I6910
sI4157
I6911
sI4158
I6913
sI4159
I6914
sI4160
I6915
sI4161
I6916
sI4162
I6917
sI4163
I6918
sI4164
I6920
sI4165
I6923
sI4166
I6924
sI4167
I6925
sI4168
I6926
sI4169
I6927
sI4170
I6928
sI4171
I6929
sI4172
I6931
sI4173
I6935
sI4174
I6937
sI4175
I6939
sI4176
I6940
sI4177
I6941
sI4178
I6942
sI4179
I6943
sI4180
I6944
sI4181
I6945
sI4182
I6947
sI4183
I6948
sI4184
I6949
sI4185
I6950
sI4186
I6951
sI4187
I6953
sI4188
I6954
sI4189
I6957
sI4190
I6960
sI4191
I6961
sI4192
I6963
sI4193
I6964
sI4194
I6970
sI4195
I6972
sI4196
I6973
sI4197
I6975
sI4198
I6976
sI4199
I6977
sI4200
I6979
sI4201
I6982
sI4202
I6983
sI4203
I6984
sI4204
I6986
sI4205
I3895
sI4206
I6988
sI4207
I6990
sI4208
I6991
sI4209
I6992
sI4210
I6993
sI4211
I6994
sI4212
I6995
sI4213
I6996
sI4214
I6998
sI4215
I6999
sI4216
I7000
sI4217
I7003
sI4218
I7004
sI4219
I7006
sI4220
I7007
sI4221
I7008
sI4222
I7010
sI4223
I7011
sI4224
I7013
sI4225
I7014
sI4226
I7015
sI4227
I7016
sI4228
I7020
sI4229
I7021
sI4230
I7024
sI4231
I7026
sI4232
I7027
sI4233
I7028
sI4234
I7031
sI4235
I7034
sI4236
I7035
sI4237
I7036
sI4238
I7037
sI4239
I7038
sI4240
I7039
sI4241
I7040
sI4242
I7041
sI4243
I7042
sI4244
I7043
sI4245
I7044
sI4246
I7045
sI4247
I7047
sI4248
I7048
sI4249
I7049
sI4250
I7050
sI4251
I7051
sI4252
I7052
sI4253
I7053
sI4254
I7055
sI4255
I7056
sI4256
I7058
sI4257
I7059
sI4258
I7061
sI4259
I7064
sI4260
I7065
sI4261
I7066
sI4262
I7067
sI4263
I7069
sI4264
I7070
sI4265
I7074
sI4266
I7075
sI4267
I7076
sI4268
I7077
sI4269
I7079
sI4270
I7080
sI4271
I7081
sI4272
I7082
sI4273
I7084
sI4274
I7085
sI4275
I8285
sI4276
I7090
sI4277
I7091
sI4278
I7092
sI4279
I7093
sI4280
I7095
sI4281
I7096
sI4282
I7097
sI4283
I7098
sI4284
I7101
sI4285
I7103
sI4286
I7106
sI4287
I7107
sI4288
I8420
sI4289
I7111
sI4290
I7112
sI4291
I7115
sI4292
I7116
sI4293
I7117
sI4294
I7118
sI4295
I7119
sI4296
I7120
sI4297
I7121
sI4298
I7123
sI4299
I7124
sI4300
I7127
sI4301
I7128
sI4302
I7129
sI4303
I7131
sI4304
I7132
sI4305
I7133
sI4306
I7134
sI4307
I7137
sI4308
I8421
sI4309
I7140
sI4310
I7141
sI4311
I7142
sI4312
I7144
sI4313
I7147
sI4314
I7148
sI4315
I7149
sI4316
I7153
sI4317
I7156
sI4318
I7158
sI4319
I7159
sI4320
I7161
sI4321
I7164
sI4322
I7166
sI4323
I7167
sI4324
I7168
sI4325
I5967
sI4326
I7171
sI4327
I7173
sI4328
I7176
sI4329
I7180
sI4330
I7183
sI4331
I7185
sI4332
I7188
sI4333
I7192
sI4334
I7194
sI4335
I7195
sI4336
I7196
sI4337
I7198
sI4338
I7200
sI4339
I7202
sI4340
I7203
sI4341
I7204
sI4342
I7205
sI4343
I7206
sI4344
I7207
sI4345
I7209
sI4346
I7211
sI4347
I7214
sI4348
I7215
sI4349
I7219
sI4350
I7220
sI4351
I7221
sI4352
I7224
sI4353
I7226
sI4354
I7228
sI4355
I7230
sI4356
I7232
sI4357
I7234
sI4358
I7235
sI4359
I7236
sI4360
I7237
sI4361
I7238
sI4362
I7239
sI4363
I7240
sI4364
I7242
sI4365
I7244
sI4366
I7246
sI4367
I7247
sI4368
I7250
sI4369
I7251
sI4370
I7252
sI4371
I7255
sI4372
I7256
sI4373
I7262
sI4374
I7264
sI4375
I7269
sI4376
I7273
sI4377
I7276
sI4378
I7278
sI4379
I7279
sI4380
I7280
sI4381
I7281
sI4382
I7282
sI4383
I7283
sI4384
I7284
sI4385
I7285
sI4386
I7286
sI4387
I7287
sI4388
I7289
sI4389
I7292
sI4390
I7294
sI4391
I7296
sI4392
I7298
sI4393
I7299
sI4394
I7300
sI4395
I7301
sI4396
I7303
sI4397
I7304
sI4398
I7307
sI4399
I7309
sI4400
I7310
sI4401
I7312
sI4402
I7313
sI4403
I7314
sI4404
I7315
sI4405
I7317
sI4406
I7318
sI4407
I8427
sI4408
I7320
sI4409
I7321
sI4410
I7325
sI4411
I7326
sI4412
I7327
sI4413
I7328
sI4414
I7329
sI4415
I7330
sI4416
I7331
sI4417
I7332
sI4418
I7334
sI4419
I7336
sI4420
I7337
sI4421
I7338
sI4422
I7340
sI4423
I7341
sI4424
I7344
sI4425
I7346
sI4426
I7347
sI4427
I7348
sI4428
I7349
sI4429
I7351
sI4430
I7352
sI4431
I8505
sI4432
I7355
sI4433
I7356
sI4434
I7357
sI4435
I7359
sI4436
I7362
sI4437
I7365
sI4438
I7366
sI4439
I7367
sI4440
I7368
sI4441
I7370
sI4442
I7371
sI4443
I7372
sI4444
I7373
sI4445
I7374
sI4446
I7375
sI4447
I7376
sI4448
I7379
sI4449
I7381
sI4450
I7382
sI4451
I7384
sI4452
I7386
sI4453
I8287
sI4454
I7390
sI4455
I7391
sI4456
I7392
sI4457
I7395
sI4458
I7400
sI4459
I7402
sI4460
I7404
sI4461
I7407
sI4462
I7408
sI4463
I8430
sI4464
I7410
sI4465
I7411
sI4466
I7412
sI4467
I7414
sI4468
I7416
sI4469
I7417
sI4470
I7418
sI4471
I7419
sI4472
I7421
sI4473
I7422
sI4474
I7423
sI4475
I7424
sI4476
I7430
sI4477
I7431
sI4478
I7432
sI4479
I7433
sI4480
I7434
sI4481
I7435
sI4482
I7436
sI4483
I7437
sI4484
I7440
sI4485
I7441
sI4486
I7442
sI4487
I7443
sI4488
I7447
sI4489
I7449
sI4490
I7450
sI4491
I7452
sI4492
I7454
sI4493
I8342
sI4494
I7456
sI4495
I7458
sI4496
I7459
sI4497
I7460
sI4498
I7461
sI4499
I7464
sI4500
I7465
sI4501
I7467
sI4502
I7468
sI4503
I7471
sI4504
I7472
sI4505
I7473
sI4506
I7474
sI4507
I7475
sI4508
I7476
sI4509
I7479
sI4510
I7480
sI4511
I7481
sI4512
I7482
sI4513
I7483
sI4514
I7484
sI4515
I7486
sI4516
I7487
sI4517
I7489
sI4518
I7490
sI4519
I7491
sI4520
I7492
sI4521
I7493
sI4522
I7494
sI4523
I7502
sI4524
I7503
sI4525
I7505
sI4526
I7506
sI4527
I7507
sI4528
I7508
sI4529
I7510
sI4530
I7513
sI4531
I7514
sI4532
I7515
sI4533
I7517
sI4534
I7519
sI4535
I7525
sI4536
I7526
sI4537
I3985
sI4538
I8434
sI4539
I7530
sI4540
I7531
sI4541
I7532
sI4542
I7533
sI4543
I7534
sI4544
I7537
sI4545
I7538
sI4546
I7539
sI4547
I7540
sI4548
I7541
sI4549
I7542
sI4550
I7543
sI4551
I7545
sI4552
I7548
sI4553
I7549
sI4554
I7550
sI4555
I7555
sI4556
I7556
sI4557
I7557
sI4558
I7558
sI4559
I8435
sI4560
I7561
sI4561
I7563
sI4562
I7564
sI4563
I7565
sI4564
I7566
sI4565
I7567
sI4566
I7573
sI4567
I7574
sI4568
I7575
sI4569
I7578
sI4570
I7579
sI4571
I7580
sI4572
I7582
sI4573
I7584
sI4574
I7585
sI4575
I7586
sI4576
I7588
sI4577
I7591
sI4578
I7592
sI4579
I7593
sI4580
I7595
sI4581
I7596
sI4582
I7597
sI4583
I7598
sI4584
I7601
sI4585
I7604
sI4586
I7605
sI4587
I7606
sI4588
I7607
sI4589
I7609
sI4590
I7610
sI4591
I7612
sI4592
I7613
sI4593
I7614
sI4594
I7615
sI4595
I7616
sI4596
I7618
sI4597
I7619
sI4598
I7620
sI4599
I7629
sI4600
I7630
sI4601
I7631
sI4602
I7632
sI4603
I7634
sI4604
I7635
sI4605
I7639
sI4606
I7640
sI4607
I7644
sI4608
I7646
sI4609
I7648
sI4610
I8438
sI4611
I7650
sI4612
I7651
sI4613
I7652
sI4614
I7655
sI4615
I7656
sI4616
I7657
sI4617
I7658
sI4618
I7662
sI4619
I7666
sI4620
I7667
sI4621
I7669
sI4622
I7670
sI4623
I7671
sI4624
I7672
sI4625
I8398
sI4626
I7674
sI4627
I7675
sI4628
I7676
sI4629
I7678
sI4630
I8439
sI4631
I7680
sI4632
I7683
sI4633
I7684
sI4634
I7686
sI4635
I7687
sI4636
I7688
sI4637
I7690
sI4638
I7693
sI4639
I7695
sI4640
I7696
sI4641
I7700
sI4642
I7701
sI4643
I7702
sI4644
I7703
sI4645
I7706
sI4646
I7708
sI4647
I8440
sI4648
I7710
sI4649
I7713
sI4650
I7714
sI4651
I7716
sI4652
I7717
sI4653
I7718
sI4654
I7719
sI4655
I7720
sI4656
I7721
sI4657
I7723
sI4658
I7724
sI4659
I7727
sI4660
I7728
sI4661
I7730
sI4662
I7732
sI4663
I7733
sI4664
I7734
sI4665
I7735
sI4666
I7737
sI4667
I7738
sI4668
I7744
sI4669
I7746
sI4670
I7748
sI4671
I7749
sI4672
I7750
sI4673
I7752
sI4674
I7755
sI4675
I7756
sI4676
I7758
sI4677
I7761
sI4678
I7766
sI4679
I7767
sI4680
I7769
sI4681
I7770
sI4682
I8235
sI4683
I7775
sI4684
I7776
sI4685
I7780
sI4686
I7782
sI4687
I7783
sI4688
I7792
sI4689
I2664
sI4690
I7794
sI4691
I7795
sI4692
I7797
sI4693
I7798
sI4694
I7799
sI4695
I7800
sI4696
I7803
sI4697
I7805
sI4698
I7806
sI4699
I7811
sI4700
I7812
sI4701
I7816
sI4702
I7817
sI4703
I7819
sI4704
I7821
sI4705
I7822
sI4706
I7823
sI4707
I7825
sI4708
I7826
sI4709
I7827
sI4710
I7830
sI4711
I7831
sI4712
I7832
sI4713
I7833
sI4714
I7838
sI4715
I7839
sI4716
I7840
sI4717
I7842
sI4718
I7845
sI4719
I7846
sI4720
I7847
sI4721
I7848
sI4722
I7849
sI4723
I7850
sI4724
I7855
sI4725
I7856
sI4726
I7857
sI4727
I7860
sI4728
I7864
sI4729
I7868
sI4730
I7872
sI4731
I7873
sI4732
I7874
sI4733
I7877
sI4734
I7878
sI4735
I7879
sI4736
I7882
sI4737
I7884
sI4738
I7885
sI4739
I7887
sI4740
I7890
sI4741
I7895
sI4742
I7898
sI4743
I7899
sI4744
I7900
sI4745
I7905
sI4746
I1627
sI4747
I7907
sI4748
I7911
sI4749
I7912
sI4750
I7913
sI4751
I7914
sI4752
I7915
sI4753
I7917
sI4754
I7918
sI4755
I7919
sI4756
I7920
sI4757
I7923
sI4758
I7925
sI4759
I7926
sI4760
I7927
sI4761
I7928
sI4762
I7929
sI4763
I7933
sI4764
I7938
sI4765
I7940
sI4766
I7941
sI4767
I7945
sI4768
I7949
sI4769
I7951
sI4770
I7952
sI4771
I7954
sI4772
I7958
sI4773
I7959
sI4774
I7960
sI4775
I7962
sI4776
I7963
sI4777
I7964
sI4778
I7966
sI4779
I7967
sI4780
I7968
sI4781
I7969
sI4782
I7970
sI4783
I7971
sI4784
I7973
sI4785
I7974
sI4786
I7977
sI4787
I7981
sI4788
I7983
sI4789
I7984
sI4790
I7985
sI4791
I7988
sI4792
I7989
sI4793
I7991
sI4794
I7992
sI4795
I7994
sI4796
I7996
sI4797
I7997
sI4798
I7999
sI4799
I8000
sI4800
I8001
sI4801
I8002
sI4802
I8003
sI4803
I8004
sI4804
I8005
sI4805
I8006
sI4806
I8183
sI4807
I8009
sI4808
I8011
sI4809
I8012
sI4810
I8013
sI4811
I8014
sI4812
I8015
sI4813
I8016
sI4814
I8017
sI4815
I8018
sI4816
I8021
sI4817
I8024
sI4818
I8027
sI4819
I8029
sI4820
I8030
sI4821
I8031
sI4822
I8032
sI4823
I8033
sI4824
I8036
sI4825
I8037
sI4826
I8038
sI4827
I8041
sI4828
I8044
sI4829
I8045
sI4830
I8047
sI4831
I8049
sI4832
I8053
sI4833
I8054
sI4834
I8055
sI4835
I8059
sI4836
I8062
sI4837
I8063
sI4838
I8065
sI4839
I8066
sI4840
I4075
sI4841
I8452
sI4842
I8072
sI4843
I8076
sI4844
I8077
sI4845
I8078
sI4846
I8079
sI4847
I8081
sI4848
I8083
sI4849
I8086
sI4850
I8089
sI4851
I8090
sI4852
I8091
sI4853
I8092
sI4854
I8093
sI4855
I8095
sI4856
I8098
sI4857
I8100
sI4858
I8101
sI4859
I8102
sI4860
I8103
sI4861
I8105
sI4862
I8106
sI4863
I8107
sI4864
I8108
sI4865
I8114
sI4866
I8119
sI4867
I8120
sI4868
I8121
sI4869
I8122
sI4870
I8123
sI4871
I8124
sI4872
I8125
sI4873
I8127
sI4874
I8128
sI4875
I8130
sI4876
I8131
sI4877
I8133
sI4878
I8134
sI4879
I8135
sI4880
I8136
sI4881
I8138
sI4882
I8139
sI4883
I8140
sI4884
I8142
sI4885
I8144
sI4886
I8148
sI4887
I8150
sI4888
I8151
sI4889
I8153
sI4890
I8205
sI4891
I8155
sI4892
I8156
sI4893
I8158
sI4894
I8159
sI4895
I8455
sI4896
I8161
sI4897
I8162
sI4898
I8165
sI4899
I8166
sI4900
I8169
sI4901
I8172
sI4902
I8173
sI4903
I8174
sI4904
I8175
sI4905
I8178
sI4906
I8179
sI4907
I8180
sI4908
I8181
sI4909
I8182
sI4910
I6825
sI4911
I8186
sI4912
I8188
sI4913
I8190
sI4914
I8191
s.