(lp1
(lp2
V(15, 20]
p3
aV(5, 10]
p4
aV(0, 2]
p5
aV(2, 5]
p6
aV(20, 30)
p7
aS'[0]'
p8
aV(10, 15]
p9
aa(lp10
VBachelor
p11
aVMaster
p12
aVDoctor
p13
aa(lp14
VLinguistics
p15
aVStatistics
p16
aVPsychology
p17
aVSociology
p18
aVAstrophysics
p19
aVMathematics
p20
aVBusiness
p21
aVInformation Science
p22
aVComputer Science
p23
aVData Science
p24
aVEconomics
p25
aVCognitive Science
p26
aVChemical Engineering
p27
aVBiological Engineering
p28
aVPhysics
p29
aVManagement Science and Engineering
p30
aVTransportation Engineering
p31
aVIndustrial Engineering
p32
aVElectrical and Electronics Engineering
p33
aVEngineering
p34
aVEnvironmental Engineering
p35
aVOperations Research
p36
aVGeography
p37
aa(lp38
S'differential equations'
p39
aS'edc'
p40
aS'qualitative research'
p41
aS'energy efficiency'
p42
aS'chinese'
p43
aS'apache storm'
p44
aS'hedge funds'
p45
aS'redis'
p46
aS'chaid'
p47
aS'computer forensics'
p48
aS'bioconductor'
p49
aS'ggplot2'
p50
aS'dsp'
p51
aS'system design'
p52
aS'go'
p53
aS'user experience design'
p54
aS'equity research'
p55
aS'microsoft sql server'
p56
aS'content management'
p57
aS'technical leadership'
p58
aS'game design'
p59
aS'cognitive neuroscience'
p60
aS'flask'
p61
aS'digital imaging'
p62
aS'fuzzy logic'
p63
aS'scientific visualization'
p64
aS'behavioral targeting'
p65
aS'matlab'
p66
aS'agile methodologies'
p67
aS'master data management'
p68
aS'drug discovery'
p69
aS'junit'
p70
aS'data entry'
p71
aS'materials science'
p72
aS'computational mathematics'
p73
aS'semiconductor industry'
p74
aS'sap bi'
p75
aS'cloudera impala'
p76
aS'automotive'
p77
aS'etl tools'
p78
aS'health informatics'
p79
aS'computer hardware'
p80
aS'decision trees'
p81
aS'facebook'
p82
aS'nanomaterials'
p83
aS'metabolomics'
p84
aS'erp'
p85
aS'infectious diseases'
p86
aS'voip'
p87
aS'event management'
p88
aS'grid computing'
p89
aS'employee engagement'
p90
aS'risk assessment'
p91
aS'solver'
p92
aS'lisp'
p93
aS'mercurial'
p94
aS'risk modeling'
p95
aS'mapreduce'
p96
aS'hive'
p97
aS'engineering management'
p98
aS'civil engineering'
p99
aS'olap'
p100
aS'financial services'
p101
aS'asp'
p102
aS'real estate'
p103
aS'penetration testing'
p104
aS'cms'
p105
aS'functional programming'
p106
aS'predictive analytics'
p107
aS'logistics'
p108
aS'numerical analysis'
p109
aS'air force'
p110
aS'pmp'
p111
aS'unsupervised learning'
p112
aS'global health'
p113
aS'network science'
p114
aS'computational neuroscience'
p115
aS'teradata'
p116
aS'cvs'
p117
aS'business insights'
p118
aS'meta-analysis'
p119
aS'process improvement'
p120
aS'data-driven decision making'
p121
aS'information design'
p122
aS'it management'
p123
aS'batch processing'
p124
aS'pmo'
p125
aS'literature reviews'
p126
aVpanda
p127
aS'vmware'
p128
aS'job analysis'
p129
aS'solution selling'
p130
aS'evolutionary biology'
p131
aS'statistical consulting'
p132
aS'network optimization'
p133
aS'datastage'
p134
aS'clinical development'
p135
aS'microbiology'
p136
aS'time management'
p137
aS'access'
p138
aS'cancer research'
p139
aS'ssis'
p140
aS'large-scale data analysis'
p141
aS'esri'
p142
aS'mac os'
p143
aS'professional services'
p144
aS'awk'
p145
aS'go-to-market strategy'
p146
aS'segmentation'
p147
aS'team leadership'
p148
aS'transportation'
p149
aS'environmental science'
p150
aS'stochastic processes'
p151
aS'random forests'
p152
aS'matplotlib'
p153
aS'customer analysis'
p154
aS'water'
p155
aS'crystal reports'
p156
aS'sql db2'
p157
aS'21 cfr part 11'
p158
aS'statistical modeling'
p159
aS'ubuntu'
p160
aS'apache'
p161
aS'openmp'
p162
aS'science communication'
p163
aS'b2b'
p164
aS'information technology'
p165
aS'business process management'
p166
aS'software development'
p167
aS'medical imaging'
p168
aS'search'
p169
aS'glm'
p170
aS'final cut pro'
p171
aS'data cleaning'
p172
aS'root'
p173
aS'consumer insights'
p174
aS'economics'
p175
aS'test automation'
p176
aS'multivariate statistics'
p177
aS'credit'
p178
aS'rdf'
p179
aS'product launch'
p180
aS'advertising'
p181
aS'windows azure'
p182
aS'military'
p183
aS'microsoft access'
p184
aS'personalized medicine'
p185
aS'options'
p186
aS'patents'
p187
aS'qualtrics'
p188
aS'computer architecture'
p189
aS'classification'
p190
aS'cdma'
p191
aS'probabilistic models'
p192
aS'clinical study design'
p193
aS'adobe creative suite'
p194
aS'healthcare analytics'
p195
aS'test driven development'
p196
aS'graphic design'
p197
aS'vis'
p198
aS'unix'
p199
aS'healthcare information technology'
p200
aS'account management'
p201
aS'mobile advertising'
p202
aS'web scraping'
p203
aS'outsourcing'
p204
aS'experimentation'
p205
aS'social media'
p206
aS'conjoint analysis'
p207
aS'web analytics'
p208
aS'open source'
p209
aS'army'
p210
aS'j2ee'
p211
aS'microeconomics'
p212
aS'petroleum'
p213
aS'devops'
p214
aS'governance'
p215
aS'perl'
p216
aS'crowdsourcing'
p217
aS'risk management'
p218
aS'campaign management'
p219
aS'visio'
p220
aS'bonds'
p221
aS'erwin'
p222
aS'gsm'
p223
aS'data management'
p224
aS'quality assurance'
p225
aS'structural equation modeling'
p226
aS'performance management'
p227
aS'web design'
p228
aS'rapidminer'
p229
aS'lean manufacturing'
p230
aS'jmp'
p231
aS'hl7'
p232
aS'cplex'
p233
aS'business process'
p234
aS'process automation'
p235
aS'investment strategies'
p236
aS'computational linguistics'
p237
aS'data processing'
p238
aS'teaching'
p239
aS'html 5'
p240
aS'project management'
p241
aS'grant writing'
p242
aS'database administration'
p243
aS'scientific analysis'
p244
aS'genetic algorithms'
p245
aS'word'
p246
aS'science'
p247
aS'applied mathematics'
p248
aS'eclipse'
p249
aS'web content'
p250
aS'machine learning'
p251
aS'psychometrics'
p252
aS'hidden markov models'
p253
aS'mobile applications'
p254
aS'budgets'
p255
aS'customer acquisition'
p256
aS'visual basic'
p257
aS'ms office suite'
p258
aS'cluster analysis'
p259
aS'scripting'
p260
aS'cad'
p261
aS'speech recognition'
p262
aS'parallel computing'
p263
aS'educational technology'
p264
aS'portfolio management'
p265
aS'semantic web'
p266
aS'cognitive science'
p267
aS'financial risk management'
p268
aS'revenue analysis'
p269
aS'display advertising'
p270
aS'portfolio optimization'
p271
aS'simulation'
p272
aS'random forest'
p273
aS'business modeling'
p274
aS'simulink'
p275
aS'sip'
p276
aS'cryptography'
p277
aS'contract negotiation'
p278
aS'power bi'
p279
aS'sharepoint'
p280
aS'sas enterprise guide'
p281
aS'tableau'
p282
aS'application architecture'
p283
aS'market research'
p284
aS'gcp'
p285
aS'computer vision'
p286
aS'business planning'
p287
aS'ehr'
p288
aS'text classification'
p289
aS'product innovation'
p290
aS'amazon s3'
p291
aS'hypothesis testing'
p292
aS'unstructured data'
p293
aS'css'
p294
aS'3d visualization'
p295
aS'object recognition'
p296
aS'computational biology'
p297
aS'algebra'
p298
aS'philosophy'
p299
aS'leadership development'
p300
aS'multivariate testing'
p301
aS'entrepreneurship'
p302
aS'sustainability'
p303
aS'theano'
p304
aS'political science'
p305
aS'data wrangling'
p306
aS'arduino'
p307
aS'bootstrapping'
p308
aS'extract transform load etl'
p309
aS'mpi'
p310
aS'data'
p311
aS'metrology'
p312
aS'a'
aS'technical training'
p313
aS'github'
p314
aS'sparql'
p315
aS'commodity'
p316
aS'remote sensing'
p317
aS'object oriented design'
p318
aS'market making'
p319
aS'documentation'
p320
aS'derivatives'
p321
aS'django'
p322
aS'google analytics'
p323
aS'causal inference'
p324
aS'sharepoint designer'
p325
aS'algorithms'
p326
aS'healthcare'
p327
aS'tutoring'
p328
aS'nltk'
p329
aS'aerospace engineering'
p330
aS'jira'
p331
aS'photoshop'
p332
aS'oncology'
p333
aS'b2b marketing'
p334
aS'health economics'
p335
aS'sql server reporting services ssrs'
p336
aS'crystal ball'
p337
aS'intellectual property'
p338
aS'data warehouse architecture'
p339
aS'data acquisition'
p340
aS'strategic leadership'
p341
aS'radar'
p342
aS'quality control'
p343
aS'marketing research'
p344
aS'hbase'
p345
aS'multi-channel marketing'
p346
aS'fundraising'
p347
aS'rnaseq'
p348
aS'linguistics'
p349
aS'db2'
p350
aS'capital markets'
p351
aS'google docs'
p352
aS'anomaly detection'
p353
aS'pcr'
p354
aS'process engineering'
p355
aS'bloomberg terminal'
p356
aS'product marketing'
p357
aS'monte carlo simulation'
p358
aS'writing'
p359
aS'supply chain management'
p360
aS'digital media'
p361
aS'coaching'
p362
aS'spring framework'
p363
aS'statistical software'
p364
aS'wordpress'
p365
aS'microstrategy'
p366
aS'reverse engineering'
p367
aS'policy'
p368
aS'linux system administration'
p369
aS'pca'
p370
aS'soa'
p371
aS'operational planning'
p372
aS'finance'
p373
aS'customer relationship management crm'
p374
aS'python'
p375
aS'semantic analysis'
p376
aS'private equity'
p377
aS'postgis'
p378
aS'due diligence'
p379
aS'survey design'
p380
aS'scipy'
p381
aS'combinatorial optimization'
p382
aS'algorithm development'
p383
aS'technical documentation'
p384
aS'business development'
p385
aS'business transformation'
p386
aS'servers'
p387
aS'analytical skills'
p388
aS'cloudera'
p389
aVbayesian method
p390
aS'outcomes research'
p391
aS'spatial analysis'
p392
aS'innovation management'
p393
aS'svm'
p394
aS'.net'
p395
aS'communication skills'
p396
aS'user acceptance testing'
p397
aS'pharmaceutical industry'
p398
aS'program evaluation'
p399
aS'regression models'
p400
aS'association rules'
p401
aS'root cause analysis'
p402
aS'logistic regression'
p403
aS'drug development'
p404
aS'soc'
p405
aS'crm'
p406
aS'data analytics'
p407
aS'sap bw'
p408
aS'cartography'
p409
aS'knowledge management'
p410
aS'energy'
p411
aS'decision support'
p412
aS'computational chemistry'
p413
aS'information extraction'
p414
aS'sas base'
p415
aS'enterprise software'
p416
aS'trading'
p417
aS'ec2'
p418
aS'personalization'
p419
aS'relational databases'
p420
aS'firmware'
p421
aS'direct marketing'
p422
aS'insurance'
p423
aS'collaborative problem solving'
p424
aS'requirements management'
p425
aS'psychology'
p426
aS'jdbc'
p427
aS'image processing'
p428
aS'ssas'
p429
aS'questionnaire design'
p430
aS'web 2.0'
p431
aS'scientific computing'
p432
aS'research design'
p433
aS'research'
p434
aS'mahout'
p435
aS'urban planning'
p436
aS'vendor management'
p437
aS'survey methodology'
p438
aS'database marketing'
p439
aS'sdlc'
p440
aS'business requirements'
p441
aS'medicine'
p442
aS'electronics'
p443
aS'it service management'
p444
aS'netbeans'
p445
aS'statistical tools'
p446
aS'quickbooks'
p447
aS'molecular modeling'
p448
aS'factor analysis'
p449
aS'hibernate'
p450
aS'embedded software'
p451
aS'theory'
p452
aS'transportation engineering'
p453
aS'client presentation'
p454
aS'cissp'
p455
aS'data scientist'
p456
aS'cart'
p457
aS'data quality'
p458
aS'business analytics'
p459
aS'ajax'
p460
aS'statistics'
p461
aS'algorithm design'
p462
aS'foreign policy'
p463
aS'gis'
p464
aS'sensors'
p465
aS'mathematical analysis'
p466
aS'photography'
p467
aS'bash'
p468
aS'training'
p469
aS'knime'
p470
aS'open source software'
p471
aS'partial differential equations'
p472
aS'drupal'
p473
aS'optics'
p474
aS'sustainable development'
p475
aS'programming'
p476
aS'mobile devices'
p477
aS'business objects'
p478
aS'traffic engineering'
p479
aS'mvc'
p480
aS'elasticsearch'
p481
aS'opencv'
p482
aS'lte'
p483
aS'data security'
p484
aS'requirements analysis'
p485
aS'field work'
p486
aS'retail'
p487
aS'rapid prototyping'
p488
aS'microsoft azure'
p489
aS'scalding'
p490
aS'customer insight'
p491
aS'probability'
p492
aS'indesign'
p493
aS'proteomics'
p494
aS'bioinformatics'
p495
aS'demand forecasting'
p496
aS'proofreading'
p497
aS'ecology'
p498
aS'marketing strategy'
p499
aS'spanish'
p500
aS'mathematical modeling'
p501
aS'neo4j'
p502
aS'financial reporting'
p503
aS'marketing management'
p504
aS'dimensionality reduction'
p505
aS'clinical data management'
p506
aS'management'
p507
aS'weka'
p508
aS'hedging'
p509
aS'community development'
p510
aS'project portfolio management'
p511
aS'artificial neural networks'
p512
aS'interviews'
p513
aS'struts'
p514
aS'recruiting'
p515
aS'trading systems'
p516
aS'enterprise architecture'
p517
aS'abap'
p518
aS'gurobi'
p519
aS'climate change'
p520
aS'advanced analytics'
p521
aS'gpu'
p522
aS'scheme'
p523
aS'dimensional modeling'
p524
aS'operating systems'
p525
aS'software documentation'
p526
aS'text mining'
p527
aS'shiny'
p528
aS'content strategy'
p529
aS'mathematical programming'
p530
aS'apache spark'
p531
aS'actuarial science'
p532
aS'strategic thinking'
p533
aS'healthcare consulting'
p534
aS'mongodb'
p535
aS'instructional design'
p536
aS'xquery'
p537
aS'performance improvement'
p538
aS'translation'
p539
aS'semantics'
p540
aS'jquery'
p541
aS'business intelligence tools'
p542
aS'data collection'
p543
aS'performance metrics'
p544
aS'quantitative analytics'
p545
aS'linear algebra'
p546
aS'solution architecture'
p547
aS'lucene'
p548
aS'data engineering'
p549
aS'organizational leadership'
p550
aS'r'
aS'discrete mathematics'
p551
aS'kalman filtering'
p552
aS'fixed income'
p553
aS'impala'
p554
aS'game theory'
p555
aS'it strategy'
p556
aS'supply chain optimization'
p557
aS'debugging'
p558
aS'bootstrap'
p559
aS'management consulting'
p560
aS'competitive analysis'
p561
aS'ant'
p562
aS'business intelligence'
p563
aS'graphical models'
p564
aS'physical chemistry'
p565
aS'corporate development'
p566
aS'angularjs'
p567
aS'sas'
p568
aS'market basket analysis'
p569
aS'sap'
p570
aS'amazon web services'
p571
aS'cassandra'
p572
aS'instrumentation'
p573
aS'e-commerce'
p574
aS'user experience'
p575
aS'counterterrorism'
p576
aS'data governance'
p577
aS'predictive modeling'
p578
aS'microcontrollers'
p579
aS'marketing automation'
p580
aS'system architecture'
p581
aS'project coordination'
p582
aS'dna sequencing'
p583
aS'natural language processing'
p584
aS'ms project'
p585
aS'test planning'
p586
aS'financial analysis'
p587
aS'failure analysis'
p588
aS'soap'
p589
aS'erdas imagine'
p590
aS'calculus'
p591
aS'competitive intelligence'
p592
aS'hdfs'
p593
aS'collaboration'
p594
aS'aws'
p595
aS'arena'
p596
aS'bigquery'
p597
aS'scientific writing'
p598
aS'metrics'
p599
aS'pentaho'
p600
aS'biomedical informatics'
p601
aS'oozie'
p602
aS'technical writing'
p603
aS'discrete event simulation'
p604
aS'public speaking'
p605
aS'customer segmentation strategy'
p606
aS'latex'
p607
aS'obiee'
p608
aS'design patterns'
p609
aS'system testing'
p610
aS'software engineering'
p611
aS'sql server'
p612
aS'windows'
p613
aS'people skills'
p614
aS'microsoft word'
p615
aS'convex optimization'
p616
aS'excel vba'
p617
aS'dod'
p618
aS'linear regression'
p619
aS'os x'
p620
aS'knowledge representation'
p621
aS'financial engineering'
p622
aS'databases'
p623
aS'investment management'
p624
aS'physics'
p625
aS'pre-sales'
p626
aS'vulnerability assessment'
p627
aS'oracle database'
p628
aS'nlp'
p629
aS'supply chain'
p630
aS'unix shell scripting'
p631
aS'survival analysis'
p632
aS'german'
p633
aS'asic'
p634
aS'nonlinear optimization'
p635
aS'lean startup'
p636
aS'adult education'
p637
aS'operations management'
p638
aS'strategic planning'
p639
aS'node.js'
p640
aS'spring mvc'
p641
aS'visual studio'
p642
aS'vertica'
p643
aS'email marketing'
p644
aS'network security'
p645
aS'creative problem solving'
p646
aS'biometrics'
p647
aS'd3'
p648
aS'geography'
p649
aS'xml'
p650
aS'cell'
p651
aS'technical communication'
p652
aS'editing'
p653
aS'graph databases'
p654
aS'biostatistics'
p655
aS'big data'
p656
aS'lua'
p657
aS'critical thinking'
p658
aS'asset management'
p659
aS'web marketing'
p660
aS'microarray'
p661
aS'envi'
p662
aS'microscopy'
p663
aS'geospatial intelligence'
p664
aS'basel ii'
p665
aS'networking'
p666
aS'disease management'
p667
aS'earth science'
p668
aS'risk analytics'
p669
aS'android development'
p670
aS'population genetics'
p671
aS'policy analysis'
p672
aS'apache kafka'
p673
aS'software development life cycle sdlc'
p674
aS'graph theory'
p675
aS'data modeling'
p676
aS'copywriting'
p677
aS'recommender systems'
p678
aS'pyspark'
p679
aS'public health'
p680
aS'biophysics'
p681
aS'risk analysis'
p682
aS'mandarin'
p683
aS'talent management'
p684
aS'dynamic programming'
p685
aS'oracle sql developer'
p686
aS'tcp'
p687
aS'powerpivot'
p688
aS'systems biology'
p689
aS'itil'
p690
aS'credit risk'
p691
aS'blogging'
p692
aS'flume'
p693
aS'collaborative filtering'
p694
aS'digital strategy'
p695
aS'amazon ec2'
p696
aS'mac os x'
p697
aS'geospatial modeling'
p698
aS'investment banking'
p699
aS'banking'
p700
aS'sequence analysis'
p701
aS'credit analysis'
p702
aS'architecture'
p703
aS'emr'
p704
aS'api development'
p705
aS'high availability'
p706
aS'cro'
p707
aS'information architecture'
p708
aS'quality improvement'
p709
aS'cognos'
p710
aS'active directory'
p711
aS'intelligence'
p712
aS'testing'
p713
aS'economic development'
p714
aS'presentation skills'
p715
aS'c++'
p716
aS'eviews'
p717
aS'analytics'
p718
aS'proposal writing'
p719
aS'defense'
p720
aS'rf'
p721
aS'system administration'
p722
aS'biomarker discovery'
p723
aS'seo'
p724
aS'distributed computing'
p725
aS'sem'
p726
aS'integrated marketing'
p727
aS'arm'
p728
aS'php'
p729
aS'direct mail'
p730
aS'data architecture'
p731
aS'quantitative finance'
p732
aS'corporate finance'
p733
aS'programming languages'
p734
aS'statistical computing'
p735
aS'machine vision'
p736
aS'information management'
p737
aS'big data analytics'
p738
aS'social network analysis'
p739
aS'new business development'
p740
aS'verilog'
p741
aS'stata'
p742
aS'design experiments'
p743
aS'computational physics'
p744
aS'fluorescence'
p745
aS'amazon web services aws'
p746
aS'oracle pl'
p747
aS'electronic trading'
p748
aS'keynote'
p749
aS'xslt'
p750
aS'database design'
p751
aS'customer service'
p752
aS'javascript'
p753
aS'alteryx'
p754
aS'scalability'
p755
aS'molecular genetics'
p756
aS'data structures'
p757
aS'mentoring'
p758
aS'minitab'
p759
aS'control theory'
p760
aS'modeling'
p761
aS'spark'
p762
aS'solr'
p763
aS'decision analysis'
p764
aS'c'
aS'inventory management'
p765
aS'hydrology'
p766
aS'data visualization'
p767
aS'software service saas'
p768
aS'quantitative research'
p769
aS'microsoft powerpoint'
p770
aS'budgeting'
p771
aS'security clearance'
p772
aS'technical analysis'
p773
aS'customer analytics'
p774
aS'press releases'
p775
aS'customer support'
p776
aS'core java'
p777
aS'internet things'
p778
aS'probability theory'
p779
aVbayesian statistic
p780
aS'environmental engineering'
p781
aS'etl'
p782
aS'html5'
p783
aS'negotiation'
p784
aS'gps'
p785
aS'forecasting'
p786
aS'octave'
p787
aS'shell scripting'
p788
aS'characterization'
p789
aS'attribution modeling'
p790
aS'r programming'
p791
aS'data science'
p792
aS'robotics'
p793
aS'reinforcement learning'
p794
aS'thought leadership'
p795
aS'grants'
p796
aS'data warehousing'
p797
aS'anova'
p798
aS'linux'
p799
aS'simulation modeling'
p800
aS'fourier analysis'
p801
aS'database management'
p802
aS'telecommunications'
p803
aS'information visualization'
p804
aS'qlikview'
p805
aS'pricing optimization'
p806
aS'java'
p807
aS'publishing'
p808
aS'mechanical engineering'
p809
aS'omniture'
p810
aS'deep learning'
p811
aS'user interface'
p812
aS'strategy'
p813
aS'asp.net mvc'
p814
aS'commodity markets'
p815
aS'json'
p816
aS'secondary research'
p817
aS'teamwork'
p818
aS'mixed model'
p819
aS'dreamweaver'
p820
aS'event planning'
p821
aS'tensorflow'
p822
aS'numpy'
p823
aS'statistical learning'
p824
aS'operations research'
p825
aS'analysis services'
p826
aS'dashboarding'
p827
aS'customer satisfaction'
p828
aS'statistical data analysis'
p829
aS'human resources'
p830
aS'visual analytics'
p831
aS'business analysis'
p832
aS'molecular biology'
p833
aS'marketing communications'
p834
aS'credit cards'
p835
aS'healthcare industry'
p836
aS'spotfire'
p837
aS'vba'
p838
aS'sales operations'
p839
aS'apache pig'
p840
aS'strategic partnerships'
p841
aS'aviation'
p842
aS'ruby'
p843
aS'survey research'
p844
aS'hardware diagnostics'
p845
aS'software quality assurance'
p846
aVbayesian network
p847
aS'econometric modeling'
p848
aS'non-profits'
p849
aS'hedis'
p850
aS'consumer behaviour'
p851
aS'lean six sigma'
p852
aS'sap erp'
p853
aS'program development'
p854
aS'health insurance'
p855
aS'strategic communications'
p856
aS'optimization algorithms'
p857
aS'statistical arbitrage'
p858
aS'decision modeling'
p859
aS'optimization'
p860
aS'dashboard'
p861
aS'editorial'
p862
aS'vb.net'
p863
aS'product management'
p864
aS'team management'
p865
aS'advertising research'
p866
aS'application development'
p867
aS'trend analysis'
p868
aS'scientific programming'
p869
aS'r studio'
p870
aS'ip'
p871
aS'project planning'
p872
aS'simulations'
p873
aS'avro'
p874
aS'hardware'
p875
aS'cluster'
p876
aS'microsoft crm'
p877
aS'ansible'
p878
aS'operational excellence'
p879
aS'statistical analysis'
p880
aS'adobe photoshop'
p881
aS'politics'
p882
aS'signal processing'
p883
aS'ic'
p884
aS'sas programming'
p885
aS'regression'
p886
aS'integer programming'
p887
aS'sql database design'
p888
aS'nanofabrication'
p889
aS'clinical trials'
p890
aS'program management'
p891
aS'digital signal processing'
p892
aS'servlets'
p893
aS'hadoop'
p894
aS'quantitative investing'
p895
aS'lamp'
p896
aS'coffeescript'
p897
aS'sap netweaver'
p898
aS'html'
p899
aS'fraud detection'
p900
aS'online advertising'
p901
aS'google cloud platform'
p902
aS'weblogic'
p903
aS'web mining'
p904
aS'android'
p905
aS'web development'
p906
aS'semiconductor device'
p907
aS'human computer interaction'
p908
aS'sentiment analysis'
p909
aS'six sigma'
p910
aS'quality management'
p911
aS'ios'
p912
aS'automation'
p913
aS'assembly language'
p914
aS'presentations'
p915
aS'medicaid'
p916
aS'architectures'
p917
aS'bloomberg'
p918
aS't-sql'
p919
aS'bayesian inference'
p920
aS'hipaa'
p921
aS'statistical programming'
p922
aS'model selection'
p923
aS'process development'
p924
aS'business process re-engineering'
p925
aS'awesomeness'
p926
aS'pattern recognition'
p927
aS'in vitro'
p928
aS'ampl'
p929
aS'presto'
p930
aS'start-ups'
p931
aS'eye tracking'
p932
aS'market data'
p933
aS'image analysis'
p934
aS'analysis'
p935
aS'sas enterprise miner'
p936
aS'data center'
p937
aS'procurement'
p938
aS'materials'
p939
aS'command'
p940
aS'data integration'
p941
aS'business process design'
p942
aS'english'
p943
aS'netezza'
p944
aS'organization'
p945
aS'docker'
p946
aS'chemistry'
p947
aS'video editing'
p948
aS'investments'
p949
aS'sap hana'
p950
aS'digital marketing'
p951
aS'web applications'
p952
aS'solaris'
p953
aS'mobile marketing'
p954
aS'nosql'
p955
aS'model validation'
p956
aS'excel'
p957
aS'proprietary trading'
p958
aS'rest'
p959
aS'trading strategies'
p960
aS'spss modeler'
p961
aS'tcl'
p962
aS'product strategy'
p963
aS'mysql'
p964
aS'digital analytics'
p965
aS'distributed systems'
p966
aS'change management'
p967
aS'visualization'
p968
aS'microsoft project'
p969
aS'french'
p970
aS'autocad'
p971
aS'cancer'
p972
aS'complex systems'
p973
aS'time series analysis'
p974
aS'agile'
p975
aS'bayesian statistics'
p976
aS'outlook'
p977
aS'd3.js'
p978
aS'subversion'
p979
aS'fortran'
p980
aS'evolutionary computation'
p981
aS'oracle sql'
p982
aS'prezi'
p983
aS'principal component analysis'
p984
aS'gmp'
p985
aS'microsoft excel'
p986
aS'css3'
p987
aS'optimizations'
p988
aS'gams'
p989
aS'oop'
p990
aS'government'
p991
aS'design thinking'
p992
aS'windows server'
p993
aS'wcf'
p994
aS'user research'
p995
aS'experimental design'
p996
aS'salesforce.com'
p997
aS'product design'
p998
aS'military experience'
p999
aS'julia'
p1000
aS'aerospace'
p1001
aS'performance tuning'
p1002
aS'sequencing'
p1003
aS'distributed algorithms'
p1004
aS'nanotechnology'
p1005
aS'social networking'
p1006
aS'pharmacovigilance'
p1007
aS'customer experience'
p1008
aS'equities'
p1009
aS'apache hive'
p1010
aS'swift'
p1011
aS'regular expressions'
p1012
aS'systems analysis'
p1013
aS'scikit-learn'
p1014
aS'systems design'
p1015
aS'securities'
p1016
aS'online marketing'
p1017
aS'managed care'
p1018
aS'cognition'
p1019
aS'statistical inference'
p1020
aS'security'
p1021
aS'rstudio'
p1022
aS'market analysis'
p1023
aS'venture capital'
p1024
aS'financial markets'
p1025
aS'centos'
p1026
aS'text analytics'
p1027
aS'public relations'
p1028
aS'spring'
p1029
aS'data mining'
p1030
aS'regression testing'
p1031
aS'information retrieval'
p1032
aS'sql development'
p1033
aS'health policy'
p1034
aS'asp.net'
p1035
aS'geospatial data'
p1036
aS'pricing'
p1037
aS'usability testing'
p1038
aS'public policy'
p1039
aS'cascading style sheets css'
p1040
aS'econometrics'
p1041
aS'teradata sql'
p1042
aS'structured finance'
p1043
aS'market risk'
p1044
aS'sociology'
p1045
aS'genetics'
p1046
aS'optimal control'
p1047
aS'scala'
p1048
aS'team building'
p1049
aS'data migration'
p1050
aS'lead generation'
p1051
aS'saas'
p1052
aS'integration'
p1053
aS'web crawling'
p1054
aS'online research'
p1055
aS'mathematical statistics'
p1056
aS'technical recruiting'
p1057
aS'web services'
p1058
aS'innovation'
p1059
aS'information security'
p1060
aS'uml'
p1061
aS'monetization'
p1062
aS'greenplum'
p1063
aS'assay development'
p1064
aS'biology'
p1065
aS'data analysis'
p1066
aS'product development'
p1067
aS'process optimization'
p1068
aS'genomics'
p1069
aS'marketing'
p1070
aS'informatica'
p1071
aS'processing'
p1072
aS'performance measurement'
p1073
aS'maven'
p1074
aS'epidemiology'
p1075
aS'leadership'
p1076
aS'biomarkers'
p1077
aS'google adwords'
p1078
aS'windows 7'
p1079
aS'informatics'
p1080
aS'dna'
p1081
aS'manufacturing'
p1082
aS'loans'
p1083
aS'eeg'
p1084
aS'rdbms'
p1085
aS'financial risk'
p1086
aS'b testing'
p1087
aS'postgresql'
p1088
aS'national security'
p1089
aS'gis analysis'
p1090
aS'staff development'
p1091
aS'marketing analytics'
p1092
aS'primary research'
p1093
aS'spss'
p1094
aS'arcgis'
p1095
aS'idl'
p1096
aS'medicare'
p1097
aS'cuda'
p1098
aS'executive management'
p1099
aS'cyber-security'
p1100
aS'jsp'
p1101
aS'international business'
p1102
aS'clojure'
p1103
aS'microsoft office'
p1104
aS'powerpoint'
p1105
aS'ppc'
p1106
aS'owl'
p1107
aS'consulting'
p1108
aS'neural networks'
p1109
aS'government contracting'
p1110
aS'vhdl'
p1111
aS'communication'
p1112
aS'splunk'
p1113
aS'intelligence analysis'
p1114
aS'dashboards'
p1115
aS'mllib'
p1116
aS'user interface design'
p1117
aS'haskell'
p1118
aS'statistical sampling'
p1119
aS'troubleshooting'
p1120
aS'problem solving'
p1121
aS'oracle e-business suite'
p1122
aS'sports'
p1123
aS'quantitative analysis'
p1124
aS'enterprise risk management'
p1125
aS'visual basic applications vba'
p1126
aS'lingo'
p1127
aS'clustering'
p1128
aS'pricing analysis'
p1129
aS'git'
p1130
aS'multivariate analysis'
p1131
aS'marketing mix modeling'
p1132
aS'opengl'
p1133
aS'vbscript'
p1134
aS'strategic consulting'
p1135
aS'continuous improvement'
p1136
aS'statistica'
p1137
aS'heroku'
p1138
aS'energy policy'
p1139
aS'emacs'
p1140
aS'data munging'
p1141
aS'renewable energy'
p1142
aS'astrophysics'
p1143
aS'music'
p1144
aS'pivot tables'
p1145
aS'linear programming'
p1146
aS'artificial intelligence'
p1147
aS'systems engineering'
p1148
aS'feature extraction'
p1149
aS'biomedical engineering'
p1150
aS'business process improvement'
p1151
aS'apis'
p1152
aS'ruby rails'
p1153
aS'computer graphics'
p1154
aS'linq'
p1155
aS'website development'
p1156
aS'wireless'
p1157
aS'process modeling'
p1158
aS'construction'
p1159
aS'chemical engineering'
p1160
aS'computer security'
p1161
aS'pricing strategy'
p1162
aS'information theory'
p1163
aS'valuation'
p1164
aS'fda'
p1165
aS'software design'
p1166
aS'life sciences'
p1167
aS'fraud'
p1168
aS'illustrator'
p1169
aS'parallel programming'
p1170
aS'community outreach'
p1171
aS'human factors'
p1172
aS'smart grid'
p1173
aS'agile project management'
p1174
aS'demand generation'
p1175
aS'credit scoring'
p1176
aS'amazon redshift'
p1177
aS'pl'
p1178
aS'spectroscopy'
p1179
aS'e-learning'
p1180
aS'electrical engineering'
p1181
aS'clinical research'
p1182
aS'organizational effectiveness'
p1183
aS'powershell'
p1184
aS'pharmacology'
p1185
aS'virtualization'
p1186
aS'higher education'
p1187
aS'performance testing'
p1188
aS'computational genomics'
p1189
aS'regression analysis'
p1190
aS'sqoop'
p1191
aS'immunology'
p1192
aS'sales'
p1193
aS'restful webservices'
p1194
aS'pig'
p1195
aS'report writing'
p1196
aS'engineering'
p1197
aS'ssrs'
p1198
aS'gephi'
p1199
aS'high performance computing'
p1200
aS'laboratory'
p1201
aS'accounting'
p1202
aS'education'
p1203
aS'hospitals'
p1204
aS'objective-c'
p1205
aS'economic research'
p1206
aS'iis'
p1207
aS'biochemistry'
p1208
aS'mathematica'
p1209
aS'storage'
p1210
aS'h2o'
p1211
aS'agent-based modeling'
p1212
aS'social sciences'
p1213
aS'sybase'
p1214
aS'quantitative models'
p1215
aS'computer science'
p1216
aS'health services research'
p1217
aS'cheminformatics'
p1218
aS'database development'
p1219
aS'mathematics'
p1220
aS'pandas'
p1221
aS'product lifecycle management'
p1222
aS'mri'
p1223
aS'financial modeling'
p1224
aS'reliability engineering'
p1225
aS'toad'
p1226
aS'gas'
p1227
aS'cobol'
p1228
aS'scrum'
p1229
aS'customer retention'
p1230
aS'ggplot'
p1231
aS'interaction design'
p1232
aS'sql'
p1233
aS'neuroscience'
p1234
aS'astronomy'
p1235
aS'cell biology'
p1236
aS'emerging markets'
p1237
aS'disaster recovery'
p1238
aS'tomcat'
p1239
aS'groovy'
p1240
aS'cloud computing'
p1241
aS'wifi'
p1242
aS'business strategy'
p1243
aS'unit testing'
p1244
aS'organizational development'
p1245
aS'information assurance'
p1246
aS'jenkins'
p1247
aS'exploratory data analysis'
p1248
aS'stochastic modeling'
p1249
aS'oracle'
p1250
aS'biotechnology'
p1251
aS'validation'
p1252
aS'industrial engineering'
p1253
aS'industrial organization'
p1254
aa(lp1255
S'build dashboard'
p1256
aS'architect system'
p1257
aS'non-routine analysis problem'
p1258
aS'transform data set'
p1259
aS'insight'
p1260
aS'manage data'
p1261
aS'provide mentorship'
p1262
aS'cross-functionally'
p1263
aS'exploratory analysis'
p1264
aS'product leadership'
p1265
aS'evaluate ... experiment'
p1266
aS'improvement'
p1267
aS'analytic'
p1268
aS'presentation'
p1269
aS'transformation'
p1270
aS'financial model'
p1271
aS'prioritize lead'
p1272
aS'quantitative information'
p1273
aS'report'
p1274
aS'monitor ... metric'
p1275
aS'discover pattern'
p1276
aS'drive ... model'
p1277
aS'experiment analysis'
p1278
aS'manage decision'
p1279
aS'manipulate ... data set'
p1280
aS'ad-hoc exploratory'
p1281
aS'develop ... system'
p1282
aS'design'
p1283
aS'cost benefit'
p1284
aS'recommendation'
p1285
aS'extract'
p1286
aS'cost-benefit'
p1287
aS'mine data'
p1288
aS'explore opportunity'
p1289
aS'pattern'
p1290
aS'ensure accuracy'
p1291
aS'forecast'
p1292
aS'track ... activity'
p1293
aS'automate report'
p1294
aS'evaluation'
p1295
aS'data analysis'
p1296
aS'build model'
p1297
aS'provide leadership'
p1298
aS'processing'
p1299
aS'communicate'
p1300
aS'create rule'
p1301
aS'statistical method'
p1302
aS'problem statement'
p1303
aS'interface'
p1304
aS'product decision'
p1305
aS'data gathering'
p1306
aS'support platform'
p1307
aS'simulation'
p1308
aS'product launch'
p1309
aS'implement'
p1310
aS'engineering design'
p1311
aS'business recommendation'
p1312
aS'forecasting'
p1313
aVproduct operation
p1314
aS'manipulate ... dataset'
p1315
aVtest hypothesis
p1316
aS'identify opportunity'
p1317
aS'due diligence'
p1318
aS'drive ... decision'
p1319
aS'data mining'
p1320
aS'quantitative analysis'
p1321
aS'decision making'
p1322
aS'formulate'
p1323
aS'construct'
p1324
aS'develop ... model'
p1325
aS'tactical initiative'
p1326
aS'complex data set'
p1327
aS'prototype'
p1328
aS'data sourcing'
p1329
aS'data infrastructure'
p1330
aS'business problem'
p1331
aS'collect data'
p1332
aS'statistical model'
p1333
aS'understand'
p1334
aS'key decision'
p1335
aS'identify ... trend'
p1336
aS'design ... experiment'
p1337
aS'ensure data integrity'
p1338
aS'data collection'
p1339
aVass ... improvement
p1340
aS'optimization'
p1341
aS'analytical method'
p1342
aS'go-to-market strategy'
p1343
aS'predict'
p1344
aVrequirement specification
p1345
aS'solve problem'
p1346
aS'modeling'
p1347
aS'information'
p1348
aS'cross functionally'
p1349
aS'define metric'
p1350
aS'visual display'
p1351
aS'ongoing deliverable'
p1352
aS'development'
p1353
aS'product'
p1354
aS'large data set'
p1355
aS'decision-making'
p1356
aS'mapping'
p1357
aS'ownership'
p1358
aS'data wrangling'
p1359
aS'evaluate ... metric'
p1360
aS'normalization'
p1361
aS'test ... model'
p1362
aS'documentation'
p1363
aS'analysis'
p1364
aS'model'
p1365
aS'build solution'
p1366
aS'validate ... model'
p1367
aS'data aggregation'
p1368
aa.