(lp1
(lp2
V(15, 20]
p3
aV(5, 10]
p4
aV(0, 2]
p5
aV(2, 5]
p6
aV(20, 30)
p7
aV[0]
p8
aV(10, 15]
p9
aa(lp10
VBachelor
p11
aVMaster
p12
aVDoctor
p13
aa(lp14
S'economics statistics'
p15
aS'master science'
p16
aS'economics mathematics'
p17
aS'computer science computational biology'
p18
aS'business analytics predictive analytics'
p19
aS'survey methodology'
p20
aS'behavioral economics'
p21
aS'cognitive neuroscience'
p22
aS'statistics biology'
p23
aS'statistics actuarial science'
p24
aS'psychology computer science'
p25
aS'computer science machine learning artificial intelligence'
p26
aS'engineering science'
p27
aS'materials science'
p28
aS'health informatics'
p29
aS'operations research financial engineering'
p30
aS'statistics probability'
p31
aS'engineering management'
p32
aS'civil engineering'
p33
aS'science'
p34
aS'predictive analytics'
p35
aS'computational biology bioinformatics'
p36
aS'actuarial science'
p37
aS'data mining predictive analytics'
p38
aS'design'
p39
aS'strategic intelligence'
p40
aS'environmental health'
p41
aS'machine learning'
p42
aS'high technology'
p43
aS'computer science computer engineering'
p44
aS'microbiology'
p45
aS'applied mathematics economics'
p46
aS'digital communication'
p47
aS'transportation'
p48
aS'environmental science'
p49
aS'economics computer science'
p50
aS'anthropology'
p51
aS'marketing analysis'
p52
aS'berkeley'
p53
aS'information technology'
p54
aS'health sciences'
p55
aS'computational neuroscience'
p56
aS'economics'
p57
aS'business administration'
p58
aS'statistics analytics'
p59
aS'information engineering'
p60
aS'applied economics'
p61
aS'financial mathematics'
p62
aS'statistics operations research'
p63
aS'music'
p64
aS'intelligent systems'
p65
aS'finance marketing'
p66
aS'computational linguistics'
p67
aS'project management'
p68
aS'finance statistics'
p69
aS'data analytics business'
p70
aS'applied mathematics'
p71
aS'industrial/organizational psychology'
p72
aS'food science'
p73
aS'data science operations research'
p74
aS'bioengineering'
p75
aS'physical chemistry'
p76
aS'history'
p77
aS'mathematics statistics economics'
p78
aS'cognitive science'
p79
aS'information'
p80
aS'analytics analytics'
p81
aS'business communications'
p82
aS'information technology management'
p83
aS'mathematics biology'
p84
aS'computational biology'
p85
aS'philosophy'
p86
aS'biophysics'
p87
aS'chemistry biochemistry'
p88
aS'sustainability'
p89
aS'data management analysis'
p90
aS'political science'
p91
aS'bioinformatics'
p92
aS'computational mathematics'
p93
aS'law'
p94
aS'finance data analytics'
p95
aS'analytics predictive modeling'
p96
aVphysic
p97
aS'data science analytics'
p98
aS'strategy marketing'
p99
aS'statistics applied mathematics'
p100
aS'statistics data mining'
p101
aS'network security'
p102
aS'management technology'
p103
aS'computational finance'
p104
aS'linguistics'
p105
aS'supply chain management'
p106
aS'digital media'
p107
aS'computer science software engineering'
p108
aS'finance'
p109
aS'computer sciences'
p110
aS'machine learning big data'
p111
aS'mathematics economics statistics'
p112
aS'corporate innovation'
p113
aS"brigham women's hospital"
p114
aS'mathematical finance'
p115
aS'data analytics'
p116
aS'ee'
p117
aS'knowledge management'
p118
aS'public policy analysis'
p119
aS'machine learning data mining'
p120
aS'integrated marketing communication'
p121
aS'energy economics'
p122
aS'operations research industrial engineering'
p123
aS'quantitative economics'
p124
aS'mathematics physics'
p125
aS'psychology'
p126
aS'scientific computing'
p127
aS'computer science economics'
p128
aS'medicine'
p129
aS'electronics'
p130
aS'statistics communications'
p131
aS'ece'
p132
aS'data science business analytics'
p133
aS'telecommunication'
p134
aS'applied math'
p135
aS'master information data science'
p136
aS'business analytics'
p137
aS'industrial engineering statistics'
p138
aS'entrepreneurship'
p139
aS'computer science artificial intelligence'
p140
aS'genetics genomics'
p141
aS'english'
p142
aS'data analyst'
p143
aS'marketing strategy'
p144
aS'applied statistics'
p145
aS'marketing management'
p146
aS'management'
p147
aS'health services'
p148
aS'analytics data sciences'
p149
aS'marketing finance'
p150
aS'computer application'
p151
aS'phd'
p152
aS'advanced analytics'
p153
aS'ee cs'
p154
aS'it strategy'
p155
aS'operations management'
p156
aS'coursera'
p157
aS'quantitative methods'
p158
aS'biostatistics epidemiology'
p159
aS'human resources management'
p160
aS'systems/industrial engineering'
p161
aS'data mining predictive analysis'
p162
aS'machine learning business analytics'
p163
aS'economics computation'
p164
aS'computer information sciences'
p165
aS'business management'
p166
aS'business intelligence analytics'
p167
aS'physics mathematics'
p168
aS'mathematics finance'
p169
aS'computational mathematical engineering'
p170
aS'electrical engineering physics'
p171
aS'applied mathematics statistics'
p172
aS'biological sciences'
p173
aS'statistics information tech'
p174
aS'natural language processing'
p175
aS'economics math'
p176
aS'earth sciences'
p177
aS'information system'
p178
aS'biomedical informatics'
p179
aS'electrical computer engineering'
p180
aS'software engineering'
p181
aS'agronomy crop science'
p182
aS'financial engineering'
p183
aS'mechanical'
p184
aS'analytics data science'
p185
aS'aerospace engineering'
p186
aS'health services research'
p187
aS'epidemiology biostatistics'
p188
aS'computational science engineering'
p189
aVapplied statistic
p190
aS'economics public policy'
p191
aS'computer science statistics'
p192
aS'machine learning artificial intelligence'
p193
aS'information data science'
p194
aS'geography'
p195
aS'big data'
p196
aS'machine learning data science'
p197
aS'general management'
p198
aS'data mining machine learning'
p199
aS'graph theory'
p200
aS'public health'
p201
aS'business intelligence data analytics'
p202
aS'mathematics statistics'
p203
aS'economics management'
p204
aS'bio-statistics'
p205
aS'organizational psychology'
p206
aS'computer engineering'
p207
aS'computational social science'
p208
aS'management information systems'
p209
aS'medical informatics'
p210
aS'marketing research'
p211
aS'industrial engineering operations research'
p212
aS'economic development'
p213
aS'analytics'
p214
aS'informatics data science computer science'
p215
aS'development practice'
p216
aS'quantitative finance'
p217
aS'corporate finance'
p218
aS'statistics computer science'
p219
aS'statistical computing'
p220
aS'physics economics'
p221
aS'information management'
p222
aS'big data analytics'
p223
aS'marketing intelligence'
p224
aS'distributed systems'
p225
aS'computational physics'
p226
aS'applied physics'
p227
aS'computer science operations research'
p228
aS'electrical engineering computer science'
p229
aS'hydrology'
p230
aS'school computer science'
p231
aS'computer science data mining'
p232
aS'communications business'
p233
aS'computer science machine learning'
p234
aS'data science'
p235
aS'data informatics'
p236
aS'reinforcement learning'
p237
aS'data mining'
p238
aS'information science'
p239
aS'space physics'
p240
aS'mechanical engineering'
p241
aS'applied econometrics'
p242
aS'engineering physics'
p243
aS'operations research'
p244
aS'international business'
p245
aS'business analysis'
p246
aS'molecular biology'
p247
aS'machine learning statistics'
p248
aS'neuroscience computer science'
p249
aS'computer science data science'
p250
aS'finance/economics'
p251
aS'computational genetics'
p252
aS'operations supply chain'
p253
aS'mathematics computer science'
p254
aS'mathematical sciences'
p255
aS'human resource management'
p256
aS'computational engineering'
p257
aS'management science'
p258
aS'pharmaceutical science'
p259
aS'statistical genetics'
p260
aS'statistics economics'
p261
aS'urban planning'
p262
aS'web development'
p263
aS'automation'
p264
aS'artificial intelligence machine learning'
p265
aS'operations strategy'
p266
aS'information systems'
p267
aS'applied science technology'
p268
aS'economics finance'
p269
aS'management marketing'
p270
aS'informatics data mining'
p271
aS'physics computer science'
p272
aS'banking finance'
p273
aS'machine learning applied statistics'
p274
aS'chemistry'
p275
aS'environmental engineering'
p276
aS'experimental psychology'
p277
aS'biostatistics'
p278
aS'statistical science'
p279
aS'computer science engineering'
p280
aS'finance economics'
p281
aS'spatial analytics'
p282
aS'computational biolog'
p283
aS'computer science operation research'
p284
aS'management science engineering'
p285
aS'decision sciences'
p286
aS'mathematical engineering'
p287
aS'pharmacy'
p288
aS'business leadership'
p289
aS'computational science'
p290
aS'computer science applied math'
p291
aS'robotics'
p292
aS'probability statistics'
p293
aS'journalism'
p294
aS'machine learning engineer'
p295
aS'agricultural engineering'
p296
aS'music technology'
p297
aS'survey sampling'
p298
aS'information retrieval'
p299
aS'statistic'
p300
aS'public policy'
p301
aS'econometrics'
p302
aS'applied mathematics computer science'
p303
aS'accounting finance'
p304
aS'sociology'
p305
aS'genetics'
p306
aS'industrial engineering management science'
p307
aS'behavioral psychology'
p308
aS'industrial engineering'
p309
aS'mathematical statistics'
p310
aS'environmental health sciences'
p311
aS'biology'
p312
aS'operation research industrial engineering'
p313
aS'business'
p314
aS'marketing'
p315
aS'medical imaging'
p316
aS'epidemiology'
p317
aVmath course
p318
aS'informatics'
p319
aS'biomedical engineering'
p320
aS'economics political science'
p321
aS'analytics / data science'
p322
aS'marketing analytics'
p323
aS'software systems'
p324
aS'computer information systems'
p325
aS'quantitative marketing'
p326
aS'geosciences'
p327
aS'mathematics economics'
p328
aS'communication'
p329
aS'mba'
p330
aS'statistical practice'
p331
aS'transportation engineering'
p332
aS'imaging science'
p333
aS'finance accounting'
p334
aS'health economics outcomes research'
p335
aS'astrophysics'
p336
aS'artificial intelligence'
p337
aS'data science engineering'
p338
aS'systems engineering'
p339
aS'chemical engineering'
p340
aS'computer security'
p341
aS'ee computer science'
p342
aS'life sciences'
p343
aS'library science'
p344
aS'applied math computer science'
p345
aS'electrical engineering'
p346
aS'computer science/artificial intelligence'
p347
aS'computing'
p348
aS'bioinformatics computational biology'
p349
aS'general'
p350
aS'engineering'
p351
aS'information systems technology'
p352
aS'accounting'
p353
aS'business economics'
p354
aS'computer science mathematics'
p355
aS'economic research'
p356
aS'information system management'
p357
aS'biochemistry'
p358
aS'computational chemistry'
p359
aS'telecommunication networking'
p360
aS'electrical'
p361
aS'computer science'
p362
aS'mathematics'
p363
aS'criminology'
p364
aS'technology management'
p365
aS'computer science systems'
p366
aS'neuroscience'
p367
aS'astronomy'
p368
aS'material science engineering'
p369
aS'high performance computing'
p370
aS'finance mathematics'
p371
aS'computer engineering computer science'
p372
aS'data mining / machine learning'
p373
aS'biotechnology'
p374
aa(lp375
S'differential equations'
p376
aS'edc'
p377
aS'qualitative research'
p378
aS'energy efficiency'
p379
aS'chinese'
p380
aS'apache storm'
p381
aS'hedge funds'
p382
aS'redis'
p383
aS'chaid'
p384
aS'sentiment analysis'
p385
aS'ggplot2'
p386
aS'dsp'
p387
aS'system design'
p388
aS'go'
p389
aS'user experience design'
p390
aS'equity research'
p391
aS'microsoft sql server'
p392
aS'content management'
p393
aS'technical leadership'
p394
aS'game design'
p395
aS'spanish'
p396
aS'cognitive neuroscience'
p397
aS'flask'
p398
aS'digital imaging'
p399
aS'fuzzy logic'
p400
aS'scientific visualization'
p401
aS'behavioral targeting'
p402
aS'matlab'
p403
aS'agile methodologies'
p404
aS'master data management'
p405
aS'drug discovery'
p406
aS'junit'
p407
aS'data entry'
p408
aS'materials science'
p409
aS'computational mathematics'
p410
aS'semiconductor industry'
p411
aS'sap bi'
p412
aS'cloudera impala'
p413
aS'automotive'
p414
aS'etl tools'
p415
aS'health informatics'
p416
aS'computer hardware'
p417
aS'decision trees'
p418
aS'facebook'
p419
aS'nanomaterials'
p420
aS'embedded c'
p421
aS'erp'
p422
aS'infectious diseases'
p423
aS'voip'
p424
aS'event management'
p425
aS'grid computing'
p426
aS'employee engagement'
p427
aS'risk assessment'
p428
aS'solver'
p429
aS'lisp'
p430
aS'mercurial'
p431
aS'risk modeling'
p432
aS'mapreduce'
p433
aS'hive'
p434
aS'engineering management'
p435
aS'civil engineering'
p436
aS'olap'
p437
aS'.net framework'
p438
aS'financial services'
p439
aS'asp'
p440
aS'real estate'
p441
aS'design experiments'
p442
aS'research development r d'
p443
aS'functional programming'
p444
aS'predictive analytics'
p445
aS'logistics'
p446
aS'reporting analysis'
p447
aS'air force'
p448
aS'pmp'
p449
aS'unsupervised learning'
p450
aS'global health'
p451
aS'network science'
p452
aS'computational neuroscience'
p453
aS'teradata'
p454
aS'performance improvement'
p455
aS'business insights'
p456
aS'meta-analysis'
p457
aS'process improvement'
p458
aS'data-driven decision making'
p459
aS'information design'
p460
aS'it management'
p461
aS'batch processing'
p462
aS'pmo'
p463
aS'literature reviews'
p464
aVpanda
p465
aS'vmware'
p466
aS'bootstrap'
p467
aS'solution selling'
p468
aS'evolutionary biology'
p469
aS'statistical consulting'
p470
aS'network optimization'
p471
aS'datastage'
p472
aS'clinical development'
p473
aS'microbiology'
p474
aS'time management'
p475
aS'access'
p476
aS'cancer research'
p477
aS'ssis'
p478
aS'large-scale data analysis'
p479
aS'esri'
p480
aS'mac os'
p481
aS'professional services'
p482
aS'awk'
p483
aS'go-to-market strategy'
p484
aS'segmentation'
p485
aS'team leadership'
p486
aS'transportation'
p487
aS'environmental science'
p488
aS'stochastic processes'
p489
aS'random forests'
p490
aS'matplotlib'
p491
aS'customer analysis'
p492
aS'water'
p493
aS'crystal reports'
p494
aS'21 cfr part 11'
p495
aS'statistical modeling'
p496
aS'ubuntu'
p497
aS'apache'
p498
aS'openmp'
p499
aS'science communication'
p500
aS'b2b'
p501
aS'information technology'
p502
aS'business process management'
p503
aS'software development'
p504
aS'medical imaging'
p505
aS'search'
p506
aS'glm'
p507
aS'final cut pro'
p508
aS'data cleaning'
p509
aS'root'
p510
aS'consumer insights'
p511
aS'economics'
p512
aS'test automation'
p513
aS'multivariate statistics'
p514
aS'credit'
p515
aS'rdf'
p516
aS'product launch'
p517
aS'advertising'
p518
aS'windows azure'
p519
aS'military'
p520
aS'microsoft access'
p521
aS'personalized medicine'
p522
aS'sas enterprise miner'
p523
aS'qualtrics'
p524
aS'computer architecture'
p525
aS'classification'
p526
aS'cdma'
p527
aS'probabilistic models'
p528
aS'clinical study design'
p529
aS'adobe creative suite'
p530
aS'healthcare analytics'
p531
aS'test driven development'
p532
aS'graphic design'
p533
aS'unix'
p534
aS'healthcare information technology'
p535
aS'account management'
p536
aS'mobile advertising'
p537
aS'web scraping'
p538
aS'outsourcing'
p539
aS'experimentation'
p540
aS'social media'
p541
aS'web analytics'
p542
aS'open source'
p543
aS'army'
p544
aS'j2ee'
p545
aS'microeconomics'
p546
aS'petroleum'
p547
aS'devops'
p548
aS'governance'
p549
aS'perl'
p550
aS'crowdsourcing'
p551
aS'risk management'
p552
aS'campaign management'
p553
aS'visio'
p554
aS'erwin'
p555
aS'gsm'
p556
aS'data management'
p557
aS'quality assurance'
p558
aS'structural equation modeling'
p559
aS'performance management'
p560
aS'web design'
p561
aS'conjoint analysis'
p562
aS'lean manufacturing'
p563
aS'jmp'
p564
aS'hl7'
p565
aS'cplex'
p566
aS'business process'
p567
aS'process automation'
p568
aS'investment strategies'
p569
aS'computational linguistics'
p570
aS'data processing'
p571
aS'teaching'
p572
aS'html 5'
p573
aS'project management'
p574
aS'grant writing'
p575
aS'database administration'
p576
aS'scientific analysis'
p577
aS'genetic algorithms'
p578
aS'word'
p579
aS'science'
p580
aS'applied mathematics'
p581
aS'eclipse'
p582
aS'web content'
p583
aS'machine learning'
p584
aS'psychometrics'
p585
aS'drupal'
p586
aS'hidden markov models'
p587
aS'mobile applications'
p588
aS'customer acquisition'
p589
aS'visual basic'
p590
aS'ms office suite'
p591
aS'cluster analysis'
p592
aS'scripting'
p593
aS'cad'
p594
aS'speech recognition'
p595
aS'parallel computing'
p596
aS'educational technology'
p597
aS'portfolio management'
p598
aS'semantic web'
p599
aS'cognitive science'
p600
aS'financial risk management'
p601
aS'revenue analysis'
p602
aS'display advertising'
p603
aS'portfolio optimization'
p604
aS'simulation'
p605
aS'random forest'
p606
aS'business modeling'
p607
aS'simulink'
p608
aS'sip'
p609
aS'cryptography'
p610
aS'contract negotiation'
p611
aS'power bi'
p612
aS'sharepoint'
p613
aS'sas enterprise guide'
p614
aS'tableau'
p615
aS'application architecture'
p616
aS'market research'
p617
aS'gcp'
p618
aS'computer vision'
p619
aS'business planning'
p620
aS'ehr'
p621
aS'text classification'
p622
aS'product innovation'
p623
aS'amazon s3'
p624
aS'hypothesis testing'
p625
aS'unstructured data'
p626
aS'vhdl'
p627
aS'bioconductor'
p628
aS'object recognition'
p629
aS'computational biology'
p630
aS'algebra'
p631
aS'philosophy'
p632
aS'leadership development'
p633
aS'multivariate testing'
p634
aS'entrepreneurship'
p635
aS'sustainability'
p636
aS'theano'
p637
aS'political science'
p638
aS'data wrangling'
p639
aS'arduino'
p640
aS'bootstrapping'
p641
aS'extract transform load etl'
p642
aS'mpi'
p643
aS'data'
p644
aS'metrology'
p645
aS'technical training'
p646
aS'github'
p647
aS'sparql'
p648
aS'commodity'
p649
aS'remote sensing'
p650
aS'object oriented design'
p651
aS'market making'
p652
aS'documentation'
p653
aS'django'
p654
aS'google analytics'
p655
aS'causal inference'
p656
aS'sharepoint designer'
p657
aS'fortran'
p658
aS'healthcare'
p659
aS'tutoring'
p660
aS'nltk'
p661
aS'visual c'
p662
aS'jira'
p663
aS'photoshop'
p664
aS'oncology'
p665
aS'b2b marketing'
p666
aS'health economics'
p667
aS'r d'
p668
aS'sql server reporting services ssrs'
p669
aS'crystal ball'
p670
aS'intellectual property'
p671
aS'data warehouse architecture'
p672
aS'data acquisition'
p673
aS'strategic leadership'
p674
aS'radar'
p675
aS'quality control'
p676
aS'marketing research'
p677
aS'hbase'
p678
aS'multi-channel marketing'
p679
aS'fundraising'
p680
aS'rnaseq'
p681
aS'linguistics'
p682
aS'db2'
p683
aS'capital markets'
p684
aS'google docs'
p685
aS'anomaly detection'
p686
aS'pcr'
p687
aS'process engineering'
p688
aS'bloomberg terminal'
p689
aS'r programming'
p690
aS'monte carlo simulation'
p691
aS'writing'
p692
aS'supply chain management'
p693
aS'digital media'
p694
aS'coaching'
p695
aS'spring framework'
p696
aS'statistical software'
p697
aS'wordpress'
p698
aS'microstrategy'
p699
aS'reverse engineering'
p700
aS'policy'
p701
aS'linux system administration'
p702
aS'pca'
p703
aS'soa'
p704
aS'operational planning'
p705
aS'finance'
p706
aS'numerical analysis'
p707
aS'customer relationship management crm'
p708
aS'python'
p709
aS'semantic analysis'
p710
aS'private equity'
p711
aS'postgis'
p712
aS'survey design'
p713
aS'scipy'
p714
aS'algorithm development'
p715
aS'technical documentation'
p716
aS'business development'
p717
aS'business transformation'
p718
aS'analytical skills'
p719
aS'cloudera'
p720
aVbayesian method
p721
aS'outcomes research'
p722
aS'spatial analysis'
p723
aS'innovation management'
p724
aS'svm'
p725
aS'database management'
p726
aS'communication skills'
p727
aS'user acceptance testing'
p728
aS'pharmaceutical industry'
p729
aS'program evaluation'
p730
aS'haskell'
p731
aS'association rules'
p732
aS'root cause analysis'
p733
aS'logistic regression'
p734
aS'drug development'
p735
aS'soc'
p736
aS'crm'
p737
aS'data analytics'
p738
aS'sap bw'
p739
aS'cartography'
p740
aS'knowledge management'
p741
aS'energy'
p742
aS'decision support'
p743
aS'computational chemistry'
p744
aS'information extraction'
p745
aS'sas base'
p746
aS'enterprise software'
p747
aS'trading'
p748
aS'ec2'
p749
aS'personalization'
p750
aS'relational databases'
p751
aS'firmware'
p752
aS'direct marketing'
p753
aS'insurance'
p754
aS'collaborative problem solving'
p755
aS'requirements management'
p756
aS'psychology'
p757
aS'jdbc'
p758
aS'image processing'
p759
aS'cascading style sheets css'
p760
aS'questionnaire design'
p761
aS'web 2.0'
p762
aS'scientific computing'
p763
aS'research design'
p764
aS'research'
p765
aS'mahout'
p766
aS'sap netweaver'
p767
aS'vendor management'
p768
aS'survey methodology'
p769
aS'database marketing'
p770
aS'sdlc'
p771
aS'business requirements'
p772
aS'medicine'
p773
aS'electronics'
p774
aS'it service management'
p775
aS'netbeans'
p776
aS'statistical tools'
p777
aS'quickbooks'
p778
aS'molecular modeling'
p779
aS'factor analysis'
p780
aS'hibernate'
p781
aS'embedded software'
p782
aS'theory'
p783
aS'transportation engineering'
p784
aS'client presentation'
p785
aS'cissp'
p786
aS'data scientist'
p787
aS'cart'
p788
aS'data quality'
p789
aS'business analytics'
p790
aS'ajax'
p791
aS'investment banking'
p792
aS'algorithm design'
p793
aS'foreign policy'
p794
aS'networking'
p795
aS'mathematical analysis'
p796
aS'photography'
p797
aS'customer relations'
p798
aS'bash'
p799
aS'training'
p800
aS'knime'
p801
aS'open source software'
p802
aS'partial differential equations'
p803
aS'basel ii'
p804
aS'metabolomics'
p805
aS'sustainable development'
p806
aS'programming'
p807
aS'mobile devices'
p808
aS'business objects'
p809
aS'traffic engineering'
p810
aS'mvc'
p811
aS'elasticsearch'
p812
aS'3d visualization'
p813
aS'lte'
p814
aS'data security'
p815
aS'requirements analysis'
p816
aS'retail'
p817
aS'rapid prototyping'
p818
aS'microsoft azure'
p819
aS'scalding'
p820
aS'customer insight'
p821
aS'probability'
p822
aS'indesign'
p823
aS'proteomics'
p824
aS'bioinformatics'
p825
aS'microscopy'
p826
aS'proofreading'
p827
aS'ecology'
p828
aS'marketing strategy'
p829
aS'computer forensics'
p830
aS'mathematical modeling'
p831
aS'neo4j'
p832
aS'financial reporting'
p833
aS'marketing management'
p834
aS'dimensionality reduction'
p835
aS'clinical data management'
p836
aS'management'
p837
aS'weka'
p838
aS'hedging'
p839
aS'community development'
p840
aS'project portfolio management'
p841
aS'artificial neural networks'
p842
aS'recruiting'
p843
aS'trading systems'
p844
aS'enterprise architecture'
p845
aS'abap'
p846
aS'gurobi'
p847
aS'climate change'
p848
aS'advanced analytics'
p849
aS'gpu'
p850
aS'scheme'
p851
aS'dimensional modeling'
p852
aS'operating systems'
p853
aS'software documentation'
p854
aS'text mining'
p855
aS'shiny'
p856
aS'content strategy'
p857
aS'mathematical programming'
p858
aS'apache spark'
p859
aS'actuarial science'
p860
aS'strategic thinking'
p861
aS'healthcare consulting'
p862
aS'mongodb'
p863
aS'instructional design'
p864
aS'xquery'
p865
aS'property casualty insurance'
p866
aS'translation'
p867
aS'semantics'
p868
aS'jquery'
p869
aS'business intelligence tools'
p870
aS'data collection'
p871
aS'performance metrics'
p872
aS'quantitative analytics'
p873
aS'linear algebra'
p874
aS'solution architecture'
p875
aS'lucene'
p876
aS'data engineering'
p877
aS'organizational leadership'
p878
aS'r'
aS'discrete mathematics'
p879
aS'kalman filtering'
p880
aS'fixed income'
p881
aS'impala'
p882
aS'game theory'
p883
aS'it strategy'
p884
aS'supply chain optimization'
p885
aS'debugging'
p886
aS'information theory'
p887
aS'management consulting'
p888
aS'competitive analysis'
p889
aS'ant'
p890
aS'business intelligence'
p891
aS'graphical models'
p892
aS'physical chemistry'
p893
aS'angularjs'
p894
aS'sas'
p895
aS'market basket analysis'
p896
aS'sap'
p897
aS'amazon web services'
p898
aS'cassandra'
p899
aS'instrumentation'
p900
aS'e-commerce'
p901
aS'user experience'
p902
aS'counterterrorism'
p903
aS'data governance'
p904
aS'predictive modeling'
p905
aS'microcontrollers'
p906
aS'marketing automation'
p907
aS'project coordination'
p908
aS'dna sequencing'
p909
aS'natural language processing'
p910
aS'ms project'
p911
aS'test planning'
p912
aS'financial analysis'
p913
aS'failure analysis'
p914
aS'soap'
p915
aS'erdas imagine'
p916
aS'calculus'
p917
aS'competitive intelligence'
p918
aS'hdfs'
p919
aS'collaboration'
p920
aS'aws'
p921
aS'arena'
p922
aS'bigquery'
p923
aS'scientific writing'
p924
aS'financial risk'
p925
aS'pentaho'
p926
aS'biomedical informatics'
p927
aS'oozie'
p928
aS'technical writing'
p929
aS'discrete event simulation'
p930
aS'public speaking'
p931
aS'customer segmentation strategy'
p932
aS'latex'
p933
aS'obiee'
p934
aS'design patterns'
p935
aS'system testing'
p936
aS'software engineering'
p937
aS'sql server'
p938
aS'demand forecasting'
p939
aS'people skills'
p940
aS'microsoft word'
p941
aS'convex optimization'
p942
aS'excel vba'
p943
aS'dod'
p944
aS'linear regression'
p945
aS'os x'
p946
aS'knowledge representation'
p947
aS'financial engineering'
p948
aS'investment management'
p949
aS'sd'
p950
aS'pre-sales'
p951
aS'vulnerability assessment'
p952
aS'oracle database'
p953
aS'nlp'
p954
aS'supply chain'
p955
aS'unix shell scripting'
p956
aS'survival analysis'
p957
aS'german'
p958
aS'asic'
p959
aS'nonlinear optimization'
p960
aS'lean startup'
p961
aS'adult education'
p962
aS'operations management'
p963
aS'strategic planning'
p964
aS'node.js'
p965
aS'spring mvc'
p966
aS'visual studio'
p967
aS'vertica'
p968
aS'email marketing'
p969
aS'network security'
p970
aS'creative problem solving'
p971
aS'biometrics'
p972
aS'd3'
p973
aS'geography'
p974
aS'xml'
p975
aS'cell'
p976
aS'technical communication'
p977
aS'sql db2'
p978
aS'graph databases'
p979
aS'biostatistics'
p980
aS'big data'
p981
aS'lua'
p982
aS'critical thinking'
p983
aS'asset management'
p984
aS'web marketing'
p985
aS'microarray'
p986
aS'envi'
p987
aS'corporate development'
p988
aS'geospatial intelligence'
p989
aS'performance testing'
p990
aS'disease management'
p991
aS'risk analytics'
p992
aS'android development'
p993
aS'population genetics'
p994
aS'policy analysis'
p995
aS'apache kafka'
p996
aS'software development life cycle sdlc'
p997
aS'graph theory'
p998
aS'data modeling'
p999
aS'copywriting'
p1000
aS'recommender systems'
p1001
aS'job analysis'
p1002
aS'public health'
p1003
aS'biophysics'
p1004
aS'risk analysis'
p1005
aS'mandarin'
p1006
aS'talent management'
p1007
aS'dynamic programming'
p1008
aS'oracle sql developer'
p1009
aS'tcp'
p1010
aS'powerpivot'
p1011
aS'systems biology'
p1012
aS'itil'
p1013
aS'credit risk'
p1014
aS'xslt'
p1015
aS'blogging'
p1016
aS'flume'
p1017
aS'collaborative filtering'
p1018
aS'digital strategy'
p1019
aS'amazon ec2'
p1020
aS'mac os x'
p1021
aS'geospatial modeling'
p1022
aS'c++'
p1023
aS'banking'
p1024
aS'sequence analysis'
p1025
aS'credit analysis'
p1026
aS'architecture'
p1027
aS'emr'
p1028
aS'api development'
p1029
aS'high availability'
p1030
aS'cro'
p1031
aS'information architecture'
p1032
aS'quality improvement'
p1033
aS'cognos'
p1034
aS'active directory'
p1035
aS'intelligence'
p1036
aS'testing'
p1037
aS'economic development'
p1038
aS'presentation skills'
p1039
aS'eviews'
p1040
aS'analytics'
p1041
aS'proposal writing'
p1042
aS'defense'
p1043
aS'rf'
p1044
aS'system administration'
p1045
aS'biomarker discovery'
p1046
aS'seo'
p1047
aS'distributed computing'
p1048
aS'sem'
p1049
aS'integrated marketing'
p1050
aS'arm'
p1051
aS'php'
p1052
aS'direct mail'
p1053
aS'data architecture'
p1054
aS'quantitative finance'
p1055
aS'corporate finance'
p1056
aS'programming languages'
p1057
aS'statistical computing'
p1058
aS'machine vision'
p1059
aS'information management'
p1060
aS'big data analytics'
p1061
aS'social network analysis'
p1062
aS'economic modeling'
p1063
aS'new business development'
p1064
aS'verilog'
p1065
aS'stata'
p1066
aS'combinatorial optimization'
p1067
aS'computational physics'
p1068
aS'fluorescence'
p1069
aS'amazon web services aws'
p1070
aS'oracle pl'
p1071
aS'electronic trading'
p1072
aS'keynote'
p1073
aS'field work'
p1074
aS'database design'
p1075
aS'customer service'
p1076
aS'javascript'
p1077
aS'alteryx'
p1078
aS'scalability'
p1079
aS'molecular genetics'
p1080
aS'data structures'
p1081
aS'mentoring'
p1082
aS'minitab'
p1083
aS'control theory'
p1084
aS'modeling'
p1085
aS'spark'
p1086
aS'solr'
p1087
aS'decision analysis'
p1088
aS'c'
aS'inventory management'
p1089
aS'hydrology'
p1090
aS'data visualization'
p1091
aS'software service saas'
p1092
aS'quantitative research'
p1093
aS'microsoft powerpoint'
p1094
aS'budgeting'
p1095
aS'security clearance'
p1096
aS'technical analysis'
p1097
aS'customer analytics'
p1098
aS'press releases'
p1099
aS'customer support'
p1100
aS'core java'
p1101
aS'internet things'
p1102
aS'probability theory'
p1103
aVbayesian statistic
p1104
aS'environmental engineering'
p1105
aS'etl'
p1106
aS'html5'
p1107
aS'negotiation'
p1108
aS'gps'
p1109
aS'forecasting'
p1110
aS'octave'
p1111
aS'shell scripting'
p1112
aS'characterization'
p1113
aS'attribution modeling'
p1114
aS'product marketing'
p1115
aS'data science'
p1116
aS'robotics'
p1117
aS'reinforcement learning'
p1118
aS'thought leadership'
p1119
aS'data warehousing'
p1120
aS'anova'
p1121
aS'linux'
p1122
aS'simulation modeling'
p1123
aS'fourier analysis'
p1124
aS'team management'
p1125
aS'e-learning'
p1126
aS'information visualization'
p1127
aS'qlikview'
p1128
aS'pricing optimization'
p1129
aS'java'
p1130
aS'publishing'
p1131
aS'mechanical engineering'
p1132
aS'opencv'
p1133
aS'deep learning'
p1134
aS'user interface'
p1135
aS'strategy'
p1136
aS'asp.net mvc'
p1137
aS'commodity markets'
p1138
aS'json'
p1139
aS'secondary research'
p1140
aS'teamwork'
p1141
aS'mixed model'
p1142
aS'dreamweaver'
p1143
aS'event planning'
p1144
aS'tensorflow'
p1145
aS'numpy'
p1146
aS'statistical learning'
p1147
aS'operations research'
p1148
aS'analysis services'
p1149
aS'dashboarding'
p1150
aS'customer satisfaction'
p1151
aS'statistical data analysis'
p1152
aS'sqoop'
p1153
aS'visual analytics'
p1154
aS'business analysis'
p1155
aS'molecular biology'
p1156
aS'marketing communications'
p1157
aS'credit cards'
p1158
aS'healthcare industry'
p1159
aS'spotfire'
p1160
aS'vba'
p1161
aS'written oral presentation skills'
p1162
aS'sales operations'
p1163
aS'apache pig'
p1164
aS'strategic partnerships'
p1165
aS'aviation'
p1166
aS'ruby'
p1167
aS'survey research'
p1168
aS'hardware diagnostics'
p1169
aS'software quality assurance'
p1170
aVbayesian network
p1171
aS'econometric modeling'
p1172
aS'non-profits'
p1173
aS'hedis'
p1174
aS'consumer behaviour'
p1175
aS'lean six sigma'
p1176
aS'sap erp'
p1177
aS'program development'
p1178
aS'health insurance'
p1179
aS'strategic communications'
p1180
aS'optimization algorithms'
p1181
aS'statistical arbitrage'
p1182
aS'decision modeling'
p1183
aS'optimization'
p1184
aS'dashboard'
p1185
aS'editorial'
p1186
aS'vb.net'
p1187
aS'product management'
p1188
aS'advertising research'
p1189
aS'application development'
p1190
aS'trend analysis'
p1191
aS'scientific programming'
p1192
aS'r studio'
p1193
aS'ip'
p1194
aS'project planning'
p1195
aS'avro'
p1196
aS'hardware'
p1197
aS'cluster'
p1198
aS'microsoft crm'
p1199
aS'ansible'
p1200
aS'operational excellence'
p1201
aS'statistical analysis'
p1202
aS'adobe photoshop'
p1203
aS'politics'
p1204
aS'ic'
p1205
aS'sas programming'
p1206
aS'regression'
p1207
aS'integer programming'
p1208
aS'sql database design'
p1209
aS'nanofabrication'
p1210
aS'clinical trials'
p1211
aS'program management'
p1212
aS'servlets'
p1213
aS'hadoop'
p1214
aS'quantitative investing'
p1215
aS'lamp'
p1216
aS'urban planning'
p1217
aS'html'
p1218
aS'fraud detection'
p1219
aS'online advertising'
p1220
aS'google cloud platform'
p1221
aS'weblogic'
p1222
aS'web mining'
p1223
aS'android'
p1224
aS'web development'
p1225
aS'semiconductor device'
p1226
aS'human computer interaction'
p1227
aS'six sigma'
p1228
aS'quality management'
p1229
aS'automation'
p1230
aS'assembly language'
p1231
aS'medicaid'
p1232
aS'bloomberg'
p1233
aS't-sql'
p1234
aS'bayesian inference'
p1235
aS'hipaa'
p1236
aS'statistical programming'
p1237
aS'model selection'
p1238
aS'process development'
p1239
aS'business process re-engineering'
p1240
aS'pattern recognition'
p1241
aS'in vitro'
p1242
aS'ampl'
p1243
aS'presto'
p1244
aS'start-ups'
p1245
aS'eye tracking'
p1246
aS'market data'
p1247
aS'image analysis'
p1248
aS'analysis'
p1249
aS'google adwords'
p1250
aS'data center'
p1251
aS'procurement'
p1252
aS'system architecture'
p1253
aS'command'
p1254
aS'data integration'
p1255
aS'business process design'
p1256
aS'english'
p1257
aS'netezza'
p1258
aS'organization'
p1259
aS'docker'
p1260
aS'chemistry'
p1261
aS'video editing'
p1262
aS'sap hana'
p1263
aS'digital marketing'
p1264
aS'aerospace engineering'
p1265
aS'web applications'
p1266
aS'solaris'
p1267
aS'mobile marketing'
p1268
aS'nosql'
p1269
aS'model validation'
p1270
aS'excel'
p1271
aS'proprietary trading'
p1272
aS'rest'
p1273
aS'trading strategies'
p1274
aS'spss modeler'
p1275
aS'tcl'
p1276
aS'product strategy'
p1277
aS'mysql'
p1278
aS'digital analytics'
p1279
aS'distributed systems'
p1280
aS'change management'
p1281
aS'visualization'
p1282
aS'microsoft project'
p1283
aS'french'
p1284
aS'autocad'
p1285
aS'cancer'
p1286
aS'complex systems'
p1287
aS'time series analysis'
p1288
aS'agile'
p1289
aS'bayesian statistics'
p1290
aS'outlook'
p1291
aS'd3.js'
p1292
aS'subversion'
p1293
aS'omniture'
p1294
aS'evolutionary computation'
p1295
aS'oracle sql'
p1296
aS'prezi'
p1297
aS'principal component analysis'
p1298
aS'gmp'
p1299
aS'penetration testing'
p1300
aS'microsoft excel'
p1301
aS'css3'
p1302
aS'signal processing'
p1303
aS'oop'
p1304
aS'government'
p1305
aS'design thinking'
p1306
aS'windows server'
p1307
aS'wcf'
p1308
aS'user research'
p1309
aS'regression models'
p1310
aS'experimental design'
p1311
aS'salesforce.com'
p1312
aS'product design'
p1313
aS'military experience'
p1314
aS'julia'
p1315
aS'aerospace'
p1316
aS'performance tuning'
p1317
aS'sequencing'
p1318
aS'distributed algorithms'
p1319
aS'nanotechnology'
p1320
aS'social networking'
p1321
aS'pharmacovigilance'
p1322
aS'customer experience'
p1323
aS'apache hive'
p1324
aS'swift'
p1325
aS'regular expressions'
p1326
aS'systems analysis'
p1327
aS'scikit-learn'
p1328
aS'systems design'
p1329
aS'earth science'
p1330
aS'online marketing'
p1331
aS'managed care'
p1332
aS'cognition'
p1333
aS'statistical inference'
p1334
aS'security'
p1335
aS'rstudio'
p1336
aS'market analysis'
p1337
aS'venture capital'
p1338
aS'.net'
p1339
aS'centos'
p1340
aS'text analytics'
p1341
aS'public relations'
p1342
aS'spring'
p1343
aS'data mining'
p1344
aS'regression testing'
p1345
aS'information retrieval'
p1346
aS'sql development'
p1347
aS'health policy'
p1348
aS'asp.net'
p1349
aS'geospatial data'
p1350
aS'pricing'
p1351
aS'usability testing'
p1352
aS'public policy'
p1353
aS'econometrics'
p1354
aS'teradata sql'
p1355
aS'structured finance'
p1356
aS'market risk'
p1357
aS'sociology'
p1358
aS'genetics'
p1359
aS'optimal control'
p1360
aS'scala'
p1361
aS'team building'
p1362
aS'data migration'
p1363
aS'lead generation'
p1364
aS'saas'
p1365
aS'integration'
p1366
aS'web crawling'
p1367
aS'mathematical statistics'
p1368
aS'technical recruiting'
p1369
aS'web services'
p1370
aS'innovation'
p1371
aS'information security'
p1372
aS'uml'
p1373
aS'monetization'
p1374
aS'greenplum'
p1375
aS'assay development'
p1376
aS'biology'
p1377
aS'data analysis'
p1378
aS'nmr'
p1379
aS'product development'
p1380
aS'process optimization'
p1381
aS'genomics'
p1382
aS'marketing'
p1383
aS'informatica'
p1384
aS'processing'
p1385
aS'performance measurement'
p1386
aS'maven'
p1387
aS'epidemiology'
p1388
aS'leadership'
p1389
aS'biomarkers'
p1390
aS'windows 7'
p1391
aS'informatics'
p1392
aS'dna'
p1393
aS'manufacturing'
p1394
aS'biomedical engineering'
p1395
aS'eeg'
p1396
aS'rdbms'
p1397
aS'rapidminer'
p1398
aS'b testing'
p1399
aS'postgresql'
p1400
aS'national security'
p1401
aS'gis analysis'
p1402
aS'staff development'
p1403
aS'marketing analytics'
p1404
aS'primary research'
p1405
aS'spss'
p1406
aS'arcgis'
p1407
aS'idl'
p1408
aS'medicare'
p1409
aS'cuda'
p1410
aS'executive management'
p1411
aS'cyber-security'
p1412
aS'jsp'
p1413
aS'international business'
p1414
aS'clojure'
p1415
aS'microsoft office'
p1416
aS'powerpoint'
p1417
aS'ppc'
p1418
aS'owl'
p1419
aS'consulting'
p1420
aS'neural networks'
p1421
aS'government contracting'
p1422
aS'communication'
p1423
aS'splunk'
p1424
aS'intelligence analysis'
p1425
aS'due diligence'
p1426
aS'mllib'
p1427
aS'user interface design'
p1428
aS'financial markets'
p1429
aS'statistical sampling'
p1430
aS'troubleshooting'
p1431
aS'problem solving'
p1432
aS'oracle e-business suite'
p1433
aS'online research'
p1434
aS'quantitative analysis'
p1435
aS'enterprise risk management'
p1436
aS'visual basic applications vba'
p1437
aS'lingo'
p1438
aS'clustering'
p1439
aS'pricing analysis'
p1440
aS'git'
p1441
aS'multivariate analysis'
p1442
aS'marketing mix modeling'
p1443
aS'opengl'
p1444
aS'vbscript'
p1445
aS'strategic consulting'
p1446
aS'continuous improvement'
p1447
aS'statistica'
p1448
aS'heroku'
p1449
aS'energy policy'
p1450
aS'emacs'
p1451
aS'data munging'
p1452
aS'renewable energy'
p1453
aS'astrophysics'
p1454
aS'music'
p1455
aS'pyspark'
p1456
aS'pivot tables'
p1457
aS'linear programming'
p1458
aS'artificial intelligence'
p1459
aS'systems engineering'
p1460
aS'feature extraction'
p1461
aS'business process improvement'
p1462
aS'apis'
p1463
aS'ruby rails'
p1464
aS'computer graphics'
p1465
aS'linq'
p1466
aS'website development'
p1467
aS'wireless'
p1468
aS'process modeling'
p1469
aS'construction'
p1470
aS'chemical engineering'
p1471
aS'computer security'
p1472
aS'pricing strategy'
p1473
aS'editing'
p1474
aS'valuation'
p1475
aS'fda'
p1476
aS'software design'
p1477
aS'life sciences'
p1478
aS'fraud'
p1479
aS'illustrator'
p1480
aS'parallel programming'
p1481
aS'community outreach'
p1482
aS'human factors'
p1483
aS'smart grid'
p1484
aS'agile project management'
p1485
aS'demand generation'
p1486
aS'credit scoring'
p1487
aS'amazon redshift'
p1488
aS'pl'
p1489
aS'spectroscopy'
p1490
aS'electrical engineering'
p1491
aS'clinical research'
p1492
aS'organizational effectiveness'
p1493
aS'powershell'
p1494
aS'pharmacology'
p1495
aS'virtualization'
p1496
aS'higher education'
p1497
aS'computational genomics'
p1498
aS'regression analysis'
p1499
aS'human resources'
p1500
aS'immunology'
p1501
aS'restful webservices'
p1502
aS'pig'
p1503
aS'report writing'
p1504
aS'engineering'
p1505
aS'ssrs'
p1506
aS'gephi'
p1507
aS'high performance computing'
p1508
aS'laboratory'
p1509
aS'accounting'
p1510
aS'education'
p1511
aS'digital signal processing'
p1512
aS'objective-c'
p1513
aS'economic research'
p1514
aS'biochemistry'
p1515
aS'mathematica'
p1516
aS'storage'
p1517
aS'h2o'
p1518
aS'agent-based modeling'
p1519
aS'social sciences'
p1520
aS'sybase'
p1521
aS'quantitative models'
p1522
aS'computer science'
p1523
aS'health services research'
p1524
aS'cheminformatics'
p1525
aS'database development'
p1526
aS'mathematics'
p1527
aS'product lifecycle management'
p1528
aS'mri'
p1529
aS'financial modeling'
p1530
aS'reliability engineering'
p1531
aS'toad'
p1532
aS'gas'
p1533
aS'cobol'
p1534
aS'scrum'
p1535
aS'customer retention'
p1536
aS'ggplot'
p1537
aS'interaction design'
p1538
aS'sql'
p1539
aS'neuroscience'
p1540
aS'astronomy'
p1541
aS'cell biology'
p1542
aS'emerging markets'
p1543
aS'disaster recovery'
p1544
aS'tomcat'
p1545
aS'groovy'
p1546
aS'cloud computing'
p1547
aS'wifi'
p1548
aS'business strategy'
p1549
aS'unit testing'
p1550
aS'organizational development'
p1551
aS'information assurance'
p1552
aS'jenkins'
p1553
aS'exploratory data analysis'
p1554
aS'stochastic modeling'
p1555
aS'oracle'
p1556
aS'biotechnology'
p1557
aS'validation'
p1558
aS'industrial engineering'
p1559
aS'industrial organization'
p1560
aa(lp1561
S'build dashboard'
p1562
aS'architect system'
p1563
aS'non-routine analysis problem'
p1564
aVinsight
p1565
aS'manage data'
p1566
aS'provide mentorship'
p1567
aS'validate model'
p1568
aS'cross-functionally'
p1569
aS'exploratory analysis'
p1570
aS'product leadership'
p1571
aS'drive key decision'
p1572
aVass improvement
p1573
aVproduct operation
p1574
aS'improvement'
p1575
aS'analytic'
p1576
aS'identify trend'
p1577
aS'presentation'
p1578
aS'transformation'
p1579
aS'financial model'
p1580
aS'prioritize lead'
p1581
aS'quantitative information'
p1582
aS'report'
p1583
aS'drive model'
p1584
aS'discover pattern'
p1585
aS'experiment analysis'
p1586
aS'manage decision'
p1587
aS'ad-hoc exploratory'
p1588
aS'formulate'
p1589
aS'design'
p1590
aS'recommendation'
p1591
aS'extract'
p1592
aS'automate analyse'
p1593
aS'mine data'
p1594
aS'explore opportunity'
p1595
aS'pattern'
p1596
aS'ensure accuracy'
p1597
aS'test model'
p1598
aS'automate report'
p1599
aS'evaluation'
p1600
aS'data analysis'
p1601
aS'build model'
p1602
aS'provide leadership'
p1603
aS'processing'
p1604
aS'communicate'
p1605
aS'create rule'
p1606
aS'statistical method'
p1607
aS'problem statement'
p1608
aS'interface'
p1609
aS'product decision'
p1610
aS'data gathering'
p1611
aS'support platform'
p1612
aS'simulation'
p1613
aS'product launch'
p1614
aS'design experiment'
p1615
aS'implement'
p1616
aS'engineering design'
p1617
aS'business recommendation'
p1618
aS'forecasting'
p1619
aVtest hypothesis
p1620
aS'identify opportunity'
p1621
aS'due diligence'
p1622
aS'data mining'
p1623
aS'quantitative analysis'
p1624
aS'develop model'
p1625
aS'construct'
p1626
aS'tactical initiative'
p1627
aS'complex data set'
p1628
aS'prototype'
p1629
aS'data sourcing'
p1630
aS'data infrastructure'
p1631
aS'business problem'
p1632
aS'cost-benefit'
p1633
aS'collect data'
p1634
aS'statistical model'
p1635
aS'understand'
p1636
aS'key decision'
p1637
aS'ensure data integrity'
p1638
aS'data collection'
p1639
aS'evaluate experiment'
p1640
aS'optimization'
p1641
aS'analytical method'
p1642
aS'go-to-market strategy'
p1643
aS'develop system'
p1644
aS'predict'
p1645
aVrequirement specification
p1646
aS'solve problem'
p1647
aS'modeling'
p1648
aS'information'
p1649
aS'define metric'
p1650
aS'visual display'
p1651
aS'ongoing deliverable'
p1652
aS'development'
p1653
aS'product'
p1654
aS'large data set'
p1655
aS'decision-making'
p1656
aS'mapping'
p1657
aS'ownership'
p1658
aS'data wrangling'
p1659
aS'normalization'
p1660
aS'documentation'
p1661
aS'analysis'
p1662
aS'model'
p1663
aS'build solution'
p1664
aS'data aggregation'
p1665
aa.