(lp1
(lp2
V(15, 20]
p3
aV(5, 10]
p4
aV(0, 2]
p5
aV(2, 5]
p6
aV(20, 30)
p7
aV[0]
p8
aV(10, 15]
p9
aa(lp10
VBachelor
p11
aVMaster
p12
aVDoctor
p13
aa(lp14
S'economics statistics'
p15
aS'master science'
p16
aS'economics mathematics'
p17
aS'computer science computational biology'
p18
aS'business analytics predictive analytics'
p19
aS'survey methodology'
p20
aS'behavioral economics'
p21
aS'cognitive neuroscience'
p22
aS'statistics actuarial science'
p23
aS'psychology computer science'
p24
aS'computer science machine learning artificial intelligence'
p25
aS'engineering science'
p26
aS'materials science'
p27
aS'health informatics'
p28
aS'operations research financial engineering'
p29
aS'statistics probability'
p30
aS'engineering management'
p31
aS'civil engineering'
p32
aS'science'
p33
aS'predictive analytics'
p34
aS'computational biology bioinformatics'
p35
aS'actuarial science'
p36
aS'data mining predictive analytics'
p37
aS'design'
p38
aS'strategic intelligence'
p39
aS'environmental health'
p40
aS'machine learning'
p41
aS'high technology'
p42
aS'computer science computer engineering'
p43
aS'microbiology'
p44
aS'applied mathematics economics'
p45
aS'digital communication'
p46
aS'transportation'
p47
aS'environmental science'
p48
aS'economics computer science'
p49
aS'anthropology'
p50
aS'marketing analysis'
p51
aS'berkeley'
p52
aS'information technology'
p53
aS'health sciences'
p54
aS'computational neuroscience'
p55
aS'economics'
p56
aS'business administration'
p57
aS'statistics analytics'
p58
aS'information engineering'
p59
aS'applied economics'
p60
aS'financial mathematics'
p61
aS'statistics operations research'
p62
aS'music'
p63
aS'intelligent systems'
p64
aS'finance marketing'
p65
aS'computational linguistics'
p66
aS'project management'
p67
aS'finance statistics'
p68
aS'data analytics business'
p69
aS'applied mathematics'
p70
aS'industrial/organizational psychology'
p71
aS'food science'
p72
aS'data science operations research'
p73
aS'bioengineering'
p74
aS'physical chemistry'
p75
aS'history'
p76
aS'mathematics statistics economics'
p77
aS'cognitive science'
p78
aS'information'
p79
aS'analytics analytics'
p80
aS'business communications'
p81
aS'information technology management'
p82
aS'mathematics biology'
p83
aS'computational biology'
p84
aS'philosophy'
p85
aS'biophysics'
p86
aS'chemistry biochemistry'
p87
aS'sustainability'
p88
aS'data management analysis'
p89
aS'political science'
p90
aS'bioinformatics'
p91
aS'computational mathematics'
p92
aS'law'
p93
aS'finance data analytics'
p94
aS'analytics predictive modeling'
p95
aVphysic
p96
aS'data science analytics'
p97
aS'strategy marketing'
p98
aS'statistics applied mathematics'
p99
aS'statistics data mining'
p100
aS'network security'
p101
aS'management technology'
p102
aS'computational finance'
p103
aS'linguistics'
p104
aS'supply chain management'
p105
aS'digital media'
p106
aS'computer science software engineering'
p107
aS'finance'
p108
aS'computer sciences'
p109
aS'machine learning big data'
p110
aS'mathematics economics statistics'
p111
aS'corporate innovation'
p112
aS"brigham women's hospital"
p113
aS'mathematical finance'
p114
aS'data analytics'
p115
aS'ee'
p116
aS'knowledge management'
p117
aS'public policy analysis'
p118
aS'machine learning data mining'
p119
aS'integrated marketing communication'
p120
aS'energy economics'
p121
aS'operations research industrial engineering'
p122
aS'quantitative economics'
p123
aS'mathematics physics'
p124
aS'psychology'
p125
aS'scientific computing'
p126
aS'computer science economics'
p127
aS'medicine'
p128
aS'electronics'
p129
aS'statistics communications'
p130
aS'ece'
p131
aS'data science business analytics'
p132
aS'telecommunication'
p133
aS'applied math'
p134
aS'master information data science'
p135
aS'business analytics'
p136
aS'industrial engineering statistics'
p137
aS'entrepreneurship'
p138
aS'computer science artificial intelligence'
p139
aS'genetics genomics'
p140
aS'english'
p141
aS'data analyst'
p142
aS'marketing strategy'
p143
aS'applied statistics'
p144
aS'marketing management'
p145
aS'management'
p146
aS'health services'
p147
aS'analytics data sciences'
p148
aS'marketing finance'
p149
aS'computer application'
p150
aS'phd'
p151
aS'advanced analytics'
p152
aS'ee cs'
p153
aS'it strategy'
p154
aS'operations management'
p155
aS'coursera'
p156
aS'quantitative methods'
p157
aS'biostatistics epidemiology'
p158
aS'human resources management'
p159
aS'systems/industrial engineering'
p160
aS'data mining predictive analysis'
p161
aS'machine learning business analytics'
p162
aS'economics computation'
p163
aS'marketing intelligence'
p164
aS'business management'
p165
aS'business intelligence analytics'
p166
aS'physics mathematics'
p167
aS'mathematics finance'
p168
aS'computational mathematical engineering'
p169
aS'electrical engineering physics'
p170
aS'applied mathematics statistics'
p171
aS'biological sciences'
p172
aS'statistics information tech'
p173
aS'natural language processing'
p174
aS'economics math'
p175
aS'earth sciences'
p176
aS'information system'
p177
aS'biomedical informatics'
p178
aS'electrical computer engineering'
p179
aS'software engineering'
p180
aS'agronomy crop science'
p181
aS'financial engineering'
p182
aS'mechanical'
p183
aS'analytics data science'
p184
aS'aerospace engineering'
p185
aS'health services research'
p186
aS'epidemiology biostatistics'
p187
aS'computational science engineering'
p188
aVapplied statistic
p189
aS'economics public policy'
p190
aS'computer science statistics'
p191
aS'machine learning artificial intelligence'
p192
aS'information data science'
p193
aS'geography'
p194
aS'big data'
p195
aS'machine learning data science'
p196
aS'general management'
p197
aS'data mining machine learning'
p198
aS'graph theory'
p199
aS'public health'
p200
aS'business intelligence data analytics'
p201
aS'mathematics statistics'
p202
aS'economics management'
p203
aS'bio-statistics'
p204
aS'organizational psychology'
p205
aS'computer engineering'
p206
aS'computational social science'
p207
aS'management information systems'
p208
aS'medical informatics'
p209
aS'marketing research'
p210
aS'industrial engineering operations research'
p211
aS'economic development'
p212
aS'analytics'
p213
aS'informatics data science computer science'
p214
aS'development practice'
p215
aS'quantitative finance'
p216
aS'corporate finance'
p217
aS'statistics computer science'
p218
aS'statistical computing'
p219
aS'physics economics'
p220
aS'information management'
p221
aS'big data analytics'
p222
aS'distributed systems'
p223
aS'computational physics'
p224
aS'applied physics'
p225
aS'computer science operations research'
p226
aS'electrical engineering computer science'
p227
aS'hydrology'
p228
aS'school computer science'
p229
aS'computer science data mining'
p230
aS'computer science machine learning'
p231
aS'data science'
p232
aS'data informatics'
p233
aS'reinforcement learning'
p234
aS'data mining'
p235
aS'information science'
p236
aS'space physics'
p237
aS'mechanical engineering'
p238
aS'applied econometrics'
p239
aS'engineering physics'
p240
aS'operations research'
p241
aS'international business'
p242
aS'business analysis'
p243
aS'molecular biology'
p244
aS'machine learning statistics'
p245
aS'neuroscience computer science'
p246
aS'computer science data science'
p247
aS'finance/economics'
p248
aS'computational genetics'
p249
aS'operations supply chain'
p250
aS'mathematics computer science'
p251
aS'mathematical sciences'
p252
aS'human resource management'
p253
aS'computational engineering'
p254
aS'management science'
p255
aS'pharmaceutical science'
p256
aS'statistical genetics'
p257
aS'statistics economics'
p258
aS'urban planning'
p259
aS'web development'
p260
aS'automation'
p261
aS'artificial intelligence machine learning'
p262
aS'operations strategy'
p263
aS'information systems'
p264
aS'applied science technology'
p265
aS'economics finance'
p266
aS'management marketing'
p267
aS'informatics data mining'
p268
aS'physics computer science'
p269
aS'banking finance'
p270
aS'machine learning applied statistics'
p271
aS'chemistry'
p272
aS'environmental engineering'
p273
aS'experimental psychology'
p274
aS'biostatistics'
p275
aS'statistical science'
p276
aS'computer science engineering'
p277
aS'finance economics'
p278
aS'spatial analytics'
p279
aS'computational biolog'
p280
aS'computer science operation research'
p281
aS'management science engineering'
p282
aS'decision sciences'
p283
aS'mathematical engineering'
p284
aS'pharmacy'
p285
aS'business leadership'
p286
aS'computational science'
p287
aS'computer science applied math'
p288
aS'robotics'
p289
aS'probability statistics'
p290
aS'journalism'
p291
aS'machine learning engineer'
p292
aS'agricultural engineering'
p293
aS'music technology'
p294
aS'survey sampling'
p295
aS'information retrieval'
p296
aS'statistic'
p297
aS'public policy'
p298
aS'econometrics'
p299
aS'applied mathematics computer science'
p300
aS'accounting finance'
p301
aS'sociology'
p302
aS'genetics'
p303
aS'industrial engineering management science'
p304
aS'behavioral psychology'
p305
aS'industrial engineering'
p306
aS'mathematical statistics'
p307
aS'environmental health sciences'
p308
aS'biology'
p309
aS'operation research industrial engineering'
p310
aS'business'
p311
aS'marketing'
p312
aS'medical imaging'
p313
aS'epidemiology'
p314
aVmath course
p315
aS'informatics'
p316
aS'biomedical engineering'
p317
aS'economics political science'
p318
aS'analytics / data science'
p319
aS'marketing analytics'
p320
aS'software systems'
p321
aS'computer information systems'
p322
aS'quantitative marketing'
p323
aS'geosciences'
p324
aS'mathematics economics'
p325
aS'communication'
p326
aS'mba'
p327
aS'statistical practice'
p328
aS'transportation engineering'
p329
aS'imaging science'
p330
aS'finance accounting'
p331
aS'health economics outcomes research'
p332
aS'astrophysics'
p333
aS'artificial intelligence'
p334
aS'data science engineering'
p335
aS'systems engineering'
p336
aS'chemical engineering'
p337
aS'computer security'
p338
aS'ee computer science'
p339
aS'life sciences'
p340
aS'library science'
p341
aS'applied math computer science'
p342
aS'electrical engineering'
p343
aS'computer science/artificial intelligence'
p344
aS'computing'
p345
aS'bioinformatics computational biology'
p346
aS'general'
p347
aS'engineering'
p348
aS'information systems technology'
p349
aS'accounting'
p350
aS'business economics'
p351
aS'computer science mathematics'
p352
aS'economic research'
p353
aS'information system management'
p354
aS'biochemistry'
p355
aS'computational chemistry'
p356
aS'telecommunication networking'
p357
aS'electrical'
p358
aS'computer science'
p359
aS'mathematics'
p360
aS'criminology'
p361
aS'technology management'
p362
aS'computer science systems'
p363
aS'neuroscience'
p364
aS'astronomy'
p365
aS'material science engineering'
p366
aS'high performance computing'
p367
aS'finance mathematics'
p368
aS'computer engineering computer science'
p369
aS'data mining / machine learning'
p370
aS'biotechnology'
p371
aa(lp372
S'differential equations'
p373
aS'edc'
p374
aS'qualitative research'
p375
aS'energy efficiency'
p376
aS'chinese'
p377
aS'apache storm'
p378
aS'hedge funds'
p379
aS'redis'
p380
aS'chaid'
p381
aS'sentiment analysis'
p382
aS'ggplot2'
p383
aS'dsp'
p384
aS'system design'
p385
aS'go'
p386
aS'user experience design'
p387
aS'equity research'
p388
aS'microsoft sql server'
p389
aS'content management'
p390
aS'technical leadership'
p391
aS'game design'
p392
aS'spanish'
p393
aS'cognitive neuroscience'
p394
aS'flask'
p395
aS'digital imaging'
p396
aS'fuzzy logic'
p397
aS'scientific visualization'
p398
aS'behavioral targeting'
p399
aS'matlab'
p400
aS'agile methodologies'
p401
aS'master data management'
p402
aS'drug discovery'
p403
aS'junit'
p404
aS'data entry'
p405
aS'psychometrics'
p406
aS'materials science'
p407
aS'computational mathematics'
p408
aS'semiconductor industry'
p409
aS'sap bi'
p410
aS'cloudera impala'
p411
aS'automotive'
p412
aS'etl tools'
p413
aS'health informatics'
p414
aS'computer hardware'
p415
aS'decision trees'
p416
aS'facebook'
p417
aS'nanomaterials'
p418
aS'embedded c'
p419
aS'erp'
p420
aS'infectious diseases'
p421
aS'voip'
p422
aS'event management'
p423
aS'grid computing'
p424
aS'employee engagement'
p425
aS'risk assessment'
p426
aS'solver'
p427
aS'lisp'
p428
aS'mercurial'
p429
aS'risk modeling'
p430
aS'mapreduce'
p431
aS'hive'
p432
aS'engineering management'
p433
aS'civil engineering'
p434
aS'olap'
p435
aS'.net framework'
p436
aS'financial services'
p437
aS'asp'
p438
aS'real estate'
p439
aS'design experiments'
p440
aS'research development r d'
p441
aS'functional programming'
p442
aS'predictive analytics'
p443
aS'logistics'
p444
aS'reporting analysis'
p445
aS'air force'
p446
aS'pmp'
p447
aS'unsupervised learning'
p448
aS'global health'
p449
aS'network science'
p450
aS'computational neuroscience'
p451
aS'teradata'
p452
aS'performance improvement'
p453
aS'business insights'
p454
aS'meta-analysis'
p455
aS'process improvement'
p456
aS'data-driven decision making'
p457
aS'information design'
p458
aS'it management'
p459
aS'batch processing'
p460
aS'pmo'
p461
aS'literature reviews'
p462
aVpanda
p463
aS'vmware'
p464
aS'bootstrap'
p465
aS'solution selling'
p466
aS'evolutionary biology'
p467
aS'statistical consulting'
p468
aS'network optimization'
p469
aS'datastage'
p470
aS'clinical development'
p471
aS'microbiology'
p472
aS'time management'
p473
aS'access'
p474
aS'cancer research'
p475
aS'ssis'
p476
aS'large-scale data analysis'
p477
aS'esri'
p478
aS'mac os'
p479
aS'professional services'
p480
aS'awk'
p481
aS'go-to-market strategy'
p482
aS'segmentation'
p483
aS'team leadership'
p484
aS'transportation'
p485
aS'environmental science'
p486
aS'stochastic processes'
p487
aS'random forests'
p488
aS'matplotlib'
p489
aS'customer analysis'
p490
aS'water'
p491
aS'crystal reports'
p492
aS'21 cfr part 11'
p493
aS'statistical modeling'
p494
aS'ubuntu'
p495
aS'apache'
p496
aS'openmp'
p497
aS'science communication'
p498
aS'b2b'
p499
aS'information technology'
p500
aS'business process management'
p501
aS'software development'
p502
aS'medical imaging'
p503
aS'search'
p504
aS'glm'
p505
aS'data cleaning'
p506
aS'root'
p507
aS'consumer insights'
p508
aS'economics'
p509
aS'test automation'
p510
aS'multivariate statistics'
p511
aS'credit'
p512
aS'rdf'
p513
aS'product launch'
p514
aS'advertising'
p515
aS'windows azure'
p516
aS'military'
p517
aS'microsoft access'
p518
aS'personalized medicine'
p519
aS'sas enterprise miner'
p520
aS'qualtrics'
p521
aS'computer architecture'
p522
aS'classification'
p523
aS'cdma'
p524
aS'probabilistic models'
p525
aS'clinical study design'
p526
aS'adobe creative suite'
p527
aS'healthcare analytics'
p528
aS'test driven development'
p529
aS'graphic design'
p530
aS'unix'
p531
aS'healthcare information technology'
p532
aS'account management'
p533
aS'mobile advertising'
p534
aS'web scraping'
p535
aS'outsourcing'
p536
aS'experimentation'
p537
aS'social media'
p538
aS'web analytics'
p539
aS'open source'
p540
aS'army'
p541
aS'j2ee'
p542
aS'microeconomics'
p543
aS'petroleum'
p544
aS'devops'
p545
aS'governance'
p546
aS'perl'
p547
aS'crowdsourcing'
p548
aS'risk management'
p549
aS'campaign management'
p550
aS'visio'
p551
aS'erwin'
p552
aS'gsm'
p553
aS'data management'
p554
aS'quality assurance'
p555
aS'structural equation modeling'
p556
aS'performance management'
p557
aS'web design'
p558
aS'conjoint analysis'
p559
aS'lean manufacturing'
p560
aS'jmp'
p561
aS'hl7'
p562
aS'cplex'
p563
aS'business process'
p564
aS'process automation'
p565
aS'investment strategies'
p566
aS'computational linguistics'
p567
aS'data processing'
p568
aS'teaching'
p569
aS'html 5'
p570
aS'project management'
p571
aS'grant writing'
p572
aS'database administration'
p573
aS'scientific analysis'
p574
aS'genetic algorithms'
p575
aS'word'
p576
aS'science'
p577
aS'applied mathematics'
p578
aS'eclipse'
p579
aS'web content'
p580
aS'machine learning'
p581
aS'inventory management'
p582
aS'drupal'
p583
aS'hidden markov models'
p584
aS'mobile applications'
p585
aS'customer acquisition'
p586
aS'visual basic'
p587
aS'ms office suite'
p588
aS'cluster analysis'
p589
aS'scripting'
p590
aS'cad'
p591
aS'speech recognition'
p592
aS'parallel computing'
p593
aS'educational technology'
p594
aS'portfolio management'
p595
aS'semantic web'
p596
aS'cognitive science'
p597
aS'financial risk management'
p598
aS'revenue analysis'
p599
aS'display advertising'
p600
aS'portfolio optimization'
p601
aS'simulation'
p602
aS'random forest'
p603
aS'business modeling'
p604
aS'simulink'
p605
aS'sip'
p606
aS'cryptography'
p607
aS'contract negotiation'
p608
aS'power bi'
p609
aS'sharepoint'
p610
aS'sas enterprise guide'
p611
aS'tableau'
p612
aS'application architecture'
p613
aS'market research'
p614
aS'gcp'
p615
aS'computer vision'
p616
aS'business planning'
p617
aS'ehr'
p618
aS'text classification'
p619
aS'product innovation'
p620
aS'amazon s3'
p621
aS'hypothesis testing'
p622
aS'unstructured data'
p623
aS'vhdl'
p624
aS'bioconductor'
p625
aS'object recognition'
p626
aS'computational biology'
p627
aS'algebra'
p628
aS'philosophy'
p629
aS'leadership development'
p630
aS'multivariate testing'
p631
aS'entrepreneurship'
p632
aS'sustainability'
p633
aS'theano'
p634
aS'political science'
p635
aS'data wrangling'
p636
aS'arduino'
p637
aS'bootstrapping'
p638
aS'extract transform load etl'
p639
aS'mpi'
p640
aS'data'
p641
aS'metrology'
p642
aS'technical training'
p643
aS'github'
p644
aS'sparql'
p645
aS'commodity'
p646
aS'remote sensing'
p647
aS'object oriented design'
p648
aS'market making'
p649
aS'documentation'
p650
aS'django'
p651
aS'google analytics'
p652
aS'causal inference'
p653
aS'fortran'
p654
aS'healthcare'
p655
aS'tutoring'
p656
aS'nltk'
p657
aS'visual c'
p658
aS'jira'
p659
aS'photoshop'
p660
aS'oncology'
p661
aS'health economics'
p662
aS'r d'
p663
aS'sql server reporting services ssrs'
p664
aS'crystal ball'
p665
aS'intellectual property'
p666
aS'data warehouse architecture'
p667
aS'data acquisition'
p668
aS'strategic leadership'
p669
aS'radar'
p670
aS'quality control'
p671
aS'marketing research'
p672
aS'hbase'
p673
aS'multi-channel marketing'
p674
aS'fundraising'
p675
aS'rnaseq'
p676
aS'linguistics'
p677
aS'db2'
p678
aS'capital markets'
p679
aS'google docs'
p680
aS'anomaly detection'
p681
aS'pcr'
p682
aS'process engineering'
p683
aS'bloomberg terminal'
p684
aS'product marketing'
p685
aS'monte carlo simulation'
p686
aS'writing'
p687
aS'supply chain management'
p688
aS'digital media'
p689
aS'coaching'
p690
aS'spring framework'
p691
aS'statistical software'
p692
aS'wordpress'
p693
aS'microstrategy'
p694
aS'reverse engineering'
p695
aS'policy'
p696
aS'linux system administration'
p697
aS'pca'
p698
aS'soa'
p699
aS'operational planning'
p700
aS'finance'
p701
aS'numerical analysis'
p702
aS'customer relationship management crm'
p703
aS'python'
p704
aS'semantic analysis'
p705
aS'private equity'
p706
aS'postgis'
p707
aS'survey design'
p708
aS'scipy'
p709
aS'algorithm development'
p710
aS'technical documentation'
p711
aS'business development'
p712
aS'business transformation'
p713
aS'analytical skills'
p714
aS'cloudera'
p715
aVbayesian method
p716
aS'outcomes research'
p717
aS'spatial analysis'
p718
aS'innovation management'
p719
aS'svm'
p720
aS'database management'
p721
aS'communication skills'
p722
aS'user acceptance testing'
p723
aS'pharmaceutical industry'
p724
aS'program evaluation'
p725
aS'haskell'
p726
aS'association rules'
p727
aS'root cause analysis'
p728
aS'logistic regression'
p729
aS'drug development'
p730
aS'soc'
p731
aS'crm'
p732
aS'data analytics'
p733
aS'sap bw'
p734
aS'cartography'
p735
aS'knowledge management'
p736
aS'energy'
p737
aS'decision support'
p738
aS'computational chemistry'
p739
aS'information extraction'
p740
aS'sas base'
p741
aS'enterprise software'
p742
aS'trading'
p743
aS'ec2'
p744
aS'personalization'
p745
aS'relational databases'
p746
aS'firmware'
p747
aS'direct marketing'
p748
aS'insurance'
p749
aS'collaborative problem solving'
p750
aS'requirements management'
p751
aS'psychology'
p752
aS'jdbc'
p753
aS'image processing'
p754
aS'cascading style sheets css'
p755
aS'questionnaire design'
p756
aS'web 2.0'
p757
aS'scientific computing'
p758
aS'research design'
p759
aS'research'
p760
aS'mahout'
p761
aS'sap netweaver'
p762
aS'vendor management'
p763
aS'survey methodology'
p764
aS'database marketing'
p765
aS'sdlc'
p766
aS'business requirements'
p767
aS'medicine'
p768
aS'electronics'
p769
aS'it service management'
p770
aS'netbeans'
p771
aS'statistical tools'
p772
aS'quickbooks'
p773
aS'molecular modeling'
p774
aS'factor analysis'
p775
aS'hibernate'
p776
aS'embedded software'
p777
aS'theory'
p778
aS'transportation engineering'
p779
aS'client presentation'
p780
aS'cissp'
p781
aS'data scientist'
p782
aS'cart'
p783
aS'data quality'
p784
aS'business analytics'
p785
aS'ajax'
p786
aS'investment banking'
p787
aS'algorithm design'
p788
aS'foreign policy'
p789
aS'networking'
p790
aS'mathematical analysis'
p791
aS'photography'
p792
aS'customer relations'
p793
aS'bash'
p794
aS'training'
p795
aS'knime'
p796
aS'open source software'
p797
aS'partial differential equations'
p798
aS'basel ii'
p799
aS'metabolomics'
p800
aS'sustainable development'
p801
aS'programming'
p802
aS'mobile devices'
p803
aS'business objects'
p804
aS'traffic engineering'
p805
aS'mvc'
p806
aS'elasticsearch'
p807
aS'3d visualization'
p808
aS'lte'
p809
aS'data security'
p810
aS'requirements analysis'
p811
aS'retail'
p812
aS'rapid prototyping'
p813
aS'microsoft azure'
p814
aS'scalding'
p815
aS'customer insight'
p816
aS'probability'
p817
aS'indesign'
p818
aS'proteomics'
p819
aS'bioinformatics'
p820
aS'microscopy'
p821
aS'proofreading'
p822
aS'ecology'
p823
aS'marketing strategy'
p824
aS'computer forensics'
p825
aS'mathematical modeling'
p826
aS'neo4j'
p827
aS'financial reporting'
p828
aS'marketing management'
p829
aS'dimensionality reduction'
p830
aS'clinical data management'
p831
aS'management'
p832
aS'weka'
p833
aS'hedging'
p834
aS'community development'
p835
aS'project portfolio management'
p836
aS'artificial neural networks'
p837
aS'recruiting'
p838
aS'trading systems'
p839
aS'enterprise architecture'
p840
aS'abap'
p841
aS'gurobi'
p842
aS'climate change'
p843
aS'advanced analytics'
p844
aS'gpu'
p845
aS'scheme'
p846
aS'dimensional modeling'
p847
aS'operating systems'
p848
aS'software documentation'
p849
aS'text mining'
p850
aS'shiny'
p851
aS'content strategy'
p852
aS'mathematical programming'
p853
aS'apache spark'
p854
aS'actuarial science'
p855
aS'strategic thinking'
p856
aS'healthcare consulting'
p857
aS'mongodb'
p858
aS'instructional design'
p859
aS'xquery'
p860
aS'property casualty insurance'
p861
aS'translation'
p862
aS'semantics'
p863
aS'jquery'
p864
aS'business intelligence tools'
p865
aS'data collection'
p866
aS'performance metrics'
p867
aS'quantitative analytics'
p868
aS'linear algebra'
p869
aS'solution architecture'
p870
aS'lucene'
p871
aS'data engineering'
p872
aS'organizational leadership'
p873
aS'r'
aS'discrete mathematics'
p874
aS'kalman filtering'
p875
aS'fixed income'
p876
aS'impala'
p877
aS'game theory'
p878
aS'it strategy'
p879
aS'supply chain optimization'
p880
aS'debugging'
p881
aS'information theory'
p882
aS'management consulting'
p883
aS'competitive analysis'
p884
aS'ant'
p885
aS'business intelligence'
p886
aS'graphical models'
p887
aS'physical chemistry'
p888
aS'angularjs'
p889
aS'sas'
p890
aS'market basket analysis'
p891
aS'sap'
p892
aS'amazon web services'
p893
aS'cassandra'
p894
aS'instrumentation'
p895
aS'e-commerce'
p896
aS'user experience'
p897
aS'counterterrorism'
p898
aS'data governance'
p899
aS'predictive modeling'
p900
aS'microcontrollers'
p901
aS'marketing automation'
p902
aS'project coordination'
p903
aS'dna sequencing'
p904
aS'natural language processing'
p905
aS'ms project'
p906
aS'test planning'
p907
aS'financial analysis'
p908
aS'failure analysis'
p909
aS'soap'
p910
aS'erdas imagine'
p911
aS'calculus'
p912
aS'competitive intelligence'
p913
aS'hdfs'
p914
aS'collaboration'
p915
aS'aws'
p916
aS'arena'
p917
aS'bigquery'
p918
aS'scientific writing'
p919
aS'financial risk'
p920
aS'pentaho'
p921
aS'biomedical informatics'
p922
aS'oozie'
p923
aS'technical writing'
p924
aS'discrete event simulation'
p925
aS'public speaking'
p926
aS'customer segmentation strategy'
p927
aS'latex'
p928
aS'obiee'
p929
aS'design patterns'
p930
aS'system testing'
p931
aS'software engineering'
p932
aS'sql server'
p933
aS'demand forecasting'
p934
aS'people skills'
p935
aS'microsoft word'
p936
aS'convex optimization'
p937
aS'excel vba'
p938
aS'dod'
p939
aS'linear regression'
p940
aS'os x'
p941
aS'knowledge representation'
p942
aS'financial engineering'
p943
aS'investment management'
p944
aS'sd'
p945
aS'pre-sales'
p946
aS'vulnerability assessment'
p947
aS'oracle database'
p948
aS'nlp'
p949
aS'supply chain'
p950
aS'unix shell scripting'
p951
aS'survival analysis'
p952
aS'german'
p953
aS'asic'
p954
aS'nonlinear optimization'
p955
aS'lean startup'
p956
aS'adult education'
p957
aS'operations management'
p958
aS'strategic planning'
p959
aS'node.js'
p960
aS'spring mvc'
p961
aS'visual studio'
p962
aS'vertica'
p963
aS'email marketing'
p964
aS'network security'
p965
aS'creative problem solving'
p966
aS'biometrics'
p967
aS'd3'
p968
aS'geography'
p969
aS'xml'
p970
aS'cell'
p971
aS'technical communication'
p972
aS'sql db2'
p973
aS'graph databases'
p974
aS'biostatistics'
p975
aS'big data'
p976
aS'lua'
p977
aS'critical thinking'
p978
aS'asset management'
p979
aS'web marketing'
p980
aS'microarray'
p981
aS'envi'
p982
aS'corporate development'
p983
aS'geospatial intelligence'
p984
aS'performance testing'
p985
aS'disease management'
p986
aS'risk analytics'
p987
aS'android development'
p988
aS'population genetics'
p989
aS'policy analysis'
p990
aS'apache kafka'
p991
aS'software development life cycle sdlc'
p992
aS'graph theory'
p993
aS'data modeling'
p994
aS'copywriting'
p995
aS'recommender systems'
p996
aS'job analysis'
p997
aS'public health'
p998
aS'biophysics'
p999
aS'risk analysis'
p1000
aS'mandarin'
p1001
aS'talent management'
p1002
aS'dynamic programming'
p1003
aS'oracle sql developer'
p1004
aS'tcp'
p1005
aS'powerpivot'
p1006
aS'systems biology'
p1007
aS'itil'
p1008
aS'credit risk'
p1009
aS'xslt'
p1010
aS'blogging'
p1011
aS'flume'
p1012
aS'collaborative filtering'
p1013
aS'digital strategy'
p1014
aS'amazon ec2'
p1015
aS'mac os x'
p1016
aS'geospatial modeling'
p1017
aS'c++'
p1018
aS'banking'
p1019
aS'sequence analysis'
p1020
aS'credit analysis'
p1021
aS'architecture'
p1022
aS'emr'
p1023
aS'api development'
p1024
aS'high availability'
p1025
aS'cro'
p1026
aS'information architecture'
p1027
aS'quality improvement'
p1028
aS'cognos'
p1029
aS'active directory'
p1030
aS'intelligence'
p1031
aS'testing'
p1032
aS'economic development'
p1033
aS'presentation skills'
p1034
aS'eviews'
p1035
aS'analytics'
p1036
aS'proposal writing'
p1037
aS'defense'
p1038
aS'rf'
p1039
aS'system administration'
p1040
aS'biomarker discovery'
p1041
aS'seo'
p1042
aS'distributed computing'
p1043
aS'sem'
p1044
aS'integrated marketing'
p1045
aS'arm'
p1046
aS'php'
p1047
aS'direct mail'
p1048
aS'data architecture'
p1049
aS'quantitative finance'
p1050
aS'corporate finance'
p1051
aS'programming languages'
p1052
aS'statistical computing'
p1053
aS'machine vision'
p1054
aS'information management'
p1055
aS'big data analytics'
p1056
aS'social network analysis'
p1057
aS'economic modeling'
p1058
aS'new business development'
p1059
aS'verilog'
p1060
aS'stata'
p1061
aS'combinatorial optimization'
p1062
aS'computational physics'
p1063
aS'fluorescence'
p1064
aS'amazon web services aws'
p1065
aS'oracle pl'
p1066
aS'electronic trading'
p1067
aS'keynote'
p1068
aS'field work'
p1069
aS'database design'
p1070
aS'customer service'
p1071
aS'javascript'
p1072
aS'alteryx'
p1073
aS'scalability'
p1074
aS'molecular genetics'
p1075
aS'data structures'
p1076
aS'mentoring'
p1077
aS'minitab'
p1078
aS'control theory'
p1079
aS'modeling'
p1080
aS'spark'
p1081
aS'solr'
p1082
aS'decision analysis'
p1083
aS'c'
aS'b2b marketing'
p1084
aS'hydrology'
p1085
aS'data visualization'
p1086
aS'software service saas'
p1087
aS'quantitative research'
p1088
aS'microsoft powerpoint'
p1089
aS'budgeting'
p1090
aS'security clearance'
p1091
aS'technical analysis'
p1092
aS'customer analytics'
p1093
aS'customer support'
p1094
aS'core java'
p1095
aS'internet things'
p1096
aS'probability theory'
p1097
aVbayesian statistic
p1098
aS'environmental engineering'
p1099
aS'etl'
p1100
aS'html5'
p1101
aS'negotiation'
p1102
aS'gps'
p1103
aS'forecasting'
p1104
aS'octave'
p1105
aS'shell scripting'
p1106
aS'characterization'
p1107
aS'attribution modeling'
p1108
aS'r programming'
p1109
aS'data science'
p1110
aS'robotics'
p1111
aS'reinforcement learning'
p1112
aS'thought leadership'
p1113
aS'data warehousing'
p1114
aS'anova'
p1115
aS'linux'
p1116
aS'simulation modeling'
p1117
aS'fourier analysis'
p1118
aS'team management'
p1119
aS'e-learning'
p1120
aS'information visualization'
p1121
aS'qlikview'
p1122
aS'pricing optimization'
p1123
aS'java'
p1124
aS'publishing'
p1125
aS'mechanical engineering'
p1126
aS'opencv'
p1127
aS'deep learning'
p1128
aS'user interface'
p1129
aS'strategy'
p1130
aS'asp.net mvc'
p1131
aS'commodity markets'
p1132
aS'json'
p1133
aS'secondary research'
p1134
aS'teamwork'
p1135
aS'mixed model'
p1136
aS'dreamweaver'
p1137
aS'event planning'
p1138
aS'tensorflow'
p1139
aS'numpy'
p1140
aS'statistical learning'
p1141
aS'operations research'
p1142
aS'analysis services'
p1143
aS'dashboarding'
p1144
aS'customer satisfaction'
p1145
aS'statistical data analysis'
p1146
aS'sqoop'
p1147
aS'visual analytics'
p1148
aS'business analysis'
p1149
aS'molecular biology'
p1150
aS'marketing communications'
p1151
aS'credit cards'
p1152
aS'healthcare industry'
p1153
aS'spotfire'
p1154
aS'vba'
p1155
aS'written oral presentation skills'
p1156
aS'sales operations'
p1157
aS'apache pig'
p1158
aS'strategic partnerships'
p1159
aS'aviation'
p1160
aS'ruby'
p1161
aS'survey research'
p1162
aS'hardware diagnostics'
p1163
aS'software quality assurance'
p1164
aVbayesian network
p1165
aS'econometric modeling'
p1166
aS'non-profits'
p1167
aS'hedis'
p1168
aS'consumer behaviour'
p1169
aS'lean six sigma'
p1170
aS'sap erp'
p1171
aS'program development'
p1172
aS'health insurance'
p1173
aS'strategic communications'
p1174
aS'optimization algorithms'
p1175
aS'statistical arbitrage'
p1176
aS'decision modeling'
p1177
aS'optimization'
p1178
aS'dashboard'
p1179
aS'editorial'
p1180
aS'vb.net'
p1181
aS'product management'
p1182
aS'advertising research'
p1183
aS'application development'
p1184
aS'trend analysis'
p1185
aS'scientific programming'
p1186
aS'r studio'
p1187
aS'ip'
p1188
aS'project planning'
p1189
aS'avro'
p1190
aS'hardware'
p1191
aS'cluster'
p1192
aS'microsoft crm'
p1193
aS'ansible'
p1194
aS'operational excellence'
p1195
aS'statistical analysis'
p1196
aS'adobe photoshop'
p1197
aS'politics'
p1198
aS'ic'
p1199
aS'sas programming'
p1200
aS'regression'
p1201
aS'integer programming'
p1202
aS'sql database design'
p1203
aS'nanofabrication'
p1204
aS'clinical trials'
p1205
aS'program management'
p1206
aS'servlets'
p1207
aS'hadoop'
p1208
aS'quantitative investing'
p1209
aS'lamp'
p1210
aS'urban planning'
p1211
aS'html'
p1212
aS'fraud detection'
p1213
aS'online advertising'
p1214
aS'google cloud platform'
p1215
aS'weblogic'
p1216
aS'web mining'
p1217
aS'android'
p1218
aS'web development'
p1219
aS'semiconductor device'
p1220
aS'human computer interaction'
p1221
aS'six sigma'
p1222
aS'quality management'
p1223
aS'automation'
p1224
aS'assembly language'
p1225
aS'medicaid'
p1226
aS'bloomberg'
p1227
aS't-sql'
p1228
aS'bayesian inference'
p1229
aS'hipaa'
p1230
aS'statistical programming'
p1231
aS'model selection'
p1232
aS'process development'
p1233
aS'business process re-engineering'
p1234
aS'pattern recognition'
p1235
aS'in vitro'
p1236
aS'ampl'
p1237
aS'presto'
p1238
aS'start-ups'
p1239
aS'eye tracking'
p1240
aS'market data'
p1241
aS'image analysis'
p1242
aS'analysis'
p1243
aS'google adwords'
p1244
aS'data center'
p1245
aS'procurement'
p1246
aS'system architecture'
p1247
aS'command'
p1248
aS'data integration'
p1249
aS'business process design'
p1250
aS'english'
p1251
aS'netezza'
p1252
aS'organization'
p1253
aS'docker'
p1254
aS'chemistry'
p1255
aS'video editing'
p1256
aS'sap hana'
p1257
aS'digital marketing'
p1258
aS'aerospace engineering'
p1259
aS'web applications'
p1260
aS'solaris'
p1261
aS'mobile marketing'
p1262
aS'nosql'
p1263
aS'model validation'
p1264
aS'excel'
p1265
aS'proprietary trading'
p1266
aS'rest'
p1267
aS'trading strategies'
p1268
aS'spss modeler'
p1269
aS'tcl'
p1270
aS'product strategy'
p1271
aS'mysql'
p1272
aS'digital analytics'
p1273
aS'distributed systems'
p1274
aS'change management'
p1275
aS'visualization'
p1276
aS'microsoft project'
p1277
aS'french'
p1278
aS'autocad'
p1279
aS'cancer'
p1280
aS'complex systems'
p1281
aS'time series analysis'
p1282
aS'agile'
p1283
aS'bayesian statistics'
p1284
aS'outlook'
p1285
aS'd3.js'
p1286
aS'subversion'
p1287
aS'omniture'
p1288
aS'evolutionary computation'
p1289
aS'oracle sql'
p1290
aS'prezi'
p1291
aS'principal component analysis'
p1292
aS'gmp'
p1293
aS'penetration testing'
p1294
aS'microsoft excel'
p1295
aS'css3'
p1296
aS'signal processing'
p1297
aS'oop'
p1298
aS'government'
p1299
aS'design thinking'
p1300
aS'windows server'
p1301
aS'wcf'
p1302
aS'user research'
p1303
aS'regression models'
p1304
aS'experimental design'
p1305
aS'salesforce.com'
p1306
aS'product design'
p1307
aS'military experience'
p1308
aS'julia'
p1309
aS'aerospace'
p1310
aS'performance tuning'
p1311
aS'sequencing'
p1312
aS'distributed algorithms'
p1313
aS'nanotechnology'
p1314
aS'social networking'
p1315
aS'pharmacovigilance'
p1316
aS'customer experience'
p1317
aS'apache hive'
p1318
aS'swift'
p1319
aS'regular expressions'
p1320
aS'systems analysis'
p1321
aS'scikit-learn'
p1322
aS'systems design'
p1323
aS'earth science'
p1324
aS'online marketing'
p1325
aS'managed care'
p1326
aS'cognition'
p1327
aS'statistical inference'
p1328
aS'security'
p1329
aS'rstudio'
p1330
aS'market analysis'
p1331
aS'venture capital'
p1332
aS'.net'
p1333
aS'centos'
p1334
aS'text analytics'
p1335
aS'public relations'
p1336
aS'spring'
p1337
aS'data mining'
p1338
aS'regression testing'
p1339
aS'information retrieval'
p1340
aS'sql development'
p1341
aS'health policy'
p1342
aS'asp.net'
p1343
aS'geospatial data'
p1344
aS'pricing'
p1345
aS'usability testing'
p1346
aS'public policy'
p1347
aS'econometrics'
p1348
aS'teradata sql'
p1349
aS'structured finance'
p1350
aS'market risk'
p1351
aS'sociology'
p1352
aS'genetics'
p1353
aS'optimal control'
p1354
aS'scala'
p1355
aS'team building'
p1356
aS'data migration'
p1357
aS'lead generation'
p1358
aS'saas'
p1359
aS'integration'
p1360
aS'web crawling'
p1361
aS'mathematical statistics'
p1362
aS'technical recruiting'
p1363
aS'web services'
p1364
aS'innovation'
p1365
aS'information security'
p1366
aS'uml'
p1367
aS'monetization'
p1368
aS'greenplum'
p1369
aS'assay development'
p1370
aS'biology'
p1371
aS'data analysis'
p1372
aS'nmr'
p1373
aS'product development'
p1374
aS'process optimization'
p1375
aS'genomics'
p1376
aS'marketing'
p1377
aS'informatica'
p1378
aS'processing'
p1379
aS'performance measurement'
p1380
aS'maven'
p1381
aS'epidemiology'
p1382
aS'leadership'
p1383
aS'biomarkers'
p1384
aS'windows 7'
p1385
aS'informatics'
p1386
aS'dna'
p1387
aS'manufacturing'
p1388
aS'biomedical engineering'
p1389
aS'eeg'
p1390
aS'rdbms'
p1391
aS'rapidminer'
p1392
aS'b testing'
p1393
aS'postgresql'
p1394
aS'national security'
p1395
aS'gis analysis'
p1396
aS'staff development'
p1397
aS'marketing analytics'
p1398
aS'primary research'
p1399
aS'spss'
p1400
aS'arcgis'
p1401
aS'idl'
p1402
aS'medicare'
p1403
aS'cuda'
p1404
aS'executive management'
p1405
aS'cyber-security'
p1406
aS'jsp'
p1407
aS'international business'
p1408
aS'clojure'
p1409
aS'microsoft office'
p1410
aS'powerpoint'
p1411
aS'ppc'
p1412
aS'owl'
p1413
aS'consulting'
p1414
aS'neural networks'
p1415
aS'government contracting'
p1416
aS'communication'
p1417
aS'splunk'
p1418
aS'intelligence analysis'
p1419
aS'due diligence'
p1420
aS'mllib'
p1421
aS'user interface design'
p1422
aS'financial markets'
p1423
aS'statistical sampling'
p1424
aS'troubleshooting'
p1425
aS'problem solving'
p1426
aS'oracle e-business suite'
p1427
aS'online research'
p1428
aS'quantitative analysis'
p1429
aS'enterprise risk management'
p1430
aS'visual basic applications vba'
p1431
aS'lingo'
p1432
aS'clustering'
p1433
aS'pricing analysis'
p1434
aS'git'
p1435
aS'multivariate analysis'
p1436
aS'marketing mix modeling'
p1437
aS'opengl'
p1438
aS'vbscript'
p1439
aS'strategic consulting'
p1440
aS'continuous improvement'
p1441
aS'statistica'
p1442
aS'heroku'
p1443
aS'energy policy'
p1444
aS'emacs'
p1445
aS'data munging'
p1446
aS'renewable energy'
p1447
aS'astrophysics'
p1448
aS'music'
p1449
aS'pyspark'
p1450
aS'pivot tables'
p1451
aS'linear programming'
p1452
aS'artificial intelligence'
p1453
aS'systems engineering'
p1454
aS'feature extraction'
p1455
aS'business process improvement'
p1456
aS'apis'
p1457
aS'ruby rails'
p1458
aS'computer graphics'
p1459
aS'linq'
p1460
aS'website development'
p1461
aS'wireless'
p1462
aS'process modeling'
p1463
aS'construction'
p1464
aS'chemical engineering'
p1465
aS'computer security'
p1466
aS'pricing strategy'
p1467
aS'editing'
p1468
aS'valuation'
p1469
aS'fda'
p1470
aS'software design'
p1471
aS'life sciences'
p1472
aS'fraud'
p1473
aS'illustrator'
p1474
aS'parallel programming'
p1475
aS'community outreach'
p1476
aS'human factors'
p1477
aS'smart grid'
p1478
aS'agile project management'
p1479
aS'demand generation'
p1480
aS'credit scoring'
p1481
aS'amazon redshift'
p1482
aS'pl'
p1483
aS'spectroscopy'
p1484
aS'electrical engineering'
p1485
aS'clinical research'
p1486
aS'organizational effectiveness'
p1487
aS'powershell'
p1488
aS'pharmacology'
p1489
aS'virtualization'
p1490
aS'higher education'
p1491
aS'computational genomics'
p1492
aS'regression analysis'
p1493
aS'human resources'
p1494
aS'immunology'
p1495
aS'restful webservices'
p1496
aS'pig'
p1497
aS'report writing'
p1498
aS'engineering'
p1499
aS'ssrs'
p1500
aS'gephi'
p1501
aS'high performance computing'
p1502
aS'laboratory'
p1503
aS'accounting'
p1504
aS'education'
p1505
aS'digital signal processing'
p1506
aS'objective-c'
p1507
aS'economic research'
p1508
aS'biochemistry'
p1509
aS'mathematica'
p1510
aS'storage'
p1511
aS'h2o'
p1512
aS'agent-based modeling'
p1513
aS'social sciences'
p1514
aS'sybase'
p1515
aS'quantitative models'
p1516
aS'computer science'
p1517
aS'health services research'
p1518
aS'cheminformatics'
p1519
aS'database development'
p1520
aS'mathematics'
p1521
aS'product lifecycle management'
p1522
aS'mri'
p1523
aS'financial modeling'
p1524
aS'reliability engineering'
p1525
aS'toad'
p1526
aS'gas'
p1527
aS'cobol'
p1528
aS'scrum'
p1529
aS'customer retention'
p1530
aS'ggplot'
p1531
aS'interaction design'
p1532
aS'sql'
p1533
aS'neuroscience'
p1534
aS'astronomy'
p1535
aS'cell biology'
p1536
aS'emerging markets'
p1537
aS'disaster recovery'
p1538
aS'tomcat'
p1539
aS'groovy'
p1540
aS'cloud computing'
p1541
aS'wifi'
p1542
aS'business strategy'
p1543
aS'unit testing'
p1544
aS'organizational development'
p1545
aS'information assurance'
p1546
aS'jenkins'
p1547
aS'exploratory data analysis'
p1548
aS'stochastic modeling'
p1549
aS'oracle'
p1550
aS'biotechnology'
p1551
aS'validation'
p1552
aS'industrial engineering'
p1553
aS'industrial organization'
p1554
aa(lp1555
S'build dashboard'
p1556
aS'architect system'
p1557
aS'non-routine analysis problem'
p1558
aVinsight
p1559
aS'manage data'
p1560
aS'provide mentorship'
p1561
aS'validate model'
p1562
aS'cross-functionally'
p1563
aS'exploratory analysis'
p1564
aS'product leadership'
p1565
aS'drive key decision'
p1566
aVass improvement
p1567
aVproduct operation
p1568
aS'improvement'
p1569
aS'analytic'
p1570
aS'identify trend'
p1571
aS'presentation'
p1572
aS'transformation'
p1573
aS'financial model'
p1574
aS'prioritize lead'
p1575
aS'quantitative information'
p1576
aS'report'
p1577
aS'drive model'
p1578
aS'discover pattern'
p1579
aS'experiment analysis'
p1580
aS'manage decision'
p1581
aS'ad-hoc exploratory'
p1582
aS'formulate'
p1583
aS'design'
p1584
aS'recommendation'
p1585
aS'extract'
p1586
aS'automate analyse'
p1587
aS'mine data'
p1588
aS'explore opportunity'
p1589
aS'pattern'
p1590
aS'ensure accuracy'
p1591
aS'test model'
p1592
aS'automate report'
p1593
aS'evaluation'
p1594
aS'data analysis'
p1595
aS'build model'
p1596
aS'provide leadership'
p1597
aS'processing'
p1598
aS'communicate'
p1599
aS'create rule'
p1600
aS'statistical method'
p1601
aS'problem statement'
p1602
aS'interface'
p1603
aS'product decision'
p1604
aS'data gathering'
p1605
aS'support platform'
p1606
aS'simulation'
p1607
aS'product launch'
p1608
aS'design experiment'
p1609
aS'implement'
p1610
aS'engineering design'
p1611
aS'business recommendation'
p1612
aS'forecasting'
p1613
aVtest hypothesis
p1614
aS'identify opportunity'
p1615
aS'due diligence'
p1616
aS'data mining'
p1617
aS'quantitative analysis'
p1618
aS'develop model'
p1619
aS'construct'
p1620
aS'tactical initiative'
p1621
aS'complex data set'
p1622
aS'prototype'
p1623
aS'data sourcing'
p1624
aS'data infrastructure'
p1625
aS'business problem'
p1626
aS'cost-benefit'
p1627
aS'collect data'
p1628
aS'statistical model'
p1629
aS'understand'
p1630
aS'key decision'
p1631
aS'ensure data integrity'
p1632
aS'data collection'
p1633
aS'evaluate experiment'
p1634
aS'optimization'
p1635
aS'analytical method'
p1636
aS'go-to-market strategy'
p1637
aS'develop system'
p1638
aS'predict'
p1639
aVrequirement specification
p1640
aS'solve problem'
p1641
aS'modeling'
p1642
aS'information'
p1643
aS'define metric'
p1644
aS'visual display'
p1645
aS'ongoing deliverable'
p1646
aS'development'
p1647
aS'product'
p1648
aS'large data set'
p1649
aS'decision-making'
p1650
aS'mapping'
p1651
aS'ownership'
p1652
aS'data wrangling'
p1653
aS'normalization'
p1654
aS'documentation'
p1655
aS'analysis'
p1656
aS'model'
p1657
aS'build solution'
p1658
aS'data aggregation'
p1659
aa.