(lp1
(S'http://jobview.monster.com/clinical-research-associate-job-collegeville-us-182634487.aspx'
S'<!DOCTYPE html>\n<html>\n <head>\n  <meta charset="utf-8"/>\n  <title>\n   Randstad Life Sciences Job Application for Clinical Research Associate | Monster.com\n  </title>\n  <meta content="user-scalable=no, width=device-width, initial-scale=1, minimum-scale=1, maximum-scale=1" name="viewport"/>\n  <meta content="2017.4.0.396" name="DCS.release"/>\n  <script language="javascript" type="text/javascript">\n   var MONS_LOG_VARS = {"JobID":182634487,"ApplyType":"4","PopUpMessage":"Your pop-up blocking software is preventing proper operation of jobsearch site","EE":"EAAQrXuZmYIUF5avSTEZs5tdZQ--","ApplyOnlineUrl":"https://www.randstadusa.com/jobs/search/job-details/137/21060/?utm_source=monster&utm_campaign=job%20ads&utm_medium=job%20post","TrackingCompany":"Randstad Life Sciences","TrackingLogo":"http://company.monster.com/profiles/Randstad-Life-Sciences","YTA":0,"LogUrl":"LogUrl :\'http://jobview.monster.com/log.ashx?PositionAdID=182634487&folderid=218339000&tracking=EAAQbRxpwOLd6kCuFIT4sXKgWw--&logtype=","XCode":"xdeltasix"};\r\n\r\n      var clickLogQueue = {\r\n        registeredCallbacks: [],\r\n\r\n        registerCallback: function (fn) {\r\n          this.registeredCallbacks.push(fn);\r\n        },\r\n\r\n        proccessQueue: function (logType, href) {\r\n          var i, len;\r\n          for (i = 0, len = this.registeredCallbacks.length; i < len; i += 1) {\r\n            this.registeredCallbacks[i](logType, href);\r\n          }\r\n        }\r\n      }\r\n      function submitLog(log_src) {\r\n        if (document.images) {\r\n          submitLog.log_img[submitLog.log_ptr] = new Image;\r\n          submitLog.log_img[submitLog.log_ptr].src = log_src;\r\n          submitLog.log_ptr++;\r\n        }\r\n      }\r\n      submitLog.log_img = new Array;\r\n      submitLog.log_ptr = 0;\n  </script>\n  <link href="https://coda.newjobs.com/Assets/MUX/JaJobViewCloud/2017.04.0.82/css/main.css" rel="stylesheet" type="text/css"/>\n  <!--[if lt IE 9.0]><link href="https://coda.newjobs.com/Assets/MUX/JaJobViewCloud/2017.04.0.82/css/fallback.css" rel="stylesheet" /><![endif]-->\n  <link href="/v2/DynamicAssets/CssOverrides?ch=" rel="stylesheet" type="text/css"/>\n  <link href="http://media.newjobs.com/favicon.ico" rel="shortcut icon"/>\n  <meta content="telephone=no" name="format-detection"/>\n  <meta content="Complete the job application for Clinical Research Associate in Collegeville 19426 online today or find more job listings available at Randstad Life Sciences at Monster." name="description="/>\n  <link href="http://jobview.monster.com/clinical-research-associate-job-collegeville-us-182634487.aspx" rel="canonical"/>\n  <meta content="all" name="robots"/>\n  <script src="//code.jquery.com/jquery-1.11.3.min.js">\n  </script>\n  <script src="https://coda.newjobs.com/Assets/MUX/JaJobViewCloud/2017.04.0.82/js/core.js">\n  </script>\n  <script>\n   requirejs.config({ baseUrl: \'https://coda.newjobs.com/Assets/MUX/JaJobViewCloud/2017.04.0.82/js/\' });\n  </script>\n  <script src="//securemedia.newjobs.com/mm/rainbow/coda/ubd/js/adobeVisitorAPI.js">\n  </script>\n  <script src="//securemedia.newjobs.com/global/js/mbox.js">\n  </script>\n  <script type="text/javascript">\n   requirejs.config({\r\n                paths: {\r\n                    \'recaptcha\': \'https://www.google.com/recaptcha/api.js?hl=en&render=explicit\'\r\n                }\r\n            });\n  </script>\n  <script>\n   var DYNAMIC_S_ACCOUNT = \'newjobsProdSeekerUS\';\r\n    var DYNAMIC_S_CURRENCYCODE = \'USD\';\r\n\r\n    requirejs.config({\r\n        paths: {\r\n            \'amc1\': \'//securemedia.newjobs.com/mm/rainbow/coda/ubd/js/adobeSiteCatalystLL\'\r\n        }\r\n    });\r\n\r\n    require([\'at15\'], function(_m) {\r\n        var isDOMready = function() {\r\n            return !!{interactive:1,complete:1}[document.readyState];\r\n        };\r\n        window._m = _m;\r\n\r\n        _m.ATM.properties = {"channel":"58","eVar1":"D=g","prop1":"D=g","eVar4":"0","eVar2":"unrecognized","eVar62":"1","eVar37":"0_1_0","eVar36":"App_Cstm","prop22":"Experienced (Non-Manager)","eVar28":"Biotech/R\\u0026D/Science","eVar29":"Biotechnology/Pharmaceuticals","eVar30":"Pharmaceutical Research","eVar33":"Full Time, Temporary/Contract/Project","eVar31":"Collegeville 19426","eVar25":"182634487_Clinical Research Associate Job in Collegeville 19426","eVar27":"34356","eVar26":"xdeltasix_Randstad Life Sciences","eVar35":"395925","eVar47":"Not Specified","eVar48":"Not Specified","eVar50":"Duration","eVar53":"1900254001001","events.event3":"true","eVar38":"SA","prop32":"JV_new","eVar57":"with branding","events.event30":"true"};\r\n        _m.ATM.pageName = \'desktop|mons|jobviewcloud|/job/view\';\r\n        _m.ATM.appConfig = { version:\'0\',appID:\'jobviewcloud\',channelID:\'58\',countryID:\'164\' };\r\n        _m.ATM.runOnLoad=true;\r\n\r\n\r\n        if (typeof window.addMonsterReady === \'function\') {\r\n            // TODO: reconsider addMonsterReady usage\r\n            window.addMonsterReady(_m.ATM.initFromOnReady);\r\n        } else if (isDOMready()) {\r\n            _m.ATM.initFromOnReady();\r\n        } else {\r\n            document.onreadystatechange = function() {\r\n                if (isDOMready()) {\r\n                    _m.ATM.initFromOnReady();\r\n                }\r\n            }\r\n        }\r\n\r\n        require([\'adobeTrackingAsync\'], function() {\r\n            require([\r\n                \'amc1\'\r\n            ]);\r\n        });\r\n    });\n  </script>\n  <script src="//nexus.ensighten.com/monster/Bootstrap.js" type="text/javascript">\n  </script>\n  <!--mgs begin-->\n  <!--mgs end-->\n </head>\n <body class="sbt">\n  <div style="display:none;">\n  </div>\n  <div class="w-page">\n   <header class="w-page-header" role="banner">\n    <div class="container">\n     <div class="m-logo" id="Logo">\n      <a class="link" href="http://www.monster.com">\n       <span class="newspaper">\n       </span>\n       <div class="brand">\n        <h1 class="name">\n         Monster\n        </h1>\n       </div>\n      </a>\n     </div>\n     <div class="m-skip-links">\n      <a href="#content">\n       Skip to main content\n      </a>\n     </div>\n    </div>\n   </header>\n   <div class="container w-alert">\n    <div class="alert-content" id="AlertContent">\n     <div class="c-alert alert alert-info icon fade in stretchUp" data-jsux="alert" id="SubscPanelAlert" role="alert">\n      <button aria-label="Close" class="close icon icon-close" data-dismiss="#SubscPanelAlert" id="closeSubscPanelBtn" type="button">\n       Close\n      </button>\n      <div class="c-subscribe stretchUp" id="SubscPanel">\n       <p class="headline">\n        <span>\n         Want more jobs like this?\n        </span>\n        <label class="icon-before icon-email" data-at="subscribe" data-jsux="toggleClass" data-prefix="stretch" data-target="#SubscPanel" data-value="Down" for="EmailAddress">\n         Subscribe\n        </label>\n       </p>\n       <fieldset class="dependent">\n        <legend>\n         Get new similar jobs by email\n        </legend>\n        <div class="form-inline" id="subscEmailAddress">\n         <div class="form-group">\n          <input aria-describedby="EmailAddressHelp" class="form-control input-lg input-promo" id="EmailAddress" maxlength="100" name="EmailAdress" placeholder="Please enter your email"/>\n         </div>\n         <a class="btn btn-lg btn-promo" data-div-id="#subscEmailAddress" data-event="subscribed" data-id="182634487" data-iscao="true" data-jsux="subscriber" data-privacyid="" data-remote-subscription="/v2/subscription/subscribe" data-target="#SubscPanel" href="#" method="POST">\n          Submit\n         </a>\n        </div>\n        <span class="help-block" id="EmailAddressHelp">\n         By continuing you agree to Monster\'s\n         <a href="http://my.monster.com/Privacy/Default.aspx" target="_blank">\n          Privacy Policy\n         </a>\n         ,\n         <a href="http://my.monster.com/Terms/Default.aspx" target="_blank">\n          Terms of Use\n         </a>\n         and\n         <a href="http://inside.monster.com/cookie-info/inside2.aspx" target="_blank">\n          use of cookies\n         </a>\n         .\n        </span>\n       </fieldset>\n      </div>\n     </div>\n     <script id="ApplySubscriptionThankYou" type="text/template">\n      <div id="ApplySubscriptionThankYouAlert" class="c-alert alert alert-success icon fade in" role="alert" data-jsux="alert">\r\n        <button id="closeApplySubscriptionThankYouBtn" class="close icon icon-close" type="button" aria-label="Close" data-dismiss="#ApplySubscriptionThankYouAlert">Close</button>\r\n        <p>We\'ll send jobs like this to: {emailaddress}</p>\r\n    </div>\n     </script>\n    </div>\n   </div>\n   <div class="w-page-content" id="content" role="main">\n    <div class="container">\n     <header class="panel panel-default m-fixed-header decorated jvflow">\n      <div class="w-company-banner">\n       <div class="company-banner" style="background-image:url(\'//media.newjobs.com/mm/xdeltasix/cjt1/banner.jpg\')">\n        <img alt="" src="//media.newjobs.com/mm/xdeltasix/cjt1/banner.jpg"/>\n       </div>\n      </div>\n      <div class="row">\n       <div class="opening col-sm-12">\n        <div class="company-logo loaded">\n         <img alt="Company Logo" src="//media.newjobs.com/mm/xdeltasix/cjt1/logo.jpg"/>\n        </div>\n        <h2>\n         Clinical Research Associate from Randstad Life Sciences\n        </h2>\n        <h3>\n         Collegeville 19426\n        </h3>\n       </div>\n       <div class="action-bar col-sm-3 text-right">\n       </div>\n      </div>\n     </header>\n    </div>\n    <div data-folder-id="218339000" data-job-id="182634487" id="trackingIdentification" style="display: none;">\n    </div>\n    <div>\n     <div class="w-job-view container" id="JobViewContent">\n      <script type="application/ld+json">\n       {"title":"Clinical Research Associate","datePosted":"2017-04-19","description":"<span ID=\'TrackingJobBody\' NAME=\'TrackingJobBody\'> <p><strong>Job Title:  </strong> Clinical Study Associate</p><br /><br /><p><strong>Position Responsibilities</strong></p><br /><br /><br />\xe2\x80\xa2 Support the successful migration/indexing of clinical study trial Master files into the new eTMF system (Pharma TMF) through the provision of support to the CPSSO Study Accountable Person (SAP) and their Study Team members e.g. Clinical Development Scientists and Clinical Data Scientists (as appropriate)) to agreed quality and data integrity standards. <br />\xe2\x80\xa2 Provide support to the CPSSO clinical development or data scientist team members as needed (e.g. instream review of data, drafting and preparation of documents etc.) to support their TMF migration/indexing and study deliverable targets. <br />\xe2\x80\xa2 Serve as point of contact for the migration/indexing study teams for TMF matters, and liaise with the other TMF Subject Matter Experts (SMEs) and process owners to help their understanding of requirements and associated solutions to ensure the migrated and indexed TMFs are inspection ready <br />\xe2\x80\xa2 Support the analysis and identification of business problems/opportunities that may arise during the migration/indexing and, support the implementation of high quality solutions <br />\xe2\x80\xa2 Address requests in a timely and efficient manner <br />\xe2\x80\xa2 May assist in the development and delivery of training materials providing subject matter expertise and know how<br /><br /><br /><p><strong>Basic Qualifications</strong></p><br /><br /><br />\xe2\x80\xa2 Knowledge and experience of using clinical trial master file (TMF) systems (paper or electronic) and associated business processes <br />\xe2\x80\xa2 Knowledge of Trial Master File industry accepted standards, such as the DIA\'s TMF Reference Model <br />\xe2\x80\xa2 Knowledge of electronic document management applications (e.g., Documentum, SharePoint, Livelink) <br />\xe2\x80\xa2 Excellent working knowledge of International Conference on Harmonization/ Good Clinical Practice (ICH/GCP) regulations for sponsor study records <br />\xe2\x80\xa2 Excellent interpersonal skills, including the ability to establish and maintain effective working relationships with customers, peers and stakeholders <br />\xe2\x80\xa2 Proven record of being customer driven and providing effective consultation and training <br />\xe2\x80\xa2 Self starter, able to work in independence as well in matrix team environment <br />\xe2\x80\xa2 Analytical / logical, with superior attention to detail and an inclination to spot patterns and outliers<br /><br /><br /><p><strong>Preferred Qualifications</strong></p><br /><br /><br />\xe2\x80\xa2 Bachelors Degree in a scientific discipline <br />\xe2\x80\xa2 Minimum of 3 years experience from a CRO or Pharma working in clinical research, clinical operations or data scientist roles (eg Study Manager, Clinical Research Scientist, Clinical Data Scientist, Data Manager and/ or in records management). <br /><br /><br /><p><strong>Benefits</strong></p><br /><br /><br />\xe2\x80\xa2  Medical, Dental, and Vision Insurance <br />\xe2\x80\xa2  401K Plan with Company Match <br />\xe2\x80\xa2  Life and AD&D Insurance <br /><br /><br /> <br />     </span>","industry":["Biotechnology/Pharmaceuticals"],"employmentType":["FULL_TIME","CONTRACTOR"],"jobLocation":{"address":{"addressLocality":"Collegeville","@type":"PostalAddress"},"@type":"Place"},"hiringOrganization":{"name":"Randstad Life Sciences","@type":"Organization"},"identifier":{"name":"Randstad Life Sciences","value":"21060","@type":"PropertyValue"},"@context":"http://schema.org","@type":"JobPosting"}\n      </script>\n      <div class="row">\n       <div class="col-md-8">\n        <article class="panel panel-default m-job-view panel-body">\n         <div class="actions">\n          <a class="m-job-view-report-wide icon-before icon-open_in_new" data-at="report" href="/v2/job/communityfeedback?encjobid=EAAQB6OrH70Ao97r3Hmic_gNbQ--" target="_blank">\n           Report this job\n          </a>\n         </div>\n         <h4>\n          About the Job\n         </h4>\n         <div data-folder-id="218339000" data-is-cao="true" data-job-id="182634487" data-jsux="tracking" id="JobDescription">\n          <span id="TrackingJobBody" name="TrackingJobBody">\n           <p>\n            <strong>\n             Job Title:\n            </strong>\n            Clinical Study Associate\n           </p>\n           <br/>\n           <br/>\n           <p>\n            <strong>\n             Position Responsibilities\n            </strong>\n           </p>\n           <br/>\n           <br/>\n           <br/>\n           \xe2\x80\xa2 Support the successful migration/indexing of clinical study trial Master files into the new eTMF system (Pharma TMF) through the provision of support to the CPSSO Study Accountable Person (SAP) and their Study Team members e.g. Clinical Development Scientists and Clinical Data Scientists (as appropriate)) to agreed quality and data integrity standards.\n           <br/>\n           \xe2\x80\xa2 Provide support to the CPSSO clinical development or data scientist team members as needed (e.g. instream review of data, drafting and preparation of documents etc.) to support their TMF migration/indexing and study deliverable targets.\n           <br/>\n           \xe2\x80\xa2 Serve as point of contact for the migration/indexing study teams for TMF matters, and liaise with the other TMF Subject Matter Experts (SMEs) and process owners to help their understanding of requirements and associated solutions to ensure the migrated and indexed TMFs are inspection ready\n           <br/>\n           \xe2\x80\xa2 Support the analysis and identification of business problems/opportunities that may arise during the migration/indexing and, support the implementation of high quality solutions\n           <br/>\n           \xe2\x80\xa2 Address requests in a timely and efficient manner\n           <br/>\n           \xe2\x80\xa2 May assist in the development and delivery of training materials providing subject matter expertise and know how\n           <br/>\n           <br/>\n           <br/>\n           <p>\n            <strong>\n             Basic Qualifications\n            </strong>\n           </p>\n           <br/>\n           <br/>\n           <br/>\n           \xe2\x80\xa2 Knowledge and experience of using clinical trial master file (TMF) systems (paper or electronic) and associated business processes\n           <br/>\n           \xe2\x80\xa2 Knowledge of Trial Master File industry accepted standards, such as the DIA\'s TMF Reference Model\n           <br/>\n           \xe2\x80\xa2 Knowledge of electronic document management applications (e.g., Documentum, SharePoint, Livelink)\n           <br/>\n           \xe2\x80\xa2 Excellent working knowledge of International Conference on Harmonization/ Good Clinical Practice (ICH/GCP) regulations for sponsor study records\n           <br/>\n           \xe2\x80\xa2 Excellent interpersonal skills, including the ability to establish and maintain effective working relationships with customers, peers and stakeholders\n           <br/>\n           \xe2\x80\xa2 Proven record of being customer driven and providing effective consultation and training\n           <br/>\n           \xe2\x80\xa2 Self starter, able to work in independence as well in matrix team environment\n           <br/>\n           \xe2\x80\xa2 Analytical / logical, with superior attention to detail and an inclination to spot patterns and outliers\n           <br/>\n           <br/>\n           <br/>\n           <p>\n            <strong>\n             Preferred Qualifications\n            </strong>\n           </p>\n           <br/>\n           <br/>\n           <br/>\n           \xe2\x80\xa2 Bachelors Degree in a scientific discipline\n           <br/>\n           \xe2\x80\xa2 Minimum of 3 years experience from a CRO or Pharma working in clinical research, clinical operations or data scientist roles (eg Study Manager, Clinical Research Scientist, Clinical Data Scientist, Data Manager and/ or in records management).\n           <br/>\n           <br/>\n           <br/>\n           <p>\n            <strong>\n             Benefits\n            </strong>\n           </p>\n           <br/>\n           <br/>\n           <br/>\n           \xe2\x80\xa2  Medical, Dental, and Vision Insurance\n           <br/>\n           \xe2\x80\xa2  401K Plan with Company Match\n           <br/>\n           \xe2\x80\xa2  Life and AD&amp;D Insurance\n           <br/>\n           <br/>\n           <br/>\n           <br/>\n          </span>\n         </div>\n         <a aria-hidden="true" class="m-job-view-report-narrow icon-before icon-open_in_new" data-at="report" href="/v2/job/communityfeedback?encjobid=EAAQB6OrH70Ao97r3Hmic_gNbQ--">\n          Report\n         </a>\n        </article>\n        <div class="row company-media" data-breakpoints="xs,sm" data-jsux="responsiveDom" data-target="#AboutCompany" id="CompanyMedia">\n         <div class="col-md-6 sbt-gallery">\n          <div class="carousel slide panel panel-default" data-interval="false" data-jsux="carousel" id="carousel_mons">\n           <!-- Indicators -->\n           <ol class="carousel-indicators">\n            <li class="active" data-slide-to="0" data-target="#carousel_mons">\n            </li>\n            <li class="" data-slide-to="1" data-target="#carousel_mons">\n            </li>\n            <li class="" data-slide-to="2" data-target="#carousel_mons">\n            </li>\n           </ol>\n           <!-- Wrapper for slides -->\n           <div class="carousel-inner" role="listbox">\n            <div class="item active">\n             <img alt="" data-at="images" src="//media.newjobs.com/mm/xclinicx/cjt/img1.jpg"/>\n            </div>\n            <div class="item">\n             <img alt="" data-at="images" src="//media.newjobs.com/mm/xclinicx/cjt/img2.jpg"/>\n            </div>\n            <div class="item">\n             <img alt="" data-at="images" src="//media.newjobs.com/mm/xclinicx/cjt/img3.jpg"/>\n            </div>\n           </div>\n           <!-- Left and right controls -->\n           <a class="left carousel-control" data-at="images" data-slide="prev" href="#carousel_mons" role="button">\n            <span aria-hidden="true" class="glyphicon glyphicon-chevron-left icon-arrow-left icon-before">\n            </span>\n            <span class="sr-only">\n             Previous\n            </span>\n           </a>\n           <a class="right carousel-control" data-at="images" data-slide="next" href="#carousel_mons" role="button">\n            <span aria-hidden="true" class="glyphicon glyphicon-chevron-right icon-arrow-right icon-before">\n            </span>\n            <span class="sr-only">\n             Next\n            </span>\n           </a>\n          </div>\n          <!-- The Gallery as lightbox dialog, should be a child element of the document body -->\n          <div class="blueimp-gallery blueimp-gallery-controls" data-jsux="imageGallery" data-trigger=".company-media .carousel-inner">\n           <script type="application/json">\n            {"Caption":"","Images":[{"Src":"//media.newjobs.com/mm/xclinicx/cjt/img1.jpg","Title":null,"Text":null,"Caption":null},{"Src":"//media.newjobs.com/mm/xclinicx/cjt/img2.jpg","Title":null,"Text":null,"Caption":null},{"Src":"//media.newjobs.com/mm/xclinicx/cjt/img3.jpg","Title":null,"Text":null,"Caption":null}]}\n           </script>\n           <div class="slides">\n           </div>\n           <p class="title">\n           </p>\n           <a class="prev">\n            \xe2\x80\xb9\n           </a>\n           <a class="next">\n            \xe2\x80\xba\n           </a>\n           <a class="close">\n            \xc3\x97\n           </a>\n           <a class="play-pause">\n           </a>\n           <ol class="indicator">\n           </ol>\n          </div>\n         </div>\n        </div>\n       </div>\n       <div class="col-md-4">\n        <aside class="w-job-aside">\n         <div class="row">\n          <div class="col-sm-6 col-md-12">\n           <div class="panel panel-default">\n            <div class="panel-body m-job-summary" id="JobSummary">\n             <h4>\n              Job summary\n             </h4>\n             <section class="summary-section">\n              <header class="header">\n               <h2 class="key">\n                Location\n               </h2>\n               <h3 class="value">\n                Collegeville 19426\n               </h3>\n              </header>\n             </section>\n             <section class="summary-section">\n              <header class="header">\n               <h2 class="key">\n                Job type\n               </h2>\n               <h3 class="value">\n                Full Time, Temporary/Contract/Project\n               </h3>\n              </header>\n             </section>\n             <section class="summary-section">\n              <header class="header">\n               <h2 class="key">\n                Posted\n               </h2>\n               <h3 class="value">\n                Today\n               </h3>\n              </header>\n             </section>\n             <section class="summary-section">\n              <header class="header">\n               <h2 class="key">\n                Industries\n               </h2>\n               <h3 class="value">\n                Biotechnology/Pharmaceuticals\n               </h3>\n              </header>\n             </section>\n             <section class="summary-section">\n              <header class="header">\n               <h2 class="key">\n                Career level\n               </h2>\n               <h3 class="value">\n                Experienced (Non-Manager)\n               </h3>\n              </header>\n             </section>\n             <section class="summary-section">\n              <header class="header">\n               <h2 class="key text-muted">\n                Reference code\n               </h2>\n               <h3 class="value text-muted">\n                21060\n               </h3>\n              </header>\n             </section>\n             <button class="btn-unstyled visible-js more" data-at="jobsummary" data-jsux="toggleClass" data-target="#JobSummary">\n              <span class="icon-after icon-arrow-down">\n               View more info\n              </span>\n             </button>\n             <button class="btn-unstyled visible-js less" data-jsux="toggleClass" data-target="#JobSummary">\n              <span class="icon-after icon-arrow-up">\n               View less info\n              </span>\n             </button>\n            </div>\n           </div>\n           <div class="panel panel-default" id="ContactInfo">\n            <div class="panel-body m-job-summary" id="ContactInfo">\n             <h4>\n              Contact information\n             </h4>\n             <dl class="list-value-accent">\n              <dt>\n               Contact name\n              </dt>\n              <dd>\n               Randstad Life Sciences\n              </dd>\n              <dt>\n               Address\n              </dt>\n              <dd>\n               19426\n              </dd>\n             </dl>\n            </div>\n           </div>\n          </div>\n          <div class="col-sm-6 col-md-12">\n           <div class="panel panel-default" id="AboutCompany">\n            <div class="panel-body m-job-aboutcompany" data-companyprofilelink="#AboutCompanyProfileLink" data-followbox="#FollowBox" data-followboxexpander="#FollowBoxExpander" data-jsux="aboutCompany">\n             <span>\n              <a class="icon-after icon-arrow-down additional-info-expander" data-at="followcompany" href="#" id="FollowBoxExpander">\n               Follow\n              </a>\n             </span>\n             <div class="follow-info-box" id="FollowBox">\n              <h5>\n               Follow this company\n              </h5>\n              <a class="icon-before icon-fb" href="https://www.facebook.com/RandstadUS/" target="_blank">\n               <span class="sr-only">\n                FB\n               </span>\n              </a>\n              <a class="icon-before icon-tw" href="//twitter.com/RandstadLS" target="_blank">\n               <span class="sr-only">\n                TW\n               </span>\n              </a>\n             </div>\n             <span>\n              <h4>\n               About this company\n              </h4>\n             </span>\n             <h5>\n              Randstad Life Sciences\n             </h5>\n             <div class="panel-section">\n              <div class="company-logo" style="background-image:url(\'//media.newjobs.com/mm/xdeltasix/cjt1/logo.jpg\');">\n              </div>\n              <div class="company-ratings" data-apiurl="https://www.monster.com/Reviews/api/Profile/GetRatings" data-hideelementwhennorating=".company-reviews" data-jsux="starRatings">\n               <div class="kununu-star-rating-container" data-adobecatalystaccountname="newjobsprodjobviewus" data-channelid="58" data-companyname="Randstad Life Sciences" data-companyxcode="xdeltasix" data-messagetext="View reviews on" data-starrating-template="#starrating-template" style="display: block ;">\n                <meta itemprop="ratingValue"/>\n                <meta itemprop="reviewCount"/>\n               </div>\n              </div>\n             </div>\n             <div class="panel-section fade-container">\n              <div class="company-description fade-content">\n               <p>\n                Randstad Life Sciences serves as a staffing and recruiting partner to leading life sciences and biopharma companies throughout the United States. We bring 20 years of experience impacting our clients\xe2\x80\x99 businesses by finding top talent for roles in biopharma, chemical and cosmetics, food, manufacturing and testing, medical device, nutriceauticals and pharma. Through our exclusive focus on the life sciences, we have made thousands of employer/candidate matches in project and full-time jobs across the industry every year. Contact us today to see how partnering with Randstad Life Science can benefit you or your organization.\n               </p>\n              </div>\n             </div>\n             <div class="panel-section">\n              <div class="company-reviews hidden-js" data-apiurl="https://www.monster.com/Reviews/api/Reviews/GetReviews" data-channelid="58" data-companyxcode="xdeltasix" data-jsux="companyReviews" data-review-item-template="#review-item-template" data-reviews-element="#carousel-kununu-reviews">\n               <div class="carousel slide" data-interval="false" id="carousel-kununu-reviews">\n                <div class="carousel-inner" role="listbox">\n                </div>\n                <ol class="carousel-indicators">\n                </ol>\n               </div>\n              </div>\n              <!-- Templates -->\n              <script id="review-item-template" type="text/x-handlebars-template">\n               <div class="{{itemClasses}}">\r\n            <article class="m-list-item panel panel-default panel-body">\r\n                <p class="title">{{title}}</p>\r\n                <p class="excerpt fade-content"><span>{{excerpt}}</span></p>\r\n            </article>\r\n        </div>\n              </script>\n             </div>\n             <div class="panel-section">\n              <a data-at="companyprofileclick" href="http://www.monster.com/company/profiles/Randstad-Life-Sciences" id="AboutCompanyProfileLink" target="_blank">\n               View company profile\n              </a>\n             </div>\n            </div>\n           </div>\n           <div class="panel panel-default" data-breakpoints="xs,sm" data-jsux="responsiveDom" data-target="#ContactInfo" id="OtherJobs">\n            <div class="panel-body">\n             <div class="m-more-jobs">\n              <h4>\n               <span>\n                Jobs from Randstad Life Sciences\n               </span>\n              </h4>\n              <ul class="list-unstyled">\n               <li>\n                <a data-at="jobs" data-job-ad-pricing-type-id="1" data-job-id="182133734" data-job-title="Regulatory" data-jsux="adobeTrackingSameCompanyJobClick" data-m_impr_a_placement_id="JSR" data-m_impr_j_cid="559" data-m_impr_j_coc="xdeltasix" data-m_impr_j_jawsid="0" data-m_impr_j_jobid="182133734" data-m_impr_j_jpm="1" data-m_impr_j_jpt="1" data-m_impr_j_lat="-90.0001" data-m_impr_j_lid="342" data-m_impr_j_long="-180.0001" data-m_impr_j_occid="11921" data-m_impr_j_p="1" data-m_impr_j_postingid="" data-m_impr_j_pvc="monster" data-m_impr_uuid="7ccd754a-1220-40f3-bb6e-c8516aa8e312" href="http://jobview.monster.com/Regulatory-Job-San-Rafael-CA-US-182133735.aspx">\n                 Regulatory\n                </a>\n               </li>\n               <li>\n                <a data-at="jobs" data-job-ad-pricing-type-id="1" data-job-id="182129500" data-job-title="Bench Scientist" data-jsux="adobeTrackingSameCompanyJobClick" data-m_impr_a_placement_id="JSR" data-m_impr_j_cid="559" data-m_impr_j_coc="xdeltasix" data-m_impr_j_jawsid="0" data-m_impr_j_jobid="182129500" data-m_impr_j_jpm="1" data-m_impr_j_jpt="1" data-m_impr_j_lat="-90.0001" data-m_impr_j_lid="511" data-m_impr_j_long="-180.0001" data-m_impr_j_occid="11921" data-m_impr_j_p="2" data-m_impr_j_postingid="" data-m_impr_j_pvc="monster" data-m_impr_uuid="1a354a43-3a53-4b27-a775-f3c029584c48" href="http://jobview.monster.com/Bench-Scientist-Job-Zebulon-NC-US-182129501.aspx">\n                 Bench Scientist\n                </a>\n               </li>\n               <li>\n                <a data-at="jobs" data-job-ad-pricing-type-id="1" data-job-id="182110496" data-job-title="Pharmacy Technician" data-jsux="adobeTrackingSameCompanyJobClick" data-m_impr_a_placement_id="JSR" data-m_impr_j_cid="559" data-m_impr_j_coc="xdeltasix" data-m_impr_j_jawsid="0" data-m_impr_j_jobid="182110496" data-m_impr_j_jpm="1" data-m_impr_j_jpt="1" data-m_impr_j_lat="-90.0001" data-m_impr_j_lid="631" data-m_impr_j_long="-180.0001" data-m_impr_j_occid="11921" data-m_impr_j_p="3" data-m_impr_j_postingid="" data-m_impr_j_pvc="monster" data-m_impr_uuid="086e2849-2d9d-4951-9434-63b50003e6aa" href="http://jobview.monster.com/Pharmacy-Technician-Job-Lynchburg-VA-US-182110497.aspx">\n                 Pharmacy Technician\n                </a>\n               </li>\n               <li>\n                <a data-at="jobs" data-job-ad-pricing-type-id="1" data-job-id="182634702" data-job-title="Lab Technician" data-jsux="adobeTrackingSameCompanyJobClick" data-m_impr_a_placement_id="JSR" data-m_impr_j_cid="559" data-m_impr_j_coc="xdeltasix" data-m_impr_j_jawsid="0" data-m_impr_j_jobid="182634702" data-m_impr_j_jpm="1" data-m_impr_j_jpt="1" data-m_impr_j_lat="-90.0001" data-m_impr_j_lid="609" data-m_impr_j_long="-180.0001" data-m_impr_j_occid="11921" data-m_impr_j_p="4" data-m_impr_j_postingid="" data-m_impr_j_pvc="monster" data-m_impr_uuid="436bb25a-75de-451b-8598-4a1286c7a42e" href="http://jobview.monster.com/Lab-Technician-Job-Woodway-TX-US-182634703.aspx">\n                 Lab Technician\n                </a>\n               </li>\n               <li>\n                <a data-at="jobs" data-job-ad-pricing-type-id="1" data-job-id="182109037" data-job-title="R&amp;D Specialist" data-jsux="adobeTrackingSameCompanyJobClick" data-m_impr_a_placement_id="JSR" data-m_impr_j_cid="559" data-m_impr_j_coc="xdeltasix" data-m_impr_j_jawsid="0" data-m_impr_j_jobid="182109037" data-m_impr_j_jpm="1" data-m_impr_j_jpt="1" data-m_impr_j_lat="-90.0001" data-m_impr_j_lid="342" data-m_impr_j_long="-180.0001" data-m_impr_j_occid="11921" data-m_impr_j_p="6" data-m_impr_j_postingid="" data-m_impr_j_pvc="monster" data-m_impr_uuid="8d12c060-6b86-49fc-a196-ffce88c8664d" href="http://jobview.monster.com/R-D-Specialist-Job-Irvine-CA-US-182109038.aspx">\n                 R&amp;D Specialist\n                </a>\n               </li>\n              </ul>\n             </div>\n             <div class="m-more-jobs">\n              <h4>\n               Find more jobs\n              </h4>\n              <ul class="list-unstyled">\n               <li>\n                <a data-at="returntosearch" href="http://www.monster.com/jobs/q-biotech-r-d-science-jobs-l-collegeville,-.aspx" id="BackLink">\n                 Refine my job search\n                </a>\n               </li>\n              </ul>\n             </div>\n            </div>\n           </div>\n          </div>\n         </div>\n        </aside>\n       </div>\n      </div>\n     </div>\n    </div>\n    <div class="m-action-bar custom-apply" data-apply-button="#PrimaryJobApply,#speedApply" data-jsux="applyStart" data-tracking-properties="#ApplyStartTrackingProperties" id="JobApply">\n     <div class="container">\n      <div class="apply-panel" data-apply="https://www.randstadusa.com/jobs/search/job-details/137/21060/?utm_source=monster&amp;utm_campaign=job%20ads&amp;utm_medium=job%20post" data-at-jobapplyattribute="0_1_0" data-at-jobapplypagetype="SA" data-at-jobapplytypeavailable="App_Cstm" data-cbtn="#BodyCaoClose" data-cta="#BodyCaoApply" data-fninput="#BodyCaoFirstName" data-id="182634487" data-input="#BodyCaoEmailAddress" data-job-body-element="#JobDescription" data-jsux="caoSubscriber" data-lninput="#BodyCaoLastName" data-phinput="#BodyCaoPhone" data-redirect="http://job-openings.monster.com/v2/job/applyconfirmation?jobid=182634487&amp;redirectSource=apply&amp;fwr=true&amp;jv20=1" data-remote-subscription="/v2/subscription/caosubscribe" data-remote-validation="/v2/subscription/IsEmailValid" id="BodyCaoPanel">\n       <h5 class="form-title">\n        Enter your email address and receive more jobs like this\n       </h5>\n       <button class="btn btn-close" id="BodyCaoClose">\n        <span class="icon-after icon-close">\n         Close\n        </span>\n       </button>\n       <div class="form-group single">\n        <label class="form-label sr-only" for="BodyCaoEmailAddress">\n         Email Address\n        </label>\n        <input class="form-control" id="BodyCaoEmailAddress" maxlength="100" name="BodyCaoEmailAdress" placeholder="Your email address"/>\n       </div>\n       <a class="btn btn-primary btn-apply" data-at="apply" data-at-type="customapplyonline" id="BodyCaoApply" method="POST">\n        <span class="baselbl">\n         Apply\n        </span>\n        <span class="extension icon-after icon-open_in_new">\n         Continue to Apply\n        </span>\n       </a>\n       <span class="help-block">\n        By continuing you agree to Monster\'s\n        <a href="http://my.monster.com/Privacy/Default.aspx" target="_blank">\n         Privacy Policy\n        </a>\n        ,\n        <a href="http://my.monster.com/Terms/Default.aspx" target="_blank">\n         Terms of Use\n        </a>\n        and\n        <a href="http://inside.monster.com/cookie-info/inside2.aspx" target="_blank">\n         use of cookies\n        </a>\n        .\n       </span>\n      </div>\n      <div class="flyout visible" id="JobActions">\n       <a class="btn btn-link" data-at="SaveToFile" href="https://login.monster.com/Become-Member/Create-Account?ch=MONS&amp;at=apply&amp;redirect=http%3a%2f%2fjob-openings.monster.com%2fv2%2fjob%2fView%3fJobID%3d182634487%26savejob%3d1&amp;jobid=182634487" id="SaveJob">\n        <span class="icon-before icon-star">\n         <span class="text">\n          Save\n         </span>\n        </span>\n       </a>\n       <a class="btn btn-link" data-at="emailfriend" id="emailFriendOpen">\n        <span class="icon-before icon-email">\n         <span class="text">\n          Email\n         </span>\n        </span>\n       </a>\n      </div>\n      <button class="flyout-toggle visible btn btn-link icon icon-dots" data-jsux="toggleClass" data-target="#JobActions" id="JobActionsToggle">\n       <span class="sr-only">\n        ...\n       </span>\n      </button>\n      <div class="post-mail" data-closebtn="#emailFriendClose" data-closebtnconf="#saveAndCloseBtn" data-jobid="182634487" data-jsux="emailFriend" data-openbtn="#emailFriendOpen" data-remote-url="/v2/job/sendemailfriend" data-requirederror="Email is required\r\n" data-sendfrom="#EmailAddressSendFrom" data-sendto="#EmailAddressSendTo" data-validationerror="Email is not valid" id="emailFriendPanel">\n       <h5>\n        Email this job\n       </h5>\n       <button class="btn btn-close" id="emailFriendClose">\n        <span class="icon-after icon-close">\n         Close\n        </span>\n       </button>\n       <div class="form">\n        <div class="form-group">\n         <label class="form-label sr-only" for="EmailAddressSendFrom">\n          Your email\n         </label>\n         <input class="form-control" id="EmailAddressSendFrom" maxlength="100" name="SentFrom" placeholder="Your email\r\n"/>\n        </div>\n        <div class="form-group">\n         <label class="form-label sr-only" for="EmailAddressSendTo">\n          Email to send to\n         </label>\n         <input class="form-control" data-val-required="Email" id="EmailAddressSendTo" maxlength="100" name="SendTo" placeholder="Email to send to"/>\n        </div>\n        <div class="form-group">\n         <div class="g-recaptcha" data-enable="true" data-sitekey="6LfFxwwUAAAAAMb6IoJnE8q_cXbSoevLAyBTx8Pd">\n         </div>\n        </div>\n        <a class="btn btn-primary btn-block" data-id="">\n         Email this job\n        </a>\n       </div>\n       <span class="help-block" id="EmailAddressHelp">\n        Note: Email addresses will only be used for mail delivery of this job.\n       </span>\n      </div>\n      <script id="emailFriendPanelSuccess" type="text/template">\n       <div id="saveAndClose" class="saveAndClosePanel c-alert alert alert-success icon fade in" role="alert" data-jsux="alert">\r\n        <button id="saveAndCloseBtn" class="icon icon-close" type="button" aria-label="Close" data-dismiss="#saveAndClose">Close</button>\r\n        <p>This job has been emailed to {emailaddress}</p>\r\n    </div>\n      </script>\n     </div>\n    </div>\n    <div class="dimmer">\n    </div>\n    <script id="jobSaveInfo" type="text/template">\n     <div id="saveJob" class="c-alert alert alert-{alertClassType} icon fade in" role="alert" data-jsux="alert">\r\n      <button id="closeSaveJobBtn" class="close icon icon-close" type="button" aria-label="Close" data-dismiss="#saveJob">Close</button>\r\n      <p>{msg}</p>\r\n    </div>\n    </script>\n    <script id="starrating-template" type="text/x-handlebars-template">\n     <div>\r\n        <span class="star-rating-stars star-rating-stars-{{rating}}"></span>\r\n        <span class="star-rating-text"> ({{kununuMessageText}} \r\n            <a target="_blank" title="View {{companyName}} Reviews on Kununu" href="{{kununuUrl}}">\r\n                <img alt="Kununu Logo" src="//securemedia.newjobs.com/global/img/kununu/kununu_logo.png" class="kununu-star-rating-link">\r\n            </a>)\r\n        </span>\r\n    </div>\n    </script>\n    <script type="text/javascript">\n     var trackingSend = false;\r\n        var scTrackingSend = false;\r\n        require([\'at15\', \'jquery\', \'selectors\'], function (_m, $) {\r\n            // dynamic content links\r\n            var externalLinks = $(\'#JobDescription\').find(\'a:external\'),\r\n                emailLinks = $(\'#JobDescription\').find(\'a:email\'),\r\n                backLink = $(\'#BackLink\');\r\n            _m.ATM.registerConfig({ jQuerySelector: externalLinks, o: "o", eventType: "click", eventName: "eoi", vars: { \'events.event4\': \'true\', \'eVar34\': "Job Body Clicks" } });\r\n            _m.ATM.registerConfig({ jQuerySelector: emailLinks, o: "o", eventType: "click", eventName: "eoi", vars: { \'events.event4\': \'true\', \'eVar34\': "Job Body Email Clicks" } });\r\n            _m.ATM.registerConfig({ jQuerySelector: backLink, o: "o", eventType: "click", eventName: "eoi", vars: { \'events.event4\': \'true\', \'eVar34\': "Back to Job Search Results" }, adobeDoneAction: function () { window.location = $(\'#BackLink\').attr("href"); } });\r\n            // standard jobview links\r\n            _m.ATM.registerConfig({ jQuerySelector: "[data-at=\'SaveToFile\']", o: "o", eventType: "click", eventName: "eoi", vars: { \'events.event4\': \'true\', \'eVar34\': "Save Job" } });\r\n            _m.ATM.registerConfig({ jQuerySelector: "[data-at=\'report\']", o: "o", eventName: "eoi", vars: { \'events.event4\': \'true\', \'eVar34\': "Report this Job" } });\r\n            _m.ATM.registerConfig({ jQuerySelector: "[data-at=\'share\']", o: "o", eventName: "eoi", vars: { \'events.event4\': \'true\', \'eVar34\': "Share Job" } });\r\n            _m.ATM.registerConfig({ jQuerySelector: "[data-at=\'returntosearch\']", o: "o", eventType: "click", eventName: "eoi", vars: { \'events.event4\': \'true\', \'eVar34\': "Back to Job Search Results" }, adobeDoneAction: function () { window.location = $("[data-at=\'returntosearch\']").attr("href"); } });\r\n            _m.ATM.registerConfig({ jQuerySelector: "[data-at=\'similar-jobs\']", o: "o", eventType: "click", eventName: "eoi", vars: { \'events.event4\': \'true\', \'eVar34\': "View Similar Jobs" } });\r\n            _m.ATM.registerConfig({ jQuerySelector: "[data-at=\'location-jobs\']", o: "o", eventType: "click", eventName: "eoi", vars: { \'events.event4\': \'true\', \'eVar34\': "View Location Jobs" } });\r\n            _m.ATM.registerConfig({ jQuerySelector: "[data-at=\'jobs\']", o: "o", eventType: "click", eventName: "eoi", vars: { \'events.event4\': \'true\', \'eVar34\': "All Company Jobs" } });\r\n\r\n        });\r\n        require([\'canJs\', \'jquery\'], function (_m, $) {\r\n            $(document).ready(function () {\r\n                try\r\n                {\r\n                    if (typeof (monsterCan) != "undefined") {\r\n                        var ch = monsterCan.getPartnership("f530b397-a781-4f9b-8e44-14bdfa1d54f9");\r\n                        ch.trackPageview();\r\n                    }\r\n                }\r\n                catch (e) {\r\n                }\r\n            });\r\n        });\n    </script>\n   </div>\n   <footer class="w-page-footer" id="PageFooter" role="contentinfo">\n    <div class="container">\n     <nav class="m-legal-nav m-legal-nav-narrow">\n      <small class="copyright">\n       Copyright \xc2\xa9 2016 | Monster Worldwide\n      </small>\n      <small class="patents">\n       U.S. Patents No. 7,599,930 B1; 7,827,125 and 7,836,060\n      </small>\n      <small>\n       - V: 2017.4.0.396-941\n      </small>\n     </nav>\n     <nav class="m-legal-nav m-legal-nav-wide">\n      <small>\n       Copyright \xc2\xa9 2016 | Monster Worldwide U.S. Patents No. 7,599,930 B1; 7,827,125 and 7,836,060  - V: 2017.4.0.396-941\n      </small>\n     </nav>\n    </div>\n   </footer>\n  </div>\n  <script>\n   require([\'jsux\', \'polyfills\']);\n  </script>\n  <div style="display:none;">\n  </div>\n  <script src="https://logs.jobs.com/impression_trackingv2.js" type="text/javascript">\n  </script>\n </body>\n</html>\n'
tp2
a(S'http://jobview.monster.com/bench-scientist-job-king-of-prussia-us-182755694.aspx'
S'<!DOCTYPE html>\n<html>\n <head>\n  <meta charset="utf-8"/>\n  <title>\n   Randstad Life Sciences Job Application for Bench Scientist | Monster.com\n  </title>\n  <meta content="user-scalable=no, width=device-width, initial-scale=1, minimum-scale=1, maximum-scale=1" name="viewport"/>\n  <meta content="2017.4.0.396" name="DCS.release"/>\n  <script language="javascript" type="text/javascript">\n   var MONS_LOG_VARS = {"JobID":182755694,"ApplyType":"4","PopUpMessage":"Your pop-up blocking software is preventing proper operation of jobsearch site","EE":"EAAQrXuZmYIUF5avSTEZs5tdZQ--","ApplyOnlineUrl":"https://www.randstadusa.com/jobs/search/job-details/137/21098/?utm_source=monster&utm_campaign=job%20ads&utm_medium=job%20post","TrackingCompany":"Randstad Life Sciences","TrackingLogo":"http://company.monster.com/profiles/Randstad-Life-Sciences","YTA":0,"LogUrl":"LogUrl :\'http://jobview.monster.com/log.ashx?PositionAdID=182755694&folderid=218457511&tracking=EAAQbRxpwOLd6kCuFIT4sXKgWw--&logtype=","XCode":"xdeltasix"};\r\n\r\n      var clickLogQueue = {\r\n        registeredCallbacks: [],\r\n\r\n        registerCallback: function (fn) {\r\n          this.registeredCallbacks.push(fn);\r\n        },\r\n\r\n        proccessQueue: function (logType, href) {\r\n          var i, len;\r\n          for (i = 0, len = this.registeredCallbacks.length; i < len; i += 1) {\r\n            this.registeredCallbacks[i](logType, href);\r\n          }\r\n        }\r\n      }\r\n      function submitLog(log_src) {\r\n        if (document.images) {\r\n          submitLog.log_img[submitLog.log_ptr] = new Image;\r\n          submitLog.log_img[submitLog.log_ptr].src = log_src;\r\n          submitLog.log_ptr++;\r\n        }\r\n      }\r\n      submitLog.log_img = new Array;\r\n      submitLog.log_ptr = 0;\n  </script>\n  <link href="https://coda.newjobs.com/Assets/MUX/JaJobViewCloud/2017.04.0.82/css/main.css" rel="stylesheet" type="text/css"/>\n  <!--[if lt IE 9.0]><link href="https://coda.newjobs.com/Assets/MUX/JaJobViewCloud/2017.04.0.82/css/fallback.css" rel="stylesheet" /><![endif]-->\n  <link href="/v2/DynamicAssets/CssOverrides?ch=" rel="stylesheet" type="text/css"/>\n  <link href="http://media.newjobs.com/favicon.ico" rel="shortcut icon"/>\n  <meta content="telephone=no" name="format-detection"/>\n  <meta content="Complete the job application for Bench Scientist in King Of Prussia 19406 online today or find more job listings available at Randstad Life Sciences at Monster." name="description="/>\n  <link href="http://jobview.monster.com/bench-scientist-job-king-of-prussia-us-182755694.aspx" rel="canonical"/>\n  <meta content="all" name="robots"/>\n  <script src="//code.jquery.com/jquery-1.11.3.min.js">\n  </script>\n  <script src="https://coda.newjobs.com/Assets/MUX/JaJobViewCloud/2017.04.0.82/js/core.js">\n  </script>\n  <script>\n   requirejs.config({ baseUrl: \'https://coda.newjobs.com/Assets/MUX/JaJobViewCloud/2017.04.0.82/js/\' });\n  </script>\n  <script src="//securemedia.newjobs.com/mm/rainbow/coda/ubd/js/adobeVisitorAPI.js">\n  </script>\n  <script src="//securemedia.newjobs.com/global/js/mbox.js">\n  </script>\n  <script type="text/javascript">\n   requirejs.config({\r\n                paths: {\r\n                    \'recaptcha\': \'https://www.google.com/recaptcha/api.js?hl=en&render=explicit\'\r\n                }\r\n            });\n  </script>\n  <script>\n   var DYNAMIC_S_ACCOUNT = \'newjobsProdSeekerUS\';\r\n    var DYNAMIC_S_CURRENCYCODE = \'USD\';\r\n\r\n    requirejs.config({\r\n        paths: {\r\n            \'amc1\': \'//securemedia.newjobs.com/mm/rainbow/coda/ubd/js/adobeSiteCatalystLL\'\r\n        }\r\n    });\r\n\r\n    require([\'at15\'], function(_m) {\r\n        var isDOMready = function() {\r\n            return !!{interactive:1,complete:1}[document.readyState];\r\n        };\r\n        window._m = _m;\r\n\r\n        _m.ATM.properties = {"channel":"58","eVar1":"D=g","prop1":"D=g","eVar4":"0","eVar2":"unrecognized","eVar62":"1","eVar37":"0_1_0","eVar36":"App_Cstm","prop22":"Experienced (Non-Manager)","eVar28":"Biotech/R\\u0026D/Science","eVar29":"Biotechnology/Pharmaceuticals","eVar30":"Pharmaceutical Research","eVar33":"Full Time, Temporary/Contract/Project","eVar31":"King Of Prussia 19406","eVar25":"182755694_Bench Scientist Job in King Of Prussia 19406","eVar27":"34356","eVar26":"xdeltasix_Randstad Life Sciences","eVar35":"395925","eVar47":"Not Specified","eVar48":"Not Specified","eVar50":"Duration","eVar53":"1900267001001","events.event3":"true","eVar38":"SA","prop32":"JV_new","eVar57":"with branding","events.event30":"true"};\r\n        _m.ATM.pageName = \'desktop|mons|jobviewcloud|/job/view\';\r\n        _m.ATM.appConfig = { version:\'0\',appID:\'jobviewcloud\',channelID:\'58\',countryID:\'164\' };\r\n        _m.ATM.runOnLoad=true;\r\n\r\n\r\n        if (typeof window.addMonsterReady === \'function\') {\r\n            // TODO: reconsider addMonsterReady usage\r\n            window.addMonsterReady(_m.ATM.initFromOnReady);\r\n        } else if (isDOMready()) {\r\n            _m.ATM.initFromOnReady();\r\n        } else {\r\n            document.onreadystatechange = function() {\r\n                if (isDOMready()) {\r\n                    _m.ATM.initFromOnReady();\r\n                }\r\n            }\r\n        }\r\n\r\n        require([\'adobeTrackingAsync\'], function() {\r\n            require([\r\n                \'amc1\'\r\n            ]);\r\n        });\r\n    });\n  </script>\n  <script src="//nexus.ensighten.com/monster/Bootstrap.js" type="text/javascript">\n  </script>\n  <!--mgs begin-->\n  <!--mgs end-->\n </head>\n <body class="sbt">\n  <div style="display:none;">\n  </div>\n  <div class="w-page">\n   <header class="w-page-header" role="banner">\n    <div class="container">\n     <div class="m-logo" id="Logo">\n      <a class="link" href="http://www.monster.com">\n       <span class="newspaper">\n       </span>\n       <div class="brand">\n        <h1 class="name">\n         Monster\n        </h1>\n       </div>\n      </a>\n     </div>\n     <div class="m-skip-links">\n      <a href="#content">\n       Skip to main content\n      </a>\n     </div>\n    </div>\n   </header>\n   <div class="container w-alert">\n    <div class="alert-content" id="AlertContent">\n     <div class="c-alert alert alert-info icon fade in stretchUp" data-jsux="alert" id="SubscPanelAlert" role="alert">\n      <button aria-label="Close" class="close icon icon-close" data-dismiss="#SubscPanelAlert" id="closeSubscPanelBtn" type="button">\n       Close\n      </button>\n      <div class="c-subscribe stretchUp" id="SubscPanel">\n       <p class="headline">\n        <span>\n         Want more jobs like this?\n        </span>\n        <label class="icon-before icon-email" data-at="subscribe" data-jsux="toggleClass" data-prefix="stretch" data-target="#SubscPanel" data-value="Down" for="EmailAddress">\n         Subscribe\n        </label>\n       </p>\n       <fieldset class="dependent">\n        <legend>\n         Get new similar jobs by email\n        </legend>\n        <div class="form-inline" id="subscEmailAddress">\n         <div class="form-group">\n          <input aria-describedby="EmailAddressHelp" class="form-control input-lg input-promo" id="EmailAddress" maxlength="100" name="EmailAdress" placeholder="Please enter your email"/>\n         </div>\n         <a class="btn btn-lg btn-promo" data-div-id="#subscEmailAddress" data-event="subscribed" data-id="182755694" data-iscao="true" data-jsux="subscriber" data-privacyid="" data-remote-subscription="/v2/subscription/subscribe" data-target="#SubscPanel" href="#" method="POST">\n          Submit\n         </a>\n        </div>\n        <span class="help-block" id="EmailAddressHelp">\n         By continuing you agree to Monster\'s\n         <a href="http://my.monster.com/Privacy/Default.aspx" target="_blank">\n          Privacy Policy\n         </a>\n         ,\n         <a href="http://my.monster.com/Terms/Default.aspx" target="_blank">\n          Terms of Use\n         </a>\n         and\n         <a href="http://inside.monster.com/cookie-info/inside2.aspx" target="_blank">\n          use of cookies\n         </a>\n         .\n        </span>\n       </fieldset>\n      </div>\n     </div>\n     <script id="ApplySubscriptionThankYou" type="text/template">\n      <div id="ApplySubscriptionThankYouAlert" class="c-alert alert alert-success icon fade in" role="alert" data-jsux="alert">\r\n        <button id="closeApplySubscriptionThankYouBtn" class="close icon icon-close" type="button" aria-label="Close" data-dismiss="#ApplySubscriptionThankYouAlert">Close</button>\r\n        <p>We\'ll send jobs like this to: {emailaddress}</p>\r\n    </div>\n     </script>\n    </div>\n   </div>\n   <div class="w-page-content" id="content" role="main">\n    <div class="container">\n     <header class="panel panel-default m-fixed-header decorated jvflow">\n      <div class="w-company-banner">\n       <div class="company-banner" style="background-image:url(\'//media.newjobs.com/mm/xdeltasix/cjt1/banner.jpg\')">\n        <img alt="" src="//media.newjobs.com/mm/xdeltasix/cjt1/banner.jpg"/>\n       </div>\n      </div>\n      <div class="row">\n       <div class="opening col-sm-12">\n        <div class="company-logo loaded">\n         <img alt="Company Logo" src="//media.newjobs.com/mm/xdeltasix/cjt1/logo.jpg"/>\n        </div>\n        <h2>\n         Bench Scientist from Randstad Life Sciences\n        </h2>\n        <h3>\n         King Of Prussia 19406\n        </h3>\n       </div>\n       <div class="action-bar col-sm-3 text-right">\n       </div>\n      </div>\n     </header>\n    </div>\n    <div data-folder-id="218457511" data-job-id="182755694" id="trackingIdentification" style="display: none;">\n    </div>\n    <div>\n     <div class="w-job-view container" id="JobViewContent">\n      <script type="application/ld+json">\n       {"title":"Bench Scientist","datePosted":"2017-04-07","description":"<span ID=\'TrackingJobBody\' NAME=\'TrackingJobBody\'> <p><strong>Job Title:  </strong>  Bench Scientist - L1</p><br /><br /><p><strong>Where:</strong> King of Prussia, PA</p><br /><br /><p><strong>Contract: </strong>1 year</p><br /><br /><p><strong>Position Description</strong></p><br /><br /><br />\xe2\x80\xa2 The position plays a central role in supporting the development of products by generating, interpreting, and summarizing physical properties data.<br />\xe2\x80\xa2 These data packages are key to support portfolio progression from early to late phase project development including regulatory contribution to files.<br />\xe2\x80\xa2 This position will be laboratory focused, and will require the ability to run a broad range of instrumentation, a subset of which is GMP.  <br /><br /><br /><p><strong>Position Requirements</strong></p><br /><br /><br />\xe2\x80\xa2 Bachelor\'s or graduate degree in chemistry, pharmaceutical sciences or a related field <br />\xe2\x80\xa2 Knowledge and experience in performing laboratory procedures with Standard<br />\xe2\x80\xa2 Operating Procedures and in compliance with global pharmaceutical regulations and guidelines. <br />\xe2\x80\xa2 Has thorough knowledge of regulatory requirements and drug development process. <br />\xe2\x80\xa2 Plan, design and execute work/experimental programmes to further the course of a development project and enable key decisions. <br />\xe2\x80\xa2 Proven strong written and oral communication skills. <br />\xe2\x80\xa2 Interpersonal and teamwork skills as demonstrated by ability to interact with technical staff, investigators and management to accomplish department objectives. <br />\xe2\x80\xa2 General knowledge and experience in pharmaceutical solid state /physical properties analysis including the areas of powder X-Ray diffraction, particle sizing, thermal analysis, microscopy, and surface characterization. <br />\xe2\x80\xa2 Work seamlessly with other groups within Product Development as needed. <br />\xe2\x80\xa2 Experience in analytical method development, validation and transfer in a QbD environment. <br />\xe2\x80\xa2 Accurately record laboratory results within quality guidelines. <br />\xe2\x80\xa2 Knowledge and experience in laboratory safety and compliance, occupational health and environmental protection policies and regulations. <br />\xe2\x80\xa2 High quality standards in work performance with attention to detail, accuracy, consistency, and laboratory efficiency. <br />\xe2\x80\xa2 Demonstrates high standards of personal integrity and performance. <br />\xe2\x80\xa2 Responsible for following safety and quality standards within the team. <br />\xe2\x80\xa2 Responsible for coordinating the maintenance and service of some instruments. <br /><br /><br /><p>?Preferred Qualifications</p><br /><br /><br />\xe2\x80\xa2 3 years industry experience <br />\xe2\x80\xa2 Training or experience in one or more specific areas of solid state /physical properties analysis such as diffraction analysis, thermal analysis, surface characterization etc. <br />\xe2\x80\xa2 Experience with statistical analysis including design of experiments (DOE).  <br /><br /><br /><p><strong>Benefits</strong></p><br /><br /><br />\xe2\x80\xa2  Medical, Dental, and Vision Insurance <br />\xe2\x80\xa2  401K Plan with Company Match <br />\xe2\x80\xa2  Life and AD&D Insurance <br /><br /> <br />     </span>","industry":["Biotechnology/Pharmaceuticals"],"employmentType":["FULL_TIME","CONTRACTOR"],"jobLocation":{"address":{"addressLocality":"King of Prussia","@type":"PostalAddress"},"@type":"Place"},"hiringOrganization":{"name":"Randstad Life Sciences","@type":"Organization"},"identifier":{"name":"Randstad Life Sciences","value":"21098","@type":"PropertyValue"},"@context":"http://schema.org","@type":"JobPosting"}\n      </script>\n      <div class="row">\n       <div class="col-md-8">\n        <article class="panel panel-default m-job-view panel-body">\n         <div class="actions">\n          <a class="m-job-view-report-wide icon-before icon-open_in_new" data-at="report" href="/v2/job/communityfeedback?encjobid=EAAQxmVEvr4nTJcL4aAO89NYNw--" target="_blank">\n           Report this job\n          </a>\n         </div>\n         <h4>\n          About the Job\n         </h4>\n         <div data-folder-id="218457511" data-is-cao="true" data-job-id="182755694" data-jsux="tracking" id="JobDescription">\n          <span id="TrackingJobBody" name="TrackingJobBody">\n           <p>\n            <strong>\n             Job Title:\n            </strong>\n            Bench Scientist - L1\n           </p>\n           <br/>\n           <br/>\n           <p>\n            <strong>\n             Where:\n            </strong>\n            King of Prussia, PA\n           </p>\n           <br/>\n           <br/>\n           <p>\n            <strong>\n             Contract:\n            </strong>\n            1 year\n           </p>\n           <br/>\n           <br/>\n           <p>\n            <strong>\n             Position Description\n            </strong>\n           </p>\n           <br/>\n           <br/>\n           <br/>\n           \xe2\x80\xa2 The position plays a central role in supporting the development of products by generating, interpreting, and summarizing physical properties data.\n           <br/>\n           \xe2\x80\xa2 These data packages are key to support portfolio progression from early to late phase project development including regulatory contribution to files.\n           <br/>\n           \xe2\x80\xa2 This position will be laboratory focused, and will require the ability to run a broad range of instrumentation, a subset of which is GMP.\n           <br/>\n           <br/>\n           <br/>\n           <p>\n            <strong>\n             Position Requirements\n            </strong>\n           </p>\n           <br/>\n           <br/>\n           <br/>\n           \xe2\x80\xa2 Bachelor\'s or graduate degree in chemistry, pharmaceutical sciences or a related field\n           <br/>\n           \xe2\x80\xa2 Knowledge and experience in performing laboratory procedures with Standard\n           <br/>\n           \xe2\x80\xa2 Operating Procedures and in compliance with global pharmaceutical regulations and guidelines.\n           <br/>\n           \xe2\x80\xa2 Has thorough knowledge of regulatory requirements and drug development process.\n           <br/>\n           \xe2\x80\xa2 Plan, design and execute work/experimental programmes to further the course of a development project and enable key decisions.\n           <br/>\n           \xe2\x80\xa2 Proven strong written and oral communication skills.\n           <br/>\n           \xe2\x80\xa2 Interpersonal and teamwork skills as demonstrated by ability to interact with technical staff, investigators and management to accomplish department objectives.\n           <br/>\n           \xe2\x80\xa2 General knowledge and experience in pharmaceutical solid state /physical properties analysis including the areas of powder X-Ray diffraction, particle sizing, thermal analysis, microscopy, and surface characterization.\n           <br/>\n           \xe2\x80\xa2 Work seamlessly with other groups within Product Development as needed.\n           <br/>\n           \xe2\x80\xa2 Experience in analytical method development, validation and transfer in a QbD environment.\n           <br/>\n           \xe2\x80\xa2 Accurately record laboratory results within quality guidelines.\n           <br/>\n           \xe2\x80\xa2 Knowledge and experience in laboratory safety and compliance, occupational health and environmental protection policies and regulations.\n           <br/>\n           \xe2\x80\xa2 High quality standards in work performance with attention to detail, accuracy, consistency, and laboratory efficiency.\n           <br/>\n           \xe2\x80\xa2 Demonstrates high standards of personal integrity and performance.\n           <br/>\n           \xe2\x80\xa2 Responsible for following safety and quality standards within the team.\n           <br/>\n           \xe2\x80\xa2 Responsible for coordinating the maintenance and service of some instruments.\n           <br/>\n           <br/>\n           <br/>\n           <p>\n            ?Preferred Qualifications\n           </p>\n           <br/>\n           <br/>\n           <br/>\n           \xe2\x80\xa2 3 years industry experience\n           <br/>\n           \xe2\x80\xa2 Training or experience in one or more specific areas of solid state /physical properties analysis such as diffraction analysis, thermal analysis, surface characterization etc.\n           <br/>\n           \xe2\x80\xa2 Experience with statistical analysis including design of experiments (DOE).\n           <br/>\n           <br/>\n           <br/>\n           <p>\n            <strong>\n             Benefits\n            </strong>\n           </p>\n           <br/>\n           <br/>\n           <br/>\n           \xe2\x80\xa2  Medical, Dental, and Vision Insurance\n           <br/>\n           \xe2\x80\xa2  401K Plan with Company Match\n           <br/>\n           \xe2\x80\xa2  Life and AD&amp;D Insurance\n           <br/>\n           <br/>\n           <br/>\n          </span>\n         </div>\n         <a aria-hidden="true" class="m-job-view-report-narrow icon-before icon-open_in_new" data-at="report" href="/v2/job/communityfeedback?encjobid=EAAQxmVEvr4nTJcL4aAO89NYNw--">\n          Report\n         </a>\n        </article>\n        <div class="row company-media" data-breakpoints="xs,sm" data-jsux="responsiveDom" data-target="#AboutCompany" id="CompanyMedia">\n         <div class="col-md-6 sbt-gallery">\n          <div class="carousel slide panel panel-default" data-interval="false" data-jsux="carousel" id="carousel_mons">\n           <!-- Indicators -->\n           <ol class="carousel-indicators">\n            <li class="active" data-slide-to="0" data-target="#carousel_mons">\n            </li>\n            <li class="" data-slide-to="1" data-target="#carousel_mons">\n            </li>\n            <li class="" data-slide-to="2" data-target="#carousel_mons">\n            </li>\n           </ol>\n           <!-- Wrapper for slides -->\n           <div class="carousel-inner" role="listbox">\n            <div class="item active">\n             <img alt="" data-at="images" src="//media.newjobs.com/mm/xclinicx/cjt/img1.jpg"/>\n            </div>\n            <div class="item">\n             <img alt="" data-at="images" src="//media.newjobs.com/mm/xclinicx/cjt/img2.jpg"/>\n            </div>\n            <div class="item">\n             <img alt="" data-at="images" src="//media.newjobs.com/mm/xclinicx/cjt/img3.jpg"/>\n            </div>\n           </div>\n           <!-- Left and right controls -->\n           <a class="left carousel-control" data-at="images" data-slide="prev" href="#carousel_mons" role="button">\n            <span aria-hidden="true" class="glyphicon glyphicon-chevron-left icon-arrow-left icon-before">\n            </span>\n            <span class="sr-only">\n             Previous\n            </span>\n           </a>\n           <a class="right carousel-control" data-at="images" data-slide="next" href="#carousel_mons" role="button">\n            <span aria-hidden="true" class="glyphicon glyphicon-chevron-right icon-arrow-right icon-before">\n            </span>\n            <span class="sr-only">\n             Next\n            </span>\n           </a>\n          </div>\n          <!-- The Gallery as lightbox dialog, should be a child element of the document body -->\n          <div class="blueimp-gallery blueimp-gallery-controls" data-jsux="imageGallery" data-trigger=".company-media .carousel-inner">\n           <script type="application/json">\n            {"Caption":"","Images":[{"Src":"//media.newjobs.com/mm/xclinicx/cjt/img1.jpg","Title":null,"Text":null,"Caption":null},{"Src":"//media.newjobs.com/mm/xclinicx/cjt/img2.jpg","Title":null,"Text":null,"Caption":null},{"Src":"//media.newjobs.com/mm/xclinicx/cjt/img3.jpg","Title":null,"Text":null,"Caption":null}]}\n           </script>\n           <div class="slides">\n           </div>\n           <p class="title">\n           </p>\n           <a class="prev">\n            \xe2\x80\xb9\n           </a>\n           <a class="next">\n            \xe2\x80\xba\n           </a>\n           <a class="close">\n            \xc3\x97\n           </a>\n           <a class="play-pause">\n           </a>\n           <ol class="indicator">\n           </ol>\n          </div>\n         </div>\n        </div>\n       </div>\n       <div class="col-md-4">\n        <aside class="w-job-aside">\n         <div class="row">\n          <div class="col-sm-6 col-md-12">\n           <div class="panel panel-default">\n            <div class="panel-body m-job-summary" id="JobSummary">\n             <h4>\n              Job summary\n             </h4>\n             <section class="summary-section">\n              <header class="header">\n               <h2 class="key">\n                Location\n               </h2>\n               <h3 class="value">\n                King Of Prussia 19406\n               </h3>\n              </header>\n             </section>\n             <section class="summary-section">\n              <header class="header">\n               <h2 class="key">\n                Job type\n               </h2>\n               <h3 class="value">\n                Full Time, Temporary/Contract/Project\n               </h3>\n              </header>\n             </section>\n             <section class="summary-section">\n              <header class="header">\n               <h2 class="key">\n                Posted\n               </h2>\n               <h3 class="value">\n                12 Days ago\n               </h3>\n              </header>\n             </section>\n             <section class="summary-section">\n              <header class="header">\n               <h2 class="key">\n                Industries\n               </h2>\n               <h3 class="value">\n                Biotechnology/Pharmaceuticals\n               </h3>\n              </header>\n             </section>\n             <section class="summary-section">\n              <header class="header">\n               <h2 class="key">\n                Career level\n               </h2>\n               <h3 class="value">\n                Experienced (Non-Manager)\n               </h3>\n              </header>\n             </section>\n             <section class="summary-section">\n              <header class="header">\n               <h2 class="key text-muted">\n                Reference code\n               </h2>\n               <h3 class="value text-muted">\n                21098\n               </h3>\n              </header>\n             </section>\n             <button class="btn-unstyled visible-js more" data-at="jobsummary" data-jsux="toggleClass" data-target="#JobSummary">\n              <span class="icon-after icon-arrow-down">\n               View more info\n              </span>\n             </button>\n             <button class="btn-unstyled visible-js less" data-jsux="toggleClass" data-target="#JobSummary">\n              <span class="icon-after icon-arrow-up">\n               View less info\n              </span>\n             </button>\n            </div>\n           </div>\n           <div class="panel panel-default" id="ContactInfo">\n            <div class="panel-body m-job-summary" id="ContactInfo">\n             <h4>\n              Contact information\n             </h4>\n             <dl class="list-value-accent">\n              <dt>\n               Contact name\n              </dt>\n              <dd>\n               Randstad Life Sciences\n              </dd>\n              <dt>\n               Address\n              </dt>\n              <dd>\n               19406\n              </dd>\n             </dl>\n            </div>\n           </div>\n          </div>\n          <div class="col-sm-6 col-md-12">\n           <div class="panel panel-default" id="AboutCompany">\n            <div class="panel-body m-job-aboutcompany" data-companyprofilelink="#AboutCompanyProfileLink" data-followbox="#FollowBox" data-followboxexpander="#FollowBoxExpander" data-jsux="aboutCompany">\n             <span>\n              <a class="icon-after icon-arrow-down additional-info-expander" data-at="followcompany" href="#" id="FollowBoxExpander">\n               Follow\n              </a>\n             </span>\n             <div class="follow-info-box" id="FollowBox">\n              <h5>\n               Follow this company\n              </h5>\n              <a class="icon-before icon-fb" href="https://www.facebook.com/RandstadUS/" target="_blank">\n               <span class="sr-only">\n                FB\n               </span>\n              </a>\n              <a class="icon-before icon-tw" href="//twitter.com/RandstadLS" target="_blank">\n               <span class="sr-only">\n                TW\n               </span>\n              </a>\n             </div>\n             <span>\n              <h4>\n               About this company\n              </h4>\n             </span>\n             <h5>\n              Randstad Life Sciences\n             </h5>\n             <div class="panel-section">\n              <div class="company-logo" style="background-image:url(\'//media.newjobs.com/mm/xdeltasix/cjt1/logo.jpg\');">\n              </div>\n              <div class="company-ratings" data-apiurl="https://www.monster.com/Reviews/api/Profile/GetRatings" data-hideelementwhennorating=".company-reviews" data-jsux="starRatings">\n               <div class="kununu-star-rating-container" data-adobecatalystaccountname="newjobsprodjobviewus" data-channelid="58" data-companyname="Randstad Life Sciences" data-companyxcode="xdeltasix" data-messagetext="View reviews on" data-starrating-template="#starrating-template" style="display: block ;">\n                <meta itemprop="ratingValue"/>\n                <meta itemprop="reviewCount"/>\n               </div>\n              </div>\n             </div>\n             <div class="panel-section fade-container">\n              <div class="company-description fade-content">\n               <p>\n                Randstad Life Sciences serves as a staffing and recruiting partner to leading life sciences and biopharma companies throughout the United States. We bring 20 years of experience impacting our clients\xe2\x80\x99 businesses by finding top talent for roles in biopharma, chemical and cosmetics, food, manufacturing and testing, medical device, nutriceauticals and pharma. Through our exclusive focus on the life sciences, we have made thousands of employer/candidate matches in project and full-time jobs across the industry every year. Contact us today to see how partnering with Randstad Life Science can benefit you or your organization.\n               </p>\n              </div>\n             </div>\n             <div class="panel-section">\n              <div class="company-reviews hidden-js" data-apiurl="https://www.monster.com/Reviews/api/Reviews/GetReviews" data-channelid="58" data-companyxcode="xdeltasix" data-jsux="companyReviews" data-review-item-template="#review-item-template" data-reviews-element="#carousel-kununu-reviews">\n               <div class="carousel slide" data-interval="false" id="carousel-kununu-reviews">\n                <div class="carousel-inner" role="listbox">\n                </div>\n                <ol class="carousel-indicators">\n                </ol>\n               </div>\n              </div>\n              <!-- Templates -->\n              <script id="review-item-template" type="text/x-handlebars-template">\n               <div class="{{itemClasses}}">\r\n            <article class="m-list-item panel panel-default panel-body">\r\n                <p class="title">{{title}}</p>\r\n                <p class="excerpt fade-content"><span>{{excerpt}}</span></p>\r\n            </article>\r\n        </div>\n              </script>\n             </div>\n             <div class="panel-section">\n              <a data-at="companyprofileclick" href="http://www.monster.com/company/profiles/Randstad-Life-Sciences" id="AboutCompanyProfileLink" target="_blank">\n               View company profile\n              </a>\n             </div>\n            </div>\n           </div>\n           <div class="panel panel-default" data-breakpoints="xs,sm" data-jsux="responsiveDom" data-target="#ContactInfo" id="OtherJobs">\n            <div class="panel-body">\n             <div class="m-more-jobs">\n              <h4>\n               <span>\n                Jobs from Randstad Life Sciences\n               </span>\n              </h4>\n              <ul class="list-unstyled">\n               <li>\n                <a data-at="jobs" data-job-ad-pricing-type-id="1" data-job-id="182133734" data-job-title="Regulatory" data-jsux="adobeTrackingSameCompanyJobClick" data-m_impr_a_placement_id="JSR" data-m_impr_j_cid="559" data-m_impr_j_coc="xdeltasix" data-m_impr_j_jawsid="0" data-m_impr_j_jobid="182133734" data-m_impr_j_jpm="1" data-m_impr_j_jpt="1" data-m_impr_j_lat="-90.0001" data-m_impr_j_lid="342" data-m_impr_j_long="-180.0001" data-m_impr_j_occid="11921" data-m_impr_j_p="1" data-m_impr_j_postingid="" data-m_impr_j_pvc="monster" data-m_impr_uuid="75ea1629-2ad6-4db1-8393-9164ab86f2cc" href="http://jobview.monster.com/Regulatory-Job-San-Rafael-CA-US-182133735.aspx">\n                 Regulatory\n                </a>\n               </li>\n               <li>\n                <a data-at="jobs" data-job-ad-pricing-type-id="1" data-job-id="182129500" data-job-title="Bench Scientist" data-jsux="adobeTrackingSameCompanyJobClick" data-m_impr_a_placement_id="JSR" data-m_impr_j_cid="559" data-m_impr_j_coc="xdeltasix" data-m_impr_j_jawsid="0" data-m_impr_j_jobid="182129500" data-m_impr_j_jpm="1" data-m_impr_j_jpt="1" data-m_impr_j_lat="-90.0001" data-m_impr_j_lid="511" data-m_impr_j_long="-180.0001" data-m_impr_j_occid="11921" data-m_impr_j_p="2" data-m_impr_j_postingid="" data-m_impr_j_pvc="monster" data-m_impr_uuid="935e10d8-477d-43c3-8463-529465d07eae" href="http://jobview.monster.com/Bench-Scientist-Job-Zebulon-NC-US-182129501.aspx">\n                 Bench Scientist\n                </a>\n               </li>\n               <li>\n                <a data-at="jobs" data-job-ad-pricing-type-id="1" data-job-id="182110496" data-job-title="Pharmacy Technician" data-jsux="adobeTrackingSameCompanyJobClick" data-m_impr_a_placement_id="JSR" data-m_impr_j_cid="559" data-m_impr_j_coc="xdeltasix" data-m_impr_j_jawsid="0" data-m_impr_j_jobid="182110496" data-m_impr_j_jpm="1" data-m_impr_j_jpt="1" data-m_impr_j_lat="-90.0001" data-m_impr_j_lid="631" data-m_impr_j_long="-180.0001" data-m_impr_j_occid="11921" data-m_impr_j_p="3" data-m_impr_j_postingid="" data-m_impr_j_pvc="monster" data-m_impr_uuid="22f53e2a-7b68-4158-89d7-2a3de08cd7a1" href="http://jobview.monster.com/Pharmacy-Technician-Job-Lynchburg-VA-US-182110497.aspx">\n                 Pharmacy Technician\n                </a>\n               </li>\n               <li>\n                <a data-at="jobs" data-job-ad-pricing-type-id="1" data-job-id="182634702" data-job-title="Lab Technician" data-jsux="adobeTrackingSameCompanyJobClick" data-m_impr_a_placement_id="JSR" data-m_impr_j_cid="559" data-m_impr_j_coc="xdeltasix" data-m_impr_j_jawsid="0" data-m_impr_j_jobid="182634702" data-m_impr_j_jpm="1" data-m_impr_j_jpt="1" data-m_impr_j_lat="-90.0001" data-m_impr_j_lid="609" data-m_impr_j_long="-180.0001" data-m_impr_j_occid="11921" data-m_impr_j_p="4" data-m_impr_j_postingid="" data-m_impr_j_pvc="monster" data-m_impr_uuid="8df39371-6a7d-4ba1-966a-76350e6b0752" href="http://jobview.monster.com/Lab-Technician-Job-Woodway-TX-US-182634703.aspx">\n                 Lab Technician\n                </a>\n               </li>\n               <li>\n                <a data-at="jobs" data-job-ad-pricing-type-id="1" data-job-id="182634487" data-job-title="Clinical Research Associate" data-jsux="adobeTrackingSameCompanyJobClick" data-m_impr_a_placement_id="JSR" data-m_impr_j_cid="559" data-m_impr_j_coc="xdeltasix" data-m_impr_j_jawsid="0" data-m_impr_j_jobid="182634487" data-m_impr_j_jpm="1" data-m_impr_j_jpt="1" data-m_impr_j_lat="-90.0001" data-m_impr_j_lid="98" data-m_impr_j_long="-180.0001" data-m_impr_j_occid="11921" data-m_impr_j_p="5" data-m_impr_j_postingid="" data-m_impr_j_pvc="monster" data-m_impr_uuid="8b77b253-c8fa-44e7-b02c-7bdd37fdac4a" href="http://jobview.monster.com/Clinical-Research-Associate-Job-Collegeville-US-182634488.aspx">\n                 Clinical Research Associate\n                </a>\n               </li>\n              </ul>\n             </div>\n             <div class="m-more-jobs">\n              <h4>\n               Find more jobs\n              </h4>\n              <ul class="list-unstyled">\n               <li>\n                <a data-at="returntosearch" href="http://www.monster.com/jobs/q-biotech-r-d-science-jobs-l-king-of-prussia,-.aspx" id="BackLink">\n                 Refine my job search\n                </a>\n               </li>\n              </ul>\n             </div>\n            </div>\n           </div>\n          </div>\n         </div>\n        </aside>\n       </div>\n      </div>\n     </div>\n    </div>\n    <div class="m-action-bar custom-apply" data-apply-button="#PrimaryJobApply,#speedApply" data-jsux="applyStart" data-tracking-properties="#ApplyStartTrackingProperties" id="JobApply">\n     <div class="container">\n      <div class="apply-panel" data-apply="https://www.randstadusa.com/jobs/search/job-details/137/21098/?utm_source=monster&amp;utm_campaign=job%20ads&amp;utm_medium=job%20post" data-at-jobapplyattribute="0_1_0" data-at-jobapplypagetype="SA" data-at-jobapplytypeavailable="App_Cstm" data-cbtn="#BodyCaoClose" data-cta="#BodyCaoApply" data-fninput="#BodyCaoFirstName" data-id="182755694" data-input="#BodyCaoEmailAddress" data-job-body-element="#JobDescription" data-jsux="caoSubscriber" data-lninput="#BodyCaoLastName" data-phinput="#BodyCaoPhone" data-redirect="http://job-openings.monster.com/v2/job/applyconfirmation?jobid=182755694&amp;redirectSource=apply&amp;fwr=true&amp;jv20=1" data-remote-subscription="/v2/subscription/caosubscribe" data-remote-validation="/v2/subscription/IsEmailValid" id="BodyCaoPanel">\n       <h5 class="form-title">\n        Enter your email address and receive more jobs like this\n       </h5>\n       <button class="btn btn-close" id="BodyCaoClose">\n        <span class="icon-after icon-close">\n         Close\n        </span>\n       </button>\n       <div class="form-group single">\n        <label class="form-label sr-only" for="BodyCaoEmailAddress">\n         Email Address\n        </label>\n        <input class="form-control" id="BodyCaoEmailAddress" maxlength="100" name="BodyCaoEmailAdress" placeholder="Your email address"/>\n       </div>\n       <a class="btn btn-primary btn-apply" data-at="apply" data-at-type="customapplyonline" id="BodyCaoApply" method="POST">\n        <span class="baselbl">\n         Apply\n        </span>\n        <span class="extension icon-after icon-open_in_new">\n         Continue to Apply\n        </span>\n       </a>\n       <span class="help-block">\n        By continuing you agree to Monster\'s\n        <a href="http://my.monster.com/Privacy/Default.aspx" target="_blank">\n         Privacy Policy\n        </a>\n        ,\n        <a href="http://my.monster.com/Terms/Default.aspx" target="_blank">\n         Terms of Use\n        </a>\n        and\n        <a href="http://inside.monster.com/cookie-info/inside2.aspx" target="_blank">\n         use of cookies\n        </a>\n        .\n       </span>\n      </div>\n      <div class="flyout visible" id="JobActions">\n       <a class="btn btn-link" data-at="SaveToFile" href="https://login.monster.com/Become-Member/Create-Account?ch=MONS&amp;at=apply&amp;redirect=http%3a%2f%2fjob-openings.monster.com%2fv2%2fjob%2fView%3fJobID%3d182755694%26savejob%3d1&amp;jobid=182755694" id="SaveJob">\n        <span class="icon-before icon-star">\n         <span class="text">\n          Save\n         </span>\n        </span>\n       </a>\n       <a class="btn btn-link" data-at="emailfriend" id="emailFriendOpen">\n        <span class="icon-before icon-email">\n         <span class="text">\n          Email\n         </span>\n        </span>\n       </a>\n      </div>\n      <button class="flyout-toggle visible btn btn-link icon icon-dots" data-jsux="toggleClass" data-target="#JobActions" id="JobActionsToggle">\n       <span class="sr-only">\n        ...\n       </span>\n      </button>\n      <div class="post-mail" data-closebtn="#emailFriendClose" data-closebtnconf="#saveAndCloseBtn" data-jobid="182755694" data-jsux="emailFriend" data-openbtn="#emailFriendOpen" data-remote-url="/v2/job/sendemailfriend" data-requirederror="Email is required\r\n" data-sendfrom="#EmailAddressSendFrom" data-sendto="#EmailAddressSendTo" data-validationerror="Email is not valid" id="emailFriendPanel">\n       <h5>\n        Email this job\n       </h5>\n       <button class="btn btn-close" id="emailFriendClose">\n        <span class="icon-after icon-close">\n         Close\n        </span>\n       </button>\n       <div class="form">\n        <div class="form-group">\n         <label class="form-label sr-only" for="EmailAddressSendFrom">\n          Your email\n         </label>\n         <input class="form-control" id="EmailAddressSendFrom" maxlength="100" name="SentFrom" placeholder="Your email\r\n"/>\n        </div>\n        <div class="form-group">\n         <label class="form-label sr-only" for="EmailAddressSendTo">\n          Email to send to\n         </label>\n         <input class="form-control" data-val-required="Email" id="EmailAddressSendTo" maxlength="100" name="SendTo" placeholder="Email to send to"/>\n        </div>\n        <div class="form-group">\n         <div class="g-recaptcha" data-enable="true" data-sitekey="6LfFxwwUAAAAAMb6IoJnE8q_cXbSoevLAyBTx8Pd">\n         </div>\n        </div>\n        <a class="btn btn-primary btn-block" data-id="">\n         Email this job\n        </a>\n       </div>\n       <span class="help-block" id="EmailAddressHelp">\n        Note: Email addresses will only be used for mail delivery of this job.\n       </span>\n      </div>\n      <script id="emailFriendPanelSuccess" type="text/template">\n       <div id="saveAndClose" class="saveAndClosePanel c-alert alert alert-success icon fade in" role="alert" data-jsux="alert">\r\n        <button id="saveAndCloseBtn" class="icon icon-close" type="button" aria-label="Close" data-dismiss="#saveAndClose">Close</button>\r\n        <p>This job has been emailed to {emailaddress}</p>\r\n    </div>\n      </script>\n     </div>\n    </div>\n    <div class="dimmer">\n    </div>\n    <script id="jobSaveInfo" type="text/template">\n     <div id="saveJob" class="c-alert alert alert-{alertClassType} icon fade in" role="alert" data-jsux="alert">\r\n      <button id="closeSaveJobBtn" class="close icon icon-close" type="button" aria-label="Close" data-dismiss="#saveJob">Close</button>\r\n      <p>{msg}</p>\r\n    </div>\n    </script>\n    <script id="starrating-template" type="text/x-handlebars-template">\n     <div>\r\n        <span class="star-rating-stars star-rating-stars-{{rating}}"></span>\r\n        <span class="star-rating-text"> ({{kununuMessageText}} \r\n            <a target="_blank" title="View {{companyName}} Reviews on Kununu" href="{{kununuUrl}}">\r\n                <img alt="Kununu Logo" src="//securemedia.newjobs.com/global/img/kununu/kununu_logo.png" class="kununu-star-rating-link">\r\n            </a>)\r\n        </span>\r\n    </div>\n    </script>\n    <script type="text/javascript">\n     var trackingSend = false;\r\n        var scTrackingSend = false;\r\n        require([\'at15\', \'jquery\', \'selectors\'], function (_m, $) {\r\n            // dynamic content links\r\n            var externalLinks = $(\'#JobDescription\').find(\'a:external\'),\r\n                emailLinks = $(\'#JobDescription\').find(\'a:email\'),\r\n                backLink = $(\'#BackLink\');\r\n            _m.ATM.registerConfig({ jQuerySelector: externalLinks, o: "o", eventType: "click", eventName: "eoi", vars: { \'events.event4\': \'true\', \'eVar34\': "Job Body Clicks" } });\r\n            _m.ATM.registerConfig({ jQuerySelector: emailLinks, o: "o", eventType: "click", eventName: "eoi", vars: { \'events.event4\': \'true\', \'eVar34\': "Job Body Email Clicks" } });\r\n            _m.ATM.registerConfig({ jQuerySelector: backLink, o: "o", eventType: "click", eventName: "eoi", vars: { \'events.event4\': \'true\', \'eVar34\': "Back to Job Search Results" }, adobeDoneAction: function () { window.location = $(\'#BackLink\').attr("href"); } });\r\n            // standard jobview links\r\n            _m.ATM.registerConfig({ jQuerySelector: "[data-at=\'SaveToFile\']", o: "o", eventType: "click", eventName: "eoi", vars: { \'events.event4\': \'true\', \'eVar34\': "Save Job" } });\r\n            _m.ATM.registerConfig({ jQuerySelector: "[data-at=\'report\']", o: "o", eventName: "eoi", vars: { \'events.event4\': \'true\', \'eVar34\': "Report this Job" } });\r\n            _m.ATM.registerConfig({ jQuerySelector: "[data-at=\'share\']", o: "o", eventName: "eoi", vars: { \'events.event4\': \'true\', \'eVar34\': "Share Job" } });\r\n            _m.ATM.registerConfig({ jQuerySelector: "[data-at=\'returntosearch\']", o: "o", eventType: "click", eventName: "eoi", vars: { \'events.event4\': \'true\', \'eVar34\': "Back to Job Search Results" }, adobeDoneAction: function () { window.location = $("[data-at=\'returntosearch\']").attr("href"); } });\r\n            _m.ATM.registerConfig({ jQuerySelector: "[data-at=\'similar-jobs\']", o: "o", eventType: "click", eventName: "eoi", vars: { \'events.event4\': \'true\', \'eVar34\': "View Similar Jobs" } });\r\n            _m.ATM.registerConfig({ jQuerySelector: "[data-at=\'location-jobs\']", o: "o", eventType: "click", eventName: "eoi", vars: { \'events.event4\': \'true\', \'eVar34\': "View Location Jobs" } });\r\n            _m.ATM.registerConfig({ jQuerySelector: "[data-at=\'jobs\']", o: "o", eventType: "click", eventName: "eoi", vars: { \'events.event4\': \'true\', \'eVar34\': "All Company Jobs" } });\r\n\r\n        });\r\n        require([\'canJs\', \'jquery\'], function (_m, $) {\r\n            $(document).ready(function () {\r\n                try\r\n                {\r\n                    if (typeof (monsterCan) != "undefined") {\r\n                        var ch = monsterCan.getPartnership("f530b397-a781-4f9b-8e44-14bdfa1d54f9");\r\n                        ch.trackPageview();\r\n                    }\r\n                }\r\n                catch (e) {\r\n                }\r\n            });\r\n        });\n    </script>\n   </div>\n   <footer class="w-page-footer" id="PageFooter" role="contentinfo">\n    <div class="container">\n     <nav class="m-legal-nav m-legal-nav-narrow">\n      <small class="copyright">\n       Copyright \xc2\xa9 2016 | Monster Worldwide\n      </small>\n      <small class="patents">\n       U.S. Patents No. 7,599,930 B1; 7,827,125 and 7,836,060\n      </small>\n      <small>\n       - V: 2017.4.0.396-941\n      </small>\n     </nav>\n     <nav class="m-legal-nav m-legal-nav-wide">\n      <small>\n       Copyright \xc2\xa9 2016 | Monster Worldwide U.S. Patents No. 7,599,930 B1; 7,827,125 and 7,836,060  - V: 2017.4.0.396-941\n      </small>\n     </nav>\n    </div>\n   </footer>\n  </div>\n  <script>\n   require([\'jsux\', \'polyfills\']);\n  </script>\n  <div style="display:none;">\n  </div>\n  <script src="https://logs.jobs.com/impression_trackingv2.js" type="text/javascript">\n  </script>\n </body>\n</html>\n'
tp3
a(S'http://jobview.monster.com/clinical-it-job-philadelphia-us-182156128.aspx'
S'<!DOCTYPE html>\n<html>\n <head>\n  <meta charset="utf-8"/>\n  <title>\n   Randstad Life Sciences Job Application for Clinical IT | Monster.com\n  </title>\n  <meta content="user-scalable=no, width=device-width, initial-scale=1, minimum-scale=1, maximum-scale=1" name="viewport"/>\n  <meta content="2017.4.0.396" name="DCS.release"/>\n  <script language="javascript" type="text/javascript">\n   var MONS_LOG_VARS = {"JobID":182156128,"ApplyType":"4","PopUpMessage":"Your pop-up blocking software is preventing proper operation of jobsearch site","EE":"EAAQrXuZmYIUF5avSTEZs5tdZQ--","ApplyOnlineUrl":"https://www.randstadusa.com/jobs/search/job-details/137/20940/?utm_source=monster&utm_campaign=job%20ads&utm_medium=job%20post","TrackingCompany":"Randstad Life Sciences","TrackingLogo":"http://company.monster.com/profiles/Randstad-Life-Sciences","YTA":0,"LogUrl":"LogUrl :\'http://jobview.monster.com/log.ashx?PositionAdID=182156128&folderid=217886513&tracking=EAAQbRxpwOLd6kCuFIT4sXKgWw--&logtype=","XCode":"xdeltasix"};\r\n\r\n      var clickLogQueue = {\r\n        registeredCallbacks: [],\r\n\r\n        registerCallback: function (fn) {\r\n          this.registeredCallbacks.push(fn);\r\n        },\r\n\r\n        proccessQueue: function (logType, href) {\r\n          var i, len;\r\n          for (i = 0, len = this.registeredCallbacks.length; i < len; i += 1) {\r\n            this.registeredCallbacks[i](logType, href);\r\n          }\r\n        }\r\n      }\r\n      function submitLog(log_src) {\r\n        if (document.images) {\r\n          submitLog.log_img[submitLog.log_ptr] = new Image;\r\n          submitLog.log_img[submitLog.log_ptr].src = log_src;\r\n          submitLog.log_ptr++;\r\n        }\r\n      }\r\n      submitLog.log_img = new Array;\r\n      submitLog.log_ptr = 0;\n  </script>\n  <link href="https://coda.newjobs.com/Assets/MUX/JaJobViewCloud/2017.04.0.82/css/main.css" rel="stylesheet" type="text/css"/>\n  <!--[if lt IE 9.0]><link href="https://coda.newjobs.com/Assets/MUX/JaJobViewCloud/2017.04.0.82/css/fallback.css" rel="stylesheet" /><![endif]-->\n  <link href="/v2/DynamicAssets/CssOverrides?ch=" rel="stylesheet" type="text/css"/>\n  <link href="http://media.newjobs.com/favicon.ico" rel="shortcut icon"/>\n  <meta content="telephone=no" name="format-detection"/>\n  <meta content="Complete the job application for Clinical IT in Philadelphia 19146 online today or find more job listings available at Randstad Life Sciences at Monster." name="description="/>\n  <link href="http://jobview.monster.com/clinical-it-job-philadelphia-us-182156128.aspx" rel="canonical"/>\n  <meta content="all" name="robots"/>\n  <script src="//code.jquery.com/jquery-1.11.3.min.js">\n  </script>\n  <script src="https://coda.newjobs.com/Assets/MUX/JaJobViewCloud/2017.04.0.82/js/core.js">\n  </script>\n  <script>\n   requirejs.config({ baseUrl: \'https://coda.newjobs.com/Assets/MUX/JaJobViewCloud/2017.04.0.82/js/\' });\n  </script>\n  <script src="//securemedia.newjobs.com/mm/rainbow/coda/ubd/js/adobeVisitorAPI.js">\n  </script>\n  <script src="//securemedia.newjobs.com/global/js/mbox.js">\n  </script>\n  <script type="text/javascript">\n   requirejs.config({\r\n                paths: {\r\n                    \'recaptcha\': \'https://www.google.com/recaptcha/api.js?hl=en&render=explicit\'\r\n                }\r\n            });\n  </script>\n  <script>\n   var DYNAMIC_S_ACCOUNT = \'newjobsProdSeekerUS\';\r\n    var DYNAMIC_S_CURRENCYCODE = \'USD\';\r\n\r\n    requirejs.config({\r\n        paths: {\r\n            \'amc1\': \'//securemedia.newjobs.com/mm/rainbow/coda/ubd/js/adobeSiteCatalystLL\'\r\n        }\r\n    });\r\n\r\n    require([\'at15\'], function(_m) {\r\n        var isDOMready = function() {\r\n            return !!{interactive:1,complete:1}[document.readyState];\r\n        };\r\n        window._m = _m;\r\n\r\n        _m.ATM.properties = {"channel":"58","eVar1":"D=g","prop1":"D=g","eVar4":"0","eVar2":"unrecognized","eVar62":"1","eVar37":"0_1_0","eVar36":"App_Cstm","prop22":"Experienced (Non-Manager)","eVar28":"Biotech/R\\u0026D/Science","eVar29":"Biotechnology/Pharmaceuticals","eVar30":"Pharmaceutical Research","eVar33":"Full Time, Employee","eVar31":"Philadelphia 19146","eVar25":"182156128_Clinical IT Job in Philadelphia 19146","eVar27":"34356","eVar26":"xdeltasix_Randstad Life Sciences","eVar35":"395925","eVar47":"Not Specified","eVar48":"Not Specified","eVar50":"Duration","eVar53":"1500136001001","events.event3":"true","eVar38":"SA","prop32":"JV_new","eVar57":"with branding","events.event30":"true"};\r\n        _m.ATM.pageName = \'desktop|mons|jobviewcloud|/job/view\';\r\n        _m.ATM.appConfig = { version:\'0\',appID:\'jobviewcloud\',channelID:\'58\',countryID:\'164\' };\r\n        _m.ATM.runOnLoad=true;\r\n\r\n\r\n        if (typeof window.addMonsterReady === \'function\') {\r\n            // TODO: reconsider addMonsterReady usage\r\n            window.addMonsterReady(_m.ATM.initFromOnReady);\r\n        } else if (isDOMready()) {\r\n            _m.ATM.initFromOnReady();\r\n        } else {\r\n            document.onreadystatechange = function() {\r\n                if (isDOMready()) {\r\n                    _m.ATM.initFromOnReady();\r\n                }\r\n            }\r\n        }\r\n\r\n        require([\'adobeTrackingAsync\'], function() {\r\n            require([\r\n                \'amc1\'\r\n            ]);\r\n        });\r\n    });\n  </script>\n  <script src="//nexus.ensighten.com/monster/Bootstrap.js" type="text/javascript">\n  </script>\n  <!--mgs begin-->\n  <!--mgs end-->\n </head>\n <body class="sbt">\n  <div style="display:none;">\n  </div>\n  <div class="w-page">\n   <header class="w-page-header" role="banner">\n    <div class="container">\n     <div class="m-logo" id="Logo">\n      <a class="link" href="http://www.monster.com">\n       <span class="newspaper">\n       </span>\n       <div class="brand">\n        <h1 class="name">\n         Monster\n        </h1>\n       </div>\n      </a>\n     </div>\n     <div class="m-skip-links">\n      <a href="#content">\n       Skip to main content\n      </a>\n     </div>\n    </div>\n   </header>\n   <div class="container w-alert">\n    <div class="alert-content" id="AlertContent">\n     <div class="c-alert alert alert-info icon fade in stretchUp" data-jsux="alert" id="SubscPanelAlert" role="alert">\n      <button aria-label="Close" class="close icon icon-close" data-dismiss="#SubscPanelAlert" id="closeSubscPanelBtn" type="button">\n       Close\n      </button>\n      <div class="c-subscribe stretchUp" id="SubscPanel">\n       <p class="headline">\n        <span>\n         Want more jobs like this?\n        </span>\n        <label class="icon-before icon-email" data-at="subscribe" data-jsux="toggleClass" data-prefix="stretch" data-target="#SubscPanel" data-value="Down" for="EmailAddress">\n         Subscribe\n        </label>\n       </p>\n       <fieldset class="dependent">\n        <legend>\n         Get new similar jobs by email\n        </legend>\n        <div class="form-inline" id="subscEmailAddress">\n         <div class="form-group">\n          <input aria-describedby="EmailAddressHelp" class="form-control input-lg input-promo" id="EmailAddress" maxlength="100" name="EmailAdress" placeholder="Please enter your email"/>\n         </div>\n         <a class="btn btn-lg btn-promo" data-div-id="#subscEmailAddress" data-event="subscribed" data-id="182156128" data-iscao="true" data-jsux="subscriber" data-privacyid="" data-remote-subscription="/v2/subscription/subscribe" data-target="#SubscPanel" href="#" method="POST">\n          Submit\n         </a>\n        </div>\n        <span class="help-block" id="EmailAddressHelp">\n         By continuing you agree to Monster\'s\n         <a href="http://my.monster.com/Privacy/Default.aspx" target="_blank">\n          Privacy Policy\n         </a>\n         ,\n         <a href="http://my.monster.com/Terms/Default.aspx" target="_blank">\n          Terms of Use\n         </a>\n         and\n         <a href="http://inside.monster.com/cookie-info/inside2.aspx" target="_blank">\n          use of cookies\n         </a>\n         .\n        </span>\n       </fieldset>\n      </div>\n     </div>\n     <script id="ApplySubscriptionThankYou" type="text/template">\n      <div id="ApplySubscriptionThankYouAlert" class="c-alert alert alert-success icon fade in" role="alert" data-jsux="alert">\r\n        <button id="closeApplySubscriptionThankYouBtn" class="close icon icon-close" type="button" aria-label="Close" data-dismiss="#ApplySubscriptionThankYouAlert">Close</button>\r\n        <p>We\'ll send jobs like this to: {emailaddress}</p>\r\n    </div>\n     </script>\n    </div>\n   </div>\n   <div class="w-page-content" id="content" role="main">\n    <div class="container">\n     <header class="panel panel-default m-fixed-header decorated jvflow">\n      <div class="w-company-banner">\n       <div class="company-banner" style="background-image:url(\'//media.newjobs.com/mm/xdeltasix/cjt1/banner.jpg\')">\n        <img alt="" src="//media.newjobs.com/mm/xdeltasix/cjt1/banner.jpg"/>\n       </div>\n      </div>\n      <div class="row">\n       <div class="opening col-sm-12">\n        <div class="company-logo loaded">\n         <img alt="Company Logo" src="//media.newjobs.com/mm/xdeltasix/cjt1/logo.jpg"/>\n        </div>\n        <h2>\n         Clinical IT from Randstad Life Sciences\n        </h2>\n        <h3>\n         Philadelphia 19146\n        </h3>\n       </div>\n       <div class="action-bar col-sm-3 text-right">\n       </div>\n      </div>\n     </header>\n    </div>\n    <div data-folder-id="217886513" data-job-id="182156128" id="trackingIdentification" style="display: none;">\n    </div>\n    <div>\n     <div class="w-job-view container" id="JobViewContent">\n      <script type="application/ld+json">\n       {"title":"Clinical IT","datePosted":"2017-04-06","description":"<span ID=\'TrackingJobBody\' NAME=\'TrackingJobBody\'> <p>Seeking a Ph.D.-level (or equivalent) computational scientist to play a key role in developing and implementing the company\'s core strength in the application of computational analysis of flow cytometry data.  The successful candidate must have demonstrated expertise in broad areas of computational analysis of high dimensional systems, machine learning and empirical data analysis.  You will be familiar with building and deploying database-driven computational analysis systems that carry out automated high-dimensional data analysis and data mining solutions. Familiarity with flow cytometry data, while not required, will be an advantage.</p><br /><br /><p>The position requires demonstrated skills in programming (R, Matlab, Python, Java or other data-centric languages), database design and administration (e.g. MySQL), system configuration and administration (e.g. linux, perl, bash), and web-based application deployment (e.g. apache, tomcat, PHP, Javascript, Ruby/Rails, Grails, etc.). Specific demonstrated knowledge of R/Bioconductor is a very strong plus.  You will be a part of a small but growing team of computational scientists, and working with them you will define, articulate and encourage best practices in areas such as software version control (e.g. git, subversion), test and release discipline (unit and integration), software deployment (in a dev/test/prod environment) and documentation.  Our compute infrastructure is cloud-based, so familiarity with AWS cloud computing will be helpful.</p><br /><br /><p>We seek candidates with excellent communication skills, both oral and written, and who exhibit a balanced mix of the visionary with the practical, and enthusiasm and energy to emphasize whichever is called for at the moment.  You will work in a highly collaborative and fun team environment and will interact daily not only with our computational team but also with laboratory staff, marketing and sales, and executive leadership.  You may play a significant role in interactions with clients and investors.</p><br /><br /><p><strong>Position Requirements</strong></p><br /><br /><br />\xe2\x80\xa2 Recent Ph.D. or equivalent experience<br />\xe2\x80\xa2 Demonstrated experience in methods of empirical modeling and machine learning<br />\xe2\x80\xa2 Skilled in programming using best practices in version control, testing and documentation (especially R)<br />\xe2\x80\xa2 Excellent oral and written communication skills<br />\xe2\x80\xa2 Aptitude for work in a highly collaborative, interdisciplinary team environment<br />\xe2\x80\xa2 Willingness to learn specific tools of analysis of flow cytometry data<br /><br /><br /> <br />     </span>","industry":["Biotechnology/Pharmaceuticals"],"employmentType":["FULL_TIME"],"jobLocation":{"address":{"addressLocality":"Philadelphia","@type":"PostalAddress"},"@type":"Place"},"hiringOrganization":{"name":"Randstad Life Sciences","@type":"Organization"},"identifier":{"name":"Randstad Life Sciences","value":"20940","@type":"PropertyValue"},"@context":"http://schema.org","@type":"JobPosting"}\n      </script>\n      <div class="row">\n       <div class="col-md-8">\n        <article class="panel panel-default m-job-view panel-body">\n         <div class="actions">\n          <a class="m-job-view-report-wide icon-before icon-open_in_new" data-at="report" href="/v2/job/communityfeedback?encjobid=EAAQAvj9MIr1AopPbgfaAHIrbw--" target="_blank">\n           Report this job\n          </a>\n         </div>\n         <h4>\n          About the Job\n         </h4>\n         <div data-folder-id="217886513" data-is-cao="true" data-job-id="182156128" data-jsux="tracking" id="JobDescription">\n          <span id="TrackingJobBody" name="TrackingJobBody">\n           <p>\n            Seeking a Ph.D.-level (or equivalent) computational scientist to play a key role in developing and implementing the company\'s core strength in the application of computational analysis of flow cytometry data.  The successful candidate must have demonstrated expertise in broad areas of computational analysis of high dimensional systems, machine learning and empirical data analysis.  You will be familiar with building and deploying database-driven computational analysis systems that carry out automated high-dimensional data analysis and data mining solutions. Familiarity with flow cytometry data, while not required, will be an advantage.\n           </p>\n           <br/>\n           <br/>\n           <p>\n            The position requires demonstrated skills in programming (R, Matlab, Python, Java or other data-centric languages), database design and administration (e.g. MySQL), system configuration and administration (e.g. linux, perl, bash), and web-based application deployment (e.g. apache, tomcat, PHP, Javascript, Ruby/Rails, Grails, etc.). Specific demonstrated knowledge of R/Bioconductor is a very strong plus.  You will be a part of a small but growing team of computational scientists, and working with them you will define, articulate and encourage best practices in areas such as software version control (e.g. git, subversion), test and release discipline (unit and integration), software deployment (in a dev/test/prod environment) and documentation.  Our compute infrastructure is cloud-based, so familiarity with AWS cloud computing will be helpful.\n           </p>\n           <br/>\n           <br/>\n           <p>\n            We seek candidates with excellent communication skills, both oral and written, and who exhibit a balanced mix of the visionary with the practical, and enthusiasm and energy to emphasize whichever is called for at the moment.  You will work in a highly collaborative and fun team environment and will interact daily not only with our computational team but also with laboratory staff, marketing and sales, and executive leadership.  You may play a significant role in interactions with clients and investors.\n           </p>\n           <br/>\n           <br/>\n           <p>\n            <strong>\n             Position Requirements\n            </strong>\n           </p>\n           <br/>\n           <br/>\n           <br/>\n           \xe2\x80\xa2 Recent Ph.D. or equivalent experience\n           <br/>\n           \xe2\x80\xa2 Demonstrated experience in methods of empirical modeling and machine learning\n           <br/>\n           \xe2\x80\xa2 Skilled in programming using best practices in version control, testing and documentation (especially R)\n           <br/>\n           \xe2\x80\xa2 Excellent oral and written communication skills\n           <br/>\n           \xe2\x80\xa2 Aptitude for work in a highly collaborative, interdisciplinary team environment\n           <br/>\n           \xe2\x80\xa2 Willingness to learn specific tools of analysis of flow cytometry data\n           <br/>\n           <br/>\n           <br/>\n           <br/>\n          </span>\n         </div>\n         <a aria-hidden="true" class="m-job-view-report-narrow icon-before icon-open_in_new" data-at="report" href="/v2/job/communityfeedback?encjobid=EAAQAvj9MIr1AopPbgfaAHIrbw--">\n          Report\n         </a>\n        </article>\n        <div class="row company-media" data-breakpoints="xs,sm" data-jsux="responsiveDom" data-target="#AboutCompany" id="CompanyMedia">\n         <div class="col-md-6 sbt-gallery">\n          <div class="carousel slide panel panel-default" data-interval="false" data-jsux="carousel" id="carousel_mons">\n           <!-- Indicators -->\n           <ol class="carousel-indicators">\n            <li class="active" data-slide-to="0" data-target="#carousel_mons">\n            </li>\n            <li class="" data-slide-to="1" data-target="#carousel_mons">\n            </li>\n            <li class="" data-slide-to="2" data-target="#carousel_mons">\n            </li>\n           </ol>\n           <!-- Wrapper for slides -->\n           <div class="carousel-inner" role="listbox">\n            <div class="item active">\n             <img alt="" data-at="images" src="//media.newjobs.com/mm/xclinicx/cjt/img1.jpg"/>\n            </div>\n            <div class="item">\n             <img alt="" data-at="images" src="//media.newjobs.com/mm/xclinicx/cjt/img2.jpg"/>\n            </div>\n            <div class="item">\n             <img alt="" data-at="images" src="//media.newjobs.com/mm/xclinicx/cjt/img3.jpg"/>\n            </div>\n           </div>\n           <!-- Left and right controls -->\n           <a class="left carousel-control" data-at="images" data-slide="prev" href="#carousel_mons" role="button">\n            <span aria-hidden="true" class="glyphicon glyphicon-chevron-left icon-arrow-left icon-before">\n            </span>\n            <span class="sr-only">\n             Previous\n            </span>\n           </a>\n           <a class="right carousel-control" data-at="images" data-slide="next" href="#carousel_mons" role="button">\n            <span aria-hidden="true" class="glyphicon glyphicon-chevron-right icon-arrow-right icon-before">\n            </span>\n            <span class="sr-only">\n             Next\n            </span>\n           </a>\n          </div>\n          <!-- The Gallery as lightbox dialog, should be a child element of the document body -->\n          <div class="blueimp-gallery blueimp-gallery-controls" data-jsux="imageGallery" data-trigger=".company-media .carousel-inner">\n           <script type="application/json">\n            {"Caption":"","Images":[{"Src":"//media.newjobs.com/mm/xclinicx/cjt/img1.jpg","Title":null,"Text":null,"Caption":null},{"Src":"//media.newjobs.com/mm/xclinicx/cjt/img2.jpg","Title":null,"Text":null,"Caption":null},{"Src":"//media.newjobs.com/mm/xclinicx/cjt/img3.jpg","Title":null,"Text":null,"Caption":null}]}\n           </script>\n           <div class="slides">\n           </div>\n           <p class="title">\n           </p>\n           <a class="prev">\n            \xe2\x80\xb9\n           </a>\n           <a class="next">\n            \xe2\x80\xba\n           </a>\n           <a class="close">\n            \xc3\x97\n           </a>\n           <a class="play-pause">\n           </a>\n           <ol class="indicator">\n           </ol>\n          </div>\n         </div>\n        </div>\n       </div>\n       <div class="col-md-4">\n        <aside class="w-job-aside">\n         <div class="row">\n          <div class="col-sm-6 col-md-12">\n           <div class="panel panel-default">\n            <div class="panel-body m-job-summary" id="JobSummary">\n             <h4>\n              Job summary\n             </h4>\n             <section class="summary-section">\n              <header class="header">\n               <h2 class="key">\n                Location\n               </h2>\n               <h3 class="value">\n                Philadelphia 19146\n               </h3>\n              </header>\n             </section>\n             <section class="summary-section">\n              <header class="header">\n               <h2 class="key">\n                Job type\n               </h2>\n               <h3 class="value">\n                Full Time, Employee\n               </h3>\n              </header>\n             </section>\n             <section class="summary-section">\n              <header class="header">\n               <h2 class="key">\n                Posted\n               </h2>\n               <h3 class="value">\n                13 Days ago\n               </h3>\n              </header>\n             </section>\n             <section class="summary-section">\n              <header class="header">\n               <h2 class="key">\n                Industries\n               </h2>\n               <h3 class="value">\n                Biotechnology/Pharmaceuticals\n               </h3>\n              </header>\n             </section>\n             <section class="summary-section">\n              <header class="header">\n               <h2 class="key">\n                Career level\n               </h2>\n               <h3 class="value">\n                Experienced (Non-Manager)\n               </h3>\n              </header>\n             </section>\n             <section class="summary-section">\n              <header class="header">\n               <h2 class="key text-muted">\n                Reference code\n               </h2>\n               <h3 class="value text-muted">\n                20940\n               </h3>\n              </header>\n             </section>\n             <button class="btn-unstyled visible-js more" data-at="jobsummary" data-jsux="toggleClass" data-target="#JobSummary">\n              <span class="icon-after icon-arrow-down">\n               View more info\n              </span>\n             </button>\n             <button class="btn-unstyled visible-js less" data-jsux="toggleClass" data-target="#JobSummary">\n              <span class="icon-after icon-arrow-up">\n               View less info\n              </span>\n             </button>\n            </div>\n           </div>\n           <div class="panel panel-default" id="ContactInfo">\n            <div class="panel-body m-job-summary" id="ContactInfo">\n             <h4>\n              Contact information\n             </h4>\n             <dl class="list-value-accent">\n              <dt>\n               Contact name\n              </dt>\n              <dd>\n               Randstad Life Sciences\n              </dd>\n              <dt>\n               Address\n              </dt>\n              <dd>\n               19146\n              </dd>\n             </dl>\n            </div>\n           </div>\n          </div>\n          <div class="col-sm-6 col-md-12">\n           <div class="panel panel-default" id="AboutCompany">\n            <div class="panel-body m-job-aboutcompany" data-companyprofilelink="#AboutCompanyProfileLink" data-followbox="#FollowBox" data-followboxexpander="#FollowBoxExpander" data-jsux="aboutCompany">\n             <span>\n              <a class="icon-after icon-arrow-down additional-info-expander" data-at="followcompany" href="#" id="FollowBoxExpander">\n               Follow\n              </a>\n             </span>\n             <div class="follow-info-box" id="FollowBox">\n              <h5>\n               Follow this company\n              </h5>\n              <a class="icon-before icon-fb" href="https://www.facebook.com/RandstadUS/" target="_blank">\n               <span class="sr-only">\n                FB\n               </span>\n              </a>\n              <a class="icon-before icon-tw" href="//twitter.com/RandstadLS" target="_blank">\n               <span class="sr-only">\n                TW\n               </span>\n              </a>\n             </div>\n             <span>\n              <h4>\n               About this company\n              </h4>\n             </span>\n             <h5>\n              Randstad Life Sciences\n             </h5>\n             <div class="panel-section">\n              <div class="company-logo" style="background-image:url(\'//media.newjobs.com/mm/xdeltasix/cjt1/logo.jpg\');">\n              </div>\n              <div class="company-ratings" data-apiurl="https://www.monster.com/Reviews/api/Profile/GetRatings" data-hideelementwhennorating=".company-reviews" data-jsux="starRatings">\n               <div class="kununu-star-rating-container" data-adobecatalystaccountname="newjobsprodjobviewus" data-channelid="58" data-companyname="Randstad Life Sciences" data-companyxcode="xdeltasix" data-messagetext="View reviews on" data-starrating-template="#starrating-template" style="display: block ;">\n                <meta itemprop="ratingValue"/>\n                <meta itemprop="reviewCount"/>\n               </div>\n              </div>\n             </div>\n             <div class="panel-section fade-container">\n              <div class="company-description fade-content">\n               <p>\n                Randstad Life Sciences serves as a staffing and recruiting partner to leading life sciences and biopharma companies throughout the United States. We bring 20 years of experience impacting our clients\xe2\x80\x99 businesses by finding top talent for roles in biopharma, chemical and cosmetics, food, manufacturing and testing, medical device, nutriceauticals and pharma. Through our exclusive focus on the life sciences, we have made thousands of employer/candidate matches in project and full-time jobs across the industry every year. Contact us today to see how partnering with Randstad Life Science can benefit you or your organization.\n               </p>\n              </div>\n             </div>\n             <div class="panel-section">\n              <div class="company-reviews hidden-js" data-apiurl="https://www.monster.com/Reviews/api/Reviews/GetReviews" data-channelid="58" data-companyxcode="xdeltasix" data-jsux="companyReviews" data-review-item-template="#review-item-template" data-reviews-element="#carousel-kununu-reviews">\n               <div class="carousel slide" data-interval="false" id="carousel-kununu-reviews">\n                <div class="carousel-inner" role="listbox">\n                </div>\n                <ol class="carousel-indicators">\n                </ol>\n               </div>\n              </div>\n              <!-- Templates -->\n              <script id="review-item-template" type="text/x-handlebars-template">\n               <div class="{{itemClasses}}">\r\n            <article class="m-list-item panel panel-default panel-body">\r\n                <p class="title">{{title}}</p>\r\n                <p class="excerpt fade-content"><span>{{excerpt}}</span></p>\r\n            </article>\r\n        </div>\n              </script>\n             </div>\n             <div class="panel-section">\n              <a data-at="companyprofileclick" href="http://www.monster.com/company/profiles/Randstad-Life-Sciences" id="AboutCompanyProfileLink" target="_blank">\n               View company profile\n              </a>\n             </div>\n            </div>\n           </div>\n           <div class="panel panel-default" data-breakpoints="xs,sm" data-jsux="responsiveDom" data-target="#ContactInfo" id="OtherJobs">\n            <div class="panel-body">\n             <div class="m-more-jobs">\n              <h4>\n               <span>\n                Jobs from Randstad Life Sciences\n               </span>\n              </h4>\n              <ul class="list-unstyled">\n               <li>\n                <a data-at="jobs" data-job-ad-pricing-type-id="1" data-job-id="182133734" data-job-title="Regulatory" data-jsux="adobeTrackingSameCompanyJobClick" data-m_impr_a_placement_id="JSR" data-m_impr_j_cid="559" data-m_impr_j_coc="xdeltasix" data-m_impr_j_jawsid="0" data-m_impr_j_jobid="182133734" data-m_impr_j_jpm="1" data-m_impr_j_jpt="1" data-m_impr_j_lat="-90.0001" data-m_impr_j_lid="342" data-m_impr_j_long="-180.0001" data-m_impr_j_occid="11921" data-m_impr_j_p="1" data-m_impr_j_postingid="" data-m_impr_j_pvc="monster" data-m_impr_uuid="23d11821-b04f-4b56-9ae9-bb4468e8e113" href="http://jobview.monster.com/Regulatory-Job-San-Rafael-CA-US-182133735.aspx">\n                 Regulatory\n                </a>\n               </li>\n               <li>\n                <a data-at="jobs" data-job-ad-pricing-type-id="1" data-job-id="182129500" data-job-title="Bench Scientist" data-jsux="adobeTrackingSameCompanyJobClick" data-m_impr_a_placement_id="JSR" data-m_impr_j_cid="559" data-m_impr_j_coc="xdeltasix" data-m_impr_j_jawsid="0" data-m_impr_j_jobid="182129500" data-m_impr_j_jpm="1" data-m_impr_j_jpt="1" data-m_impr_j_lat="-90.0001" data-m_impr_j_lid="511" data-m_impr_j_long="-180.0001" data-m_impr_j_occid="11921" data-m_impr_j_p="2" data-m_impr_j_postingid="" data-m_impr_j_pvc="monster" data-m_impr_uuid="7a577867-0233-41ed-87ca-804dc2b35804" href="http://jobview.monster.com/Bench-Scientist-Job-Zebulon-NC-US-182129501.aspx">\n                 Bench Scientist\n                </a>\n               </li>\n               <li>\n                <a data-at="jobs" data-job-ad-pricing-type-id="1" data-job-id="182110496" data-job-title="Pharmacy Technician" data-jsux="adobeTrackingSameCompanyJobClick" data-m_impr_a_placement_id="JSR" data-m_impr_j_cid="559" data-m_impr_j_coc="xdeltasix" data-m_impr_j_jawsid="0" data-m_impr_j_jobid="182110496" data-m_impr_j_jpm="1" data-m_impr_j_jpt="1" data-m_impr_j_lat="-90.0001" data-m_impr_j_lid="631" data-m_impr_j_long="-180.0001" data-m_impr_j_occid="11921" data-m_impr_j_p="3" data-m_impr_j_postingid="" data-m_impr_j_pvc="monster" data-m_impr_uuid="d96cee13-2fbb-4b3a-9a32-840d508bd736" href="http://jobview.monster.com/Pharmacy-Technician-Job-Lynchburg-VA-US-182110497.aspx">\n                 Pharmacy Technician\n                </a>\n               </li>\n               <li>\n                <a data-at="jobs" data-job-ad-pricing-type-id="1" data-job-id="182634702" data-job-title="Lab Technician" data-jsux="adobeTrackingSameCompanyJobClick" data-m_impr_a_placement_id="JSR" data-m_impr_j_cid="559" data-m_impr_j_coc="xdeltasix" data-m_impr_j_jawsid="0" data-m_impr_j_jobid="182634702" data-m_impr_j_jpm="1" data-m_impr_j_jpt="1" data-m_impr_j_lat="-90.0001" data-m_impr_j_lid="609" data-m_impr_j_long="-180.0001" data-m_impr_j_occid="11921" data-m_impr_j_p="4" data-m_impr_j_postingid="" data-m_impr_j_pvc="monster" data-m_impr_uuid="de9fcc69-c7ca-43b6-a180-8ddc2f4161d8" href="http://jobview.monster.com/Lab-Technician-Job-Woodway-TX-US-182634703.aspx">\n                 Lab Technician\n                </a>\n               </li>\n               <li>\n                <a data-at="jobs" data-job-ad-pricing-type-id="1" data-job-id="182634487" data-job-title="Clinical Research Associate" data-jsux="adobeTrackingSameCompanyJobClick" data-m_impr_a_placement_id="JSR" data-m_impr_j_cid="559" data-m_impr_j_coc="xdeltasix" data-m_impr_j_jawsid="0" data-m_impr_j_jobid="182634487" data-m_impr_j_jpm="1" data-m_impr_j_jpt="1" data-m_impr_j_lat="-90.0001" data-m_impr_j_lid="98" data-m_impr_j_long="-180.0001" data-m_impr_j_occid="11921" data-m_impr_j_p="5" data-m_impr_j_postingid="" data-m_impr_j_pvc="monster" data-m_impr_uuid="bf4c26af-fe71-4ccf-b776-51024d7aa2b9" href="http://jobview.monster.com/Clinical-Research-Associate-Job-Collegeville-US-182634488.aspx">\n                 Clinical Research Associate\n                </a>\n               </li>\n              </ul>\n             </div>\n             <div class="m-more-jobs">\n              <h4>\n               Find more jobs\n              </h4>\n              <ul class="list-unstyled">\n               <li>\n                <a data-at="returntosearch" href="http://www.monster.com/jobs/q-biotech-r-d-science-jobs-l-philadelphia,-.aspx" id="BackLink">\n                 Refine my job search\n                </a>\n               </li>\n              </ul>\n             </div>\n            </div>\n           </div>\n          </div>\n         </div>\n        </aside>\n       </div>\n      </div>\n     </div>\n    </div>\n    <div class="m-action-bar custom-apply" data-apply-button="#PrimaryJobApply,#speedApply" data-jsux="applyStart" data-tracking-properties="#ApplyStartTrackingProperties" id="JobApply">\n     <div class="container">\n      <div class="apply-panel" data-apply="https://www.randstadusa.com/jobs/search/job-details/137/20940/?utm_source=monster&amp;utm_campaign=job%20ads&amp;utm_medium=job%20post" data-at-jobapplyattribute="0_1_0" data-at-jobapplypagetype="SA" data-at-jobapplytypeavailable="App_Cstm" data-cbtn="#BodyCaoClose" data-cta="#BodyCaoApply" data-fninput="#BodyCaoFirstName" data-id="182156128" data-input="#BodyCaoEmailAddress" data-job-body-element="#JobDescription" data-jsux="caoSubscriber" data-lninput="#BodyCaoLastName" data-phinput="#BodyCaoPhone" data-redirect="http://job-openings.monster.com/v2/job/applyconfirmation?jobid=182156128&amp;redirectSource=apply&amp;fwr=true&amp;jv20=1" data-remote-subscription="/v2/subscription/caosubscribe" data-remote-validation="/v2/subscription/IsEmailValid" id="BodyCaoPanel">\n       <h5 class="form-title">\n        Enter your email address and receive more jobs like this\n       </h5>\n       <button class="btn btn-close" id="BodyCaoClose">\n        <span class="icon-after icon-close">\n         Close\n        </span>\n       </button>\n       <div class="form-group single">\n        <label class="form-label sr-only" for="BodyCaoEmailAddress">\n         Email Address\n        </label>\n        <input class="form-control" id="BodyCaoEmailAddress" maxlength="100" name="BodyCaoEmailAdress" placeholder="Your email address"/>\n       </div>\n       <a class="btn btn-primary btn-apply" data-at="apply" data-at-type="customapplyonline" id="BodyCaoApply" method="POST">\n        <span class="baselbl">\n         Apply\n        </span>\n        <span class="extension icon-after icon-open_in_new">\n         Continue to Apply\n        </span>\n       </a>\n       <span class="help-block">\n        By continuing you agree to Monster\'s\n        <a href="http://my.monster.com/Privacy/Default.aspx" target="_blank">\n         Privacy Policy\n        </a>\n        ,\n        <a href="http://my.monster.com/Terms/Default.aspx" target="_blank">\n         Terms of Use\n        </a>\n        and\n        <a href="http://inside.monster.com/cookie-info/inside2.aspx" target="_blank">\n         use of cookies\n        </a>\n        .\n       </span>\n      </div>\n      <div class="flyout visible" id="JobActions">\n       <a class="btn btn-link" data-at="SaveToFile" href="https://login.monster.com/Become-Member/Create-Account?ch=MONS&amp;at=apply&amp;redirect=http%3a%2f%2fjob-openings.monster.com%2fv2%2fjob%2fView%3fJobID%3d182156128%26savejob%3d1&amp;jobid=182156128" id="SaveJob">\n        <span class="icon-before icon-star">\n         <span class="text">\n          Save\n         </span>\n        </span>\n       </a>\n       <a class="btn btn-link" data-at="emailfriend" id="emailFriendOpen">\n        <span class="icon-before icon-email">\n         <span class="text">\n          Email\n         </span>\n        </span>\n       </a>\n      </div>\n      <button class="flyout-toggle visible btn btn-link icon icon-dots" data-jsux="toggleClass" data-target="#JobActions" id="JobActionsToggle">\n       <span class="sr-only">\n        ...\n       </span>\n      </button>\n      <div class="post-mail" data-closebtn="#emailFriendClose" data-closebtnconf="#saveAndCloseBtn" data-jobid="182156128" data-jsux="emailFriend" data-openbtn="#emailFriendOpen" data-remote-url="/v2/job/sendemailfriend" data-requirederror="Email is required\r\n" data-sendfrom="#EmailAddressSendFrom" data-sendto="#EmailAddressSendTo" data-validationerror="Email is not valid" id="emailFriendPanel">\n       <h5>\n        Email this job\n       </h5>\n       <button class="btn btn-close" id="emailFriendClose">\n        <span class="icon-after icon-close">\n         Close\n        </span>\n       </button>\n       <div class="form">\n        <div class="form-group">\n         <label class="form-label sr-only" for="EmailAddressSendFrom">\n          Your email\n         </label>\n         <input class="form-control" id="EmailAddressSendFrom" maxlength="100" name="SentFrom" placeholder="Your email\r\n"/>\n        </div>\n        <div class="form-group">\n         <label class="form-label sr-only" for="EmailAddressSendTo">\n          Email to send to\n         </label>\n         <input class="form-control" data-val-required="Email" id="EmailAddressSendTo" maxlength="100" name="SendTo" placeholder="Email to send to"/>\n        </div>\n        <div class="form-group">\n         <div class="g-recaptcha" data-enable="true" data-sitekey="6LfFxwwUAAAAAMb6IoJnE8q_cXbSoevLAyBTx8Pd">\n         </div>\n        </div>\n        <a class="btn btn-primary btn-block" data-id="">\n         Email this job\n        </a>\n       </div>\n       <span class="help-block" id="EmailAddressHelp">\n        Note: Email addresses will only be used for mail delivery of this job.\n       </span>\n      </div>\n      <script id="emailFriendPanelSuccess" type="text/template">\n       <div id="saveAndClose" class="saveAndClosePanel c-alert alert alert-success icon fade in" role="alert" data-jsux="alert">\r\n        <button id="saveAndCloseBtn" class="icon icon-close" type="button" aria-label="Close" data-dismiss="#saveAndClose">Close</button>\r\n        <p>This job has been emailed to {emailaddress}</p>\r\n    </div>\n      </script>\n     </div>\n    </div>\n    <div class="dimmer">\n    </div>\n    <script id="jobSaveInfo" type="text/template">\n     <div id="saveJob" class="c-alert alert alert-{alertClassType} icon fade in" role="alert" data-jsux="alert">\r\n      <button id="closeSaveJobBtn" class="close icon icon-close" type="button" aria-label="Close" data-dismiss="#saveJob">Close</button>\r\n      <p>{msg}</p>\r\n    </div>\n    </script>\n    <script id="starrating-template" type="text/x-handlebars-template">\n     <div>\r\n        <span class="star-rating-stars star-rating-stars-{{rating}}"></span>\r\n        <span class="star-rating-text"> ({{kununuMessageText}} \r\n            <a target="_blank" title="View {{companyName}} Reviews on Kununu" href="{{kununuUrl}}">\r\n                <img alt="Kununu Logo" src="//securemedia.newjobs.com/global/img/kununu/kununu_logo.png" class="kununu-star-rating-link">\r\n            </a>)\r\n        </span>\r\n    </div>\n    </script>\n    <script type="text/javascript">\n     var trackingSend = false;\r\n        var scTrackingSend = false;\r\n        require([\'at15\', \'jquery\', \'selectors\'], function (_m, $) {\r\n            // dynamic content links\r\n            var externalLinks = $(\'#JobDescription\').find(\'a:external\'),\r\n                emailLinks = $(\'#JobDescription\').find(\'a:email\'),\r\n                backLink = $(\'#BackLink\');\r\n            _m.ATM.registerConfig({ jQuerySelector: externalLinks, o: "o", eventType: "click", eventName: "eoi", vars: { \'events.event4\': \'true\', \'eVar34\': "Job Body Clicks" } });\r\n            _m.ATM.registerConfig({ jQuerySelector: emailLinks, o: "o", eventType: "click", eventName: "eoi", vars: { \'events.event4\': \'true\', \'eVar34\': "Job Body Email Clicks" } });\r\n            _m.ATM.registerConfig({ jQuerySelector: backLink, o: "o", eventType: "click", eventName: "eoi", vars: { \'events.event4\': \'true\', \'eVar34\': "Back to Job Search Results" }, adobeDoneAction: function () { window.location = $(\'#BackLink\').attr("href"); } });\r\n            // standard jobview links\r\n            _m.ATM.registerConfig({ jQuerySelector: "[data-at=\'SaveToFile\']", o: "o", eventType: "click", eventName: "eoi", vars: { \'events.event4\': \'true\', \'eVar34\': "Save Job" } });\r\n            _m.ATM.registerConfig({ jQuerySelector: "[data-at=\'report\']", o: "o", eventName: "eoi", vars: { \'events.event4\': \'true\', \'eVar34\': "Report this Job" } });\r\n            _m.ATM.registerConfig({ jQuerySelector: "[data-at=\'share\']", o: "o", eventName: "eoi", vars: { \'events.event4\': \'true\', \'eVar34\': "Share Job" } });\r\n            _m.ATM.registerConfig({ jQuerySelector: "[data-at=\'returntosearch\']", o: "o", eventType: "click", eventName: "eoi", vars: { \'events.event4\': \'true\', \'eVar34\': "Back to Job Search Results" }, adobeDoneAction: function () { window.location = $("[data-at=\'returntosearch\']").attr("href"); } });\r\n            _m.ATM.registerConfig({ jQuerySelector: "[data-at=\'similar-jobs\']", o: "o", eventType: "click", eventName: "eoi", vars: { \'events.event4\': \'true\', \'eVar34\': "View Similar Jobs" } });\r\n            _m.ATM.registerConfig({ jQuerySelector: "[data-at=\'location-jobs\']", o: "o", eventType: "click", eventName: "eoi", vars: { \'events.event4\': \'true\', \'eVar34\': "View Location Jobs" } });\r\n            _m.ATM.registerConfig({ jQuerySelector: "[data-at=\'jobs\']", o: "o", eventType: "click", eventName: "eoi", vars: { \'events.event4\': \'true\', \'eVar34\': "All Company Jobs" } });\r\n\r\n        });\r\n        require([\'canJs\', \'jquery\'], function (_m, $) {\r\n            $(document).ready(function () {\r\n                try\r\n                {\r\n                    if (typeof (monsterCan) != "undefined") {\r\n                        var ch = monsterCan.getPartnership("f530b397-a781-4f9b-8e44-14bdfa1d54f9");\r\n                        ch.trackPageview();\r\n                    }\r\n                }\r\n                catch (e) {\r\n                }\r\n            });\r\n        });\n    </script>\n   </div>\n   <footer class="w-page-footer" id="PageFooter" role="contentinfo">\n    <div class="container">\n     <nav class="m-legal-nav m-legal-nav-narrow">\n      <small class="copyright">\n       Copyright \xc2\xa9 2016 | Monster Worldwide\n      </small>\n      <small class="patents">\n       U.S. Patents No. 7,599,930 B1; 7,827,125 and 7,836,060\n      </small>\n      <small>\n       - V: 2017.4.0.396-941\n      </small>\n     </nav>\n     <nav class="m-legal-nav m-legal-nav-wide">\n      <small>\n       Copyright \xc2\xa9 2016 | Monster Worldwide U.S. Patents No. 7,599,930 B1; 7,827,125 and 7,836,060  - V: 2017.4.0.396-941\n      </small>\n     </nav>\n    </div>\n   </footer>\n  </div>\n  <script>\n   require([\'jsux\', \'polyfills\']);\n  </script>\n  <div style="display:none;">\n  </div>\n  <script src="https://logs.jobs.com/impression_trackingv2.js" type="text/javascript">\n  </script>\n </body>\n</html>\n'
tp4
a(S'http://jobview.monster.com/bench-scientist-job-king-of-prussia-us-183119087.aspx'
p5
S'<!DOCTYPE html>\n<html>\n <head>\n  <meta charset="utf-8"/>\n  <title>\n   Randstad Life Sciences Job Application for Bench Scientist | Monster.com\n  </title>\n  <meta content="user-scalable=no, width=device-width, initial-scale=1, minimum-scale=1, maximum-scale=1" name="viewport"/>\n  <meta content="2017.4.0.396" name="DCS.release"/>\n  <script language="javascript" type="text/javascript">\n   var MONS_LOG_VARS = {"JobID":183119087,"ApplyType":"4","PopUpMessage":"Your pop-up blocking software is preventing proper operation of jobsearch site","EE":"EAAQrXuZmYIUF5avSTEZs5tdZQ--","ApplyOnlineUrl":"https://www.randstadusa.com/jobs/search/job-details/137/21184/?utm_source=monster&utm_campaign=job%20ads&utm_medium=job%20post","TrackingCompany":"Randstad Life Sciences","TrackingLogo":"http://company.monster.com/profiles/Randstad-Life-Sciences","YTA":0,"LogUrl":"LogUrl :\'http://jobview.monster.com/log.ashx?PositionAdID=183119087&folderid=218782984&tracking=EAAQbRxpwOLd6kCuFIT4sXKgWw--&logtype=","XCode":"xdeltasix"};\r\n\r\n      var clickLogQueue = {\r\n        registeredCallbacks: [],\r\n\r\n        registerCallback: function (fn) {\r\n          this.registeredCallbacks.push(fn);\r\n        },\r\n\r\n        proccessQueue: function (logType, href) {\r\n          var i, len;\r\n          for (i = 0, len = this.registeredCallbacks.length; i < len; i += 1) {\r\n            this.registeredCallbacks[i](logType, href);\r\n          }\r\n        }\r\n      }\r\n      function submitLog(log_src) {\r\n        if (document.images) {\r\n          submitLog.log_img[submitLog.log_ptr] = new Image;\r\n          submitLog.log_img[submitLog.log_ptr].src = log_src;\r\n          submitLog.log_ptr++;\r\n        }\r\n      }\r\n      submitLog.log_img = new Array;\r\n      submitLog.log_ptr = 0;\n  </script>\n  <link href="https://coda.newjobs.com/Assets/MUX/JaJobViewCloud/2017.04.0.82/css/main.css" rel="stylesheet" type="text/css"/>\n  <!--[if lt IE 9.0]><link href="https://coda.newjobs.com/Assets/MUX/JaJobViewCloud/2017.04.0.82/css/fallback.css" rel="stylesheet" /><![endif]-->\n  <link href="/v2/DynamicAssets/CssOverrides?ch=" rel="stylesheet" type="text/css"/>\n  <link href="http://media.newjobs.com/favicon.ico" rel="shortcut icon"/>\n  <meta content="telephone=no" name="format-detection"/>\n  <meta content="Complete the job application for Bench Scientist in King Of Prussia 19406 online today or find more job listings available at Randstad Life Sciences at Monster." name="description="/>\n  <link href="http://jobview.monster.com/bench-scientist-job-king-of-prussia-us-183119087.aspx" rel="canonical"/>\n  <meta content="all" name="robots"/>\n  <script src="//code.jquery.com/jquery-1.11.3.min.js">\n  </script>\n  <script src="https://coda.newjobs.com/Assets/MUX/JaJobViewCloud/2017.04.0.82/js/core.js">\n  </script>\n  <script>\n   requirejs.config({ baseUrl: \'https://coda.newjobs.com/Assets/MUX/JaJobViewCloud/2017.04.0.82/js/\' });\n  </script>\n  <script src="//securemedia.newjobs.com/mm/rainbow/coda/ubd/js/adobeVisitorAPI.js">\n  </script>\n  <script src="//securemedia.newjobs.com/global/js/mbox.js">\n  </script>\n  <script type="text/javascript">\n   requirejs.config({\r\n                paths: {\r\n                    \'recaptcha\': \'https://www.google.com/recaptcha/api.js?hl=en&render=explicit\'\r\n                }\r\n            });\n  </script>\n  <script>\n   var DYNAMIC_S_ACCOUNT = \'newjobsProdSeekerUS\';\r\n    var DYNAMIC_S_CURRENCYCODE = \'USD\';\r\n\r\n    requirejs.config({\r\n        paths: {\r\n            \'amc1\': \'//securemedia.newjobs.com/mm/rainbow/coda/ubd/js/adobeSiteCatalystLL\'\r\n        }\r\n    });\r\n\r\n    require([\'at15\'], function(_m) {\r\n        var isDOMready = function() {\r\n            return !!{interactive:1,complete:1}[document.readyState];\r\n        };\r\n        window._m = _m;\r\n\r\n        _m.ATM.properties = {"channel":"58","eVar1":"D=g","prop1":"D=g","eVar4":"0","eVar2":"unrecognized","eVar62":"1","eVar37":"0_1_0","eVar36":"App_Cstm","prop22":"Experienced (Non-Manager)","eVar28":"Biotech/R\\u0026D/Science","eVar29":"Biotechnology/Pharmaceuticals","eVar30":"Pharmaceutical Research","eVar33":"Full Time, Temporary/Contract/Project","eVar31":"King Of Prussia 19406","eVar25":"183119087_Bench Scientist Job in King Of Prussia 19406","eVar27":"34356","eVar26":"xdeltasix_Randstad Life Sciences","eVar35":"395925","eVar47":"Not Specified","eVar48":"Not Specified","eVar50":"Duration","eVar53":"1900267001001","events.event3":"true","eVar38":"SA","prop32":"JV_new","eVar57":"with branding","events.event30":"true"};\r\n        _m.ATM.pageName = \'desktop|mons|jobviewcloud|/job/view\';\r\n        _m.ATM.appConfig = { version:\'0\',appID:\'jobviewcloud\',channelID:\'58\',countryID:\'164\' };\r\n        _m.ATM.runOnLoad=true;\r\n\r\n\r\n        if (typeof window.addMonsterReady === \'function\') {\r\n            // TODO: reconsider addMonsterReady usage\r\n            window.addMonsterReady(_m.ATM.initFromOnReady);\r\n        } else if (isDOMready()) {\r\n            _m.ATM.initFromOnReady();\r\n        } else {\r\n            document.onreadystatechange = function() {\r\n                if (isDOMready()) {\r\n                    _m.ATM.initFromOnReady();\r\n                }\r\n            }\r\n        }\r\n\r\n        require([\'adobeTrackingAsync\'], function() {\r\n            require([\r\n                \'amc1\'\r\n            ]);\r\n        });\r\n    });\n  </script>\n  <script src="//nexus.ensighten.com/monster/Bootstrap.js" type="text/javascript">\n  </script>\n  <!--mgs begin-->\n  <!--mgs end-->\n </head>\n <body class="sbt">\n  <div style="display:none;">\n  </div>\n  <div class="w-page">\n   <header class="w-page-header" role="banner">\n    <div class="container">\n     <div class="m-logo" id="Logo">\n      <a class="link" href="http://www.monster.com">\n       <span class="newspaper">\n       </span>\n       <div class="brand">\n        <h1 class="name">\n         Monster\n        </h1>\n       </div>\n      </a>\n     </div>\n     <div class="m-skip-links">\n      <a href="#content">\n       Skip to main content\n      </a>\n     </div>\n    </div>\n   </header>\n   <div class="container w-alert">\n    <div class="alert-content" id="AlertContent">\n     <div class="c-alert alert alert-info icon fade in stretchUp" data-jsux="alert" id="SubscPanelAlert" role="alert">\n      <button aria-label="Close" class="close icon icon-close" data-dismiss="#SubscPanelAlert" id="closeSubscPanelBtn" type="button">\n       Close\n      </button>\n      <div class="c-subscribe stretchUp" id="SubscPanel">\n       <p class="headline">\n        <span>\n         Want more jobs like this?\n        </span>\n        <label class="icon-before icon-email" data-at="subscribe" data-jsux="toggleClass" data-prefix="stretch" data-target="#SubscPanel" data-value="Down" for="EmailAddress">\n         Subscribe\n        </label>\n       </p>\n       <fieldset class="dependent">\n        <legend>\n         Get new similar jobs by email\n        </legend>\n        <div class="form-inline" id="subscEmailAddress">\n         <div class="form-group">\n          <input aria-describedby="EmailAddressHelp" class="form-control input-lg input-promo" id="EmailAddress" maxlength="100" name="EmailAdress" placeholder="Please enter your email"/>\n         </div>\n         <a class="btn btn-lg btn-promo" data-div-id="#subscEmailAddress" data-event="subscribed" data-id="183119087" data-iscao="true" data-jsux="subscriber" data-privacyid="" data-remote-subscription="/v2/subscription/subscribe" data-target="#SubscPanel" href="#" method="POST">\n          Submit\n         </a>\n        </div>\n        <span class="help-block" id="EmailAddressHelp">\n         By continuing you agree to Monster\'s\n         <a href="http://my.monster.com/Privacy/Default.aspx" target="_blank">\n          Privacy Policy\n         </a>\n         ,\n         <a href="http://my.monster.com/Terms/Default.aspx" target="_blank">\n          Terms of Use\n         </a>\n         and\n         <a href="http://inside.monster.com/cookie-info/inside2.aspx" target="_blank">\n          use of cookies\n         </a>\n         .\n        </span>\n       </fieldset>\n      </div>\n     </div>\n     <script id="ApplySubscriptionThankYou" type="text/template">\n      <div id="ApplySubscriptionThankYouAlert" class="c-alert alert alert-success icon fade in" role="alert" data-jsux="alert">\r\n        <button id="closeApplySubscriptionThankYouBtn" class="close icon icon-close" type="button" aria-label="Close" data-dismiss="#ApplySubscriptionThankYouAlert">Close</button>\r\n        <p>We\'ll send jobs like this to: {emailaddress}</p>\r\n    </div>\n     </script>\n    </div>\n   </div>\n   <div class="w-page-content" id="content" role="main">\n    <div class="container">\n     <header class="panel panel-default m-fixed-header decorated jvflow">\n      <div class="w-company-banner">\n       <div class="company-banner" style="background-image:url(\'//media.newjobs.com/mm/xdeltasix/cjt1/banner.jpg\')">\n        <img alt="" src="//media.newjobs.com/mm/xdeltasix/cjt1/banner.jpg"/>\n       </div>\n      </div>\n      <div class="row">\n       <div class="opening col-sm-12">\n        <div class="company-logo loaded">\n         <img alt="Company Logo" src="//media.newjobs.com/mm/xdeltasix/cjt1/logo.jpg"/>\n        </div>\n        <h2>\n         Bench Scientist from Randstad Life Sciences\n        </h2>\n        <h3>\n         King Of Prussia 19406\n        </h3>\n       </div>\n       <div class="action-bar col-sm-3 text-right">\n       </div>\n      </div>\n     </header>\n    </div>\n    <div data-folder-id="218782984" data-job-id="183119087" id="trackingIdentification" style="display: none;">\n    </div>\n    <div>\n     <div class="w-job-view container" id="JobViewContent">\n      <script type="application/ld+json">\n       {"title":"Bench Scientist","datePosted":"2017-04-18","description":"<span ID=\'TrackingJobBody\' NAME=\'TrackingJobBody\'> <p><strong>Job Title:  </strong>  Bench Scientist - L1</p><br /><br /><p><strong>Where:</strong> King of Prussia, PA</p><br /><br /><p><strong>Contract: </strong>1 year</p><br /><br /><p><strong>Position Description</strong></p><br /><br /><br />\xe2\x80\xa2 The position plays a central role in supporting the development of products by generating, interpreting, and summarizing physical properties data.<br />\xe2\x80\xa2 These data packages are key to support portfolio progression from early to late phase project development including regulatory contribution to files.<br />\xe2\x80\xa2 This position will be laboratory focused, and will require the ability to run a broad range of instrumentation, a subset of which is GMP.  <br /><br /><br /><p><strong>Position Requirements</strong></p><br /><br /><br />\xe2\x80\xa2 Bachelor\'s or graduate degree in chemistry, pharmaceutical sciences or a related field <br />\xe2\x80\xa2 Knowledge and experience in performing laboratory procedures with Standard<br />\xe2\x80\xa2 Operating Procedures and in compliance with global pharmaceutical regulations and guidelines. <br />\xe2\x80\xa2 Has thorough knowledge of regulatory requirements and drug development process. <br />\xe2\x80\xa2 Plan, design and execute work/experimental programmes to further the course of a development project and enable key decisions. <br />\xe2\x80\xa2 Proven strong written and oral communication skills. <br />\xe2\x80\xa2 Interpersonal and teamwork skills as demonstrated by ability to interact with technical staff, investigators and management to accomplish department objectives. <br />\xe2\x80\xa2 General knowledge and experience in pharmaceutical solid state /physical properties analysis including the areas of powder X-Ray diffraction, particle sizing, thermal analysis, microscopy, and surface characterization. <br />\xe2\x80\xa2 Work seamlessly with other groups within Product Development as needed. <br />\xe2\x80\xa2 Experience in analytical method development, validation and transfer in a QbD environment. <br />\xe2\x80\xa2 Accurately record laboratory results within quality guidelines. <br />\xe2\x80\xa2 Knowledge and experience in laboratory safety and compliance, occupational health and environmental protection policies and regulations. <br />\xe2\x80\xa2 High quality standards in work performance with attention to detail, accuracy, consistency, and laboratory efficiency. <br />\xe2\x80\xa2 Demonstrates high standards of personal integrity and performance. <br />\xe2\x80\xa2 Responsible for following safety and quality standards within the team. <br />\xe2\x80\xa2 Responsible for coordinating the maintenance and service of some instruments. <br /><br /><br /><p>?Preferred Qualifications</p><br /><br /><br />\xe2\x80\xa2 3 years industry experience <br />\xe2\x80\xa2 Training or experience in one or more specific areas of solid state /physical properties analysis such as diffraction analysis, thermal analysis, surface characterization etc. <br />\xe2\x80\xa2 Experience with statistical analysis including design of experiments (DOE).  <br /><br /><br /><p><strong>Benefits</strong></p><br /><br /><br />\xe2\x80\xa2  Medical, Dental, and Vision Insurance <br />\xe2\x80\xa2  401K Plan with Company Match <br />\xe2\x80\xa2  Life and AD&D Insurance <br /><br /> <br />     </span>","industry":["Biotechnology/Pharmaceuticals"],"employmentType":["FULL_TIME","CONTRACTOR"],"jobLocation":{"address":{"addressLocality":"King of Prussia","@type":"PostalAddress"},"@type":"Place"},"hiringOrganization":{"name":"Randstad Life Sciences","@type":"Organization"},"identifier":{"name":"Randstad Life Sciences","value":"21184","@type":"PropertyValue"},"@context":"http://schema.org","@type":"JobPosting"}\n      </script>\n      <div class="row">\n       <div class="col-md-8">\n        <article class="panel panel-default m-job-view panel-body">\n         <div class="actions">\n          <a class="m-job-view-report-wide icon-before icon-open_in_new" data-at="report" href="/v2/job/communityfeedback?encjobid=EAAQpceA4D7A_rxDnsKrCGhDVA--" target="_blank">\n           Report this job\n          </a>\n         </div>\n         <h4>\n          About the Job\n         </h4>\n         <div data-folder-id="218782984" data-is-cao="true" data-job-id="183119087" data-jsux="tracking" id="JobDescription">\n          <span id="TrackingJobBody" name="TrackingJobBody">\n           <p>\n            <strong>\n             Job Title:\n            </strong>\n            Bench Scientist - L1\n           </p>\n           <br/>\n           <br/>\n           <p>\n            <strong>\n             Where:\n            </strong>\n            King of Prussia, PA\n           </p>\n           <br/>\n           <br/>\n           <p>\n            <strong>\n             Contract:\n            </strong>\n            1 year\n           </p>\n           <br/>\n           <br/>\n           <p>\n            <strong>\n             Position Description\n            </strong>\n           </p>\n           <br/>\n           <br/>\n           <br/>\n           \xe2\x80\xa2 The position plays a central role in supporting the development of products by generating, interpreting, and summarizing physical properties data.\n           <br/>\n           \xe2\x80\xa2 These data packages are key to support portfolio progression from early to late phase project development including regulatory contribution to files.\n           <br/>\n           \xe2\x80\xa2 This position will be laboratory focused, and will require the ability to run a broad range of instrumentation, a subset of which is GMP.\n           <br/>\n           <br/>\n           <br/>\n           <p>\n            <strong>\n             Position Requirements\n            </strong>\n           </p>\n           <br/>\n           <br/>\n           <br/>\n           \xe2\x80\xa2 Bachelor\'s or graduate degree in chemistry, pharmaceutical sciences or a related field\n           <br/>\n           \xe2\x80\xa2 Knowledge and experience in performing laboratory procedures with Standard\n           <br/>\n           \xe2\x80\xa2 Operating Procedures and in compliance with global pharmaceutical regulations and guidelines.\n           <br/>\n           \xe2\x80\xa2 Has thorough knowledge of regulatory requirements and drug development process.\n           <br/>\n           \xe2\x80\xa2 Plan, design and execute work/experimental programmes to further the course of a development project and enable key decisions.\n           <br/>\n           \xe2\x80\xa2 Proven strong written and oral communication skills.\n           <br/>\n           \xe2\x80\xa2 Interpersonal and teamwork skills as demonstrated by ability to interact with technical staff, investigators and management to accomplish department objectives.\n           <br/>\n           \xe2\x80\xa2 General knowledge and experience in pharmaceutical solid state /physical properties analysis including the areas of powder X-Ray diffraction, particle sizing, thermal analysis, microscopy, and surface characterization.\n           <br/>\n           \xe2\x80\xa2 Work seamlessly with other groups within Product Development as needed.\n           <br/>\n           \xe2\x80\xa2 Experience in analytical method development, validation and transfer in a QbD environment.\n           <br/>\n           \xe2\x80\xa2 Accurately record laboratory results within quality guidelines.\n           <br/>\n           \xe2\x80\xa2 Knowledge and experience in laboratory safety and compliance, occupational health and environmental protection policies and regulations.\n           <br/>\n           \xe2\x80\xa2 High quality standards in work performance with attention to detail, accuracy, consistency, and laboratory efficiency.\n           <br/>\n           \xe2\x80\xa2 Demonstrates high standards of personal integrity and performance.\n           <br/>\n           \xe2\x80\xa2 Responsible for following safety and quality standards within the team.\n           <br/>\n           \xe2\x80\xa2 Responsible for coordinating the maintenance and service of some instruments.\n           <br/>\n           <br/>\n           <br/>\n           <p>\n            ?Preferred Qualifications\n           </p>\n           <br/>\n           <br/>\n           <br/>\n           \xe2\x80\xa2 3 years industry experience\n           <br/>\n           \xe2\x80\xa2 Training or experience in one or more specific areas of solid state /physical properties analysis such as diffraction analysis, thermal analysis, surface characterization etc.\n           <br/>\n           \xe2\x80\xa2 Experience with statistical analysis including design of experiments (DOE).\n           <br/>\n           <br/>\n           <br/>\n           <p>\n            <strong>\n             Benefits\n            </strong>\n           </p>\n           <br/>\n           <br/>\n           <br/>\n           \xe2\x80\xa2  Medical, Dental, and Vision Insurance\n           <br/>\n           \xe2\x80\xa2  401K Plan with Company Match\n           <br/>\n           \xe2\x80\xa2  Life and AD&amp;D Insurance\n           <br/>\n           <br/>\n           <br/>\n          </span>\n         </div>\n         <a aria-hidden="true" class="m-job-view-report-narrow icon-before icon-open_in_new" data-at="report" href="/v2/job/communityfeedback?encjobid=EAAQpceA4D7A_rxDnsKrCGhDVA--">\n          Report\n         </a>\n        </article>\n        <div class="row company-media" data-breakpoints="xs,sm" data-jsux="responsiveDom" data-target="#AboutCompany" id="CompanyMedia">\n         <div class="col-md-6 sbt-gallery">\n          <div class="carousel slide panel panel-default" data-interval="false" data-jsux="carousel" id="carousel_mons">\n           <!-- Indicators -->\n           <ol class="carousel-indicators">\n            <li class="active" data-slide-to="0" data-target="#carousel_mons">\n            </li>\n            <li class="" data-slide-to="1" data-target="#carousel_mons">\n            </li>\n            <li class="" data-slide-to="2" data-target="#carousel_mons">\n            </li>\n           </ol>\n           <!-- Wrapper for slides -->\n           <div class="carousel-inner" role="listbox">\n            <div class="item active">\n             <img alt="" data-at="images" src="//media.newjobs.com/mm/xclinicx/cjt/img1.jpg"/>\n            </div>\n            <div class="item">\n             <img alt="" data-at="images" src="//media.newjobs.com/mm/xclinicx/cjt/img2.jpg"/>\n            </div>\n            <div class="item">\n             <img alt="" data-at="images" src="//media.newjobs.com/mm/xclinicx/cjt/img3.jpg"/>\n            </div>\n           </div>\n           <!-- Left and right controls -->\n           <a class="left carousel-control" data-at="images" data-slide="prev" href="#carousel_mons" role="button">\n            <span aria-hidden="true" class="glyphicon glyphicon-chevron-left icon-arrow-left icon-before">\n            </span>\n            <span class="sr-only">\n             Previous\n            </span>\n           </a>\n           <a class="right carousel-control" data-at="images" data-slide="next" href="#carousel_mons" role="button">\n            <span aria-hidden="true" class="glyphicon glyphicon-chevron-right icon-arrow-right icon-before">\n            </span>\n            <span class="sr-only">\n             Next\n            </span>\n           </a>\n          </div>\n          <!-- The Gallery as lightbox dialog, should be a child element of the document body -->\n          <div class="blueimp-gallery blueimp-gallery-controls" data-jsux="imageGallery" data-trigger=".company-media .carousel-inner">\n           <script type="application/json">\n            {"Caption":"","Images":[{"Src":"//media.newjobs.com/mm/xclinicx/cjt/img1.jpg","Title":null,"Text":null,"Caption":null},{"Src":"//media.newjobs.com/mm/xclinicx/cjt/img2.jpg","Title":null,"Text":null,"Caption":null},{"Src":"//media.newjobs.com/mm/xclinicx/cjt/img3.jpg","Title":null,"Text":null,"Caption":null}]}\n           </script>\n           <div class="slides">\n           </div>\n           <p class="title">\n           </p>\n           <a class="prev">\n            \xe2\x80\xb9\n           </a>\n           <a class="next">\n            \xe2\x80\xba\n           </a>\n           <a class="close">\n            \xc3\x97\n           </a>\n           <a class="play-pause">\n           </a>\n           <ol class="indicator">\n           </ol>\n          </div>\n         </div>\n        </div>\n       </div>\n       <div class="col-md-4">\n        <aside class="w-job-aside">\n         <div class="row">\n          <div class="col-sm-6 col-md-12">\n           <div class="panel panel-default">\n            <div class="panel-body m-job-summary" id="JobSummary">\n             <h4>\n              Job summary\n             </h4>\n             <section class="summary-section">\n              <header class="header">\n               <h2 class="key">\n                Location\n               </h2>\n               <h3 class="value">\n                King Of Prussia 19406\n               </h3>\n              </header>\n             </section>\n             <section class="summary-section">\n              <header class="header">\n               <h2 class="key">\n                Job type\n               </h2>\n               <h3 class="value">\n                Full Time, Temporary/Contract/Project\n               </h3>\n              </header>\n             </section>\n             <section class="summary-section">\n              <header class="header">\n               <h2 class="key">\n                Posted\n               </h2>\n               <h3 class="value">\n                1 Days ago\n               </h3>\n              </header>\n             </section>\n             <section class="summary-section">\n              <header class="header">\n               <h2 class="key">\n                Industries\n               </h2>\n               <h3 class="value">\n                Biotechnology/Pharmaceuticals\n               </h3>\n              </header>\n             </section>\n             <section class="summary-section">\n              <header class="header">\n               <h2 class="key">\n                Career level\n               </h2>\n               <h3 class="value">\n                Experienced (Non-Manager)\n               </h3>\n              </header>\n             </section>\n             <section class="summary-section">\n              <header class="header">\n               <h2 class="key text-muted">\n                Reference code\n               </h2>\n               <h3 class="value text-muted">\n                21184\n               </h3>\n              </header>\n             </section>\n             <button class="btn-unstyled visible-js more" data-at="jobsummary" data-jsux="toggleClass" data-target="#JobSummary">\n              <span class="icon-after icon-arrow-down">\n               View more info\n              </span>\n             </button>\n             <button class="btn-unstyled visible-js less" data-jsux="toggleClass" data-target="#JobSummary">\n              <span class="icon-after icon-arrow-up">\n               View less info\n              </span>\n             </button>\n            </div>\n           </div>\n           <div class="panel panel-default" id="ContactInfo">\n            <div class="panel-body m-job-summary" id="ContactInfo">\n             <h4>\n              Contact information\n             </h4>\n             <dl class="list-value-accent">\n              <dt>\n               Contact name\n              </dt>\n              <dd>\n               Randstad Life Sciences\n              </dd>\n              <dt>\n               Address\n              </dt>\n              <dd>\n               19406\n              </dd>\n             </dl>\n            </div>\n           </div>\n          </div>\n          <div class="col-sm-6 col-md-12">\n           <div class="panel panel-default" id="AboutCompany">\n            <div class="panel-body m-job-aboutcompany" data-companyprofilelink="#AboutCompanyProfileLink" data-followbox="#FollowBox" data-followboxexpander="#FollowBoxExpander" data-jsux="aboutCompany">\n             <span>\n              <a class="icon-after icon-arrow-down additional-info-expander" data-at="followcompany" href="#" id="FollowBoxExpander">\n               Follow\n              </a>\n             </span>\n             <div class="follow-info-box" id="FollowBox">\n              <h5>\n               Follow this company\n              </h5>\n              <a class="icon-before icon-fb" href="https://www.facebook.com/RandstadUS/" target="_blank">\n               <span class="sr-only">\n                FB\n               </span>\n              </a>\n              <a class="icon-before icon-tw" href="//twitter.com/RandstadLS" target="_blank">\n               <span class="sr-only">\n                TW\n               </span>\n              </a>\n             </div>\n             <span>\n              <h4>\n               About this company\n              </h4>\n             </span>\n             <h5>\n              Randstad Life Sciences\n             </h5>\n             <div class="panel-section">\n              <div class="company-logo" style="background-image:url(\'//media.newjobs.com/mm/xdeltasix/cjt1/logo.jpg\');">\n              </div>\n              <div class="company-ratings" data-apiurl="https://www.monster.com/Reviews/api/Profile/GetRatings" data-hideelementwhennorating=".company-reviews" data-jsux="starRatings">\n               <div class="kununu-star-rating-container" data-adobecatalystaccountname="newjobsprodjobviewus" data-channelid="58" data-companyname="Randstad Life Sciences" data-companyxcode="xdeltasix" data-messagetext="View reviews on" data-starrating-template="#starrating-template" style="display: block ;">\n                <meta itemprop="ratingValue"/>\n                <meta itemprop="reviewCount"/>\n               </div>\n              </div>\n             </div>\n             <div class="panel-section fade-container">\n              <div class="company-description fade-content">\n               <p>\n                Randstad Life Sciences serves as a staffing and recruiting partner to leading life sciences and biopharma companies throughout the United States. We bring 20 years of experience impacting our clients\xe2\x80\x99 businesses by finding top talent for roles in biopharma, chemical and cosmetics, food, manufacturing and testing, medical device, nutriceauticals and pharma. Through our exclusive focus on the life sciences, we have made thousands of employer/candidate matches in project and full-time jobs across the industry every year. Contact us today to see how partnering with Randstad Life Science can benefit you or your organization.\n               </p>\n              </div>\n             </div>\n             <div class="panel-section">\n              <div class="company-reviews hidden-js" data-apiurl="https://www.monster.com/Reviews/api/Reviews/GetReviews" data-channelid="58" data-companyxcode="xdeltasix" data-jsux="companyReviews" data-review-item-template="#review-item-template" data-reviews-element="#carousel-kununu-reviews">\n               <div class="carousel slide" data-interval="false" id="carousel-kununu-reviews">\n                <div class="carousel-inner" role="listbox">\n                </div>\n                <ol class="carousel-indicators">\n                </ol>\n               </div>\n              </div>\n              <!-- Templates -->\n              <script id="review-item-template" type="text/x-handlebars-template">\n               <div class="{{itemClasses}}">\r\n            <article class="m-list-item panel panel-default panel-body">\r\n                <p class="title">{{title}}</p>\r\n                <p class="excerpt fade-content"><span>{{excerpt}}</span></p>\r\n            </article>\r\n        </div>\n              </script>\n             </div>\n             <div class="panel-section">\n              <a data-at="companyprofileclick" href="http://www.monster.com/company/profiles/Randstad-Life-Sciences" id="AboutCompanyProfileLink" target="_blank">\n               View company profile\n              </a>\n             </div>\n            </div>\n           </div>\n           <div class="panel panel-default" data-breakpoints="xs,sm" data-jsux="responsiveDom" data-target="#ContactInfo" id="OtherJobs">\n            <div class="panel-body">\n             <div class="m-more-jobs">\n              <h4>\n               <span>\n                Jobs from Randstad Life Sciences\n               </span>\n              </h4>\n              <ul class="list-unstyled">\n               <li>\n                <a data-at="jobs" data-job-ad-pricing-type-id="1" data-job-id="182133734" data-job-title="Regulatory" data-jsux="adobeTrackingSameCompanyJobClick" data-m_impr_a_placement_id="JSR" data-m_impr_j_cid="559" data-m_impr_j_coc="xdeltasix" data-m_impr_j_jawsid="0" data-m_impr_j_jobid="182133734" data-m_impr_j_jpm="1" data-m_impr_j_jpt="1" data-m_impr_j_lat="-90.0001" data-m_impr_j_lid="342" data-m_impr_j_long="-180.0001" data-m_impr_j_occid="11921" data-m_impr_j_p="1" data-m_impr_j_postingid="" data-m_impr_j_pvc="monster" data-m_impr_uuid="c7c17956-8054-427a-8994-640d63f50e69" href="http://jobview.monster.com/Regulatory-Job-San-Rafael-CA-US-182133735.aspx">\n                 Regulatory\n                </a>\n               </li>\n               <li>\n                <a data-at="jobs" data-job-ad-pricing-type-id="1" data-job-id="182129500" data-job-title="Bench Scientist" data-jsux="adobeTrackingSameCompanyJobClick" data-m_impr_a_placement_id="JSR" data-m_impr_j_cid="559" data-m_impr_j_coc="xdeltasix" data-m_impr_j_jawsid="0" data-m_impr_j_jobid="182129500" data-m_impr_j_jpm="1" data-m_impr_j_jpt="1" data-m_impr_j_lat="-90.0001" data-m_impr_j_lid="511" data-m_impr_j_long="-180.0001" data-m_impr_j_occid="11921" data-m_impr_j_p="2" data-m_impr_j_postingid="" data-m_impr_j_pvc="monster" data-m_impr_uuid="75b6340b-ba70-419c-afc5-18050d3c26e5" href="http://jobview.monster.com/Bench-Scientist-Job-Zebulon-NC-US-182129501.aspx">\n                 Bench Scientist\n                </a>\n               </li>\n               <li>\n                <a data-at="jobs" data-job-ad-pricing-type-id="1" data-job-id="182110496" data-job-title="Pharmacy Technician" data-jsux="adobeTrackingSameCompanyJobClick" data-m_impr_a_placement_id="JSR" data-m_impr_j_cid="559" data-m_impr_j_coc="xdeltasix" data-m_impr_j_jawsid="0" data-m_impr_j_jobid="182110496" data-m_impr_j_jpm="1" data-m_impr_j_jpt="1" data-m_impr_j_lat="-90.0001" data-m_impr_j_lid="631" data-m_impr_j_long="-180.0001" data-m_impr_j_occid="11921" data-m_impr_j_p="3" data-m_impr_j_postingid="" data-m_impr_j_pvc="monster" data-m_impr_uuid="4a0b2964-91ac-4aa5-a9c2-f46fa826f216" href="http://jobview.monster.com/Pharmacy-Technician-Job-Lynchburg-VA-US-182110497.aspx">\n                 Pharmacy Technician\n                </a>\n               </li>\n               <li>\n                <a data-at="jobs" data-job-ad-pricing-type-id="1" data-job-id="182634702" data-job-title="Lab Technician" data-jsux="adobeTrackingSameCompanyJobClick" data-m_impr_a_placement_id="JSR" data-m_impr_j_cid="559" data-m_impr_j_coc="xdeltasix" data-m_impr_j_jawsid="0" data-m_impr_j_jobid="182634702" data-m_impr_j_jpm="1" data-m_impr_j_jpt="1" data-m_impr_j_lat="-90.0001" data-m_impr_j_lid="609" data-m_impr_j_long="-180.0001" data-m_impr_j_occid="11921" data-m_impr_j_p="4" data-m_impr_j_postingid="" data-m_impr_j_pvc="monster" data-m_impr_uuid="14ed2a49-a982-46b8-b3f3-518d767da2e8" href="http://jobview.monster.com/Lab-Technician-Job-Woodway-TX-US-182634703.aspx">\n                 Lab Technician\n                </a>\n               </li>\n               <li>\n                <a data-at="jobs" data-job-ad-pricing-type-id="1" data-job-id="182634487" data-job-title="Clinical Research Associate" data-jsux="adobeTrackingSameCompanyJobClick" data-m_impr_a_placement_id="JSR" data-m_impr_j_cid="559" data-m_impr_j_coc="xdeltasix" data-m_impr_j_jawsid="0" data-m_impr_j_jobid="182634487" data-m_impr_j_jpm="1" data-m_impr_j_jpt="1" data-m_impr_j_lat="-90.0001" data-m_impr_j_lid="98" data-m_impr_j_long="-180.0001" data-m_impr_j_occid="11921" data-m_impr_j_p="5" data-m_impr_j_postingid="" data-m_impr_j_pvc="monster" data-m_impr_uuid="b245ecf9-63da-4219-a385-51229f37a8c2" href="http://jobview.monster.com/Clinical-Research-Associate-Job-Collegeville-US-182634488.aspx">\n                 Clinical Research Associate\n                </a>\n               </li>\n              </ul>\n             </div>\n             <div class="m-more-jobs">\n              <h4>\n               Find more jobs\n              </h4>\n              <ul class="list-unstyled">\n               <li>\n                <a data-at="returntosearch" href="http://www.monster.com/jobs/q-biotech-r-d-science-jobs-l-king-of-prussia,-.aspx" id="BackLink">\n                 Refine my job search\n                </a>\n               </li>\n              </ul>\n             </div>\n            </div>\n           </div>\n          </div>\n         </div>\n        </aside>\n       </div>\n      </div>\n     </div>\n    </div>\n    <div class="m-action-bar custom-apply" data-apply-button="#PrimaryJobApply,#speedApply" data-jsux="applyStart" data-tracking-properties="#ApplyStartTrackingProperties" id="JobApply">\n     <div class="container">\n      <div class="apply-panel" data-apply="https://www.randstadusa.com/jobs/search/job-details/137/21184/?utm_source=monster&amp;utm_campaign=job%20ads&amp;utm_medium=job%20post" data-at-jobapplyattribute="0_1_0" data-at-jobapplypagetype="SA" data-at-jobapplytypeavailable="App_Cstm" data-cbtn="#BodyCaoClose" data-cta="#BodyCaoApply" data-fninput="#BodyCaoFirstName" data-id="183119087" data-input="#BodyCaoEmailAddress" data-job-body-element="#JobDescription" data-jsux="caoSubscriber" data-lninput="#BodyCaoLastName" data-phinput="#BodyCaoPhone" data-redirect="http://job-openings.monster.com/v2/job/applyconfirmation?jobid=183119087&amp;redirectSource=apply&amp;fwr=true&amp;jv20=1" data-remote-subscription="/v2/subscription/caosubscribe" data-remote-validation="/v2/subscription/IsEmailValid" id="BodyCaoPanel">\n       <h5 class="form-title">\n        Enter your email address and receive more jobs like this\n       </h5>\n       <button class="btn btn-close" id="BodyCaoClose">\n        <span class="icon-after icon-close">\n         Close\n        </span>\n       </button>\n       <div class="form-group single">\n        <label class="form-label sr-only" for="BodyCaoEmailAddress">\n         Email Address\n        </label>\n        <input class="form-control" id="BodyCaoEmailAddress" maxlength="100" name="BodyCaoEmailAdress" placeholder="Your email address"/>\n       </div>\n       <a class="btn btn-primary btn-apply" data-at="apply" data-at-type="customapplyonline" id="BodyCaoApply" method="POST">\n        <span class="baselbl">\n         Apply\n        </span>\n        <span class="extension icon-after icon-open_in_new">\n         Continue to Apply\n        </span>\n       </a>\n       <span class="help-block">\n        By continuing you agree to Monster\'s\n        <a href="http://my.monster.com/Privacy/Default.aspx" target="_blank">\n         Privacy Policy\n        </a>\n        ,\n        <a href="http://my.monster.com/Terms/Default.aspx" target="_blank">\n         Terms of Use\n        </a>\n        and\n        <a href="http://inside.monster.com/cookie-info/inside2.aspx" target="_blank">\n         use of cookies\n        </a>\n        .\n       </span>\n      </div>\n      <div class="flyout visible" id="JobActions">\n       <a class="btn btn-link" data-at="SaveToFile" href="https://login.monster.com/Become-Member/Create-Account?ch=MONS&amp;at=apply&amp;redirect=http%3a%2f%2fjob-openings.monster.com%2fv2%2fjob%2fView%3fJobID%3d183119087%26savejob%3d1&amp;jobid=183119087" id="SaveJob">\n        <span class="icon-before icon-star">\n         <span class="text">\n          Save\n         </span>\n        </span>\n       </a>\n       <a class="btn btn-link" data-at="emailfriend" id="emailFriendOpen">\n        <span class="icon-before icon-email">\n         <span class="text">\n          Email\n         </span>\n        </span>\n       </a>\n      </div>\n      <button class="flyout-toggle visible btn btn-link icon icon-dots" data-jsux="toggleClass" data-target="#JobActions" id="JobActionsToggle">\n       <span class="sr-only">\n        ...\n       </span>\n      </button>\n      <div class="post-mail" data-closebtn="#emailFriendClose" data-closebtnconf="#saveAndCloseBtn" data-jobid="183119087" data-jsux="emailFriend" data-openbtn="#emailFriendOpen" data-remote-url="/v2/job/sendemailfriend" data-requirederror="Email is required\r\n" data-sendfrom="#EmailAddressSendFrom" data-sendto="#EmailAddressSendTo" data-validationerror="Email is not valid" id="emailFriendPanel">\n       <h5>\n        Email this job\n       </h5>\n       <button class="btn btn-close" id="emailFriendClose">\n        <span class="icon-after icon-close">\n         Close\n        </span>\n       </button>\n       <div class="form">\n        <div class="form-group">\n         <label class="form-label sr-only" for="EmailAddressSendFrom">\n          Your email\n         </label>\n         <input class="form-control" id="EmailAddressSendFrom" maxlength="100" name="SentFrom" placeholder="Your email\r\n"/>\n        </div>\n        <div class="form-group">\n         <label class="form-label sr-only" for="EmailAddressSendTo">\n          Email to send to\n         </label>\n         <input class="form-control" data-val-required="Email" id="EmailAddressSendTo" maxlength="100" name="SendTo" placeholder="Email to send to"/>\n        </div>\n        <div class="form-group">\n         <div class="g-recaptcha" data-enable="true" data-sitekey="6LfFxwwUAAAAAMb6IoJnE8q_cXbSoevLAyBTx8Pd">\n         </div>\n        </div>\n        <a class="btn btn-primary btn-block" data-id="">\n         Email this job\n        </a>\n       </div>\n       <span class="help-block" id="EmailAddressHelp">\n        Note: Email addresses will only be used for mail delivery of this job.\n       </span>\n      </div>\n      <script id="emailFriendPanelSuccess" type="text/template">\n       <div id="saveAndClose" class="saveAndClosePanel c-alert alert alert-success icon fade in" role="alert" data-jsux="alert">\r\n        <button id="saveAndCloseBtn" class="icon icon-close" type="button" aria-label="Close" data-dismiss="#saveAndClose">Close</button>\r\n        <p>This job has been emailed to {emailaddress}</p>\r\n    </div>\n      </script>\n     </div>\n    </div>\n    <div class="dimmer">\n    </div>\n    <script id="jobSaveInfo" type="text/template">\n     <div id="saveJob" class="c-alert alert alert-{alertClassType} icon fade in" role="alert" data-jsux="alert">\r\n      <button id="closeSaveJobBtn" class="close icon icon-close" type="button" aria-label="Close" data-dismiss="#saveJob">Close</button>\r\n      <p>{msg}</p>\r\n    </div>\n    </script>\n    <script id="starrating-template" type="text/x-handlebars-template">\n     <div>\r\n        <span class="star-rating-stars star-rating-stars-{{rating}}"></span>\r\n        <span class="star-rating-text"> ({{kununuMessageText}} \r\n            <a target="_blank" title="View {{companyName}} Reviews on Kununu" href="{{kununuUrl}}">\r\n                <img alt="Kununu Logo" src="//securemedia.newjobs.com/global/img/kununu/kununu_logo.png" class="kununu-star-rating-link">\r\n            </a>)\r\n        </span>\r\n    </div>\n    </script>\n    <script type="text/javascript">\n     var trackingSend = false;\r\n        var scTrackingSend = false;\r\n        require([\'at15\', \'jquery\', \'selectors\'], function (_m, $) {\r\n            // dynamic content links\r\n            var externalLinks = $(\'#JobDescription\').find(\'a:external\'),\r\n                emailLinks = $(\'#JobDescription\').find(\'a:email\'),\r\n                backLink = $(\'#BackLink\');\r\n            _m.ATM.registerConfig({ jQuerySelector: externalLinks, o: "o", eventType: "click", eventName: "eoi", vars: { \'events.event4\': \'true\', \'eVar34\': "Job Body Clicks" } });\r\n            _m.ATM.registerConfig({ jQuerySelector: emailLinks, o: "o", eventType: "click", eventName: "eoi", vars: { \'events.event4\': \'true\', \'eVar34\': "Job Body Email Clicks" } });\r\n            _m.ATM.registerConfig({ jQuerySelector: backLink, o: "o", eventType: "click", eventName: "eoi", vars: { \'events.event4\': \'true\', \'eVar34\': "Back to Job Search Results" }, adobeDoneAction: function () { window.location = $(\'#BackLink\').attr("href"); } });\r\n            // standard jobview links\r\n            _m.ATM.registerConfig({ jQuerySelector: "[data-at=\'SaveToFile\']", o: "o", eventType: "click", eventName: "eoi", vars: { \'events.event4\': \'true\', \'eVar34\': "Save Job" } });\r\n            _m.ATM.registerConfig({ jQuerySelector: "[data-at=\'report\']", o: "o", eventName: "eoi", vars: { \'events.event4\': \'true\', \'eVar34\': "Report this Job" } });\r\n            _m.ATM.registerConfig({ jQuerySelector: "[data-at=\'share\']", o: "o", eventName: "eoi", vars: { \'events.event4\': \'true\', \'eVar34\': "Share Job" } });\r\n            _m.ATM.registerConfig({ jQuerySelector: "[data-at=\'returntosearch\']", o: "o", eventType: "click", eventName: "eoi", vars: { \'events.event4\': \'true\', \'eVar34\': "Back to Job Search Results" }, adobeDoneAction: function () { window.location = $("[data-at=\'returntosearch\']").attr("href"); } });\r\n            _m.ATM.registerConfig({ jQuerySelector: "[data-at=\'similar-jobs\']", o: "o", eventType: "click", eventName: "eoi", vars: { \'events.event4\': \'true\', \'eVar34\': "View Similar Jobs" } });\r\n            _m.ATM.registerConfig({ jQuerySelector: "[data-at=\'location-jobs\']", o: "o", eventType: "click", eventName: "eoi", vars: { \'events.event4\': \'true\', \'eVar34\': "View Location Jobs" } });\r\n            _m.ATM.registerConfig({ jQuerySelector: "[data-at=\'jobs\']", o: "o", eventType: "click", eventName: "eoi", vars: { \'events.event4\': \'true\', \'eVar34\': "All Company Jobs" } });\r\n\r\n        });\r\n        require([\'canJs\', \'jquery\'], function (_m, $) {\r\n            $(document).ready(function () {\r\n                try\r\n                {\r\n                    if (typeof (monsterCan) != "undefined") {\r\n                        var ch = monsterCan.getPartnership("f530b397-a781-4f9b-8e44-14bdfa1d54f9");\r\n                        ch.trackPageview();\r\n                    }\r\n                }\r\n                catch (e) {\r\n                }\r\n            });\r\n        });\n    </script>\n   </div>\n   <footer class="w-page-footer" id="PageFooter" role="contentinfo">\n    <div class="container">\n     <nav class="m-legal-nav m-legal-nav-narrow">\n      <small class="copyright">\n       Copyright \xc2\xa9 2016 | Monster Worldwide\n      </small>\n      <small class="patents">\n       U.S. Patents No. 7,599,930 B1; 7,827,125 and 7,836,060\n      </small>\n      <small>\n       - V: 2017.4.0.396-941\n      </small>\n     </nav>\n     <nav class="m-legal-nav m-legal-nav-wide">\n      <small>\n       Copyright \xc2\xa9 2016 | Monster Worldwide U.S. Patents No. 7,599,930 B1; 7,827,125 and 7,836,060  - V: 2017.4.0.396-941\n      </small>\n     </nav>\n    </div>\n   </footer>\n  </div>\n  <script>\n   require([\'jsux\', \'polyfills\']);\n  </script>\n  <div style="display:none;">\n  </div>\n  <script src="https://logs.jobs.com/impression_trackingv2.js" type="text/javascript">\n  </script>\n </body>\n</html>\n'
p6
tp7
a.