(lp1
(S'http://job-openings.monster.com/monster/67fb4acc-970a-4d7f-a148-bbecadc2f71c'
S'<!DOCTYPE html>\n<html dir="ltr" lang="en-US">\n <head>\n  <base href="https://c-3437-20160309-www-engilitycorp-com.i.icims.com"/>\n  <meta content="text/html; charset=utf-8" http-equiv="content-type"/>\n  <meta content="SemiColonWeb" name="author"/>\n  <!-- Document Title\n    ============================================= -->\n  <link href="https://fonts.googleapis.com/css?family=Lato:300,400,400italic,600,700|Raleway:300,400,500,600,700|Crete+Round:400italic" rel="stylesheet" type="text/css"/>\n  <link href="/css/bootstrap.css" rel="stylesheet" type="text/css"/>\n  <link href="/css/style.css" rel="stylesheet" type="text/css"/>\n  <link href="/css/dark.css" rel="stylesheet" type="text/css"/>\n  <link href="/css/font-icons.css" rel="stylesheet" type="text/css"/>\n  <link href="/css/animate.css" rel="stylesheet" type="text/css"/>\n  <link href="/css/magnific-popup.css" rel="stylesheet" type="text/css"/>\n  <link href="/css/responsive.css" rel="stylesheet" type="text/css"/>\n  <link href="/css/colors.css" rel="stylesheet" type="text/css"/>\n  <link href="http://www.engilitycorp.com/favicon.ico" rel="shortcut icon" type="image/x-icon"/>\n  <meta content="width=device-width, initial-scale=1, maximum-scale=1" name="viewport"/>\n  <script src="https://css3-mediaqueries-js.googlecode.com/svn/trunk/css3-mediaqueries.js">\n  </script>\n  <script src="/js/jquery.js" type="text/javascript">\n  </script>\n  <script src="/js/plugins.js" type="text/javascript">\n  </script>\n  <script src="/include/rs-plugin/js/jquery.themepunch.tools.min.js" type="text/javascript">\n  </script>\n  <script src="/include/rs-plugin/js/jquery.themepunch.revolution.min.js" type="text/javascript">\n  </script>\n  <link href="/include/rs-plugin/css/settings.css" media="screen" rel="stylesheet" type="text/css"/>\n  <style type="text/css">\n   div.stockTicker\n\t\t{\n\t\t\tfont-family: "Raleway",sans-serif;\n    \t\tfont-weight: 600;\n\t\t\tlist-style-type: none;\n\t\t\tmargin: 0;\n\t\t\tpadding: 0;\n\t\t\tposition: relative;\n\t\t}\n\t\tdiv.stockTicker span.quote2\n\t\t{\n\t\t\tmargin: 0;\n\t\t\tfont-weight: bold;\n\t\t\tcolor: #ccc;\n\t\t\t/* padding: 0 5px 0 10px; */\n\t\t}\n\t\t.GreenText\n\t\t{\n\t\t\tcolor: Green;\n\t\t}\n\t\t.RedText\n\t\t{\n\t\t\tcolor: #C2213F;\n\t\t}\n\t\t.up_green\n\t\t{\n\t\t\tbackground: url(/wp-content/uploads/2014/11/up.gif) no-repeat left center;\n\t\t\tpadding-left: 10px;\n\t\t\tmargin-right: 5px;\n\t\t}\n\t\t.down_red\n\t\t{\n\t\t\tbackground: url(/wp-content/uploads/2014/11/down.gif) no-repeat left center;\n\t\t\tpadding-left: 10px;\n\t\t\tmargin-right: 5px;\n\t\t}\n  </style>\n  <script language="javascript" type="text/javascript">\n   function resizeIframe(obj) {\n    obj.style.height = obj.contentWindow.document.body.scrollHeight + \'px\';\n  }\n  </script>\n  <!--END ICIMS PREHEADER-->\n </head>\n <body class="stretched">\n  <!-- Document Wrapper\n    ============================================= -->\n  <div class="clearfix" id="wrapper">\n   <!-- Header\n        ============================================= -->\n   <header class="full-header" id="header">\n    <div id="header-wrap">\n     <div class="container clearfix">\n      <div id="primary-menu-trigger">\n       <i class="icon-reorder">\n       </i>\n      </div>\n      <!-- Logo\n\t\t\t\t\t============================================= -->\n      <div id="logo">\n       <a class="standard-logo" data-dark-logo="/images/logo-dark.png" href="http://www.engilitycorp.com">\n        <img alt="Engility Logo" src="/images/logo.png"/>\n       </a>\n       <a class="retina-logo" data-dark-logo="/images/logo-dark@2x.png" href="http://www.engilitycorp.com">\n        <img alt="Engility Logo" src="/images/logo@2x.png"/>\n       </a>\n      </div>\n      <!-- #logo end -->\n      <!-- Primary Navigation\n============================================= -->\n      <nav class="sub-title" id="primary-menu">\n       <ul>\n        <li>\n         <a href="http://www.engilitycorp.com/about-us/">\n          About\n          <span>\n           Our Legacy\n          </span>\n         </a>\n         <ul>\n          <li>\n           <a href="http://www.engilitycorp.com/about-us/senior-leadership/">\n            Senior Leadership\n           </a>\n          </li>\n          <li>\n           <a href="http://www.engilitycorp.com/about-us/board-of-directors/">\n            Board of Directors\n           </a>\n          </li>\n          <li>\n           <a href="http://www.engilitycorp.com/about-us/account-executives/">\n            Account Executives\n           </a>\n          </li>\n          <li>\n           <a href="http://www.engilitycorp.com/about-us/ethics/">\n            Ethics\n           </a>\n          </li>\n          <li>\n           <a href="http://www.engilitycorp.com/about-us/mission-vision-values/">\n            Mission, Vision and Values\n           </a>\n          </li>\n          <li>\n           <a href="http://www.engilitycorp.com/about-us/corporate-social-responsibility/">\n            Corporate Social Responsibility\n           </a>\n          </li>\n          <li>\n           <a href="http://www.engilitycorp.com/about-us/history/">\n            History\n           </a>\n          </li>\n          <!--<li><a href="http://www.engilitycorp.com/about-us/locations/">Locations</a></li>-->\n          <li>\n           <a href="http://www.engilitycorp.com/about-us/contact-us/">\n            Contact\n           </a>\n          </li>\n         </ul>\n        </li>\n        <li>\n         <a href="http://www.engilitycorp.com/what-we-do/">\n          What We Do\n          <span>\n           Capabilities\n          </span>\n         </a>\n         <ul>\n          <li>\n           <a href="http://www.engilitycorp.com/what-we-do/services/">\n            Services\n           </a>\n           <ul>\n            <li>\n             <a href="http://www.engilitycorp.com/services/specialized-technical-consulting/">\n              Specialized Technical Consulting\n             </a>\n            </li>\n            <li>\n             <a href="http://www.engilitycorp.com/services/information-technology/">\n              Information Technology\n             </a>\n            </li>\n            <li>\n             <a href="http://www.engilitycorp.com/services/program-business-support-services/">\n              Program &amp; Business Support Services\n             </a>\n            </li>\n            <li>\n             <a href="http://www.engilitycorp.com/services/engineering-technology-life-cycle-support/">\n              Engineering &amp; Technology Life Cycle Support\n             </a>\n            </li>\n            <!--<li><a href="http://www.engilitycorp.com/services/supply-chain-services-logistics-management/">Supply Chain Services &amp; Logistics Management</a></li>-->\n            <li>\n             <a href="http://www.engilitycorp.com/services/training-learning-solutions/">\n              Training &amp; Learning Solutions\n             </a>\n            </li>\n           </ul>\n          </li>\n          <li>\n           <a href="http://www.engilitycorp.com/what-we-do/innovative-solutions/">\n            Innovative Solutions\n           </a>\n           <ul>\n            <li>\n             <a href="http://www.engilitycorp.com/innovative-solutions/deployable-communications-capability-system/">\n              DCCS\n             </a>\n            </li>\n            <li>\n             <a href="http://www.engilitycorp.com/innovative-solutions/joint-range-extension/">\n              JRE\n             </a>\n            </li>\n            <li>\n             <a href="http://www.engilitycorp.com/innovative-solutions/shelter-integration-kits/">\n              SIK\n             </a>\n            </li>\n           </ul>\n          </li>\n          <li>\n           <a href="http://www.engilitycorp.com/international-development/">\n            International Development\n           </a>\n           <ul>\n            <li>\n             <a href="http://www.engilitycorp.com/international-development/agriculture-and-food-security">\n              Agriculture &amp; Food Security\n             </a>\n            </li>\n            <li>\n             <a href="http://www.engilitycorp.com/international-development/energy/">\n              Energy\n             </a>\n            </li>\n            <li>\n             <a href="http://www.engilitycorp.com/international-development/transition-and-stability/">\n              Transition &amp; Stability\n             </a>\n            </li>\n            <li>\n             <a href="http://www.engilitycorp.com/international-development/disaster-preparedness-and-response/">\n              Disaster Preparedness &amp; Response\n             </a>\n            </li>\n            <li>\n             <a href="http://www.engilitycorp.com/international-development/water-and-the-environment/">\n              Water &amp; The Envirnoment\n             </a>\n            </li>\n           </ul>\n          </li>\n          <li>\n           <a href="http://www.engilitycorp.com/what-we-do/heritage-conference-center/">\n            Engility Heritage Conference Center\n           </a>\n          </li>\n         </ul>\n        </li>\n        <li>\n         <a href="http://www.engilitycorp.com/who-we-serve/">\n          Who We Serve\n          <span>\n           Our Customers\n          </span>\n         </a>\n         <ul>\n          <li>\n           <a href="http://www.engilitycorp.com/who-we-serve/defense/">\n            Defense\n           </a>\n           <ul>\n            <li>\n             <a href="http://www.engilitycorp.com/who-we-serve/air-force/">\n              Air Force\n             </a>\n            </li>\n            <li>\n             <a href="http://www.engilitycorp.com/who-we-serve/army/">\n              Army\n             </a>\n            </li>\n            <li>\n             <a href="http://www.engilitycorp.com/who-we-serve/marine-corps/">\n              Marine Corps\n             </a>\n            </li>\n            <li>\n             <a href="http://www.engilitycorp.com/who-we-serve/navy/">\n              Navy\n             </a>\n            </li>\n           </ul>\n          </li>\n          <li>\n           <a href="http://www.engilitycorp.com/who-we-serve/intelligence/">\n            Intelligence\n           </a>\n          </li>\n          <li>\n           <a href="http://www.engilitycorp.com/who-we-serve/federal-civilian/">\n            Federal / Civilian\n           </a>\n          </li>\n          <li>\n           <a href="http://www.engilitycorp.com/who-we-serve/space/">\n            Space\n           </a>\n          </li>\n          <li>\n           <a href="http://www.engilitycorp.com/who-we-serve/international/">\n            International\n           </a>\n          </li>\n         </ul>\n        </li>\n        <li>\n         <a href="http://www.engilitycorp.com/careers/">\n          Careers\n          <span>\n           Join Us\n          </span>\n         </a>\n         <ul>\n          <li>\n           <a href="https://careers-engility.icims.com/">\n            Opportunities\n           </a>\n          </li>\n          <li>\n           <a href="http://www.engilitycorp.com/careers/benefits/">\n            Benefits\n           </a>\n          </li>\n          <li>\n           <a href="http://www.engilitycorp.com/careers/military-veterans/">\n            Military and Veterans\n           </a>\n          </li>\n          <li>\n           <a href="http://www.engilitycorp.com/careers/diversity/">\n            Diversity\n           </a>\n          </li>\n          <!--<li><a href="http://www.engilitycorp.com/careers/program-opportunities/">Program Opportunities</a>\n                                        <ul>\n                                            <li><a href="http://www.engilitycorp.com/careers/program-opportunities/dc-metro">DC Metro</a></li>\n                                            <li><a href="http://www.engilitycorp.com/careers/program-opportunities/nsroc/">NSROC</a></li>\n                                            <li><a href="http://www.engilitycorp.com/careers/program-opportunities/smc/">SMC</a></li>\n                                        </ul>\n                                    </li>-->\n         </ul>\n        </li>\n        <li>\n         <a href="http://www.engilitycorp.com/media-center/">\n          Media Center\n          <span>\n           News\n          </span>\n         </a>\n         <ul>\n          <li>\n           <a href="http://investors.engilitycorp.com/phoenix.zhtml?c=251345&amp;p=irol-news&amp;nyo=0">\n            Press Releases\n           </a>\n          </li>\n          <li>\n           <a href="http://www.engilitycorp.com/media-center/in-the-news">\n            In The News\n           </a>\n          </li>\n          <li>\n           <a href="http://www.engilitycorp.com/media-center/calendar-of-events/">\n            Events\n           </a>\n          </li>\n          <!-- <li><a href="http://www.engilitycorp.com/media-center/awards-recognition/">Awards and Recognition</a></li> -->\n          <!-- <li><a href="http://www.engilitycorp.com/media-center/white-papers-commentary/">White Papers and Commentary</a></li> -->\n          <!--<li><a href="http://www.engilitycorp.com/media-center/contacts/">Contacts</a></li>-->\n         </ul>\n        </li>\n        <li>\n         <a href="http://www.engilitycorp.com/working-with-engility/">\n          Work With Us\n          <span>\n           Partnering with us\n          </span>\n         </a>\n         <ul>\n          <li>\n           <a href="http://www.engilitycorp.com/working-with-engility/contract-vehicles/">\n            Contract Vehicles\n           </a>\n           <ul>\n            <li>\n             <a href="http://www.engilitycorp.com/working-with-engility/contract-vehicles/legacy-drc/">\n              Legacy DRC Contracts\n             </a>\n            </li>\n            <li>\n             <a href="http://www.engilitycorp.com/working-with-engility/contract-vehicles/gsa-schedule-contracts/">\n              GSA Schedule Contracts\n             </a>\n            </li>\n            <li>\n             <a href="http://www.engilitycorp.com/working-with-engility/contract-vehicles/multi-agency-contracts/">\n              Multi-Agency Contracts\n             </a>\n            </li>\n            <li>\n             <a href="http://www.engilitycorp.com/working-with-engility/contract-vehicles/agency-specific-contracts/">\n              Agency-Specific Contracts\n             </a>\n            </li>\n           </ul>\n          </li>\n          <li>\n           <a href="http://www.engilitycorp.com/working-with-engility/mentor-protege/">\n            Mentor-Prot\xc3\xa9g\xc3\xa9 Program\n           </a>\n          </li>\n          <li>\n           <a href="http://www.engilitycorp.com/working-with-engility/small-business-program/">\n            Small Business Program\n           </a>\n          </li>\n          <li>\n           <a href="http://www.engilitycorp.com/working-with-engility/supplier-portal">\n            Engility Supplier Portal\n           </a>\n          </li>\n         </ul>\n        </li>\n        <li>\n         <a href="http://investors.engilitycorp.com/phoenix.zhtml?c=251345&amp;p=irol-irhome">\n          Investors\n          <span>\n           Information\n          </span>\n         </a>\n         <ul>\n          <li>\n           <a href="http://www.engilitycorp.com/about-us/senior-leadership/">\n            Board / Leadership Team\n           </a>\n          </li>\n          <li>\n           <a href="http://www.engilitycorp.com/about-us/">\n            Company Overview\n           </a>\n          </li>\n          <li>\n           <a href="http://www.engilitycorp.com/investors/">\n            Corporate Governance\n           </a>\n           <ul>\n            <li>\n             <a href="http://www.engilitycorp.com/about-us/ethics/">\n              Ethics &amp; Business Conduct\n             </a>\n            </li>\n            <li>\n             <a href="http://investors.engilitycorp.com/phoenix.zhtml?c=251345&amp;p=irol-govcommcomp">\n              Committee Composition\n             </a>\n            </li>\n           </ul>\n          </li>\n          <li>\n           <a href="http://investors.engilitycorp.com/phoenix.zhtml?c=251345&amp;p=irol-reportsannual">\n            Financial Reports\n           </a>\n          </li>\n          <li>\n           <a href="http://investors.engilitycorp.com/phoenix.zhtml?c=251345&amp;p=irol-faq">\n            Frequently Asked Questions\n           </a>\n          </li>\n          <li>\n           <a href="http://investors.engilitycorp.com/phoenix.zhtml?c=251345&amp;p=irol-calendar">\n            Events and Webcasts\n           </a>\n          </li>\n          <li>\n           <a href="http://investors.engilitycorp.com/phoenix.zhtml?c=251345&amp;p=irol-investorkit">\n            Investor Kit\n           </a>\n          </li>\n          <li>\n           <a href="http://investors.engilitycorp.com/phoenix.zhtml?c=251345&amp;p=irol-presentations">\n            Investor Presentations\n           </a>\n          </li>\n          <li>\n           <a href="http://investors.engilitycorp.com/phoenix.zhtml?c=251345&amp;p=irol-ownershipHolders">\n            Ownership Profile\n           </a>\n          </li>\n          <li>\n           <a href="http://investors.engilitycorp.com/phoenix.zhtml?c=251345&amp;p=irol-news&amp;nyo=0">\n            Press Releases\n           </a>\n          </li>\n          <li>\n           <a href="http://investors.engilitycorp.com/phoenix.zhtml?c=251345&amp;p=quarterlyearnings">\n            Quarterly Earnings\n           </a>\n          </li>\n          <li>\n           <a href="http://investors.engilitycorp.com/phoenix.zhtml?c=251345&amp;p=irol-sec">\n            SEC Filings\n           </a>\n          </li>\n          <li>\n           <a href="http://investors.engilitycorp.com/phoenix.zhtml?c=251345&amp;p=irol-stockquote">\n            Stock Price Information\n           </a>\n           <ul>\n            <li>\n             <a href="http://investors.engilitycorp.com/phoenix.zhtml?c=251345&amp;p=irol-stockchart">\n              Stock Chart\n             </a>\n            </li>\n            <li>\n             <a href="http://investors.engilitycorp.com/phoenix.zhtml?c=251345&amp;p=irol-stocklookup">\n              Historical Price Lookup\n             </a>\n            </li>\n            <li>\n             <a href="http://investors.engilitycorp.com/phoenix.zhtml?c=251345&amp;p=irol-stockcalculator">\n              Investment Calculator\n             </a>\n            </li>\n           </ul>\n          </li>\n          <li>\n           <a href="http://investors.engilitycorp.com/phoenix.zhtml?c=251345&amp;p=irol-inforeq">\n            Contact Us / Request Information\n           </a>\n          </li>\n          <li>\n           <a href="http://investors.engilitycorp.com/phoenix.zhtml?c=251345&amp;p=irol-alerts">\n            Email Alerts\n           </a>\n          </li>\n         </ul>\n        </li>\n        <!-- <li><a href="#">Employee Portal</a></li> -->\n       </ul>\n       <!-- Top Search\n                        ============================================= -->\n       <div id="top-search">\n        <!-- This code is from google: https://cse.google.com -->\n        <script>\n         (function() {\n                                var cx = \'006228583842061292556:b_wfhy8skpo\';\n                                var gcse = document.createElement(\'script\');\n                                gcse.type = \'text/javascript\';\n                                gcse.async = true;\n                                gcse.src = (document.location.protocol == \'https:\' ? \'https:\' : \'http:\') +\n                                    \'//cse.google.com/cse.js?cx=\' + cx;\n                                var s = document.getElementsByTagName(\'script\')[0];\n                                s.parentNode.insertBefore(gcse, s);\n                              })();\n        </script>\n        <a href="#" id="top-search-trigger">\n         <i class="icon-search3">\n         </i>\n         <!-- <i class="icon-line-cross"></i> -->\n        </a>\n        <!-- <gcse:searchbox-only newWindow="false" resultsUrl="http://www.engilitycorp.com/results/?q=myQuery" queryParameterName="q"></gcse:searchbox-only> REFERENCE ONLY -->\n        <gcse:searchbox-only newwindow="false" resultsetsize="large" resultsurl="http://www.engilitycorp.com/results" safesearch="active">\n        </gcse:searchbox-only>\n       </div>\n       <!-- #top-search end -->\n      </nav>\n      <!-- #primary-menu end -->\n     </div>\n    </div>\n   </header>\n   <!-- #header end -->\n   <!-- Page Breadcrumb BLUE\n============================================= -->\n   <div id="page-menu">\n    <div id="page-menu-wrap" style="background-color: #005b99;">\n     <div class="container clearfix">\n      <div class="menu-title">\n       <b>\n        Careers\n       </b>\n       /\n      </div>\n     </div>\n    </div>\n   </div>\n   <!-- #page breadcrumb end -->\n   <!-- Content\n        ============================================= -->\n   <section id="content">\n    <div class="content-wrap">\n     <div class="container clearfix">\n      <div class="postcontent nobottommargin col_last clearfix">\n       <div class="fancy-title title-bottom-border">\n        <h2>\n         Careers\n        </h2>\n       </div>\n       <!--BEGIN ICIMS-->\n       <script src="https://cdn07.icims.com/a/images.icims.com/content/platform_102.1.170410.1491841013/script/lib/domreplacement/domReplacement.js" type="text/javascript">\n       </script>\n       <script src="https://cdn07.icims.com/a/images.icims.com/content/platform_102.1.170410.1491841013/script/common/icims.js" type="text/javascript">\n       </script>\n       <script src="https://cdn07.icims.com/a/images.icims.com/content/platform_102.1.170410.1491841013/script/portal/utils.js" type="text/javascript">\n       </script>\n       <script type="text/javascript">\n        var useAutoScrolling = false;\n       </script>\n       <!--[if lte IE 8]>\n<script type="text/javascript">useAutoScrolling = true;</script>\n<![endif]-->\n       <script type="text/javascript">\n        if (window.addEventListener) {\nwindow.addEventListener(\'message\', icims_handlePostMessage, false);\n} else if (window.attachEvent) {\nwindow.attachEvent(\'onmessage\', icims_handlePostMessage);\n}\nfunction icims_handlePostMessage(event) {\n// If this is not a message from an icims domain, ignore it.\nif (event.origin.indexOf(\'icims.com\', event.origin.length - 9) == -1) return;\nvar data = null;\ntry {\ndata = ICIMS.jsonDecode(event.data);\n} catch(e) {}\nif (data == null && event.data != null) data = event.data;\ntry {\nif (\'height\' in data) {\nif (!isNaN(data[\'height\'])) {\ndocument.getElementById(\'icims_content_iframe\').height = parseInt(data[\'height\']) + 60;\n}\n} else if (\'x\' in data && \'y\' in data) {\nif (!isNaN(data[\'x\']) && !isNaN(data[\'y\'])) {\ntop.scrollTo(parseInt(data[\'x\']), parseInt(data[\'y\']));\n}\n}\n} catch (e) {}\n}\nfunction getCookie(name) {\nvar match = document.cookie.match(name + \'=(.*?)(;|$)\');\nif (match) return unescape(match[1]);\nelse return "";\n}\nfunction updateUrl(url) {\ntry {\nhistory.replaceState({}, \'\', url);\n} catch (e) {}\n}\nicimsAddOnload(function() {\nvar icimsFrame = document.createElement(\'iframe\');\nvar iFrameHeight = 500;\nicimsFrame.id = \'icims_content_iframe\';\nicimsFrame.name = \'icims_content_iframe\';\nicimsFrame.src = \'https:\\/\\/careers-engility.icims.com\\/jobs\\/26105\\/job?mode=job&iis=Monster&iisn=MonsterPPC&utm_source=Monster&utm_medium=PPC&utm_campaign=Monster_PPC_HireClix&in_iframe=1\';\nicimsFrame.setAttribute(\'width\', \'100%\');\n\n\niFrameHeight = 500;\n\nicimsFrame.setAttribute(\'height\', iFrameHeight);\n\nif (!useAutoScrolling && window.postMessage) {\nicimsFrame.setAttribute(\'scrolling\', \'no\');\n} else {\nicimsFrame.setAttribute(\'scrolling\', \'auto\');\n}\nicimsFrame.setAttribute(\'title\', \'iCIMS Content iFrame\');\nicimsFrame.setAttribute(\'marginwidth\', \'0\');\nicimsFrame.setAttribute(\'marginheight\', \'0\');\nicimsFrame.setAttribute(\'frameborder\', \'0\');\nicimsFrame.onload=function() {\ntry {\nwindow.parent.parent.scrollTo(0,0);\n} catch (e) {}\n};\ndocument.getElementById(\'icims_iframe_span\').appendChild(icimsFrame);\ntry {\nvar height = getCookie(\'cookie_icims_iframe_content_height\');\nif (height > 0) style.height = height + \'px\';\n} catch(e) {}\ndocument.getElementById(\'icims_content_iframe\').onreadystatechange = function() {\ntry{\nif (\'interactive\' == this.readyState) {\nwindow.scroll(1,1);\n}\n} catch(e) {}\n};\ntry {\nvar height = 0;\nif (navigator.userAgent.indexOf("Firefox")!=-1) height = document.body.offsetHeight + 16;\nelse height = document.body.scrollHeight;\ndocument.cookie="cookie_icims_iframe_content_height="+height+"; path=/;";\n} catch(e) {}\n});\n       </script>\n       <span id="icims_iframe_span">\n        <noscript>\n         <iframe frameborder="0" height="500" id="icims_content_iframe" marginheight="0" marginwidth="0" name="icims_content_iframe" scrolling="auto" src="https://careers-engility.icims.com/jobs/26105/job?mode=job&amp;iis=Monster&amp;iisn=MonsterPPC&amp;utm_source=Monster&amp;utm_medium=PPC&amp;utm_campaign=Monster_PPC_HireClix&amp;in_iframe=1" title="iCIMS Content iFrame" width="100%">\n          Your browser does not support inline frames or is currently configured not to display inline frames. Content can be viewed at the actual source page: _IFRAME_SRC_\n         </iframe>\n        </noscript>\n       </span>\n       <!--END ICIMS-->\n      </div>\n      <!-- .postcontent end -->\n      <!-- Sidebar\n                    ============================================= -->\n      <div class="sidebar nobottommargin clearfix">\n       <div class="sidebar-widgets-wrap">\n        <div class="widget widget_links clearfix">\n         <hr style="margin-top:5px; margin-bottom:5px; border-top:1px solid #c2213f;"/>\n         <ul>\n          <li>\n           <a href="https://careers-engility.icims.com/">\n            <div>\n             Opportunities\n            </div>\n           </a>\n          </li>\n          <!--<li><a href="http://www.engilitycorp.com/careers/working-at-engility/"><div>Working at Engility</div></a></li>-->\n          <li>\n           <a href="http://www.engilitycorp.com/careers/benefits/">\n            <div>\n             Benefits\n            </div>\n           </a>\n          </li>\n          <li>\n           <a href="http://www.engilitycorp.com/careers/military-veterans/">\n            <div>\n             Military &amp; Veterans\n            </div>\n           </a>\n          </li>\n          <!--<li><a href="http://www.engilitycorp.com/careers/college-students/"><div>College Students</div></a></li>-->\n          <li>\n           <a href="http://www.engilitycorp.com/careers/diversity/">\n            <div>\n             Diversity\n            </div>\n           </a>\n          </li>\n         </ul>\n        </div>\n       </div>\n      </div>\n      <!-- .sidebar end -->\n     </div>\n    </div>\n   </section>\n   <!-- #content end -->\n   <!-- Referenced from site group universal footer -->\n   <!-- Footer\n    ============================================= -->\n   <footer class="dark" id="footer">\n    <!-- Copyrights\n    ============================================= -->\n    <div id="copyrights">\n     <div class="container clearfix">\n      <div class="col_half">\n       <img alt="" class="footer-logo" src="/images/footer-logo.png"/>\n       Copyrights \xc2\xa9 2016 All Rights Reserved by Engility Corporation.\n       <br/>\n       <div class="copyright-links">\n        <a href="http://www.engilitycorp.com/terms-of-use">\n         Terms of Use\n        </a>\n        /\n        <a href="http://www.engilitycorp.com/privacy-policy">\n         Privacy Policy\n        </a>\n       </div>\n       <span style="font-size: .75em">\n        * Use of DoD imagery does not imply an endorsement by the U.S. Government\n       </span>\n      </div>\n      <div class="col_half col_last tright">\n       <div class="copyrights-menu copyright-links fright clearfix">\n        <a href="http://www.engilitycorp.com">\n         Home\n        </a>\n        /\n        <a href="http://www.engilitycorp.com/about-us/">\n         About Us\n        </a>\n        /\n        <a href="http://www.engilitycorp.com/what-we-do/">\n         What We Do\n        </a>\n        /\n        <a href="http://www.engilitycorp.com/who-we-serve/">\n         Who We Serve\n        </a>\n        /\n        <a href="http://www.engilitycorp.com/careers/">\n         Careers\n        </a>\n        /\n        <a href="http://www.engilitycorp.com/media-center/">\n         Media Center\n        </a>\n        /\n        <a href="http://www.engilitycorp.com/working-with-engility">\n         Working with Us\n        </a>\n        /\n        <a href="http://www.engilitycorp.com/investors/">\n         Investors\n        </a>\n        /\n        <a href="https://portal.engilitycorp.com" target="_blank">\n         Employees\n        </a>\n       </div>\n       <div class="fright clearfix">\n        <a class="social-icon si-colored si-facebook" href="https://www.facebook.com/Engility">\n         <i class="icon-facebook">\n         </i>\n         <i class="icon-facebook">\n         </i>\n        </a>\n        <a class="social-icon si-colored si-twitter" href="https://twitter.com/engilitycorp">\n         <i class="icon-twitter">\n         </i>\n         <i class="icon-twitter">\n         </i>\n        </a>\n        <a class="social-icon si-colored si-linkedin" href="https://www.linkedin.com/company/engility-corporation">\n         <i class="icon-linkedin">\n         </i>\n         <i class="icon-linkedin">\n         </i>\n        </a>\n       </div>\n      </div>\n     </div>\n    </div>\n    <!-- #copyrights end -->\n   </footer>\n   <!-- #footer end -->\n   <!-- Google Analtyics Code -->\n   <script>\n    (function(i,s,o,g,r,a,m){i[\'GoogleAnalyticsObject\']=r;i[r]=i[r]||function(){(i[r].q=i[r].q||[]).push(arguments)},i[r].l=1*new Date();a=s.createElement(o),\n  m=s.getElementsByTagName(o)[0];a.async=1;a.src=g;m.parentNode.insertBefore(a,m)\n  })(window,document,\'script\',\'//www.google-analytics.com/analytics.js\',\'ga\');\n\n  ga(\'create\', \'UA-45066798-1\', \'auto\');\n  ga(\'send\', \'pageview\');\n   </script>\n  </div>\n  <!-- #wrapper end \'images/footer-bg.jpg\'-->\n  <!-- Go To Top\n  ============================================= -->\n  <div class="icon-angle-up" id="gotoTop">\n  </div>\n  <!-- Footer Scripts\n  ============================================= -->\n  <script src="/js/functions.js" type="text/javascript">\n  </script>\n </body>\n</html>\n'
tp2
a(S'http://job-openings.monster.com/monster/fb766924-8bee-4379-bc88-e02419bb3450'
S'<!DOCTYPE html>\n<!--[if lt IE 7]>      <html class="no-js lt-ie9 lt-ie8 lt-ie7"> <![endif]-->\n<!--[if IE 7]>         <html class="no-js lt-ie9 lt-ie8"> <![endif]-->\n<!--[if IE 8]>         <html class="no-js lt-ie9"> <![endif]-->\n<!--[if gt IE 8]><!-->\n<html class="no-js">\n <!--<![endif]-->\n <head>\n  <title>\n   Senior Software Engineer in Test - Tala | Jobs.com\n  </title>\n  <meta charset="utf-8"/>\n  <meta content="IE=edge,chrome=1" http-equiv="X-UA-Compatible"/>\n  <meta content="text/html; charset=utf-8" http-equiv="Content-Type"/>\n  <meta content="width=device-width, initial-scale=1.0" name="viewport"/>\n  <meta content="Tala - Manila, AR. We\'re looking for a Senior Software Engineer who happens to have a passion" name="description"/>\n  <link href="http://plus.monster.com/+monster" rel="publisher"/>\n  <link href="https://maxcdn.bootstrapcdn.com/bootstrap/3.2.0/css/bootstrap.min.css" rel="stylesheet"/>\n  <link href="https://maxcdn.bootstrapcdn.com/font-awesome/4.2.0/css/font-awesome.min.css" rel="stylesheet"/>\n  <link href="/bundles/monster?v=3VUpvWSKWfcSTe2LCMpXVIfzIyGEJcLvPJMZUFZH8gg1" rel="stylesheet"/>\n  <!-- Favicon -->\n  <link href="http://media.newjobs.com/niche/img/favicon/favicon.ico" rel="shortcut icon"/>\n  <meta content="noindex, nofollow" name="robots"/>\n  <meta content="Monster" name="m_impr.a_affiliate_id"/>\n  <meta content="jobview" name="_ac.page_name"/>\n  <!-- Le HTML5 shim, for IE6-8 support of HTML5 elements -->\n  <!--[if lt IE 9]>\r\n    <script src="/scripts/third_party/html5shiv.js"></script>\r\n    <script src="/scripts/bootstrap/respond.min.js" type="text/javascript"></script>\r\n\r\n    <script type="text/javascript">\r\n        if (!Array.prototype.forEach) {\r\n            Array.prototype.forEach = function (fun /*, thisArg */) {\r\n                "use strict";\r\n                if (this === void 0 || this === null || typeof fun !== "function") throw new TypeError();\r\n\r\n                var\r\n                    t = Object(this),\r\n                    len = t.length >>> 0,\r\n                    thisArg = arguments.length >= 2 ? arguments[1] : void 0;\r\n\r\n                for (var i = 0; i < len; i++)\r\n                    if (i in t)\r\n                        fun.call(thisArg, t[i], i, t);\r\n            };\r\n        }\r\n    </script>\r\n<![endif]-->\n </head>\n <body>\n  <div class="page">\n   <div class="navbar navbar-default navbar-fixed-top">\n    <div class="container">\n     <!--<div class="container">-->\n     <div class="navbar-header" itemscope="" itemtype="http://schema.org/Organization">\n      <a class="navbar-brand" href="http://www.monster.com" itemprop="url">\n       <img alt="monster.com" itemprop="logo" src="/Areas/JobViewCloud/content/images/monster-new.png" title="monster.com"/>\n      </a>\n     </div>\n     <!-- large screen navbar-collapse location -->\n     <div class="navbar-collapse collapse hidden-xs">\n     </div>\n     <!--/.navbar-collapse -->\n    </div>\n    <!-- ./container -->\n   </div>\n   <!-- ./navbar -->\n   <div class="jobview container">\n    <div class="row">\n     <input id="normalized-company-id" type="hidden" value=""/>\n     <div class="col-xs-12 col-sm-6 col-md-8 col-lg-8">\n      <article id="jobview">\n       <header class="jobview-header">\n        <h3>\n         Senior Software Engineer in Test\n        </h3>\n        <h4 class="company">\n         Tala\n         <small class="location">\n          -\n          <i class="fa fa-map-marker">\n          </i>\n          Manila, AR\n         </small>\n        </h4>\n        <span class="postedDate">\n         <strong>\n          Posted:\n         </strong>\n         3/16/2017\n        </span>\n       </header>\n       <!-- ./jobview-header -->\n       <div class="jobview-upper-apply-mobile visible-xs row">\n        <div class="col-sm-6">\n         <div class="action-buttons">\n          <input id="trackInfo" type="hidden" value=\'{"emailAddress":"","postingId":"fb766924-8bee-4379-bc88-e02419bb3450","placementID":null,"jobPosition":0,"uniqueUser":null,"affiliate":"Monster","technology":null}\'/>\n          <a class="btn btn-sm btn-primary btn-jobsdotcom" data-action="apply" data-applyurl="https://boards.greenhouse.io/tala/jobs/465495" data-atm-id="35" data-confurl="http://job-openings.monster.com/monster/confirmation?postingid=fb766924-8bee-4379-bc88-e02419bb3450" data-form-selector=".email-collection" href="http://job-openings.monster.com/monster/confirmation?postingid=fb766924-8bee-4379-bc88-e02419bb3450" rel="nofollow" role="button">\n           Apply Now\n          </a>\n          <form action="https://boards.greenhouse.io/tala/jobs/465495" aria-hidden="true" class="email-collection hidden panel panel-default" data-id="fb766924-8bee-4379-bc88-e02419bb3450" data-lrtype="B" data-placement="Left-Bottom-Body" data-position="0" data-remote-subscription="/LiteReg/ApplySubscription" data-remote-validation="/LiteReg/IsEmailValid" data-technology="" method="POST" target="_blank">\n           <div class="panel-body">\n            <div class="row-flex">\n             <div class="col-flex stretch">\n              <input class="form-control input-sm" id="EmailCollectionField2" name="litRegEmailAddress" placeholder="Please enter your email" type="email"/>\n             </div>\n            </div>\n            <label class="control-label" for="EmailCollectionField2">\n             To begin the application, please enter your email\n            </label>\n            <span class="help-block small">\n             By continuing you agree to Monster\'s\n             <a href="http://my.monster.com/Privacy/Default.aspx" target="_blank" title="Privacy Policy">\n              Privacy Policy\n             </a>\n             ,\n             <a href="http://my.monster.com/Terms/Default.aspx" target="_blank" title="Terms of Use">\n              Terms of Use\n             </a>\n             and\n             <a href="http://inside.monster.com/cookie-info/inside2.aspx" target="_blank" title="use of cookies">\n              use of cookies\n             </a>\n             .\n            </span>\n            <button class="sr-only" type="submit">\n             Continue application\n            </button>\n           </div>\n          </form>\n         </div>\n        </div>\n       </div>\n       <div class="jobview-section">\n        We\'re looking for a Senior Software Engineer who happens to have a passion in testing and quality assurance. You will help plan, estimate, coordinate, and automate testing activities for our financial platform that is serving millions of users across the world. You will also work with product managers, developers, and customer service agents to ensure that quality issues and defects are appropriately identified, documented, tracked, and resolved.\n        <br/>\n        <br/>\n        Responsibilities:\n        <br/>\n        <br/>\n        * Create detailed, comprehensive and well-structured test plans and test cases\n        <br/>\n        <br/>\n        * Perform thorough regression/smoke tests before code deployments\n        <br/>\n        <br/>\n        * Design, develop, and execute automated test harnesses around Android application and Backend APIs\n        <br/>\n        <br/>\n        * Write scripts and perform load tests against Backend servers\n        <br/>\n        <br/>\n        * Contribute to continuous integration and continuous deployment\n        <br/>\n        <br/>\n        * Work with customer service, product, and development teams to identify and track bugs\n        <br/>\n        <br/>\n        * Review requirements specifications and provide timely and meaningful feedback\n        <br/>\n        <br/>\n        Requirements:\n        <br/>\n        <br/>\n        * Experience - 4+ years experience in Software Engineering in Test role\n        <br/>\n        <br/>\n        * Detailed oriented - keen eye for details ranging from copy to pixels. Ability to communicate those details to others and translate to specs\n        <br/>\n        <br/>\n        * Team player - enjoy working closely with engineers, product managers, and cross-functional teams\n        <br/>\n        <br/>\n        * Initiative - highly motivated and self-disciplined. You can work independently and be productive\n        <br/>\n        <br/>\n        * Startup ready - Excellent ability to prioritize and communication in a fast pace environment\n        <br/>\n        <br/>\n        Preferred Skills &amp; Requirements:\n        <br/>\n        <br/>\n        * Experience working in Agile development process (Scrum, Kanban, Scrumban)\n        <br/>\n        <br/>\n        * Experience building test automation (Java, TestNG, Robolectric, Espresso, Appium, AWS Device Farm, Jenkins, Shell Scripting, Linux, Mac OS)\n        <br/>\n        <br/>\n        * Java - 2+ years writing production Java code\n        <br/>\n        <br/>\n        * Computer Science degree\n        <br/>\n        <br/>\n        * Experience working closely with remote team members in different timezones\n        <br/>\n        <br/>\n        We strongly believe that inclusion fosters innovation and we\'re proud to have a diverse team with a wide variety of backgrounds and experiences. We focus on hiring talented people regardless of race, religion, color, national origin, gender, sexual orientation, age, marital status, veteran status, or disability status.\n        <br/>\n        <br/>\n        About Tala\n        <br/>\n        <br/>\n        Tala is a mobile technology and data science company that is changing the way credit scoring and financial services work around the world. Tala\'s smartphone app instantly evaluates customers for credit using only the data on their devices and delivers customized loans in minutes.\n        <br/>\n        <br/>\n        Tala, formerly known as InVenture, is backed by IVP, Ribbit Capital, Lowercase Capital, Data Collective, Collaborative Fund and other leading venture and impact investors. In 2016, Fast Company ranked Tala, formerly known as InVenture, as one of its top 10 companies in Money, and Forbes named Tala as one of the top 50 FinTech companies in the world. Tala is headquartered in Santa Monica with additional offices in Nairobi and Manila.\n       </div>\n       <!-- ./jobview-section -->\n       <div class="hidden-xs jobview-footer row">\n        <div class="col-sm-6">\n         <div class="action-buttons">\n          <input id="trackInfo" type="hidden" value=\'{"emailAddress":"","postingId":"fb766924-8bee-4379-bc88-e02419bb3450","placementID":null,"jobPosition":0,"uniqueUser":null,"affiliate":"Monster","technology":null}\'/>\n          <a class="btn btn-sm btn-primary btn-jobsdotcom" data-action="apply" data-applyurl="https://boards.greenhouse.io/tala/jobs/465495" data-atm-id="35" data-confurl="http://job-openings.monster.com/monster/confirmation?postingid=fb766924-8bee-4379-bc88-e02419bb3450" data-form-selector=".email-collection" href="http://job-openings.monster.com/monster/confirmation?postingid=fb766924-8bee-4379-bc88-e02419bb3450" rel="nofollow" role="button">\n           Apply Now\n          </a>\n          <form action="https://boards.greenhouse.io/tala/jobs/465495" aria-hidden="true" class="email-collection hidden panel panel-default" data-id="fb766924-8bee-4379-bc88-e02419bb3450" data-lrtype="B" data-placement="Left-Bottom-Body" data-position="0" data-remote-subscription="/LiteReg/ApplySubscription" data-remote-validation="/LiteReg/IsEmailValid" data-technology="" method="POST" target="_blank">\n           <div class="panel-body">\n            <div class="row-flex">\n             <div class="col-flex stretch">\n              <input class="form-control input-sm" id="EmailCollectionField2" name="litRegEmailAddress" placeholder="Please enter your email" type="email"/>\n             </div>\n            </div>\n            <label class="control-label" for="EmailCollectionField2">\n             To begin the application, please enter your email\n            </label>\n            <span class="help-block small">\n             By continuing you agree to Monster\'s\n             <a href="http://my.monster.com/Privacy/Default.aspx" target="_blank" title="Privacy Policy">\n              Privacy Policy\n             </a>\n             ,\n             <a href="http://my.monster.com/Terms/Default.aspx" target="_blank" title="Terms of Use">\n              Terms of Use\n             </a>\n             and\n             <a href="http://inside.monster.com/cookie-info/inside2.aspx" target="_blank" title="use of cookies">\n              use of cookies\n             </a>\n             .\n            </span>\n            <button class="sr-only" type="submit">\n             Continue application\n            </button>\n           </div>\n          </form>\n         </div>\n        </div>\n       </div>\n       <!-- ./jobview-footer -->\n      </article>\n      <!-- ./#jobview -->\n     </div>\n     <div class="col-xs-12 col-sm-6 col-md-4 col-lg-4">\n      <div class="jobview-affix">\n       <div style="background-color: #fff;">\n        <input id="trackInfo" type="hidden" value=\'{"emailAddress":"","postingId":"fb766924-8bee-4379-bc88-e02419bb3450","placementID":null,"jobPosition":0,"uniqueUser":null,"affiliate":"Monster","technology":null}\'/>\n        <form action="https://boards.greenhouse.io/tala/jobs/465495" aria-hidden="true" class="email-collection hidden" data-id="fb766924-8bee-4379-bc88-e02419bb3450" data-lrtype="R" data-placement="Right-Top-Rail" data-position="0" data-remote-subscription="/LiteReg/ApplySubscription" data-remote-validation="/LiteReg/IsEmailValid" data-technology="" method="POST" target="_blank">\n         <div class="form-group">\n          <label class="control-label" for="EmailCollectionField1">\n           To begin the application, please enter your email\n          </label>\n          <input class="form-control input-sm" id="EmailCollectionField1" name="litRegEmailAddress" placeholder="Please enter your email" type="email"/>\n         </div>\n         <span class="help-block small">\n          By continuing you agree to Monster\'s\n          <a href="http://my.monster.com/Privacy/Default.aspx" target="_blank" title="Privacy Policy">\n           Privacy Policy\n          </a>\n          ,\n          <a href="http://my.monster.com/Terms/Default.aspx" target="_blank" title="Terms of Use">\n           Terms of Use\n          </a>\n          and\n          <a href="http://inside.monster.com/cookie-info/inside2.aspx" target="_blank" title="use of cookies">\n           use of cookies\n          </a>\n          .\n         </span>\n         <button class="sr-only" type="submit">\n          Continue application\n         </button>\n        </form>\n        <a class="btn btn-sm btn-primary btn-block btn-jobsdotcom" data-action="apply" data-applyurl="https://boards.greenhouse.io/tala/jobs/465495" data-atm-id="36" data-confurl="http://job-openings.monster.com/monster/confirmation?postingid=fb766924-8bee-4379-bc88-e02419bb3450" data-form-selector=".email-collection" href="http://job-openings.monster.com/monster/confirmation?postingid=fb766924-8bee-4379-bc88-e02419bb3450" rel="nofollow" role="button">\n         Apply Now\n        </a>\n        <div class="social-sharing no-logo">\n         <h5>\n          Share this Job\n         </h5>\n         <a href="https://www.twitter.com/share?url=%20&amp;text=Senior+Software+Engineer+in+Test at Tala http://job-openings.monster.com/monster/fb766924-8bee-4379-bc88-e02419bb3450 via @monster" target="_blank" title="Share this job on Twitter">\n          <i class="fa fa-2x fa-twitter" style="margin: 0 4px;">\n          </i>\n         </a>\n         <a href="https://plus.google.com/share?url=http://job-openings.monster.com/monster/fb766924-8bee-4379-bc88-e02419bb3450" target="_blank" title="Share this job on Google+">\n          <i class="fa fa-2x fa-google-plus" style="margin: 0 4px;">\n          </i>\n         </a>\n         <a href="mailto: ?subject=Senior Software Engineer in Test - Tala | Monster.com&amp;body=Tala http://job-openings.monster.com/monster/fb766924-8bee-4379-bc88-e02419bb3450" title="Share this job via Email">\n          <i class="fa fa-2x fa-envelope-o" style="margin: 0 4px;">\n          </i>\n         </a>\n        </div>\n       </div>\n       <div>\n        <div class="jobview-related-jobs" id="relatedJobs">\n         <div class="related-job-container">\n          <h5>\n           Related Jobs\n          </h5>\n          <ul class="list-unstyled">\n           <li>\n            <a class="cloudJobs" data-m_impr_a_placement_id="rjv1" data-m_impr_j_cid="11455" data-m_impr_j_coc="" data-m_impr_j_jawsid="228466543" data-m_impr_j_jobid="182694312" data-m_impr_j_jpm="1" data-m_impr_j_jpt="1" data-m_impr_j_lat="0" data-m_impr_j_lid="334" data-m_impr_j_long="0" data-m_impr_j_occid="0" data-m_impr_j_p="1" data-m_impr_j_postingid="abad5a4a-99c0-402e-af6a-1025f2637e77" data-m_impr_j_pvc="monster" data-m_impr_s_search_query="" data-m_impr_s_t="RE_EXP6b_JSJ_CR" data-m_impr_uuid="5b22a203-47f0-412a-9d7b-31bae45ff7d1" href="http://jobview.monster.com/Quality-Engineer-Job-Little-Rock-AR-US-182694312.aspx?intcid=js" onclick="jobClick(this, \'http://jobview.monster.com/Quality-Engineer-Job-Little-Rock-AR-US-182694312.aspx?intcid=js\', \'newjobsprodseekerus\', \'click on jobview from jobview\')" rel="nofollow" target="_blank" title="View This Job: Quality Engineer">\n             Quality Engineer\n            </a>\n            <div class="location small text-muted">\n             Little Rock - AR\n            </div>\n           </li>\n           <li>\n            <a class="cloudJobs" data-m_impr_a_placement_id="rjv1" data-m_impr_j_cid="660" data-m_impr_j_coc="" data-m_impr_j_jawsid="193843127" data-m_impr_j_jobid="" data-m_impr_j_jpm="1" data-m_impr_j_jpt="2" data-m_impr_j_lat="0" data-m_impr_j_lid="0" data-m_impr_j_long="0" data-m_impr_j_occid="0" data-m_impr_j_p="2" data-m_impr_j_postingid="2200c663-ba0b-4597-9c5d-eb06d29f8c9b" data-m_impr_j_pvc="19bbe83e-1f58-4706-92ee-2dcc97f46231" data-m_impr_s_search_query="" data-m_impr_s_t="RE_EXP6b_JSJ_CR" data-m_impr_uuid="035aff46-79d9-47b4-9098-1e0d6c60d8a5" href="http://job-openings.monster.com/monster/2200c663-ba0b-4597-9c5d-eb06d29f8c9b?intcid=js" onclick="jobClick(this, \'http://job-openings.monster.com/monster/2200c663-ba0b-4597-9c5d-eb06d29f8c9b?intcid=js\', \'newjobsprodseekerus\', \'click on jobview from jobview\')" rel="nofollow" target="_blank" title="View This Job: Senior quality engineer">\n             Senior quality engineer\n            </a>\n            <div class="location small text-muted">\n             Cameron Craig Group, Central part of state - AR\n            </div>\n           </li>\n           <li>\n            <a class="cloudJobs" data-m_impr_a_placement_id="rjv1" data-m_impr_j_cid="47" data-m_impr_j_coc="" data-m_impr_j_jawsid="172754661" data-m_impr_j_jobid="" data-m_impr_j_jpm="1" data-m_impr_j_jpt="2" data-m_impr_j_lat="0" data-m_impr_j_lid="334" data-m_impr_j_long="0" data-m_impr_j_occid="0" data-m_impr_j_p="3" data-m_impr_j_postingid="8fb51f39-02a5-4146-bc07-a496e281a6bc" data-m_impr_j_pvc="19bbe83e-1f58-4706-92ee-2dcc97f46231" data-m_impr_s_search_query="" data-m_impr_s_t="RE_EXP6b_JSJ_CR" data-m_impr_uuid="3d0321e6-73de-4ccb-9965-85f4ae7e7ebe" href="http://job-openings.monster.com/monster/8fb51f39-02a5-4146-bc07-a496e281a6bc?intcid=js" onclick="jobClick(this, \'http://job-openings.monster.com/monster/8fb51f39-02a5-4146-bc07-a496e281a6bc?intcid=js\', \'newjobsprodseekerus\', \'click on jobview from jobview\')" rel="nofollow" target="_blank" title="View This Job: Senior Reliability Engineer">\n             Senior Reliability Engineer\n            </a>\n            <div class="location small text-muted">\n             Cameron Craig Group, Monticello - AR\n            </div>\n           </li>\n           <li>\n            <a class="cloudJobs" data-m_impr_a_placement_id="rjv1" data-m_impr_j_cid="4" data-m_impr_j_coc="" data-m_impr_j_jawsid="230125573" data-m_impr_j_jobid="" data-m_impr_j_jpm="1" data-m_impr_j_jpt="2" data-m_impr_j_lat="0" data-m_impr_j_lid="333" data-m_impr_j_long="0" data-m_impr_j_occid="0" data-m_impr_j_p="4" data-m_impr_j_postingid="4fdc5847-752c-4a7d-8cbc-860ac761df90" data-m_impr_j_pvc="beyondftpin" data-m_impr_s_search_query="" data-m_impr_s_t="RE_EXP6b_JSJ_CR" data-m_impr_uuid="8759dc02-ce2f-4999-a6a7-f2fd2fa6eb0f" href="http://job-openings.monster.com/monster/4fdc5847-752c-4a7d-8cbc-860ac761df90?intcid=js" onclick="jobClick(this, \'http://job-openings.monster.com/monster/4fdc5847-752c-4a7d-8cbc-860ac761df90?intcid=js\', \'newjobsprodseekerus\', \'click on jobview from jobview\')" rel="nofollow" target="_blank" title="View This Job: Senior Quality Control Engineer">\n             Senior Quality Control Engineer\n            </a>\n            <div class="location small text-muted">\n             CyberCoders, Marion - AR\n            </div>\n           </li>\n           <li>\n            <a class="cloudJobs" data-m_impr_a_placement_id="rjv1" data-m_impr_j_cid="4" data-m_impr_j_coc="xewstekx " data-m_impr_j_jawsid="211949274" data-m_impr_j_jobid="180083093" data-m_impr_j_jpm="1" data-m_impr_j_jpt="1" data-m_impr_j_lat="0" data-m_impr_j_lid="333" data-m_impr_j_long="0" data-m_impr_j_occid="0" data-m_impr_j_p="5" data-m_impr_j_postingid="c62103fd-2211-49d3-aaa8-3e05a8af3533" data-m_impr_j_pvc="monster" data-m_impr_s_search_query="" data-m_impr_s_t="RE_EXP6b_JSJ_CR" data-m_impr_uuid="082d9c3a-3e52-43d2-959b-2a57cabe870b" href="http://jobview.monster.com/Controls-Engineer-Job-Blytheville-AR-US-180083093.aspx?intcid=js" onclick="jobClick(this, \'http://jobview.monster.com/Controls-Engineer-Job-Blytheville-AR-US-180083093.aspx?intcid=js\', \'newjobsprodseekerus\', \'click on jobview from jobview\')" rel="nofollow" target="_blank" title="View This Job: Controls Engineer">\n             Controls Engineer\n            </a>\n            <div class="location small text-muted">\n             ResourceTek, Blytheville - AR\n            </div>\n           </li>\n           <li>\n            <a class="cloudJobs" data-m_impr_a_placement_id="rjv1" data-m_impr_j_cid="660" data-m_impr_j_coc="xgen10x " data-m_impr_j_jawsid="228788560" data-m_impr_j_jobid="182757080" data-m_impr_j_jpm="1" data-m_impr_j_jpt="1" data-m_impr_j_lat="0" data-m_impr_j_lid="333" data-m_impr_j_long="0" data-m_impr_j_occid="0" data-m_impr_j_p="6" data-m_impr_j_postingid="37b38404-807e-4ed6-a716-7f1b832c9ad0" data-m_impr_j_pvc="monster" data-m_impr_s_search_query="" data-m_impr_s_t="RE_EXP6b_JSJ_CR" data-m_impr_uuid="59b78ac3-669e-407e-afe4-940560f8deff" href="http://jobview.monster.com/Equipment-Engineer-Job-Jonesboro-182757080.aspx?intcid=js" onclick="jobClick(this, \'http://jobview.monster.com/Equipment-Engineer-Job-Jonesboro-182757080.aspx?intcid=js\', \'newjobsprodseekerus\', \'click on jobview from jobview\')" rel="nofollow" target="_blank" title="View This Job: Equipment Engineer">\n             Equipment Engineer\n            </a>\n            <div class="location small text-muted">\n             Genesis10, Jonesboro - AR\n            </div>\n           </li>\n          </ul>\n          <!-- jrs-job=223199839&amp;count=6 -->\n         </div>\n        </div>\n        <div>\n         <h5>\n          More\n         </h5>\n         <a href="http://www.monster.com/jobs/search/?client=power&amp;q=IT/Software Development&amp;where=Manila , AR&amp;intcid=more_jobs_category_location" title="See all IT/Software Development jobs in Manila, AR">\n          See all IT/Software Development jobs in Manila, AR\n         </a>\n         <br/>\n         <a href="http://www.monster.com/jobs/search/?client=power&amp;q=Software/System Architecture&amp;intcid=more_jobs_occupation" title="See all Software/System Architecture jobs">\n          See all Software/System Architecture jobs\n         </a>\n         <br/>\n         <a class="aut-city-search" href="http://www.monster.com/jobs/search/?client=power&amp;where=Manila , AR&amp;intcid=more_jobs_location" title="See all jobs in Manila">\n          See all jobs in Manila\n         </a>\n        </div>\n       </div>\n       <div class="oasAdsContainer">\n        <div>\n         <!-- 1st Section Begins : Delivery via OAS JX Tag -->\n         <script type="text/javascript">\n          window.MonsterAdds = window.MonsterAdds || {};\r\n\r\n            MonsterAdds.writeScript = function (showMobile) {\r\n                //TODO add mobile test if needed, see AdBlock.cshtml\r\n                document.write("<scr" + "ipt type=\'text/javascript\' src=\'//oas.monster.com/RealMedia/ads/adstream_jx.ads/us.monster.en/aggjobview/11193056328@Right3?size=300x250&site=mons&affiliate=Monster&app=js&oas_pv=no_analytics&fb=0&moc=11969&st=AR&pci=Manila&pcy=US&proejc=660&key=IT%2fSoftware+Development&plid=333&pcid=2132&poccid=11969&mesco=1700192001001\'><\\/script>");\r\n            };\r\n\r\n            MonsterAdds.writeScript(true);\n         </script>\n         <!-- 2nd Section Begins : Delivery via OAS NX Tag for non-Javascript Browser -->\n         <noscript>\n          <a href="//oas.monster.com/RealMedia/ads/click_nx.ads/us.monster.en/aggjobview/194400612@Right3?size=300x250&amp;site=mons&amp;affiliate=Monster&amp;app=js&amp;oas_pv=no_analytics&amp;fb=0&amp;moc=11969&amp;st=AR&amp;pci=Manila&amp;pcy=US&amp;proejc=660&amp;key=IT%2fSoftware+Development&amp;plid=333&amp;pcid=2132&amp;poccid=11969&amp;mesco=1700192001001">\n           <img src="//oas.monster.com/RealMedia/ads/click_nx.ads/us.monster.en/aggjobview/138605554@Right3?size=300x250&amp;site=mons&amp;affiliate=Monster&amp;app=js&amp;oas_pv=no_analytics&amp;fb=0&amp;moc=11969&amp;st=AR&amp;pci=Manila&amp;pcy=US&amp;proejc=660&amp;key=IT%2fSoftware+Development&amp;plid=333&amp;pcid=2132&amp;poccid=11969&amp;mesco=1700192001001"/>\n          </a>\n         </noscript>\n        </div>\n       </div>\n      </div>\n      <div class="hidden-xs affix-fix">\n      </div>\n     </div>\n    </div>\n    <!-- ./row -->\n    <div class="modal fade" id="subscriptionModal">\n     <div class="modal-dialog">\n      <div class="modal-content">\n       <div class="modal-body">\n        <div class="email-collection promoted">\n         <div class="icon">\n         </div>\n         <h4 class="title">\n          Get new similar jobs by email for\n         </h4>\n         <p class="desc">\n          Senior Software Engineer in Test\n         </p>\n         <form action="" aria-hidden="true" class="email-jvsub-collection" data-id="fb766924-8bee-4379-bc88-e02419bb3450" data-remote-subscribe="/LiteReg/JobViewSubscription" data-remote-validation="/LiteReg/IsEmailValid" id="modalForm" method="POST">\n          <div class="row-flex">\n           <div class="col-flex stretch">\n            <input class="form-control input-sm" id="emailAddress" name="emailAddress" placeholder="Please enter your email" type="email"/>\n           </div>\n           <div class="col-flex">\n            <a class="btn btn-sm btn-primary btn-jobsdotcom" data-action="modal-subscription" data-form-selector=".email-jvsub-collection" href="#" rel="nofollow" role="button">\n             Email me jobs\n            </a>\n           </div>\n           <div class="col-flex">\n            <a class="btn btn-link btn-sm" href="#" id="cancelModal">\n             Skip\n            </a>\n           </div>\n          </div>\n         </form>\n        </div>\n       </div>\n       <div class="modal-footer">\n        <span class="help-block small">\n         By continuing you agree to Monster\'s\n         <a href="http://my.monster.com/Privacy/Default.aspx" target="_blank" title="Privacy Policy">\n          Privacy Policy\n         </a>\n         ,\n         <a href="http://my.monster.com/Terms/Default.aspx" target="_blank" title="Terms of Use">\n          Terms of Use\n         </a>\n         and\n         <a href="http://inside.monster.com/cookie-info/inside2.aspx" target="_blank" title="use of cookies">\n          use of cookies\n         </a>\n         .\n        </span>\n       </div>\n       <div class="help-block small alert-success" style="display: none;">\n        You will start receiving jobs like this emailed to: {emailaddress}\n       </div>\n      </div>\n      <!-- /.modal-content -->\n     </div>\n     <!-- /.modal-dialog -->\n    </div>\n    <!-- /.modal -->\n    <script id="ApplySubscriptionThankYou" type="text/template">\n     <p><b>Thank you for applying for:</b><br />Senior Software Engineer in Test in Manila, AR</p>\r\n        <p class="text-muted">To check your full apply history, <a href=https://login20.monster.com>log in</a> or <a href=http://my.monster.com/Become-Member/Create-Account>create an account.</a></p>\n    </script>\n    <script type="text/javascript">\n     var script = document.createElement("script");\r\n    script.type = "text/javascript";\r\n    script.async = true;\r\n    script.src = "//nexus.ensighten.com/monster/Bootstrap.js";\r\n    document.head.appendChild(script);\n    </script>\n   </div>\n   <footer class="page-footer">\n    <div class="container">\n     <div class="row">\n      <div class="col-md-12">\n       <!-- Copyright info -->\n       <p class="copy">\n        Copyright \xc2\xa9 2015 |\n        <a href="http://www.monster.com">\n         Monster Worldwide\n        </a>\n       </p>\n      </div>\n     </div>\n    </div>\n   </footer>\n   <script src="/js/jobviewjs?v=Qp96d4MjGz4yVpoQyg3bu08SRTYnAxoYIMyQbxHelEg1">\n   </script>\n   <!--tracking script-->\n   <script src="http://logs.jobs.com/impression_trackingv2.js" type="text/javascript">\n   </script>\n   <script type="text/javascript">\n    monster.controls.add("monster.jv.base.tracking", {"cloudApiDomain":"logs.jobs.com"});\n   </script>\n   <script type="text/javascript">\n    monster.controls.add("monster.jv.base.jobview", {});\n   </script>\n   <script type="text/javascript">\n    monster.controls.add("monster.jv.base.subscription", {});\n   </script>\n   <script type="text/javascript">\n    monster.controls.add("monster.jv.base.subscriptionModal", {});\n   </script>\n   <script type="text/javascript">\n    monster.controls.add("monster.jv.base.banner", {});\n   </script>\n   <script type="text/javascript">\n    monster.controls.add("monster.jv.base.tooltip", {});\n   </script>\n  </div>\n  <!-- Google Analytics Script Start -->\n  <script>\n   (function (i, s, o, g, r, a, m) {\r\n            i[\'GoogleAnalyticsObject\'] = r; i[r] = i[r] || function () {\r\n                (i[r].q = i[r].q || []).push(arguments)\r\n            }, i[r].l = 1 * new Date(); a = s.createElement(o),\r\n            m = s.getElementsByTagName(o)[0]; a.async = 1; a.src = g; m.parentNode.insertBefore(a, m)\r\n        })(window, document, \'script\', \'//www.google-analytics.com/analytics.js\', \'ga\');\r\n\r\n        ga(\'create\', \'UA-41898665-3\', \'jobs.com\');\r\n        ga(\'send\', \'pageview\');\n  </script>\n  <!--Google Analytics Script End -->\n  <script type="text/javascript">\n   monster.eventBus.pub(monster.Events.PAGE_LOAD);\n  </script>\n  <!-- Site Catalyst Start -->\n  <script src="http://media.newjobs.com/js/global/at_1.5.js" type="text/javascript">\n  </script>\n  <script type="text/javascript">\n   var DYNAMIC_S_ACCOUNT = \'newjobsProdseekerUS\';\r\n    var DYNAMIC_S_CURRENCYCODE = \'USD\';\r\n    //<![CDATA[\r\n    var amc = amc || {}; if (!amc.on) { amc.on = amc.call = function () { }; };\r\n    document.write("<scr" + "ipt type=\'text/javascript\' src=\'//media.monster.com/js/sc/sitecatalystLL.js\'></sc" + "ript>");\r\n    //]]>\r\n\r\n    _m.ATM.properties = {"channel":"58","eVar1":"D=g","prop1":"D=g","eVar4":"0","eVar2":"unrecognized","prop22":"N/A-Cloud","prop23":"N/A-Cloud","prop24":"1/1/0001","prop25":"N/A-Cloud","prop26":"N/A-Cloud","eVar25":"fb766924-8bee-4379-bc88-e02419bb3450_Senior Software Engineer in Test","eVar26":"65e900e2_Tala","eVar27":"N/A-Cloud","eVar28":"IT/Software Development","eVar29":"N/A-Cloud","eVar30":"Software/System Architecture","eVar31":"Manila_AR_US","eVar32":"N/A-Cloud","eVar33":"N/A-Cloud","eVar35":"Tala","eVar36":"App_Cstm","eVar37":"N/A-Cloud","eVar38":"R/L-Apply","eVar47":"2","eVar50":"Aggregated","eVar53":"1700192001001","eVar66":"Monster","events.event3":"1","events.event30":"true","events.event42":"1","eVar61":"Group C JS - newconfirmation.aspx"};\r\n    _m.ATM.pageName = \'desktop|mons|jobs30|jobview\';\r\n    _m.ATM.appConfig = {version:\'0\',appID:\'jobviewcloud\',channelID:\'58\',countryID:\'164\'};\r\n    _m.ATM.runOnLoad=true;\r\n\r\n    $(document).ready(_m.ATM.initFromOnReady);\n  </script>\n  <!-- Site Catalyst End -->\n </body>\n</html>'
tp3
a(S'http://jobview.monster.com/data-management-specialist-job-jackson-ms-us-182218481.aspx'
S'<!DOCTYPE html>\n<html>\n <head>\n  <meta charset="utf-8"/>\n  <title>\n   Bestica Job Application for Data Management Specialist | Monster.com\n  </title>\n  <meta content="user-scalable=no, width=device-width, initial-scale=1, minimum-scale=1, maximum-scale=1" name="viewport"/>\n  <meta content="2017.4.0.396" name="DCS.release"/>\n  <script language="javascript" type="text/javascript">\n   var MONS_LOG_VARS = {"JobID":182218481,"ApplyType":"2","PopUpMessage":"Your pop-up blocking software is preventing proper operation of jobsearch site","EE":"EAAQrXuZmYIUF5avSTEZs5tdZQ--","ApplyOnlineUrl":"http://my.monster.com/applyStart.asp?jobid=182218481&redirect=http%3a%2f%2fjob-openings.monster.com%3a81%2fv2%2fjob%2fView%3fJobID%3d182218481","TrackingCompany":"Bestica","YTA":0,"LogUrl":"LogUrl :\'http://jobview.monster.com/log.ashx?PositionAdID=182218481&folderid=217947796&tracking=EAAQbRxpwOLd6kCuFIT4sXKgWw--&logtype=","XCode":"x549484HJSx"};\r\n\r\n      var clickLogQueue = {\r\n        registeredCallbacks: [],\r\n\r\n        registerCallback: function (fn) {\r\n          this.registeredCallbacks.push(fn);\r\n        },\r\n\r\n        proccessQueue: function (logType, href) {\r\n          var i, len;\r\n          for (i = 0, len = this.registeredCallbacks.length; i < len; i += 1) {\r\n            this.registeredCallbacks[i](logType, href);\r\n          }\r\n        }\r\n      }\r\n      function submitLog(log_src) {\r\n        if (document.images) {\r\n          submitLog.log_img[submitLog.log_ptr] = new Image;\r\n          submitLog.log_img[submitLog.log_ptr].src = log_src;\r\n          submitLog.log_ptr++;\r\n        }\r\n      }\r\n      submitLog.log_img = new Array;\r\n      submitLog.log_ptr = 0;\n  </script>\n  <link href="https://coda.newjobs.com/Assets/MUX/JaJobViewCloud/2017.04.0.82/css/main.css" rel="stylesheet" type="text/css"/>\n  <!--[if lt IE 9.0]><link href="https://coda.newjobs.com/Assets/MUX/JaJobViewCloud/2017.04.0.82/css/fallback.css" rel="stylesheet" /><![endif]-->\n  <link href="/v2/DynamicAssets/CssOverrides?ch=" rel="stylesheet" type="text/css"/>\n  <link href="http://media.newjobs.com/favicon.ico" rel="shortcut icon"/>\n  <meta content="telephone=no" name="format-detection"/>\n  <meta content="Complete the job application for Data Management Specialist in Jackson, MS online today or find more job listings available at Bestica at Monster." name="description="/>\n  <link href="http://jobview.monster.com/data-management-specialist-job-jackson-ms-us-182218481.aspx" rel="canonical"/>\n  <meta content="all" name="robots"/>\n  <script src="//code.jquery.com/jquery-1.11.3.min.js">\n  </script>\n  <script src="https://coda.newjobs.com/Assets/MUX/JaJobViewCloud/2017.04.0.82/js/core.js">\n  </script>\n  <script>\n   requirejs.config({ baseUrl: \'https://coda.newjobs.com/Assets/MUX/JaJobViewCloud/2017.04.0.82/js/\' });\n  </script>\n  <script src="//securemedia.newjobs.com/mm/rainbow/coda/ubd/js/adobeVisitorAPI.js">\n  </script>\n  <script src="//securemedia.newjobs.com/global/js/mbox.js">\n  </script>\n  <script type="text/javascript">\n   requirejs.config({\r\n                paths: {\r\n                    \'recaptcha\': \'https://www.google.com/recaptcha/api.js?hl=en&render=explicit\'\r\n                }\r\n            });\n  </script>\n  <script>\n   var DYNAMIC_S_ACCOUNT = \'newjobsProdSeekerUS\';\r\n    var DYNAMIC_S_CURRENCYCODE = \'USD\';\r\n\r\n    requirejs.config({\r\n        paths: {\r\n            \'amc1\': \'//securemedia.newjobs.com/mm/rainbow/coda/ubd/js/adobeSiteCatalystLL\'\r\n        }\r\n    });\r\n\r\n    require([\'at15\'], function(_m) {\r\n        var isDOMready = function() {\r\n            return !!{interactive:1,complete:1}[document.readyState];\r\n        };\r\n        window._m = _m;\r\n\r\n        _m.ATM.properties = {"channel":"58","eVar1":"D=g","prop1":"D=g","eVar4":"0","eVar2":"unrecognized","eVar62":"1","eVar37":"0_0_0","eVar36":"App_Std","eVar28":"IT/Software Development","eVar30":"Database Development/Administration","eVar33":"Full Time, Employee","eVar31":"Jackson, MS","eVar25":"182218481_Data Management Specialist Job in Jackson, Mississippi US","eVar27":"1","eVar26":"x549484HJSx_Bestica","eVar35":"8983520","eVar47":"Not Specified","eVar48":"Not Specified","eVar50":"Duration","eVar53":"1500148001001","events.event3":"true","eVar38":"SA","prop32":"JV_new","eVar57":"no branding","events.event30":"true"};\r\n        _m.ATM.pageName = \'desktop|mons|jobviewcloud|/job/view\';\r\n        _m.ATM.appConfig = { version:\'0\',appID:\'jobviewcloud\',channelID:\'58\',countryID:\'164\' };\r\n        _m.ATM.runOnLoad=true;\r\n\r\n\r\n        if (typeof window.addMonsterReady === \'function\') {\r\n            // TODO: reconsider addMonsterReady usage\r\n            window.addMonsterReady(_m.ATM.initFromOnReady);\r\n        } else if (isDOMready()) {\r\n            _m.ATM.initFromOnReady();\r\n        } else {\r\n            document.onreadystatechange = function() {\r\n                if (isDOMready()) {\r\n                    _m.ATM.initFromOnReady();\r\n                }\r\n            }\r\n        }\r\n\r\n        require([\'adobeTrackingAsync\'], function() {\r\n            require([\r\n                \'amc1\'\r\n            ]);\r\n        });\r\n    });\n  </script>\n  <script src="//nexus.ensighten.com/monster/Bootstrap.js" type="text/javascript">\n  </script>\n  <!--mgs begin-->\n  <!--mgs end-->\n </head>\n <body>\n  <div style="display:none;">\n  </div>\n  <div class="w-page">\n   <header class="w-page-header" role="banner">\n    <div class="container">\n     <div class="m-logo" id="Logo">\n      <a class="link" href="http://www.monster.com">\n       <span class="newspaper">\n       </span>\n       <div class="brand">\n        <h1 class="name">\n         Monster\n        </h1>\n       </div>\n      </a>\n     </div>\n     <div class="m-skip-links">\n      <a href="#content">\n       Skip to main content\n      </a>\n     </div>\n    </div>\n   </header>\n   <div class="container w-alert">\n    <div class="alert-content" id="AlertContent">\n     <div class="c-alert alert alert-info icon fade in stretchUp" data-jsux="alert" id="SubscPanelAlert" role="alert">\n      <button aria-label="Close" class="close icon icon-close" data-dismiss="#SubscPanelAlert" id="closeSubscPanelBtn" type="button">\n       Close\n      </button>\n      <div class="c-subscribe stretchUp" id="SubscPanel">\n       <p class="headline">\n        <span>\n         Want more jobs like this?\n        </span>\n        <label class="icon-before icon-email" data-at="subscribe" data-jsux="toggleClass" data-prefix="stretch" data-target="#SubscPanel" data-value="Down" for="EmailAddress">\n         Subscribe\n        </label>\n       </p>\n       <fieldset class="dependent">\n        <legend>\n         Get new similar jobs by email\n        </legend>\n        <div class="form-inline" id="subscEmailAddress">\n         <div class="form-group">\n          <input aria-describedby="EmailAddressHelp" class="form-control input-lg input-promo" id="EmailAddress" maxlength="100" name="EmailAdress" placeholder="Please enter your email"/>\n         </div>\n         <a class="btn btn-lg btn-promo" data-div-id="#subscEmailAddress" data-event="subscribed" data-id="182218481" data-jsux="subscriber" data-privacyid="" data-remote-subscription="/v2/subscription/subscribe" data-target="#SubscPanel" href="#" method="POST">\n          Submit\n         </a>\n        </div>\n        <span class="help-block" id="EmailAddressHelp">\n         By continuing you agree to Monster\'s\n         <a href="http://my.monster.com/Privacy/Default.aspx" target="_blank">\n          Privacy Policy\n         </a>\n         ,\n         <a href="http://my.monster.com/Terms/Default.aspx" target="_blank">\n          Terms of Use\n         </a>\n         and\n         <a href="http://inside.monster.com/cookie-info/inside2.aspx" target="_blank">\n          use of cookies\n         </a>\n         .\n        </span>\n       </fieldset>\n      </div>\n     </div>\n     <script id="ApplySubscriptionThankYou" type="text/template">\n      <div id="ApplySubscriptionThankYouAlert" class="c-alert alert alert-success icon fade in" role="alert" data-jsux="alert">\r\n        <button id="closeApplySubscriptionThankYouBtn" class="close icon icon-close" type="button" aria-label="Close" data-dismiss="#ApplySubscriptionThankYouAlert">Close</button>\r\n        <p>We\'ll send jobs like this to: {emailaddress}</p>\r\n    </div>\n     </script>\n    </div>\n   </div>\n   <div class="w-page-content" id="content" role="main">\n    <div class="container">\n     <header class="panel panel-default m-fixed-header decorated jvflow">\n      <div class="row">\n       <div class="opening col-sm-12">\n        <div class="company-logo" data-jsux="lazyImage" data-src="http://media.monster.com/clu/x549/x549484HJSx/joblogo.gif">\n        </div>\n        <h2>\n         Data Management Specialist from Bestica\n        </h2>\n        <h3>\n         Jackson, MS\n        </h3>\n       </div>\n       <div class="action-bar col-sm-3 text-right">\n       </div>\n      </div>\n     </header>\n    </div>\n    <div data-folder-id="217947796" data-job-id="182218481" id="trackingIdentification" style="display: none;">\n    </div>\n    <div>\n     <div class="w-job-view container" id="JobViewContent">\n      <script type="application/ld+json">\n       {"title":"Data Management Specialist","datePosted":"2017-03-24","description":"<span ID=\'TrackingJobBody\' NAME=\'TrackingJobBody\'><P align=\\"center\\" style=\\"text-align: left;\\"><BR/></P><P align=\\"center\\" style=\\"text-align:center\\"><B><BR/></B></P><P align=\\"center\\" style=\\"text-align:center\\"><B>BI, SQL, NoSQL, SSRS, </B><B><FONT face=\\"Arial, sans-serif\\" style=\\"font-size: 9pt;\\">Crystal &amp; Ad-hoc Reporting| Dimensional D</FONT></B><B>ata to DBAs Experience| Great Opportunity!</B></P><P style=\\"margin-bottom: 0.0001pt;\\">\xc2\xa0</P><P style=\\"margin-bottom: 0.0001pt;\\">To enhance business functionality by use of a business intelligence (BI) system, report writing, and ad-hoc querying.</P><P style=\\"margin-bottom: 0.0001pt;\\"><BR/><B><U>ACCOUNTABILITIES</U></B></P><P style=\\"margin-bottom: 0.0001pt;\\">Develops processes to enable users to easily access accurate information on which to base decisions by consulting with staff to determine needs, and by developing processes and technical solutions to address needs.</P><P align=\\"justify\\" style=\\"margin-bottom: 0.0001pt;\\">Designs, implements, and maintains BI views and SQL Server Reporting Services (SSRS) reports in support of productivity enhancements by consulting with staff to develop and implement technical applications to meet desired goals and objectives.</P><P align=\\"justify\\" style=\\"margin-bottom: 0.0001pt;\\">Serves as the design lead for report development projects by interacting with management on request for report design and report changes, while coordinating and obtaining the approval from senior management to proceed with reporting.</P><P align=\\"justify\\" style=\\"margin-bottom: 0.0001pt;\\">Interfaces and verifies with end users that the BI views and SSRS reports meet and support the business needs the reports were created to fulfill.</P><P style=\\"margin-bottom: 0.0001pt;\\">Provides technical support for all BI views and SSRS reports by assisting staff with any technical related questions and issues and by troubleshooting and resolving any issues with a sense of urgency.</P><P align=\\"justify\\" style=\\"margin-bottom: 0.0001pt;\\">Write ad-hoc reports to meet business reporting criteria of management staff by extracting and formatting data using T-SQL and core system query applications.</P><P align=\\"justify\\" style=\\"margin-bottom: 0.0001pt;\\">Analyzes and supports the simplification of the current corporate and departmental reporting.</P><P align=\\"justify\\" style=\\"margin-bottom: 0.0001pt;\\">Assist in expansion and implementation of NoSQL database to serve as a data lake to complement the existing Enterprise Data Warehouse.\xc2\xa0 Work with members of the BI team and identified citizen data scientists to proliferate the querying of NoSQL database.</P><P align=\\"justify\\" style=\\"margin-bottom: 0.0001pt;\\">Continually increases technical knowledge and proactively applies knowledge by keeping abreast of changes in technology (e.g. staying up-to-date on BI technology trends such as data lakes &amp; NoSQL, taking\xc2\xa0technology related\xc2\xa0classes, etc.) and by recommending technical solution changes if appropriate.</P><P align=\\"justify\\" style=\\"margin-bottom: 0.0001pt;\\">Understand and communicate\xc2\xa0business\xc2\xa0use of data to DBAs.\xc2\xa0 Assist in layout and design of data in dimensional models to be used in data marts/data warehouse.</P><P style=\\"margin-bottom: 0.0001pt;\\"><BR/><B><U>EDUCATION &amp; EXPERIENCE</U></B></P><P style=\\"margin-bottom: 0.0001pt;\\">Two-years of college required; with four-year\xe2\x80\x99s college preferred</P><P style=\\"margin-bottom: 0.0001pt;\\">Minimum two-years of experience working with relational databases, schemas, dimensional modeling, and data analysis techniques; or equivalent combination of education and experience.</P><P style=\\"margin-bottom: 0.0001pt;\\"><BR/><B><U>SKILLS &amp; CERTIFICATIONS</U></B></P><UL style=\\"margin-top:0in\\" type=\\"disc\\"><LI style=\\"margin-bottom: 0.0001pt; text-align: justify;\\">Advanced      proficiency in report writing tools such as SSRS (preferred) or Crystal      Reports.\xc2\xa0</LI><LI style=\\"margin-bottom: 0.0001pt; text-align: justify;\\">Proficient      in MS SQL querying, specifically SELECT queries and stored procedures.</LI><LI style=\\"margin-bottom: 0.0001pt; text-align: justify;\\">Fluent      in dimensional modeling concepts.</LI><LI style=\\"margin-bottom: 0.0001pt; text-align: justify;\\">Experience      with NoSQL querying and development.</LI><LI style=\\"margin-bottom: 0.0001pt; text-align: justify;\\">Advanced      proficiency in Excel.</LI><LI style=\\"margin-bottom: 0.0001pt; text-align: justify;\\">Exhibits      the analytical and\xc2\xa0problem solving\xc2\xa0ability necessary to develop      effective technical solutions.</LI><LI style=\\"margin-bottom: 0.0001pt; text-align: justify;\\">Exhibits      strong organizational skills and prioritization ability.</LI><LI style=\\"margin-bottom: 0.0001pt; text-align: justify;\\">Exhibits      strong administrative and project management skills.</LI><LI style=\\"margin-bottom: 0.0001pt; text-align: justify;\\">Exhibits      strong attention to detail skills</LI><LI style=\\"margin-bottom: 0.0001pt; text-align: justify;\\">Exhibits      strong interpersonal/teamwork skills in order to develop effective      relationships with individuals and groups inside and outside the      organization.</LI><LI style=\\"margin-bottom: 0.0001pt; text-align: justify;\\">Good      verbal and written communication skills with the ability to document      procedures.</LI><LI style=\\"margin-bottom: 0.0001pt; text-align: justify;\\">Knowledge      of product systems, operations and procedures preferred.</LI><LI style=\\"margin-bottom: 0.0001pt; text-align: justify;\\">Demonstrates      a high level of professionalism.</LI><LI style=\\"margin-bottom: 0.0001pt; text-align: justify;\\">Position      requires typing of 40 words per minute.</LI></UL><P style=\\"margin-bottom: 0.0001pt;\\">\xc2\xa0</P><P style=\\"margin-bottom: 0.0001pt; background: white;\\"><FONT style=\\"background-image: initial; background-position: initial; background-size: initial; background-repeat: initial; background-attachment: initial; background-origin: initial; background-clip: initial;\\">Time is of essence, so email resume and portfolio to <A HREF=\\"#?subject=Data%20Management%20Specialist\\"><span data-jsux=\\"tooltip\\" data-placement=\\"top\\" title=\\"Apply to this job to send your resume to this employer\\" class=\\"icon-after icon-help\\"> Leticia@bestica.com</span></A>  \xc2\xa0today! If you feel this job is not the one for you, kindly pass this information along to other\xc2\xa0<FONT face=\\"Calibri, sans-serif\\" style=\\"font-size: 11pt; line-height: 107%;\\">Data Management Specialist<B>\xc2\xa0</B></FONT>professionals within your network.\xc2\xa0</FONT></P><P style=\\"margin-bottom: 0.0001pt;\\">\xc2\xa0</P><P style=\\"margin-bottom: 0.0001pt;\\">\xc2\xa0</P></span>","employmentType":["FULL_TIME"],"jobLocation":{"address":{"addressLocality":"Jackson","@type":"PostalAddress"},"@type":"Place"},"hiringOrganization":{"name":"Bestica","@type":"Organization"},"identifier":{"name":"Bestica","value":"182218481","@type":"PropertyValue"},"@context":"http://schema.org","@type":"JobPosting"}\n      </script>\n      <div class="row">\n       <div class="col-md-8">\n        <article class="panel panel-default m-job-view panel-body">\n         <div class="actions">\n          <a class="m-job-view-report-wide icon-before icon-open_in_new" data-at="report" href="/v2/job/communityfeedback?encjobid=EAAQUcx45oWITRyvgMVklXAZJw--" target="_blank">\n           Report this job\n          </a>\n         </div>\n         <h4>\n          About the Job\n         </h4>\n         <div data-folder-id="217947796" data-is-cao="false" data-job-id="182218481" data-jsux="tracking" id="JobDescription">\n          <span id="TrackingJobBody" name="TrackingJobBody">\n           <p align="center" style="text-align: left;">\n            <br/>\n           </p>\n           <p align="center" style="text-align:center">\n            <b>\n             <br/>\n            </b>\n           </p>\n           <p align="center" style="text-align:center">\n            <b>\n             BI, SQL, NoSQL, SSRS,\n            </b>\n            <b>\n             <font face="Arial, sans-serif" style="font-size: 9pt;">\n              Crystal &amp; Ad-hoc Reporting| Dimensional D\n             </font>\n            </b>\n            <b>\n             ata to DBAs Experience| Great Opportunity!\n            </b>\n           </p>\n           <p style="margin-bottom: 0.0001pt;">\n           </p>\n           <p style="margin-bottom: 0.0001pt;">\n            To enhance business functionality by use of a business intelligence (BI) system, report writing, and ad-hoc querying.\n           </p>\n           <p style="margin-bottom: 0.0001pt;">\n            <br/>\n            <b>\n             <u>\n              ACCOUNTABILITIES\n             </u>\n            </b>\n           </p>\n           <p style="margin-bottom: 0.0001pt;">\n            Develops processes to enable users to easily access accurate information on which to base decisions by consulting with staff to determine needs, and by developing processes and technical solutions to address needs.\n           </p>\n           <p align="justify" style="margin-bottom: 0.0001pt;">\n            Designs, implements, and maintains BI views and SQL Server Reporting Services (SSRS) reports in support of productivity enhancements by consulting with staff to develop and implement technical applications to meet desired goals and objectives.\n           </p>\n           <p align="justify" style="margin-bottom: 0.0001pt;">\n            Serves as the design lead for report development projects by interacting with management on request for report design and report changes, while coordinating and obtaining the approval from senior management to proceed with reporting.\n           </p>\n           <p align="justify" style="margin-bottom: 0.0001pt;">\n            Interfaces and verifies with end users that the BI views and SSRS reports meet and support the business needs the reports were created to fulfill.\n           </p>\n           <p style="margin-bottom: 0.0001pt;">\n            Provides technical support for all BI views and SSRS reports by assisting staff with any technical related questions and issues and by troubleshooting and resolving any issues with a sense of urgency.\n           </p>\n           <p align="justify" style="margin-bottom: 0.0001pt;">\n            Write ad-hoc reports to meet business reporting criteria of management staff by extracting and formatting data using T-SQL and core system query applications.\n           </p>\n           <p align="justify" style="margin-bottom: 0.0001pt;">\n            Analyzes and supports the simplification of the current corporate and departmental reporting.\n           </p>\n           <p align="justify" style="margin-bottom: 0.0001pt;">\n            Assist in expansion and implementation of NoSQL database to serve as a data lake to complement the existing Enterprise Data Warehouse.\xc2\xa0 Work with members of the BI team and identified citizen data scientists to proliferate the querying of NoSQL database.\n           </p>\n           <p align="justify" style="margin-bottom: 0.0001pt;">\n            Continually increases technical knowledge and proactively applies knowledge by keeping abreast of changes in technology (e.g. staying up-to-date on BI technology trends such as data lakes &amp; NoSQL, taking\xc2\xa0technology related\xc2\xa0classes, etc.) and by recommending technical solution changes if appropriate.\n           </p>\n           <p align="justify" style="margin-bottom: 0.0001pt;">\n            Understand and communicate\xc2\xa0business\xc2\xa0use of data to DBAs.\xc2\xa0 Assist in layout and design of data in dimensional models to be used in data marts/data warehouse.\n           </p>\n           <p style="margin-bottom: 0.0001pt;">\n            <br/>\n            <b>\n             <u>\n              EDUCATION &amp; EXPERIENCE\n             </u>\n            </b>\n           </p>\n           <p style="margin-bottom: 0.0001pt;">\n            Two-years of college required; with four-year\xe2\x80\x99s college preferred\n           </p>\n           <p style="margin-bottom: 0.0001pt;">\n            Minimum two-years of experience working with relational databases, schemas, dimensional modeling, and data analysis techniques; or equivalent combination of education and experience.\n           </p>\n           <p style="margin-bottom: 0.0001pt;">\n            <br/>\n            <b>\n             <u>\n              SKILLS &amp; CERTIFICATIONS\n             </u>\n            </b>\n           </p>\n           <ul style="margin-top:0in" type="disc">\n            <li style="margin-bottom: 0.0001pt; text-align: justify;">\n             Advanced      proficiency in report writing tools such as SSRS (preferred) or Crystal      Reports.\n            </li>\n            <li style="margin-bottom: 0.0001pt; text-align: justify;">\n             Proficient      in MS SQL querying, specifically SELECT queries and stored procedures.\n            </li>\n            <li style="margin-bottom: 0.0001pt; text-align: justify;">\n             Fluent      in dimensional modeling concepts.\n            </li>\n            <li style="margin-bottom: 0.0001pt; text-align: justify;">\n             Experience      with NoSQL querying and development.\n            </li>\n            <li style="margin-bottom: 0.0001pt; text-align: justify;">\n             Advanced      proficiency in Excel.\n            </li>\n            <li style="margin-bottom: 0.0001pt; text-align: justify;">\n             Exhibits      the analytical and\xc2\xa0problem solving\xc2\xa0ability necessary to develop      effective technical solutions.\n            </li>\n            <li style="margin-bottom: 0.0001pt; text-align: justify;">\n             Exhibits      strong organizational skills and prioritization ability.\n            </li>\n            <li style="margin-bottom: 0.0001pt; text-align: justify;">\n             Exhibits      strong administrative and project management skills.\n            </li>\n            <li style="margin-bottom: 0.0001pt; text-align: justify;">\n             Exhibits      strong attention to detail skills\n            </li>\n            <li style="margin-bottom: 0.0001pt; text-align: justify;">\n             Exhibits      strong interpersonal/teamwork skills in order to develop effective      relationships with individuals and groups inside and outside the      organization.\n            </li>\n            <li style="margin-bottom: 0.0001pt; text-align: justify;">\n             Good      verbal and written communication skills with the ability to document      procedures.\n            </li>\n            <li style="margin-bottom: 0.0001pt; text-align: justify;">\n             Knowledge      of product systems, operations and procedures preferred.\n            </li>\n            <li style="margin-bottom: 0.0001pt; text-align: justify;">\n             Demonstrates      a high level of professionalism.\n            </li>\n            <li style="margin-bottom: 0.0001pt; text-align: justify;">\n             Position      requires typing of 40 words per minute.\n            </li>\n           </ul>\n           <p style="margin-bottom: 0.0001pt;">\n           </p>\n           <p style="margin-bottom: 0.0001pt; background: white;">\n            <font style="background-image: initial; background-position: initial; background-size: initial; background-repeat: initial; background-attachment: initial; background-origin: initial; background-clip: initial;">\n             Time is of essence, so email resume and portfolio to\n             <a href="#?subject=Data%20Management%20Specialist">\n              <span class="icon-after icon-help" data-jsux="tooltip" data-placement="top" title="Apply to this job to send your resume to this employer">\n               Leticia@bestica.com\n              </span>\n             </a>\n             today! If you feel this job is not the one for you, kindly pass this information along to other\n             <font face="Calibri, sans-serif" style="font-size: 11pt; line-height: 107%;">\n              Data Management Specialist\n              <b>\n              </b>\n             </font>\n             professionals within your network.\n            </font>\n           </p>\n           <p style="margin-bottom: 0.0001pt;">\n           </p>\n           <p style="margin-bottom: 0.0001pt;">\n           </p>\n          </span>\n         </div>\n         <a aria-hidden="true" class="m-job-view-report-narrow icon-before icon-open_in_new" data-at="report" href="/v2/job/communityfeedback?encjobid=EAAQUcx45oWITRyvgMVklXAZJw--">\n          Report\n         </a>\n        </article>\n       </div>\n       <div class="col-md-4">\n        <aside class="w-job-aside">\n         <div class="row">\n          <div class="col-sm-6 col-md-12">\n           <div class="panel panel-default">\n            <div class="panel-body m-job-summary" id="JobSummary">\n             <h4>\n              Job summary\n             </h4>\n             <section class="summary-section">\n              <header class="header">\n               <h2 class="key">\n                Location\n               </h2>\n               <h3 class="value">\n                Jackson, MS\n               </h3>\n              </header>\n             </section>\n             <section class="summary-section">\n              <header class="header">\n               <h2 class="key">\n                Job type\n               </h2>\n               <h3 class="value">\n                Full Time, Employee\n               </h3>\n              </header>\n             </section>\n             <section class="summary-section">\n              <header class="header">\n               <h2 class="key">\n                Posted\n               </h2>\n               <h3 class="value">\n                26 Days ago\n               </h3>\n              </header>\n             </section>\n            </div>\n           </div>\n          </div>\n          <div class="col-sm-6 col-md-12">\n           <div class="panel panel-default" id="AboutCompany" style="display: none">\n            <div class="panel-body m-job-aboutcompany" data-companyprofilelink="#AboutCompanyProfileLink" data-followbox="#FollowBox" data-followboxexpander="#FollowBoxExpander" data-jsux="aboutCompany">\n             <span>\n              <h4>\n               About this company\n              </h4>\n             </span>\n             <div class="panel-section">\n              <div class="company-logo" style="background-image:url(\'http://media.monster.com/clu/x549/x549484HJSx/joblogo.gif\');">\n              </div>\n              <div class="company-ratings" data-apiurl="https://www.monster.com/Reviews/api/Profile/GetRatings" data-hideelementwhennorating=".company-reviews, #AboutCompany" data-jsux="starRatings">\n               <div class="kununu-star-rating-container" data-adobecatalystaccountname="newjobsprodjobviewus" data-channelid="58" data-companyname="Bestica" data-companyxcode="x549484HJSx" data-messagetext="View reviews on" data-starrating-template="#starrating-template" style="display: block ;">\n                <meta itemprop="ratingValue"/>\n                <meta itemprop="reviewCount"/>\n               </div>\n              </div>\n             </div>\n             <div class="panel-section fade-container">\n              <dl>\n               <dt>\n                Company name\n               </dt>\n               <dd>\n                Bestica\n               </dd>\n              </dl>\n             </div>\n             <div class="panel-section">\n              <div class="company-reviews hidden-js" data-apiurl="https://www.monster.com/Reviews/api/Reviews/GetReviews" data-channelid="58" data-companyxcode="x549484HJSx" data-jsux="companyReviews" data-review-item-template="#review-item-template" data-reviews-element="#carousel-kununu-reviews">\n               <div class="carousel slide" data-interval="false" id="carousel-kununu-reviews">\n                <div class="carousel-inner" role="listbox">\n                </div>\n                <ol class="carousel-indicators">\n                </ol>\n               </div>\n              </div>\n              <!-- Templates -->\n              <script id="review-item-template" type="text/x-handlebars-template">\n               <div class="{{itemClasses}}">\r\n            <article class="m-list-item panel panel-default panel-body">\r\n                <p class="title">{{title}}</p>\r\n                <p class="excerpt fade-content"><span>{{excerpt}}</span></p>\r\n            </article>\r\n        </div>\n              </script>\n             </div>\n            </div>\n           </div>\n           <div class="panel panel-default" data-breakpoints="xs,sm" data-jsux="responsiveDom" data-target="#ContactInfo" id="OtherJobs">\n            <div class="panel-body">\n             <div class="m-more-jobs">\n              <h4>\n               <span>\n                Jobs from Bestica\n               </span>\n              </h4>\n              <ul class="list-unstyled">\n               <li>\n                <a data-at="jobs" data-job-ad-pricing-type-id="1" data-job-id="183086636" data-job-title="UX Designer - Mobile" data-jsux="adobeTrackingSameCompanyJobClick" data-m_impr_a_placement_id="JSR" data-m_impr_j_cid="11454" data-m_impr_j_coc="x549484HJSx" data-m_impr_j_jawsid="0" data-m_impr_j_jobid="183086636" data-m_impr_j_jpm="1" data-m_impr_j_jpt="1" data-m_impr_j_lat="37.386" data-m_impr_j_lid="883" data-m_impr_j_long="-122.0839" data-m_impr_j_occid="12005" data-m_impr_j_p="1" data-m_impr_j_postingid="" data-m_impr_j_pvc="monster" data-m_impr_uuid="c2c07b59-e7e8-4714-8189-ef4610675670" href="http://jobview.monster.com/UX-Designer-Mobile-Job-Mountain-View-CA-US-183086636.aspx">\n                 UX Designer - Mobile\n                </a>\n               </li>\n               <li>\n                <a data-at="jobs" data-job-ad-pricing-type-id="1" data-job-id="182939977" data-job-title="Flight Medicine Physician" data-jsux="adobeTrackingSameCompanyJobClick" data-m_impr_a_placement_id="JSR" data-m_impr_j_cid="3975" data-m_impr_j_coc="x549484HJSx" data-m_impr_j_jawsid="0" data-m_impr_j_jobid="182939977" data-m_impr_j_jpm="1" data-m_impr_j_jpt="1" data-m_impr_j_lat="29.5052" data-m_impr_j_lid="624" data-m_impr_j_long="-98.5725" data-m_impr_j_occid="11870" data-m_impr_j_p="2" data-m_impr_j_postingid="" data-m_impr_j_pvc="monster" data-m_impr_uuid="b7bfa543-0cae-484d-9bd1-96a44a4d022a" href="http://jobview.monster.com/Flight-Medicine-Physician-Job-San-Antonio-TX-US-182939977.aspx">\n                 Flight Medicine Physician\n                </a>\n               </li>\n               <li>\n                <a data-at="jobs" data-job-ad-pricing-type-id="1" data-job-id="182903846" data-job-title="Web Developer - Tech Lead" data-jsux="adobeTrackingSameCompanyJobClick" data-m_impr_a_placement_id="JSR" data-m_impr_j_cid="660" data-m_impr_j_coc="x549484HJSx" data-m_impr_j_jawsid="0" data-m_impr_j_jobid="182903846" data-m_impr_j_jpm="1" data-m_impr_j_jpt="1" data-m_impr_j_lat="37.7749" data-m_impr_j_lid="355" data-m_impr_j_long="-122.4195" data-m_impr_j_occid="11970" data-m_impr_j_p="3" data-m_impr_j_postingid="" data-m_impr_j_pvc="monster" data-m_impr_uuid="999cfc83-8c97-4ab7-a878-e979c4f3218c" href="http://jobview.monster.com/Web-Developer-Tech-Lead-Job-San-Francisco-CA-US-182903846.aspx">\n                 Web Developer - Tech Lead\n                </a>\n               </li>\n               <li>\n                <a data-at="jobs" data-job-ad-pricing-type-id="1" data-job-id="182750477" data-job-title="Entry level/Junior UI/UX Designer" data-jsux="adobeTrackingSameCompanyJobClick" data-m_impr_a_placement_id="JSR" data-m_impr_j_cid="11454" data-m_impr_j_coc="x549484HJSx" data-m_impr_j_jawsid="0" data-m_impr_j_jobid="182750477" data-m_impr_j_jpm="1" data-m_impr_j_jpt="1" data-m_impr_j_lat="37.386" data-m_impr_j_lid="883" data-m_impr_j_long="-122.0839" data-m_impr_j_occid="12005" data-m_impr_j_p="4" data-m_impr_j_postingid="" data-m_impr_j_pvc="monster" data-m_impr_uuid="7503f3b6-430d-4ee6-ad2a-a459c94b1cf2" href="http://jobview.monster.com/Entry-level-Junior-UI-UX-Designer-Job-Mountain-View-CA-US-182750477.aspx">\n                 Entry level/Junior UI/UX Designer\n                </a>\n               </li>\n               <li>\n                <a data-at="jobs" data-job-ad-pricing-type-id="1" data-job-id="182706858" data-job-title="PROTESTANT DIRECTOR OF RELIGIOUS EDUCATION" data-jsux="adobeTrackingSameCompanyJobClick" data-m_impr_a_placement_id="JSR" data-m_impr_j_cid="11" data-m_impr_j_coc="x549484HJSx" data-m_impr_j_jawsid="0" data-m_impr_j_jobid="182706858" data-m_impr_j_jpm="1" data-m_impr_j_jpt="1" data-m_impr_j_lat="-90.0001" data-m_impr_j_lid="634" data-m_impr_j_long="-180.0001" data-m_impr_j_occid="11892" data-m_impr_j_p="5" data-m_impr_j_postingid="" data-m_impr_j_pvc="monster" data-m_impr_uuid="7c1b6ecf-4372-4a9b-b39e-5993e523193a" href="http://jobview.monster.com/PROTESTANT-DIRECTOR-OF-RELIGIOUS-EDUCATION-Job-Little-Creek-VA-US-182706858.aspx">\n                 PROTESTANT DIRECTOR OF RELIGIOUS EDUCATION\n                </a>\n               </li>\n              </ul>\n             </div>\n             <div class="m-more-jobs">\n              <h4>\n               Find more jobs\n              </h4>\n              <ul class="list-unstyled">\n               <li>\n                <a data-at="returntosearch" href="http://www.monster.com/jobs/q-it-software-development-jobs-l-jackson,-ms.aspx" id="BackLink">\n                 Refine my job search\n                </a>\n               </li>\n              </ul>\n             </div>\n            </div>\n           </div>\n          </div>\n         </div>\n        </aside>\n       </div>\n      </div>\n     </div>\n    </div>\n    <div class="m-action-bar standard-apply" data-apply-button="#PrimaryJobApply,#speedApply" data-jsux="applyStart" data-tracking-properties="#ApplyStartTrackingProperties" id="JobApply">\n     <div class="container">\n      <div data-evar34="stdapplystarts" data-evar36="App_Std" data-evar37="0_0_0" data-evar38="SA" data-evar57="no branding" data-evar62="1" data-events.event15="1" data-events.event4="1" data-events.event5="1" id="ApplyStartTrackingProperties" style="display:none;">\n      </div>\n      <a class="btn btn-primary btn-apply" data-apply-start-tracking-event="" data-at="apply" data-at-type="stdapplystarts" href="/v2/job/apply?jobId=182218481" id="PrimaryJobApply" mns_rt="Jobs">\n       Apply\n      </a>\n      <div class="flyout visible" id="JobActions">\n       <a class="btn btn-link" data-at="SaveToFile" href="https://login.monster.com/Become-Member/Create-Account?ch=MONS&amp;at=apply&amp;redirect=http%3a%2f%2fjob-openings.monster.com%2fv2%2fjob%2fView%3fJobID%3d182218481%26savejob%3d1&amp;jobid=182218481" id="SaveJob">\n        <span class="icon-before icon-star">\n         <span class="text">\n          Save\n         </span>\n        </span>\n       </a>\n       <a class="btn btn-link" data-at="emailfriend" id="emailFriendOpen">\n        <span class="icon-before icon-email">\n         <span class="text">\n          Email\n         </span>\n        </span>\n       </a>\n      </div>\n      <button class="flyout-toggle visible btn btn-link icon icon-dots" data-jsux="toggleClass" data-target="#JobActions" id="JobActionsToggle">\n       <span class="sr-only">\n        ...\n       </span>\n      </button>\n      <div class="post-mail" data-closebtn="#emailFriendClose" data-closebtnconf="#saveAndCloseBtn" data-jobid="182218481" data-jsux="emailFriend" data-openbtn="#emailFriendOpen" data-remote-url="/v2/job/sendemailfriend" data-requirederror="Email is required\r\n" data-sendfrom="#EmailAddressSendFrom" data-sendto="#EmailAddressSendTo" data-validationerror="Email is not valid" id="emailFriendPanel">\n       <h5>\n        Email this job\n       </h5>\n       <button class="btn btn-close" id="emailFriendClose">\n        <span class="icon-after icon-close">\n         Close\n        </span>\n       </button>\n       <div class="form">\n        <div class="form-group">\n         <label class="form-label sr-only" for="EmailAddressSendFrom">\n          Your email\n         </label>\n         <input class="form-control" id="EmailAddressSendFrom" maxlength="100" name="SentFrom" placeholder="Your email\r\n"/>\n        </div>\n        <div class="form-group">\n         <label class="form-label sr-only" for="EmailAddressSendTo">\n          Email to send to\n         </label>\n         <input class="form-control" data-val-required="Email" id="EmailAddressSendTo" maxlength="100" name="SendTo" placeholder="Email to send to"/>\n        </div>\n        <div class="form-group">\n         <div class="g-recaptcha" data-enable="true" data-sitekey="6LfFxwwUAAAAAMb6IoJnE8q_cXbSoevLAyBTx8Pd">\n         </div>\n        </div>\n        <a class="btn btn-primary btn-block" data-id="">\n         Email this job\n        </a>\n       </div>\n       <span class="help-block" id="EmailAddressHelp">\n        Note: Email addresses will only be used for mail delivery of this job.\n       </span>\n      </div>\n      <script id="emailFriendPanelSuccess" type="text/template">\n       <div id="saveAndClose" class="saveAndClosePanel c-alert alert alert-success icon fade in" role="alert" data-jsux="alert">\r\n        <button id="saveAndCloseBtn" class="icon icon-close" type="button" aria-label="Close" data-dismiss="#saveAndClose">Close</button>\r\n        <p>This job has been emailed to {emailaddress}</p>\r\n    </div>\n      </script>\n     </div>\n    </div>\n    <div class="dimmer">\n    </div>\n    <script id="jobSaveInfo" type="text/template">\n     <div id="saveJob" class="c-alert alert alert-{alertClassType} icon fade in" role="alert" data-jsux="alert">\r\n      <button id="closeSaveJobBtn" class="close icon icon-close" type="button" aria-label="Close" data-dismiss="#saveJob">Close</button>\r\n      <p>{msg}</p>\r\n    </div>\n    </script>\n    <script id="starrating-template" type="text/x-handlebars-template">\n     <div>\r\n        <span class="star-rating-stars star-rating-stars-{{rating}}"></span>\r\n        <span class="star-rating-text"> ({{kununuMessageText}} \r\n            <a target="_blank" title="View {{companyName}} Reviews on Kununu" href="{{kununuUrl}}">\r\n                <img alt="Kununu Logo" src="//securemedia.newjobs.com/global/img/kununu/kununu_logo.png" class="kununu-star-rating-link">\r\n            </a>)\r\n        </span>\r\n    </div>\n    </script>\n    <script type="text/javascript">\n     var trackingSend = false;\r\n        var scTrackingSend = false;\r\n        require([\'at15\', \'jquery\', \'selectors\'], function (_m, $) {\r\n            // dynamic content links\r\n            var externalLinks = $(\'#JobDescription\').find(\'a:external\'),\r\n                emailLinks = $(\'#JobDescription\').find(\'a:email\'),\r\n                backLink = $(\'#BackLink\');\r\n            _m.ATM.registerConfig({ jQuerySelector: externalLinks, o: "o", eventType: "click", eventName: "eoi", vars: { \'events.event4\': \'true\', \'eVar34\': "Job Body Clicks" } });\r\n            _m.ATM.registerConfig({ jQuerySelector: emailLinks, o: "o", eventType: "click", eventName: "eoi", vars: { \'events.event4\': \'true\', \'eVar34\': "Job Body Email Clicks" } });\r\n            _m.ATM.registerConfig({ jQuerySelector: backLink, o: "o", eventType: "click", eventName: "eoi", vars: { \'events.event4\': \'true\', \'eVar34\': "Back to Job Search Results" }, adobeDoneAction: function () { window.location = $(\'#BackLink\').attr("href"); } });\r\n            // standard jobview links\r\n            _m.ATM.registerConfig({ jQuerySelector: "[data-at=\'SaveToFile\']", o: "o", eventType: "click", eventName: "eoi", vars: { \'events.event4\': \'true\', \'eVar34\': "Save Job" } });\r\n            _m.ATM.registerConfig({ jQuerySelector: "[data-at=\'report\']", o: "o", eventName: "eoi", vars: { \'events.event4\': \'true\', \'eVar34\': "Report this Job" } });\r\n            _m.ATM.registerConfig({ jQuerySelector: "[data-at=\'share\']", o: "o", eventName: "eoi", vars: { \'events.event4\': \'true\', \'eVar34\': "Share Job" } });\r\n            _m.ATM.registerConfig({ jQuerySelector: "[data-at=\'returntosearch\']", o: "o", eventType: "click", eventName: "eoi", vars: { \'events.event4\': \'true\', \'eVar34\': "Back to Job Search Results" }, adobeDoneAction: function () { window.location = $("[data-at=\'returntosearch\']").attr("href"); } });\r\n            _m.ATM.registerConfig({ jQuerySelector: "[data-at=\'similar-jobs\']", o: "o", eventType: "click", eventName: "eoi", vars: { \'events.event4\': \'true\', \'eVar34\': "View Similar Jobs" } });\r\n            _m.ATM.registerConfig({ jQuerySelector: "[data-at=\'location-jobs\']", o: "o", eventType: "click", eventName: "eoi", vars: { \'events.event4\': \'true\', \'eVar34\': "View Location Jobs" } });\r\n            _m.ATM.registerConfig({ jQuerySelector: "[data-at=\'jobs\']", o: "o", eventType: "click", eventName: "eoi", vars: { \'events.event4\': \'true\', \'eVar34\': "All Company Jobs" } });\r\n\r\n        });\r\n        require([\'canJs\', \'jquery\'], function (_m, $) {\r\n            $(document).ready(function () {\r\n                try\r\n                {\r\n                    if (typeof (monsterCan) != "undefined") {\r\n                        var ch = monsterCan.getPartnership("f530b397-a781-4f9b-8e44-14bdfa1d54f9");\r\n                        ch.trackPageview();\r\n                    }\r\n                }\r\n                catch (e) {\r\n                }\r\n            });\r\n        });\n    </script>\n   </div>\n   <footer class="w-page-footer" id="PageFooter" role="contentinfo">\n    <div class="container">\n     <nav class="m-legal-nav m-legal-nav-narrow">\n      <small class="copyright">\n       Copyright \xc2\xa9 2016 | Monster Worldwide\n      </small>\n      <small class="patents">\n       U.S. Patents No. 7,599,930 B1; 7,827,125 and 7,836,060\n      </small>\n      <small>\n       - V: 2017.4.0.396-941\n      </small>\n     </nav>\n     <nav class="m-legal-nav m-legal-nav-wide">\n      <small>\n       Copyright \xc2\xa9 2016 | Monster Worldwide U.S. Patents No. 7,599,930 B1; 7,827,125 and 7,836,060  - V: 2017.4.0.396-941\n      </small>\n     </nav>\n    </div>\n   </footer>\n  </div>\n  <script>\n   require([\'jsux\', \'polyfills\']);\n  </script>\n  <div style="display:none;">\n  </div>\n  <script src="https://logs.jobs.com/impression_trackingv2.js" type="text/javascript">\n  </script>\n </body>\n</html>\n'
tp4
a(S'http://jobview.monster.com/data-management-specialist-job-jackson-ms-us-182218583.aspx'
S'<!DOCTYPE html>\n<html>\n <head>\n  <meta charset="utf-8"/>\n  <title>\n   Bestica Job Application for Data Management Specialist | Monster.com\n  </title>\n  <meta content="user-scalable=no, width=device-width, initial-scale=1, minimum-scale=1, maximum-scale=1" name="viewport"/>\n  <meta content="2017.4.0.396" name="DCS.release"/>\n  <script language="javascript" type="text/javascript">\n   var MONS_LOG_VARS = {"JobID":182218583,"ApplyType":"2","PopUpMessage":"Your pop-up blocking software is preventing proper operation of jobsearch site","EE":"EAAQrXuZmYIUF5avSTEZs5tdZQ--","ApplyOnlineUrl":"http://my.monster.com/applyStart.asp?jobid=182218583&redirect=http%3a%2f%2fjob-openings.monster.com%3a81%2fv2%2fjob%2fView%3fJobID%3d182218583","TrackingCompany":"Bestica","YTA":0,"LogUrl":"LogUrl :\'http://jobview.monster.com/log.ashx?PositionAdID=182218583&folderid=217947803&tracking=EAAQbRxpwOLd6kCuFIT4sXKgWw--&logtype=","XCode":"x549484HJSx"};\r\n\r\n      var clickLogQueue = {\r\n        registeredCallbacks: [],\r\n\r\n        registerCallback: function (fn) {\r\n          this.registeredCallbacks.push(fn);\r\n        },\r\n\r\n        proccessQueue: function (logType, href) {\r\n          var i, len;\r\n          for (i = 0, len = this.registeredCallbacks.length; i < len; i += 1) {\r\n            this.registeredCallbacks[i](logType, href);\r\n          }\r\n        }\r\n      }\r\n      function submitLog(log_src) {\r\n        if (document.images) {\r\n          submitLog.log_img[submitLog.log_ptr] = new Image;\r\n          submitLog.log_img[submitLog.log_ptr].src = log_src;\r\n          submitLog.log_ptr++;\r\n        }\r\n      }\r\n      submitLog.log_img = new Array;\r\n      submitLog.log_ptr = 0;\n  </script>\n  <link href="https://coda.newjobs.com/Assets/MUX/JaJobViewCloud/2017.04.0.82/css/main.css" rel="stylesheet" type="text/css"/>\n  <!--[if lt IE 9.0]><link href="https://coda.newjobs.com/Assets/MUX/JaJobViewCloud/2017.04.0.82/css/fallback.css" rel="stylesheet" /><![endif]-->\n  <link href="/v2/DynamicAssets/CssOverrides?ch=" rel="stylesheet" type="text/css"/>\n  <link href="http://media.newjobs.com/favicon.ico" rel="shortcut icon"/>\n  <meta content="telephone=no" name="format-detection"/>\n  <meta content="Complete the job application for Data Management Specialist in Jackson, MS online today or find more job listings available at Bestica at Monster." name="description="/>\n  <link href="http://jobview.monster.com/data-management-specialist-job-jackson-ms-us-182218583.aspx" rel="canonical"/>\n  <meta content="all" name="robots"/>\n  <script src="//code.jquery.com/jquery-1.11.3.min.js">\n  </script>\n  <script src="https://coda.newjobs.com/Assets/MUX/JaJobViewCloud/2017.04.0.82/js/core.js">\n  </script>\n  <script>\n   requirejs.config({ baseUrl: \'https://coda.newjobs.com/Assets/MUX/JaJobViewCloud/2017.04.0.82/js/\' });\n  </script>\n  <script src="//securemedia.newjobs.com/mm/rainbow/coda/ubd/js/adobeVisitorAPI.js">\n  </script>\n  <script src="//securemedia.newjobs.com/global/js/mbox.js">\n  </script>\n  <script type="text/javascript">\n   requirejs.config({\r\n                paths: {\r\n                    \'recaptcha\': \'https://www.google.com/recaptcha/api.js?hl=en&render=explicit\'\r\n                }\r\n            });\n  </script>\n  <script>\n   var DYNAMIC_S_ACCOUNT = \'newjobsProdSeekerUS\';\r\n    var DYNAMIC_S_CURRENCYCODE = \'USD\';\r\n\r\n    requirejs.config({\r\n        paths: {\r\n            \'amc1\': \'//securemedia.newjobs.com/mm/rainbow/coda/ubd/js/adobeSiteCatalystLL\'\r\n        }\r\n    });\r\n\r\n    require([\'at15\'], function(_m) {\r\n        var isDOMready = function() {\r\n            return !!{interactive:1,complete:1}[document.readyState];\r\n        };\r\n        window._m = _m;\r\n\r\n        _m.ATM.properties = {"channel":"58","eVar1":"D=g","prop1":"D=g","eVar4":"0","eVar2":"unrecognized","eVar62":"1","eVar37":"0_0_0","eVar36":"App_Std","eVar28":"IT/Software Development","eVar30":"Database Development/Administration","eVar33":"Full Time, Employee","eVar31":"Jackson, MS","eVar25":"182218583_Data Management Specialist Job in Jackson, Mississippi US","eVar27":"1","eVar26":"x549484HJSx_Bestica","eVar35":"8983520","eVar47":"Not Specified","eVar48":"Not Specified","eVar50":"Duration","eVar53":"1500148001001","events.event3":"true","eVar38":"SA","prop32":"JV_new","eVar57":"no branding","events.event30":"true"};\r\n        _m.ATM.pageName = \'desktop|mons|jobviewcloud|/job/view\';\r\n        _m.ATM.appConfig = { version:\'0\',appID:\'jobviewcloud\',channelID:\'58\',countryID:\'164\' };\r\n        _m.ATM.runOnLoad=true;\r\n\r\n\r\n        if (typeof window.addMonsterReady === \'function\') {\r\n            // TODO: reconsider addMonsterReady usage\r\n            window.addMonsterReady(_m.ATM.initFromOnReady);\r\n        } else if (isDOMready()) {\r\n            _m.ATM.initFromOnReady();\r\n        } else {\r\n            document.onreadystatechange = function() {\r\n                if (isDOMready()) {\r\n                    _m.ATM.initFromOnReady();\r\n                }\r\n            }\r\n        }\r\n\r\n        require([\'adobeTrackingAsync\'], function() {\r\n            require([\r\n                \'amc1\'\r\n            ]);\r\n        });\r\n    });\n  </script>\n  <script src="//nexus.ensighten.com/monster/Bootstrap.js" type="text/javascript">\n  </script>\n  <!--mgs begin-->\n  <!--mgs end-->\n </head>\n <body>\n  <div style="display:none;">\n  </div>\n  <div class="w-page">\n   <header class="w-page-header" role="banner">\n    <div class="container">\n     <div class="m-logo" id="Logo">\n      <a class="link" href="http://www.monster.com">\n       <span class="newspaper">\n       </span>\n       <div class="brand">\n        <h1 class="name">\n         Monster\n        </h1>\n       </div>\n      </a>\n     </div>\n     <div class="m-skip-links">\n      <a href="#content">\n       Skip to main content\n      </a>\n     </div>\n    </div>\n   </header>\n   <div class="container w-alert">\n    <div class="alert-content" id="AlertContent">\n     <div class="c-alert alert alert-info icon fade in stretchUp" data-jsux="alert" id="SubscPanelAlert" role="alert">\n      <button aria-label="Close" class="close icon icon-close" data-dismiss="#SubscPanelAlert" id="closeSubscPanelBtn" type="button">\n       Close\n      </button>\n      <div class="c-subscribe stretchUp" id="SubscPanel">\n       <p class="headline">\n        <span>\n         Want more jobs like this?\n        </span>\n        <label class="icon-before icon-email" data-at="subscribe" data-jsux="toggleClass" data-prefix="stretch" data-target="#SubscPanel" data-value="Down" for="EmailAddress">\n         Subscribe\n        </label>\n       </p>\n       <fieldset class="dependent">\n        <legend>\n         Get new similar jobs by email\n        </legend>\n        <div class="form-inline" id="subscEmailAddress">\n         <div class="form-group">\n          <input aria-describedby="EmailAddressHelp" class="form-control input-lg input-promo" id="EmailAddress" maxlength="100" name="EmailAdress" placeholder="Please enter your email"/>\n         </div>\n         <a class="btn btn-lg btn-promo" data-div-id="#subscEmailAddress" data-event="subscribed" data-id="182218583" data-jsux="subscriber" data-privacyid="" data-remote-subscription="/v2/subscription/subscribe" data-target="#SubscPanel" href="#" method="POST">\n          Submit\n         </a>\n        </div>\n        <span class="help-block" id="EmailAddressHelp">\n         By continuing you agree to Monster\'s\n         <a href="http://my.monster.com/Privacy/Default.aspx" target="_blank">\n          Privacy Policy\n         </a>\n         ,\n         <a href="http://my.monster.com/Terms/Default.aspx" target="_blank">\n          Terms of Use\n         </a>\n         and\n         <a href="http://inside.monster.com/cookie-info/inside2.aspx" target="_blank">\n          use of cookies\n         </a>\n         .\n        </span>\n       </fieldset>\n      </div>\n     </div>\n     <script id="ApplySubscriptionThankYou" type="text/template">\n      <div id="ApplySubscriptionThankYouAlert" class="c-alert alert alert-success icon fade in" role="alert" data-jsux="alert">\r\n        <button id="closeApplySubscriptionThankYouBtn" class="close icon icon-close" type="button" aria-label="Close" data-dismiss="#ApplySubscriptionThankYouAlert">Close</button>\r\n        <p>We\'ll send jobs like this to: {emailaddress}</p>\r\n    </div>\n     </script>\n    </div>\n   </div>\n   <div class="w-page-content" id="content" role="main">\n    <div class="container">\n     <header class="panel panel-default m-fixed-header decorated jvflow">\n      <div class="row">\n       <div class="opening col-sm-12">\n        <div class="company-logo" data-jsux="lazyImage" data-src="http://media.monster.com/clu/x549/x549484HJSx/joblogo.gif">\n        </div>\n        <h2>\n         Data Management Specialist from Bestica\n        </h2>\n        <h3>\n         Jackson, MS\n        </h3>\n       </div>\n       <div class="action-bar col-sm-3 text-right">\n       </div>\n      </div>\n     </header>\n    </div>\n    <div data-folder-id="217947803" data-job-id="182218583" id="trackingIdentification" style="display: none;">\n    </div>\n    <div>\n     <div class="w-job-view container" id="JobViewContent">\n      <script type="application/ld+json">\n       {"title":"Data Management Specialist","datePosted":"2017-03-24","description":"<span ID=\'TrackingJobBody\' NAME=\'TrackingJobBody\'><P align=\\"center\\" style=\\"text-align: left;\\"><BR/></P><P align=\\"center\\" style=\\"text-align:center\\"><B><BR/></B></P><P align=\\"center\\" style=\\"text-align:center\\"><B>BI, SQL, NoSQL, SSRS, </B><B><FONT face=\\"Arial, sans-serif\\" style=\\"font-size: 9pt;\\">Crystal &amp; Ad-hoc Reporting| Dimensional D</FONT></B><B>ata to DBAs Experience| Great Opportunity!</B></P><P style=\\"margin-bottom: 0.0001pt;\\">\xc2\xa0</P><P style=\\"margin-bottom: 0.0001pt;\\">To enhance business functionality by use of a business intelligence (BI) system, report writing, and ad-hoc querying.</P><P style=\\"margin-bottom: 0.0001pt;\\"><BR/><B><U>ACCOUNTABILITIES</U></B></P><P style=\\"margin-bottom: 0.0001pt;\\">Develops processes to enable users to easily access accurate information on which to base decisions by consulting with staff to determine needs, and by developing processes and technical solutions to address needs.</P><P align=\\"justify\\" style=\\"margin-bottom: 0.0001pt;\\">Designs, implements, and maintains BI views and SQL Server Reporting Services (SSRS) reports in support of productivity enhancements by consulting with staff to develop and implement technical applications to meet desired goals and objectives.</P><P align=\\"justify\\" style=\\"margin-bottom: 0.0001pt;\\">Serves as the design lead for report development projects by interacting with management on request for report design and report changes, while coordinating and obtaining the approval from senior management to proceed with reporting.</P><P align=\\"justify\\" style=\\"margin-bottom: 0.0001pt;\\">Interfaces and verifies with end users that the BI views and SSRS reports meet and support the business needs the reports were created to fulfill.</P><P style=\\"margin-bottom: 0.0001pt;\\">Provides technical support for all BI views and SSRS reports by assisting staff with any technical related questions and issues and by troubleshooting and resolving any issues with a sense of urgency.</P><P align=\\"justify\\" style=\\"margin-bottom: 0.0001pt;\\">Write ad-hoc reports to meet business reporting criteria of management staff by extracting and formatting data using T-SQL and core system query applications.</P><P align=\\"justify\\" style=\\"margin-bottom: 0.0001pt;\\">Analyzes and supports the simplification of the current corporate and departmental reporting.</P><P align=\\"justify\\" style=\\"margin-bottom: 0.0001pt;\\">Assist in expansion and implementation of NoSQL database to serve as a data lake to complement the existing Enterprise Data Warehouse.\xc2\xa0 Work with members of the BI team and identified citizen data scientists to proliferate the querying of NoSQL database.</P><P align=\\"justify\\" style=\\"margin-bottom: 0.0001pt;\\">Continually increases technical knowledge and proactively applies knowledge by keeping abreast of changes in technology (e.g. staying up-to-date on BI technology trends such as data lakes &amp; NoSQL, taking\xc2\xa0technology related\xc2\xa0classes, etc.) and by recommending technical solution changes if appropriate.</P><P align=\\"justify\\" style=\\"margin-bottom: 0.0001pt;\\">Understand and communicate\xc2\xa0business\xc2\xa0use of data to DBAs.\xc2\xa0 Assist in layout and design of data in dimensional models to be used in data marts/data warehouse.</P><P style=\\"margin-bottom: 0.0001pt;\\"><BR/><B><U>EDUCATION &amp; EXPERIENCE</U></B></P><P style=\\"margin-bottom: 0.0001pt;\\">Two-years of college required; with four-year\xe2\x80\x99s college preferred</P><P style=\\"margin-bottom: 0.0001pt;\\">Minimum two-years of experience working with relational databases, schemas, dimensional modeling, and data analysis techniques; or equivalent combination of education and experience.</P><P style=\\"margin-bottom: 0.0001pt;\\"><BR/><B><U>SKILLS &amp; CERTIFICATIONS</U></B></P><UL style=\\"margin-top:0in\\" type=\\"disc\\"><LI style=\\"margin-bottom: 0.0001pt; text-align: justify;\\">Advanced      proficiency in report writing tools such as SSRS (preferred) or Crystal      Reports.\xc2\xa0</LI><LI style=\\"margin-bottom: 0.0001pt; text-align: justify;\\">Proficient      in MS SQL querying, specifically SELECT queries and stored procedures.</LI><LI style=\\"margin-bottom: 0.0001pt; text-align: justify;\\">Fluent      in dimensional modeling concepts.</LI><LI style=\\"margin-bottom: 0.0001pt; text-align: justify;\\">Experience      with NoSQL querying and development.</LI><LI style=\\"margin-bottom: 0.0001pt; text-align: justify;\\">Advanced      proficiency in Excel.</LI><LI style=\\"margin-bottom: 0.0001pt; text-align: justify;\\">Exhibits      the analytical and\xc2\xa0problem solving\xc2\xa0ability necessary to develop      effective technical solutions.</LI><LI style=\\"margin-bottom: 0.0001pt; text-align: justify;\\">Exhibits      strong organizational skills and prioritization ability.</LI><LI style=\\"margin-bottom: 0.0001pt; text-align: justify;\\">Exhibits      strong administrative and project management skills.</LI><LI style=\\"margin-bottom: 0.0001pt; text-align: justify;\\">Exhibits      strong attention to detail skills</LI><LI style=\\"margin-bottom: 0.0001pt; text-align: justify;\\">Exhibits      strong interpersonal/teamwork skills in order to develop effective      relationships with individuals and groups inside and outside the      organization.</LI><LI style=\\"margin-bottom: 0.0001pt; text-align: justify;\\">Good      verbal and written communication skills with the ability to document      procedures.</LI><LI style=\\"margin-bottom: 0.0001pt; text-align: justify;\\">Knowledge      of product systems, operations and procedures preferred.</LI><LI style=\\"margin-bottom: 0.0001pt; text-align: justify;\\">Demonstrates      a high level of professionalism.</LI><LI style=\\"margin-bottom: 0.0001pt; text-align: justify;\\">Position      requires typing of 40 words per minute.</LI></UL><P style=\\"margin-bottom: 0.0001pt;\\">\xc2\xa0</P><P style=\\"margin-bottom: 0.0001pt; background: white;\\"><FONT style=\\"background-image: initial; background-position: initial; background-size: initial; background-repeat: initial; background-attachment: initial; background-origin: initial; background-clip: initial;\\">Time is of essence, so email resume and portfolio to <A HREF=\\"#?subject=Data%20Management%20Specialist\\"><span data-jsux=\\"tooltip\\" data-placement=\\"top\\" title=\\"Apply to this job to send your resume to this employer\\" class=\\"icon-after icon-help\\"> Leticia@bestica.com</span></A>  \xc2\xa0today! If you feel this job is not the one for you, kindly pass this information along to other\xc2\xa0<FONT face=\\"Calibri, sans-serif\\" style=\\"font-size: 11pt; line-height: 107%;\\">Data Management Specialist<B>\xc2\xa0</B></FONT>professionals within your network.\xc2\xa0</FONT></P><P style=\\"margin-bottom: 0.0001pt;\\">\xc2\xa0</P><P style=\\"margin-bottom: 0.0001pt;\\">\xc2\xa0</P></span>","employmentType":["FULL_TIME"],"jobLocation":{"address":{"addressLocality":"Jackson","@type":"PostalAddress"},"@type":"Place"},"hiringOrganization":{"name":"Bestica","@type":"Organization"},"identifier":{"name":"Bestica","value":"182218583","@type":"PropertyValue"},"@context":"http://schema.org","@type":"JobPosting"}\n      </script>\n      <div class="row">\n       <div class="col-md-8">\n        <article class="panel panel-default m-job-view panel-body">\n         <div class="actions">\n          <a class="m-job-view-report-wide icon-before icon-open_in_new" data-at="report" href="/v2/job/communityfeedback?encjobid=EAAQhf_MFP.MJMnXIgcZDeCbiw--" target="_blank">\n           Report this job\n          </a>\n         </div>\n         <h4>\n          About the Job\n         </h4>\n         <div data-folder-id="217947803" data-is-cao="false" data-job-id="182218583" data-jsux="tracking" id="JobDescription">\n          <span id="TrackingJobBody" name="TrackingJobBody">\n           <p align="center" style="text-align: left;">\n            <br/>\n           </p>\n           <p align="center" style="text-align:center">\n            <b>\n             <br/>\n            </b>\n           </p>\n           <p align="center" style="text-align:center">\n            <b>\n             BI, SQL, NoSQL, SSRS,\n            </b>\n            <b>\n             <font face="Arial, sans-serif" style="font-size: 9pt;">\n              Crystal &amp; Ad-hoc Reporting| Dimensional D\n             </font>\n            </b>\n            <b>\n             ata to DBAs Experience| Great Opportunity!\n            </b>\n           </p>\n           <p style="margin-bottom: 0.0001pt;">\n           </p>\n           <p style="margin-bottom: 0.0001pt;">\n            To enhance business functionality by use of a business intelligence (BI) system, report writing, and ad-hoc querying.\n           </p>\n           <p style="margin-bottom: 0.0001pt;">\n            <br/>\n            <b>\n             <u>\n              ACCOUNTABILITIES\n             </u>\n            </b>\n           </p>\n           <p style="margin-bottom: 0.0001pt;">\n            Develops processes to enable users to easily access accurate information on which to base decisions by consulting with staff to determine needs, and by developing processes and technical solutions to address needs.\n           </p>\n           <p align="justify" style="margin-bottom: 0.0001pt;">\n            Designs, implements, and maintains BI views and SQL Server Reporting Services (SSRS) reports in support of productivity enhancements by consulting with staff to develop and implement technical applications to meet desired goals and objectives.\n           </p>\n           <p align="justify" style="margin-bottom: 0.0001pt;">\n            Serves as the design lead for report development projects by interacting with management on request for report design and report changes, while coordinating and obtaining the approval from senior management to proceed with reporting.\n           </p>\n           <p align="justify" style="margin-bottom: 0.0001pt;">\n            Interfaces and verifies with end users that the BI views and SSRS reports meet and support the business needs the reports were created to fulfill.\n           </p>\n           <p style="margin-bottom: 0.0001pt;">\n            Provides technical support for all BI views and SSRS reports by assisting staff with any technical related questions and issues and by troubleshooting and resolving any issues with a sense of urgency.\n           </p>\n           <p align="justify" style="margin-bottom: 0.0001pt;">\n            Write ad-hoc reports to meet business reporting criteria of management staff by extracting and formatting data using T-SQL and core system query applications.\n           </p>\n           <p align="justify" style="margin-bottom: 0.0001pt;">\n            Analyzes and supports the simplification of the current corporate and departmental reporting.\n           </p>\n           <p align="justify" style="margin-bottom: 0.0001pt;">\n            Assist in expansion and implementation of NoSQL database to serve as a data lake to complement the existing Enterprise Data Warehouse.\xc2\xa0 Work with members of the BI team and identified citizen data scientists to proliferate the querying of NoSQL database.\n           </p>\n           <p align="justify" style="margin-bottom: 0.0001pt;">\n            Continually increases technical knowledge and proactively applies knowledge by keeping abreast of changes in technology (e.g. staying up-to-date on BI technology trends such as data lakes &amp; NoSQL, taking\xc2\xa0technology related\xc2\xa0classes, etc.) and by recommending technical solution changes if appropriate.\n           </p>\n           <p align="justify" style="margin-bottom: 0.0001pt;">\n            Understand and communicate\xc2\xa0business\xc2\xa0use of data to DBAs.\xc2\xa0 Assist in layout and design of data in dimensional models to be used in data marts/data warehouse.\n           </p>\n           <p style="margin-bottom: 0.0001pt;">\n            <br/>\n            <b>\n             <u>\n              EDUCATION &amp; EXPERIENCE\n             </u>\n            </b>\n           </p>\n           <p style="margin-bottom: 0.0001pt;">\n            Two-years of college required; with four-year\xe2\x80\x99s college preferred\n           </p>\n           <p style="margin-bottom: 0.0001pt;">\n            Minimum two-years of experience working with relational databases, schemas, dimensional modeling, and data analysis techniques; or equivalent combination of education and experience.\n           </p>\n           <p style="margin-bottom: 0.0001pt;">\n            <br/>\n            <b>\n             <u>\n              SKILLS &amp; CERTIFICATIONS\n             </u>\n            </b>\n           </p>\n           <ul style="margin-top:0in" type="disc">\n            <li style="margin-bottom: 0.0001pt; text-align: justify;">\n             Advanced      proficiency in report writing tools such as SSRS (preferred) or Crystal      Reports.\n            </li>\n            <li style="margin-bottom: 0.0001pt; text-align: justify;">\n             Proficient      in MS SQL querying, specifically SELECT queries and stored procedures.\n            </li>\n            <li style="margin-bottom: 0.0001pt; text-align: justify;">\n             Fluent      in dimensional modeling concepts.\n            </li>\n            <li style="margin-bottom: 0.0001pt; text-align: justify;">\n             Experience      with NoSQL querying and development.\n            </li>\n            <li style="margin-bottom: 0.0001pt; text-align: justify;">\n             Advanced      proficiency in Excel.\n            </li>\n            <li style="margin-bottom: 0.0001pt; text-align: justify;">\n             Exhibits      the analytical and\xc2\xa0problem solving\xc2\xa0ability necessary to develop      effective technical solutions.\n            </li>\n            <li style="margin-bottom: 0.0001pt; text-align: justify;">\n             Exhibits      strong organizational skills and prioritization ability.\n            </li>\n            <li style="margin-bottom: 0.0001pt; text-align: justify;">\n             Exhibits      strong administrative and project management skills.\n            </li>\n            <li style="margin-bottom: 0.0001pt; text-align: justify;">\n             Exhibits      strong attention to detail skills\n            </li>\n            <li style="margin-bottom: 0.0001pt; text-align: justify;">\n             Exhibits      strong interpersonal/teamwork skills in order to develop effective      relationships with individuals and groups inside and outside the      organization.\n            </li>\n            <li style="margin-bottom: 0.0001pt; text-align: justify;">\n             Good      verbal and written communication skills with the ability to document      procedures.\n            </li>\n            <li style="margin-bottom: 0.0001pt; text-align: justify;">\n             Knowledge      of product systems, operations and procedures preferred.\n            </li>\n            <li style="margin-bottom: 0.0001pt; text-align: justify;">\n             Demonstrates      a high level of professionalism.\n            </li>\n            <li style="margin-bottom: 0.0001pt; text-align: justify;">\n             Position      requires typing of 40 words per minute.\n            </li>\n           </ul>\n           <p style="margin-bottom: 0.0001pt;">\n           </p>\n           <p style="margin-bottom: 0.0001pt; background: white;">\n            <font style="background-image: initial; background-position: initial; background-size: initial; background-repeat: initial; background-attachment: initial; background-origin: initial; background-clip: initial;">\n             Time is of essence, so email resume and portfolio to\n             <a href="#?subject=Data%20Management%20Specialist">\n              <span class="icon-after icon-help" data-jsux="tooltip" data-placement="top" title="Apply to this job to send your resume to this employer">\n               Leticia@bestica.com\n              </span>\n             </a>\n             today! If you feel this job is not the one for you, kindly pass this information along to other\n             <font face="Calibri, sans-serif" style="font-size: 11pt; line-height: 107%;">\n              Data Management Specialist\n              <b>\n              </b>\n             </font>\n             professionals within your network.\n            </font>\n           </p>\n           <p style="margin-bottom: 0.0001pt;">\n           </p>\n           <p style="margin-bottom: 0.0001pt;">\n           </p>\n          </span>\n         </div>\n         <a aria-hidden="true" class="m-job-view-report-narrow icon-before icon-open_in_new" data-at="report" href="/v2/job/communityfeedback?encjobid=EAAQhf_MFP.MJMnXIgcZDeCbiw--">\n          Report\n         </a>\n        </article>\n       </div>\n       <div class="col-md-4">\n        <aside class="w-job-aside">\n         <div class="row">\n          <div class="col-sm-6 col-md-12">\n           <div class="panel panel-default">\n            <div class="panel-body m-job-summary" id="JobSummary">\n             <h4>\n              Job summary\n             </h4>\n             <section class="summary-section">\n              <header class="header">\n               <h2 class="key">\n                Location\n               </h2>\n               <h3 class="value">\n                Jackson, MS\n               </h3>\n              </header>\n             </section>\n             <section class="summary-section">\n              <header class="header">\n               <h2 class="key">\n                Job type\n               </h2>\n               <h3 class="value">\n                Full Time, Employee\n               </h3>\n              </header>\n             </section>\n             <section class="summary-section">\n              <header class="header">\n               <h2 class="key">\n                Posted\n               </h2>\n               <h3 class="value">\n                26 Days ago\n               </h3>\n              </header>\n             </section>\n            </div>\n           </div>\n          </div>\n          <div class="col-sm-6 col-md-12">\n           <div class="panel panel-default" id="AboutCompany" style="display: none">\n            <div class="panel-body m-job-aboutcompany" data-companyprofilelink="#AboutCompanyProfileLink" data-followbox="#FollowBox" data-followboxexpander="#FollowBoxExpander" data-jsux="aboutCompany">\n             <span>\n              <h4>\n               About this company\n              </h4>\n             </span>\n             <div class="panel-section">\n              <div class="company-logo" style="background-image:url(\'http://media.monster.com/clu/x549/x549484HJSx/joblogo.gif\');">\n              </div>\n              <div class="company-ratings" data-apiurl="https://www.monster.com/Reviews/api/Profile/GetRatings" data-hideelementwhennorating=".company-reviews, #AboutCompany" data-jsux="starRatings">\n               <div class="kununu-star-rating-container" data-adobecatalystaccountname="newjobsprodjobviewus" data-channelid="58" data-companyname="Bestica" data-companyxcode="x549484HJSx" data-messagetext="View reviews on" data-starrating-template="#starrating-template" style="display: block ;">\n                <meta itemprop="ratingValue"/>\n                <meta itemprop="reviewCount"/>\n               </div>\n              </div>\n             </div>\n             <div class="panel-section fade-container">\n              <dl>\n               <dt>\n                Company name\n               </dt>\n               <dd>\n                Bestica\n               </dd>\n              </dl>\n             </div>\n             <div class="panel-section">\n              <div class="company-reviews hidden-js" data-apiurl="https://www.monster.com/Reviews/api/Reviews/GetReviews" data-channelid="58" data-companyxcode="x549484HJSx" data-jsux="companyReviews" data-review-item-template="#review-item-template" data-reviews-element="#carousel-kununu-reviews">\n               <div class="carousel slide" data-interval="false" id="carousel-kununu-reviews">\n                <div class="carousel-inner" role="listbox">\n                </div>\n                <ol class="carousel-indicators">\n                </ol>\n               </div>\n              </div>\n              <!-- Templates -->\n              <script id="review-item-template" type="text/x-handlebars-template">\n               <div class="{{itemClasses}}">\r\n            <article class="m-list-item panel panel-default panel-body">\r\n                <p class="title">{{title}}</p>\r\n                <p class="excerpt fade-content"><span>{{excerpt}}</span></p>\r\n            </article>\r\n        </div>\n              </script>\n             </div>\n            </div>\n           </div>\n           <div class="panel panel-default" data-breakpoints="xs,sm" data-jsux="responsiveDom" data-target="#ContactInfo" id="OtherJobs">\n            <div class="panel-body">\n             <div class="m-more-jobs">\n              <h4>\n               <span>\n                Jobs from Bestica\n               </span>\n              </h4>\n              <ul class="list-unstyled">\n               <li>\n                <a data-at="jobs" data-job-ad-pricing-type-id="1" data-job-id="183086636" data-job-title="UX Designer - Mobile" data-jsux="adobeTrackingSameCompanyJobClick" data-m_impr_a_placement_id="JSR" data-m_impr_j_cid="11454" data-m_impr_j_coc="x549484HJSx" data-m_impr_j_jawsid="0" data-m_impr_j_jobid="183086636" data-m_impr_j_jpm="1" data-m_impr_j_jpt="1" data-m_impr_j_lat="37.386" data-m_impr_j_lid="883" data-m_impr_j_long="-122.0839" data-m_impr_j_occid="12005" data-m_impr_j_p="1" data-m_impr_j_postingid="" data-m_impr_j_pvc="monster" data-m_impr_uuid="3aa3101c-55e4-4f7d-830d-83baf55ba044" href="http://jobview.monster.com/UX-Designer-Mobile-Job-Mountain-View-CA-US-183086636.aspx">\n                 UX Designer - Mobile\n                </a>\n               </li>\n               <li>\n                <a data-at="jobs" data-job-ad-pricing-type-id="1" data-job-id="182939977" data-job-title="Flight Medicine Physician" data-jsux="adobeTrackingSameCompanyJobClick" data-m_impr_a_placement_id="JSR" data-m_impr_j_cid="3975" data-m_impr_j_coc="x549484HJSx" data-m_impr_j_jawsid="0" data-m_impr_j_jobid="182939977" data-m_impr_j_jpm="1" data-m_impr_j_jpt="1" data-m_impr_j_lat="29.5052" data-m_impr_j_lid="624" data-m_impr_j_long="-98.5725" data-m_impr_j_occid="11870" data-m_impr_j_p="2" data-m_impr_j_postingid="" data-m_impr_j_pvc="monster" data-m_impr_uuid="a16ffd59-bf49-4fb9-ac13-d5b471da340b" href="http://jobview.monster.com/Flight-Medicine-Physician-Job-San-Antonio-TX-US-182939977.aspx">\n                 Flight Medicine Physician\n                </a>\n               </li>\n               <li>\n                <a data-at="jobs" data-job-ad-pricing-type-id="1" data-job-id="182903846" data-job-title="Web Developer - Tech Lead" data-jsux="adobeTrackingSameCompanyJobClick" data-m_impr_a_placement_id="JSR" data-m_impr_j_cid="660" data-m_impr_j_coc="x549484HJSx" data-m_impr_j_jawsid="0" data-m_impr_j_jobid="182903846" data-m_impr_j_jpm="1" data-m_impr_j_jpt="1" data-m_impr_j_lat="37.7749" data-m_impr_j_lid="355" data-m_impr_j_long="-122.4195" data-m_impr_j_occid="11970" data-m_impr_j_p="3" data-m_impr_j_postingid="" data-m_impr_j_pvc="monster" data-m_impr_uuid="cc7d8b56-f329-41c6-810a-f3c04875c30c" href="http://jobview.monster.com/Web-Developer-Tech-Lead-Job-San-Francisco-CA-US-182903846.aspx">\n                 Web Developer - Tech Lead\n                </a>\n               </li>\n               <li>\n                <a data-at="jobs" data-job-ad-pricing-type-id="1" data-job-id="182750477" data-job-title="Entry level/Junior UI/UX Designer" data-jsux="adobeTrackingSameCompanyJobClick" data-m_impr_a_placement_id="JSR" data-m_impr_j_cid="11454" data-m_impr_j_coc="x549484HJSx" data-m_impr_j_jawsid="0" data-m_impr_j_jobid="182750477" data-m_impr_j_jpm="1" data-m_impr_j_jpt="1" data-m_impr_j_lat="37.386" data-m_impr_j_lid="883" data-m_impr_j_long="-122.0839" data-m_impr_j_occid="12005" data-m_impr_j_p="4" data-m_impr_j_postingid="" data-m_impr_j_pvc="monster" data-m_impr_uuid="59e261db-55c2-4018-8ff2-a78c2548cc9f" href="http://jobview.monster.com/Entry-level-Junior-UI-UX-Designer-Job-Mountain-View-CA-US-182750477.aspx">\n                 Entry level/Junior UI/UX Designer\n                </a>\n               </li>\n               <li>\n                <a data-at="jobs" data-job-ad-pricing-type-id="1" data-job-id="182706858" data-job-title="PROTESTANT DIRECTOR OF RELIGIOUS EDUCATION" data-jsux="adobeTrackingSameCompanyJobClick" data-m_impr_a_placement_id="JSR" data-m_impr_j_cid="11" data-m_impr_j_coc="x549484HJSx" data-m_impr_j_jawsid="0" data-m_impr_j_jobid="182706858" data-m_impr_j_jpm="1" data-m_impr_j_jpt="1" data-m_impr_j_lat="-90.0001" data-m_impr_j_lid="634" data-m_impr_j_long="-180.0001" data-m_impr_j_occid="11892" data-m_impr_j_p="5" data-m_impr_j_postingid="" data-m_impr_j_pvc="monster" data-m_impr_uuid="490099b8-38d8-4f51-8b2a-613812a254f4" href="http://jobview.monster.com/PROTESTANT-DIRECTOR-OF-RELIGIOUS-EDUCATION-Job-Little-Creek-VA-US-182706858.aspx">\n                 PROTESTANT DIRECTOR OF RELIGIOUS EDUCATION\n                </a>\n               </li>\n              </ul>\n             </div>\n             <div class="m-more-jobs">\n              <h4>\n               Find more jobs\n              </h4>\n              <ul class="list-unstyled">\n               <li>\n                <a data-at="returntosearch" href="http://www.monster.com/jobs/q-it-software-development-jobs-l-jackson,-ms.aspx" id="BackLink">\n                 Refine my job search\n                </a>\n               </li>\n              </ul>\n             </div>\n            </div>\n           </div>\n          </div>\n         </div>\n        </aside>\n       </div>\n      </div>\n     </div>\n    </div>\n    <div class="m-action-bar standard-apply" data-apply-button="#PrimaryJobApply,#speedApply" data-jsux="applyStart" data-tracking-properties="#ApplyStartTrackingProperties" id="JobApply">\n     <div class="container">\n      <div data-evar34="stdapplystarts" data-evar36="App_Std" data-evar37="0_0_0" data-evar38="SA" data-evar57="no branding" data-evar62="1" data-events.event15="1" data-events.event4="1" data-events.event5="1" id="ApplyStartTrackingProperties" style="display:none;">\n      </div>\n      <a class="btn btn-primary btn-apply" data-apply-start-tracking-event="" data-at="apply" data-at-type="stdapplystarts" href="/v2/job/apply?jobId=182218583" id="PrimaryJobApply" mns_rt="Jobs">\n       Apply\n      </a>\n      <div class="flyout visible" id="JobActions">\n       <a class="btn btn-link" data-at="SaveToFile" href="https://login.monster.com/Become-Member/Create-Account?ch=MONS&amp;at=apply&amp;redirect=http%3a%2f%2fjob-openings.monster.com%2fv2%2fjob%2fView%3fJobID%3d182218583%26savejob%3d1&amp;jobid=182218583" id="SaveJob">\n        <span class="icon-before icon-star">\n         <span class="text">\n          Save\n         </span>\n        </span>\n       </a>\n       <a class="btn btn-link" data-at="emailfriend" id="emailFriendOpen">\n        <span class="icon-before icon-email">\n         <span class="text">\n          Email\n         </span>\n        </span>\n       </a>\n      </div>\n      <button class="flyout-toggle visible btn btn-link icon icon-dots" data-jsux="toggleClass" data-target="#JobActions" id="JobActionsToggle">\n       <span class="sr-only">\n        ...\n       </span>\n      </button>\n      <div class="post-mail" data-closebtn="#emailFriendClose" data-closebtnconf="#saveAndCloseBtn" data-jobid="182218583" data-jsux="emailFriend" data-openbtn="#emailFriendOpen" data-remote-url="/v2/job/sendemailfriend" data-requirederror="Email is required\r\n" data-sendfrom="#EmailAddressSendFrom" data-sendto="#EmailAddressSendTo" data-validationerror="Email is not valid" id="emailFriendPanel">\n       <h5>\n        Email this job\n       </h5>\n       <button class="btn btn-close" id="emailFriendClose">\n        <span class="icon-after icon-close">\n         Close\n        </span>\n       </button>\n       <div class="form">\n        <div class="form-group">\n         <label class="form-label sr-only" for="EmailAddressSendFrom">\n          Your email\n         </label>\n         <input class="form-control" id="EmailAddressSendFrom" maxlength="100" name="SentFrom" placeholder="Your email\r\n"/>\n        </div>\n        <div class="form-group">\n         <label class="form-label sr-only" for="EmailAddressSendTo">\n          Email to send to\n         </label>\n         <input class="form-control" data-val-required="Email" id="EmailAddressSendTo" maxlength="100" name="SendTo" placeholder="Email to send to"/>\n        </div>\n        <div class="form-group">\n         <div class="g-recaptcha" data-enable="true" data-sitekey="6LfFxwwUAAAAAMb6IoJnE8q_cXbSoevLAyBTx8Pd">\n         </div>\n        </div>\n        <a class="btn btn-primary btn-block" data-id="">\n         Email this job\n        </a>\n       </div>\n       <span class="help-block" id="EmailAddressHelp">\n        Note: Email addresses will only be used for mail delivery of this job.\n       </span>\n      </div>\n      <script id="emailFriendPanelSuccess" type="text/template">\n       <div id="saveAndClose" class="saveAndClosePanel c-alert alert alert-success icon fade in" role="alert" data-jsux="alert">\r\n        <button id="saveAndCloseBtn" class="icon icon-close" type="button" aria-label="Close" data-dismiss="#saveAndClose">Close</button>\r\n        <p>This job has been emailed to {emailaddress}</p>\r\n    </div>\n      </script>\n     </div>\n    </div>\n    <div class="dimmer">\n    </div>\n    <script id="jobSaveInfo" type="text/template">\n     <div id="saveJob" class="c-alert alert alert-{alertClassType} icon fade in" role="alert" data-jsux="alert">\r\n      <button id="closeSaveJobBtn" class="close icon icon-close" type="button" aria-label="Close" data-dismiss="#saveJob">Close</button>\r\n      <p>{msg}</p>\r\n    </div>\n    </script>\n    <script id="starrating-template" type="text/x-handlebars-template">\n     <div>\r\n        <span class="star-rating-stars star-rating-stars-{{rating}}"></span>\r\n        <span class="star-rating-text"> ({{kununuMessageText}} \r\n            <a target="_blank" title="View {{companyName}} Reviews on Kununu" href="{{kununuUrl}}">\r\n                <img alt="Kununu Logo" src="//securemedia.newjobs.com/global/img/kununu/kununu_logo.png" class="kununu-star-rating-link">\r\n            </a>)\r\n        </span>\r\n    </div>\n    </script>\n    <script type="text/javascript">\n     var trackingSend = false;\r\n        var scTrackingSend = false;\r\n        require([\'at15\', \'jquery\', \'selectors\'], function (_m, $) {\r\n            // dynamic content links\r\n            var externalLinks = $(\'#JobDescription\').find(\'a:external\'),\r\n                emailLinks = $(\'#JobDescription\').find(\'a:email\'),\r\n                backLink = $(\'#BackLink\');\r\n            _m.ATM.registerConfig({ jQuerySelector: externalLinks, o: "o", eventType: "click", eventName: "eoi", vars: { \'events.event4\': \'true\', \'eVar34\': "Job Body Clicks" } });\r\n            _m.ATM.registerConfig({ jQuerySelector: emailLinks, o: "o", eventType: "click", eventName: "eoi", vars: { \'events.event4\': \'true\', \'eVar34\': "Job Body Email Clicks" } });\r\n            _m.ATM.registerConfig({ jQuerySelector: backLink, o: "o", eventType: "click", eventName: "eoi", vars: { \'events.event4\': \'true\', \'eVar34\': "Back to Job Search Results" }, adobeDoneAction: function () { window.location = $(\'#BackLink\').attr("href"); } });\r\n            // standard jobview links\r\n            _m.ATM.registerConfig({ jQuerySelector: "[data-at=\'SaveToFile\']", o: "o", eventType: "click", eventName: "eoi", vars: { \'events.event4\': \'true\', \'eVar34\': "Save Job" } });\r\n            _m.ATM.registerConfig({ jQuerySelector: "[data-at=\'report\']", o: "o", eventName: "eoi", vars: { \'events.event4\': \'true\', \'eVar34\': "Report this Job" } });\r\n            _m.ATM.registerConfig({ jQuerySelector: "[data-at=\'share\']", o: "o", eventName: "eoi", vars: { \'events.event4\': \'true\', \'eVar34\': "Share Job" } });\r\n            _m.ATM.registerConfig({ jQuerySelector: "[data-at=\'returntosearch\']", o: "o", eventType: "click", eventName: "eoi", vars: { \'events.event4\': \'true\', \'eVar34\': "Back to Job Search Results" }, adobeDoneAction: function () { window.location = $("[data-at=\'returntosearch\']").attr("href"); } });\r\n            _m.ATM.registerConfig({ jQuerySelector: "[data-at=\'similar-jobs\']", o: "o", eventType: "click", eventName: "eoi", vars: { \'events.event4\': \'true\', \'eVar34\': "View Similar Jobs" } });\r\n            _m.ATM.registerConfig({ jQuerySelector: "[data-at=\'location-jobs\']", o: "o", eventType: "click", eventName: "eoi", vars: { \'events.event4\': \'true\', \'eVar34\': "View Location Jobs" } });\r\n            _m.ATM.registerConfig({ jQuerySelector: "[data-at=\'jobs\']", o: "o", eventType: "click", eventName: "eoi", vars: { \'events.event4\': \'true\', \'eVar34\': "All Company Jobs" } });\r\n\r\n        });\r\n        require([\'canJs\', \'jquery\'], function (_m, $) {\r\n            $(document).ready(function () {\r\n                try\r\n                {\r\n                    if (typeof (monsterCan) != "undefined") {\r\n                        var ch = monsterCan.getPartnership("f530b397-a781-4f9b-8e44-14bdfa1d54f9");\r\n                        ch.trackPageview();\r\n                    }\r\n                }\r\n                catch (e) {\r\n                }\r\n            });\r\n        });\n    </script>\n   </div>\n   <footer class="w-page-footer" id="PageFooter" role="contentinfo">\n    <div class="container">\n     <nav class="m-legal-nav m-legal-nav-narrow">\n      <small class="copyright">\n       Copyright \xc2\xa9 2016 | Monster Worldwide\n      </small>\n      <small class="patents">\n       U.S. Patents No. 7,599,930 B1; 7,827,125 and 7,836,060\n      </small>\n      <small>\n       - V: 2017.4.0.396-941\n      </small>\n     </nav>\n     <nav class="m-legal-nav m-legal-nav-wide">\n      <small>\n       Copyright \xc2\xa9 2016 | Monster Worldwide U.S. Patents No. 7,599,930 B1; 7,827,125 and 7,836,060  - V: 2017.4.0.396-941\n      </small>\n     </nav>\n    </div>\n   </footer>\n  </div>\n  <script>\n   require([\'jsux\', \'polyfills\']);\n  </script>\n  <div style="display:none;">\n  </div>\n  <script src="https://logs.jobs.com/impression_trackingv2.js" type="text/javascript">\n  </script>\n </body>\n</html>\n'
tp5
a(S'http://job-openings.monster.com/monster/a3ce3bd5-3415-4f0d-97b3-2996c1302e96'
p6
S'<!DOCTYPE html>\n<!--[if lt IE 7]>      <html class="no-js lt-ie9 lt-ie8 lt-ie7"> <![endif]-->\n<!--[if IE 7]>         <html class="no-js lt-ie9 lt-ie8"> <![endif]-->\n<!--[if IE 8]>         <html class="no-js lt-ie9"> <![endif]-->\n<!--[if gt IE 8]><!-->\n<html class="no-js">\n <!--<![endif]-->\n <head>\n  <title>\n   Information Assurance Cyber Manager - Raytheon | Jobs.com\n  </title>\n  <meta charset="utf-8"/>\n  <meta content="IE=edge,chrome=1" http-equiv="X-UA-Compatible"/>\n  <meta content="text/html; charset=utf-8" http-equiv="Content-Type"/>\n  <meta content="width=device-width, initial-scale=1.0" name="viewport"/>\n  <meta content="Raytheon - Forest, MS. This position requires a U.S. person or the ability to obtain an Export Aut" name="description"/>\n  <link href="http://plus.monster.com/+monster" rel="publisher"/>\n  <link href="https://maxcdn.bootstrapcdn.com/bootstrap/3.2.0/css/bootstrap.min.css" rel="stylesheet"/>\n  <link href="https://maxcdn.bootstrapcdn.com/font-awesome/4.2.0/css/font-awesome.min.css" rel="stylesheet"/>\n  <link href="/bundles/monster?v=3VUpvWSKWfcSTe2LCMpXVIfzIyGEJcLvPJMZUFZH8gg1" rel="stylesheet"/>\n  <!-- Favicon -->\n  <link href="http://media.newjobs.com/niche/img/favicon/favicon.ico" rel="shortcut icon"/>\n  <meta content="noindex, nofollow" name="robots"/>\n  <meta content="Monster" name="m_impr.a_affiliate_id"/>\n  <meta content="jobview" name="_ac.page_name"/>\n  <!-- Le HTML5 shim, for IE6-8 support of HTML5 elements -->\n  <!--[if lt IE 9]>\r\n    <script src="/scripts/third_party/html5shiv.js"></script>\r\n    <script src="/scripts/bootstrap/respond.min.js" type="text/javascript"></script>\r\n\r\n    <script type="text/javascript">\r\n        if (!Array.prototype.forEach) {\r\n            Array.prototype.forEach = function (fun /*, thisArg */) {\r\n                "use strict";\r\n                if (this === void 0 || this === null || typeof fun !== "function") throw new TypeError();\r\n\r\n                var\r\n                    t = Object(this),\r\n                    len = t.length >>> 0,\r\n                    thisArg = arguments.length >= 2 ? arguments[1] : void 0;\r\n\r\n                for (var i = 0; i < len; i++)\r\n                    if (i in t)\r\n                        fun.call(thisArg, t[i], i, t);\r\n            };\r\n        }\r\n    </script>\r\n<![endif]-->\n </head>\n <body>\n  <div class="page">\n   <div class="navbar navbar-default navbar-fixed-top">\n    <div class="container">\n     <!--<div class="container">-->\n     <div class="navbar-header" itemscope="" itemtype="http://schema.org/Organization">\n      <a class="navbar-brand" href="http://www.monster.com" itemprop="url">\n       <img alt="monster.com" itemprop="logo" src="/Areas/JobViewCloud/content/images/monster-new.png" title="monster.com"/>\n      </a>\n     </div>\n     <!-- large screen navbar-collapse location -->\n     <div class="navbar-collapse collapse hidden-xs">\n     </div>\n     <!--/.navbar-collapse -->\n    </div>\n    <!-- ./container -->\n   </div>\n   <!-- ./navbar -->\n   <div class="jobview container">\n    <div class="row">\n     <input id="normalized-company-id" type="hidden" value="25782"/>\n     <div class="col-xs-12 col-sm-6 col-md-8 col-lg-8">\n      <article id="jobview">\n       <header class="jobview-header">\n        <h3>\n         Information Assurance Cyber Manager\n        </h3>\n        <h4 class="company">\n         Raytheon\n         <small class="location">\n          -\n          <i class="fa fa-map-marker">\n          </i>\n          Forest, MS 39074\n         </small>\n        </h4>\n        <span class="postedDate">\n         <strong>\n          Posted:\n         </strong>\n         4/3/2017\n        </span>\n       </header>\n       <!-- ./jobview-header -->\n       <div class="jobview-upper-apply-mobile visible-xs row">\n        <div class="col-sm-6">\n         <div class="action-buttons">\n          <input id="trackInfo" type="hidden" value=\'{"emailAddress":"","postingId":"a3ce3bd5-3415-4f0d-97b3-2996c1302e96","placementID":null,"jobPosition":0,"uniqueUser":null,"affiliate":"Monster","technology":null}\'/>\n          <a class="btn btn-sm btn-primary btn-jobsdotcom" data-action="apply" data-applyurl="https://jobs.raytheon.com/job/forest/information-assurance-cyber-manager/4679/3767104" data-atm-id="35" data-confurl="http://job-openings.monster.com/monster/confirmation?postingid=a3ce3bd5-3415-4f0d-97b3-2996c1302e96" data-form-selector=".email-collection" href="http://job-openings.monster.com/monster/confirmation?postingid=a3ce3bd5-3415-4f0d-97b3-2996c1302e96" rel="nofollow" role="button">\n           Apply Now\n          </a>\n          <form action="https://jobs.raytheon.com/job/forest/information-assurance-cyber-manager/4679/3767104" aria-hidden="true" class="email-collection hidden panel panel-default" data-id="a3ce3bd5-3415-4f0d-97b3-2996c1302e96" data-lrtype="B" data-placement="Left-Bottom-Body" data-position="0" data-remote-subscription="/LiteReg/ApplySubscription" data-remote-validation="/LiteReg/IsEmailValid" data-technology="" method="POST" target="_blank">\n           <div class="panel-body">\n            <div class="row-flex">\n             <div class="col-flex stretch">\n              <input class="form-control input-sm" id="EmailCollectionField2" name="litRegEmailAddress" placeholder="Please enter your email" type="email"/>\n             </div>\n            </div>\n            <label class="control-label" for="EmailCollectionField2">\n             To begin the application, please enter your email\n            </label>\n            <span class="help-block small">\n             By continuing you agree to Monster\'s\n             <a href="http://my.monster.com/Privacy/Default.aspx" target="_blank" title="Privacy Policy">\n              Privacy Policy\n             </a>\n             ,\n             <a href="http://my.monster.com/Terms/Default.aspx" target="_blank" title="Terms of Use">\n              Terms of Use\n             </a>\n             and\n             <a href="http://inside.monster.com/cookie-info/inside2.aspx" target="_blank" title="use of cookies">\n              use of cookies\n             </a>\n             .\n            </span>\n            <button class="sr-only" type="submit">\n             Continue application\n            </button>\n           </div>\n          </form>\n         </div>\n        </div>\n       </div>\n       <div class="jobview-section">\n        This position requires a U.S. person or the ability to obtain an Export Authorization from the appropriate government agency for non-U.S. persons\n        <br/>\n        <br/>\n        U.S. Citizenship status is required as this position needs an active U.S. Security Clearance as of day one of employment.\n        <br/>\n        <br/>\n        Job Description:\n        <br/>\n        <br/>\n        This job opportunity is for the Information Assurance (IA) Cyber Manager position at the Raytheon Space and Airborne Systems (SAS) Forest, MS facility. The IA Cyber Manager is responsible for managing and leading a team of Information Assurance (IA) professionals in the execution of a comprehensive IA program for the applicable governing documents such as: the NISPOM, JAFAN 6/3, JSIG, DCID 6/3 and ICD 503. Said candidate must be a self-starter capable of multitasking and efficiently managing their time in a dynamic environment with demanding deadlines while requiring minimal levels of supervision. Additionally, said candidate must possess excellent writing, speaking, analytical, project management, organizational, and customer service skills that will assist them in identifying solutions to complex compliance and security problems. This position reports directly to Central/Eastern Regional Information Assurance Manager (RIAM).\n        <br/>\n        <br/>\n        Required Skills:\n        <br/>\n        <br/>\n        * Experience in executing leadership and managerial duties in a production environment (i.e. performance development, career coaching, mentoring, training, resource management, budget management, etc.).\n        <br/>\n        <br/>\n        * Experience with national security information system related security requirements (e.g. JAFAN, DCID, JSIG, ICD 503, RMF, DIACAP or NISPOM) to include technical computer/network system auditing.\n        <br/>\n        <br/>\n        * Experience implementing the NISPOM, JAFAN 6/3, DCID 6/3, JSIG, ICD-503 or equivalent requirements to include technical computer/network system auditing.\n        <br/>\n        <br/>\n        * Experience in the oversight and execution of the Assessment &amp; Authorization processes (a.k.a. Certification &amp; Accreditation).\n        <br/>\n        <br/>\n        * Experience in the oversight and execution of a continuous monitoring/improvement program (to include but not limited to self-inspections, security control assessments, training, log management systems, automated inventory utilities, etc.).\n        <br/>\n        <br/>\n        * Experience successfully and respectfully interfacing with internal and external customers (i.e. AOs, DAOs, SCAs, Program Managers, etc.).\n        <br/>\n        <br/>\n        * Experience providing technical security expertise and oversight for complex, cross-domain, heterogeneous classified networked environments in collaboration with Customers, the Information Technology (IT) Department and other Raytheon Business Units.\n        <br/>\n        <br/>\n        * Experience in the execution and management of IS incident response and administrative inquiries/investigations in collaboration with the Investigations department.\n        <br/>\n        <br/>\n        * Experience with the identification, development, and reporting of IA program performance metrics.\n        <br/>\n        <br/>\n        * Experience with the identification, development and oversight of appropriate IA policy, processes and procedures.\n        <br/>\n        <br/>\n        * Experience leading efforts on a small to mid-size project/program.\n        <br/>\n        <br/>\n        * Experience managing risk, cost, quality and schedule performance effectively.\n        <br/>\n        <br/>\n        * Must possess a current Top Secret clearance and current SSBI.\n        <br/>\n        <br/>\n        * Ability to receive Access to Special Programs.\n        <br/>\n        <br/>\n        * Secret clearance and access.\n        <br/>\n        <br/>\n        * Must possess or be willing to obtain a DoD 8570 \xe2\x80\x93 IAM III professional certification (i.e. CISSP, CISSM, etc.) within 6 months of employment.\n        <br/>\n        <br/>\n        Desired Skills:\n        <br/>\n        <br/>\n        * Trained and proficient in Assured File Transfer (AFT) processes and tools.\n        <br/>\n        <br/>\n        * Knowledge of computer forensics tools and investigative methodologies.\n        <br/>\n        <br/>\n        * Knowledge in UNIX, Linux, Solaris, IRIX, SUSE, and MAC operating systems\n        <br/>\n        <br/>\n        * Knowledge in Microsoft Windows/Active Directory, UNIX, Linux, Solaris, and IRIX operating systems.\n        <br/>\n        <br/>\n        * Knowledge of computer forensics tools and investigative methodologies.\n        <br/>\n        <br/>\n        * Public speaking experience.\n        <br/>\n        <br/>\n        Required Education:\n        <br/>\n        <br/>\n        * BS degree in an information systems/technology related field with 8 years of directly related experience.\n        <br/>\n        <br/>\n        * MS degree in an information systems/technology related field with 6 years of directly related experience.\n        <br/>\n        <br/>\n        91208 Business Unit Profile\n        <br/>\n        <br/>\n        Go further. Outdo yourself. Set a mission and accomplish it with Raytheon. As a world-leading supplier of defense and aerospace systems, Raytheon is your partner for achieving professional success. Our Space and Airborne Systems (SAS) is a world leader in integration systems and solutions for advanced missions.\n        <br/>\n        <br/>\n        As a Raytheon employee, you will enjoy comprehensive healthcare coverage including medical, prescription drug, vision and dental care, as well as Healthcare &amp; Dependent Care Reimbursement Accounts. Your financial well-being will be supported through our saving and investment plan, stock ownership plan, and retirement benefits. Moreover, we offer flexible work arrangements and provide various other forms of employee assistance.\n        <br/>\n        <br/>\n        * Discover a place where your aspirations match your goals.\n        <br/>\n        <br/>\n        * Where talented people can make an impact.\n        <br/>\n        <br/>\n        * Where challenges are a daily occurrence and rewards always follow.\n        <br/>\n        <br/>\n        Make your next move to Raytheon!\n        <br/>\n        <br/>\n        Relocation Eligible\n        <br/>\n        <br/>\n        Yes\n        <br/>\n        <br/>\n        Clearance Type\n        <br/>\n        <br/>\n        Secret - Current\n        <br/>\n        <br/>\n        Expertise\n        <br/>\n        <br/>\n        Security\n        <br/>\n        <br/>\n        Computer/Management Information Systems\n        <br/>\n        <br/>\n        Cyber Jobs\n        <br/>\n        <br/>\n        Data Science\n        <br/>\n        <br/>\n        Distributed Systems\n        <br/>\n        <br/>\n        Data Networking\n        <br/>\n        <br/>\n        Type Of Job\n        <br/>\n        <br/>\n        Full Time\n        <br/>\n        <br/>\n        Work Location\n        <br/>\n        <br/>\n        MS - Forest\n       </div>\n       <!-- ./jobview-section -->\n       <div class="hidden-xs jobview-footer row">\n        <div class="col-sm-6">\n         <div class="action-buttons">\n          <input id="trackInfo" type="hidden" value=\'{"emailAddress":"","postingId":"a3ce3bd5-3415-4f0d-97b3-2996c1302e96","placementID":null,"jobPosition":0,"uniqueUser":null,"affiliate":"Monster","technology":null}\'/>\n          <a class="btn btn-sm btn-primary btn-jobsdotcom" data-action="apply" data-applyurl="https://jobs.raytheon.com/job/forest/information-assurance-cyber-manager/4679/3767104" data-atm-id="35" data-confurl="http://job-openings.monster.com/monster/confirmation?postingid=a3ce3bd5-3415-4f0d-97b3-2996c1302e96" data-form-selector=".email-collection" href="http://job-openings.monster.com/monster/confirmation?postingid=a3ce3bd5-3415-4f0d-97b3-2996c1302e96" rel="nofollow" role="button">\n           Apply Now\n          </a>\n          <form action="https://jobs.raytheon.com/job/forest/information-assurance-cyber-manager/4679/3767104" aria-hidden="true" class="email-collection hidden panel panel-default" data-id="a3ce3bd5-3415-4f0d-97b3-2996c1302e96" data-lrtype="B" data-placement="Left-Bottom-Body" data-position="0" data-remote-subscription="/LiteReg/ApplySubscription" data-remote-validation="/LiteReg/IsEmailValid" data-technology="" method="POST" target="_blank">\n           <div class="panel-body">\n            <div class="row-flex">\n             <div class="col-flex stretch">\n              <input class="form-control input-sm" id="EmailCollectionField2" name="litRegEmailAddress" placeholder="Please enter your email" type="email"/>\n             </div>\n            </div>\n            <label class="control-label" for="EmailCollectionField2">\n             To begin the application, please enter your email\n            </label>\n            <span class="help-block small">\n             By continuing you agree to Monster\'s\n             <a href="http://my.monster.com/Privacy/Default.aspx" target="_blank" title="Privacy Policy">\n              Privacy Policy\n             </a>\n             ,\n             <a href="http://my.monster.com/Terms/Default.aspx" target="_blank" title="Terms of Use">\n              Terms of Use\n             </a>\n             and\n             <a href="http://inside.monster.com/cookie-info/inside2.aspx" target="_blank" title="use of cookies">\n              use of cookies\n             </a>\n             .\n            </span>\n            <button class="sr-only" type="submit">\n             Continue application\n            </button>\n           </div>\n          </form>\n         </div>\n        </div>\n       </div>\n       <!-- ./jobview-footer -->\n      </article>\n      <!-- ./#jobview -->\n     </div>\n     <div class="col-xs-12 col-sm-6 col-md-4 col-lg-4">\n      <div class="jobview-affix">\n       <div style="background-color: #fff;">\n        <input id="trackInfo" type="hidden" value=\'{"emailAddress":"","postingId":"a3ce3bd5-3415-4f0d-97b3-2996c1302e96","placementID":null,"jobPosition":0,"uniqueUser":null,"affiliate":"Monster","technology":null}\'/>\n        <form action="https://jobs.raytheon.com/job/forest/information-assurance-cyber-manager/4679/3767104" aria-hidden="true" class="email-collection hidden" data-id="a3ce3bd5-3415-4f0d-97b3-2996c1302e96" data-lrtype="R" data-placement="Right-Top-Rail" data-position="0" data-remote-subscription="/LiteReg/ApplySubscription" data-remote-validation="/LiteReg/IsEmailValid" data-technology="" method="POST" target="_blank">\n         <div class="form-group">\n          <label class="control-label" for="EmailCollectionField1">\n           To begin the application, please enter your email\n          </label>\n          <input class="form-control input-sm" id="EmailCollectionField1" name="litRegEmailAddress" placeholder="Please enter your email" type="email"/>\n         </div>\n         <span class="help-block small">\n          By continuing you agree to Monster\'s\n          <a href="http://my.monster.com/Privacy/Default.aspx" target="_blank" title="Privacy Policy">\n           Privacy Policy\n          </a>\n          ,\n          <a href="http://my.monster.com/Terms/Default.aspx" target="_blank" title="Terms of Use">\n           Terms of Use\n          </a>\n          and\n          <a href="http://inside.monster.com/cookie-info/inside2.aspx" target="_blank" title="use of cookies">\n           use of cookies\n          </a>\n          .\n         </span>\n         <button class="sr-only" type="submit">\n          Continue application\n         </button>\n        </form>\n        <a class="btn btn-sm btn-primary btn-block btn-jobsdotcom" data-action="apply" data-applyurl="https://jobs.raytheon.com/job/forest/information-assurance-cyber-manager/4679/3767104" data-atm-id="36" data-confurl="http://job-openings.monster.com/monster/confirmation?postingid=a3ce3bd5-3415-4f0d-97b3-2996c1302e96" data-form-selector=".email-collection" href="http://job-openings.monster.com/monster/confirmation?postingid=a3ce3bd5-3415-4f0d-97b3-2996c1302e96" rel="nofollow" role="button">\n         Apply Now\n        </a>\n        <div class="social-sharing no-logo">\n         <h5>\n          Share this Job\n         </h5>\n         <a href="https://www.twitter.com/share?url=%20&amp;text=Information+Assurance+Cyber+Manager at Raytheon http://job-openings.monster.com/monster/a3ce3bd5-3415-4f0d-97b3-2996c1302e96 via @monster" target="_blank" title="Share this job on Twitter">\n          <i class="fa fa-2x fa-twitter" style="margin: 0 4px;">\n          </i>\n         </a>\n         <a href="https://plus.google.com/share?url=http://job-openings.monster.com/monster/a3ce3bd5-3415-4f0d-97b3-2996c1302e96" target="_blank" title="Share this job on Google+">\n          <i class="fa fa-2x fa-google-plus" style="margin: 0 4px;">\n          </i>\n         </a>\n         <a href="mailto: ?subject=Information Assurance Cyber Manager - Raytheon | Monster.com&amp;body=Raytheon http://job-openings.monster.com/monster/a3ce3bd5-3415-4f0d-97b3-2996c1302e96" title="Share this job via Email">\n          <i class="fa fa-2x fa-envelope-o" style="margin: 0 4px;">\n          </i>\n         </a>\n        </div>\n       </div>\n       <div>\n        <div class="jobview-related-jobs" id="relatedJobs">\n         <div class="related-job-container">\n          <h5>\n           Related Jobs\n          </h5>\n          <ul class="list-unstyled">\n           <li>\n            <a class="cloudJobs" data-m_impr_a_placement_id="rjv1" data-m_impr_j_cid="660" data-m_impr_j_coc="xrankincox " data-m_impr_j_jawsid="224134494" data-m_impr_j_jobid="181984341" data-m_impr_j_jpm="1" data-m_impr_j_jpt="1" data-m_impr_j_lat="0" data-m_impr_j_lid="502" data-m_impr_j_long="0" data-m_impr_j_occid="0" data-m_impr_j_p="1" data-m_impr_j_postingid="5ba7b6e2-d35f-444b-b2c3-53735a0bde84" data-m_impr_j_pvc="monster" data-m_impr_s_search_query="" data-m_impr_s_t="RE_RE_JSJ_CR" data-m_impr_uuid="c0446047-959b-497d-a502-8f5009532974" href="http://jobview.monster.com/Information-Technology-Manager-Job-Brandon-MS-US-181984341.aspx?intcid=js" onclick="jobClick(this, \'http://jobview.monster.com/Information-Technology-Manager-Job-Brandon-MS-US-181984341.aspx?intcid=js\', \'newjobsprodseekerus\', \'click on jobview from jobview\')" rel="nofollow" target="_blank" title="View This Job: Information Technology Manager">\n             Information Technology Manager\n            </a>\n            <div class="location small text-muted">\n             County of Rankin, Brandon - MS\n            </div>\n           </li>\n           <li>\n            <a class="cloudJobs" data-m_impr_a_placement_id="rjv1" data-m_impr_j_cid="1" data-m_impr_j_coc="xbontonstoresx " data-m_impr_j_jawsid="224486512" data-m_impr_j_jobid="182084428" data-m_impr_j_jpm="1" data-m_impr_j_jpt="1" data-m_impr_j_lat="0" data-m_impr_j_lid="703" data-m_impr_j_long="0" data-m_impr_j_occid="0" data-m_impr_j_p="2" data-m_impr_j_postingid="7adbfe58-70b7-450a-a926-2e5f394b71c7" data-m_impr_j_pvc="monster" data-m_impr_s_search_query="" data-m_impr_s_t="RE_RE_JSJ_CR" data-m_impr_uuid="d9fc3e03-ee8b-4160-928e-69d9bc0057c8" href="http://jobview.monster.com/Senior-IT-Auditor-Job-York-PA-US-182084428.aspx?intcid=js" onclick="jobClick(this, \'http://jobview.monster.com/Senior-IT-Auditor-Job-York-PA-US-182084428.aspx?intcid=js\', \'newjobsprodseekerus\', \'click on jobview from jobview\')" rel="nofollow" target="_blank" title="View This Job: Senior IT Auditor">\n             Senior IT Auditor\n            </a>\n            <div class="location small text-muted">\n             Bon-Ton Stores Inc., York - PA\n            </div>\n           </li>\n           <li>\n            <a class="cloudJobs" data-m_impr_a_placement_id="rjv1" data-m_impr_j_cid="660" data-m_impr_j_coc="xcannonsearch1x " data-m_impr_j_jawsid="224387467" data-m_impr_j_jobid="182064858" data-m_impr_j_jpm="1" data-m_impr_j_jpt="1" data-m_impr_j_lat="0" data-m_impr_j_lid="453" data-m_impr_j_long="0" data-m_impr_j_occid="0" data-m_impr_j_p="3" data-m_impr_j_postingid="1bc17337-b1ec-4f51-b9f2-b97d59e64753" data-m_impr_j_pvc="monster" data-m_impr_s_search_query="" data-m_impr_s_t="RE_RE_JSJ_CR" data-m_impr_uuid="7455cdb2-1703-4d0f-9dda-4076a62c4d20" href="http://jobview.monster.com/IT-Production-Support-Manager-Job-Boston-MA-US-182064858.aspx?intcid=js" onclick="jobClick(this, \'http://jobview.monster.com/IT-Production-Support-Manager-Job-Boston-MA-US-182064858.aspx?intcid=js\', \'newjobsprodseekerus\', \'click on jobview from jobview\')" rel="nofollow" target="_blank" title="View This Job: IT Production Support Manager">\n             IT Production Support Manager\n            </a>\n            <div class="location small text-muted">\n             Cannon Search Partners, Boston - MA\n            </div>\n           </li>\n           <li>\n            <a class="cloudJobs" data-m_impr_a_placement_id="rjv1" data-m_impr_j_cid="1" data-m_impr_j_coc="xincedx " data-m_impr_j_jawsid="224794731" data-m_impr_j_jobid="182131947" data-m_impr_j_jpm="1" data-m_impr_j_jpt="1" data-m_impr_j_lat="0" data-m_impr_j_lid="363" data-m_impr_j_long="0" data-m_impr_j_occid="0" data-m_impr_j_p="4" data-m_impr_j_postingid="88437edc-f392-422b-8ba5-658b4c615d6f" data-m_impr_j_pvc="monster" data-m_impr_s_search_query="" data-m_impr_s_t="RE_RE_JSJ_CR" data-m_impr_uuid="9fd870de-ead8-4e54-a47e-78ec9a36ae11" href="http://jobview.monster.com/IT-Compliance-Lead-manager-Job-Denver-CO-US-182131947.aspx?intcid=js" onclick="jobClick(this, \'http://jobview.monster.com/IT-Compliance-Lead-manager-Job-Denver-CO-US-182131947.aspx?intcid=js\', \'newjobsprodseekerus\', \'click on jobview from jobview\')" rel="nofollow" target="_blank" title="View This Job: IT Compliance Lead/manager">\n             IT Compliance Lead/manager\n            </a>\n            <div class="location small text-muted">\n             Inceed, Denver - CO\n            </div>\n           </li>\n           <li>\n            <a class="cloudJobs" data-m_impr_a_placement_id="rjv1" data-m_impr_j_cid="660" data-m_impr_j_coc="xembiox " data-m_impr_j_jawsid="224796016" data-m_impr_j_jobid="182133228" data-m_impr_j_jpm="1" data-m_impr_j_jpt="1" data-m_impr_j_lat="0" data-m_impr_j_lid="708" data-m_impr_j_long="0" data-m_impr_j_occid="0" data-m_impr_j_p="5" data-m_impr_j_postingid="0eeb12a3-b7ff-4a34-ad18-8a2e324b43f4" data-m_impr_j_pvc="monster" data-m_impr_s_search_query="" data-m_impr_s_t="RE_RE_JSJ_CR" data-m_impr_uuid="fda84110-fc67-4765-9655-47a0753137e8" href="http://jobview.monster.com/Senior-Director-Information-Security-Risk-Job-Gaithersburg-MD-US-182133228.aspx?intcid=js" onclick="jobClick(this, \'http://jobview.monster.com/Senior-Director-Information-Security-Risk-Job-Gaithersburg-MD-US-182133228.aspx?intcid=js\', \'newjobsprodseekerus\', \'click on jobview from jobview\')" rel="nofollow" target="_blank" title="View This Job: Senior Director, Information Security and Risk">\n             Senior Director, Information Security and Risk\n            </a>\n            <div class="location small text-muted">\n             EBSI, Gaithersburg - MD\n            </div>\n           </li>\n           <li>\n            <a class="cloudJobs" data-m_impr_a_placement_id="rjv1" data-m_impr_j_cid="660" data-m_impr_j_coc="xw47310196wx " data-m_impr_j_jawsid="115162" data-m_impr_j_jobid="134606548" data-m_impr_j_jpm="1" data-m_impr_j_jpt="1" data-m_impr_j_lat="0" data-m_impr_j_lid="637" data-m_impr_j_long="0" data-m_impr_j_occid="0" data-m_impr_j_p="6" data-m_impr_j_postingid="2ecae366-af24-4e40-b232-3a70e4f6a9fa" data-m_impr_j_pvc="monster" data-m_impr_s_search_query="" data-m_impr_s_t="RE_RE_JSJ_CR" data-m_impr_uuid="ed24019a-fded-4163-b012-469783272012" href="http://jobview.monster.com/Computer-IT-Manager-Job-Williamsburg-VA-US-134606548.aspx?intcid=js" onclick="jobClick(this, \'http://jobview.monster.com/Computer-IT-Manager-Job-Williamsburg-VA-US-134606548.aspx?intcid=js\', \'newjobsprodseekerus\', \'click on jobview from jobview\')" rel="nofollow" target="_blank" title="View This Job: Computer and IT Manager">\n             Computer and IT Manager\n            </a>\n            <div class="location small text-muted">\n             Kerner Group, Inc, Williamsburg - VA\n            </div>\n           </li>\n          </ul>\n          <!-- jrs-job=206601275&amp;count=6 -->\n         </div>\n        </div>\n        <div>\n         <h5>\n          More\n         </h5>\n         <a href="http://www.monster.com/jobs/search/?client=power&amp;q=IT/Software Development&amp;where=Forest , MS&amp;intcid=more_jobs_category_location" title="See all IT/Software Development jobs in Forest, MS">\n          See all IT/Software Development jobs in Forest, MS\n         </a>\n         <br/>\n         <a href="http://www.monster.com/jobs/search/?client=power&amp;q=Software/System Architecture&amp;intcid=more_jobs_occupation" title="See all Software/System Architecture jobs">\n          See all Software/System Architecture jobs\n         </a>\n         <br/>\n         <a class="aut-city-search" href="http://www.monster.com/jobs/search/?client=power&amp;where=Forest , MS&amp;intcid=more_jobs_location" title="See all jobs in Forest">\n          See all jobs in Forest\n         </a>\n        </div>\n       </div>\n       <div class="oasAdsContainer">\n        <div>\n         <!-- 1st Section Begins : Delivery via OAS JX Tag -->\n         <script type="text/javascript">\n          window.MonsterAdds = window.MonsterAdds || {};\r\n\r\n            MonsterAdds.writeScript = function (showMobile) {\r\n                //TODO add mobile test if needed, see AdBlock.cshtml\r\n                document.write("<scr" + "ipt type=\'text/javascript\' src=\'//oas.monster.com/RealMedia/ads/adstream_jx.ads/us.monster.en/aggjobview/11390177632@Right3?size=300x250&site=mons&affiliate=Monster&app=js&oas_pv=no_analytics&fb=0&moc=11969&st=MS&pci=Forest&pcy=US&proejc=660&key=IT%2fSoftware+Development&plid=502&pcid=2132&poccid=11969&mesco=1100011001001\'><\\/script>");\r\n            };\r\n\r\n            MonsterAdds.writeScript(true);\n         </script>\n         <!-- 2nd Section Begins : Delivery via OAS NX Tag for non-Javascript Browser -->\n         <noscript>\n          <a href="//oas.monster.com/RealMedia/ads/click_nx.ads/us.monster.en/aggjobview/1726592267@Right3?size=300x250&amp;site=mons&amp;affiliate=Monster&amp;app=js&amp;oas_pv=no_analytics&amp;fb=0&amp;moc=11969&amp;st=MS&amp;pci=Forest&amp;pcy=US&amp;proejc=660&amp;key=IT%2fSoftware+Development&amp;plid=502&amp;pcid=2132&amp;poccid=11969&amp;mesco=1100011001001">\n           <img src="//oas.monster.com/RealMedia/ads/click_nx.ads/us.monster.en/aggjobview/11889330465@Right3?size=300x250&amp;site=mons&amp;affiliate=Monster&amp;app=js&amp;oas_pv=no_analytics&amp;fb=0&amp;moc=11969&amp;st=MS&amp;pci=Forest&amp;pcy=US&amp;proejc=660&amp;key=IT%2fSoftware+Development&amp;plid=502&amp;pcid=2132&amp;poccid=11969&amp;mesco=1100011001001"/>\n          </a>\n         </noscript>\n        </div>\n       </div>\n      </div>\n      <div class="hidden-xs affix-fix">\n      </div>\n     </div>\n    </div>\n    <!-- ./row -->\n    <div class="modal fade" id="subscriptionModal">\n     <div class="modal-dialog">\n      <div class="modal-content">\n       <div class="modal-body">\n        <div class="email-collection promoted">\n         <div class="icon">\n         </div>\n         <h4 class="title">\n          Get new similar jobs by email for\n         </h4>\n         <p class="desc">\n          Information Assurance Cyber Manager\n         </p>\n         <form action="" aria-hidden="true" class="email-jvsub-collection" data-id="a3ce3bd5-3415-4f0d-97b3-2996c1302e96" data-remote-subscribe="/LiteReg/JobViewSubscription" data-remote-validation="/LiteReg/IsEmailValid" id="modalForm" method="POST">\n          <div class="row-flex">\n           <div class="col-flex stretch">\n            <input class="form-control input-sm" id="emailAddress" name="emailAddress" placeholder="Please enter your email" type="email"/>\n           </div>\n           <div class="col-flex">\n            <a class="btn btn-sm btn-primary btn-jobsdotcom" data-action="modal-subscription" data-form-selector=".email-jvsub-collection" href="#" rel="nofollow" role="button">\n             Email me jobs\n            </a>\n           </div>\n           <div class="col-flex">\n            <a class="btn btn-link btn-sm" href="#" id="cancelModal">\n             Skip\n            </a>\n           </div>\n          </div>\n         </form>\n        </div>\n       </div>\n       <div class="modal-footer">\n        <span class="help-block small">\n         By continuing you agree to Monster\'s\n         <a href="http://my.monster.com/Privacy/Default.aspx" target="_blank" title="Privacy Policy">\n          Privacy Policy\n         </a>\n         ,\n         <a href="http://my.monster.com/Terms/Default.aspx" target="_blank" title="Terms of Use">\n          Terms of Use\n         </a>\n         and\n         <a href="http://inside.monster.com/cookie-info/inside2.aspx" target="_blank" title="use of cookies">\n          use of cookies\n         </a>\n         .\n        </span>\n       </div>\n       <div class="help-block small alert-success" style="display: none;">\n        You will start receiving jobs like this emailed to: {emailaddress}\n       </div>\n      </div>\n      <!-- /.modal-content -->\n     </div>\n     <!-- /.modal-dialog -->\n    </div>\n    <!-- /.modal -->\n    <script id="ApplySubscriptionThankYou" type="text/template">\n     <p><b>Thank you for applying for:</b><br />Information Assurance Cyber Manager in Forest, MS 39074</p>\r\n        <p class="text-muted">To check your full apply history, <a href=https://login20.monster.com>log in</a> or <a href=http://my.monster.com/Become-Member/Create-Account>create an account.</a></p>\n    </script>\n    <script type="text/javascript">\n     var script = document.createElement("script");\r\n    script.type = "text/javascript";\r\n    script.async = true;\r\n    script.src = "//nexus.ensighten.com/monster/Bootstrap.js";\r\n    document.head.appendChild(script);\n    </script>\n   </div>\n   <footer class="page-footer">\n    <div class="container">\n     <div class="row">\n      <div class="col-md-12">\n       <!-- Copyright info -->\n       <p class="copy">\n        Copyright \xc2\xa9 2015 |\n        <a href="http://www.monster.com">\n         Monster Worldwide\n        </a>\n       </p>\n      </div>\n     </div>\n    </div>\n   </footer>\n   <script src="/js/jobviewjs?v=Qp96d4MjGz4yVpoQyg3bu08SRTYnAxoYIMyQbxHelEg1">\n   </script>\n   <!--tracking script-->\n   <script src="http://logs.jobs.com/impression_trackingv2.js" type="text/javascript">\n   </script>\n   <script type="text/javascript">\n    monster.controls.add("monster.jv.base.tracking", {"cloudApiDomain":"logs.jobs.com"});\n   </script>\n   <script type="text/javascript">\n    monster.controls.add("monster.jv.base.jobview", {});\n   </script>\n   <script type="text/javascript">\n    monster.controls.add("monster.jv.base.subscription", {});\n   </script>\n   <script type="text/javascript">\n    monster.controls.add("monster.jv.base.subscriptionModal", {});\n   </script>\n   <script type="text/javascript">\n    monster.controls.add("monster.jv.base.banner", {});\n   </script>\n   <script type="text/javascript">\n    monster.controls.add("monster.jv.base.tooltip", {});\n   </script>\n  </div>\n  <!-- Google Analytics Script Start -->\n  <script>\n   (function (i, s, o, g, r, a, m) {\r\n            i[\'GoogleAnalyticsObject\'] = r; i[r] = i[r] || function () {\r\n                (i[r].q = i[r].q || []).push(arguments)\r\n            }, i[r].l = 1 * new Date(); a = s.createElement(o),\r\n            m = s.getElementsByTagName(o)[0]; a.async = 1; a.src = g; m.parentNode.insertBefore(a, m)\r\n        })(window, document, \'script\', \'//www.google-analytics.com/analytics.js\', \'ga\');\r\n\r\n        ga(\'create\', \'UA-41898665-3\', \'jobs.com\');\r\n        ga(\'send\', \'pageview\');\n  </script>\n  <!--Google Analytics Script End -->\n  <script type="text/javascript">\n   monster.eventBus.pub(monster.Events.PAGE_LOAD);\n  </script>\n  <!-- Site Catalyst Start -->\n  <script src="http://media.newjobs.com/js/global/at_1.5.js" type="text/javascript">\n  </script>\n  <script type="text/javascript">\n   var DYNAMIC_S_ACCOUNT = \'newjobsProdseekerUS\';\r\n    var DYNAMIC_S_CURRENCYCODE = \'USD\';\r\n    //<![CDATA[\r\n    var amc = amc || {}; if (!amc.on) { amc.on = amc.call = function () { }; };\r\n    document.write("<scr" + "ipt type=\'text/javascript\' src=\'//media.monster.com/js/sc/sitecatalystLL.js\'></sc" + "ript>");\r\n    //]]>\r\n\r\n    _m.ATM.properties = {"channel":"58","eVar1":"D=g","prop1":"D=g","eVar4":"0","eVar2":"unrecognized","prop22":"N/A-Cloud","prop23":"N/A-Cloud","prop24":"1/1/0001","prop25":"N/A-Cloud","prop26":"N/A-Cloud","eVar25":"a3ce3bd5-3415-4f0d-97b3-2996c1302e96_Information Assurance Cyber Manager","eVar26":"959d6653_Raytheon","eVar27":"N/A-Cloud","eVar28":"IT/Software Development","eVar29":"N/A-Cloud","eVar30":"Software/System Architecture","eVar31":"Forest_MS_US","eVar32":"N/A-Cloud","eVar33":"N/A-Cloud","eVar35":"Raytheon","eVar36":"App_Cstm","eVar37":"N/A-Cloud","eVar38":"R/L-Apply","eVar47":"2","eVar50":"Aggregated","eVar53":"1100011001001","eVar64":"25782","eVar66":"Monster","events.event3":"1","events.event30":"true","events.event42":"1","eVar61":"Group C JS - newconfirmation.aspx"};\r\n    _m.ATM.pageName = \'desktop|mons|jobs30|jobview\';\r\n    _m.ATM.appConfig = {version:\'0\',appID:\'jobviewcloud\',channelID:\'58\',countryID:\'164\'};\r\n    _m.ATM.runOnLoad=true;\r\n\r\n    $(document).ready(_m.ATM.initFromOnReady);\n  </script>\n  <!-- Site Catalyst End -->\n </body>\n</html>'
p7
tp8
a.