(lp1
(S'http://job-openings.monster.com/monster/744d2ecd-d999-4798-bbb5-c8abe589bd74'
S'<!DOCTYPE html>\n<!--[if lt IE 7]>      <html class="no-js lt-ie9 lt-ie8 lt-ie7"> <![endif]-->\n<!--[if IE 7]>         <html class="no-js lt-ie9 lt-ie8"> <![endif]-->\n<!--[if IE 8]>         <html class="no-js lt-ie9"> <![endif]-->\n<!--[if gt IE 8]><!-->\n<html class="no-js">\n <!--<![endif]-->\n <head>\n  <title>\n   Sales Development Opportunities - Fair, Isaac and Company | Jobs.com\n  </title>\n  <meta charset="utf-8"/>\n  <meta content="IE=edge,chrome=1" http-equiv="X-UA-Compatible"/>\n  <meta content="text/html; charset=utf-8" http-equiv="Content-Type"/>\n  <meta content="width=device-width, initial-scale=1.0" name="viewport"/>\n  <meta content="Fair, Isaac and Company - Bozeman, MT." name="description"/>\n  <link href="http://plus.monster.com/+monster" rel="publisher"/>\n  <link href="https://maxcdn.bootstrapcdn.com/bootstrap/3.2.0/css/bootstrap.min.css" rel="stylesheet"/>\n  <link href="https://maxcdn.bootstrapcdn.com/font-awesome/4.2.0/css/font-awesome.min.css" rel="stylesheet"/>\n  <link href="/bundles/monster?v=3VUpvWSKWfcSTe2LCMpXVIfzIyGEJcLvPJMZUFZH8gg1" rel="stylesheet"/>\n  <!-- Favicon -->\n  <link href="http://media.newjobs.com/niche/img/favicon/favicon.ico" rel="shortcut icon"/>\n  <meta content="noindex, nofollow" name="robots"/>\n  <meta content="Monster" name="m_impr.a_affiliate_id"/>\n  <meta content="jobview" name="_ac.page_name"/>\n  <!-- Le HTML5 shim, for IE6-8 support of HTML5 elements -->\n  <!--[if lt IE 9]>\r\n    <script src="/scripts/third_party/html5shiv.js"></script>\r\n    <script src="/scripts/bootstrap/respond.min.js" type="text/javascript"></script>\r\n\r\n    <script type="text/javascript">\r\n        if (!Array.prototype.forEach) {\r\n            Array.prototype.forEach = function (fun /*, thisArg */) {\r\n                "use strict";\r\n                if (this === void 0 || this === null || typeof fun !== "function") throw new TypeError();\r\n\r\n                var\r\n                    t = Object(this),\r\n                    len = t.length >>> 0,\r\n                    thisArg = arguments.length >= 2 ? arguments[1] : void 0;\r\n\r\n                for (var i = 0; i < len; i++)\r\n                    if (i in t)\r\n                        fun.call(thisArg, t[i], i, t);\r\n            };\r\n        }\r\n    </script>\r\n<![endif]-->\n </head>\n <body>\n  <div class="page">\n   <div class="navbar navbar-default navbar-fixed-top">\n    <div class="container">\n     <!--<div class="container">-->\n     <div class="navbar-header" itemscope="" itemtype="http://schema.org/Organization">\n      <a class="navbar-brand" href="http://www.monster.com" itemprop="url">\n       <img alt="monster.com" itemprop="logo" src="/Areas/JobViewCloud/content/images/monster-new.png" title="monster.com"/>\n      </a>\n     </div>\n     <!-- large screen navbar-collapse location -->\n     <div class="navbar-collapse collapse hidden-xs">\n     </div>\n     <!--/.navbar-collapse -->\n    </div>\n    <!-- ./container -->\n   </div>\n   <!-- ./navbar -->\n   <div class="jobview container">\n    <div class="row">\n     <input id="normalized-company-id" type="hidden" value="11380"/>\n     <div class="col-xs-12 col-sm-6 col-md-8 col-lg-8">\n      <article id="jobview">\n       <header class="jobview-header">\n        <h3>\n         Sales Development Opportunities\n        </h3>\n        <h4 class="company">\n         Fair, Isaac and Company\n         <small class="location">\n          -\n          <i class="fa fa-map-marker">\n          </i>\n          Bozeman, MT\n         </small>\n        </h4>\n        <span class="postedDate">\n         <strong>\n          Posted:\n         </strong>\n         3/3/2017\n        </span>\n       </header>\n       <!-- ./jobview-header -->\n       <div class="jobview-upper-apply-mobile visible-xs row">\n        <div class="col-sm-6">\n         <div class="action-buttons">\n          <input id="trackInfo" type="hidden" value=\'{"emailAddress":"","postingId":"744d2ecd-d999-4798-bbb5-c8abe589bd74","placementID":null,"jobPosition":0,"uniqueUser":null,"affiliate":"Monster","technology":null}\'/>\n          <a class="btn btn-sm btn-primary btn-jobsdotcom" data-action="apply" data-applyurl="https://fico.wd1.myworkdayjobs.com/External/job/US-BozemanMT/Sales-Development-Consultant_16777" data-atm-id="35" data-confurl="http://job-openings.monster.com/monster/confirmation?postingid=744d2ecd-d999-4798-bbb5-c8abe589bd74" data-form-selector=".email-collection" href="http://job-openings.monster.com/monster/confirmation?postingid=744d2ecd-d999-4798-bbb5-c8abe589bd74" rel="nofollow" role="button">\n           Apply Now\n          </a>\n          <form action="https://fico.wd1.myworkdayjobs.com/External/job/US-BozemanMT/Sales-Development-Consultant_16777" aria-hidden="true" class="email-collection hidden panel panel-default" data-id="744d2ecd-d999-4798-bbb5-c8abe589bd74" data-lrtype="B" data-placement="Left-Bottom-Body" data-position="0" data-remote-subscription="/LiteReg/ApplySubscription" data-remote-validation="/LiteReg/IsEmailValid" data-technology="" method="POST" target="_blank">\n           <div class="panel-body">\n            <div class="row-flex">\n             <div class="col-flex stretch">\n              <input class="form-control input-sm" id="EmailCollectionField2" name="litRegEmailAddress" placeholder="Please enter your email" type="email"/>\n             </div>\n            </div>\n            <label class="control-label" for="EmailCollectionField2">\n             To begin the application, please enter your email\n            </label>\n            <span class="help-block small">\n             By continuing you agree to Monster\'s\n             <a href="http://my.monster.com/Privacy/Default.aspx" target="_blank" title="Privacy Policy">\n              Privacy Policy\n             </a>\n             ,\n             <a href="http://my.monster.com/Terms/Default.aspx" target="_blank" title="Terms of Use">\n              Terms of Use\n             </a>\n             and\n             <a href="http://inside.monster.com/cookie-info/inside2.aspx" target="_blank" title="use of cookies">\n              use of cookies\n             </a>\n             .\n            </span>\n            <button class="sr-only" type="submit">\n             Continue application\n            </button>\n           </div>\n          </form>\n         </div>\n        </div>\n       </div>\n       <div class="jobview-section">\n        <div>\n         <div style="display:%20none;">\n         </div>\n         <div>\n          <p style="text-align:left">\n           <b>\n            FICO (NYSE: FICO)\n           </b>\n           is a leading global analytics software company, helping businesses in 90+ countries make better decisions. Join our world-class team today and fulfill your career potential!\n          </p>\n          <p style="text-align:left">\n           <b>\n            Job Summary\n           </b>\n          </p>\n          <p style="text-align:inherit">\n          </p>\n          <p style="text-align:inherit">\n          </p>\n          <p style="text-align:left">\n           <b>\n            Job Description\n           </b>\n          </p>\n          <p style="text-align:left">\n           As a member of the Sales Development team, you\xe2\x80\x99ll leverage insights provided by the larger field marketing organization to contact prospective clients for a specific FICO solution or group of related solutions across an identified territory.\xc2\xa0 Specific responsibilities include:\n          </p>\n          <p style="text-align:inherit">\n          </p>\n          <ul>\n           <li>\n            Engaging in outbound calling to prospective clients to establish relationships, explore the prospect\xe2\x80\x99s technology needs and brief the customer on FICO\xe2\x80\x99s solution capabilities.\n           </li>\n           <li>\n            Collaborating with assigned Pre-Sales and Solution Sales experts to further develop and close identified sales opportunities.\n           </li>\n           <li>\n            Utilizing Salesforce tool to ensure best practice BANT processes are followed during client conversations leading to effective lead tracking.\n           </li>\n           <li>\n            Leveraging digital and inside sales prospecting tools to increase connect rates, timely and relevant messaging and enhance your overall sales network.\n           </li>\n          </ul>\n          <p style="text-align:inherit">\n          </p>\n          <p style="text-align:inherit">\n          </p>\n          <h4>\n           Requirements\n          </h4>\n          <ul>\n           <li>\n            1-2 years of experience selling technology solutions with experience doing so within the banking and insurance industries a plus.\n           </li>\n           <li>\n            Demonstrated success in high volume customer prospecting activities to establish and build effective relationships.\n           </li>\n           <li>\n            Proven ability to quickly learn complex business and technical environments in order to uncover client objectives, internal issues and solution sale opportunities.\n           </li>\n           <li>\n            Experience using Salesforce and/or other technology tools to drive and manage prospecting activities a plus.\n           </li>\n           <li>\n            Excellent verbal and written communications skills.\n           </li>\n           <li>\n            Self-motivated with strong collaboration and teamwork skills aimed at achieving both individual and shared goals.\n           </li>\n           <li>\n            Bachelor\xe2\x80\x99s degree required, preferably in a business, software engineering, data science or a related technical field of study.\n           </li>\n          </ul>\n          <p style="text-align:inherit">\n          </p>\n          <h4>\n           Our Rewards Structure\n          </h4>\n          <ul>\n           <li>\n            Competitive base salary\n           </li>\n           <li>\n            Compensation Mix: 70-80% Base Salary; 20-30% Targeted Incentive\n           </li>\n           <li>\n            Incentive Drivers:\xc2\xa0 Sales Accepted Leads (SALs), MBOs\n           </li>\n           <li>\n            Development-focused culture supporting career advancement opportunities\n           </li>\n           <li>\n            Comprehensive health and welfare benefits program\n           </li>\n           <li>\n            401(k) with 5% net match, immediate vesting\n           </li>\n           <li>\n            Flexible work environment with competitive paid-time-off policies\n           </li>\n          </ul>\n          <p style="text-align:inherit">\n          </p>\n          <p style="text-align:inherit">\n          </p>\n          <p style="text-align:inherit">\n          </p>\n          <p style="text-align:left">\n           <b>\n            Why Make a Move to FICO?\n           </b>\n          </p>\n          <p style="text-align:left">\n           At FICO, you can advance your career with a leading organization in one of the fastest-growing fields in technology today \xe2\x80\x93 Big Data analytics.\xc2\xa0\xc2\xa0 We have a 50+ year history of excellence in providing analytics and decision management solutions.\xc2\xa0 Here are a few examples of our impact globally:\n          </p>\n          <ul>\n           <li>\n            Credit Scoring \xe2\x80\x94150+ billion FICO Scores have been sold to date, making it the most used credit score in the world.\n           </li>\n           <li>\n            Fraud Detection and Security\xe2\x80\x942.5+ billion credit cards globally are protected by FICO fraud systems.\n           </li>\n           <li>\n            Lending \xe2\x80\x943/4 of US mortgages are approved using the FICO Score.\n           </li>\n          </ul>\n          <p style="text-align:inherit">\n          </p>\n          <p style="text-align:left">\n           FICO\xe2\x80\x99s proven science leverages the latest technology to drive consumer behavior insights and optimize business processes. We help many of the world\xe2\x80\x99s leading banks, insurers, retailers, telecommunications providers and other firms reach a new level of success.\n          </p>\n          <p style="text-align:inherit">\n          </p>\n          <p style="text-align:left">\n           Our success is founded on really talented people \xe2\x80\x93 just like\n           <b>\n            you\n           </b>\n           \xe2\x80\x93 who enjoy innovative and high-performance environments with the opportunity to grow.\xc2\xa0 Join the FICO Family and help change the way business makes decisions!\n          </p>\n          <p style="text-align:inherit">\n          </p>\n          <p style="text-align:left">\n           Learn more about how you can Fulfill your Potential at www.fico.com/Careers\n          </p>\n          <p style="text-align:inherit">\n          </p>\n          <p style="text-align:left">\n           FICO is an Equal Employment Opportunity Employer that values the strength that diversity brings to the workplace.\n          </p>\n         </div>\n        </div>\n       </div>\n       <!-- ./jobview-section -->\n       <div class="hidden-xs jobview-footer row">\n        <div class="col-sm-6">\n         <div class="action-buttons">\n          <input id="trackInfo" type="hidden" value=\'{"emailAddress":"","postingId":"744d2ecd-d999-4798-bbb5-c8abe589bd74","placementID":null,"jobPosition":0,"uniqueUser":null,"affiliate":"Monster","technology":null}\'/>\n          <a class="btn btn-sm btn-primary btn-jobsdotcom" data-action="apply" data-applyurl="https://fico.wd1.myworkdayjobs.com/External/job/US-BozemanMT/Sales-Development-Consultant_16777" data-atm-id="35" data-confurl="http://job-openings.monster.com/monster/confirmation?postingid=744d2ecd-d999-4798-bbb5-c8abe589bd74" data-form-selector=".email-collection" href="http://job-openings.monster.com/monster/confirmation?postingid=744d2ecd-d999-4798-bbb5-c8abe589bd74" rel="nofollow" role="button">\n           Apply Now\n          </a>\n          <form action="https://fico.wd1.myworkdayjobs.com/External/job/US-BozemanMT/Sales-Development-Consultant_16777" aria-hidden="true" class="email-collection hidden panel panel-default" data-id="744d2ecd-d999-4798-bbb5-c8abe589bd74" data-lrtype="B" data-placement="Left-Bottom-Body" data-position="0" data-remote-subscription="/LiteReg/ApplySubscription" data-remote-validation="/LiteReg/IsEmailValid" data-technology="" method="POST" target="_blank">\n           <div class="panel-body">\n            <div class="row-flex">\n             <div class="col-flex stretch">\n              <input class="form-control input-sm" id="EmailCollectionField2" name="litRegEmailAddress" placeholder="Please enter your email" type="email"/>\n             </div>\n            </div>\n            <label class="control-label" for="EmailCollectionField2">\n             To begin the application, please enter your email\n            </label>\n            <span class="help-block small">\n             By continuing you agree to Monster\'s\n             <a href="http://my.monster.com/Privacy/Default.aspx" target="_blank" title="Privacy Policy">\n              Privacy Policy\n             </a>\n             ,\n             <a href="http://my.monster.com/Terms/Default.aspx" target="_blank" title="Terms of Use">\n              Terms of Use\n             </a>\n             and\n             <a href="http://inside.monster.com/cookie-info/inside2.aspx" target="_blank" title="use of cookies">\n              use of cookies\n             </a>\n             .\n            </span>\n            <button class="sr-only" type="submit">\n             Continue application\n            </button>\n           </div>\n          </form>\n         </div>\n        </div>\n       </div>\n       <!-- ./jobview-footer -->\n      </article>\n      <!-- ./#jobview -->\n     </div>\n     <div class="col-xs-12 col-sm-6 col-md-4 col-lg-4">\n      <div class="jobview-affix">\n       <div style="background-color: #fff;">\n        <input id="trackInfo" type="hidden" value=\'{"emailAddress":"","postingId":"744d2ecd-d999-4798-bbb5-c8abe589bd74","placementID":null,"jobPosition":0,"uniqueUser":null,"affiliate":"Monster","technology":null}\'/>\n        <form action="https://fico.wd1.myworkdayjobs.com/External/job/US-BozemanMT/Sales-Development-Consultant_16777" aria-hidden="true" class="email-collection hidden" data-id="744d2ecd-d999-4798-bbb5-c8abe589bd74" data-lrtype="R" data-placement="Right-Top-Rail" data-position="0" data-remote-subscription="/LiteReg/ApplySubscription" data-remote-validation="/LiteReg/IsEmailValid" data-technology="" method="POST" target="_blank">\n         <div class="form-group">\n          <label class="control-label" for="EmailCollectionField1">\n           To begin the application, please enter your email\n          </label>\n          <input class="form-control input-sm" id="EmailCollectionField1" name="litRegEmailAddress" placeholder="Please enter your email" type="email"/>\n         </div>\n         <span class="help-block small">\n          By continuing you agree to Monster\'s\n          <a href="http://my.monster.com/Privacy/Default.aspx" target="_blank" title="Privacy Policy">\n           Privacy Policy\n          </a>\n          ,\n          <a href="http://my.monster.com/Terms/Default.aspx" target="_blank" title="Terms of Use">\n           Terms of Use\n          </a>\n          and\n          <a href="http://inside.monster.com/cookie-info/inside2.aspx" target="_blank" title="use of cookies">\n           use of cookies\n          </a>\n          .\n         </span>\n         <button class="sr-only" type="submit">\n          Continue application\n         </button>\n        </form>\n        <a class="btn btn-sm btn-primary btn-block btn-jobsdotcom" data-action="apply" data-applyurl="https://fico.wd1.myworkdayjobs.com/External/job/US-BozemanMT/Sales-Development-Consultant_16777" data-atm-id="36" data-confurl="http://job-openings.monster.com/monster/confirmation?postingid=744d2ecd-d999-4798-bbb5-c8abe589bd74" data-form-selector=".email-collection" href="http://job-openings.monster.com/monster/confirmation?postingid=744d2ecd-d999-4798-bbb5-c8abe589bd74" rel="nofollow" role="button">\n         Apply Now\n        </a>\n        <div class="social-sharing no-logo">\n         <h5>\n          Share this Job\n         </h5>\n         <a href="https://www.twitter.com/share?url=%20&amp;text=Sales+Development+Opportunities at Fair%2c+Isaac+and+Company http://job-openings.monster.com/monster/744d2ecd-d999-4798-bbb5-c8abe589bd74 via @monster" target="_blank" title="Share this job on Twitter">\n          <i class="fa fa-2x fa-twitter" style="margin: 0 4px;">\n          </i>\n         </a>\n         <a href="https://plus.google.com/share?url=http://job-openings.monster.com/monster/744d2ecd-d999-4798-bbb5-c8abe589bd74" target="_blank" title="Share this job on Google+">\n          <i class="fa fa-2x fa-google-plus" style="margin: 0 4px;">\n          </i>\n         </a>\n         <a href="mailto: ?subject=Sales Development Opportunities - Fair, Isaac and Company | Monster.com&amp;body=Fair, Isaac and Company http://job-openings.monster.com/monster/744d2ecd-d999-4798-bbb5-c8abe589bd74" title="Share this job via Email">\n          <i class="fa fa-2x fa-envelope-o" style="margin: 0 4px;">\n          </i>\n         </a>\n        </div>\n       </div>\n       <div>\n        <div class="jobview-related-jobs" id="relatedJobs">\n         <div class="related-job-container">\n          <h5>\n           Related Jobs\n          </h5>\n          <ul class="list-unstyled">\n           <li>\n            <a class="cloudJobs" data-m_impr_a_placement_id="rjv1" data-m_impr_j_cid="0" data-m_impr_j_coc="" data-m_impr_j_jawsid="216274054" data-m_impr_j_jobid="" data-m_impr_j_jpm="1" data-m_impr_j_jpt="2" data-m_impr_j_lat="45" data-m_impr_j_lid="699" data-m_impr_j_long="-111" data-m_impr_j_occid="0" data-m_impr_j_p="1" data-m_impr_j_postingid="e350091a-a98f-4b07-b04f-6419f39febce" data-m_impr_j_pvc="tmpenterpriserentacar" data-m_impr_s_search_query="" data-m_impr_s_t="RE_RE_JSJ" data-m_impr_uuid="65cd8f03-5214-4cff-a6c6-ebff8cbf811f" href="http://job-openings.monster.com/monster/e350091a-a98f-4b07-b04f-6419f39febce?intcid=js" onclick="jobClick(this, \'http://job-openings.monster.com/monster/e350091a-a98f-4b07-b04f-6419f39febce?intcid=js\', \'newjobsprodseekerus\', \'click on jobview from jobview\')" rel="nofollow" target="_blank" title="View This Job: Sales Management Trainee">\n             Sales Management Trainee\n            </a>\n            <div class="location small text-muted">\n             Enterprise Rent-A-Car, Bozeman - MT\n            </div>\n           </li>\n           <li>\n            <a class="cloudJobs" data-m_impr_a_placement_id="rjv1" data-m_impr_j_cid="0" data-m_impr_j_coc="xnwmcorpbucket2x" data-m_impr_j_jawsid="221521139" data-m_impr_j_jobid="181621649" data-m_impr_j_jpm="1" data-m_impr_j_jpt="1" data-m_impr_j_lat="45" data-m_impr_j_lid="699" data-m_impr_j_long="-111" data-m_impr_j_occid="0" data-m_impr_j_p="2" data-m_impr_j_postingid="504c71ef-da13-4f5f-b154-11e8e019d6b6" data-m_impr_j_pvc="monster" data-m_impr_s_search_query="" data-m_impr_s_t="RE_RE_JSJ" data-m_impr_uuid="7a719e45-d1e9-4996-b6d4-db928793d525" href="http://jobview.monster.com/Financial-Representative-\xe2\x80\x93-Sales-Job-Bozeman-MT-US-181621649.aspx?intcid=js" onclick="jobClick(this, \'http://jobview.monster.com/Financial-Representative-\xe2\x80\x93-Sales-Job-Bozeman-MT-US-181621649.aspx?intcid=js\', \'newjobsprodseekerus\', \'click on jobview from jobview\')" rel="nofollow" target="_blank" title="View This Job: Financial Representative \xe2\x80\x93 Sales">\n             Financial Representative \xe2\x80\x93 Sales\n            </a>\n            <div class="location small text-muted">\n             Northwestern Mutual, Bozeman - MT\n            </div>\n           </li>\n           <li>\n            <a class="cloudJobs" data-m_impr_a_placement_id="rjv1" data-m_impr_j_cid="0" data-m_impr_j_coc="xw269344290wx" data-m_impr_j_jawsid="230439562" data-m_impr_j_jobid="183047567" data-m_impr_j_jpm="1" data-m_impr_j_jpt="1" data-m_impr_j_lat="45" data-m_impr_j_lid="699" data-m_impr_j_long="-111" data-m_impr_j_occid="0" data-m_impr_j_p="3" data-m_impr_j_postingid="5f179b6f-1e0b-4136-82fb-fcffb805766e" data-m_impr_j_pvc="monster" data-m_impr_s_search_query="" data-m_impr_s_t="RE_RE_JSJ" data-m_impr_uuid="cbd27147-7d1b-4293-9ccf-8e8d1c0d6ed0" href="http://jobview.monster.com/Retail-Store-Manager-Job-Bozeman-MT-US-183047567.aspx?intcid=js" onclick="jobClick(this, \'http://jobview.monster.com/Retail-Store-Manager-Job-Bozeman-MT-US-183047567.aspx?intcid=js\', \'newjobsprodseekerus\', \'click on jobview from jobview\')" rel="nofollow" target="_blank" title="View This Job: Retail Store Manager">\n             Retail Store Manager\n            </a>\n            <div class="location small text-muted">\n             Simply Mac, Bozeman - MT\n            </div>\n           </li>\n           <li>\n            <a class="cloudJobs" data-m_impr_a_placement_id="rjv1" data-m_impr_j_cid="0" data-m_impr_j_coc="xrockymtn_bankx" data-m_impr_j_jawsid="229716867" data-m_impr_j_jobid="182944067" data-m_impr_j_jpm="1" data-m_impr_j_jpt="1" data-m_impr_j_lat="45" data-m_impr_j_lid="699" data-m_impr_j_long="-111" data-m_impr_j_occid="0" data-m_impr_j_p="4" data-m_impr_j_postingid="e647776d-c5c2-4e9e-a81e-795ed333abb9" data-m_impr_j_pvc="monster" data-m_impr_s_search_query="" data-m_impr_s_t="RE_RE_JSJ" data-m_impr_uuid="cfaeabb5-f5af-423d-b16d-64e53ae25a92" href="http://jobview.monster.com/Senior-Personal-Banker-Job-Bozeman-MT-US-182944067.aspx?intcid=js" onclick="jobClick(this, \'http://jobview.monster.com/Senior-Personal-Banker-Job-Bozeman-MT-US-182944067.aspx?intcid=js\', \'newjobsprodseekerus\', \'click on jobview from jobview\')" rel="nofollow" target="_blank" title="View This Job: Senior Personal Banker">\n             Senior Personal Banker\n            </a>\n            <div class="location small text-muted">\n             Rocky Mountain Bank, Bozeman - MT\n            </div>\n           </li>\n           <li>\n            <a class="cloudJobs" data-m_impr_a_placement_id="rjv1" data-m_impr_j_cid="0" data-m_impr_j_coc="xhqglobalx" data-m_impr_j_jawsid="226889896" data-m_impr_j_jobid="182412883" data-m_impr_j_jpm="1" data-m_impr_j_jpt="1" data-m_impr_j_lat="45" data-m_impr_j_lid="699" data-m_impr_j_long="-110" data-m_impr_j_occid="0" data-m_impr_j_p="5" data-m_impr_j_postingid="ddee6d8e-49ec-4d97-848f-cc3d79f55900" data-m_impr_j_pvc="monster" data-m_impr_s_search_query="" data-m_impr_s_t="RE_RE_JSJ" data-m_impr_uuid="0aea78b4-b16b-4194-ad99-24cd2d1c37d0" href="http://jobview.monster.com/Community-Manager-Job-Bozeman-MT-US-182412883.aspx?intcid=js" onclick="jobClick(this, \'http://jobview.monster.com/Community-Manager-Job-Bozeman-MT-US-182412883.aspx?intcid=js\', \'newjobsprodseekerus\', \'click on jobview from jobview\')" rel="nofollow" target="_blank" title="View This Job: Community Manager">\n             Community Manager\n            </a>\n            <div class="location small text-muted">\n             Regus, Bozeman - MT\n            </div>\n           </li>\n           <li>\n            <a class="cloudJobs" data-m_impr_a_placement_id="rjv1" data-m_impr_j_cid="0" data-m_impr_j_coc="xElm2016x" data-m_impr_j_jawsid="226046684" data-m_impr_j_jobid="182279374" data-m_impr_j_jpm="1" data-m_impr_j_jpt="1" data-m_impr_j_lat="45" data-m_impr_j_lid="699" data-m_impr_j_long="-111" data-m_impr_j_occid="0" data-m_impr_j_p="6" data-m_impr_j_postingid="be04f5a0-7e66-4396-8b53-3deba62884d1" data-m_impr_j_pvc="monster" data-m_impr_s_search_query="" data-m_impr_s_t="RE_RE_JSJ" data-m_impr_uuid="b6b532e5-24e4-49d9-8428-90660d4d5f91" href="http://jobview.monster.com/Damage-Prevention-Liaison-Job-Bozeman-MT-US-182279374.aspx?intcid=js" onclick="jobClick(this, \'http://jobview.monster.com/Damage-Prevention-Liaison-Job-Bozeman-MT-US-182279374.aspx?intcid=js\', \'newjobsprodseekerus\', \'click on jobview from jobview\')" rel="nofollow" target="_blank" title="View This Job: Damage Prevention Liaison">\n             Damage Prevention Liaison\n            </a>\n            <div class="location small text-muted">\n             ELM Locating &amp; Utility Services, Bozeman - MT\n            </div>\n           </li>\n           <li>\n            <a class="cloudJobs" data-m_impr_a_placement_id="rjv1" data-m_impr_j_cid="0" data-m_impr_j_coc="" data-m_impr_j_jawsid="230122639" data-m_impr_j_jobid="" data-m_impr_j_jpm="1" data-m_impr_j_jpt="2" data-m_impr_j_lat="45" data-m_impr_j_lid="699" data-m_impr_j_long="-110" data-m_impr_j_occid="0" data-m_impr_j_p="7" data-m_impr_j_postingid="2f2d0166-48d2-4ef9-be18-95e774971182" data-m_impr_j_pvc="beyondftpin" data-m_impr_s_search_query="" data-m_impr_s_t="RE_RE_JSJ" data-m_impr_uuid="67778544-2e99-42be-af61-2d620895382e" href="http://job-openings.monster.com/monster/2f2d0166-48d2-4ef9-be18-95e774971182?intcid=js" onclick="jobClick(this, \'http://job-openings.monster.com/monster/2f2d0166-48d2-4ef9-be18-95e774971182?intcid=js\', \'newjobsprodseekerus\', \'click on jobview from jobview\')" rel="nofollow" target="_blank" title="View This Job: Apple Premier Retailer - Store Manager -  Bozeman">\n             Apple Premier Retailer - Store Manager -  Bozeman\n            </a>\n            <div class="location small text-muted">\n             Simply Mac, Bozeman - MT\n            </div>\n           </li>\n          </ul>\n          <!-- jrs-job=184158558&amp;count=6 -->\n         </div>\n        </div>\n        <div>\n         <h5>\n          More\n         </h5>\n         <a href="http://www.monster.com/jobs/search/?client=power&amp;q=IT/Software Development&amp;where=Bozeman , MT&amp;intcid=more_jobs_category_location" title="See all IT/Software Development jobs in Bozeman, MT">\n          See all IT/Software Development jobs in Bozeman, MT\n         </a>\n         <br/>\n         <a href="http://www.monster.com/jobs/search/?client=power&amp;q=IT Project Management&amp;intcid=more_jobs_occupation" title="See all IT Project Management jobs">\n          See all IT Project Management jobs\n         </a>\n         <br/>\n         <a class="aut-city-search" href="http://www.monster.com/jobs/search/?client=power&amp;where=Bozeman , MT&amp;intcid=more_jobs_location" title="See all jobs in Bozeman">\n          See all jobs in Bozeman\n         </a>\n        </div>\n       </div>\n       <div class="oasAdsContainer">\n        <div>\n         <!-- 1st Section Begins : Delivery via OAS JX Tag -->\n         <script type="text/javascript">\n          window.MonsterAdds = window.MonsterAdds || {};\r\n\r\n            MonsterAdds.writeScript = function (showMobile) {\r\n                //TODO add mobile test if needed, see AdBlock.cshtml\r\n                document.write("<scr" + "ipt type=\'text/javascript\' src=\'//oas.monster.com/RealMedia/ads/adstream_jx.ads/us.monster.en/aggjobview/114447501@Right3?size=300x250&site=mons&affiliate=Monster&app=js&oas_pv=no_analytics&fb=0&moc=11848&st=MT&pci=Bozeman&pcy=US&proejc=660&key=IT%2fSoftware+Development&plid=699&pcid=1136&poccid=11848&mesco=4100683001001\'><\\/script>");\r\n            };\r\n\r\n            MonsterAdds.writeScript(true);\n         </script>\n         <!-- 2nd Section Begins : Delivery via OAS NX Tag for non-Javascript Browser -->\n         <noscript>\n          <a href="//oas.monster.com/RealMedia/ads/click_nx.ads/us.monster.en/aggjobview/1108102625@Right3?size=300x250&amp;site=mons&amp;affiliate=Monster&amp;app=js&amp;oas_pv=no_analytics&amp;fb=0&amp;moc=11848&amp;st=MT&amp;pci=Bozeman&amp;pcy=US&amp;proejc=660&amp;key=IT%2fSoftware+Development&amp;plid=699&amp;pcid=1136&amp;poccid=11848&amp;mesco=4100683001001">\n           <img src="//oas.monster.com/RealMedia/ads/click_nx.ads/us.monster.en/aggjobview/112527519@Right3?size=300x250&amp;site=mons&amp;affiliate=Monster&amp;app=js&amp;oas_pv=no_analytics&amp;fb=0&amp;moc=11848&amp;st=MT&amp;pci=Bozeman&amp;pcy=US&amp;proejc=660&amp;key=IT%2fSoftware+Development&amp;plid=699&amp;pcid=1136&amp;poccid=11848&amp;mesco=4100683001001"/>\n          </a>\n         </noscript>\n        </div>\n       </div>\n      </div>\n      <div class="hidden-xs affix-fix">\n      </div>\n     </div>\n    </div>\n    <!-- ./row -->\n    <div class="modal fade" id="subscriptionModal">\n     <div class="modal-dialog">\n      <div class="modal-content">\n       <div class="modal-body">\n        <div class="email-collection promoted">\n         <div class="icon">\n         </div>\n         <h4 class="title">\n          Get new similar jobs by email for\n         </h4>\n         <p class="desc">\n          Sales Development Opportunities\n         </p>\n         <form action="" aria-hidden="true" class="email-jvsub-collection" data-id="744d2ecd-d999-4798-bbb5-c8abe589bd74" data-remote-subscribe="/LiteReg/JobViewSubscription" data-remote-validation="/LiteReg/IsEmailValid" id="modalForm" method="POST">\n          <div class="row-flex">\n           <div class="col-flex stretch">\n            <input class="form-control input-sm" id="emailAddress" name="emailAddress" placeholder="Please enter your email" type="email"/>\n           </div>\n           <div class="col-flex">\n            <a class="btn btn-sm btn-primary btn-jobsdotcom" data-action="modal-subscription" data-form-selector=".email-jvsub-collection" href="#" rel="nofollow" role="button">\n             Email me jobs\n            </a>\n           </div>\n           <div class="col-flex">\n            <a class="btn btn-link btn-sm" href="#" id="cancelModal">\n             Skip\n            </a>\n           </div>\n          </div>\n         </form>\n        </div>\n       </div>\n       <div class="modal-footer">\n        <span class="help-block small">\n         By continuing you agree to Monster\'s\n         <a href="http://my.monster.com/Privacy/Default.aspx" target="_blank" title="Privacy Policy">\n          Privacy Policy\n         </a>\n         ,\n         <a href="http://my.monster.com/Terms/Default.aspx" target="_blank" title="Terms of Use">\n          Terms of Use\n         </a>\n         and\n         <a href="http://inside.monster.com/cookie-info/inside2.aspx" target="_blank" title="use of cookies">\n          use of cookies\n         </a>\n         .\n        </span>\n       </div>\n       <div class="help-block small alert-success" style="display: none;">\n        You will start receiving jobs like this emailed to: {emailaddress}\n       </div>\n      </div>\n      <!-- /.modal-content -->\n     </div>\n     <!-- /.modal-dialog -->\n    </div>\n    <!-- /.modal -->\n    <script id="ApplySubscriptionThankYou" type="text/template">\n     <p><b>Thank you for applying for:</b><br />Sales Development Opportunities in Bozeman, MT</p>\r\n        <p class="text-muted">To check your full apply history, <a href=https://login20.monster.com>log in</a> or <a href=http://my.monster.com/Become-Member/Create-Account>create an account.</a></p>\n    </script>\n    <script type="text/javascript">\n     var script = document.createElement("script");\r\n    script.type = "text/javascript";\r\n    script.async = true;\r\n    script.src = "//nexus.ensighten.com/monster/Bootstrap.js";\r\n    document.head.appendChild(script);\n    </script>\n   </div>\n   <footer class="page-footer">\n    <div class="container">\n     <div class="row">\n      <div class="col-md-12">\n       <!-- Copyright info -->\n       <p class="copy">\n        Copyright \xc2\xa9 2015 |\n        <a href="http://www.monster.com">\n         Monster Worldwide\n        </a>\n       </p>\n      </div>\n     </div>\n    </div>\n   </footer>\n   <script src="/js/jobviewjs?v=Qp96d4MjGz4yVpoQyg3bu08SRTYnAxoYIMyQbxHelEg1">\n   </script>\n   <!--tracking script-->\n   <script src="http://logs.jobs.com/impression_trackingv2.js" type="text/javascript">\n   </script>\n   <script type="text/javascript">\n    monster.controls.add("monster.jv.base.tracking", {"cloudApiDomain":"logs.jobs.com"});\n   </script>\n   <script type="text/javascript">\n    monster.controls.add("monster.jv.base.jobview", {});\n   </script>\n   <script type="text/javascript">\n    monster.controls.add("monster.jv.base.subscription", {});\n   </script>\n   <script type="text/javascript">\n    monster.controls.add("monster.jv.base.subscriptionModal", {});\n   </script>\n   <script type="text/javascript">\n    monster.controls.add("monster.jv.base.banner", {});\n   </script>\n   <script type="text/javascript">\n    monster.controls.add("monster.jv.base.tooltip", {});\n   </script>\n  </div>\n  <!-- Google Analytics Script Start -->\n  <script>\n   (function (i, s, o, g, r, a, m) {\r\n            i[\'GoogleAnalyticsObject\'] = r; i[r] = i[r] || function () {\r\n                (i[r].q = i[r].q || []).push(arguments)\r\n            }, i[r].l = 1 * new Date(); a = s.createElement(o),\r\n            m = s.getElementsByTagName(o)[0]; a.async = 1; a.src = g; m.parentNode.insertBefore(a, m)\r\n        })(window, document, \'script\', \'//www.google-analytics.com/analytics.js\', \'ga\');\r\n\r\n        ga(\'create\', \'UA-41898665-3\', \'jobs.com\');\r\n        ga(\'send\', \'pageview\');\n  </script>\n  <!--Google Analytics Script End -->\n  <script type="text/javascript">\n   monster.eventBus.pub(monster.Events.PAGE_LOAD);\n  </script>\n  <!-- Site Catalyst Start -->\n  <script src="http://media.newjobs.com/js/global/at_1.5.js" type="text/javascript">\n  </script>\n  <script type="text/javascript">\n   var DYNAMIC_S_ACCOUNT = \'newjobsProdseekerUS\';\r\n    var DYNAMIC_S_CURRENCYCODE = \'USD\';\r\n    //<![CDATA[\r\n    var amc = amc || {}; if (!amc.on) { amc.on = amc.call = function () { }; };\r\n    document.write("<scr" + "ipt type=\'text/javascript\' src=\'//media.monster.com/js/sc/sitecatalystLL.js\'></sc" + "ript>");\r\n    //]]>\r\n\r\n    _m.ATM.properties = {"channel":"58","eVar1":"D=g","prop1":"D=g","eVar4":"0","eVar2":"unrecognized","prop22":"N/A-Cloud","prop23":"N/A-Cloud","prop24":"1/1/0001","prop25":"N/A-Cloud","prop26":"N/A-Cloud","eVar25":"744d2ecd-d999-4798-bbb5-c8abe589bd74_Sales Development Opportunities","eVar26":"Unspecified_Fair, Isaac and Company","eVar27":"N/A-Cloud","eVar28":"IT/Software Development","eVar29":"N/A-Cloud","eVar30":"IT Project Management","eVar31":"Bozeman_MT_US","eVar32":"N/A-Cloud","eVar33":"N/A-Cloud","eVar35":"Fair, Isaac and Company","eVar36":"App_Cstm","eVar37":"N/A-Cloud","eVar38":"R/L-Apply","eVar47":"15439","eVar50":"Aggregated","eVar53":"4100683001001","eVar64":"11380","eVar66":"Monster","events.event3":"1","events.event30":"true","events.event42":"1","eVar61":"Group C JS - newconfirmation.aspx"};\r\n    _m.ATM.pageName = \'desktop|mons|jobs30|jobview\';\r\n    _m.ATM.appConfig = {version:\'0\',appID:\'jobviewcloud\',channelID:\'58\',countryID:\'164\'};\r\n    _m.ATM.runOnLoad=true;\r\n\r\n    $(document).ready(_m.ATM.initFromOnReady);\n  </script>\n  <!-- Site Catalyst End -->\n </body>\n</html>'
tp2
a(S'http://job-openings.monster.com/monster/1c4cee59-6083-4b9b-a7a0-488c29620370'
S'<!DOCTYPE html>\n<!--[if lt IE 7]>      <html class="no-js lt-ie9 lt-ie8 lt-ie7"> <![endif]-->\n<!--[if IE 7]>         <html class="no-js lt-ie9 lt-ie8"> <![endif]-->\n<!--[if IE 8]>         <html class="no-js lt-ie9"> <![endif]-->\n<!--[if gt IE 8]><!-->\n<html class="no-js">\n <!--<![endif]-->\n <head>\n  <title>\n   Sales Development Opportunities - FICO | Jobs.com\n  </title>\n  <meta charset="utf-8"/>\n  <meta content="IE=edge,chrome=1" http-equiv="X-UA-Compatible"/>\n  <meta content="text/html; charset=utf-8" http-equiv="Content-Type"/>\n  <meta content="width=device-width, initial-scale=1.0" name="viewport"/>\n  <meta content="FICO - Bozeman, MT." name="description"/>\n  <link href="http://plus.monster.com/+monster" rel="publisher"/>\n  <link href="https://maxcdn.bootstrapcdn.com/bootstrap/3.2.0/css/bootstrap.min.css" rel="stylesheet"/>\n  <link href="https://maxcdn.bootstrapcdn.com/font-awesome/4.2.0/css/font-awesome.min.css" rel="stylesheet"/>\n  <link href="/bundles/monster?v=3VUpvWSKWfcSTe2LCMpXVIfzIyGEJcLvPJMZUFZH8gg1" rel="stylesheet"/>\n  <!-- Favicon -->\n  <link href="http://media.newjobs.com/niche/img/favicon/favicon.ico" rel="shortcut icon"/>\n  <meta content="noindex, nofollow" name="robots"/>\n  <meta content="Monster" name="m_impr.a_affiliate_id"/>\n  <meta content="jobview" name="_ac.page_name"/>\n  <!-- Le HTML5 shim, for IE6-8 support of HTML5 elements -->\n  <!--[if lt IE 9]>\r\n    <script src="/scripts/third_party/html5shiv.js"></script>\r\n    <script src="/scripts/bootstrap/respond.min.js" type="text/javascript"></script>\r\n\r\n    <script type="text/javascript">\r\n        if (!Array.prototype.forEach) {\r\n            Array.prototype.forEach = function (fun /*, thisArg */) {\r\n                "use strict";\r\n                if (this === void 0 || this === null || typeof fun !== "function") throw new TypeError();\r\n\r\n                var\r\n                    t = Object(this),\r\n                    len = t.length >>> 0,\r\n                    thisArg = arguments.length >= 2 ? arguments[1] : void 0;\r\n\r\n                for (var i = 0; i < len; i++)\r\n                    if (i in t)\r\n                        fun.call(thisArg, t[i], i, t);\r\n            };\r\n        }\r\n    </script>\r\n<![endif]-->\n </head>\n <body>\n  <div class="page">\n   <div class="navbar navbar-default navbar-fixed-top">\n    <div class="container">\n     <!--<div class="container">-->\n     <div class="navbar-header" itemscope="" itemtype="http://schema.org/Organization">\n      <a class="navbar-brand" href="http://www.monster.com" itemprop="url">\n       <img alt="monster.com" itemprop="logo" src="/Areas/JobViewCloud/content/images/monster-new.png" title="monster.com"/>\n      </a>\n     </div>\n     <!-- large screen navbar-collapse location -->\n     <div class="navbar-collapse collapse hidden-xs">\n     </div>\n     <!--/.navbar-collapse -->\n    </div>\n    <!-- ./container -->\n   </div>\n   <!-- ./navbar -->\n   <div class="jobview container">\n    <div class="row">\n     <input id="normalized-company-id" type="hidden" value="65113"/>\n     <div class="col-xs-12 col-sm-6 col-md-8 col-lg-8">\n      <article id="jobview">\n       <header class="jobview-header">\n        <h3>\n         Sales Development Opportunities\n        </h3>\n        <h4 class="company">\n         FICO\n         <small class="location">\n          -\n          <i class="fa fa-map-marker">\n          </i>\n          Bozeman, MT\n         </small>\n        </h4>\n        <span class="postedDate">\n         <strong>\n          Posted:\n         </strong>\n         1/4/2017\n        </span>\n       </header>\n       <!-- ./jobview-header -->\n       <div class="jobview-upper-apply-mobile visible-xs row">\n        <div class="col-sm-6">\n         <div class="action-buttons">\n          <input id="trackInfo" type="hidden" value=\'{"emailAddress":"","postingId":"1c4cee59-6083-4b9b-a7a0-488c29620370","placementID":null,"jobPosition":0,"uniqueUser":null,"affiliate":"Monster","technology":null}\'/>\n          <a class="btn btn-sm btn-primary btn-jobsdotcom" data-action="apply" data-applyurl="https://fico.wd1.myworkdayjobs.com/External/job/US-BozemanMT/Sales-Development-Consultant_16777" data-atm-id="35" data-confurl="http://job-openings.monster.com/monster/confirmation?postingid=1c4cee59-6083-4b9b-a7a0-488c29620370" data-form-selector=".email-collection" href="http://job-openings.monster.com/monster/confirmation?postingid=1c4cee59-6083-4b9b-a7a0-488c29620370" rel="nofollow" role="button">\n           Apply Now\n          </a>\n          <form action="https://fico.wd1.myworkdayjobs.com/External/job/US-BozemanMT/Sales-Development-Consultant_16777" aria-hidden="true" class="email-collection hidden panel panel-default" data-id="1c4cee59-6083-4b9b-a7a0-488c29620370" data-lrtype="B" data-placement="Left-Bottom-Body" data-position="0" data-remote-subscription="/LiteReg/ApplySubscription" data-remote-validation="/LiteReg/IsEmailValid" data-technology="" method="POST" target="_blank">\n           <div class="panel-body">\n            <div class="row-flex">\n             <div class="col-flex stretch">\n              <input class="form-control input-sm" id="EmailCollectionField2" name="litRegEmailAddress" placeholder="Please enter your email" type="email"/>\n             </div>\n            </div>\n            <label class="control-label" for="EmailCollectionField2">\n             To begin the application, please enter your email\n            </label>\n            <span class="help-block small">\n             By continuing you agree to Monster\'s\n             <a href="http://my.monster.com/Privacy/Default.aspx" target="_blank" title="Privacy Policy">\n              Privacy Policy\n             </a>\n             ,\n             <a href="http://my.monster.com/Terms/Default.aspx" target="_blank" title="Terms of Use">\n              Terms of Use\n             </a>\n             and\n             <a href="http://inside.monster.com/cookie-info/inside2.aspx" target="_blank" title="use of cookies">\n              use of cookies\n             </a>\n             .\n            </span>\n            <button class="sr-only" type="submit">\n             Continue application\n            </button>\n           </div>\n          </form>\n         </div>\n        </div>\n       </div>\n       <div class="jobview-section">\n        <div>\n         <div style="display:%20none;">\n         </div>\n         <div>\n          <p style="text-align:left">\n           <b>\n            FICO (NYSE: FICO)\n           </b>\n           is a leading global analytics software company, helping businesses in 90+ countries make better decisions. Join our world-class team today and fulfill your career potential!\n          </p>\n          <p style="text-align:left">\n           <b>\n            Job Summary\n           </b>\n          </p>\n          <p style="text-align:inherit">\n          </p>\n          <p style="text-align:inherit">\n          </p>\n          <p style="text-align:left">\n           <b>\n            Job Description\n           </b>\n          </p>\n          <p style="text-align:left">\n           As a member of the Sales Development team, you\xe2\x80\x99ll leverage insights provided by the larger field marketing organization to contact prospective clients for a specific FICO solution or group of related solutions across an identified territory. Specific responsibilities include:\n          </p>\n          <p style="text-align:inherit">\n          </p>\n          <ul>\n           <li>\n            Engaging in outbound calling to prospective clients to establish relationships, explore the prospect\xe2\x80\x99s technology needs and brief the customer on FICO\xe2\x80\x99s solution capabilities.\n           </li>\n           <li>\n            Collaborating with assigned Pre-Sales and Solution Sales experts to further develop and close identified sales opportunities.\n           </li>\n           <li>\n            Utilizing Salesforce tool to ensure best practice BANT processes are followed during client conversations leading to effective lead tracking.\n           </li>\n           <li>\n            Leveraging digital and inside sales prospecting tools to increase connect rates, timely and relevant messaging and enhance your overall sales network.\n           </li>\n          </ul>\n          <p style="text-align:inherit">\n          </p>\n          <p style="text-align:inherit">\n          </p>\n          <h4>\n           Requirements\n          </h4>\n          <ul>\n           <li>\n            1-2 years of experience selling technology solutions with experience doing so within the banking and insurance industries a plus.\n           </li>\n           <li>\n            Demonstrated success in high volume customer prospecting activities to establish and build effective relationships.\n           </li>\n           <li>\n            Proven ability to quickly learn complex business and technical environments in order to uncover client objectives, internal issues and solution sale opportunities.\n           </li>\n           <li>\n            Experience using Salesforce and/or other technology tools to drive and manage prospecting activities a plus.\n           </li>\n           <li>\n            Excellent verbal and written communications skills.\n           </li>\n           <li>\n            Self-motivated with strong collaboration and teamwork skills aimed at achieving both individual and shared goals.\n           </li>\n           <li>\n            Bachelor\xe2\x80\x99s degree required, preferably in a business, software engineering, data science or a related technical field of study.\n           </li>\n          </ul>\n          <p style="text-align:inherit">\n          </p>\n          <h4>\n           Our Rewards Structure\n          </h4>\n          <ul>\n           <li>\n            Competitive base salary\n           </li>\n           <li>\n            Compensation Mix: 70-80% Base Salary; 20-30% Targeted Incentive\n           </li>\n           <li>\n            Incentive Drivers: Sales Accepted Leads (SALs), MBOs\n           </li>\n           <li>\n            Development-focused culture supporting career advancement opportunities\n           </li>\n           <li>\n            Comprehensive health and welfare benefits program\n           </li>\n           <li>\n            401(k) with 5% net match, immediate vesting\n           </li>\n           <li>\n            Flexible work environment with competitive paid-time-off policies\n           </li>\n          </ul>\n          <p style="text-align:inherit">\n          </p>\n          <p style="text-align:inherit">\n          </p>\n          <p style="text-align:inherit">\n          </p>\n          <p style="text-align:left">\n           <b>\n            Why Make a Move to FICO?\n           </b>\n          </p>\n          <p style="text-align:left">\n           At FICO, you can advance your career with a leading organization in one of the fastest-growing fields in technology today \xe2\x80\x93 Big Data analytics. We have a 50+ year history of excellence in providing analytics and decision management solutions. Here are a few examples of our impact globally:\n          </p>\n          <ul>\n           <li>\n            Credit Scoring \xe2\x80\x94150+ billion FICO Scores have been sold to date, making it the most used credit score in the world.\n           </li>\n           <li>\n            Fraud Detection and Security\xe2\x80\x942.5+ billion credit cards globally are protected by FICO fraud systems.\n           </li>\n           <li>\n            Lending \xe2\x80\x943/4 of US mortgages are approved using the FICO Score.\n           </li>\n          </ul>\n          <p style="text-align:inherit">\n          </p>\n          <p style="text-align:left">\n           FICO\xe2\x80\x99s proven science leverages the latest technology to drive consumer behavior insights and optimize business processes. We help many of the world\xe2\x80\x99s leading banks, insurers, retailers, telecommunications providers and other firms reach a new level of success.\n          </p>\n          <p style="text-align:inherit">\n          </p>\n          <p style="text-align:left">\n           Our success is founded on really talented people \xe2\x80\x93 just like\n           <b>\n            you\n           </b>\n           \xe2\x80\x93 who enjoy innovative and high-performance environments with the opportunity to grow. Join the FICO Family and help change the way business makes decisions!\n          </p>\n          <p style="text-align:inherit">\n          </p>\n          <p style="text-align:left">\n           Learn more about how you can Fulfill your Potential at www.fico.com/Careers\n          </p>\n          <p style="text-align:inherit">\n          </p>\n          <p style="text-align:left">\n           FICO is an Equal Employment Opportunity Employer that values the strength that diversity brings to the workplace.\n          </p>\n         </div>\n        </div>\n       </div>\n       <!-- ./jobview-section -->\n       <div class="hidden-xs jobview-footer row">\n        <div class="col-sm-6">\n         <div class="action-buttons">\n          <input id="trackInfo" type="hidden" value=\'{"emailAddress":"","postingId":"1c4cee59-6083-4b9b-a7a0-488c29620370","placementID":null,"jobPosition":0,"uniqueUser":null,"affiliate":"Monster","technology":null}\'/>\n          <a class="btn btn-sm btn-primary btn-jobsdotcom" data-action="apply" data-applyurl="https://fico.wd1.myworkdayjobs.com/External/job/US-BozemanMT/Sales-Development-Consultant_16777" data-atm-id="35" data-confurl="http://job-openings.monster.com/monster/confirmation?postingid=1c4cee59-6083-4b9b-a7a0-488c29620370" data-form-selector=".email-collection" href="http://job-openings.monster.com/monster/confirmation?postingid=1c4cee59-6083-4b9b-a7a0-488c29620370" rel="nofollow" role="button">\n           Apply Now\n          </a>\n          <form action="https://fico.wd1.myworkdayjobs.com/External/job/US-BozemanMT/Sales-Development-Consultant_16777" aria-hidden="true" class="email-collection hidden panel panel-default" data-id="1c4cee59-6083-4b9b-a7a0-488c29620370" data-lrtype="B" data-placement="Left-Bottom-Body" data-position="0" data-remote-subscription="/LiteReg/ApplySubscription" data-remote-validation="/LiteReg/IsEmailValid" data-technology="" method="POST" target="_blank">\n           <div class="panel-body">\n            <div class="row-flex">\n             <div class="col-flex stretch">\n              <input class="form-control input-sm" id="EmailCollectionField2" name="litRegEmailAddress" placeholder="Please enter your email" type="email"/>\n             </div>\n            </div>\n            <label class="control-label" for="EmailCollectionField2">\n             To begin the application, please enter your email\n            </label>\n            <span class="help-block small">\n             By continuing you agree to Monster\'s\n             <a href="http://my.monster.com/Privacy/Default.aspx" target="_blank" title="Privacy Policy">\n              Privacy Policy\n             </a>\n             ,\n             <a href="http://my.monster.com/Terms/Default.aspx" target="_blank" title="Terms of Use">\n              Terms of Use\n             </a>\n             and\n             <a href="http://inside.monster.com/cookie-info/inside2.aspx" target="_blank" title="use of cookies">\n              use of cookies\n             </a>\n             .\n            </span>\n            <button class="sr-only" type="submit">\n             Continue application\n            </button>\n           </div>\n          </form>\n         </div>\n        </div>\n       </div>\n       <!-- ./jobview-footer -->\n      </article>\n      <!-- ./#jobview -->\n     </div>\n     <div class="col-xs-12 col-sm-6 col-md-4 col-lg-4">\n      <div class="jobview-affix">\n       <div style="background-color: #fff;">\n        <input id="trackInfo" type="hidden" value=\'{"emailAddress":"","postingId":"1c4cee59-6083-4b9b-a7a0-488c29620370","placementID":null,"jobPosition":0,"uniqueUser":null,"affiliate":"Monster","technology":null}\'/>\n        <form action="https://fico.wd1.myworkdayjobs.com/External/job/US-BozemanMT/Sales-Development-Consultant_16777" aria-hidden="true" class="email-collection hidden" data-id="1c4cee59-6083-4b9b-a7a0-488c29620370" data-lrtype="R" data-placement="Right-Top-Rail" data-position="0" data-remote-subscription="/LiteReg/ApplySubscription" data-remote-validation="/LiteReg/IsEmailValid" data-technology="" method="POST" target="_blank">\n         <div class="form-group">\n          <label class="control-label" for="EmailCollectionField1">\n           To begin the application, please enter your email\n          </label>\n          <input class="form-control input-sm" id="EmailCollectionField1" name="litRegEmailAddress" placeholder="Please enter your email" type="email"/>\n         </div>\n         <span class="help-block small">\n          By continuing you agree to Monster\'s\n          <a href="http://my.monster.com/Privacy/Default.aspx" target="_blank" title="Privacy Policy">\n           Privacy Policy\n          </a>\n          ,\n          <a href="http://my.monster.com/Terms/Default.aspx" target="_blank" title="Terms of Use">\n           Terms of Use\n          </a>\n          and\n          <a href="http://inside.monster.com/cookie-info/inside2.aspx" target="_blank" title="use of cookies">\n           use of cookies\n          </a>\n          .\n         </span>\n         <button class="sr-only" type="submit">\n          Continue application\n         </button>\n        </form>\n        <a class="btn btn-sm btn-primary btn-block btn-jobsdotcom" data-action="apply" data-applyurl="https://fico.wd1.myworkdayjobs.com/External/job/US-BozemanMT/Sales-Development-Consultant_16777" data-atm-id="36" data-confurl="http://job-openings.monster.com/monster/confirmation?postingid=1c4cee59-6083-4b9b-a7a0-488c29620370" data-form-selector=".email-collection" href="http://job-openings.monster.com/monster/confirmation?postingid=1c4cee59-6083-4b9b-a7a0-488c29620370" rel="nofollow" role="button">\n         Apply Now\n        </a>\n        <div class="social-sharing no-logo">\n         <h5>\n          Share this Job\n         </h5>\n         <a href="https://www.twitter.com/share?url=%20&amp;text=Sales+Development+Opportunities at FICO http://job-openings.monster.com/monster/1c4cee59-6083-4b9b-a7a0-488c29620370 via @monster" target="_blank" title="Share this job on Twitter">\n          <i class="fa fa-2x fa-twitter" style="margin: 0 4px;">\n          </i>\n         </a>\n         <a href="https://plus.google.com/share?url=http://job-openings.monster.com/monster/1c4cee59-6083-4b9b-a7a0-488c29620370" target="_blank" title="Share this job on Google+">\n          <i class="fa fa-2x fa-google-plus" style="margin: 0 4px;">\n          </i>\n         </a>\n         <a href="mailto: ?subject=Sales Development Opportunities - FICO | Monster.com&amp;body=FICO http://job-openings.monster.com/monster/1c4cee59-6083-4b9b-a7a0-488c29620370" title="Share this job via Email">\n          <i class="fa fa-2x fa-envelope-o" style="margin: 0 4px;">\n          </i>\n         </a>\n        </div>\n       </div>\n       <div>\n        <div class="jobview-related-jobs" id="relatedJobs">\n         <div class="related-job-container">\n          <h5>\n           Related Jobs\n          </h5>\n          <ul class="list-unstyled">\n           <li>\n            <a class="cloudJobs" data-m_impr_a_placement_id="rjv1" data-m_impr_j_cid="0" data-m_impr_j_coc="" data-m_impr_j_jawsid="216274054" data-m_impr_j_jobid="" data-m_impr_j_jpm="1" data-m_impr_j_jpt="2" data-m_impr_j_lat="45" data-m_impr_j_lid="699" data-m_impr_j_long="-111" data-m_impr_j_occid="0" data-m_impr_j_p="1" data-m_impr_j_postingid="e350091a-a98f-4b07-b04f-6419f39febce" data-m_impr_j_pvc="tmpenterpriserentacar" data-m_impr_s_search_query="" data-m_impr_s_t="RE_EXP6b_JSJ" data-m_impr_uuid="678a822c-913b-4190-b2e6-82d53a6e9848" href="http://job-openings.monster.com/monster/e350091a-a98f-4b07-b04f-6419f39febce?intcid=js" onclick="jobClick(this, \'http://job-openings.monster.com/monster/e350091a-a98f-4b07-b04f-6419f39febce?intcid=js\', \'newjobsprodseekerus\', \'click on jobview from jobview\')" rel="nofollow" target="_blank" title="View This Job: Sales Management Trainee">\n             Sales Management Trainee\n            </a>\n            <div class="location small text-muted">\n             Enterprise Rent-A-Car, Bozeman - MT\n            </div>\n           </li>\n           <li>\n            <a class="cloudJobs" data-m_impr_a_placement_id="rjv1" data-m_impr_j_cid="0" data-m_impr_j_coc="xnwmcorpbucket2x" data-m_impr_j_jawsid="221521139" data-m_impr_j_jobid="181621649" data-m_impr_j_jpm="1" data-m_impr_j_jpt="1" data-m_impr_j_lat="45" data-m_impr_j_lid="699" data-m_impr_j_long="-111" data-m_impr_j_occid="0" data-m_impr_j_p="2" data-m_impr_j_postingid="504c71ef-da13-4f5f-b154-11e8e019d6b6" data-m_impr_j_pvc="monster" data-m_impr_s_search_query="" data-m_impr_s_t="RE_EXP6b_JSJ" data-m_impr_uuid="378929b7-1729-4d26-ba6d-5e9688076f86" href="http://jobview.monster.com/Financial-Representative-\xe2\x80\x93-Sales-Job-Bozeman-MT-US-181621649.aspx?intcid=js" onclick="jobClick(this, \'http://jobview.monster.com/Financial-Representative-\xe2\x80\x93-Sales-Job-Bozeman-MT-US-181621649.aspx?intcid=js\', \'newjobsprodseekerus\', \'click on jobview from jobview\')" rel="nofollow" target="_blank" title="View This Job: Financial Representative \xe2\x80\x93 Sales">\n             Financial Representative \xe2\x80\x93 Sales\n            </a>\n            <div class="location small text-muted">\n             Northwestern Mutual, Bozeman - MT\n            </div>\n           </li>\n           <li>\n            <a class="cloudJobs" data-m_impr_a_placement_id="rjv1" data-m_impr_j_cid="0" data-m_impr_j_coc="xw269344290wx" data-m_impr_j_jawsid="230439562" data-m_impr_j_jobid="183047567" data-m_impr_j_jpm="1" data-m_impr_j_jpt="1" data-m_impr_j_lat="45" data-m_impr_j_lid="699" data-m_impr_j_long="-111" data-m_impr_j_occid="0" data-m_impr_j_p="3" data-m_impr_j_postingid="5f179b6f-1e0b-4136-82fb-fcffb805766e" data-m_impr_j_pvc="monster" data-m_impr_s_search_query="" data-m_impr_s_t="RE_EXP6b_JSJ" data-m_impr_uuid="999fcb98-5cb7-40b1-9f2e-2fc29af050d8" href="http://jobview.monster.com/Retail-Store-Manager-Job-Bozeman-MT-US-183047567.aspx?intcid=js" onclick="jobClick(this, \'http://jobview.monster.com/Retail-Store-Manager-Job-Bozeman-MT-US-183047567.aspx?intcid=js\', \'newjobsprodseekerus\', \'click on jobview from jobview\')" rel="nofollow" target="_blank" title="View This Job: Retail Store Manager">\n             Retail Store Manager\n            </a>\n            <div class="location small text-muted">\n             Simply Mac, Bozeman - MT\n            </div>\n           </li>\n           <li>\n            <a class="cloudJobs" data-m_impr_a_placement_id="rjv1" data-m_impr_j_cid="0" data-m_impr_j_coc="xrockymtn_bankx" data-m_impr_j_jawsid="229716867" data-m_impr_j_jobid="182944067" data-m_impr_j_jpm="1" data-m_impr_j_jpt="1" data-m_impr_j_lat="45" data-m_impr_j_lid="699" data-m_impr_j_long="-111" data-m_impr_j_occid="0" data-m_impr_j_p="4" data-m_impr_j_postingid="e647776d-c5c2-4e9e-a81e-795ed333abb9" data-m_impr_j_pvc="monster" data-m_impr_s_search_query="" data-m_impr_s_t="RE_EXP6b_JSJ" data-m_impr_uuid="e88a8b4d-b4c2-4496-afd8-ea4373bb36b9" href="http://jobview.monster.com/Senior-Personal-Banker-Job-Bozeman-MT-US-182944067.aspx?intcid=js" onclick="jobClick(this, \'http://jobview.monster.com/Senior-Personal-Banker-Job-Bozeman-MT-US-182944067.aspx?intcid=js\', \'newjobsprodseekerus\', \'click on jobview from jobview\')" rel="nofollow" target="_blank" title="View This Job: Senior Personal Banker">\n             Senior Personal Banker\n            </a>\n            <div class="location small text-muted">\n             Rocky Mountain Bank, Bozeman - MT\n            </div>\n           </li>\n           <li>\n            <a class="cloudJobs" data-m_impr_a_placement_id="rjv1" data-m_impr_j_cid="0" data-m_impr_j_coc="xhqglobalx" data-m_impr_j_jawsid="226889896" data-m_impr_j_jobid="182412883" data-m_impr_j_jpm="1" data-m_impr_j_jpt="1" data-m_impr_j_lat="45" data-m_impr_j_lid="699" data-m_impr_j_long="-110" data-m_impr_j_occid="0" data-m_impr_j_p="5" data-m_impr_j_postingid="ddee6d8e-49ec-4d97-848f-cc3d79f55900" data-m_impr_j_pvc="monster" data-m_impr_s_search_query="" data-m_impr_s_t="RE_EXP6b_JSJ" data-m_impr_uuid="21ee1f91-e5a4-46c2-8c9c-b70e379cfbf2" href="http://jobview.monster.com/Community-Manager-Job-Bozeman-MT-US-182412883.aspx?intcid=js" onclick="jobClick(this, \'http://jobview.monster.com/Community-Manager-Job-Bozeman-MT-US-182412883.aspx?intcid=js\', \'newjobsprodseekerus\', \'click on jobview from jobview\')" rel="nofollow" target="_blank" title="View This Job: Community Manager">\n             Community Manager\n            </a>\n            <div class="location small text-muted">\n             Regus, Bozeman - MT\n            </div>\n           </li>\n           <li>\n            <a class="cloudJobs" data-m_impr_a_placement_id="rjv1" data-m_impr_j_cid="0" data-m_impr_j_coc="xElm2016x" data-m_impr_j_jawsid="226046684" data-m_impr_j_jobid="182279374" data-m_impr_j_jpm="1" data-m_impr_j_jpt="1" data-m_impr_j_lat="45" data-m_impr_j_lid="699" data-m_impr_j_long="-111" data-m_impr_j_occid="0" data-m_impr_j_p="6" data-m_impr_j_postingid="be04f5a0-7e66-4396-8b53-3deba62884d1" data-m_impr_j_pvc="monster" data-m_impr_s_search_query="" data-m_impr_s_t="RE_EXP6b_JSJ" data-m_impr_uuid="bb7868db-9418-40a9-9430-6d8cf4cea709" href="http://jobview.monster.com/Damage-Prevention-Liaison-Job-Bozeman-MT-US-182279374.aspx?intcid=js" onclick="jobClick(this, \'http://jobview.monster.com/Damage-Prevention-Liaison-Job-Bozeman-MT-US-182279374.aspx?intcid=js\', \'newjobsprodseekerus\', \'click on jobview from jobview\')" rel="nofollow" target="_blank" title="View This Job: Damage Prevention Liaison">\n             Damage Prevention Liaison\n            </a>\n            <div class="location small text-muted">\n             ELM Locating &amp; Utility Services, Bozeman - MT\n            </div>\n           </li>\n           <li>\n            <a class="cloudJobs" data-m_impr_a_placement_id="rjv1" data-m_impr_j_cid="0" data-m_impr_j_coc="" data-m_impr_j_jawsid="230122639" data-m_impr_j_jobid="" data-m_impr_j_jpm="1" data-m_impr_j_jpt="2" data-m_impr_j_lat="45" data-m_impr_j_lid="699" data-m_impr_j_long="-110" data-m_impr_j_occid="0" data-m_impr_j_p="7" data-m_impr_j_postingid="2f2d0166-48d2-4ef9-be18-95e774971182" data-m_impr_j_pvc="beyondftpin" data-m_impr_s_search_query="" data-m_impr_s_t="RE_EXP6b_JSJ" data-m_impr_uuid="a9400f52-e90d-4524-8be7-9e8bb2c58485" href="http://job-openings.monster.com/monster/2f2d0166-48d2-4ef9-be18-95e774971182?intcid=js" onclick="jobClick(this, \'http://job-openings.monster.com/monster/2f2d0166-48d2-4ef9-be18-95e774971182?intcid=js\', \'newjobsprodseekerus\', \'click on jobview from jobview\')" rel="nofollow" target="_blank" title="View This Job: Apple Premier Retailer - Store Manager -  Bozeman">\n             Apple Premier Retailer - Store Manager -  Bozeman\n            </a>\n            <div class="location small text-muted">\n             Simply Mac, Bozeman - MT\n            </div>\n           </li>\n          </ul>\n          <!-- jrs-job=183782375&amp;count=6 -->\n         </div>\n        </div>\n        <div>\n         <h5>\n          More\n         </h5>\n         <a href="http://www.monster.com/jobs/search/?client=power&amp;q=IT/Software Development&amp;where=Bozeman , MT&amp;intcid=more_jobs_category_location" title="See all IT/Software Development jobs in Bozeman, MT">\n          See all IT/Software Development jobs in Bozeman, MT\n         </a>\n         <br/>\n         <a href="http://www.monster.com/jobs/search/?client=power&amp;q=IT Project Management&amp;intcid=more_jobs_occupation" title="See all IT Project Management jobs">\n          See all IT Project Management jobs\n         </a>\n         <br/>\n         <a class="aut-city-search" href="http://www.monster.com/jobs/search/?client=power&amp;where=Bozeman , MT&amp;intcid=more_jobs_location" title="See all jobs in Bozeman">\n          See all jobs in Bozeman\n         </a>\n        </div>\n       </div>\n       <div class="oasAdsContainer">\n        <div>\n         <!-- 1st Section Begins : Delivery via OAS JX Tag -->\n         <script type="text/javascript">\n          window.MonsterAdds = window.MonsterAdds || {};\r\n\r\n            MonsterAdds.writeScript = function (showMobile) {\r\n                //TODO add mobile test if needed, see AdBlock.cshtml\r\n                document.write("<scr" + "ipt type=\'text/javascript\' src=\'//oas.monster.com/RealMedia/ads/adstream_jx.ads/us.monster.en/aggjobview/11831498505@Right3?size=300x250&site=mons&affiliate=Monster&app=js&oas_pv=no_analytics&fb=0&moc=11848&st=MT&pci=Bozeman&pcy=US&proejc=660&key=IT%2fSoftware+Development&plid=699&pcid=1136&poccid=11848&mesco=4100683001001\'><\\/script>");\r\n            };\r\n\r\n            MonsterAdds.writeScript(true);\n         </script>\n         <!-- 2nd Section Begins : Delivery via OAS NX Tag for non-Javascript Browser -->\n         <noscript>\n          <a href="//oas.monster.com/RealMedia/ads/click_nx.ads/us.monster.en/aggjobview/11026215893@Right3?size=300x250&amp;site=mons&amp;affiliate=Monster&amp;app=js&amp;oas_pv=no_analytics&amp;fb=0&amp;moc=11848&amp;st=MT&amp;pci=Bozeman&amp;pcy=US&amp;proejc=660&amp;key=IT%2fSoftware+Development&amp;plid=699&amp;pcid=1136&amp;poccid=11848&amp;mesco=4100683001001">\n           <img src="//oas.monster.com/RealMedia/ads/click_nx.ads/us.monster.en/aggjobview/1236282954@Right3?size=300x250&amp;site=mons&amp;affiliate=Monster&amp;app=js&amp;oas_pv=no_analytics&amp;fb=0&amp;moc=11848&amp;st=MT&amp;pci=Bozeman&amp;pcy=US&amp;proejc=660&amp;key=IT%2fSoftware+Development&amp;plid=699&amp;pcid=1136&amp;poccid=11848&amp;mesco=4100683001001"/>\n          </a>\n         </noscript>\n        </div>\n       </div>\n      </div>\n      <div class="hidden-xs affix-fix">\n      </div>\n     </div>\n    </div>\n    <!-- ./row -->\n    <div class="modal fade" id="subscriptionModal">\n     <div class="modal-dialog">\n      <div class="modal-content">\n       <div class="modal-body">\n        <div class="email-collection promoted">\n         <div class="icon">\n         </div>\n         <h4 class="title">\n          Get new similar jobs by email for\n         </h4>\n         <p class="desc">\n          Sales Development Opportunities\n         </p>\n         <form action="" aria-hidden="true" class="email-jvsub-collection" data-id="1c4cee59-6083-4b9b-a7a0-488c29620370" data-remote-subscribe="/LiteReg/JobViewSubscription" data-remote-validation="/LiteReg/IsEmailValid" id="modalForm" method="POST">\n          <div class="row-flex">\n           <div class="col-flex stretch">\n            <input class="form-control input-sm" id="emailAddress" name="emailAddress" placeholder="Please enter your email" type="email"/>\n           </div>\n           <div class="col-flex">\n            <a class="btn btn-sm btn-primary btn-jobsdotcom" data-action="modal-subscription" data-form-selector=".email-jvsub-collection" href="#" rel="nofollow" role="button">\n             Email me jobs\n            </a>\n           </div>\n           <div class="col-flex">\n            <a class="btn btn-link btn-sm" href="#" id="cancelModal">\n             Skip\n            </a>\n           </div>\n          </div>\n         </form>\n        </div>\n       </div>\n       <div class="modal-footer">\n        <span class="help-block small">\n         By continuing you agree to Monster\'s\n         <a href="http://my.monster.com/Privacy/Default.aspx" target="_blank" title="Privacy Policy">\n          Privacy Policy\n         </a>\n         ,\n         <a href="http://my.monster.com/Terms/Default.aspx" target="_blank" title="Terms of Use">\n          Terms of Use\n         </a>\n         and\n         <a href="http://inside.monster.com/cookie-info/inside2.aspx" target="_blank" title="use of cookies">\n          use of cookies\n         </a>\n         .\n        </span>\n       </div>\n       <div class="help-block small alert-success" style="display: none;">\n        You will start receiving jobs like this emailed to: {emailaddress}\n       </div>\n      </div>\n      <!-- /.modal-content -->\n     </div>\n     <!-- /.modal-dialog -->\n    </div>\n    <!-- /.modal -->\n    <script id="ApplySubscriptionThankYou" type="text/template">\n     <p><b>Thank you for applying for:</b><br />Sales Development Opportunities in Bozeman, MT</p>\r\n        <p class="text-muted">To check your full apply history, <a href=https://login20.monster.com>log in</a> or <a href=http://my.monster.com/Become-Member/Create-Account>create an account.</a></p>\n    </script>\n    <script type="text/javascript">\n     var script = document.createElement("script");\r\n    script.type = "text/javascript";\r\n    script.async = true;\r\n    script.src = "//nexus.ensighten.com/monster/Bootstrap.js";\r\n    document.head.appendChild(script);\n    </script>\n   </div>\n   <footer class="page-footer">\n    <div class="container">\n     <div class="row">\n      <div class="col-md-12">\n       <!-- Copyright info -->\n       <p class="copy">\n        Copyright \xc2\xa9 2015 |\n        <a href="http://www.monster.com">\n         Monster Worldwide\n        </a>\n       </p>\n      </div>\n     </div>\n    </div>\n   </footer>\n   <script src="/js/jobviewjs?v=Qp96d4MjGz4yVpoQyg3bu08SRTYnAxoYIMyQbxHelEg1">\n   </script>\n   <!--tracking script-->\n   <script src="http://logs.jobs.com/impression_trackingv2.js" type="text/javascript">\n   </script>\n   <script type="text/javascript">\n    monster.controls.add("monster.jv.base.tracking", {"cloudApiDomain":"logs.jobs.com"});\n   </script>\n   <script type="text/javascript">\n    monster.controls.add("monster.jv.base.jobview", {});\n   </script>\n   <script type="text/javascript">\n    monster.controls.add("monster.jv.base.subscription", {});\n   </script>\n   <script type="text/javascript">\n    monster.controls.add("monster.jv.base.subscriptionModal", {});\n   </script>\n   <script type="text/javascript">\n    monster.controls.add("monster.jv.base.banner", {});\n   </script>\n   <script type="text/javascript">\n    monster.controls.add("monster.jv.base.tooltip", {});\n   </script>\n  </div>\n  <!-- Google Analytics Script Start -->\n  <script>\n   (function (i, s, o, g, r, a, m) {\r\n            i[\'GoogleAnalyticsObject\'] = r; i[r] = i[r] || function () {\r\n                (i[r].q = i[r].q || []).push(arguments)\r\n            }, i[r].l = 1 * new Date(); a = s.createElement(o),\r\n            m = s.getElementsByTagName(o)[0]; a.async = 1; a.src = g; m.parentNode.insertBefore(a, m)\r\n        })(window, document, \'script\', \'//www.google-analytics.com/analytics.js\', \'ga\');\r\n\r\n        ga(\'create\', \'UA-41898665-3\', \'jobs.com\');\r\n        ga(\'send\', \'pageview\');\n  </script>\n  <!--Google Analytics Script End -->\n  <script type="text/javascript">\n   monster.eventBus.pub(monster.Events.PAGE_LOAD);\n  </script>\n  <!-- Site Catalyst Start -->\n  <script src="http://media.newjobs.com/js/global/at_1.5.js" type="text/javascript">\n  </script>\n  <script type="text/javascript">\n   var DYNAMIC_S_ACCOUNT = \'newjobsProdseekerUS\';\r\n    var DYNAMIC_S_CURRENCYCODE = \'USD\';\r\n    //<![CDATA[\r\n    var amc = amc || {}; if (!amc.on) { amc.on = amc.call = function () { }; };\r\n    document.write("<scr" + "ipt type=\'text/javascript\' src=\'//media.monster.com/js/sc/sitecatalystLL.js\'></sc" + "ript>");\r\n    //]]>\r\n\r\n    _m.ATM.properties = {"channel":"58","eVar1":"D=g","prop1":"D=g","eVar4":"0","eVar2":"unrecognized","prop22":"N/A-Cloud","prop23":"N/A-Cloud","prop24":"1/1/0001","prop25":"N/A-Cloud","prop26":"N/A-Cloud","eVar25":"1c4cee59-6083-4b9b-a7a0-488c29620370_Sales Development Opportunities","eVar26":"Unspecified_FICO","eVar27":"N/A-Cloud","eVar28":"IT/Software Development","eVar29":"N/A-Cloud","eVar30":"IT Project Management","eVar31":"Bozeman_MT_US","eVar32":"N/A-Cloud","eVar33":"N/A-Cloud","eVar35":"FICO","eVar36":"App_Cstm","eVar37":"N/A-Cloud","eVar38":"R/L-Apply","eVar47":"17190","eVar50":"Aggregated","eVar53":"4100683001001","eVar64":"65113","eVar66":"Monster","events.event3":"1","events.event30":"true","events.event42":"1","eVar61":"Group C JS - newconfirmation.aspx"};\r\n    _m.ATM.pageName = \'desktop|mons|jobs30|jobview\';\r\n    _m.ATM.appConfig = {version:\'0\',appID:\'jobviewcloud\',channelID:\'58\',countryID:\'164\'};\r\n    _m.ATM.runOnLoad=true;\r\n\r\n    $(document).ready(_m.ATM.initFromOnReady);\n  </script>\n  <!-- Site Catalyst End -->\n </body>\n</html>'
tp3
a(S'http://job-openings.monster.com/monster/8129a947-efe6-4992-b0c0-a9989807543b'
S'<!DOCTYPE html>\n<!--[if lt IE 7]>      <html class="no-js lt-ie9 lt-ie8 lt-ie7"> <![endif]-->\n<!--[if IE 7]>         <html class="no-js lt-ie9 lt-ie8"> <![endif]-->\n<!--[if IE 8]>         <html class="no-js lt-ie9"> <![endif]-->\n<!--[if gt IE 8]><!-->\n<html class="no-js">\n <!--<![endif]-->\n <head>\n  <title>\n   Software Engineer, Tools and Infrastructure (Bozeman) - Dataminr | Jobs.com\n  </title>\n  <meta charset="utf-8"/>\n  <meta content="IE=edge,chrome=1" http-equiv="X-UA-Compatible"/>\n  <meta content="text/html; charset=utf-8" http-equiv="Content-Type"/>\n  <meta content="width=device-width, initial-scale=1.0" name="viewport"/>\n  <meta content="Dataminr - Bozeman, MT. Min. Experience: 3+ years\n\nLocation: Bozeman, MT\n\nWho we ar" name="description"/>\n  <link href="http://plus.monster.com/+monster" rel="publisher"/>\n  <link href="https://maxcdn.bootstrapcdn.com/bootstrap/3.2.0/css/bootstrap.min.css" rel="stylesheet"/>\n  <link href="https://maxcdn.bootstrapcdn.com/font-awesome/4.2.0/css/font-awesome.min.css" rel="stylesheet"/>\n  <link href="/bundles/monster?v=3VUpvWSKWfcSTe2LCMpXVIfzIyGEJcLvPJMZUFZH8gg1" rel="stylesheet"/>\n  <!-- Favicon -->\n  <link href="http://media.newjobs.com/niche/img/favicon/favicon.ico" rel="shortcut icon"/>\n  <meta content="noindex, nofollow" name="robots"/>\n  <meta content="Monster" name="m_impr.a_affiliate_id"/>\n  <meta content="jobview" name="_ac.page_name"/>\n  <!-- Le HTML5 shim, for IE6-8 support of HTML5 elements -->\n  <!--[if lt IE 9]>\r\n    <script src="/scripts/third_party/html5shiv.js"></script>\r\n    <script src="/scripts/bootstrap/respond.min.js" type="text/javascript"></script>\r\n\r\n    <script type="text/javascript">\r\n        if (!Array.prototype.forEach) {\r\n            Array.prototype.forEach = function (fun /*, thisArg */) {\r\n                "use strict";\r\n                if (this === void 0 || this === null || typeof fun !== "function") throw new TypeError();\r\n\r\n                var\r\n                    t = Object(this),\r\n                    len = t.length >>> 0,\r\n                    thisArg = arguments.length >= 2 ? arguments[1] : void 0;\r\n\r\n                for (var i = 0; i < len; i++)\r\n                    if (i in t)\r\n                        fun.call(thisArg, t[i], i, t);\r\n            };\r\n        }\r\n    </script>\r\n<![endif]-->\n </head>\n <body>\n  <div class="page">\n   <div class="navbar navbar-default navbar-fixed-top">\n    <div class="container">\n     <!--<div class="container">-->\n     <div class="navbar-header" itemscope="" itemtype="http://schema.org/Organization">\n      <a class="navbar-brand" href="http://www.monster.com" itemprop="url">\n       <img alt="monster.com" itemprop="logo" src="/Areas/JobViewCloud/content/images/monster-new.png" title="monster.com"/>\n      </a>\n     </div>\n     <!-- large screen navbar-collapse location -->\n     <div class="navbar-collapse collapse hidden-xs">\n     </div>\n     <!--/.navbar-collapse -->\n    </div>\n    <!-- ./container -->\n   </div>\n   <!-- ./navbar -->\n   <div class="jobview container">\n    <div class="row">\n     <input id="normalized-company-id" type="hidden" value="106479"/>\n     <div class="col-xs-12 col-sm-6 col-md-8 col-lg-8">\n      <article id="jobview">\n       <header class="jobview-header">\n        <h3>\n         Software Engineer, Tools and Infrastructure (Bozeman)\n        </h3>\n        <h4 class="company">\n         Dataminr\n         <small class="location">\n          -\n          <i class="fa fa-map-marker">\n          </i>\n          Bozeman, MT 59715\n         </small>\n        </h4>\n        <span class="postedDate">\n         <strong>\n          Posted:\n         </strong>\n         3/29/2017\n        </span>\n       </header>\n       <!-- ./jobview-header -->\n       <div class="jobview-upper-apply-mobile visible-xs row">\n        <div class="col-sm-6">\n         <div class="action-buttons">\n          <input id="trackInfo" type="hidden" value=\'{"emailAddress":"","postingId":"8129a947-efe6-4992-b0c0-a9989807543b","placementID":null,"jobPosition":0,"uniqueUser":null,"affiliate":"Monster","technology":null}\'/>\n          <a class="btn btn-sm btn-primary btn-jobsdotcom" data-action="apply" data-applyurl="https://boards.greenhouse.io/dataminr/jobs/647255" data-atm-id="35" data-confurl="http://job-openings.monster.com/monster/confirmation?postingid=8129a947-efe6-4992-b0c0-a9989807543b" data-form-selector=".email-collection" href="http://job-openings.monster.com/monster/confirmation?postingid=8129a947-efe6-4992-b0c0-a9989807543b" rel="nofollow" role="button">\n           Apply Now\n          </a>\n          <form action="https://boards.greenhouse.io/dataminr/jobs/647255" aria-hidden="true" class="email-collection hidden panel panel-default" data-id="8129a947-efe6-4992-b0c0-a9989807543b" data-lrtype="B" data-placement="Left-Bottom-Body" data-position="0" data-remote-subscription="/LiteReg/ApplySubscription" data-remote-validation="/LiteReg/IsEmailValid" data-technology="" method="POST" target="_blank">\n           <div class="panel-body">\n            <div class="row-flex">\n             <div class="col-flex stretch">\n              <input class="form-control input-sm" id="EmailCollectionField2" name="litRegEmailAddress" placeholder="Please enter your email" type="email"/>\n             </div>\n            </div>\n            <label class="control-label" for="EmailCollectionField2">\n             To begin the application, please enter your email\n            </label>\n            <span class="help-block small">\n             By continuing you agree to Monster\'s\n             <a href="http://my.monster.com/Privacy/Default.aspx" target="_blank" title="Privacy Policy">\n              Privacy Policy\n             </a>\n             ,\n             <a href="http://my.monster.com/Terms/Default.aspx" target="_blank" title="Terms of Use">\n              Terms of Use\n             </a>\n             and\n             <a href="http://inside.monster.com/cookie-info/inside2.aspx" target="_blank" title="use of cookies">\n              use of cookies\n             </a>\n             .\n            </span>\n            <button class="sr-only" type="submit">\n             Continue application\n            </button>\n           </div>\n          </form>\n         </div>\n        </div>\n       </div>\n       <div class="jobview-section">\n        Min. Experience: 3+ years\n        <br/>\n        <br/>\n        Location: Bozeman, MT\n        <br/>\n        <br/>\n        Who we are:\n        <br/>\n        <br/>\n        We are Dataminr, the leading company that turns social media into real-time, actionable alerts. Our ability to find and deliver information faster than any traditional source has completely revolutionized how critical, relevant and actionable information reaches the news, finance, public sector and corporate security industries.\n        <br/>\n        <br/>\n        We are one of the most exciting companies to work for and have been referred to as the "super tool of journalists and hedge funds" while also receiving numerous accolades from professionals in both the corporate security area and public sector. We\'ve been named to CNBC\'s Disruptor 50 list in 2014 and 2016, the Forbes FinTech 50 list in 2016, added to the AlwaysOn Global 250 Top Private Companies list and received an invitation to speak at the World Economic Forum.\n        <br/>\n        <br/>\n        Headquartered in New York City and nearing 200 employees, Dataminr provides a challenging and dynamic environment where everyone feels that they have the freedom to be innovative, impactful and influential. Our culture promotes team interaction, work-life balance and the sharing of information and ideas because it empowers us to do our best work and have fun. If you want to be a part of the most interesting and exciting high-growth tech company in New York, please keep reading!\n        <br/>\n        <br/>\n        Who you are:\n        <br/>\n        <br/>\n        You are a skilled developer with a passion for scalable and reliable systems, code quality, and engineering efficiency. As a Software Engineer focusing on Tools and Infrastructure, you will ensure the high-quality delivery of our software with a rapidly growing team, by building the frameworks and tools needed by software engineers and data scientists to thoroughly validate, deploy, and monitor their code. In this role, you will be a champion for best practices and a quality mentor to the rest of the engineering organization. A successful candidate will be a well-rounded engineer with experience in systems automation and tool development, who thrives when solving diverse technical problems in a fast-paced environment.\n        <br/>\n        <br/>\n        In this role, you will:\n        <br/>\n        <br/>\n        * Develop and maintain tools used by engineering for monitoring, event collection, and downtime tracking\n        <br/>\n        <br/>\n        * Develop deployment and automation tools to manage a rapidly growing number of services\n        <br/>\n        <br/>\n        * Drive improvements in security, scalability, reliability, and performance\n        <br/>\n        <br/>\n        * Troubleshoot large-scale distributed systems (hardware, software, applications, and network)\n        <br/>\n        <br/>\n        * Develop continuous integration systems and test frameworks\n        <br/>\n        <br/>\n        Desired Skills &amp; Experience:\n        <br/>\n        <br/>\n        * BS/MS in Computer Science or equivalent\n        <br/>\n        <br/>\n        * Expert knowledge of Linux/Unix\n        <br/>\n        <br/>\n        * Strong coding experience in Java, Python, C/C++, or Go\n        <br/>\n        <br/>\n        * Strong scripting skills in Shell or another common language\n        <br/>\n        <br/>\n        * Experience with monitoring/graphing tools including InfluxDB/OpenTSDB, Grafana, ELK stack\n        <br/>\n        <br/>\n        * Knowledge of IP networking, network analysis, performance and application issues\n        <br/>\n        <br/>\n        * 3+ years of tools development experience\n        <br/>\n        <br/>\n        * Natural curiosity, critical thinker, strong attention to detail, highly organized\n        <br/>\n        <br/>\n        * Self-motivation and an ability to handle multiple competing priorities in a fast-paced environment\n        <br/>\n        <br/>\n        Our offering of competitive benefits and perks include:\n        <br/>\n        <br/>\n        * Company paid benefits for employees and their dependents, such as medical, dental, vision, disability and life\n        <br/>\n        <br/>\n        * Flexible spending account to be used for out-of-pocket medical, transit, parking and dependent care expenses\n        <br/>\n        <br/>\n        * 401(k) savings plan\n        <br/>\n        <br/>\n        * Generous leave\n        <br/>\n        <br/>\n        * Daily catered lunch\n        <br/>\n        <br/>\n        * A kitchen fully stocked with snacks and beverages\n        <br/>\n        <br/>\n        \xe2\x80\xa6and this is just to name a few!\n        <br/>\n        <br/>\n        Dataminr is an equal opportunity and affirmative action employer. Individuals seeking employment at Dataminr are considered without regards to race, sex, color, creed, religion, national origin, age, disability, genetics, marital status, pregnancy, unemployment status, sexual orientation, citizenship status or veteran status.\n       </div>\n       <!-- ./jobview-section -->\n       <div class="hidden-xs jobview-footer row">\n        <div class="col-sm-6">\n         <div class="action-buttons">\n          <input id="trackInfo" type="hidden" value=\'{"emailAddress":"","postingId":"8129a947-efe6-4992-b0c0-a9989807543b","placementID":null,"jobPosition":0,"uniqueUser":null,"affiliate":"Monster","technology":null}\'/>\n          <a class="btn btn-sm btn-primary btn-jobsdotcom" data-action="apply" data-applyurl="https://boards.greenhouse.io/dataminr/jobs/647255" data-atm-id="35" data-confurl="http://job-openings.monster.com/monster/confirmation?postingid=8129a947-efe6-4992-b0c0-a9989807543b" data-form-selector=".email-collection" href="http://job-openings.monster.com/monster/confirmation?postingid=8129a947-efe6-4992-b0c0-a9989807543b" rel="nofollow" role="button">\n           Apply Now\n          </a>\n          <form action="https://boards.greenhouse.io/dataminr/jobs/647255" aria-hidden="true" class="email-collection hidden panel panel-default" data-id="8129a947-efe6-4992-b0c0-a9989807543b" data-lrtype="B" data-placement="Left-Bottom-Body" data-position="0" data-remote-subscription="/LiteReg/ApplySubscription" data-remote-validation="/LiteReg/IsEmailValid" data-technology="" method="POST" target="_blank">\n           <div class="panel-body">\n            <div class="row-flex">\n             <div class="col-flex stretch">\n              <input class="form-control input-sm" id="EmailCollectionField2" name="litRegEmailAddress" placeholder="Please enter your email" type="email"/>\n             </div>\n            </div>\n            <label class="control-label" for="EmailCollectionField2">\n             To begin the application, please enter your email\n            </label>\n            <span class="help-block small">\n             By continuing you agree to Monster\'s\n             <a href="http://my.monster.com/Privacy/Default.aspx" target="_blank" title="Privacy Policy">\n              Privacy Policy\n             </a>\n             ,\n             <a href="http://my.monster.com/Terms/Default.aspx" target="_blank" title="Terms of Use">\n              Terms of Use\n             </a>\n             and\n             <a href="http://inside.monster.com/cookie-info/inside2.aspx" target="_blank" title="use of cookies">\n              use of cookies\n             </a>\n             .\n            </span>\n            <button class="sr-only" type="submit">\n             Continue application\n            </button>\n           </div>\n          </form>\n         </div>\n        </div>\n       </div>\n       <!-- ./jobview-footer -->\n      </article>\n      <!-- ./#jobview -->\n     </div>\n     <div class="col-xs-12 col-sm-6 col-md-4 col-lg-4">\n      <div class="jobview-affix">\n       <div style="background-color: #fff;">\n        <input id="trackInfo" type="hidden" value=\'{"emailAddress":"","postingId":"8129a947-efe6-4992-b0c0-a9989807543b","placementID":null,"jobPosition":0,"uniqueUser":null,"affiliate":"Monster","technology":null}\'/>\n        <form action="https://boards.greenhouse.io/dataminr/jobs/647255" aria-hidden="true" class="email-collection hidden" data-id="8129a947-efe6-4992-b0c0-a9989807543b" data-lrtype="R" data-placement="Right-Top-Rail" data-position="0" data-remote-subscription="/LiteReg/ApplySubscription" data-remote-validation="/LiteReg/IsEmailValid" data-technology="" method="POST" target="_blank">\n         <div class="form-group">\n          <label class="control-label" for="EmailCollectionField1">\n           To begin the application, please enter your email\n          </label>\n          <input class="form-control input-sm" id="EmailCollectionField1" name="litRegEmailAddress" placeholder="Please enter your email" type="email"/>\n         </div>\n         <span class="help-block small">\n          By continuing you agree to Monster\'s\n          <a href="http://my.monster.com/Privacy/Default.aspx" target="_blank" title="Privacy Policy">\n           Privacy Policy\n          </a>\n          ,\n          <a href="http://my.monster.com/Terms/Default.aspx" target="_blank" title="Terms of Use">\n           Terms of Use\n          </a>\n          and\n          <a href="http://inside.monster.com/cookie-info/inside2.aspx" target="_blank" title="use of cookies">\n           use of cookies\n          </a>\n          .\n         </span>\n         <button class="sr-only" type="submit">\n          Continue application\n         </button>\n        </form>\n        <a class="btn btn-sm btn-primary btn-block btn-jobsdotcom" data-action="apply" data-applyurl="https://boards.greenhouse.io/dataminr/jobs/647255" data-atm-id="36" data-confurl="http://job-openings.monster.com/monster/confirmation?postingid=8129a947-efe6-4992-b0c0-a9989807543b" data-form-selector=".email-collection" href="http://job-openings.monster.com/monster/confirmation?postingid=8129a947-efe6-4992-b0c0-a9989807543b" rel="nofollow" role="button">\n         Apply Now\n        </a>\n        <div class="social-sharing no-logo">\n         <h5>\n          Share this Job\n         </h5>\n         <a href="https://www.twitter.com/share?url=%20&amp;text=Software+Engineer%2c+Tools+and+Infrastructure+(Bozeman) at Dataminr http://job-openings.monster.com/monster/8129a947-efe6-4992-b0c0-a9989807543b via @monster" target="_blank" title="Share this job on Twitter">\n          <i class="fa fa-2x fa-twitter" style="margin: 0 4px;">\n          </i>\n         </a>\n         <a href="https://plus.google.com/share?url=http://job-openings.monster.com/monster/8129a947-efe6-4992-b0c0-a9989807543b" target="_blank" title="Share this job on Google+">\n          <i class="fa fa-2x fa-google-plus" style="margin: 0 4px;">\n          </i>\n         </a>\n         <a href="mailto: ?subject=Software Engineer, Tools and Infrastructure (Bozeman) - Dataminr | Monster.com&amp;body=Dataminr http://job-openings.monster.com/monster/8129a947-efe6-4992-b0c0-a9989807543b" title="Share this job via Email">\n          <i class="fa fa-2x fa-envelope-o" style="margin: 0 4px;">\n          </i>\n         </a>\n        </div>\n       </div>\n       <div>\n        <div class="jobview-related-jobs" id="relatedJobs">\n         <div class="related-job-container">\n          <h5>\n           Related Jobs\n          </h5>\n          <ul class="list-unstyled">\n           <li>\n            <a class="cloudJobs" data-m_impr_a_placement_id="rjv1" data-m_impr_j_cid="2" data-m_impr_j_coc="xnportx " data-m_impr_j_jawsid="226225903" data-m_impr_j_jobid="182330349" data-m_impr_j_jpm="1" data-m_impr_j_jpt="1" data-m_impr_j_lat="1356891" data-m_impr_j_lid="699" data-m_impr_j_long="690705" data-m_impr_j_occid="0" data-m_impr_j_p="1" data-m_impr_j_postingid="3af3c181-aee0-40fc-8e6e-2902df9b46d4" data-m_impr_j_pvc="monster" data-m_impr_s_search_query="" data-m_impr_s_t="RE_RE" data-m_impr_uuid="91665de7-904d-455a-9987-a7e087960567" href="http://jobview.monster.com/Component-Researcher-Temp-Position-Job-Bozeman-MT-US-182330349.aspx?intcid=" onclick="jobClick(this, \'http://jobview.monster.com/Component-Researcher-Temp-Position-Job-Bozeman-MT-US-182330349.aspx?intcid=\', \'newjobsprodseekerus\', \'click on jobview from jobview\')" rel="nofollow" target="_blank" title="View This Job: Component Researcher, Temp Position">\n             Component Researcher, Temp Position\n            </a>\n            <div class="location small text-muted">\n             Newport Corp., Bozeman - MT\n            </div>\n           </li>\n           <li>\n            <a class="cloudJobs" data-m_impr_a_placement_id="rjv1" data-m_impr_j_cid="47" data-m_impr_j_coc="xnportx " data-m_impr_j_jawsid="225983502" data-m_impr_j_jobid="182255185" data-m_impr_j_jpm="1" data-m_impr_j_jpt="1" data-m_impr_j_lat="1356891" data-m_impr_j_lid="699" data-m_impr_j_long="690705" data-m_impr_j_occid="0" data-m_impr_j_p="2" data-m_impr_j_postingid="e70d3fde-e11c-4a31-883a-1d4ab47ef3b3" data-m_impr_j_pvc="monster" data-m_impr_s_search_query="" data-m_impr_s_t="RE_RE" data-m_impr_uuid="56723c04-0283-431e-939f-fc12d1e755e2" href="http://jobview.monster.com/Supervisor-Manufacturing-Engineering-Job-Bozeman-MT-US-182255185.aspx?intcid=" onclick="jobClick(this, \'http://jobview.monster.com/Supervisor-Manufacturing-Engineering-Job-Bozeman-MT-US-182255185.aspx?intcid=\', \'newjobsprodseekerus\', \'click on jobview from jobview\')" rel="nofollow" target="_blank" title="View This Job: Supervisor, Manufacturing Engineering">\n             Supervisor, Manufacturing Engineering\n            </a>\n            <div class="location small text-muted">\n             Newport Corp., Bozeman - MT\n            </div>\n           </li>\n           <li>\n            <a class="cloudJobs" data-m_impr_a_placement_id="rjv1" data-m_impr_j_cid="0" data-m_impr_j_coc="" data-m_impr_j_jawsid="230152970" data-m_impr_j_jobid="" data-m_impr_j_jpm="1" data-m_impr_j_jpt="2" data-m_impr_j_lat="45" data-m_impr_j_lid="699" data-m_impr_j_long="-111" data-m_impr_j_occid="0" data-m_impr_j_p="3" data-m_impr_j_postingid="0356a5aa-04bc-4fec-a4a9-a4f722f12807" data-m_impr_j_pvc="tmpverizon" data-m_impr_s_search_query="" data-m_impr_s_t="RE_RE_JSJ" data-m_impr_uuid="e6042a3e-fb27-4d9b-a6d3-35eea8f456c0" href="http://job-openings.monster.com/monster/0356a5aa-04bc-4fec-a4a9-a4f722f12807?intcid=js" onclick="jobClick(this, \'http://job-openings.monster.com/monster/0356a5aa-04bc-4fec-a4a9-a4f722f12807?intcid=js\', \'newjobsprodseekerus\', \'click on jobview from jobview\')" rel="nofollow" target="_blank" title="View This Job: Retail Sales Representative">\n             Retail Sales Representative\n            </a>\n            <div class="location small text-muted">\n             Verizon, Bozeman - MT\n            </div>\n           </li>\n           <li>\n            <a class="cloudJobs" data-m_impr_a_placement_id="rjv1" data-m_impr_j_cid="0" data-m_impr_j_coc="" data-m_impr_j_jawsid="227528554" data-m_impr_j_jobid="" data-m_impr_j_jpm="1" data-m_impr_j_jpt="2" data-m_impr_j_lat="45" data-m_impr_j_lid="699" data-m_impr_j_long="-111" data-m_impr_j_occid="0" data-m_impr_j_p="4" data-m_impr_j_postingid="b68c316c-e064-4136-89a9-7287396fd097" data-m_impr_j_pvc="88b486ce-dc55-4dac-848e-45272730209d" data-m_impr_s_search_query="" data-m_impr_s_t="RE_RE_JSJ" data-m_impr_uuid="1777012d-6f7e-47c8-84f8-1011943f7f6c" href="http://job-openings.monster.com/monster/b68c316c-e064-4136-89a9-7287396fd097?intcid=js" onclick="jobClick(this, \'http://job-openings.monster.com/monster/b68c316c-e064-4136-89a9-7287396fd097?intcid=js\', \'newjobsprodseekerus\', \'click on jobview from jobview\')" rel="nofollow" target="_blank" title="View This Job: SWING DRIVER CLASS A CDL">\n             SWING DRIVER CLASS A CDL\n            </a>\n            <div class="location small text-muted">\n             Republic Services, Inc, Bozeman - MT\n            </div>\n           </li>\n           <li>\n            <a class="cloudJobs" data-m_impr_a_placement_id="rjv1" data-m_impr_j_cid="0" data-m_impr_j_coc="xw132304998wx" data-m_impr_j_jawsid="208615939" data-m_impr_j_jobid="179436281" data-m_impr_j_jpm="1" data-m_impr_j_jpt="1" data-m_impr_j_lat="45" data-m_impr_j_lid="699" data-m_impr_j_long="-110" data-m_impr_j_occid="0" data-m_impr_j_p="5" data-m_impr_j_postingid="c47b74cc-2e66-42d6-9d1e-dccce9669596" data-m_impr_j_pvc="monster" data-m_impr_s_search_query="" data-m_impr_s_t="RE_RE_JSJ" data-m_impr_uuid="f261147a-942d-4310-965c-da19ca9acc07" href="http://jobview.monster.com/Manager-of-Enterprise-Integrations-Bozeman-MT-34780-Job-Bozeman-MT-US-179436281.aspx?intcid=js" onclick="jobClick(this, \'http://jobview.monster.com/Manager-of-Enterprise-Integrations-Bozeman-MT-34780-Job-Bozeman-MT-US-179436281.aspx?intcid=js\', \'newjobsprodseekerus\', \'click on jobview from jobview\')" rel="nofollow" target="_blank" title="View This Job: Manager of Enterprise Integrations - Bozeman, MT (#34780)">\n             Manager of Enterprise Integrations - Bozeman, MT (#34780)\n            </a>\n            <div class="location small text-muted">\n             Arrow Solutions Group, Bozeman - MT\n            </div>\n           </li>\n           <li>\n            <a class="cloudJobs" data-m_impr_a_placement_id="rjv1" data-m_impr_j_cid="0" data-m_impr_j_coc="xcenturylinkx" data-m_impr_j_jawsid="230144489" data-m_impr_j_jobid="183018119" data-m_impr_j_jpm="1" data-m_impr_j_jpt="1" data-m_impr_j_lat="45" data-m_impr_j_lid="699" data-m_impr_j_long="-111" data-m_impr_j_occid="0" data-m_impr_j_p="6" data-m_impr_j_postingid="5815e1c9-7ec5-4f5a-85dd-a04274d9a29a" data-m_impr_j_pvc="monster" data-m_impr_s_search_query="" data-m_impr_s_t="RE_RE_JSJ" data-m_impr_uuid="cc7c61e0-1149-45b9-bd67-8d5fc4ea4863" href="http://jobview.monster.com/Engineer-I-Telecom-Construction-Job-Bozeman-MT-US-183018119.aspx?intcid=js" onclick="jobClick(this, \'http://jobview.monster.com/Engineer-I-Telecom-Construction-Job-Bozeman-MT-US-183018119.aspx?intcid=js\', \'newjobsprodseekerus\', \'click on jobview from jobview\')" rel="nofollow" target="_blank" title="View This Job: Engineer I - Telecom Construction">\n             Engineer I - Telecom Construction\n            </a>\n            <div class="location small text-muted">\n             CenturyLink, Bozeman - MT\n            </div>\n           </li>\n           <li>\n            <a class="cloudJobs" data-m_impr_a_placement_id="rjv1" data-m_impr_j_cid="0" data-m_impr_j_coc="xnportx" data-m_impr_j_jawsid="229721580" data-m_impr_j_jobid="182947036" data-m_impr_j_jpm="1" data-m_impr_j_jpt="1" data-m_impr_j_lat="45" data-m_impr_j_lid="699" data-m_impr_j_long="-110" data-m_impr_j_occid="0" data-m_impr_j_p="7" data-m_impr_j_postingid="6dac4dde-9cde-4cc1-a6cb-de9074c0ccb8" data-m_impr_j_pvc="monster" data-m_impr_s_search_query="" data-m_impr_s_t="RE_RE_JSJ" data-m_impr_uuid="e2f36717-e079-465a-8b2f-12a7645623fa" href="http://jobview.monster.com/Firmware-Engineer-Job-Bozeman-MT-US-182947036.aspx?intcid=js" onclick="jobClick(this, \'http://jobview.monster.com/Firmware-Engineer-Job-Bozeman-MT-US-182947036.aspx?intcid=js\', \'newjobsprodseekerus\', \'click on jobview from jobview\')" rel="nofollow" target="_blank" title="View This Job: Firmware Engineer">\n             Firmware Engineer\n            </a>\n            <div class="location small text-muted">\n             Newport Corp., Bozeman - MT\n            </div>\n           </li>\n          </ul>\n          <!-- jrs-job=226432358&amp;count=6 -->\n         </div>\n        </div>\n        <div>\n         <h5>\n          More\n         </h5>\n         <a href="http://www.monster.com/jobs/search/?client=power&amp;q=IT/Software Development&amp;where=Bozeman , MT&amp;intcid=more_jobs_category_location" title="See all IT/Software Development jobs in Bozeman, MT">\n          See all IT/Software Development jobs in Bozeman, MT\n         </a>\n         <br/>\n         <a href="http://www.monster.com/jobs/search/?client=power&amp;q=Software/System Architecture&amp;intcid=more_jobs_occupation" title="See all Software/System Architecture jobs">\n          See all Software/System Architecture jobs\n         </a>\n         <br/>\n         <a class="aut-city-search" href="http://www.monster.com/jobs/search/?client=power&amp;where=Bozeman , MT&amp;intcid=more_jobs_location" title="See all jobs in Bozeman">\n          See all jobs in Bozeman\n         </a>\n        </div>\n       </div>\n       <div class="oasAdsContainer">\n        <div>\n         <!-- 1st Section Begins : Delivery via OAS JX Tag -->\n         <script type="text/javascript">\n          window.MonsterAdds = window.MonsterAdds || {};\r\n\r\n            MonsterAdds.writeScript = function (showMobile) {\r\n                //TODO add mobile test if needed, see AdBlock.cshtml\r\n                document.write("<scr" + "ipt type=\'text/javascript\' src=\'//oas.monster.com/RealMedia/ads/adstream_jx.ads/us.monster.en/aggjobview/11707202916@Right3?size=300x250&site=mons&affiliate=Monster&app=js&oas_pv=no_analytics&fb=0&moc=11969&st=MT&pci=Bozeman&pcy=US&proejc=660&key=IT%2fSoftware+Development&plid=699&pcid=2132&poccid=11969&mesco=1500127001001\'><\\/script>");\r\n            };\r\n\r\n            MonsterAdds.writeScript(true);\n         </script>\n         <!-- 2nd Section Begins : Delivery via OAS NX Tag for non-Javascript Browser -->\n         <noscript>\n          <a href="//oas.monster.com/RealMedia/ads/click_nx.ads/us.monster.en/aggjobview/1646486073@Right3?size=300x250&amp;site=mons&amp;affiliate=Monster&amp;app=js&amp;oas_pv=no_analytics&amp;fb=0&amp;moc=11969&amp;st=MT&amp;pci=Bozeman&amp;pcy=US&amp;proejc=660&amp;key=IT%2fSoftware+Development&amp;plid=699&amp;pcid=2132&amp;poccid=11969&amp;mesco=1500127001001">\n           <img src="//oas.monster.com/RealMedia/ads/click_nx.ads/us.monster.en/aggjobview/1914141323@Right3?size=300x250&amp;site=mons&amp;affiliate=Monster&amp;app=js&amp;oas_pv=no_analytics&amp;fb=0&amp;moc=11969&amp;st=MT&amp;pci=Bozeman&amp;pcy=US&amp;proejc=660&amp;key=IT%2fSoftware+Development&amp;plid=699&amp;pcid=2132&amp;poccid=11969&amp;mesco=1500127001001"/>\n          </a>\n         </noscript>\n        </div>\n       </div>\n      </div>\n      <div class="hidden-xs affix-fix">\n      </div>\n     </div>\n    </div>\n    <!-- ./row -->\n    <div class="modal fade" id="subscriptionModal">\n     <div class="modal-dialog">\n      <div class="modal-content">\n       <div class="modal-body">\n        <div class="email-collection promoted">\n         <div class="icon">\n         </div>\n         <h4 class="title">\n          Get new similar jobs by email for\n         </h4>\n         <p class="desc">\n          Software Engineer, Tools and Infrastructure (Bozeman)\n         </p>\n         <form action="" aria-hidden="true" class="email-jvsub-collection" data-id="8129a947-efe6-4992-b0c0-a9989807543b" data-remote-subscribe="/LiteReg/JobViewSubscription" data-remote-validation="/LiteReg/IsEmailValid" id="modalForm" method="POST">\n          <div class="row-flex">\n           <div class="col-flex stretch">\n            <input class="form-control input-sm" id="emailAddress" name="emailAddress" placeholder="Please enter your email" type="email"/>\n           </div>\n           <div class="col-flex">\n            <a class="btn btn-sm btn-primary btn-jobsdotcom" data-action="modal-subscription" data-form-selector=".email-jvsub-collection" href="#" rel="nofollow" role="button">\n             Email me jobs\n            </a>\n           </div>\n           <div class="col-flex">\n            <a class="btn btn-link btn-sm" href="#" id="cancelModal">\n             Skip\n            </a>\n           </div>\n          </div>\n         </form>\n        </div>\n       </div>\n       <div class="modal-footer">\n        <span class="help-block small">\n         By continuing you agree to Monster\'s\n         <a href="http://my.monster.com/Privacy/Default.aspx" target="_blank" title="Privacy Policy">\n          Privacy Policy\n         </a>\n         ,\n         <a href="http://my.monster.com/Terms/Default.aspx" target="_blank" title="Terms of Use">\n          Terms of Use\n         </a>\n         and\n         <a href="http://inside.monster.com/cookie-info/inside2.aspx" target="_blank" title="use of cookies">\n          use of cookies\n         </a>\n         .\n        </span>\n       </div>\n       <div class="help-block small alert-success" style="display: none;">\n        You will start receiving jobs like this emailed to: {emailaddress}\n       </div>\n      </div>\n      <!-- /.modal-content -->\n     </div>\n     <!-- /.modal-dialog -->\n    </div>\n    <!-- /.modal -->\n    <script id="ApplySubscriptionThankYou" type="text/template">\n     <p><b>Thank you for applying for:</b><br />Software Engineer, Tools and Infrastructure (Bozeman) in Bozeman, MT 59715</p>\r\n        <p class="text-muted">To check your full apply history, <a href=https://login20.monster.com>log in</a> or <a href=http://my.monster.com/Become-Member/Create-Account>create an account.</a></p>\n    </script>\n    <script type="text/javascript">\n     var script = document.createElement("script");\r\n    script.type = "text/javascript";\r\n    script.async = true;\r\n    script.src = "//nexus.ensighten.com/monster/Bootstrap.js";\r\n    document.head.appendChild(script);\n    </script>\n   </div>\n   <footer class="page-footer">\n    <div class="container">\n     <div class="row">\n      <div class="col-md-12">\n       <!-- Copyright info -->\n       <p class="copy">\n        Copyright \xc2\xa9 2015 |\n        <a href="http://www.monster.com">\n         Monster Worldwide\n        </a>\n       </p>\n      </div>\n     </div>\n    </div>\n   </footer>\n   <script src="/js/jobviewjs?v=Qp96d4MjGz4yVpoQyg3bu08SRTYnAxoYIMyQbxHelEg1">\n   </script>\n   <!--tracking script-->\n   <script src="http://logs.jobs.com/impression_trackingv2.js" type="text/javascript">\n   </script>\n   <script type="text/javascript">\n    monster.controls.add("monster.jv.base.tracking", {"cloudApiDomain":"logs.jobs.com"});\n   </script>\n   <script type="text/javascript">\n    monster.controls.add("monster.jv.base.jobview", {});\n   </script>\n   <script type="text/javascript">\n    monster.controls.add("monster.jv.base.subscription", {});\n   </script>\n   <script type="text/javascript">\n    monster.controls.add("monster.jv.base.subscriptionModal", {});\n   </script>\n   <script type="text/javascript">\n    monster.controls.add("monster.jv.base.banner", {});\n   </script>\n   <script type="text/javascript">\n    monster.controls.add("monster.jv.base.tooltip", {});\n   </script>\n  </div>\n  <!-- Google Analytics Script Start -->\n  <script>\n   (function (i, s, o, g, r, a, m) {\r\n            i[\'GoogleAnalyticsObject\'] = r; i[r] = i[r] || function () {\r\n                (i[r].q = i[r].q || []).push(arguments)\r\n            }, i[r].l = 1 * new Date(); a = s.createElement(o),\r\n            m = s.getElementsByTagName(o)[0]; a.async = 1; a.src = g; m.parentNode.insertBefore(a, m)\r\n        })(window, document, \'script\', \'//www.google-analytics.com/analytics.js\', \'ga\');\r\n\r\n        ga(\'create\', \'UA-41898665-3\', \'jobs.com\');\r\n        ga(\'send\', \'pageview\');\n  </script>\n  <!--Google Analytics Script End -->\n  <script type="text/javascript">\n   monster.eventBus.pub(monster.Events.PAGE_LOAD);\n  </script>\n  <!-- Site Catalyst Start -->\n  <script src="http://media.newjobs.com/js/global/at_1.5.js" type="text/javascript">\n  </script>\n  <script type="text/javascript">\n   var DYNAMIC_S_ACCOUNT = \'newjobsProdseekerUS\';\r\n    var DYNAMIC_S_CURRENCYCODE = \'USD\';\r\n    //<![CDATA[\r\n    var amc = amc || {}; if (!amc.on) { amc.on = amc.call = function () { }; };\r\n    document.write("<scr" + "ipt type=\'text/javascript\' src=\'//media.monster.com/js/sc/sitecatalystLL.js\'></sc" + "ript>");\r\n    //]]>\r\n\r\n    _m.ATM.properties = {"channel":"58","eVar1":"D=g","prop1":"D=g","eVar4":"0","eVar2":"unrecognized","prop22":"N/A-Cloud","prop23":"N/A-Cloud","prop24":"1/1/0001","prop25":"N/A-Cloud","prop26":"N/A-Cloud","eVar25":"8129a947-efe6-4992-b0c0-a9989807543b_Software Engineer, Tools and Infrastructure (Bozeman)","eVar26":"2da441ce_Dataminr","eVar27":"N/A-Cloud","eVar28":"IT/Software Development","eVar29":"N/A-Cloud","eVar30":"Software/System Architecture","eVar31":"Bozeman_MT_US","eVar32":"N/A-Cloud","eVar33":"N/A-Cloud","eVar35":"Dataminr","eVar36":"App_Cstm","eVar37":"N/A-Cloud","eVar38":"R/L-Apply","eVar47":"2","eVar50":"Aggregated","eVar53":"1500127001001","eVar64":"106479","eVar66":"Monster","events.event3":"1","events.event30":"true","events.event42":"1","eVar61":"Group B RE - newconfirmation.aspx"};\r\n    _m.ATM.pageName = \'desktop|mons|jobs30|jobview\';\r\n    _m.ATM.appConfig = {version:\'0\',appID:\'jobviewcloud\',channelID:\'58\',countryID:\'164\'};\r\n    _m.ATM.runOnLoad=true;\r\n\r\n    $(document).ready(_m.ATM.initFromOnReady);\n  </script>\n  <!-- Site Catalyst End -->\n </body>\n</html>'
tp4
a(S'http://job-openings.monster.com/monster/a0ee8f39-d70b-4661-bb36-db54f430872c'
p5
S'<!DOCTYPE html>\n<!--[if lt IE 7]>      <html class="no-js lt-ie9 lt-ie8 lt-ie7"> <![endif]-->\n<!--[if IE 7]>         <html class="no-js lt-ie9 lt-ie8"> <![endif]-->\n<!--[if IE 8]>         <html class="no-js lt-ie9"> <![endif]-->\n<!--[if gt IE 8]><!-->\n<html class="no-js">\n <!--<![endif]-->\n <head>\n  <title>\n   Sales Development Opportunities - Fair, Isaac and Company | Jobs.com\n  </title>\n  <meta charset="utf-8"/>\n  <meta content="IE=edge,chrome=1" http-equiv="X-UA-Compatible"/>\n  <meta content="text/html; charset=utf-8" http-equiv="Content-Type"/>\n  <meta content="width=device-width, initial-scale=1.0" name="viewport"/>\n  <meta content="Fair, Isaac and Company - Bozeman, MT. FICO (NYSE: FICO) is a leading global analytics software company, helping b" name="description"/>\n  <link href="http://plus.monster.com/+monster" rel="publisher"/>\n  <link href="https://maxcdn.bootstrapcdn.com/bootstrap/3.2.0/css/bootstrap.min.css" rel="stylesheet"/>\n  <link href="https://maxcdn.bootstrapcdn.com/font-awesome/4.2.0/css/font-awesome.min.css" rel="stylesheet"/>\n  <link href="/bundles/monster?v=3VUpvWSKWfcSTe2LCMpXVIfzIyGEJcLvPJMZUFZH8gg1" rel="stylesheet"/>\n  <!-- Favicon -->\n  <link href="http://media.newjobs.com/niche/img/favicon/favicon.ico" rel="shortcut icon"/>\n  <meta content="noindex, nofollow" name="robots"/>\n  <meta content="Monster" name="m_impr.a_affiliate_id"/>\n  <meta content="jobview" name="_ac.page_name"/>\n  <!-- Le HTML5 shim, for IE6-8 support of HTML5 elements -->\n  <!--[if lt IE 9]>\r\n    <script src="/scripts/third_party/html5shiv.js"></script>\r\n    <script src="/scripts/bootstrap/respond.min.js" type="text/javascript"></script>\r\n\r\n    <script type="text/javascript">\r\n        if (!Array.prototype.forEach) {\r\n            Array.prototype.forEach = function (fun /*, thisArg */) {\r\n                "use strict";\r\n                if (this === void 0 || this === null || typeof fun !== "function") throw new TypeError();\r\n\r\n                var\r\n                    t = Object(this),\r\n                    len = t.length >>> 0,\r\n                    thisArg = arguments.length >= 2 ? arguments[1] : void 0;\r\n\r\n                for (var i = 0; i < len; i++)\r\n                    if (i in t)\r\n                        fun.call(thisArg, t[i], i, t);\r\n            };\r\n        }\r\n    </script>\r\n<![endif]-->\n </head>\n <body>\n  <div class="page">\n   <div class="navbar navbar-default navbar-fixed-top">\n    <div class="container">\n     <!--<div class="container">-->\n     <div class="navbar-header" itemscope="" itemtype="http://schema.org/Organization">\n      <a class="navbar-brand" href="http://www.monster.com" itemprop="url">\n       <img alt="monster.com" itemprop="logo" src="/Areas/JobViewCloud/content/images/monster-new.png" title="monster.com"/>\n      </a>\n     </div>\n     <!-- large screen navbar-collapse location -->\n     <div class="navbar-collapse collapse hidden-xs">\n     </div>\n     <!--/.navbar-collapse -->\n    </div>\n    <!-- ./container -->\n   </div>\n   <!-- ./navbar -->\n   <div class="jobview container">\n    <div class="row">\n     <input id="normalized-company-id" type="hidden" value="11380"/>\n     <div class="col-xs-12 col-sm-6 col-md-8 col-lg-8">\n      <article id="jobview">\n       <header class="jobview-header">\n        <h3>\n         Sales Development Opportunities\n        </h3>\n        <h4 class="company">\n         Fair, Isaac and Company\n         <small class="location">\n          -\n          <i class="fa fa-map-marker">\n          </i>\n          Bozeman, MT 59715\n         </small>\n        </h4>\n        <span class="postedDate">\n         <strong>\n          Posted:\n         </strong>\n         1/30/2017\n        </span>\n       </header>\n       <!-- ./jobview-header -->\n       <div class="jobview-upper-apply-mobile visible-xs row">\n        <div class="col-sm-6">\n         <div class="action-buttons">\n          <input id="trackInfo" type="hidden" value=\'{"emailAddress":"","postingId":"a0ee8f39-d70b-4661-bb36-db54f430872c","placementID":null,"jobPosition":0,"uniqueUser":null,"affiliate":"Monster","technology":null}\'/>\n          <a class="btn btn-sm btn-primary btn-jobsdotcom" data-action="apply" data-applyurl="https://fico.wd1.myworkdayjobs.com/en-US/External/job/US-BozemanMT/Sales-Development-Consultant_16777" data-atm-id="35" data-confurl="http://job-openings.monster.com/monster/confirmation?postingid=a0ee8f39-d70b-4661-bb36-db54f430872c" data-form-selector=".email-collection" href="http://job-openings.monster.com/monster/confirmation?postingid=a0ee8f39-d70b-4661-bb36-db54f430872c" rel="nofollow" role="button">\n           Apply Now\n          </a>\n          <form action="https://fico.wd1.myworkdayjobs.com/en-US/External/job/US-BozemanMT/Sales-Development-Consultant_16777" aria-hidden="true" class="email-collection hidden panel panel-default" data-id="a0ee8f39-d70b-4661-bb36-db54f430872c" data-lrtype="B" data-placement="Left-Bottom-Body" data-position="0" data-remote-subscription="/LiteReg/ApplySubscription" data-remote-validation="/LiteReg/IsEmailValid" data-technology="" method="POST" target="_blank">\n           <div class="panel-body">\n            <div class="row-flex">\n             <div class="col-flex stretch">\n              <input class="form-control input-sm" id="EmailCollectionField2" name="litRegEmailAddress" placeholder="Please enter your email" type="email"/>\n             </div>\n            </div>\n            <label class="control-label" for="EmailCollectionField2">\n             To begin the application, please enter your email\n            </label>\n            <span class="help-block small">\n             By continuing you agree to Monster\'s\n             <a href="http://my.monster.com/Privacy/Default.aspx" target="_blank" title="Privacy Policy">\n              Privacy Policy\n             </a>\n             ,\n             <a href="http://my.monster.com/Terms/Default.aspx" target="_blank" title="Terms of Use">\n              Terms of Use\n             </a>\n             and\n             <a href="http://inside.monster.com/cookie-info/inside2.aspx" target="_blank" title="use of cookies">\n              use of cookies\n             </a>\n             .\n            </span>\n            <button class="sr-only" type="submit">\n             Continue application\n            </button>\n           </div>\n          </form>\n         </div>\n        </div>\n       </div>\n       <div class="jobview-section">\n        FICO (NYSE: FICO) is a leading global analytics software company, helping businesses in 90+ countries make better decisions. Join our world-class team today and fulfill your career potential! Job Summary Job Description As a member of the Sales Development team, you\xe2\x80\x99ll leverage insights provided by the larger field marketing organization to contact prospective clients for a specific FICO solution or group of related solutions across an identified territory. Specific responsibilities include: Engaging in outbound calling to prospective clients to establish relationships, explore the prospect\xe2\x80\x99s technology needs and brief the customer on FICO\xe2\x80\x99s solution capabilities. Collaborating with assigned Pre-Sales and Solution Sales experts to further develop and close identified sales opportunities. Utilizing Salesforce tool to ensure best practice BANT processes are followed during client conversations leading to effective lead tracking. Leveraging digital and inside sales prospecting tools to increase connect rates, timely and relevant messaging and enhance your overall sales network. Requirements 1-2 years of experience selling technology solutions with experience doing so within the banking and insurance industries a plus. Demonstrated success in high volume customer prospecting activities to establish and build effective relationships. Proven ability to quickly learn complex business and technical environments in order to uncover client objectives, internal issues and solution sale opportunities. Experience using Salesforce and/or other technology tools to drive and manage prospecting activities a plus. Excellent verbal and written communications skills. Self-motivated with strong collaboration and teamwork skills aimed at achieving both individual and shared goals. Bachelor\xe2\x80\x99s degree required, preferably in a business, software engineering, data science or a related technical field of study. Our Rewards Structure Competitive base salary Compensation Mix: 70-80% Base Salary; 20-30% Targeted Incentive Incentive Drivers: Sales Accepted Leads (SALs), MBOs Development-focused culture supporting career advancement opportunities Comprehensive health and welfare benefits program 401(k) with 5% net match, immediate vesting Flexible work environment with competitive paid-time-off policies Why Make a Move to FICO? At FICO, you can advance your career with a leading organization in one of the fastest-growing fields in technology today \xe2\x80\x93 Big Data analytics. We have a 50+ year history of excellence in providing analytics and decision management solutions. Here are a few examples of our impact globally: Credit Scoring \xe2\x80\x94150+ billion FICO Scores have been sold to date, making it the most used credit score in the world. Fraud Detection and Security\xe2\x80\x942.5+ billion credit cards globally are protected by FICO fraud systems. Lending \xe2\x80\x943/4 of US mortgages are approved using the FICO Score. FICO\xe2\x80\x99s proven science leverages the latest technology to drive consumer behavior insights and optimize business processes. We help many of the world\xe2\x80\x99s leading banks, insurers, retailers, telecommunications providers and other firms reach a new level of success. Our success is founded on really talented people \xe2\x80\x93 just like you \xe2\x80\x93 who enjoy innovative and high-performance environments with the opportunity to grow. Join the FICO Family and help change the way business makes decisions! Learn more about how you can Fulfill your Potential at www.fico.com/Careers FICO is an Equal Employment Opportunity Employer that values the strength that diversity brings to the workplace.\n       </div>\n       <!-- ./jobview-section -->\n       <div class="hidden-xs jobview-footer row">\n        <div class="col-sm-6">\n         <div class="action-buttons">\n          <input id="trackInfo" type="hidden" value=\'{"emailAddress":"","postingId":"a0ee8f39-d70b-4661-bb36-db54f430872c","placementID":null,"jobPosition":0,"uniqueUser":null,"affiliate":"Monster","technology":null}\'/>\n          <a class="btn btn-sm btn-primary btn-jobsdotcom" data-action="apply" data-applyurl="https://fico.wd1.myworkdayjobs.com/en-US/External/job/US-BozemanMT/Sales-Development-Consultant_16777" data-atm-id="35" data-confurl="http://job-openings.monster.com/monster/confirmation?postingid=a0ee8f39-d70b-4661-bb36-db54f430872c" data-form-selector=".email-collection" href="http://job-openings.monster.com/monster/confirmation?postingid=a0ee8f39-d70b-4661-bb36-db54f430872c" rel="nofollow" role="button">\n           Apply Now\n          </a>\n          <form action="https://fico.wd1.myworkdayjobs.com/en-US/External/job/US-BozemanMT/Sales-Development-Consultant_16777" aria-hidden="true" class="email-collection hidden panel panel-default" data-id="a0ee8f39-d70b-4661-bb36-db54f430872c" data-lrtype="B" data-placement="Left-Bottom-Body" data-position="0" data-remote-subscription="/LiteReg/ApplySubscription" data-remote-validation="/LiteReg/IsEmailValid" data-technology="" method="POST" target="_blank">\n           <div class="panel-body">\n            <div class="row-flex">\n             <div class="col-flex stretch">\n              <input class="form-control input-sm" id="EmailCollectionField2" name="litRegEmailAddress" placeholder="Please enter your email" type="email"/>\n             </div>\n            </div>\n            <label class="control-label" for="EmailCollectionField2">\n             To begin the application, please enter your email\n            </label>\n            <span class="help-block small">\n             By continuing you agree to Monster\'s\n             <a href="http://my.monster.com/Privacy/Default.aspx" target="_blank" title="Privacy Policy">\n              Privacy Policy\n             </a>\n             ,\n             <a href="http://my.monster.com/Terms/Default.aspx" target="_blank" title="Terms of Use">\n              Terms of Use\n             </a>\n             and\n             <a href="http://inside.monster.com/cookie-info/inside2.aspx" target="_blank" title="use of cookies">\n              use of cookies\n             </a>\n             .\n            </span>\n            <button class="sr-only" type="submit">\n             Continue application\n            </button>\n           </div>\n          </form>\n         </div>\n        </div>\n       </div>\n       <!-- ./jobview-footer -->\n      </article>\n      <!-- ./#jobview -->\n     </div>\n     <div class="col-xs-12 col-sm-6 col-md-4 col-lg-4">\n      <div class="jobview-affix">\n       <div style="background-color: #fff;">\n        <input id="trackInfo" type="hidden" value=\'{"emailAddress":"","postingId":"a0ee8f39-d70b-4661-bb36-db54f430872c","placementID":null,"jobPosition":0,"uniqueUser":null,"affiliate":"Monster","technology":null}\'/>\n        <form action="https://fico.wd1.myworkdayjobs.com/en-US/External/job/US-BozemanMT/Sales-Development-Consultant_16777" aria-hidden="true" class="email-collection hidden" data-id="a0ee8f39-d70b-4661-bb36-db54f430872c" data-lrtype="R" data-placement="Right-Top-Rail" data-position="0" data-remote-subscription="/LiteReg/ApplySubscription" data-remote-validation="/LiteReg/IsEmailValid" data-technology="" method="POST" target="_blank">\n         <div class="form-group">\n          <label class="control-label" for="EmailCollectionField1">\n           To begin the application, please enter your email\n          </label>\n          <input class="form-control input-sm" id="EmailCollectionField1" name="litRegEmailAddress" placeholder="Please enter your email" type="email"/>\n         </div>\n         <span class="help-block small">\n          By continuing you agree to Monster\'s\n          <a href="http://my.monster.com/Privacy/Default.aspx" target="_blank" title="Privacy Policy">\n           Privacy Policy\n          </a>\n          ,\n          <a href="http://my.monster.com/Terms/Default.aspx" target="_blank" title="Terms of Use">\n           Terms of Use\n          </a>\n          and\n          <a href="http://inside.monster.com/cookie-info/inside2.aspx" target="_blank" title="use of cookies">\n           use of cookies\n          </a>\n          .\n         </span>\n         <button class="sr-only" type="submit">\n          Continue application\n         </button>\n        </form>\n        <a class="btn btn-sm btn-primary btn-block btn-jobsdotcom" data-action="apply" data-applyurl="https://fico.wd1.myworkdayjobs.com/en-US/External/job/US-BozemanMT/Sales-Development-Consultant_16777" data-atm-id="36" data-confurl="http://job-openings.monster.com/monster/confirmation?postingid=a0ee8f39-d70b-4661-bb36-db54f430872c" data-form-selector=".email-collection" href="http://job-openings.monster.com/monster/confirmation?postingid=a0ee8f39-d70b-4661-bb36-db54f430872c" rel="nofollow" role="button">\n         Apply Now\n        </a>\n        <div class="social-sharing no-logo">\n         <h5>\n          Share this Job\n         </h5>\n         <a href="https://www.twitter.com/share?url=%20&amp;text=Sales+Development+Opportunities at Fair%2c+Isaac+and+Company http://job-openings.monster.com/monster/a0ee8f39-d70b-4661-bb36-db54f430872c via @monster" target="_blank" title="Share this job on Twitter">\n          <i class="fa fa-2x fa-twitter" style="margin: 0 4px;">\n          </i>\n         </a>\n         <a href="https://plus.google.com/share?url=http://job-openings.monster.com/monster/a0ee8f39-d70b-4661-bb36-db54f430872c" target="_blank" title="Share this job on Google+">\n          <i class="fa fa-2x fa-google-plus" style="margin: 0 4px;">\n          </i>\n         </a>\n         <a href="mailto: ?subject=Sales Development Opportunities - Fair, Isaac and Company | Monster.com&amp;body=Fair, Isaac and Company http://job-openings.monster.com/monster/a0ee8f39-d70b-4661-bb36-db54f430872c" title="Share this job via Email">\n          <i class="fa fa-2x fa-envelope-o" style="margin: 0 4px;">\n          </i>\n         </a>\n        </div>\n       </div>\n       <div>\n        <div class="jobview-related-jobs" id="relatedJobs">\n         <div class="related-job-container">\n          <h5>\n           Related Jobs\n          </h5>\n          <ul class="list-unstyled">\n           <li>\n            <a class="cloudJobs" data-m_impr_a_placement_id="rjv1" data-m_impr_j_cid="0" data-m_impr_j_coc="" data-m_impr_j_jawsid="216274054" data-m_impr_j_jobid="" data-m_impr_j_jpm="1" data-m_impr_j_jpt="2" data-m_impr_j_lat="45" data-m_impr_j_lid="699" data-m_impr_j_long="-111" data-m_impr_j_occid="0" data-m_impr_j_p="1" data-m_impr_j_postingid="e350091a-a98f-4b07-b04f-6419f39febce" data-m_impr_j_pvc="tmpenterpriserentacar" data-m_impr_s_search_query="" data-m_impr_s_t="RE_EXP6b_JSJ" data-m_impr_uuid="b1a41047-3002-4d77-9777-ecad55c3619d" href="http://job-openings.monster.com/monster/e350091a-a98f-4b07-b04f-6419f39febce?intcid=js" onclick="jobClick(this, \'http://job-openings.monster.com/monster/e350091a-a98f-4b07-b04f-6419f39febce?intcid=js\', \'newjobsprodseekerus\', \'click on jobview from jobview\')" rel="nofollow" target="_blank" title="View This Job: Sales Management Trainee">\n             Sales Management Trainee\n            </a>\n            <div class="location small text-muted">\n             Enterprise Rent-A-Car, Bozeman - MT\n            </div>\n           </li>\n           <li>\n            <a class="cloudJobs" data-m_impr_a_placement_id="rjv1" data-m_impr_j_cid="0" data-m_impr_j_coc="xnwmcorpbucket2x" data-m_impr_j_jawsid="221521139" data-m_impr_j_jobid="181621649" data-m_impr_j_jpm="1" data-m_impr_j_jpt="1" data-m_impr_j_lat="45" data-m_impr_j_lid="699" data-m_impr_j_long="-111" data-m_impr_j_occid="0" data-m_impr_j_p="2" data-m_impr_j_postingid="504c71ef-da13-4f5f-b154-11e8e019d6b6" data-m_impr_j_pvc="monster" data-m_impr_s_search_query="" data-m_impr_s_t="RE_EXP6b_JSJ" data-m_impr_uuid="2bbe259a-a68d-4d71-9dd8-14ef16082217" href="http://jobview.monster.com/Financial-Representative-\xe2\x80\x93-Sales-Job-Bozeman-MT-US-181621649.aspx?intcid=js" onclick="jobClick(this, \'http://jobview.monster.com/Financial-Representative-\xe2\x80\x93-Sales-Job-Bozeman-MT-US-181621649.aspx?intcid=js\', \'newjobsprodseekerus\', \'click on jobview from jobview\')" rel="nofollow" target="_blank" title="View This Job: Financial Representative \xe2\x80\x93 Sales">\n             Financial Representative \xe2\x80\x93 Sales\n            </a>\n            <div class="location small text-muted">\n             Northwestern Mutual, Bozeman - MT\n            </div>\n           </li>\n           <li>\n            <a class="cloudJobs" data-m_impr_a_placement_id="rjv1" data-m_impr_j_cid="0" data-m_impr_j_coc="xw269344290wx" data-m_impr_j_jawsid="230439562" data-m_impr_j_jobid="183047567" data-m_impr_j_jpm="1" data-m_impr_j_jpt="1" data-m_impr_j_lat="45" data-m_impr_j_lid="699" data-m_impr_j_long="-111" data-m_impr_j_occid="0" data-m_impr_j_p="3" data-m_impr_j_postingid="5f179b6f-1e0b-4136-82fb-fcffb805766e" data-m_impr_j_pvc="monster" data-m_impr_s_search_query="" data-m_impr_s_t="RE_EXP6b_JSJ" data-m_impr_uuid="4fa6d707-d745-403e-8f40-abee07b0af67" href="http://jobview.monster.com/Retail-Store-Manager-Job-Bozeman-MT-US-183047567.aspx?intcid=js" onclick="jobClick(this, \'http://jobview.monster.com/Retail-Store-Manager-Job-Bozeman-MT-US-183047567.aspx?intcid=js\', \'newjobsprodseekerus\', \'click on jobview from jobview\')" rel="nofollow" target="_blank" title="View This Job: Retail Store Manager">\n             Retail Store Manager\n            </a>\n            <div class="location small text-muted">\n             Simply Mac, Bozeman - MT\n            </div>\n           </li>\n           <li>\n            <a class="cloudJobs" data-m_impr_a_placement_id="rjv1" data-m_impr_j_cid="0" data-m_impr_j_coc="xrockymtn_bankx" data-m_impr_j_jawsid="229716867" data-m_impr_j_jobid="182944067" data-m_impr_j_jpm="1" data-m_impr_j_jpt="1" data-m_impr_j_lat="45" data-m_impr_j_lid="699" data-m_impr_j_long="-111" data-m_impr_j_occid="0" data-m_impr_j_p="4" data-m_impr_j_postingid="e647776d-c5c2-4e9e-a81e-795ed333abb9" data-m_impr_j_pvc="monster" data-m_impr_s_search_query="" data-m_impr_s_t="RE_EXP6b_JSJ" data-m_impr_uuid="692d1e2a-3a55-4884-853c-6440fd64dcae" href="http://jobview.monster.com/Senior-Personal-Banker-Job-Bozeman-MT-US-182944067.aspx?intcid=js" onclick="jobClick(this, \'http://jobview.monster.com/Senior-Personal-Banker-Job-Bozeman-MT-US-182944067.aspx?intcid=js\', \'newjobsprodseekerus\', \'click on jobview from jobview\')" rel="nofollow" target="_blank" title="View This Job: Senior Personal Banker">\n             Senior Personal Banker\n            </a>\n            <div class="location small text-muted">\n             Rocky Mountain Bank, Bozeman - MT\n            </div>\n           </li>\n           <li>\n            <a class="cloudJobs" data-m_impr_a_placement_id="rjv1" data-m_impr_j_cid="0" data-m_impr_j_coc="xhqglobalx" data-m_impr_j_jawsid="226889896" data-m_impr_j_jobid="182412883" data-m_impr_j_jpm="1" data-m_impr_j_jpt="1" data-m_impr_j_lat="45" data-m_impr_j_lid="699" data-m_impr_j_long="-110" data-m_impr_j_occid="0" data-m_impr_j_p="5" data-m_impr_j_postingid="ddee6d8e-49ec-4d97-848f-cc3d79f55900" data-m_impr_j_pvc="monster" data-m_impr_s_search_query="" data-m_impr_s_t="RE_EXP6b_JSJ" data-m_impr_uuid="219fc1b4-2bf7-4cfc-ae78-2252a4af050c" href="http://jobview.monster.com/Community-Manager-Job-Bozeman-MT-US-182412883.aspx?intcid=js" onclick="jobClick(this, \'http://jobview.monster.com/Community-Manager-Job-Bozeman-MT-US-182412883.aspx?intcid=js\', \'newjobsprodseekerus\', \'click on jobview from jobview\')" rel="nofollow" target="_blank" title="View This Job: Community Manager">\n             Community Manager\n            </a>\n            <div class="location small text-muted">\n             Regus, Bozeman - MT\n            </div>\n           </li>\n           <li>\n            <a class="cloudJobs" data-m_impr_a_placement_id="rjv1" data-m_impr_j_cid="0" data-m_impr_j_coc="xElm2016x" data-m_impr_j_jawsid="226046684" data-m_impr_j_jobid="182279374" data-m_impr_j_jpm="1" data-m_impr_j_jpt="1" data-m_impr_j_lat="45" data-m_impr_j_lid="699" data-m_impr_j_long="-111" data-m_impr_j_occid="0" data-m_impr_j_p="6" data-m_impr_j_postingid="be04f5a0-7e66-4396-8b53-3deba62884d1" data-m_impr_j_pvc="monster" data-m_impr_s_search_query="" data-m_impr_s_t="RE_EXP6b_JSJ" data-m_impr_uuid="4d62480f-11d7-481f-b9c5-b06ac3943d90" href="http://jobview.monster.com/Damage-Prevention-Liaison-Job-Bozeman-MT-US-182279374.aspx?intcid=js" onclick="jobClick(this, \'http://jobview.monster.com/Damage-Prevention-Liaison-Job-Bozeman-MT-US-182279374.aspx?intcid=js\', \'newjobsprodseekerus\', \'click on jobview from jobview\')" rel="nofollow" target="_blank" title="View This Job: Damage Prevention Liaison">\n             Damage Prevention Liaison\n            </a>\n            <div class="location small text-muted">\n             ELM Locating &amp; Utility Services, Bozeman - MT\n            </div>\n           </li>\n           <li>\n            <a class="cloudJobs" data-m_impr_a_placement_id="rjv1" data-m_impr_j_cid="0" data-m_impr_j_coc="" data-m_impr_j_jawsid="230122639" data-m_impr_j_jobid="" data-m_impr_j_jpm="1" data-m_impr_j_jpt="2" data-m_impr_j_lat="45" data-m_impr_j_lid="699" data-m_impr_j_long="-110" data-m_impr_j_occid="0" data-m_impr_j_p="7" data-m_impr_j_postingid="2f2d0166-48d2-4ef9-be18-95e774971182" data-m_impr_j_pvc="beyondftpin" data-m_impr_s_search_query="" data-m_impr_s_t="RE_EXP6b_JSJ" data-m_impr_uuid="493278ef-1ddd-418a-8f80-058dc92607a2" href="http://job-openings.monster.com/monster/2f2d0166-48d2-4ef9-be18-95e774971182?intcid=js" onclick="jobClick(this, \'http://job-openings.monster.com/monster/2f2d0166-48d2-4ef9-be18-95e774971182?intcid=js\', \'newjobsprodseekerus\', \'click on jobview from jobview\')" rel="nofollow" target="_blank" title="View This Job: Apple Premier Retailer - Store Manager -  Bozeman">\n             Apple Premier Retailer - Store Manager -  Bozeman\n            </a>\n            <div class="location small text-muted">\n             Simply Mac, Bozeman - MT\n            </div>\n           </li>\n          </ul>\n          <!-- jrs-job=210044962&amp;count=6 -->\n         </div>\n        </div>\n        <div>\n         <h5>\n          More\n         </h5>\n         <a href="http://www.monster.com/jobs/search/?client=power&amp;q=IT/Software Development&amp;where=Bozeman , MT&amp;intcid=more_jobs_category_location" title="See all IT/Software Development jobs in Bozeman, MT">\n          See all IT/Software Development jobs in Bozeman, MT\n         </a>\n         <br/>\n         <a href="http://www.monster.com/jobs/search/?client=power&amp;q=IT Project Management&amp;intcid=more_jobs_occupation" title="See all IT Project Management jobs">\n          See all IT Project Management jobs\n         </a>\n         <br/>\n         <a class="aut-city-search" href="http://www.monster.com/jobs/search/?client=power&amp;where=Bozeman , MT&amp;intcid=more_jobs_location" title="See all jobs in Bozeman">\n          See all jobs in Bozeman\n         </a>\n        </div>\n       </div>\n       <div class="oasAdsContainer">\n        <div>\n         <!-- 1st Section Begins : Delivery via OAS JX Tag -->\n         <script type="text/javascript">\n          window.MonsterAdds = window.MonsterAdds || {};\r\n\r\n            MonsterAdds.writeScript = function (showMobile) {\r\n                //TODO add mobile test if needed, see AdBlock.cshtml\r\n                document.write("<scr" + "ipt type=\'text/javascript\' src=\'//oas.monster.com/RealMedia/ads/adstream_jx.ads/us.monster.en/aggjobview/11315672017@Right3?size=300x250&site=mons&affiliate=Monster&app=js&oas_pv=no_analytics&fb=0&moc=11848&st=MT&pci=Bozeman&pcy=US&proejc=660&key=IT%2fSoftware+Development&plid=699&pcid=1136&poccid=11848&mesco=4100683001001\'><\\/script>");\r\n            };\r\n\r\n            MonsterAdds.writeScript(true);\n         </script>\n         <!-- 2nd Section Begins : Delivery via OAS NX Tag for non-Javascript Browser -->\n         <noscript>\n          <a href="//oas.monster.com/RealMedia/ads/click_nx.ads/us.monster.en/aggjobview/11120647953@Right3?size=300x250&amp;site=mons&amp;affiliate=Monster&amp;app=js&amp;oas_pv=no_analytics&amp;fb=0&amp;moc=11848&amp;st=MT&amp;pci=Bozeman&amp;pcy=US&amp;proejc=660&amp;key=IT%2fSoftware+Development&amp;plid=699&amp;pcid=1136&amp;poccid=11848&amp;mesco=4100683001001">\n           <img src="//oas.monster.com/RealMedia/ads/click_nx.ads/us.monster.en/aggjobview/11261194915@Right3?size=300x250&amp;site=mons&amp;affiliate=Monster&amp;app=js&amp;oas_pv=no_analytics&amp;fb=0&amp;moc=11848&amp;st=MT&amp;pci=Bozeman&amp;pcy=US&amp;proejc=660&amp;key=IT%2fSoftware+Development&amp;plid=699&amp;pcid=1136&amp;poccid=11848&amp;mesco=4100683001001"/>\n          </a>\n         </noscript>\n        </div>\n       </div>\n      </div>\n      <div class="hidden-xs affix-fix">\n      </div>\n     </div>\n    </div>\n    <!-- ./row -->\n    <div class="modal fade" id="subscriptionModal">\n     <div class="modal-dialog">\n      <div class="modal-content">\n       <div class="modal-body">\n        <div class="email-collection promoted">\n         <div class="icon">\n         </div>\n         <h4 class="title">\n          Get new similar jobs by email for\n         </h4>\n         <p class="desc">\n          Sales Development Opportunities\n         </p>\n         <form action="" aria-hidden="true" class="email-jvsub-collection" data-id="a0ee8f39-d70b-4661-bb36-db54f430872c" data-remote-subscribe="/LiteReg/JobViewSubscription" data-remote-validation="/LiteReg/IsEmailValid" id="modalForm" method="POST">\n          <div class="row-flex">\n           <div class="col-flex stretch">\n            <input class="form-control input-sm" id="emailAddress" name="emailAddress" placeholder="Please enter your email" type="email"/>\n           </div>\n           <div class="col-flex">\n            <a class="btn btn-sm btn-primary btn-jobsdotcom" data-action="modal-subscription" data-form-selector=".email-jvsub-collection" href="#" rel="nofollow" role="button">\n             Email me jobs\n            </a>\n           </div>\n           <div class="col-flex">\n            <a class="btn btn-link btn-sm" href="#" id="cancelModal">\n             Skip\n            </a>\n           </div>\n          </div>\n         </form>\n        </div>\n       </div>\n       <div class="modal-footer">\n        <span class="help-block small">\n         By continuing you agree to Monster\'s\n         <a href="http://my.monster.com/Privacy/Default.aspx" target="_blank" title="Privacy Policy">\n          Privacy Policy\n         </a>\n         ,\n         <a href="http://my.monster.com/Terms/Default.aspx" target="_blank" title="Terms of Use">\n          Terms of Use\n         </a>\n         and\n         <a href="http://inside.monster.com/cookie-info/inside2.aspx" target="_blank" title="use of cookies">\n          use of cookies\n         </a>\n         .\n        </span>\n       </div>\n       <div class="help-block small alert-success" style="display: none;">\n        You will start receiving jobs like this emailed to: {emailaddress}\n       </div>\n      </div>\n      <!-- /.modal-content -->\n     </div>\n     <!-- /.modal-dialog -->\n    </div>\n    <!-- /.modal -->\n    <script id="ApplySubscriptionThankYou" type="text/template">\n     <p><b>Thank you for applying for:</b><br />Sales Development Opportunities in Bozeman, MT 59715</p>\r\n        <p class="text-muted">To check your full apply history, <a href=https://login20.monster.com>log in</a> or <a href=http://my.monster.com/Become-Member/Create-Account>create an account.</a></p>\n    </script>\n    <script type="text/javascript">\n     var script = document.createElement("script");\r\n    script.type = "text/javascript";\r\n    script.async = true;\r\n    script.src = "//nexus.ensighten.com/monster/Bootstrap.js";\r\n    document.head.appendChild(script);\n    </script>\n   </div>\n   <footer class="page-footer">\n    <div class="container">\n     <div class="row">\n      <div class="col-md-12">\n       <!-- Copyright info -->\n       <p class="copy">\n        Copyright \xc2\xa9 2015 |\n        <a href="http://www.monster.com">\n         Monster Worldwide\n        </a>\n       </p>\n      </div>\n     </div>\n    </div>\n   </footer>\n   <script src="/js/jobviewjs?v=Qp96d4MjGz4yVpoQyg3bu08SRTYnAxoYIMyQbxHelEg1">\n   </script>\n   <!--tracking script-->\n   <script src="http://logs.jobs.com/impression_trackingv2.js" type="text/javascript">\n   </script>\n   <script type="text/javascript">\n    monster.controls.add("monster.jv.base.tracking", {"cloudApiDomain":"logs.jobs.com"});\n   </script>\n   <script type="text/javascript">\n    monster.controls.add("monster.jv.base.jobview", {});\n   </script>\n   <script type="text/javascript">\n    monster.controls.add("monster.jv.base.subscription", {});\n   </script>\n   <script type="text/javascript">\n    monster.controls.add("monster.jv.base.subscriptionModal", {});\n   </script>\n   <script type="text/javascript">\n    monster.controls.add("monster.jv.base.banner", {});\n   </script>\n   <script type="text/javascript">\n    monster.controls.add("monster.jv.base.tooltip", {});\n   </script>\n  </div>\n  <!-- Google Analytics Script Start -->\n  <script>\n   (function (i, s, o, g, r, a, m) {\r\n            i[\'GoogleAnalyticsObject\'] = r; i[r] = i[r] || function () {\r\n                (i[r].q = i[r].q || []).push(arguments)\r\n            }, i[r].l = 1 * new Date(); a = s.createElement(o),\r\n            m = s.getElementsByTagName(o)[0]; a.async = 1; a.src = g; m.parentNode.insertBefore(a, m)\r\n        })(window, document, \'script\', \'//www.google-analytics.com/analytics.js\', \'ga\');\r\n\r\n        ga(\'create\', \'UA-41898665-3\', \'jobs.com\');\r\n        ga(\'send\', \'pageview\');\n  </script>\n  <!--Google Analytics Script End -->\n  <script type="text/javascript">\n   monster.eventBus.pub(monster.Events.PAGE_LOAD);\n  </script>\n  <!-- Site Catalyst Start -->\n  <script src="http://media.newjobs.com/js/global/at_1.5.js" type="text/javascript">\n  </script>\n  <script type="text/javascript">\n   var DYNAMIC_S_ACCOUNT = \'newjobsProdseekerUS\';\r\n    var DYNAMIC_S_CURRENCYCODE = \'USD\';\r\n    //<![CDATA[\r\n    var amc = amc || {}; if (!amc.on) { amc.on = amc.call = function () { }; };\r\n    document.write("<scr" + "ipt type=\'text/javascript\' src=\'//media.monster.com/js/sc/sitecatalystLL.js\'></sc" + "ript>");\r\n    //]]>\r\n\r\n    _m.ATM.properties = {"channel":"58","eVar1":"D=g","prop1":"D=g","eVar4":"0","eVar2":"unrecognized","prop22":"N/A-Cloud","prop23":"N/A-Cloud","prop24":"1/1/0001","prop25":"N/A-Cloud","prop26":"N/A-Cloud","eVar25":"a0ee8f39-d70b-4661-bb36-db54f430872c_Sales Development Opportunities","eVar26":"f70eccff_Fair, Isaac and Company","eVar27":"N/A-Cloud","eVar28":"IT/Software Development","eVar29":"N/A-Cloud","eVar30":"IT Project Management","eVar31":"Bozeman_MT_US","eVar32":"N/A-Cloud","eVar33":"N/A-Cloud","eVar35":"Fair, Isaac and Company","eVar36":"App_Cstm","eVar37":"N/A-Cloud","eVar38":"R/L-Apply","eVar47":"2","eVar50":"Aggregated","eVar53":"4100683001001","eVar64":"11380","eVar66":"Monster","events.event3":"1","events.event30":"true","events.event42":"1","eVar61":"Group C JS - newconfirmation.aspx"};\r\n    _m.ATM.pageName = \'desktop|mons|jobs30|jobview\';\r\n    _m.ATM.appConfig = {version:\'0\',appID:\'jobviewcloud\',channelID:\'58\',countryID:\'164\'};\r\n    _m.ATM.runOnLoad=true;\r\n\r\n    $(document).ready(_m.ATM.initFromOnReady);\n  </script>\n  <!-- Site Catalyst End -->\n </body>\n</html>'
p6
tp7
a.