(lp1
(S'http://job-openings.monster.com/monster/09730733-3c3b-47b5-9a9e-473eda61c3e1'
S'<!DOCTYPE html>\n<!--[if lt IE 7]>      <html class="no-js lt-ie9 lt-ie8 lt-ie7"> <![endif]-->\n<!--[if IE 7]>         <html class="no-js lt-ie9 lt-ie8"> <![endif]-->\n<!--[if IE 8]>         <html class="no-js lt-ie9"> <![endif]-->\n<!--[if gt IE 8]><!-->\n<html class="no-js">\n <!--<![endif]-->\n <head>\n  <title>\n   R&amp;D Electrical Engineer (Entry/Mid-Career) - Sandia Corporation | Jobs.com\n  </title>\n  <meta charset="utf-8"/>\n  <meta content="IE=edge,chrome=1" http-equiv="X-UA-Compatible"/>\n  <meta content="text/html; charset=utf-8" http-equiv="Content-Type"/>\n  <meta content="width=device-width, initial-scale=1.0" name="viewport"/>\n  <meta content="Sandia Corporation - Albuquerque, NM. The Data Systems Engineering Group is looking for qualified Research and De" name="description"/>\n  <link href="http://plus.monster.com/+monster" rel="publisher"/>\n  <link href="https://maxcdn.bootstrapcdn.com/bootstrap/3.2.0/css/bootstrap.min.css" rel="stylesheet"/>\n  <link href="https://maxcdn.bootstrapcdn.com/font-awesome/4.2.0/css/font-awesome.min.css" rel="stylesheet"/>\n  <link href="/bundles/monster?v=3VUpvWSKWfcSTe2LCMpXVIfzIyGEJcLvPJMZUFZH8gg1" rel="stylesheet"/>\n  <!-- Favicon -->\n  <link href="http://media.newjobs.com/niche/img/favicon/favicon.ico" rel="shortcut icon"/>\n  <meta content="noindex, nofollow" name="robots"/>\n  <meta content="Monster" name="m_impr.a_affiliate_id"/>\n  <meta content="jobview" name="_ac.page_name"/>\n  <!-- Le HTML5 shim, for IE6-8 support of HTML5 elements -->\n  <!--[if lt IE 9]>\r\n    <script src="/scripts/third_party/html5shiv.js"></script>\r\n    <script src="/scripts/bootstrap/respond.min.js" type="text/javascript"></script>\r\n\r\n    <script type="text/javascript">\r\n        if (!Array.prototype.forEach) {\r\n            Array.prototype.forEach = function (fun /*, thisArg */) {\r\n                "use strict";\r\n                if (this === void 0 || this === null || typeof fun !== "function") throw new TypeError();\r\n\r\n                var\r\n                    t = Object(this),\r\n                    len = t.length >>> 0,\r\n                    thisArg = arguments.length >= 2 ? arguments[1] : void 0;\r\n\r\n                for (var i = 0; i < len; i++)\r\n                    if (i in t)\r\n                        fun.call(thisArg, t[i], i, t);\r\n            };\r\n        }\r\n    </script>\r\n<![endif]-->\n </head>\n <body>\n  <div class="page">\n   <div class="navbar navbar-default navbar-fixed-top">\n    <div class="container">\n     <!--<div class="container">-->\n     <div class="navbar-header" itemscope="" itemtype="http://schema.org/Organization">\n      <a class="navbar-brand" href="http://www.monster.com" itemprop="url">\n       <img alt="monster.com" itemprop="logo" src="/Areas/JobViewCloud/content/images/monster-new.png" title="monster.com"/>\n      </a>\n     </div>\n     <!-- large screen navbar-collapse location -->\n     <div class="navbar-collapse collapse hidden-xs">\n     </div>\n     <!--/.navbar-collapse -->\n    </div>\n    <!-- ./container -->\n   </div>\n   <!-- ./navbar -->\n   <div class="jobview container">\n    <div class="row">\n     <input id="normalized-company-id" type="hidden" value="27024"/>\n     <div class="col-xs-12 col-sm-6 col-md-8 col-lg-8">\n      <article id="jobview">\n       <header class="jobview-header">\n        <h3>\n         R&amp;D Electrical Engineer (Entry/Mid-Career)\n        </h3>\n        <h4 class="company">\n         Sandia Corporation\n         <small class="location">\n          -\n          <i class="fa fa-map-marker">\n          </i>\n          Albuquerque, NM 87102\n         </small>\n        </h4>\n        <span class="postedDate">\n         <strong>\n          Posted:\n         </strong>\n         4/7/2017\n        </span>\n       </header>\n       <!-- ./jobview-header -->\n       <div class="jobview-upper-apply-mobile visible-xs row">\n        <div class="col-sm-6">\n         <div class="action-buttons">\n          <input id="trackInfo" type="hidden" value=\'{"emailAddress":"","postingId":"09730733-3c3b-47b5-9a9e-473eda61c3e1","placementID":null,"jobPosition":0,"uniqueUser":null,"affiliate":"Monster","technology":null}\'/>\n          <a class="btn btn-sm btn-primary btn-jobsdotcom" data-action="apply" data-applyurl="https://cg.sandia.gov/psc/applicant/EMPLOYEE/HRMS/c/HRS_HRAM.HRS_APP_SCHJOB.GBL?Page=HRS_APP_JBPST&amp;Action=U&amp;FOCUS=Applicant&amp;SiteId=1&amp;JobOpeningId=656227&amp;PostingSeq=1" data-atm-id="35" data-confurl="http://job-openings.monster.com/monster/confirmation?postingid=09730733-3c3b-47b5-9a9e-473eda61c3e1" data-form-selector=".email-collection" href="http://job-openings.monster.com/monster/confirmation?postingid=09730733-3c3b-47b5-9a9e-473eda61c3e1" rel="nofollow" role="button">\n           Apply Now\n          </a>\n          <form action="https://cg.sandia.gov/psc/applicant/EMPLOYEE/HRMS/c/HRS_HRAM.HRS_APP_SCHJOB.GBL?Page=HRS_APP_JBPST&amp;Action=U&amp;FOCUS=Applicant&amp;SiteId=1&amp;JobOpeningId=656227&amp;PostingSeq=1" aria-hidden="true" class="email-collection hidden panel panel-default" data-id="09730733-3c3b-47b5-9a9e-473eda61c3e1" data-lrtype="B" data-placement="Left-Bottom-Body" data-position="0" data-remote-subscription="/LiteReg/ApplySubscription" data-remote-validation="/LiteReg/IsEmailValid" data-technology="" method="POST" target="_blank">\n           <div class="panel-body">\n            <div class="row-flex">\n             <div class="col-flex stretch">\n              <input class="form-control input-sm" id="EmailCollectionField2" name="litRegEmailAddress" placeholder="Please enter your email" type="email"/>\n             </div>\n            </div>\n            <label class="control-label" for="EmailCollectionField2">\n             To begin the application, please enter your email\n            </label>\n            <span class="help-block small">\n             By continuing you agree to Monster\'s\n             <a href="http://my.monster.com/Privacy/Default.aspx" target="_blank" title="Privacy Policy">\n              Privacy Policy\n             </a>\n             ,\n             <a href="http://my.monster.com/Terms/Default.aspx" target="_blank" title="Terms of Use">\n              Terms of Use\n             </a>\n             and\n             <a href="http://inside.monster.com/cookie-info/inside2.aspx" target="_blank" title="use of cookies">\n              use of cookies\n             </a>\n             .\n            </span>\n            <button class="sr-only" type="submit">\n             Continue application\n            </button>\n           </div>\n          </form>\n         </div>\n        </div>\n       </div>\n       <div class="jobview-section">\n        The Data Systems Engineering Group is looking for qualified Research and Development Electrical Engineering candidates interested in collaborating within a high performing team on next generation technologies to provide solutions to national security applications. The group engineers and delivers technology solutions across the entire spectrum of mission data (producers, consumers, transport, and analysis). These technologies span the range of analog, digital, firmware, software, RF and optical solutions where all phases of lifecycle engineering are addressed. Electrical Engineers in group 2660 design and deliver systems to our customer base accompanied with a qualification and testing pedigree that provides assurance the system will function in the intended environment for the purpose of the mission. Applicants will also have opportunities to propose and participate in internal research and development efforts. Successful candidates will gain experience in electrical modeling and analysis, printed circuit board/component level circuit design, electrical sub-system integration and test, failure analysis and diagnosis, and system field test opportunities within the Nuclear Weapon, Satellite, Radar, and Missile Defense program areas.\n        <br/>\n        <br/>\n        Some travel required.\n        <br/>\n        <br/>\n        Qualifications We Require\n        <br/>\n        <br/>\n        * Advanced degree (Masters or PhD) in Electrical Engineering, Computer Engineering, Computer Science, or relevant science or engineering discipline with an undergraduate degree in science, engineering, or mathematics.\n        <br/>\n        <br/>\n        * Evidence of good academic achievement, typically represented by an undergraduate GPA greater than 3.15 on a 4.0 scale and graduate GPA greater than 3.45 on a 4.0 scale.\n        <br/>\n        <br/>\n        Qualifications We Desire\n        <br/>\n        <br/>\n        * Experience in board-level and/or component level circuit design, RF and Optical communication system design, image processing and data analysis\n        <br/>\n        <br/>\n        * Expertise in designing digital and/or analog circuitry including sensors in a variety of technologies (FPGA, Mixed Signal, ASIC) in a variety of design environments (Model-Based Design, VHDL, Verilog, schematic, physical layout/semiconductors).\n        <br/>\n        <br/>\n        * Experience in developing telemetry and trusted systems including data recorders and fire sets.\n        <br/>\n        <br/>\n        * Experience with modeling, design, and analysis tools. Examples include Simulink, Matlab, PSpice, OrCad, Mentor Graphics, Altium, Labview, and others.\n        <br/>\n        <br/>\n        * Proven ability to test and debug hardware and software systems with the archival of test/debug evidence.\n        <br/>\n        <br/>\n        * Understanding of systems engineering and design quality processes with proven experience in AS9100, ANSI/EIA-632, and other industry standards.\n        <br/>\n        <br/>\n        * Ability to work across a wide variety of engineering and science disciplines to integrate lower level designs and delivered subsystems into a complete system across hardware, software, mechanical, aerospace, and other domains or disciplines.\n        <br/>\n        <br/>\n        * Familiarity with hardware and/or software requirements generation for verification, validation and qualification.\n        <br/>\n        <br/>\n        * Proven ability to develop systems in compliance with industry standards and requirements such as ISO9000, IPC, and others.\n        <br/>\n        <br/>\n        * Proven ability to work with commercial or contracted suppliers to acquire hardware, software, or custom components with appropriate procurement rigor.\n        <br/>\n        <br/>\n        * Strong interest and passion about circuit design, communication systems, and/or image processing and data analysis.\n        <br/>\n        <br/>\n        * Demonstrated interpersonal skills and ability to work in a team setting for a common purpose.\n        <br/>\n        <br/>\n        * Oral and written communication skills, typically evidenced and demonstrated through technical publications and presentations. Examples can include academic work products, peer-reviewed conferences and publications, internal and external product and/or system whitepapers and technical briefings, test plans and procedures, etc.\n        <br/>\n        <br/>\n        * Demonstrated ability to execute and deliver technical work products with application of appropriate rigor and pedigree documentation (design/code reviews, technical oversight/approvals, project team concurrence, artifact generation, etc).\n        <br/>\n        <br/>\n        * Evidence of high academic achievement, typically represented by an undergraduate GPA greater than 3.5 on a 4.0 scale and graduate GPA greater than 3.7 on a 4.0 scale.\n        <br/>\n        <br/>\n        * Active DOE Q-Level security clearance.\n        <br/>\n        <br/>\n        * Ability to obtain and maintain an SCI security clearance, which may require a counterintelligence polygraph.\n        <br/>\n        <br/>\n        * Active SCI security clearance.\n        <br/>\n        <br/>\n        * Demonstrated ability to bound/estimate and deliver systems and/or components within negotiated cost, schedule, and performance.\n        <br/>\n        <br/>\n        * Domain knowledge and system experience in any or all of nuclear weapons, satellite/payload, and/or aerospace and flight programs.\n        <br/>\n        <br/>\n        About Our Team\n        <br/>\n        <br/>\n        The Engineering and Design Integration Center (2600) is a multi-discipline, product-focused organization that provides engineering design, components, subsystems, integration, testing, and field support for nuclear weapons and other national security applications. Examples of these applications include the development of satellite and other space-flight payloads, testing for high consequence military programs, nuclear weapon safety mechanisms, high reliability electronic products, and telemetry and software systems. The Center is divided into four main competencies: Advanced Mechanical Design, Firing &amp; Embedded Systems, Hi-Reliability Electronic Products, and Data Systems Engineering.\n        <br/>\n        <br/>\n        The successful applicant will join high performing technical teams in the Data Systems Engineering Group and will handle the design, development, qualification, and delivery of highly specialized hardware and software components and subsystems for national security applications. These systems must be designed to meet demanding performance specifications, offer extremely high reliability, enable integration and interfacing to complex host systems, and meet stringent survivability requirements in adverse environments. Successful candidates, depending on skills match and placement within the Data Systems Engineering Group, will have the opportunity to make meaningful contributions in a wide variety of disciplines including analog and digital design and development, embedded development for real-time systems, data processing and analysis to include image and signal processing applications, network and communications technology, trusted systems design and development, testing/fielding complex hardware and software systems, and exploratory data analytics and applied data science. Candidates will be exposed to a variety of hardware and software development environments and methodologies spanning traditional waterfall development and systems engineering to agile development processes.\n        <br/>\n        <br/>\n        About Sandia\n        <br/>\n        <br/>\n        Sandia National Laboratories is the nation\'s premier science and engineering lab for national security and technology innovation, with teams of specialists focused on cutting-edge work in a broad array of areas. Some of the main reasons we love our jobs:\n        <br/>\n        <br/>\n        * Challenging work with amazing impact that contributes to security, peace, and freedom worldwide\n        <br/>\n        <br/>\n        * Extraordinary co-workers\n        <br/>\n        <br/>\n        * Some of the best tools, equipment, and research facilities in the world\n        <br/>\n        <br/>\n        * Career advancement and enrichment opportunities\n        <br/>\n        <br/>\n        * Flexible schedules, generous vacations, strong medical and other benefits, competitive 401k, learning opportunities, relocation assistance and amenities aimed at creating a solid work/life balance*\n        <br/>\n        <br/>\n        World-changing technologies. Life-changing careers. Learn more about Sandia at: http://www.sandia.gov\n        <br/>\n        <br/>\n        * These benefits vary by job classification.\n        <br/>\n        <br/>\n        Security Clearance\n        <br/>\n        <br/>\n        Position requires a Department of Energy (DOE) granted Q-level security clearance.\n        <br/>\n        <br/>\n        Sandia is required by DOE directive to conduct a pre-employment background review that includes personal reference checks, law enforcement record and credit checks, and employment and education verifications. Applicants for employment must be able to obtain and maintain a DOE Q-level security clearance, which requires U.S. citizenship.\n        <br/>\n        <br/>\n        Applicants offered employment with Sandia are subject to a federal background investigation to meet the requirements for access to classified information or matter if the duties of the position require a DOE security clearance. Substance abuse or illegal drug use, falsification of information, criminal activity, serious misconduct or other indicators of untrustworthiness can cause a clearance to be denied or terminated by the DOE, rendering the inability to perform the duties assigned and resulting in termination of employment.\n        <br/>\n        <br/>\n        EEO\n        <br/>\n        <br/>\n        Equal opportunity employer/Disability/Vet/GLBT\n       </div>\n       <!-- ./jobview-section -->\n       <div class="hidden-xs jobview-footer row">\n        <div class="col-sm-6">\n         <div class="action-buttons">\n          <input id="trackInfo" type="hidden" value=\'{"emailAddress":"","postingId":"09730733-3c3b-47b5-9a9e-473eda61c3e1","placementID":null,"jobPosition":0,"uniqueUser":null,"affiliate":"Monster","technology":null}\'/>\n          <a class="btn btn-sm btn-primary btn-jobsdotcom" data-action="apply" data-applyurl="https://cg.sandia.gov/psc/applicant/EMPLOYEE/HRMS/c/HRS_HRAM.HRS_APP_SCHJOB.GBL?Page=HRS_APP_JBPST&amp;Action=U&amp;FOCUS=Applicant&amp;SiteId=1&amp;JobOpeningId=656227&amp;PostingSeq=1" data-atm-id="35" data-confurl="http://job-openings.monster.com/monster/confirmation?postingid=09730733-3c3b-47b5-9a9e-473eda61c3e1" data-form-selector=".email-collection" href="http://job-openings.monster.com/monster/confirmation?postingid=09730733-3c3b-47b5-9a9e-473eda61c3e1" rel="nofollow" role="button">\n           Apply Now\n          </a>\n          <form action="https://cg.sandia.gov/psc/applicant/EMPLOYEE/HRMS/c/HRS_HRAM.HRS_APP_SCHJOB.GBL?Page=HRS_APP_JBPST&amp;Action=U&amp;FOCUS=Applicant&amp;SiteId=1&amp;JobOpeningId=656227&amp;PostingSeq=1" aria-hidden="true" class="email-collection hidden panel panel-default" data-id="09730733-3c3b-47b5-9a9e-473eda61c3e1" data-lrtype="B" data-placement="Left-Bottom-Body" data-position="0" data-remote-subscription="/LiteReg/ApplySubscription" data-remote-validation="/LiteReg/IsEmailValid" data-technology="" method="POST" target="_blank">\n           <div class="panel-body">\n            <div class="row-flex">\n             <div class="col-flex stretch">\n              <input class="form-control input-sm" id="EmailCollectionField2" name="litRegEmailAddress" placeholder="Please enter your email" type="email"/>\n             </div>\n            </div>\n            <label class="control-label" for="EmailCollectionField2">\n             To begin the application, please enter your email\n            </label>\n            <span class="help-block small">\n             By continuing you agree to Monster\'s\n             <a href="http://my.monster.com/Privacy/Default.aspx" target="_blank" title="Privacy Policy">\n              Privacy Policy\n             </a>\n             ,\n             <a href="http://my.monster.com/Terms/Default.aspx" target="_blank" title="Terms of Use">\n              Terms of Use\n             </a>\n             and\n             <a href="http://inside.monster.com/cookie-info/inside2.aspx" target="_blank" title="use of cookies">\n              use of cookies\n             </a>\n             .\n            </span>\n            <button class="sr-only" type="submit">\n             Continue application\n            </button>\n           </div>\n          </form>\n         </div>\n        </div>\n       </div>\n       <!-- ./jobview-footer -->\n      </article>\n      <!-- ./#jobview -->\n     </div>\n     <div class="col-xs-12 col-sm-6 col-md-4 col-lg-4">\n      <div class="jobview-affix">\n       <div style="background-color: #fff;">\n        <input id="trackInfo" type="hidden" value=\'{"emailAddress":"","postingId":"09730733-3c3b-47b5-9a9e-473eda61c3e1","placementID":null,"jobPosition":0,"uniqueUser":null,"affiliate":"Monster","technology":null}\'/>\n        <form action="https://cg.sandia.gov/psc/applicant/EMPLOYEE/HRMS/c/HRS_HRAM.HRS_APP_SCHJOB.GBL?Page=HRS_APP_JBPST&amp;Action=U&amp;FOCUS=Applicant&amp;SiteId=1&amp;JobOpeningId=656227&amp;PostingSeq=1" aria-hidden="true" class="email-collection hidden" data-id="09730733-3c3b-47b5-9a9e-473eda61c3e1" data-lrtype="R" data-placement="Right-Top-Rail" data-position="0" data-remote-subscription="/LiteReg/ApplySubscription" data-remote-validation="/LiteReg/IsEmailValid" data-technology="" method="POST" target="_blank">\n         <div class="form-group">\n          <label class="control-label" for="EmailCollectionField1">\n           To begin the application, please enter your email\n          </label>\n          <input class="form-control input-sm" id="EmailCollectionField1" name="litRegEmailAddress" placeholder="Please enter your email" type="email"/>\n         </div>\n         <span class="help-block small">\n          By continuing you agree to Monster\'s\n          <a href="http://my.monster.com/Privacy/Default.aspx" target="_blank" title="Privacy Policy">\n           Privacy Policy\n          </a>\n          ,\n          <a href="http://my.monster.com/Terms/Default.aspx" target="_blank" title="Terms of Use">\n           Terms of Use\n          </a>\n          and\n          <a href="http://inside.monster.com/cookie-info/inside2.aspx" target="_blank" title="use of cookies">\n           use of cookies\n          </a>\n          .\n         </span>\n         <button class="sr-only" type="submit">\n          Continue application\n         </button>\n        </form>\n        <a class="btn btn-sm btn-primary btn-block btn-jobsdotcom" data-action="apply" data-applyurl="https://cg.sandia.gov/psc/applicant/EMPLOYEE/HRMS/c/HRS_HRAM.HRS_APP_SCHJOB.GBL?Page=HRS_APP_JBPST&amp;Action=U&amp;FOCUS=Applicant&amp;SiteId=1&amp;JobOpeningId=656227&amp;PostingSeq=1" data-atm-id="36" data-confurl="http://job-openings.monster.com/monster/confirmation?postingid=09730733-3c3b-47b5-9a9e-473eda61c3e1" data-form-selector=".email-collection" href="http://job-openings.monster.com/monster/confirmation?postingid=09730733-3c3b-47b5-9a9e-473eda61c3e1" rel="nofollow" role="button">\n         Apply Now\n        </a>\n        <div class="social-sharing no-logo">\n         <h5>\n          Share this Job\n         </h5>\n         <a href="https://www.twitter.com/share?url=%20&amp;text=R%26D+Electrical+Engineer+(Entry%2fMid-Career) at Sandia+Corporation http://job-openings.monster.com/monster/09730733-3c3b-47b5-9a9e-473eda61c3e1 via @monster" target="_blank" title="Share this job on Twitter">\n          <i class="fa fa-2x fa-twitter" style="margin: 0 4px;">\n          </i>\n         </a>\n         <a href="https://plus.google.com/share?url=http://job-openings.monster.com/monster/09730733-3c3b-47b5-9a9e-473eda61c3e1" target="_blank" title="Share this job on Google+">\n          <i class="fa fa-2x fa-google-plus" style="margin: 0 4px;">\n          </i>\n         </a>\n         <a href="mailto: ?subject=R%26D Electrical Engineer (Entry/Mid-Career) - Sandia Corporation | Monster.com&amp;body=Sandia Corporation http://job-openings.monster.com/monster/09730733-3c3b-47b5-9a9e-473eda61c3e1" title="Share this job via Email">\n          <i class="fa fa-2x fa-envelope-o" style="margin: 0 4px;">\n          </i>\n         </a>\n        </div>\n       </div>\n       <div>\n        <div class="jobview-related-jobs" id="relatedJobs">\n         <div class="related-job-container">\n          <h5>\n           Related Jobs\n          </h5>\n          <ul class="list-unstyled">\n           <li>\n            <a class="cloudJobs" data-m_impr_a_placement_id="rjv1" data-m_impr_j_cid="4" data-m_impr_j_coc="xataaerox " data-m_impr_j_jawsid="226707933" data-m_impr_j_jobid="182396280" data-m_impr_j_jpm="1" data-m_impr_j_jpt="1" data-m_impr_j_lat="0" data-m_impr_j_lid="537" data-m_impr_j_long="0" data-m_impr_j_occid="0" data-m_impr_j_p="1" data-m_impr_j_postingid="c54cbfec-c786-41a7-a05b-3ff81e70147a" data-m_impr_j_pvc="monster" data-m_impr_s_search_query="" data-m_impr_s_t="RE_EXP6b_JSJ_CR" data-m_impr_uuid="9aa3a8a2-ceb6-4b08-af65-5144a4992f63" href="http://jobview.monster.com/Electrical-Engineer-Radiometric-Radiation-Tolerance-Job-Albuquerque-NM-US-182396280.aspx?intcid=js" onclick="jobClick(this, \'http://jobview.monster.com/Electrical-Engineer-Radiometric-Radiation-Tolerance-Job-Albuquerque-NM-US-182396280.aspx?intcid=js\', \'newjobsprodseekerus\', \'click on jobview from jobview\')" rel="nofollow" target="_blank" title="View This Job: Electrical Engineer - Radiometric and Radiation Tolerance">\n             Electrical Engineer - Radiometric and Radiation Tolerance\n            </a>\n            <div class="location small text-muted">\n             Applied Technology Associates, Albuquerque - NM\n            </div>\n           </li>\n           <li>\n            <a class="cloudJobs" data-m_impr_a_placement_id="rjv1" data-m_impr_j_cid="4" data-m_impr_j_coc="xw230969877wx " data-m_impr_j_jawsid="218788507" data-m_impr_j_jobid="181289933" data-m_impr_j_jpm="1" data-m_impr_j_jpt="1" data-m_impr_j_lat="0" data-m_impr_j_lid="537" data-m_impr_j_long="0" data-m_impr_j_occid="0" data-m_impr_j_p="2" data-m_impr_j_postingid="8f6feb5c-8a79-41b1-a771-02fe78db04f4" data-m_impr_j_pvc="monster" data-m_impr_s_search_query="" data-m_impr_s_t="RE_EXP6b_JSJ_CR" data-m_impr_uuid="dfdaa3d9-17be-4064-a5a5-ce1f78c10213" href="http://jobview.monster.com/Electrical-Design-Engineer-Job-Albuquerque-NM-US-181289933.aspx?intcid=js" onclick="jobClick(this, \'http://jobview.monster.com/Electrical-Design-Engineer-Job-Albuquerque-NM-US-181289933.aspx?intcid=js\', \'newjobsprodseekerus\', \'click on jobview from jobview\')" rel="nofollow" target="_blank" title="View This Job: Electrical Design Engineer">\n             Electrical Design Engineer\n            </a>\n            <div class="location small text-muted">\n             Affordable Solar, Albuquerque - NM\n            </div>\n           </li>\n           <li>\n            <a class="cloudJobs" data-m_impr_a_placement_id="rjv1" data-m_impr_j_cid="4" data-m_impr_j_coc="xp2servex " data-m_impr_j_jawsid="202465979" data-m_impr_j_jobid="177989849" data-m_impr_j_jpm="1" data-m_impr_j_jpt="1" data-m_impr_j_lat="0" data-m_impr_j_lid="537" data-m_impr_j_long="0" data-m_impr_j_occid="0" data-m_impr_j_p="3" data-m_impr_j_postingid="19ab2ae0-bc1c-41de-97ab-c67ec1abf907" data-m_impr_j_pvc="monster" data-m_impr_s_search_query="" data-m_impr_s_t="RE_EXP6b_JSJ_CR" data-m_impr_uuid="9d49ce19-1fcb-4e84-951b-49e2e208409b" href="http://jobview.monster.com/Electrical-Engineer-III-Job-Albuquerque-NM-US-177989849.aspx?intcid=js" onclick="jobClick(this, \'http://jobview.monster.com/Electrical-Engineer-III-Job-Albuquerque-NM-US-177989849.aspx?intcid=js\', \'newjobsprodseekerus\', \'click on jobview from jobview\')" rel="nofollow" target="_blank" title="View This Job: Electrical Engineer III">\n             Electrical Engineer III\n            </a>\n            <div class="location small text-muted">\n             Pro2Serve Professional Project Services Inc, Albuquerque - NM\n            </div>\n           </li>\n           <li>\n            <a class="cloudJobs" data-m_impr_a_placement_id="rjv1" data-m_impr_j_cid="11" data-m_impr_j_coc="xkforcex " data-m_impr_j_jawsid="225496032" data-m_impr_j_jobid="182224419" data-m_impr_j_jpm="1" data-m_impr_j_jpt="1" data-m_impr_j_lat="0" data-m_impr_j_lid="537" data-m_impr_j_long="0" data-m_impr_j_occid="0" data-m_impr_j_p="4" data-m_impr_j_postingid="2eb66246-8c7a-4921-871c-04e35eb00713" data-m_impr_j_pvc="monster" data-m_impr_s_search_query="" data-m_impr_s_t="RE_EXP6b_JSJ_CR" data-m_impr_uuid="b5187738-0d8d-4447-a132-b89222d98908" href="http://jobview.monster.com/Associate-Radar-Signal-Processing-Engineers-Job-Albuquerque-NM-US-182224419.aspx?intcid=js" onclick="jobClick(this, \'http://jobview.monster.com/Associate-Radar-Signal-Processing-Engineers-Job-Albuquerque-NM-US-182224419.aspx?intcid=js\', \'newjobsprodseekerus\', \'click on jobview from jobview\')" rel="nofollow" target="_blank" title="View This Job: Associate Radar Signal Processing Engineers">\n             Associate Radar Signal Processing Engineers\n            </a>\n            <div class="location small text-muted">\n             Kforce Inc, Albuquerque - NM\n            </div>\n           </li>\n           <li>\n            <a class="cloudJobs" data-m_impr_a_placement_id="rjv1" data-m_impr_j_cid="660" data-m_impr_j_coc="xkforcex " data-m_impr_j_jawsid="225496013" data-m_impr_j_jobid="182224479" data-m_impr_j_jpm="1" data-m_impr_j_jpt="1" data-m_impr_j_lat="0" data-m_impr_j_lid="537" data-m_impr_j_long="0" data-m_impr_j_occid="0" data-m_impr_j_p="5" data-m_impr_j_postingid="0547a6e8-5d51-430e-b4b3-1194e279b128" data-m_impr_j_pvc="monster" data-m_impr_s_search_query="" data-m_impr_s_t="RE_EXP6b_JSJ_CR" data-m_impr_uuid="a96d6a55-5b12-4830-852f-78efbcd4a937" href="http://jobview.monster.com/Senior-DSP-Software-Engineers-Radar-Job-Albuquerque-NM-US-182224479.aspx?intcid=js" onclick="jobClick(this, \'http://jobview.monster.com/Senior-DSP-Software-Engineers-Radar-Job-Albuquerque-NM-US-182224479.aspx?intcid=js\', \'newjobsprodseekerus\', \'click on jobview from jobview\')" rel="nofollow" target="_blank" title="View This Job: Senior DSP Software Engineers (Radar)">\n             Senior DSP Software Engineers (Radar)\n            </a>\n            <div class="location small text-muted">\n             Kforce Inc, Albuquerque - NM\n            </div>\n           </li>\n           <li>\n            <a class="cloudJobs" data-m_impr_a_placement_id="rjv1" data-m_impr_j_cid="660" data-m_impr_j_coc="xkforcex " data-m_impr_j_jawsid="229695840" data-m_impr_j_jobid="182938350" data-m_impr_j_jpm="1" data-m_impr_j_jpt="1" data-m_impr_j_lat="0" data-m_impr_j_lid="537" data-m_impr_j_long="0" data-m_impr_j_occid="0" data-m_impr_j_p="6" data-m_impr_j_postingid="527de46d-1a09-4190-b33a-336c3a88ec6f" data-m_impr_j_pvc="monster" data-m_impr_s_search_query="" data-m_impr_s_t="RE_EXP6b_JSJ_CR" data-m_impr_uuid="58423a4a-fa9c-426e-83b2-4e6522d48d26" href="http://jobview.monster.com/Senior-DSP-Software-Engineers-Radar-Job-Albuquerque-NM-US-182938350.aspx?intcid=js" onclick="jobClick(this, \'http://jobview.monster.com/Senior-DSP-Software-Engineers-Radar-Job-Albuquerque-NM-US-182938350.aspx?intcid=js\', \'newjobsprodseekerus\', \'click on jobview from jobview\')" rel="nofollow" target="_blank" title="View This Job: Senior DSP Software Engineers (Radar)">\n             Senior DSP Software Engineers (Radar)\n            </a>\n            <div class="location small text-muted">\n             Kforce Inc, Albuquerque - NM\n            </div>\n           </li>\n          </ul>\n          <!-- jrs-job=228688668&amp;count=6 -->\n         </div>\n        </div>\n        <div>\n         <h5>\n          More\n         </h5>\n         <a href="http://www.monster.com/jobs/search/?client=power&amp;q=IT/Software Development&amp;where=Albuquerque , NM&amp;intcid=more_jobs_category_location" title="See all IT/Software Development jobs in Albuquerque, NM">\n          See all IT/Software Development jobs in Albuquerque, NM\n         </a>\n         <br/>\n         <a href="http://www.monster.com/jobs/search/?client=power&amp;q=Software/System Architecture&amp;intcid=more_jobs_occupation" title="See all Software/System Architecture jobs">\n          See all Software/System Architecture jobs\n         </a>\n         <br/>\n         <a class="aut-city-search" href="http://www.monster.com/jobs/search/?client=power&amp;where=Albuquerque , NM&amp;intcid=more_jobs_location" title="See all jobs in Albuquerque">\n          See all jobs in Albuquerque\n         </a>\n        </div>\n       </div>\n       <div class="oasAdsContainer">\n        <div>\n         <!-- 1st Section Begins : Delivery via OAS JX Tag -->\n         <script type="text/javascript">\n          window.MonsterAdds = window.MonsterAdds || {};\r\n\r\n            MonsterAdds.writeScript = function (showMobile) {\r\n                //TODO add mobile test if needed, see AdBlock.cshtml\r\n                document.write("<scr" + "ipt type=\'text/javascript\' src=\'//oas.monster.com/RealMedia/ads/adstream_jx.ads/us.monster.en/aggjobview/11357844238@Right3?size=300x250&site=mons&affiliate=Monster&app=js&oas_pv=no_analytics&fb=0&moc=11969&st=NM&pci=Albuquerque&pcy=US&proejc=660&key=IT%2fSoftware+Development&plid=537&pcid=2132&poccid=11969&mesco=1700169001001\'><\\/script>");\r\n            };\r\n\r\n            MonsterAdds.writeScript(true);\n         </script>\n         <!-- 2nd Section Begins : Delivery via OAS NX Tag for non-Javascript Browser -->\n         <noscript>\n          <a href="//oas.monster.com/RealMedia/ads/click_nx.ads/us.monster.en/aggjobview/1784318648@Right3?size=300x250&amp;site=mons&amp;affiliate=Monster&amp;app=js&amp;oas_pv=no_analytics&amp;fb=0&amp;moc=11969&amp;st=NM&amp;pci=Albuquerque&amp;pcy=US&amp;proejc=660&amp;key=IT%2fSoftware+Development&amp;plid=537&amp;pcid=2132&amp;poccid=11969&amp;mesco=1700169001001">\n           <img src="//oas.monster.com/RealMedia/ads/click_nx.ads/us.monster.en/aggjobview/1140208762@Right3?size=300x250&amp;site=mons&amp;affiliate=Monster&amp;app=js&amp;oas_pv=no_analytics&amp;fb=0&amp;moc=11969&amp;st=NM&amp;pci=Albuquerque&amp;pcy=US&amp;proejc=660&amp;key=IT%2fSoftware+Development&amp;plid=537&amp;pcid=2132&amp;poccid=11969&amp;mesco=1700169001001"/>\n          </a>\n         </noscript>\n        </div>\n       </div>\n      </div>\n      <div class="hidden-xs affix-fix">\n      </div>\n     </div>\n    </div>\n    <!-- ./row -->\n    <div class="modal fade" id="subscriptionModal">\n     <div class="modal-dialog">\n      <div class="modal-content">\n       <div class="modal-body">\n        <div class="email-collection promoted">\n         <div class="icon">\n         </div>\n         <h4 class="title">\n          Get new similar jobs by email for\n         </h4>\n         <p class="desc">\n          R&amp;D Electrical Engineer (Entry/Mid-Career)\n         </p>\n         <form action="" aria-hidden="true" class="email-jvsub-collection" data-id="09730733-3c3b-47b5-9a9e-473eda61c3e1" data-remote-subscribe="/LiteReg/JobViewSubscription" data-remote-validation="/LiteReg/IsEmailValid" id="modalForm" method="POST">\n          <div class="row-flex">\n           <div class="col-flex stretch">\n            <input class="form-control input-sm" id="emailAddress" name="emailAddress" placeholder="Please enter your email" type="email"/>\n           </div>\n           <div class="col-flex">\n            <a class="btn btn-sm btn-primary btn-jobsdotcom" data-action="modal-subscription" data-form-selector=".email-jvsub-collection" href="#" rel="nofollow" role="button">\n             Email me jobs\n            </a>\n           </div>\n           <div class="col-flex">\n            <a class="btn btn-link btn-sm" href="#" id="cancelModal">\n             Skip\n            </a>\n           </div>\n          </div>\n         </form>\n        </div>\n       </div>\n       <div class="modal-footer">\n        <span class="help-block small">\n         By continuing you agree to Monster\'s\n         <a href="http://my.monster.com/Privacy/Default.aspx" target="_blank" title="Privacy Policy">\n          Privacy Policy\n         </a>\n         ,\n         <a href="http://my.monster.com/Terms/Default.aspx" target="_blank" title="Terms of Use">\n          Terms of Use\n         </a>\n         and\n         <a href="http://inside.monster.com/cookie-info/inside2.aspx" target="_blank" title="use of cookies">\n          use of cookies\n         </a>\n         .\n        </span>\n       </div>\n       <div class="help-block small alert-success" style="display: none;">\n        You will start receiving jobs like this emailed to: {emailaddress}\n       </div>\n      </div>\n      <!-- /.modal-content -->\n     </div>\n     <!-- /.modal-dialog -->\n    </div>\n    <!-- /.modal -->\n    <script id="ApplySubscriptionThankYou" type="text/template">\n     <p><b>Thank you for applying for:</b><br />R&D Electrical Engineer (Entry/Mid-Career) in Albuquerque, NM 87102</p>\r\n        <p class="text-muted">To check your full apply history, <a href=https://login20.monster.com>log in</a> or <a href=http://my.monster.com/Become-Member/Create-Account>create an account.</a></p>\n    </script>\n    <script type="text/javascript">\n     var script = document.createElement("script");\r\n    script.type = "text/javascript";\r\n    script.async = true;\r\n    script.src = "//nexus.ensighten.com/monster/Bootstrap.js";\r\n    document.head.appendChild(script);\n    </script>\n   </div>\n   <footer class="page-footer">\n    <div class="container">\n     <div class="row">\n      <div class="col-md-12">\n       <!-- Copyright info -->\n       <p class="copy">\n        Copyright \xc2\xa9 2015 |\n        <a href="http://www.monster.com">\n         Monster Worldwide\n        </a>\n       </p>\n      </div>\n     </div>\n    </div>\n   </footer>\n   <script src="/js/jobviewjs?v=Qp96d4MjGz4yVpoQyg3bu08SRTYnAxoYIMyQbxHelEg1">\n   </script>\n   <!--tracking script-->\n   <script src="http://logs.jobs.com/impression_trackingv2.js" type="text/javascript">\n   </script>\n   <script type="text/javascript">\n    monster.controls.add("monster.jv.base.tracking", {"cloudApiDomain":"logs.jobs.com"});\n   </script>\n   <script type="text/javascript">\n    monster.controls.add("monster.jv.base.jobview", {});\n   </script>\n   <script type="text/javascript">\n    monster.controls.add("monster.jv.base.subscription", {});\n   </script>\n   <script type="text/javascript">\n    monster.controls.add("monster.jv.base.subscriptionModal", {});\n   </script>\n   <script type="text/javascript">\n    monster.controls.add("monster.jv.base.banner", {});\n   </script>\n   <script type="text/javascript">\n    monster.controls.add("monster.jv.base.tooltip", {});\n   </script>\n  </div>\n  <!-- Google Analytics Script Start -->\n  <script>\n   (function (i, s, o, g, r, a, m) {\r\n            i[\'GoogleAnalyticsObject\'] = r; i[r] = i[r] || function () {\r\n                (i[r].q = i[r].q || []).push(arguments)\r\n            }, i[r].l = 1 * new Date(); a = s.createElement(o),\r\n            m = s.getElementsByTagName(o)[0]; a.async = 1; a.src = g; m.parentNode.insertBefore(a, m)\r\n        })(window, document, \'script\', \'//www.google-analytics.com/analytics.js\', \'ga\');\r\n\r\n        ga(\'create\', \'UA-41898665-3\', \'jobs.com\');\r\n        ga(\'send\', \'pageview\');\n  </script>\n  <!--Google Analytics Script End -->\n  <script type="text/javascript">\n   monster.eventBus.pub(monster.Events.PAGE_LOAD);\n  </script>\n  <!-- Site Catalyst Start -->\n  <script src="http://media.newjobs.com/js/global/at_1.5.js" type="text/javascript">\n  </script>\n  <script type="text/javascript">\n   var DYNAMIC_S_ACCOUNT = \'newjobsProdseekerUS\';\r\n    var DYNAMIC_S_CURRENCYCODE = \'USD\';\r\n    //<![CDATA[\r\n    var amc = amc || {}; if (!amc.on) { amc.on = amc.call = function () { }; };\r\n    document.write("<scr" + "ipt type=\'text/javascript\' src=\'//media.monster.com/js/sc/sitecatalystLL.js\'></sc" + "ript>");\r\n    //]]>\r\n\r\n    _m.ATM.properties = {"channel":"58","eVar1":"D=g","prop1":"D=g","eVar4":"0","eVar2":"unrecognized","prop22":"N/A-Cloud","prop23":"N/A-Cloud","prop24":"1/1/0001","prop25":"N/A-Cloud","prop26":"N/A-Cloud","eVar25":"09730733-3c3b-47b5-9a9e-473eda61c3e1_R\\u0026D Electrical Engineer (Entry/Mid-Career)","eVar26":"1f31d1e2_Sandia Corporation","eVar27":"N/A-Cloud","eVar28":"IT/Software Development","eVar29":"N/A-Cloud","eVar30":"Software/System Architecture","eVar31":"Albuquerque_NM_US","eVar32":"N/A-Cloud","eVar33":"N/A-Cloud","eVar35":"Sandia Corporation","eVar36":"App_Cstm","eVar37":"N/A-Cloud","eVar38":"R/L-Apply","eVar47":"2","eVar50":"Aggregated","eVar53":"1700169001001","eVar64":"27024","eVar66":"Monster","events.event3":"1","events.event30":"true","events.event42":"1","eVar61":"Group C JS - newconfirmation.aspx"};\r\n    _m.ATM.pageName = \'desktop|mons|jobs30|jobview\';\r\n    _m.ATM.appConfig = {version:\'0\',appID:\'jobviewcloud\',channelID:\'58\',countryID:\'164\'};\r\n    _m.ATM.runOnLoad=true;\r\n\r\n    $(document).ready(_m.ATM.initFromOnReady);\n  </script>\n  <!-- Site Catalyst End -->\n </body>\n</html>'
tp2
a(S'http://job-openings.monster.com/monster/d32688ba-c3c8-46d8-9a46-ac82aa1a7ede'
S'<!DOCTYPE html>\n<!--[if lt IE 7]>      <html class="no-js lt-ie9 lt-ie8 lt-ie7"> <![endif]-->\n<!--[if IE 7]>         <html class="no-js lt-ie9 lt-ie8"> <![endif]-->\n<!--[if IE 8]>         <html class="no-js lt-ie9"> <![endif]-->\n<!--[if gt IE 8]><!-->\n<html class="no-js">\n <!--<![endif]-->\n <head>\n  <title>\n   HS Sr Research Specialist (0837577) - University of New Mexico | Jobs.com\n  </title>\n  <meta charset="utf-8"/>\n  <meta content="IE=edge,chrome=1" http-equiv="X-UA-Compatible"/>\n  <meta content="text/html; charset=utf-8" http-equiv="Content-Type"/>\n  <meta content="width=device-width, initial-scale=1.0" name="viewport"/>\n  <meta content="University of New Mexico - Albuquerque, NM. &lt;!-- New Section: Posting Details --&gt;Posting Det" name="description"/>\n  <meta content="HS Sr Research Specialist (0837577)" property="og:title"/>\n  <meta content="University of New Mexico - Albuquerque, NM. &lt;!-- New Section: Posting Details --&gt;Posting Det" property="og:description"/>\n  <link href="http://plus.monster.com/+monster" rel="publisher"/>\n  <link href="https://maxcdn.bootstrapcdn.com/bootstrap/3.2.0/css/bootstrap.min.css" rel="stylesheet"/>\n  <link href="https://maxcdn.bootstrapcdn.com/font-awesome/4.2.0/css/font-awesome.min.css" rel="stylesheet"/>\n  <link href="/bundles/monster?v=3VUpvWSKWfcSTe2LCMpXVIfzIyGEJcLvPJMZUFZH8gg1" rel="stylesheet"/>\n  <!-- Favicon -->\n  <link href="http://media.newjobs.com/niche/img/favicon/favicon.ico" rel="shortcut icon"/>\n  <meta content="noindex, nofollow" name="robots"/>\n  <meta content="Monster" name="m_impr.a_affiliate_id"/>\n  <meta content="jobview" name="_ac.page_name"/>\n  <!-- Le HTML5 shim, for IE6-8 support of HTML5 elements -->\n  <!--[if lt IE 9]>\r\n    <script src="/scripts/third_party/html5shiv.js"></script>\r\n    <script src="/scripts/bootstrap/respond.min.js" type="text/javascript"></script>\r\n\r\n    <script type="text/javascript">\r\n        if (!Array.prototype.forEach) {\r\n            Array.prototype.forEach = function (fun /*, thisArg */) {\r\n                "use strict";\r\n                if (this === void 0 || this === null || typeof fun !== "function") throw new TypeError();\r\n\r\n                var\r\n                    t = Object(this),\r\n                    len = t.length >>> 0,\r\n                    thisArg = arguments.length >= 2 ? arguments[1] : void 0;\r\n\r\n                for (var i = 0; i < len; i++)\r\n                    if (i in t)\r\n                        fun.call(thisArg, t[i], i, t);\r\n            };\r\n        }\r\n    </script>\r\n<![endif]-->\n </head>\n <body>\n  <div class="page">\n   <div class="navbar navbar-default navbar-fixed-top">\n    <div class="container">\n     <!--<div class="container">-->\n     <div class="navbar-header" itemscope="" itemtype="http://schema.org/Organization">\n      <a class="navbar-brand" href="http://www.monster.com" itemprop="url">\n       <img alt="monster.com" itemprop="logo" src="/Areas/JobViewCloud/content/images/monster-new.png" title="monster.com"/>\n      </a>\n     </div>\n     <!-- large screen navbar-collapse location -->\n     <div class="navbar-collapse collapse hidden-xs">\n     </div>\n     <!--/.navbar-collapse -->\n    </div>\n    <!-- ./container -->\n   </div>\n   <!-- ./navbar -->\n   <div class="jobview container">\n    <div class="row">\n     <div class="alert alert-danger alert-fixed" role="alert">\n      <p>\n       We\xe2\x80\x99re sorry; this job is no longer available.\n      </p>\n     </div>\n     <div class="col-md-8 col-md-offset-2">\n      <header class="jobview-expired-header">\n       <h3 class="title">\n        Jobs you might like\n       </h3>\n       <a class="back" href="http://www.monster.com/jobs/search/?client=power">\n        Back to Job search\n       </a>\n      </header>\n      <!-- ./jobview-header -->\n      <section class="jobview-related-jobs-detail" id="relatedJobs">\n       <article>\n        <header>\n         <h4 class="title">\n          <a class="cloudJobs" data-m_impr_a_placement_id="genrj" data-m_impr_j_aff="Monster" data-m_impr_j_cid="2" data-m_impr_j_coc="xw192843345wx " data-m_impr_j_jawsid="226241073" data-m_impr_j_jobid="182336785" data-m_impr_j_jpm="1" data-m_impr_j_jpt="1" data-m_impr_j_jptname="Duration" data-m_impr_j_lat="0" data-m_impr_j_lid="537" data-m_impr_j_long="0" data-m_impr_j_occid="0" data-m_impr_j_p="1" data-m_impr_j_postingid="1d8c726f-18a7-4d24-97bc-cb97c0a1b4e9" data-m_impr_j_pvc="monster" data-m_impr_j_rloc="" data-m_impr_s_search_query="" data-m_impr_s_t="RE_EXP6b_JSJ_CR" data-m_impr_uuid="1edacda9-2a3f-4169-9964-34e7d8419d61" href="http://jobview.monster.com/Administrative-Research-Assistant-Job-Albuquerque-NM-US-182336785.aspx?intcid=js" onclick="jobClick(this, \'http://jobview.monster.com/Administrative-Research-Assistant-Job-Albuquerque-NM-US-182336785.aspx?intcid=js\', \'newjobsprodseekerus\', \'click on jobview from jobview\')" rel="nofollow" target="_blank" title="View This Job: Administrative Research Assistant">\n           Administrative Research Assistant\n          </a>\n         </h4>\n         <p class="location">\n          BRINM in Albuquerque, NM\n         </p>\n        </header>\n        <p class="description">\n         Position Responsibilities/Duties:will  include but not limited to: answer multiple   phone lines; triage calls that involve paging, emailing or taking messages and  transfer call to appropriate staff member; takes care of routine matters based  on  ...\n        </p>\n        <time class="publish-date">\n         21 Days ago\n        </time>\n       </article>\n       <article>\n        <header>\n         <h4 class="title">\n          <a class="cloudJobs" data-m_impr_a_placement_id="genrj" data-m_impr_j_aff="Monster" data-m_impr_j_cid="11455" data-m_impr_j_coc="xw229061839wx " data-m_impr_j_jawsid="230671414" data-m_impr_j_jobid="183112391" data-m_impr_j_jpm="1" data-m_impr_j_jpt="1" data-m_impr_j_jptname="Duration" data-m_impr_j_lat="0" data-m_impr_j_lid="537" data-m_impr_j_long="0" data-m_impr_j_occid="0" data-m_impr_j_p="2" data-m_impr_j_postingid="30288258-5606-4a17-94d3-735c9ce98003" data-m_impr_j_pvc="monster" data-m_impr_j_rloc="" data-m_impr_s_search_query="" data-m_impr_s_t="RE_EXP6b_JSJ_CR" data-m_impr_uuid="ffb6f0e5-dfc8-4161-b1c3-62a60d0fa71e" href="http://jobview.monster.com/Quality-Control-Technician-Job-Los-Lunas-NM-US-183112391.aspx?intcid=js" onclick="jobClick(this, \'http://jobview.monster.com/Quality-Control-Technician-Job-Los-Lunas-NM-US-183112391.aspx?intcid=js\', \'newjobsprodseekerus\', \'click on jobview from jobview\')" rel="nofollow" target="_blank" title="View This Job: Quality Control Technician">\n           Quality Control Technician\n          </a>\n         </h4>\n         <p class="location">\n          Wall Colmonoy Corporation in Los Lunas, NM\n         </p>\n        </header>\n        <p class="description">\n         Title: QC Technician  Status: Hourly  Non-Exempt\xc2\xa0Plant and Department: Los Lunas, NM / Quality Department Reports to: Quality Management Systems Coordinator (QMS Coordinator)\xc2\xa0Purpose:\xc2\xa0The purpose of this position is to assist the QMS Coordinator in  ...\n        </p>\n        <time class="publish-date">\n         Posted today\n        </time>\n       </article>\n       <article>\n        <header>\n         <h4 class="title">\n          <a class="cloudJobs" data-m_impr_a_placement_id="genrj" data-m_impr_j_aff="Monster" data-m_impr_j_cid="559" data-m_impr_j_coc="" data-m_impr_j_jawsid="224480043" data-m_impr_j_jobid="182081280" data-m_impr_j_jpm="1" data-m_impr_j_jpt="1" data-m_impr_j_jptname="Duration" data-m_impr_j_lat="0" data-m_impr_j_lid="347" data-m_impr_j_long="0" data-m_impr_j_occid="0" data-m_impr_j_p="3" data-m_impr_j_postingid="d828fc83-efc2-426d-934b-bf1288c7711a" data-m_impr_j_pvc="monster" data-m_impr_j_rloc="" data-m_impr_s_search_query="" data-m_impr_s_t="RE_EXP6b_JSJ_CR" data-m_impr_uuid="6fccd7b5-405a-42ad-9c8c-ba7164e151c9" href="http://jobview.monster.com/R-D-Formulation-Lead-Nutrition-Job-Anaheim-CA-US-182081280.aspx?intcid=js" onclick="jobClick(this, \'http://jobview.monster.com/R-D-Formulation-Lead-Nutrition-Job-Anaheim-CA-US-182081280.aspx?intcid=js\', \'newjobsprodseekerus\', \'click on jobview from jobview\')" rel="nofollow" target="_blank" title="View This Job: R &amp; D Formulation Lead, Nutrition">\n           R &amp; D Formulation Lead, Nutrition\n          </a>\n         </h4>\n         <p class="location">\n          Anaheim, CA\n         </p>\n        </header>\n        <p class="description">\n         1.\xc2\xa0\xc2\xa0\xc2\xa0\xc2\xa0\xc2\xa0Liaison with R&amp;D Supervisor and third party manufacturers\xc2\xa0to\xc2\xa0interpret marketing briefs and consumer\xc2\xa0trends into new products. 2. Interface with Quality, Supply Chain, Planning and Regulatory team members to develop and evaluate premium  ...\n        </p>\n        <time class="publish-date">\n         28 Days ago\n        </time>\n       </article>\n       <script type="text/javascript">\n        window.MonsterAdds = window.MonsterAdds || {};\r\n\r\n    /*http://detectmobilebrowsers.com/*/\r\n    window.MonsterAdds.testMobile = function () {\r\n        var a = navigator.userAgent || navigator.vendor || window.opera;\r\n        return /(android|bb\\d+|meego).+mobile|avantgo|bada\\/|blackberry|blazer|compal|elaine|fennec|hiptop|iemobile|ip(hone|od)|iris|kindle|lge |maemo|midp|mmp|mobile.+firefox|netfront|opera m(ob|in)i|palm( os)?|phone|p(ixi|re)\\/|plucker|pocket|psp|series(4|6)0|symbian|treo|up\\.(browser|link)|vodafone|wap|windows ce|xda|xiino/i.test(a) || /1207|6310|6590|3gso|4thp|50[1-6]i|770s|802s|a wa|abac|ac(er|oo|s\\-)|ai(ko|rn)|al(av|ca|co)|amoi|an(ex|ny|yw)|aptu|ar(ch|go)|as(te|us)|attw|au(di|\\-m|r |s )|avan|be(ck|ll|nq)|bi(lb|rd)|bl(ac|az)|br(e|v)w|bumb|bw\\-(n|u)|c55\\/|capi|ccwa|cdm\\-|cell|chtm|cldc|cmd\\-|co(mp|nd)|craw|da(it|ll|ng)|dbte|dc\\-s|devi|dica|dmob|do(c|p)o|ds(12|\\-d)|el(49|ai)|em(l2|ul)|er(ic|k0)|esl8|ez([4-7]0|os|wa|ze)|fetc|fly(\\-|_)|g1 u|g560|gene|gf\\-5|g\\-mo|go(\\.w|od)|gr(ad|un)|haie|hcit|hd\\-(m|p|t)|hei\\-|hi(pt|ta)|hp( i|ip)|hs\\-c|ht(c(\\-| |_|a|g|p|s|t)|tp)|hu(aw|tc)|i\\-(20|go|ma)|i230|iac( |\\-|\\/)|ibro|idea|ig01|ikom|im1k|inno|ipaq|iris|ja(t|v)a|jbro|jemu|jigs|kddi|keji|kgt( |\\/)|klon|kpt |kwc\\-|kyo(c|k)|le(no|xi)|lg( g|\\/(k|l|u)|50|54|\\-[a-w])|libw|lynx|m1\\-w|m3ga|m50\\/|ma(te|ui|xo)|mc(01|21|ca)|m\\-cr|me(rc|ri)|mi(o8|oa|ts)|mmef|mo(01|02|bi|de|do|t(\\-| |o|v)|zz)|mt(50|p1|v )|mwbp|mywa|n10[0-2]|n20[2-3]|n30(0|2)|n50(0|2|5)|n7(0(0|1)|10)|ne((c|m)\\-|on|tf|wf|wg|wt)|nok(6|i)|nzph|o2im|op(ti|wv)|oran|owg1|p800|pan(a|d|t)|pdxg|pg(13|\\-([1-8]|c))|phil|pire|pl(ay|uc)|pn\\-2|po(ck|rt|se)|prox|psio|pt\\-g|qa\\-a|qc(07|12|21|32|60|\\-[2-7]|i\\-)|qtek|r380|r600|raks|rim9|ro(ve|zo)|s55\\/|sa(ge|ma|mm|ms|ny|va)|sc(01|h\\-|oo|p\\-)|sdk\\/|se(c(\\-|0|1)|47|mc|nd|ri)|sgh\\-|shar|sie(\\-|m)|sk\\-0|sl(45|id)|sm(al|ar|b3|it|t5)|so(ft|ny)|sp(01|h\\-|v\\-|v )|sy(01|mb)|t2(18|50)|t6(00|10|18)|ta(gt|lk)|tcl\\-|tdg\\-|tel(i|m)|tim\\-|t\\-mo|to(pl|sh)|ts(70|m\\-|m3|m5)|tx\\-9|up(\\.b|g1|si)|utst|v400|v750|veri|vi(rg|te)|vk(40|5[0-3]|\\-v)|vm40|voda|vulc|vx(52|53|60|61|70|80|81|83|85|98)|w3c(\\-| )|webc|whit|wi(g |nc|nw)|wmlb|wonu|x700|yas\\-|your|zeto|zte\\-/i.test(a.substr(0, 4));\r\n    };\n       </script>\n       <script type="text/javascript">\n        window.MonsterAdds = window.MonsterAdds || {};\r\n\r\n    MonsterAdds.writeFrame = function(showMobile) {\r\n        var isMobile = MonsterAdds.testMobile();\r\n\r\n        if ((showMobile) || (isMobile === false)) {\r\n            document.write("<IFRAME WIDTH=\'100%\' HEIGHT=\'112\' MARGINWIDTH=\'0\' MARGINHEIGHT=\'0\' HSPACE=\'0\' VSPACE=\'0\' FRAMEBORDER=\'0\' SCROLLING=\'no\' BORDERCOLOR=\'#000000\' class=\'inline-ad-panel\' SRC=\'http://oas.monster.com/RealMedia/ads/adstream_sx.ads/us.monster.en/jobview/apply/confirmation.aspx/1220356228@Bottom1,Left1,Middle!Middle?size=616x112&amp;site=mons&amp;affiliate=Monster&amp;app=js&amp;oas_pv=no_analytics&amp;fb=0&amp;moc=11729&amp;st=NM&amp;pci=Albuquerque&amp;pcy=US&amp;proejc=559&amp;key=Biotech%2fR%26D%2fScience&amp;plid=537&amp;pcid=2112&amp;poccid=11729&amp;mesco=1900305001001\'></IFRAME>");\r\n        }\r\n    };\r\n    \r\n    MonsterAdds.writeFrame(true);\n       </script>\n       <article>\n        <header>\n         <h4 class="title">\n          <a class="cloudJobs" data-m_impr_a_placement_id="genrj" data-m_impr_j_aff="Monster" data-m_impr_j_cid="4" data-m_impr_j_coc="xltiesinx " data-m_impr_j_jawsid="224799684" data-m_impr_j_jobid="182134415" data-m_impr_j_jpm="1" data-m_impr_j_jpt="1" data-m_impr_j_jptname="Duration" data-m_impr_j_lat="0" data-m_impr_j_lid="700" data-m_impr_j_long="0" data-m_impr_j_occid="0" data-m_impr_j_p="4" data-m_impr_j_postingid="e5620380-9995-47ba-a6c9-bd6a338b08dd" data-m_impr_j_pvc="monster" data-m_impr_j_rloc="" data-m_impr_s_search_query="" data-m_impr_s_t="RE_EXP6b_JSJ_CR" data-m_impr_uuid="af478bbe-be3f-400b-8c46-c2cdbacbf3c8" href="http://jobview.monster.com/Dev-Research-Engineering-Specialist-Job-Mossville-IL-US-182134415.aspx?intcid=js" onclick="jobClick(this, \'http://jobview.monster.com/Dev-Research-Engineering-Specialist-Job-Mossville-IL-US-182134415.aspx?intcid=js\', \'newjobsprodseekerus\', \'click on jobview from jobview\')" rel="nofollow" target="_blank" title="View This Job: Dev/Research Engineering Specialist">\n           Dev/Research Engineering Specialist\n          </a>\n         </h4>\n         <p class="location">\n          L&amp;T Technology Services in Mossville, IL\n         </p>\n        </header>\n        <p class="description">\n         Research and investigate the design, functionality and maintenance of mechanical products, equipment, systems and processes. Education/Experience: Bachelor\xe2\x80\x99s degree in engineering required. Ten plus years engineering experience required. Skills and  ...\n        </p>\n        <time class="publish-date">\n         27 Days ago\n        </time>\n       </article>\n       <article>\n        <header>\n         <h4 class="title">\n          <a class="cloudJobs" data-m_impr_a_placement_id="genrj" data-m_impr_j_aff="Monster" data-m_impr_j_cid="559" data-m_impr_j_coc="xbaysolx " data-m_impr_j_jawsid="224792042" data-m_impr_j_jobid="182129192" data-m_impr_j_jpm="1" data-m_impr_j_jpt="1" data-m_impr_j_jptname="Duration" data-m_impr_j_lat="0" data-m_impr_j_lid="20586" data-m_impr_j_long="0" data-m_impr_j_occid="0" data-m_impr_j_p="5" data-m_impr_j_postingid="38abb90c-df3c-47f0-90ca-2ee318473e82" data-m_impr_j_pvc="monster" data-m_impr_j_rloc="" data-m_impr_s_search_query="" data-m_impr_s_t="RE_EXP6b_JSJ_CR" data-m_impr_uuid="36eb3af6-bf68-4bb4-9c62-85788278e8fc" href="http://jobview.monster.com/Research-Associate-I-Quality-Control-Job-San-Rafael-CA-US-182129192.aspx?intcid=js" onclick="jobClick(this, \'http://jobview.monster.com/Research-Associate-I-Quality-Control-Job-San-Rafael-CA-US-182129192.aspx?intcid=js\', \'newjobsprodseekerus\', \'click on jobview from jobview\')" rel="nofollow" target="_blank" title="View This Job: Research Associate I, Quality Control">\n           Research Associate I, Quality Control\n          </a>\n         </h4>\n         <p class="location">\n          Bayside Solutions in San Rafael, CA\n         </p>\n        </header>\n        <p class="description">\n         Bayside Solutions is seeking a Research Associate I, Quality Control to be part of our Client\'s team in Marin County. This is an opportunity to work with a local Biopharmaceutical company focusing on the developing and commercializing novel therapies  ...\n        </p>\n        <time class="publish-date">\n         27 Days ago\n        </time>\n       </article>\n       <!-- jrs-job=229627314&amp;count=5 -->\n      </section>\n      <div class="panel-group">\n       <a class="back" href="http://www.monster.com/jobs/search/?client=power">\n        Back to Job search\n       </a>\n      </div>\n      <script type="text/javascript">\n       window.MonsterAdds = window.MonsterAdds || {};\r\n\r\n    /*http://detectmobilebrowsers.com/*/\r\n    window.MonsterAdds.testMobile = function () {\r\n        var a = navigator.userAgent || navigator.vendor || window.opera;\r\n        return /(android|bb\\d+|meego).+mobile|avantgo|bada\\/|blackberry|blazer|compal|elaine|fennec|hiptop|iemobile|ip(hone|od)|iris|kindle|lge |maemo|midp|mmp|mobile.+firefox|netfront|opera m(ob|in)i|palm( os)?|phone|p(ixi|re)\\/|plucker|pocket|psp|series(4|6)0|symbian|treo|up\\.(browser|link)|vodafone|wap|windows ce|xda|xiino/i.test(a) || /1207|6310|6590|3gso|4thp|50[1-6]i|770s|802s|a wa|abac|ac(er|oo|s\\-)|ai(ko|rn)|al(av|ca|co)|amoi|an(ex|ny|yw)|aptu|ar(ch|go)|as(te|us)|attw|au(di|\\-m|r |s )|avan|be(ck|ll|nq)|bi(lb|rd)|bl(ac|az)|br(e|v)w|bumb|bw\\-(n|u)|c55\\/|capi|ccwa|cdm\\-|cell|chtm|cldc|cmd\\-|co(mp|nd)|craw|da(it|ll|ng)|dbte|dc\\-s|devi|dica|dmob|do(c|p)o|ds(12|\\-d)|el(49|ai)|em(l2|ul)|er(ic|k0)|esl8|ez([4-7]0|os|wa|ze)|fetc|fly(\\-|_)|g1 u|g560|gene|gf\\-5|g\\-mo|go(\\.w|od)|gr(ad|un)|haie|hcit|hd\\-(m|p|t)|hei\\-|hi(pt|ta)|hp( i|ip)|hs\\-c|ht(c(\\-| |_|a|g|p|s|t)|tp)|hu(aw|tc)|i\\-(20|go|ma)|i230|iac( |\\-|\\/)|ibro|idea|ig01|ikom|im1k|inno|ipaq|iris|ja(t|v)a|jbro|jemu|jigs|kddi|keji|kgt( |\\/)|klon|kpt |kwc\\-|kyo(c|k)|le(no|xi)|lg( g|\\/(k|l|u)|50|54|\\-[a-w])|libw|lynx|m1\\-w|m3ga|m50\\/|ma(te|ui|xo)|mc(01|21|ca)|m\\-cr|me(rc|ri)|mi(o8|oa|ts)|mmef|mo(01|02|bi|de|do|t(\\-| |o|v)|zz)|mt(50|p1|v )|mwbp|mywa|n10[0-2]|n20[2-3]|n30(0|2)|n50(0|2|5)|n7(0(0|1)|10)|ne((c|m)\\-|on|tf|wf|wg|wt)|nok(6|i)|nzph|o2im|op(ti|wv)|oran|owg1|p800|pan(a|d|t)|pdxg|pg(13|\\-([1-8]|c))|phil|pire|pl(ay|uc)|pn\\-2|po(ck|rt|se)|prox|psio|pt\\-g|qa\\-a|qc(07|12|21|32|60|\\-[2-7]|i\\-)|qtek|r380|r600|raks|rim9|ro(ve|zo)|s55\\/|sa(ge|ma|mm|ms|ny|va)|sc(01|h\\-|oo|p\\-)|sdk\\/|se(c(\\-|0|1)|47|mc|nd|ri)|sgh\\-|shar|sie(\\-|m)|sk\\-0|sl(45|id)|sm(al|ar|b3|it|t5)|so(ft|ny)|sp(01|h\\-|v\\-|v )|sy(01|mb)|t2(18|50)|t6(00|10|18)|ta(gt|lk)|tcl\\-|tdg\\-|tel(i|m)|tim\\-|t\\-mo|to(pl|sh)|ts(70|m\\-|m3|m5)|tx\\-9|up(\\.b|g1|si)|utst|v400|v750|veri|vi(rg|te)|vk(40|5[0-3]|\\-v)|vm40|voda|vulc|vx(52|53|60|61|70|80|81|83|85|98)|w3c(\\-| )|webc|whit|wi(g |nc|nw)|wmlb|wonu|x700|yas\\-|your|zeto|zte\\-/i.test(a.substr(0, 4));\r\n    };\n      </script>\n      <script type="text/javascript">\n       window.MonsterAdds = window.MonsterAdds || {};\r\n\r\n    MonsterAdds.writeFrame = function(showMobile) {\r\n        var isMobile = MonsterAdds.testMobile();\r\n\r\n        if ((showMobile) || (isMobile === false)) {\r\n            document.write("<IFRAME WIDTH=\'100%\' HEIGHT=\'90\' MARGINWIDTH=\'0\' MARGINHEIGHT=\'0\' HSPACE=\'0\' VSPACE=\'0\' FRAMEBORDER=\'0\' SCROLLING=\'no\' BORDERCOLOR=\'#000000\' class=\'bottom-ad-panel\' SRC=\'http://oas.monster.com/RealMedia/ads/adstream_sx.ads/us.monster.en/jobview/apply/confirmation.aspx/11938951616@Bottom1,Left1,Middle!Bottom1?size=728x90&amp;site=mons&amp;affiliate=Monster&amp;app=js&amp;oas_pv=no_analytics&amp;fb=0&amp;moc=11729&amp;st=NM&amp;pci=Albuquerque&amp;pcy=US&amp;proejc=559&amp;key=Biotech%2fR%26D%2fScience&amp;plid=537&amp;pcid=2112&amp;poccid=11729&amp;mesco=1900305001001\'></IFRAME>");\r\n        }\r\n    };\r\n    \r\n    MonsterAdds.writeFrame(false);\n      </script>\n     </div>\n    </div>\n    <!-- ./row -->\n    <script type="text/javascript">\n     var script = document.createElement("script");\r\n    script.type = "text/javascript";\r\n    script.async = true;\r\n    script.src = "//nexus.ensighten.com/monster/Bootstrap.js";\r\n    document.head.appendChild(script);\n    </script>\n   </div>\n   <footer class="page-footer">\n    <div class="container">\n     <div class="row">\n      <div class="col-md-12">\n       <!-- Copyright info -->\n       <p class="copy">\n        Copyright \xc2\xa9 2015 |\n        <a href="http://www.monster.com">\n         Monster Worldwide\n        </a>\n       </p>\n      </div>\n     </div>\n    </div>\n   </footer>\n   <script src="/js/jobviewjs?v=Qp96d4MjGz4yVpoQyg3bu08SRTYnAxoYIMyQbxHelEg1">\n   </script>\n   <!--tracking script-->\n   <script src="http://logs.jobs.com/impression_trackingv2.js" type="text/javascript">\n   </script>\n   <script type="text/javascript">\n    monster.controls.add("monster.jv.base.tracking", {"cloudApiDomain":"logs.jobs.com"});\n   </script>\n   <script type="text/javascript">\n    monster.controls.add("monster.jv.base.jobview", {});\n   </script>\n   <script type="text/javascript">\n    monster.controls.add("monster.jv.base.subscription", {});\n   </script>\n   <script type="text/javascript">\n    monster.controls.add("monster.jv.base.subscriptionModal", {});\n   </script>\n   <script type="text/javascript">\n    monster.controls.add("monster.jv.base.banner", {});\n   </script>\n   <script type="text/javascript">\n    monster.controls.add("monster.jv.base.tooltip", {});\n   </script>\n  </div>\n  <!-- Google Analytics Script Start -->\n  <script>\n   (function (i, s, o, g, r, a, m) {\r\n            i[\'GoogleAnalyticsObject\'] = r; i[r] = i[r] || function () {\r\n                (i[r].q = i[r].q || []).push(arguments)\r\n            }, i[r].l = 1 * new Date(); a = s.createElement(o),\r\n            m = s.getElementsByTagName(o)[0]; a.async = 1; a.src = g; m.parentNode.insertBefore(a, m)\r\n        })(window, document, \'script\', \'//www.google-analytics.com/analytics.js\', \'ga\');\r\n\r\n        ga(\'create\', \'UA-41898665-3\', \'jobs.com\');\r\n        ga(\'send\', \'pageview\');\n  </script>\n  <!--Google Analytics Script End -->\n  <script type="text/javascript">\n   monster.eventBus.pub(monster.Events.PAGE_LOAD);\n  </script>\n  <!-- Site Catalyst Start -->\n  <script src="http://media.newjobs.com/js/global/at_1.5.js" type="text/javascript">\n  </script>\n  <script type="text/javascript">\n   var DYNAMIC_S_ACCOUNT = \'newjobsProdseekerUS\';\r\n    var DYNAMIC_S_CURRENCYCODE = \'USD\';\r\n    //<![CDATA[\r\n    var amc = amc || {}; if (!amc.on) { amc.on = amc.call = function () { }; };\r\n    document.write("<scr" + "ipt type=\'text/javascript\' src=\'//media.monster.com/js/sc/sitecatalystLL.js\'></sc" + "ript>");\r\n    //]]>\r\n\r\n    _m.ATM.properties = {"channel":"58","eVar1":"D=g","prop1":"D=g","eVar4":"0","eVar2":"unrecognized","prop22":"N/A-Cloud","prop23":"N/A-Cloud","prop24":"1/1/0001","prop25":"N/A-Cloud","prop26":"N/A-Cloud","eVar25":"d32688ba-c3c8-46d8-9a46-ac82aa1a7ede_HS Sr Research Specialist (0837577)","eVar26":"Unspecified_University of New Mexico","eVar27":"N/A-Cloud","eVar28":"Biotech/R\\u0026D/Science","eVar29":"N/A-Cloud","eVar30":"Biological/Chemical Research","eVar31":"Albuquerque_NM_US","eVar32":"N/A-Cloud","eVar33":"N/A-Cloud","eVar35":"University of New Mexico","eVar36":"App_Cstm","eVar37":"N/A-Cloud","eVar38":"R/L-Apply","eVar47":"22914","eVar50":"Aggregated","eVar53":"1900305001001","eVar64":"31647","eVar66":"Monster","events.event37":"1","events.event42":"1","eVar61":"Group C JS - newconfirmation.aspx"};\r\n    _m.ATM.pageName = \'desktop|mons|jobs30|/monster/expired\';\r\n    _m.ATM.appConfig = {version:\'0\',appID:\'jobviewcloud\',channelID:\'58\',countryID:\'164\'};\r\n    _m.ATM.runOnLoad=true;\r\n\r\n    $(document).ready(_m.ATM.initFromOnReady);\n  </script>\n  <!-- Site Catalyst End -->\n </body>\n</html>'
tp3
a(S'http://job-openings.monster.com/monster/732c3225-4cc4-485b-b3d2-5fb97771afca'
S'<!DOCTYPE html>\n<!--[if lt IE 7]>      <html class="no-js lt-ie9 lt-ie8 lt-ie7"> <![endif]-->\n<!--[if IE 7]>         <html class="no-js lt-ie9 lt-ie8"> <![endif]-->\n<!--[if IE 8]>         <html class="no-js lt-ie9"> <![endif]-->\n<!--[if gt IE 8]><!-->\n<html class="no-js">\n <!--<![endif]-->\n <head>\n  <title>\n   R&amp;D Computer Engineer (Entry/Mid-Career) - Sandia Corporation | Jobs.com\n  </title>\n  <meta charset="utf-8"/>\n  <meta content="IE=edge,chrome=1" http-equiv="X-UA-Compatible"/>\n  <meta content="text/html; charset=utf-8" http-equiv="Content-Type"/>\n  <meta content="width=device-width, initial-scale=1.0" name="viewport"/>\n  <meta content="Sandia Corporation - Albuquerque, NM. The Data Systems Engineering Group is looking for qualified Research and De" name="description"/>\n  <link href="http://plus.monster.com/+monster" rel="publisher"/>\n  <link href="https://maxcdn.bootstrapcdn.com/bootstrap/3.2.0/css/bootstrap.min.css" rel="stylesheet"/>\n  <link href="https://maxcdn.bootstrapcdn.com/font-awesome/4.2.0/css/font-awesome.min.css" rel="stylesheet"/>\n  <link href="/bundles/monster?v=3VUpvWSKWfcSTe2LCMpXVIfzIyGEJcLvPJMZUFZH8gg1" rel="stylesheet"/>\n  <!-- Favicon -->\n  <link href="http://media.newjobs.com/niche/img/favicon/favicon.ico" rel="shortcut icon"/>\n  <meta content="noindex, nofollow" name="robots"/>\n  <meta content="Monster" name="m_impr.a_affiliate_id"/>\n  <meta content="jobview" name="_ac.page_name"/>\n  <!-- Le HTML5 shim, for IE6-8 support of HTML5 elements -->\n  <!--[if lt IE 9]>\r\n    <script src="/scripts/third_party/html5shiv.js"></script>\r\n    <script src="/scripts/bootstrap/respond.min.js" type="text/javascript"></script>\r\n\r\n    <script type="text/javascript">\r\n        if (!Array.prototype.forEach) {\r\n            Array.prototype.forEach = function (fun /*, thisArg */) {\r\n                "use strict";\r\n                if (this === void 0 || this === null || typeof fun !== "function") throw new TypeError();\r\n\r\n                var\r\n                    t = Object(this),\r\n                    len = t.length >>> 0,\r\n                    thisArg = arguments.length >= 2 ? arguments[1] : void 0;\r\n\r\n                for (var i = 0; i < len; i++)\r\n                    if (i in t)\r\n                        fun.call(thisArg, t[i], i, t);\r\n            };\r\n        }\r\n    </script>\r\n<![endif]-->\n </head>\n <body>\n  <div class="page">\n   <div class="navbar navbar-default navbar-fixed-top">\n    <div class="container">\n     <!--<div class="container">-->\n     <div class="navbar-header" itemscope="" itemtype="http://schema.org/Organization">\n      <a class="navbar-brand" href="http://www.monster.com" itemprop="url">\n       <img alt="monster.com" itemprop="logo" src="/Areas/JobViewCloud/content/images/monster-new.png" title="monster.com"/>\n      </a>\n     </div>\n     <!-- large screen navbar-collapse location -->\n     <div class="navbar-collapse collapse hidden-xs">\n     </div>\n     <!--/.navbar-collapse -->\n    </div>\n    <!-- ./container -->\n   </div>\n   <!-- ./navbar -->\n   <div class="jobview container">\n    <div class="row">\n     <input id="normalized-company-id" type="hidden" value="27024"/>\n     <div class="col-xs-12 col-sm-6 col-md-8 col-lg-8">\n      <article id="jobview">\n       <header class="jobview-header">\n        <h3>\n         R&amp;D Computer Engineer (Entry/Mid-Career)\n        </h3>\n        <h4 class="company">\n         Sandia Corporation\n         <small class="location">\n          -\n          <i class="fa fa-map-marker">\n          </i>\n          Albuquerque, NM 87102\n         </small>\n        </h4>\n        <span class="postedDate">\n         <strong>\n          Posted:\n         </strong>\n         4/7/2017\n        </span>\n       </header>\n       <!-- ./jobview-header -->\n       <div class="jobview-upper-apply-mobile visible-xs row">\n        <div class="col-sm-6">\n         <div class="action-buttons">\n          <input id="trackInfo" type="hidden" value=\'{"emailAddress":"","postingId":"732c3225-4cc4-485b-b3d2-5fb97771afca","placementID":null,"jobPosition":0,"uniqueUser":null,"affiliate":"Monster","technology":null}\'/>\n          <a class="btn btn-sm btn-primary btn-jobsdotcom" data-action="apply" data-applyurl="https://cg.sandia.gov/psc/applicant/EMPLOYEE/HRMS/c/HRS_HRAM.HRS_APP_SCHJOB.GBL?Page=HRS_APP_JBPST&amp;Action=U&amp;FOCUS=Applicant&amp;SiteId=1&amp;JobOpeningId=656225&amp;PostingSeq=1" data-atm-id="35" data-confurl="http://job-openings.monster.com/monster/confirmation?postingid=732c3225-4cc4-485b-b3d2-5fb97771afca" data-form-selector=".email-collection" href="http://job-openings.monster.com/monster/confirmation?postingid=732c3225-4cc4-485b-b3d2-5fb97771afca" rel="nofollow" role="button">\n           Apply Now\n          </a>\n          <form action="https://cg.sandia.gov/psc/applicant/EMPLOYEE/HRMS/c/HRS_HRAM.HRS_APP_SCHJOB.GBL?Page=HRS_APP_JBPST&amp;Action=U&amp;FOCUS=Applicant&amp;SiteId=1&amp;JobOpeningId=656225&amp;PostingSeq=1" aria-hidden="true" class="email-collection hidden panel panel-default" data-id="732c3225-4cc4-485b-b3d2-5fb97771afca" data-lrtype="B" data-placement="Left-Bottom-Body" data-position="0" data-remote-subscription="/LiteReg/ApplySubscription" data-remote-validation="/LiteReg/IsEmailValid" data-technology="" method="POST" target="_blank">\n           <div class="panel-body">\n            <div class="row-flex">\n             <div class="col-flex stretch">\n              <input class="form-control input-sm" id="EmailCollectionField2" name="litRegEmailAddress" placeholder="Please enter your email" type="email"/>\n             </div>\n            </div>\n            <label class="control-label" for="EmailCollectionField2">\n             To begin the application, please enter your email\n            </label>\n            <span class="help-block small">\n             By continuing you agree to Monster\'s\n             <a href="http://my.monster.com/Privacy/Default.aspx" target="_blank" title="Privacy Policy">\n              Privacy Policy\n             </a>\n             ,\n             <a href="http://my.monster.com/Terms/Default.aspx" target="_blank" title="Terms of Use">\n              Terms of Use\n             </a>\n             and\n             <a href="http://inside.monster.com/cookie-info/inside2.aspx" target="_blank" title="use of cookies">\n              use of cookies\n             </a>\n             .\n            </span>\n            <button class="sr-only" type="submit">\n             Continue application\n            </button>\n           </div>\n          </form>\n         </div>\n        </div>\n       </div>\n       <div class="jobview-section">\n        The Data Systems Engineering Group is looking for qualified Research and Development Computer Engineering candidates interested in collaborating within a high performing team on next generation technologies to provide solutions to national security applications. The group engineers and delivers technology solutions across the entire spectrum of mission data (producers, consumers, transport, and analysis). These solutions are a mix of hardware and software. Hardware design challenges range from microcontrollers to high performance computing networks and software design challenges range from binary microcode to high-level application and system solutions. Also in the design mix is FPGA firmware development in VHDL or Verilog and signal processing of images and sensor data in both hardware and software. Computer Engineers in group 2660 deliver systems to the customer base accompanied with a qualification and testing pedigree that provides assurance the system will function in the intended environment for the purpose of the mission. Applicants will also have opportunities to propose and participate in internal research and development efforts. Successful candidates will gain experience in embedded hardware and software design, signal processing algorithm development for NW and Radar instrumentation, Missile Defense control systems, network security, pattern recognition and data analytics for sensors, and work with "systems on a chip".\n        <br/>\n        <br/>\n        Some travel may be required.\n        <br/>\n        <br/>\n        Qualifications We Require\n        <br/>\n        <br/>\n        * Advanced degree (Masters or PhD) in Computer Engineering, Electrical Engineering, Computer Science, or relevant science or engineering discipline with an undergraduate degree in science, engineering, or mathematics.\n        <br/>\n        <br/>\n        * Evidence of good academic achievement, typically represented by an undergraduate GPA greater than 3.15 on a 4.0 scale and graduate GPA greater than 3.45 on a 4.0 scale.\n        <br/>\n        <br/>\n        Qualifications We Desire\n        <br/>\n        <br/>\n        * Experience in developing hardware for microprocessor, microcomputer, CPLD, DSP, and high performance computing networks.\n        <br/>\n        <br/>\n        * Proven ability to develop software and firmware for embedded microcontrollers, FPGAs, ASICS, telecommunication and wireless networks in a variety of design environments (Model-Based Design, VHDL, Verilog, schematic, physical layout/semiconductors).\n        <br/>\n        <br/>\n        * Experience in designing real-time operating systems, drivers, and application software from high-level, object oriented languages to assembly language and binary microcode.\n        <br/>\n        <br/>\n        * Proven ability to develop signal processing algorithms for applications in radar, instrumentation, control systems, network security, robotics, sensors, and systems on a chip.\n        <br/>\n        <br/>\n        * Experience in developing telemetry and trusted systems including data recorders and fire sets.\n        <br/>\n        <br/>\n        * Experience with commonly used modeling, design, and analysis tools including Labview, MatLab, Simulink, Green Hills tools, and others.\n        <br/>\n        <br/>\n        * Proven ability to test and debug hardware and software systems with the archival of test/debug evidence.\n        <br/>\n        <br/>\n        * Understanding of systems engineering and design quality processes with proven experience in AS9100, ANSI/EIA-632, and other industry standards.\n        <br/>\n        <br/>\n        * Familiarity with hardware and/or software requirements generation for verification, validation and qualification.\n        <br/>\n        <br/>\n        * Experience in printed circuit board-level and/or component level circuit design, communication system design, signal processing and data analysis.\n        <br/>\n        <br/>\n        * Expertise in state-machine and data throughput designs, synchronous/asynchronous circuit analysis and board-level power analysis.\n        <br/>\n        <br/>\n        * Demonstrated interpersonal skills and ability to work in a team setting for a common purpose.\n        <br/>\n        <br/>\n        * Oral and written communication skills, typically evidenced and demonstrated through technical publications and presentations. Examples can include academic work products, peer-reviewed conferences and publications, internal and external product and/or system whitepapers and technical briefings, test plans and procedures, etc.\n        <br/>\n        <br/>\n        * Demonstrated ability to execute and deliver technical work products with application of appropriate rigor and pedigree documentation (design/code reviews, technical oversight/approvals, project team concurrence, artifact generation, etc).\n        <br/>\n        <br/>\n        * Evidence of high academic achievement, typically represented by an undergraduate GPA greater than 3.5 on a 4.0 scale and graduate GPA greater than 3.7 on a 4.0 scale.\n        <br/>\n        <br/>\n        * Active DOE Q-Level security clearance.\n        <br/>\n        <br/>\n        * Ability to obtain and maintain an SCI security clearance, which may require a counterintelligence polygraph.\n        <br/>\n        <br/>\n        * Active SCI security clearance.\n        <br/>\n        <br/>\n        * Demonstrated ability to bound/estimate and deliver systems and/or components within negotiated cost, schedule, and performance.\n        <br/>\n        <br/>\n        * Domain knowledge and system experience in any or all of nuclear weapons, satellite/payload, and/or aerospace and flight programs.\n        <br/>\n        <br/>\n        About Our Team\n        <br/>\n        <br/>\n        The Engineering and Design Integration Center (2600) is a multi-discipline, product-focused organization that provides engineering design, components, subsystems, integration, testing, and field support for nuclear weapons and other national security applications. Examples of these applications include the development of satellite and other space-flight payloads, testing for high consequence military programs, nuclear weapon safety mechanisms, high reliability electronic products, and telemetry and software systems. The Center is divided into four main competencies: Advanced Mechanical Design, Firing &amp; Embedded Systems, Hi-Reliability Electronic Products, and Data Systems Engineering.\n        <br/>\n        <br/>\n        The successful applicant will join high performing technical teams in the Data Systems Engineering Group and will handle the design, development, qualification, and delivery of highly specialized hardware and software components and subsystems for national security applications. These systems must be designed to meet demanding performance specifications, offer extremely high reliability, enable integration and interfacing to complex host systems, and meet stringent survivability requirements in adverse environments. Successful candidates, depending on skills match and placement within the Data Systems Engineering Group, will have the opportunity to make meaningful contributions in a wide variety of disciplines including analog and digital design and development, embedded development for real-time systems, data processing and analysis to include image and signal processing applications, network and communications technology, trusted systems design and development, testing/fielding complex hardware and software systems, and exploratory data analytics and applied data science. Candidates will be exposed to a variety of hardware and software development environments and methodologies spanning traditional waterfall development and systems engineering to agile development processes.\n        <br/>\n        <br/>\n        About Sandia\n        <br/>\n        <br/>\n        Sandia National Laboratories is the nation\'s premier science and engineering lab for national security and technology innovation, with teams of specialists focused on cutting-edge work in a broad array of areas. Some of the main reasons we love our jobs:\n        <br/>\n        <br/>\n        * Challenging work with amazing impact that contributes to security, peace, and freedom worldwide\n        <br/>\n        <br/>\n        * Extraordinary co-workers\n        <br/>\n        <br/>\n        * Some of the best tools, equipment, and research facilities in the world\n        <br/>\n        <br/>\n        * Career advancement and enrichment opportunities\n        <br/>\n        <br/>\n        * Flexible schedules, generous vacations, strong medical and other benefits, competitive 401k, learning opportunities, relocation assistance and amenities aimed at creating a solid work/life balance*\n        <br/>\n        <br/>\n        World-changing technologies. Life-changing careers. Learn more about Sandia at: http://www.sandia.gov\n        <br/>\n        <br/>\n        * These benefits vary by job classification.\n        <br/>\n        <br/>\n        Security Clearance\n        <br/>\n        <br/>\n        Position requires a Department of Energy (DOE) granted Q-level security clearance.\n        <br/>\n        <br/>\n        Sandia is required by DOE directive to conduct a pre-employment background review that includes personal reference checks, law enforcement record and credit checks, and employment and education verifications. Applicants for employment must be able to obtain and maintain a DOE Q-level security clearance, which requires U.S. citizenship.\n        <br/>\n        <br/>\n        Applicants offered employment with Sandia are subject to a federal background investigation to meet the requirements for access to classified information or matter if the duties of the position require a DOE security clearance. Substance abuse or illegal drug use, falsification of information, criminal activity, serious misconduct or other indicators of untrustworthiness can cause a clearance to be denied or terminated by the DOE, rendering the inability to perform the duties assigned and resulting in termination of employment.\n        <br/>\n        <br/>\n        EEO\n        <br/>\n        <br/>\n        Equal opportunity employer/Disability/Vet/GLBT\n       </div>\n       <!-- ./jobview-section -->\n       <div class="hidden-xs jobview-footer row">\n        <div class="col-sm-6">\n         <div class="action-buttons">\n          <input id="trackInfo" type="hidden" value=\'{"emailAddress":"","postingId":"732c3225-4cc4-485b-b3d2-5fb97771afca","placementID":null,"jobPosition":0,"uniqueUser":null,"affiliate":"Monster","technology":null}\'/>\n          <a class="btn btn-sm btn-primary btn-jobsdotcom" data-action="apply" data-applyurl="https://cg.sandia.gov/psc/applicant/EMPLOYEE/HRMS/c/HRS_HRAM.HRS_APP_SCHJOB.GBL?Page=HRS_APP_JBPST&amp;Action=U&amp;FOCUS=Applicant&amp;SiteId=1&amp;JobOpeningId=656225&amp;PostingSeq=1" data-atm-id="35" data-confurl="http://job-openings.monster.com/monster/confirmation?postingid=732c3225-4cc4-485b-b3d2-5fb97771afca" data-form-selector=".email-collection" href="http://job-openings.monster.com/monster/confirmation?postingid=732c3225-4cc4-485b-b3d2-5fb97771afca" rel="nofollow" role="button">\n           Apply Now\n          </a>\n          <form action="https://cg.sandia.gov/psc/applicant/EMPLOYEE/HRMS/c/HRS_HRAM.HRS_APP_SCHJOB.GBL?Page=HRS_APP_JBPST&amp;Action=U&amp;FOCUS=Applicant&amp;SiteId=1&amp;JobOpeningId=656225&amp;PostingSeq=1" aria-hidden="true" class="email-collection hidden panel panel-default" data-id="732c3225-4cc4-485b-b3d2-5fb97771afca" data-lrtype="B" data-placement="Left-Bottom-Body" data-position="0" data-remote-subscription="/LiteReg/ApplySubscription" data-remote-validation="/LiteReg/IsEmailValid" data-technology="" method="POST" target="_blank">\n           <div class="panel-body">\n            <div class="row-flex">\n             <div class="col-flex stretch">\n              <input class="form-control input-sm" id="EmailCollectionField2" name="litRegEmailAddress" placeholder="Please enter your email" type="email"/>\n             </div>\n            </div>\n            <label class="control-label" for="EmailCollectionField2">\n             To begin the application, please enter your email\n            </label>\n            <span class="help-block small">\n             By continuing you agree to Monster\'s\n             <a href="http://my.monster.com/Privacy/Default.aspx" target="_blank" title="Privacy Policy">\n              Privacy Policy\n             </a>\n             ,\n             <a href="http://my.monster.com/Terms/Default.aspx" target="_blank" title="Terms of Use">\n              Terms of Use\n             </a>\n             and\n             <a href="http://inside.monster.com/cookie-info/inside2.aspx" target="_blank" title="use of cookies">\n              use of cookies\n             </a>\n             .\n            </span>\n            <button class="sr-only" type="submit">\n             Continue application\n            </button>\n           </div>\n          </form>\n         </div>\n        </div>\n       </div>\n       <!-- ./jobview-footer -->\n      </article>\n      <!-- ./#jobview -->\n     </div>\n     <div class="col-xs-12 col-sm-6 col-md-4 col-lg-4">\n      <div class="jobview-affix">\n       <div style="background-color: #fff;">\n        <input id="trackInfo" type="hidden" value=\'{"emailAddress":"","postingId":"732c3225-4cc4-485b-b3d2-5fb97771afca","placementID":null,"jobPosition":0,"uniqueUser":null,"affiliate":"Monster","technology":null}\'/>\n        <form action="https://cg.sandia.gov/psc/applicant/EMPLOYEE/HRMS/c/HRS_HRAM.HRS_APP_SCHJOB.GBL?Page=HRS_APP_JBPST&amp;Action=U&amp;FOCUS=Applicant&amp;SiteId=1&amp;JobOpeningId=656225&amp;PostingSeq=1" aria-hidden="true" class="email-collection hidden" data-id="732c3225-4cc4-485b-b3d2-5fb97771afca" data-lrtype="R" data-placement="Right-Top-Rail" data-position="0" data-remote-subscription="/LiteReg/ApplySubscription" data-remote-validation="/LiteReg/IsEmailValid" data-technology="" method="POST" target="_blank">\n         <div class="form-group">\n          <label class="control-label" for="EmailCollectionField1">\n           To begin the application, please enter your email\n          </label>\n          <input class="form-control input-sm" id="EmailCollectionField1" name="litRegEmailAddress" placeholder="Please enter your email" type="email"/>\n         </div>\n         <span class="help-block small">\n          By continuing you agree to Monster\'s\n          <a href="http://my.monster.com/Privacy/Default.aspx" target="_blank" title="Privacy Policy">\n           Privacy Policy\n          </a>\n          ,\n          <a href="http://my.monster.com/Terms/Default.aspx" target="_blank" title="Terms of Use">\n           Terms of Use\n          </a>\n          and\n          <a href="http://inside.monster.com/cookie-info/inside2.aspx" target="_blank" title="use of cookies">\n           use of cookies\n          </a>\n          .\n         </span>\n         <button class="sr-only" type="submit">\n          Continue application\n         </button>\n        </form>\n        <a class="btn btn-sm btn-primary btn-block btn-jobsdotcom" data-action="apply" data-applyurl="https://cg.sandia.gov/psc/applicant/EMPLOYEE/HRMS/c/HRS_HRAM.HRS_APP_SCHJOB.GBL?Page=HRS_APP_JBPST&amp;Action=U&amp;FOCUS=Applicant&amp;SiteId=1&amp;JobOpeningId=656225&amp;PostingSeq=1" data-atm-id="36" data-confurl="http://job-openings.monster.com/monster/confirmation?postingid=732c3225-4cc4-485b-b3d2-5fb97771afca" data-form-selector=".email-collection" href="http://job-openings.monster.com/monster/confirmation?postingid=732c3225-4cc4-485b-b3d2-5fb97771afca" rel="nofollow" role="button">\n         Apply Now\n        </a>\n        <div class="social-sharing no-logo">\n         <h5>\n          Share this Job\n         </h5>\n         <a href="https://www.twitter.com/share?url=%20&amp;text=R%26D+Computer+Engineer+(Entry%2fMid-Career) at Sandia+Corporation http://job-openings.monster.com/monster/732c3225-4cc4-485b-b3d2-5fb97771afca via @monster" target="_blank" title="Share this job on Twitter">\n          <i class="fa fa-2x fa-twitter" style="margin: 0 4px;">\n          </i>\n         </a>\n         <a href="https://plus.google.com/share?url=http://job-openings.monster.com/monster/732c3225-4cc4-485b-b3d2-5fb97771afca" target="_blank" title="Share this job on Google+">\n          <i class="fa fa-2x fa-google-plus" style="margin: 0 4px;">\n          </i>\n         </a>\n         <a href="mailto: ?subject=R%26D Computer Engineer (Entry/Mid-Career) - Sandia Corporation | Monster.com&amp;body=Sandia Corporation http://job-openings.monster.com/monster/732c3225-4cc4-485b-b3d2-5fb97771afca" title="Share this job via Email">\n          <i class="fa fa-2x fa-envelope-o" style="margin: 0 4px;">\n          </i>\n         </a>\n        </div>\n       </div>\n       <div>\n        <div class="jobview-related-jobs" id="relatedJobs">\n         <div class="related-job-container">\n          <h5>\n           Related Jobs\n          </h5>\n          <ul class="list-unstyled">\n           <li>\n            <a class="cloudJobs" data-m_impr_a_placement_id="rjv1" data-m_impr_j_cid="660" data-m_impr_j_coc="xlighthousepx " data-m_impr_j_jawsid="224484638" data-m_impr_j_jobid="182084048" data-m_impr_j_jpm="1" data-m_impr_j_jpt="1" data-m_impr_j_lat="1329878" data-m_impr_j_lid="530" data-m_impr_j_long="1085349" data-m_impr_j_occid="0" data-m_impr_j_p="1" data-m_impr_j_postingid="133bf708-7850-4523-8e35-dddee74b8f45" data-m_impr_j_pvc="monster" data-m_impr_s_search_query="" data-m_impr_s_t="RE_RE" data-m_impr_uuid="4b107d49-c4fe-431e-9cdf-985c165fcb20" href="http://jobview.monster.com/Jr-Software-Engineer-Job-Manchester-NH-US-182084048.aspx?intcid=" onclick="jobClick(this, \'http://jobview.monster.com/Jr-Software-Engineer-Job-Manchester-NH-US-182084048.aspx?intcid=\', \'newjobsprodseekerus\', \'click on jobview from jobview\')" rel="nofollow" target="_blank" title="View This Job: Jr. Software Engineer">\n             Jr. Software Engineer\n            </a>\n            <div class="location small text-muted">\n             Lighthouse Placement Services, LLC, Manchester - NH\n            </div>\n           </li>\n           <li>\n            <a class="cloudJobs" data-m_impr_a_placement_id="rjv1" data-m_impr_j_cid="660" data-m_impr_j_coc="xkforcex " data-m_impr_j_jawsid="228061278" data-m_impr_j_jobid="182610708" data-m_impr_j_jpm="1" data-m_impr_j_jpt="1" data-m_impr_j_lat="1315129" data-m_impr_j_lid="560" data-m_impr_j_long="983229" data-m_impr_j_occid="0" data-m_impr_j_p="2" data-m_impr_j_postingid="99ce3eaf-4c98-4386-8e76-4460874d7b28" data-m_impr_j_pvc="monster" data-m_impr_s_search_query="" data-m_impr_s_t="RE_RE" data-m_impr_uuid="b9407718-dbd6-425e-988b-67dce2d40916" href="http://jobview.monster.com/Entry-Level-Software-Engineer-Job-Cleveland-OH-US-182610708.aspx?intcid=" onclick="jobClick(this, \'http://jobview.monster.com/Entry-Level-Software-Engineer-Job-Cleveland-OH-US-182610708.aspx?intcid=\', \'newjobsprodseekerus\', \'click on jobview from jobview\')" rel="nofollow" target="_blank" title="View This Job: Entry Level Software Engineer">\n             Entry Level Software Engineer\n            </a>\n            <div class="location small text-muted">\n             Kforce Inc, Cleveland - OH\n            </div>\n           </li>\n           <li>\n            <a class="cloudJobs" data-m_impr_a_placement_id="rjv1" data-m_impr_j_cid="4" data-m_impr_j_coc="" data-m_impr_j_jawsid="229725207" data-m_impr_j_jobid="" data-m_impr_j_jpm="1" data-m_impr_j_jpt="2" data-m_impr_j_lat="1314989" data-m_impr_j_lid="689" data-m_impr_j_long="1070993" data-m_impr_j_occid="0" data-m_impr_j_p="3" data-m_impr_j_postingid="9fd4d7d6-adf9-4c67-9e99-6fcd7c46ff31" data-m_impr_j_pvc="208f8022-ee55-4eb4-ada0-4c83364c8fb4" data-m_impr_s_search_query="" data-m_impr_s_t="RE_RE" data-m_impr_uuid="8a080e99-5304-43bb-926c-10da02e2c1fb" href="http://job-openings.monster.com/monster/9fd4d7d6-adf9-4c67-9e99-6fcd7c46ff31?intcid=" onclick="jobClick(this, \'http://job-openings.monster.com/monster/9fd4d7d6-adf9-4c67-9e99-6fcd7c46ff31?intcid=\', \'newjobsprodseekerus\', \'click on jobview from jobview\')" rel="nofollow" target="_blank" title="View This Job: Electrical Engineer">\n             Electrical Engineer\n            </a>\n            <div class="location small text-muted">\n             Greenlight Professional Services, Cheshire - CT\n            </div>\n           </li>\n           <li>\n            <a class="cloudJobs" data-m_impr_a_placement_id="rjv1" data-m_impr_j_cid="4" data-m_impr_j_coc="xpactechx " data-m_impr_j_jawsid="226683201" data-m_impr_j_jobid="182391027" data-m_impr_j_jpm="1" data-m_impr_j_jpt="1" data-m_impr_j_lat="1236469" data-m_impr_j_lid="350" data-m_impr_j_long="623107" data-m_impr_j_occid="0" data-m_impr_j_p="4" data-m_impr_j_postingid="0c3646b4-f406-42ad-ad37-44bda357b93c" data-m_impr_j_pvc="monster" data-m_impr_s_search_query="" data-m_impr_s_t="RE_RE" data-m_impr_uuid="8ff74082-08c3-48a5-a93f-0ac7a6e9d866" href="http://jobview.monster.com/Test-Engineer-Labview-Programming-ATE-Electronics-Mfg-Job-Lake-Forest-CA-US-182391027.aspx?intcid=" onclick="jobClick(this, \'http://jobview.monster.com/Test-Engineer-Labview-Programming-ATE-Electronics-Mfg-Job-Lake-Forest-CA-US-182391027.aspx?intcid=\', \'newjobsprodseekerus\', \'click on jobview from jobview\')" rel="nofollow" target="_blank" title="View This Job: Test Engineer , Labview Programming ATE Electronics Mfg.">\n             Test Engineer , Labview Programming ATE Electronics Mfg.\n            </a>\n            <div class="location small text-muted">\n             Pacific Technical Search, Lake Forest - CA\n            </div>\n           </li>\n           <li>\n            <a class="cloudJobs" data-m_impr_a_placement_id="rjv1" data-m_impr_j_cid="4" data-m_impr_j_coc="xbutleramericax " data-m_impr_j_jawsid="228784387" data-m_impr_j_jobid="182753954" data-m_impr_j_jpm="1" data-m_impr_j_jpt="1" data-m_impr_j_lat="1328864" data-m_impr_j_lid="546" data-m_impr_j_long="1011216" data-m_impr_j_occid="0" data-m_impr_j_p="5" data-m_impr_j_postingid="987c9087-948e-4950-8a45-fa04d53a0a70" data-m_impr_j_pvc="monster" data-m_impr_s_search_query="" data-m_impr_s_t="RE_RE" data-m_impr_uuid="35bbeb0b-8047-47d1-aa9c-733c47d5ec59" href="http://jobview.monster.com/Associate-Engineer-Job-Buffalo-NY-US-182753954.aspx?intcid=" onclick="jobClick(this, \'http://jobview.monster.com/Associate-Engineer-Job-Buffalo-NY-US-182753954.aspx?intcid=\', \'newjobsprodseekerus\', \'click on jobview from jobview\')" rel="nofollow" target="_blank" title="View This Job: Associate Engineer">\n             Associate Engineer\n            </a>\n            <div class="location small text-muted">\n             Butler America, Buffalo - NY\n            </div>\n           </li>\n           <li>\n            <a class="cloudJobs" data-m_impr_a_placement_id="rjv1" data-m_impr_j_cid="4" data-m_impr_j_coc="xnewsa_rogersonx " data-m_impr_j_jawsid="217306449" data-m_impr_j_jobid="181052182" data-m_impr_j_jpm="1" data-m_impr_j_jpt="1" data-m_impr_j_lat="1241381" data-m_impr_j_lid="348" data-m_impr_j_long="618334" data-m_impr_j_occid="0" data-m_impr_j_p="6" data-m_impr_j_postingid="b22fbb83-6c0a-41dd-88e1-7914e6ae90e1" data-m_impr_j_pvc="monster" data-m_impr_s_search_query="" data-m_impr_s_t="RE_RE" data-m_impr_uuid="b2257146-fd24-4235-9107-3bc7967a71b3" href="http://jobview.monster.com/Electrical-Engineer-Job-Pasadena-CA-US-181052182.aspx?intcid=" onclick="jobClick(this, \'http://jobview.monster.com/Electrical-Engineer-Job-Pasadena-CA-US-181052182.aspx?intcid=\', \'newjobsprodseekerus\', \'click on jobview from jobview\')" rel="nofollow" target="_blank" title="View This Job: Electrical Engineer">\n             Electrical Engineer\n            </a>\n            <div class="location small text-muted">\n             Rogerson Aircraft Corporation, Pasadena - CA\n            </div>\n           </li>\n          </ul>\n          <!-- jrs-job=222193193&amp;count=6 -->\n         </div>\n        </div>\n        <div>\n         <h5>\n          More\n         </h5>\n         <a href="http://www.monster.com/jobs/search/?client=power&amp;q=IT/Software Development&amp;where=Albuquerque , NM&amp;intcid=more_jobs_category_location" title="See all IT/Software Development jobs in Albuquerque, NM">\n          See all IT/Software Development jobs in Albuquerque, NM\n         </a>\n         <br/>\n         <a href="http://www.monster.com/jobs/search/?client=power&amp;q=Software/System Architecture&amp;intcid=more_jobs_occupation" title="See all Software/System Architecture jobs">\n          See all Software/System Architecture jobs\n         </a>\n         <br/>\n         <a class="aut-city-search" href="http://www.monster.com/jobs/search/?client=power&amp;where=Albuquerque , NM&amp;intcid=more_jobs_location" title="See all jobs in Albuquerque">\n          See all jobs in Albuquerque\n         </a>\n        </div>\n       </div>\n       <div class="oasAdsContainer">\n        <div>\n         <!-- 1st Section Begins : Delivery via OAS JX Tag -->\n         <script type="text/javascript">\n          window.MonsterAdds = window.MonsterAdds || {};\r\n\r\n            MonsterAdds.writeScript = function (showMobile) {\r\n                //TODO add mobile test if needed, see AdBlock.cshtml\r\n                document.write("<scr" + "ipt type=\'text/javascript\' src=\'//oas.monster.com/RealMedia/ads/adstream_jx.ads/us.monster.en/aggjobview/1869167590@Right3?size=300x250&site=mons&affiliate=Monster&app=js&oas_pv=no_analytics&fb=0&moc=11969&st=NM&pci=Albuquerque&pcy=US&proejc=660&key=IT%2fSoftware+Development&plid=537&pcid=2132&poccid=11969&mesco=1500128001001\'><\\/script>");\r\n            };\r\n\r\n            MonsterAdds.writeScript(true);\n         </script>\n         <!-- 2nd Section Begins : Delivery via OAS NX Tag for non-Javascript Browser -->\n         <noscript>\n          <a href="//oas.monster.com/RealMedia/ads/click_nx.ads/us.monster.en/aggjobview/12065944916@Right3?size=300x250&amp;site=mons&amp;affiliate=Monster&amp;app=js&amp;oas_pv=no_analytics&amp;fb=0&amp;moc=11969&amp;st=NM&amp;pci=Albuquerque&amp;pcy=US&amp;proejc=660&amp;key=IT%2fSoftware+Development&amp;plid=537&amp;pcid=2132&amp;poccid=11969&amp;mesco=1500128001001">\n           <img src="//oas.monster.com/RealMedia/ads/click_nx.ads/us.monster.en/aggjobview/11228738056@Right3?size=300x250&amp;site=mons&amp;affiliate=Monster&amp;app=js&amp;oas_pv=no_analytics&amp;fb=0&amp;moc=11969&amp;st=NM&amp;pci=Albuquerque&amp;pcy=US&amp;proejc=660&amp;key=IT%2fSoftware+Development&amp;plid=537&amp;pcid=2132&amp;poccid=11969&amp;mesco=1500128001001"/>\n          </a>\n         </noscript>\n        </div>\n       </div>\n      </div>\n      <div class="hidden-xs affix-fix">\n      </div>\n     </div>\n    </div>\n    <!-- ./row -->\n    <div class="modal fade" id="subscriptionModal">\n     <div class="modal-dialog">\n      <div class="modal-content">\n       <div class="modal-body">\n        <div class="email-collection promoted">\n         <div class="icon">\n         </div>\n         <h4 class="title">\n          Get new similar jobs by email for\n         </h4>\n         <p class="desc">\n          R&amp;D Computer Engineer (Entry/Mid-Career)\n         </p>\n         <form action="" aria-hidden="true" class="email-jvsub-collection" data-id="732c3225-4cc4-485b-b3d2-5fb97771afca" data-remote-subscribe="/LiteReg/JobViewSubscription" data-remote-validation="/LiteReg/IsEmailValid" id="modalForm" method="POST">\n          <div class="row-flex">\n           <div class="col-flex stretch">\n            <input class="form-control input-sm" id="emailAddress" name="emailAddress" placeholder="Please enter your email" type="email"/>\n           </div>\n           <div class="col-flex">\n            <a class="btn btn-sm btn-primary btn-jobsdotcom" data-action="modal-subscription" data-form-selector=".email-jvsub-collection" href="#" rel="nofollow" role="button">\n             Email me jobs\n            </a>\n           </div>\n           <div class="col-flex">\n            <a class="btn btn-link btn-sm" href="#" id="cancelModal">\n             Skip\n            </a>\n           </div>\n          </div>\n         </form>\n        </div>\n       </div>\n       <div class="modal-footer">\n        <span class="help-block small">\n         By continuing you agree to Monster\'s\n         <a href="http://my.monster.com/Privacy/Default.aspx" target="_blank" title="Privacy Policy">\n          Privacy Policy\n         </a>\n         ,\n         <a href="http://my.monster.com/Terms/Default.aspx" target="_blank" title="Terms of Use">\n          Terms of Use\n         </a>\n         and\n         <a href="http://inside.monster.com/cookie-info/inside2.aspx" target="_blank" title="use of cookies">\n          use of cookies\n         </a>\n         .\n        </span>\n       </div>\n       <div class="help-block small alert-success" style="display: none;">\n        You will start receiving jobs like this emailed to: {emailaddress}\n       </div>\n      </div>\n      <!-- /.modal-content -->\n     </div>\n     <!-- /.modal-dialog -->\n    </div>\n    <!-- /.modal -->\n    <script id="ApplySubscriptionThankYou" type="text/template">\n     <p><b>Thank you for applying for:</b><br />R&D Computer Engineer (Entry/Mid-Career) in Albuquerque, NM 87102</p>\r\n        <p class="text-muted">To check your full apply history, <a href=https://login20.monster.com>log in</a> or <a href=http://my.monster.com/Become-Member/Create-Account>create an account.</a></p>\n    </script>\n    <script type="text/javascript">\n     var script = document.createElement("script");\r\n    script.type = "text/javascript";\r\n    script.async = true;\r\n    script.src = "//nexus.ensighten.com/monster/Bootstrap.js";\r\n    document.head.appendChild(script);\n    </script>\n   </div>\n   <footer class="page-footer">\n    <div class="container">\n     <div class="row">\n      <div class="col-md-12">\n       <!-- Copyright info -->\n       <p class="copy">\n        Copyright \xc2\xa9 2015 |\n        <a href="http://www.monster.com">\n         Monster Worldwide\n        </a>\n       </p>\n      </div>\n     </div>\n    </div>\n   </footer>\n   <script src="/js/jobviewjs?v=Qp96d4MjGz4yVpoQyg3bu08SRTYnAxoYIMyQbxHelEg1">\n   </script>\n   <!--tracking script-->\n   <script src="http://logs.jobs.com/impression_trackingv2.js" type="text/javascript">\n   </script>\n   <script type="text/javascript">\n    monster.controls.add("monster.jv.base.tracking", {"cloudApiDomain":"logs.jobs.com"});\n   </script>\n   <script type="text/javascript">\n    monster.controls.add("monster.jv.base.jobview", {});\n   </script>\n   <script type="text/javascript">\n    monster.controls.add("monster.jv.base.subscription", {});\n   </script>\n   <script type="text/javascript">\n    monster.controls.add("monster.jv.base.subscriptionModal", {});\n   </script>\n   <script type="text/javascript">\n    monster.controls.add("monster.jv.base.banner", {});\n   </script>\n   <script type="text/javascript">\n    monster.controls.add("monster.jv.base.tooltip", {});\n   </script>\n  </div>\n  <!-- Google Analytics Script Start -->\n  <script>\n   (function (i, s, o, g, r, a, m) {\r\n            i[\'GoogleAnalyticsObject\'] = r; i[r] = i[r] || function () {\r\n                (i[r].q = i[r].q || []).push(arguments)\r\n            }, i[r].l = 1 * new Date(); a = s.createElement(o),\r\n            m = s.getElementsByTagName(o)[0]; a.async = 1; a.src = g; m.parentNode.insertBefore(a, m)\r\n        })(window, document, \'script\', \'//www.google-analytics.com/analytics.js\', \'ga\');\r\n\r\n        ga(\'create\', \'UA-41898665-3\', \'jobs.com\');\r\n        ga(\'send\', \'pageview\');\n  </script>\n  <!--Google Analytics Script End -->\n  <script type="text/javascript">\n   monster.eventBus.pub(monster.Events.PAGE_LOAD);\n  </script>\n  <!-- Site Catalyst Start -->\n  <script src="http://media.newjobs.com/js/global/at_1.5.js" type="text/javascript">\n  </script>\n  <script type="text/javascript">\n   var DYNAMIC_S_ACCOUNT = \'newjobsProdseekerUS\';\r\n    var DYNAMIC_S_CURRENCYCODE = \'USD\';\r\n    //<![CDATA[\r\n    var amc = amc || {}; if (!amc.on) { amc.on = amc.call = function () { }; };\r\n    document.write("<scr" + "ipt type=\'text/javascript\' src=\'//media.monster.com/js/sc/sitecatalystLL.js\'></sc" + "ript>");\r\n    //]]>\r\n\r\n    _m.ATM.properties = {"channel":"58","eVar1":"D=g","prop1":"D=g","eVar4":"0","eVar2":"unrecognized","prop22":"N/A-Cloud","prop23":"N/A-Cloud","prop24":"1/1/0001","prop25":"N/A-Cloud","prop26":"N/A-Cloud","eVar25":"732c3225-4cc4-485b-b3d2-5fb97771afca_R\\u0026D Computer Engineer (Entry/Mid-Career)","eVar26":"1f31d1e2_Sandia Corporation","eVar27":"N/A-Cloud","eVar28":"IT/Software Development","eVar29":"N/A-Cloud","eVar30":"Software/System Architecture","eVar31":"Albuquerque_NM_US","eVar32":"N/A-Cloud","eVar33":"N/A-Cloud","eVar35":"Sandia Corporation","eVar36":"App_Cstm","eVar37":"N/A-Cloud","eVar38":"R/L-Apply","eVar47":"2","eVar50":"Aggregated","eVar53":"1500128001001","eVar64":"27024","eVar66":"Monster","events.event3":"1","events.event30":"true","events.event42":"1","eVar61":"Group B RE - newconfirmation.aspx"};\r\n    _m.ATM.pageName = \'desktop|mons|jobs30|jobview\';\r\n    _m.ATM.appConfig = {version:\'0\',appID:\'jobviewcloud\',channelID:\'58\',countryID:\'164\'};\r\n    _m.ATM.runOnLoad=true;\r\n\r\n    $(document).ready(_m.ATM.initFromOnReady);\n  </script>\n  <!-- Site Catalyst End -->\n </body>\n</html>'
tp4
a(S'http://job-openings.monster.com/monster/40ae16d0-e7d3-440e-b738-71d80af82f39'
S'<!DOCTYPE html>\n<!--[if lt IE 7]>      <html class="no-js lt-ie9 lt-ie8 lt-ie7"> <![endif]-->\n<!--[if IE 7]>         <html class="no-js lt-ie9 lt-ie8"> <![endif]-->\n<!--[if IE 8]>         <html class="no-js lt-ie9"> <![endif]-->\n<!--[if gt IE 8]><!-->\n<html class="no-js">\n <!--<![endif]-->\n <head>\n  <title>\n   HS Sr Research Specialist (0837577) - University of New Mexico | Jobs.com\n  </title>\n  <meta charset="utf-8"/>\n  <meta content="IE=edge,chrome=1" http-equiv="X-UA-Compatible"/>\n  <meta content="text/html; charset=utf-8" http-equiv="Content-Type"/>\n  <meta content="width=device-width, initial-scale=1.0" name="viewport"/>\n  <meta content="University of New Mexico - Albuquerque, NM. Position SummaryThe UNM Comprehensive Cancer Center (UNMCCC) Analytical" name="description"/>\n  <meta content="HS Sr Research Specialist (0837577)" property="og:title"/>\n  <meta content="University of New Mexico - Albuquerque, NM. Position SummaryThe UNM Comprehensive Cancer Center (UNMCCC) Analytical" property="og:description"/>\n  <link href="http://plus.monster.com/+monster" rel="publisher"/>\n  <link href="https://maxcdn.bootstrapcdn.com/bootstrap/3.2.0/css/bootstrap.min.css" rel="stylesheet"/>\n  <link href="https://maxcdn.bootstrapcdn.com/font-awesome/4.2.0/css/font-awesome.min.css" rel="stylesheet"/>\n  <link href="/bundles/monster?v=3VUpvWSKWfcSTe2LCMpXVIfzIyGEJcLvPJMZUFZH8gg1" rel="stylesheet"/>\n  <!-- Favicon -->\n  <link href="http://media.newjobs.com/niche/img/favicon/favicon.ico" rel="shortcut icon"/>\n  <meta content="noindex, nofollow" name="robots"/>\n  <meta content="Monster" name="m_impr.a_affiliate_id"/>\n  <meta content="jobview" name="_ac.page_name"/>\n  <!-- Le HTML5 shim, for IE6-8 support of HTML5 elements -->\n  <!--[if lt IE 9]>\r\n    <script src="/scripts/third_party/html5shiv.js"></script>\r\n    <script src="/scripts/bootstrap/respond.min.js" type="text/javascript"></script>\r\n\r\n    <script type="text/javascript">\r\n        if (!Array.prototype.forEach) {\r\n            Array.prototype.forEach = function (fun /*, thisArg */) {\r\n                "use strict";\r\n                if (this === void 0 || this === null || typeof fun !== "function") throw new TypeError();\r\n\r\n                var\r\n                    t = Object(this),\r\n                    len = t.length >>> 0,\r\n                    thisArg = arguments.length >= 2 ? arguments[1] : void 0;\r\n\r\n                for (var i = 0; i < len; i++)\r\n                    if (i in t)\r\n                        fun.call(thisArg, t[i], i, t);\r\n            };\r\n        }\r\n    </script>\r\n<![endif]-->\n </head>\n <body>\n  <div class="page">\n   <div class="navbar navbar-default navbar-fixed-top">\n    <div class="container">\n     <!--<div class="container">-->\n     <div class="navbar-header" itemscope="" itemtype="http://schema.org/Organization">\n      <a class="navbar-brand" href="http://www.monster.com" itemprop="url">\n       <img alt="monster.com" itemprop="logo" src="/Areas/JobViewCloud/content/images/monster-new.png" title="monster.com"/>\n      </a>\n     </div>\n     <!-- large screen navbar-collapse location -->\n     <div class="navbar-collapse collapse hidden-xs">\n     </div>\n     <!--/.navbar-collapse -->\n    </div>\n    <!-- ./container -->\n   </div>\n   <!-- ./navbar -->\n   <div class="jobview container">\n    <div class="row">\n     <div class="alert alert-danger alert-fixed" role="alert">\n      <p>\n       We\xe2\x80\x99re sorry; this job is no longer available.\n      </p>\n     </div>\n     <div class="col-md-8 col-md-offset-2">\n      <header class="jobview-expired-header">\n       <h3 class="title">\n        Jobs you might like\n       </h3>\n       <a class="back" href="http://www.monster.com/jobs/search/?client=power">\n        Back to Job search\n       </a>\n      </header>\n      <!-- ./jobview-header -->\n      <section class="jobview-related-jobs-detail" id="relatedJobs">\n       <article>\n        <header>\n         <h4 class="title">\n          <a class="cloudJobs" data-m_impr_a_placement_id="genrj" data-m_impr_j_aff="Monster" data-m_impr_j_cid="2" data-m_impr_j_coc="xw192843345wx " data-m_impr_j_jawsid="226241073" data-m_impr_j_jobid="182336785" data-m_impr_j_jpm="1" data-m_impr_j_jpt="1" data-m_impr_j_jptname="Duration" data-m_impr_j_lat="0" data-m_impr_j_lid="537" data-m_impr_j_long="0" data-m_impr_j_occid="0" data-m_impr_j_p="1" data-m_impr_j_postingid="1d8c726f-18a7-4d24-97bc-cb97c0a1b4e9" data-m_impr_j_pvc="monster" data-m_impr_j_rloc="" data-m_impr_s_search_query="" data-m_impr_s_t="RE_EXP6b_JSJ_CR" data-m_impr_uuid="d206deff-6faa-4735-b6ad-a7e53c98fbd5" href="http://jobview.monster.com/Administrative-Research-Assistant-Job-Albuquerque-NM-US-182336785.aspx?intcid=js" onclick="jobClick(this, \'http://jobview.monster.com/Administrative-Research-Assistant-Job-Albuquerque-NM-US-182336785.aspx?intcid=js\', \'newjobsprodseekerus\', \'click on jobview from jobview\')" rel="nofollow" target="_blank" title="View This Job: Administrative Research Assistant">\n           Administrative Research Assistant\n          </a>\n         </h4>\n         <p class="location">\n          BRINM in Albuquerque, NM\n         </p>\n        </header>\n        <p class="description">\n         Position Responsibilities/Duties:will  include but not limited to: answer multiple   phone lines; triage calls that involve paging, emailing or taking messages and  transfer call to appropriate staff member; takes care of routine matters based  on  ...\n        </p>\n        <time class="publish-date">\n         21 Days ago\n        </time>\n       </article>\n       <article>\n        <header>\n         <h4 class="title">\n          <a class="cloudJobs" data-m_impr_a_placement_id="genrj" data-m_impr_j_aff="Monster" data-m_impr_j_cid="11455" data-m_impr_j_coc="xw229061839wx " data-m_impr_j_jawsid="230671414" data-m_impr_j_jobid="183112391" data-m_impr_j_jpm="1" data-m_impr_j_jpt="1" data-m_impr_j_jptname="Duration" data-m_impr_j_lat="0" data-m_impr_j_lid="537" data-m_impr_j_long="0" data-m_impr_j_occid="0" data-m_impr_j_p="2" data-m_impr_j_postingid="30288258-5606-4a17-94d3-735c9ce98003" data-m_impr_j_pvc="monster" data-m_impr_j_rloc="" data-m_impr_s_search_query="" data-m_impr_s_t="RE_EXP6b_JSJ_CR" data-m_impr_uuid="38dfa9d2-a628-49b7-a733-469db154da60" href="http://jobview.monster.com/Quality-Control-Technician-Job-Los-Lunas-NM-US-183112391.aspx?intcid=js" onclick="jobClick(this, \'http://jobview.monster.com/Quality-Control-Technician-Job-Los-Lunas-NM-US-183112391.aspx?intcid=js\', \'newjobsprodseekerus\', \'click on jobview from jobview\')" rel="nofollow" target="_blank" title="View This Job: Quality Control Technician">\n           Quality Control Technician\n          </a>\n         </h4>\n         <p class="location">\n          Wall Colmonoy Corporation in Los Lunas, NM\n         </p>\n        </header>\n        <p class="description">\n         Title: QC Technician  Status: Hourly  Non-Exempt\xc2\xa0Plant and Department: Los Lunas, NM / Quality Department Reports to: Quality Management Systems Coordinator (QMS Coordinator)\xc2\xa0Purpose:\xc2\xa0The purpose of this position is to assist the QMS Coordinator in  ...\n        </p>\n        <time class="publish-date">\n         Posted today\n        </time>\n       </article>\n       <article>\n        <header>\n         <h4 class="title">\n          <a class="cloudJobs" data-m_impr_a_placement_id="genrj" data-m_impr_j_aff="Monster" data-m_impr_j_cid="559" data-m_impr_j_coc="" data-m_impr_j_jawsid="224480043" data-m_impr_j_jobid="182081280" data-m_impr_j_jpm="1" data-m_impr_j_jpt="1" data-m_impr_j_jptname="Duration" data-m_impr_j_lat="0" data-m_impr_j_lid="347" data-m_impr_j_long="0" data-m_impr_j_occid="0" data-m_impr_j_p="3" data-m_impr_j_postingid="d828fc83-efc2-426d-934b-bf1288c7711a" data-m_impr_j_pvc="monster" data-m_impr_j_rloc="" data-m_impr_s_search_query="" data-m_impr_s_t="RE_EXP6b_JSJ_CR" data-m_impr_uuid="7d72bcd8-7426-425b-a372-f023a2053ea5" href="http://jobview.monster.com/R-D-Formulation-Lead-Nutrition-Job-Anaheim-CA-US-182081280.aspx?intcid=js" onclick="jobClick(this, \'http://jobview.monster.com/R-D-Formulation-Lead-Nutrition-Job-Anaheim-CA-US-182081280.aspx?intcid=js\', \'newjobsprodseekerus\', \'click on jobview from jobview\')" rel="nofollow" target="_blank" title="View This Job: R &amp; D Formulation Lead, Nutrition">\n           R &amp; D Formulation Lead, Nutrition\n          </a>\n         </h4>\n         <p class="location">\n          Anaheim, CA\n         </p>\n        </header>\n        <p class="description">\n         1.\xc2\xa0\xc2\xa0\xc2\xa0\xc2\xa0\xc2\xa0Liaison with R&amp;D Supervisor and third party manufacturers\xc2\xa0to\xc2\xa0interpret marketing briefs and consumer\xc2\xa0trends into new products. 2. Interface with Quality, Supply Chain, Planning and Regulatory team members to develop and evaluate premium  ...\n        </p>\n        <time class="publish-date">\n         28 Days ago\n        </time>\n       </article>\n       <script type="text/javascript">\n        window.MonsterAdds = window.MonsterAdds || {};\r\n\r\n    /*http://detectmobilebrowsers.com/*/\r\n    window.MonsterAdds.testMobile = function () {\r\n        var a = navigator.userAgent || navigator.vendor || window.opera;\r\n        return /(android|bb\\d+|meego).+mobile|avantgo|bada\\/|blackberry|blazer|compal|elaine|fennec|hiptop|iemobile|ip(hone|od)|iris|kindle|lge |maemo|midp|mmp|mobile.+firefox|netfront|opera m(ob|in)i|palm( os)?|phone|p(ixi|re)\\/|plucker|pocket|psp|series(4|6)0|symbian|treo|up\\.(browser|link)|vodafone|wap|windows ce|xda|xiino/i.test(a) || /1207|6310|6590|3gso|4thp|50[1-6]i|770s|802s|a wa|abac|ac(er|oo|s\\-)|ai(ko|rn)|al(av|ca|co)|amoi|an(ex|ny|yw)|aptu|ar(ch|go)|as(te|us)|attw|au(di|\\-m|r |s )|avan|be(ck|ll|nq)|bi(lb|rd)|bl(ac|az)|br(e|v)w|bumb|bw\\-(n|u)|c55\\/|capi|ccwa|cdm\\-|cell|chtm|cldc|cmd\\-|co(mp|nd)|craw|da(it|ll|ng)|dbte|dc\\-s|devi|dica|dmob|do(c|p)o|ds(12|\\-d)|el(49|ai)|em(l2|ul)|er(ic|k0)|esl8|ez([4-7]0|os|wa|ze)|fetc|fly(\\-|_)|g1 u|g560|gene|gf\\-5|g\\-mo|go(\\.w|od)|gr(ad|un)|haie|hcit|hd\\-(m|p|t)|hei\\-|hi(pt|ta)|hp( i|ip)|hs\\-c|ht(c(\\-| |_|a|g|p|s|t)|tp)|hu(aw|tc)|i\\-(20|go|ma)|i230|iac( |\\-|\\/)|ibro|idea|ig01|ikom|im1k|inno|ipaq|iris|ja(t|v)a|jbro|jemu|jigs|kddi|keji|kgt( |\\/)|klon|kpt |kwc\\-|kyo(c|k)|le(no|xi)|lg( g|\\/(k|l|u)|50|54|\\-[a-w])|libw|lynx|m1\\-w|m3ga|m50\\/|ma(te|ui|xo)|mc(01|21|ca)|m\\-cr|me(rc|ri)|mi(o8|oa|ts)|mmef|mo(01|02|bi|de|do|t(\\-| |o|v)|zz)|mt(50|p1|v )|mwbp|mywa|n10[0-2]|n20[2-3]|n30(0|2)|n50(0|2|5)|n7(0(0|1)|10)|ne((c|m)\\-|on|tf|wf|wg|wt)|nok(6|i)|nzph|o2im|op(ti|wv)|oran|owg1|p800|pan(a|d|t)|pdxg|pg(13|\\-([1-8]|c))|phil|pire|pl(ay|uc)|pn\\-2|po(ck|rt|se)|prox|psio|pt\\-g|qa\\-a|qc(07|12|21|32|60|\\-[2-7]|i\\-)|qtek|r380|r600|raks|rim9|ro(ve|zo)|s55\\/|sa(ge|ma|mm|ms|ny|va)|sc(01|h\\-|oo|p\\-)|sdk\\/|se(c(\\-|0|1)|47|mc|nd|ri)|sgh\\-|shar|sie(\\-|m)|sk\\-0|sl(45|id)|sm(al|ar|b3|it|t5)|so(ft|ny)|sp(01|h\\-|v\\-|v )|sy(01|mb)|t2(18|50)|t6(00|10|18)|ta(gt|lk)|tcl\\-|tdg\\-|tel(i|m)|tim\\-|t\\-mo|to(pl|sh)|ts(70|m\\-|m3|m5)|tx\\-9|up(\\.b|g1|si)|utst|v400|v750|veri|vi(rg|te)|vk(40|5[0-3]|\\-v)|vm40|voda|vulc|vx(52|53|60|61|70|80|81|83|85|98)|w3c(\\-| )|webc|whit|wi(g |nc|nw)|wmlb|wonu|x700|yas\\-|your|zeto|zte\\-/i.test(a.substr(0, 4));\r\n    };\n       </script>\n       <script type="text/javascript">\n        window.MonsterAdds = window.MonsterAdds || {};\r\n\r\n    MonsterAdds.writeFrame = function(showMobile) {\r\n        var isMobile = MonsterAdds.testMobile();\r\n\r\n        if ((showMobile) || (isMobile === false)) {\r\n            document.write("<IFRAME WIDTH=\'100%\' HEIGHT=\'112\' MARGINWIDTH=\'0\' MARGINHEIGHT=\'0\' HSPACE=\'0\' VSPACE=\'0\' FRAMEBORDER=\'0\' SCROLLING=\'no\' BORDERCOLOR=\'#000000\' class=\'inline-ad-panel\' SRC=\'http://oas.monster.com/RealMedia/ads/adstream_sx.ads/us.monster.en/jobview/apply/confirmation.aspx/1225490452@Bottom1,Left1,Middle!Middle?size=616x112&amp;site=mons&amp;affiliate=Monster&amp;app=js&amp;oas_pv=no_analytics&amp;fb=0&amp;moc=11729&amp;st=NM&amp;pci=Albuquerque&amp;pcy=US&amp;proejc=559&amp;key=Biotech%2fR%26D%2fScience&amp;plid=537&amp;pcid=2112&amp;poccid=11729&amp;mesco=1900305001001\'></IFRAME>");\r\n        }\r\n    };\r\n    \r\n    MonsterAdds.writeFrame(true);\n       </script>\n       <article>\n        <header>\n         <h4 class="title">\n          <a class="cloudJobs" data-m_impr_a_placement_id="genrj" data-m_impr_j_aff="Monster" data-m_impr_j_cid="4" data-m_impr_j_coc="xltiesinx " data-m_impr_j_jawsid="224799684" data-m_impr_j_jobid="182134415" data-m_impr_j_jpm="1" data-m_impr_j_jpt="1" data-m_impr_j_jptname="Duration" data-m_impr_j_lat="0" data-m_impr_j_lid="700" data-m_impr_j_long="0" data-m_impr_j_occid="0" data-m_impr_j_p="4" data-m_impr_j_postingid="e5620380-9995-47ba-a6c9-bd6a338b08dd" data-m_impr_j_pvc="monster" data-m_impr_j_rloc="" data-m_impr_s_search_query="" data-m_impr_s_t="RE_EXP6b_JSJ_CR" data-m_impr_uuid="d6c91133-bece-4af2-83f9-ae72b9f6e24c" href="http://jobview.monster.com/Dev-Research-Engineering-Specialist-Job-Mossville-IL-US-182134415.aspx?intcid=js" onclick="jobClick(this, \'http://jobview.monster.com/Dev-Research-Engineering-Specialist-Job-Mossville-IL-US-182134415.aspx?intcid=js\', \'newjobsprodseekerus\', \'click on jobview from jobview\')" rel="nofollow" target="_blank" title="View This Job: Dev/Research Engineering Specialist">\n           Dev/Research Engineering Specialist\n          </a>\n         </h4>\n         <p class="location">\n          L&amp;T Technology Services in Mossville, IL\n         </p>\n        </header>\n        <p class="description">\n         Research and investigate the design, functionality and maintenance of mechanical products, equipment, systems and processes. Education/Experience: Bachelor\xe2\x80\x99s degree in engineering required. Ten plus years engineering experience required. Skills and  ...\n        </p>\n        <time class="publish-date">\n         27 Days ago\n        </time>\n       </article>\n       <article>\n        <header>\n         <h4 class="title">\n          <a class="cloudJobs" data-m_impr_a_placement_id="genrj" data-m_impr_j_aff="Monster" data-m_impr_j_cid="559" data-m_impr_j_coc="xbaysolx " data-m_impr_j_jawsid="224792042" data-m_impr_j_jobid="182129192" data-m_impr_j_jpm="1" data-m_impr_j_jpt="1" data-m_impr_j_jptname="Duration" data-m_impr_j_lat="0" data-m_impr_j_lid="20586" data-m_impr_j_long="0" data-m_impr_j_occid="0" data-m_impr_j_p="5" data-m_impr_j_postingid="38abb90c-df3c-47f0-90ca-2ee318473e82" data-m_impr_j_pvc="monster" data-m_impr_j_rloc="" data-m_impr_s_search_query="" data-m_impr_s_t="RE_EXP6b_JSJ_CR" data-m_impr_uuid="22b6b60f-a630-49be-aac4-a074387235dc" href="http://jobview.monster.com/Research-Associate-I-Quality-Control-Job-San-Rafael-CA-US-182129192.aspx?intcid=js" onclick="jobClick(this, \'http://jobview.monster.com/Research-Associate-I-Quality-Control-Job-San-Rafael-CA-US-182129192.aspx?intcid=js\', \'newjobsprodseekerus\', \'click on jobview from jobview\')" rel="nofollow" target="_blank" title="View This Job: Research Associate I, Quality Control">\n           Research Associate I, Quality Control\n          </a>\n         </h4>\n         <p class="location">\n          Bayside Solutions in San Rafael, CA\n         </p>\n        </header>\n        <p class="description">\n         Bayside Solutions is seeking a Research Associate I, Quality Control to be part of our Client\'s team in Marin County. This is an opportunity to work with a local Biopharmaceutical company focusing on the developing and commercializing novel therapies  ...\n        </p>\n        <time class="publish-date">\n         27 Days ago\n        </time>\n       </article>\n       <!-- jrs-job=229628532&amp;count=5 -->\n      </section>\n      <div class="panel-group">\n       <a class="back" href="http://www.monster.com/jobs/search/?client=power">\n        Back to Job search\n       </a>\n      </div>\n      <script type="text/javascript">\n       window.MonsterAdds = window.MonsterAdds || {};\r\n\r\n    /*http://detectmobilebrowsers.com/*/\r\n    window.MonsterAdds.testMobile = function () {\r\n        var a = navigator.userAgent || navigator.vendor || window.opera;\r\n        return /(android|bb\\d+|meego).+mobile|avantgo|bada\\/|blackberry|blazer|compal|elaine|fennec|hiptop|iemobile|ip(hone|od)|iris|kindle|lge |maemo|midp|mmp|mobile.+firefox|netfront|opera m(ob|in)i|palm( os)?|phone|p(ixi|re)\\/|plucker|pocket|psp|series(4|6)0|symbian|treo|up\\.(browser|link)|vodafone|wap|windows ce|xda|xiino/i.test(a) || /1207|6310|6590|3gso|4thp|50[1-6]i|770s|802s|a wa|abac|ac(er|oo|s\\-)|ai(ko|rn)|al(av|ca|co)|amoi|an(ex|ny|yw)|aptu|ar(ch|go)|as(te|us)|attw|au(di|\\-m|r |s )|avan|be(ck|ll|nq)|bi(lb|rd)|bl(ac|az)|br(e|v)w|bumb|bw\\-(n|u)|c55\\/|capi|ccwa|cdm\\-|cell|chtm|cldc|cmd\\-|co(mp|nd)|craw|da(it|ll|ng)|dbte|dc\\-s|devi|dica|dmob|do(c|p)o|ds(12|\\-d)|el(49|ai)|em(l2|ul)|er(ic|k0)|esl8|ez([4-7]0|os|wa|ze)|fetc|fly(\\-|_)|g1 u|g560|gene|gf\\-5|g\\-mo|go(\\.w|od)|gr(ad|un)|haie|hcit|hd\\-(m|p|t)|hei\\-|hi(pt|ta)|hp( i|ip)|hs\\-c|ht(c(\\-| |_|a|g|p|s|t)|tp)|hu(aw|tc)|i\\-(20|go|ma)|i230|iac( |\\-|\\/)|ibro|idea|ig01|ikom|im1k|inno|ipaq|iris|ja(t|v)a|jbro|jemu|jigs|kddi|keji|kgt( |\\/)|klon|kpt |kwc\\-|kyo(c|k)|le(no|xi)|lg( g|\\/(k|l|u)|50|54|\\-[a-w])|libw|lynx|m1\\-w|m3ga|m50\\/|ma(te|ui|xo)|mc(01|21|ca)|m\\-cr|me(rc|ri)|mi(o8|oa|ts)|mmef|mo(01|02|bi|de|do|t(\\-| |o|v)|zz)|mt(50|p1|v )|mwbp|mywa|n10[0-2]|n20[2-3]|n30(0|2)|n50(0|2|5)|n7(0(0|1)|10)|ne((c|m)\\-|on|tf|wf|wg|wt)|nok(6|i)|nzph|o2im|op(ti|wv)|oran|owg1|p800|pan(a|d|t)|pdxg|pg(13|\\-([1-8]|c))|phil|pire|pl(ay|uc)|pn\\-2|po(ck|rt|se)|prox|psio|pt\\-g|qa\\-a|qc(07|12|21|32|60|\\-[2-7]|i\\-)|qtek|r380|r600|raks|rim9|ro(ve|zo)|s55\\/|sa(ge|ma|mm|ms|ny|va)|sc(01|h\\-|oo|p\\-)|sdk\\/|se(c(\\-|0|1)|47|mc|nd|ri)|sgh\\-|shar|sie(\\-|m)|sk\\-0|sl(45|id)|sm(al|ar|b3|it|t5)|so(ft|ny)|sp(01|h\\-|v\\-|v )|sy(01|mb)|t2(18|50)|t6(00|10|18)|ta(gt|lk)|tcl\\-|tdg\\-|tel(i|m)|tim\\-|t\\-mo|to(pl|sh)|ts(70|m\\-|m3|m5)|tx\\-9|up(\\.b|g1|si)|utst|v400|v750|veri|vi(rg|te)|vk(40|5[0-3]|\\-v)|vm40|voda|vulc|vx(52|53|60|61|70|80|81|83|85|98)|w3c(\\-| )|webc|whit|wi(g |nc|nw)|wmlb|wonu|x700|yas\\-|your|zeto|zte\\-/i.test(a.substr(0, 4));\r\n    };\n      </script>\n      <script type="text/javascript">\n       window.MonsterAdds = window.MonsterAdds || {};\r\n\r\n    MonsterAdds.writeFrame = function(showMobile) {\r\n        var isMobile = MonsterAdds.testMobile();\r\n\r\n        if ((showMobile) || (isMobile === false)) {\r\n            document.write("<IFRAME WIDTH=\'100%\' HEIGHT=\'90\' MARGINWIDTH=\'0\' MARGINHEIGHT=\'0\' HSPACE=\'0\' VSPACE=\'0\' FRAMEBORDER=\'0\' SCROLLING=\'no\' BORDERCOLOR=\'#000000\' class=\'bottom-ad-panel\' SRC=\'http://oas.monster.com/RealMedia/ads/adstream_sx.ads/us.monster.en/jobview/apply/confirmation.aspx/1982168818@Bottom1,Left1,Middle!Bottom1?size=728x90&amp;site=mons&amp;affiliate=Monster&amp;app=js&amp;oas_pv=no_analytics&amp;fb=0&amp;moc=11729&amp;st=NM&amp;pci=Albuquerque&amp;pcy=US&amp;proejc=559&amp;key=Biotech%2fR%26D%2fScience&amp;plid=537&amp;pcid=2112&amp;poccid=11729&amp;mesco=1900305001001\'></IFRAME>");\r\n        }\r\n    };\r\n    \r\n    MonsterAdds.writeFrame(false);\n      </script>\n     </div>\n    </div>\n    <!-- ./row -->\n    <script type="text/javascript">\n     var script = document.createElement("script");\r\n    script.type = "text/javascript";\r\n    script.async = true;\r\n    script.src = "//nexus.ensighten.com/monster/Bootstrap.js";\r\n    document.head.appendChild(script);\n    </script>\n   </div>\n   <footer class="page-footer">\n    <div class="container">\n     <div class="row">\n      <div class="col-md-12">\n       <!-- Copyright info -->\n       <p class="copy">\n        Copyright \xc2\xa9 2015 |\n        <a href="http://www.monster.com">\n         Monster Worldwide\n        </a>\n       </p>\n      </div>\n     </div>\n    </div>\n   </footer>\n   <script src="/js/jobviewjs?v=Qp96d4MjGz4yVpoQyg3bu08SRTYnAxoYIMyQbxHelEg1">\n   </script>\n   <!--tracking script-->\n   <script src="http://logs.jobs.com/impression_trackingv2.js" type="text/javascript">\n   </script>\n   <script type="text/javascript">\n    monster.controls.add("monster.jv.base.tracking", {"cloudApiDomain":"logs.jobs.com"});\n   </script>\n   <script type="text/javascript">\n    monster.controls.add("monster.jv.base.jobview", {});\n   </script>\n   <script type="text/javascript">\n    monster.controls.add("monster.jv.base.subscription", {});\n   </script>\n   <script type="text/javascript">\n    monster.controls.add("monster.jv.base.subscriptionModal", {});\n   </script>\n   <script type="text/javascript">\n    monster.controls.add("monster.jv.base.banner", {});\n   </script>\n   <script type="text/javascript">\n    monster.controls.add("monster.jv.base.tooltip", {});\n   </script>\n  </div>\n  <!-- Google Analytics Script Start -->\n  <script>\n   (function (i, s, o, g, r, a, m) {\r\n            i[\'GoogleAnalyticsObject\'] = r; i[r] = i[r] || function () {\r\n                (i[r].q = i[r].q || []).push(arguments)\r\n            }, i[r].l = 1 * new Date(); a = s.createElement(o),\r\n            m = s.getElementsByTagName(o)[0]; a.async = 1; a.src = g; m.parentNode.insertBefore(a, m)\r\n        })(window, document, \'script\', \'//www.google-analytics.com/analytics.js\', \'ga\');\r\n\r\n        ga(\'create\', \'UA-41898665-3\', \'jobs.com\');\r\n        ga(\'send\', \'pageview\');\n  </script>\n  <!--Google Analytics Script End -->\n  <script type="text/javascript">\n   monster.eventBus.pub(monster.Events.PAGE_LOAD);\n  </script>\n  <!-- Site Catalyst Start -->\n  <script src="http://media.newjobs.com/js/global/at_1.5.js" type="text/javascript">\n  </script>\n  <script type="text/javascript">\n   var DYNAMIC_S_ACCOUNT = \'newjobsProdseekerUS\';\r\n    var DYNAMIC_S_CURRENCYCODE = \'USD\';\r\n    //<![CDATA[\r\n    var amc = amc || {}; if (!amc.on) { amc.on = amc.call = function () { }; };\r\n    document.write("<scr" + "ipt type=\'text/javascript\' src=\'//media.monster.com/js/sc/sitecatalystLL.js\'></sc" + "ript>");\r\n    //]]>\r\n\r\n    _m.ATM.properties = {"channel":"58","eVar1":"D=g","prop1":"D=g","eVar4":"0","eVar2":"unrecognized","prop22":"N/A-Cloud","prop23":"N/A-Cloud","prop24":"1/1/0001","prop25":"N/A-Cloud","prop26":"N/A-Cloud","eVar25":"40ae16d0-e7d3-440e-b738-71d80af82f39_HS Sr Research Specialist (0837577)","eVar26":"Unspecified_University of New Mexico","eVar27":"N/A-Cloud","eVar28":"Biotech/R\\u0026D/Science","eVar29":"N/A-Cloud","eVar30":"Biological/Chemical Research","eVar31":"Albuquerque_NM_US","eVar32":"N/A-Cloud","eVar33":"N/A-Cloud","eVar35":"University of New Mexico","eVar36":"App_Cstm","eVar37":"N/A-Cloud","eVar38":"R/L-Apply","eVar47":"22915","eVar50":"Aggregated","eVar53":"1900305001001","eVar64":"31647","eVar66":"Monster","events.event37":"1","events.event42":"1","eVar61":"Group C JS - newconfirmation.aspx"};\r\n    _m.ATM.pageName = \'desktop|mons|jobs30|/monster/expired\';\r\n    _m.ATM.appConfig = {version:\'0\',appID:\'jobviewcloud\',channelID:\'58\',countryID:\'164\'};\r\n    _m.ATM.runOnLoad=true;\r\n\r\n    $(document).ready(_m.ATM.initFromOnReady);\n  </script>\n  <!-- Site Catalyst End -->\n </body>\n</html>'
tp5
a(S'http://job-openings.monster.com/monster/cded1f5c-bcd4-402c-b67e-96e1b38c21ec'
p6
S'<!DOCTYPE html>\n<!--[if lt IE 7]>      <html class="no-js lt-ie9 lt-ie8 lt-ie7"> <![endif]-->\n<!--[if IE 7]>         <html class="no-js lt-ie9 lt-ie8"> <![endif]-->\n<!--[if IE 8]>         <html class="no-js lt-ie9"> <![endif]-->\n<!--[if gt IE 8]><!-->\n<html class="no-js">\n <!--<![endif]-->\n <head>\n  <title>\n   Postdoctoral Appointee - Data Science of Turbulence Modeling - Sandia Corporation | Jobs.com\n  </title>\n  <meta charset="utf-8"/>\n  <meta content="IE=edge,chrome=1" http-equiv="X-UA-Compatible"/>\n  <meta content="text/html; charset=utf-8" http-equiv="Content-Type"/>\n  <meta content="width=device-width, initial-scale=1.0" name="viewport"/>\n  <meta content="Sandia Corporation - Albuquerque, NM. We are seeking a Postdoctoral Appointee to support the development of turbu" name="description"/>\n  <link href="http://plus.monster.com/+monster" rel="publisher"/>\n  <link href="https://maxcdn.bootstrapcdn.com/bootstrap/3.2.0/css/bootstrap.min.css" rel="stylesheet"/>\n  <link href="https://maxcdn.bootstrapcdn.com/font-awesome/4.2.0/css/font-awesome.min.css" rel="stylesheet"/>\n  <link href="/bundles/monster?v=3VUpvWSKWfcSTe2LCMpXVIfzIyGEJcLvPJMZUFZH8gg1" rel="stylesheet"/>\n  <!-- Favicon -->\n  <link href="http://media.newjobs.com/niche/img/favicon/favicon.ico" rel="shortcut icon"/>\n  <meta content="noindex, nofollow" name="robots"/>\n  <meta content="Monster" name="m_impr.a_affiliate_id"/>\n  <meta content="jobview" name="_ac.page_name"/>\n  <!-- Le HTML5 shim, for IE6-8 support of HTML5 elements -->\n  <!--[if lt IE 9]>\r\n    <script src="/scripts/third_party/html5shiv.js"></script>\r\n    <script src="/scripts/bootstrap/respond.min.js" type="text/javascript"></script>\r\n\r\n    <script type="text/javascript">\r\n        if (!Array.prototype.forEach) {\r\n            Array.prototype.forEach = function (fun /*, thisArg */) {\r\n                "use strict";\r\n                if (this === void 0 || this === null || typeof fun !== "function") throw new TypeError();\r\n\r\n                var\r\n                    t = Object(this),\r\n                    len = t.length >>> 0,\r\n                    thisArg = arguments.length >= 2 ? arguments[1] : void 0;\r\n\r\n                for (var i = 0; i < len; i++)\r\n                    if (i in t)\r\n                        fun.call(thisArg, t[i], i, t);\r\n            };\r\n        }\r\n    </script>\r\n<![endif]-->\n </head>\n <body>\n  <div class="page">\n   <div class="navbar navbar-default navbar-fixed-top">\n    <div class="container">\n     <!--<div class="container">-->\n     <div class="navbar-header" itemscope="" itemtype="http://schema.org/Organization">\n      <a class="navbar-brand" href="http://www.monster.com" itemprop="url">\n       <img alt="monster.com" itemprop="logo" src="/Areas/JobViewCloud/content/images/monster-new.png" title="monster.com"/>\n      </a>\n     </div>\n     <!-- large screen navbar-collapse location -->\n     <div class="navbar-collapse collapse hidden-xs">\n     </div>\n     <!--/.navbar-collapse -->\n    </div>\n    <!-- ./container -->\n   </div>\n   <!-- ./navbar -->\n   <div class="jobview container">\n    <div class="row">\n     <input id="normalized-company-id" type="hidden" value="27024"/>\n     <div class="col-xs-12 col-sm-6 col-md-8 col-lg-8">\n      <article id="jobview">\n       <header class="jobview-header">\n        <h3>\n         Postdoctoral Appointee - Data Science of Turbulence Modeling\n        </h3>\n        <h4 class="company">\n         Sandia Corporation\n         <small class="location">\n          -\n          <i class="fa fa-map-marker">\n          </i>\n          Albuquerque, NM 87102\n         </small>\n        </h4>\n        <span class="postedDate">\n         <strong>\n          Posted:\n         </strong>\n         4/5/2017\n        </span>\n       </header>\n       <!-- ./jobview-header -->\n       <div class="jobview-upper-apply-mobile visible-xs row">\n        <div class="col-sm-6">\n         <div class="action-buttons">\n          <input id="trackInfo" type="hidden" value=\'{"emailAddress":"","postingId":"cded1f5c-bcd4-402c-b67e-96e1b38c21ec","placementID":null,"jobPosition":0,"uniqueUser":null,"affiliate":"Monster","technology":null}\'/>\n          <a class="btn btn-sm btn-primary btn-jobsdotcom" data-action="apply" data-applyurl="https://cg.sandia.gov/psc/applicant/EMPLOYEE/HRMS/c/HRS_HRAM.HRS_APP_SCHJOB.GBL?Page=HRS_APP_JBPST&amp;Action=U&amp;FOCUS=Applicant&amp;SiteId=1&amp;JobOpeningId=656431&amp;PostingSeq=1" data-atm-id="35" data-confurl="http://job-openings.monster.com/monster/confirmation?postingid=cded1f5c-bcd4-402c-b67e-96e1b38c21ec" data-form-selector=".email-collection" href="http://job-openings.monster.com/monster/confirmation?postingid=cded1f5c-bcd4-402c-b67e-96e1b38c21ec" rel="nofollow" role="button">\n           Apply Now\n          </a>\n          <form action="https://cg.sandia.gov/psc/applicant/EMPLOYEE/HRMS/c/HRS_HRAM.HRS_APP_SCHJOB.GBL?Page=HRS_APP_JBPST&amp;Action=U&amp;FOCUS=Applicant&amp;SiteId=1&amp;JobOpeningId=656431&amp;PostingSeq=1" aria-hidden="true" class="email-collection hidden panel panel-default" data-id="cded1f5c-bcd4-402c-b67e-96e1b38c21ec" data-lrtype="B" data-placement="Left-Bottom-Body" data-position="0" data-remote-subscription="/LiteReg/ApplySubscription" data-remote-validation="/LiteReg/IsEmailValid" data-technology="" method="POST" target="_blank">\n           <div class="panel-body">\n            <div class="row-flex">\n             <div class="col-flex stretch">\n              <input class="form-control input-sm" id="EmailCollectionField2" name="litRegEmailAddress" placeholder="Please enter your email" type="email"/>\n             </div>\n            </div>\n            <label class="control-label" for="EmailCollectionField2">\n             To begin the application, please enter your email\n            </label>\n            <span class="help-block small">\n             By continuing you agree to Monster\'s\n             <a href="http://my.monster.com/Privacy/Default.aspx" target="_blank" title="Privacy Policy">\n              Privacy Policy\n             </a>\n             ,\n             <a href="http://my.monster.com/Terms/Default.aspx" target="_blank" title="Terms of Use">\n              Terms of Use\n             </a>\n             and\n             <a href="http://inside.monster.com/cookie-info/inside2.aspx" target="_blank" title="use of cookies">\n              use of cookies\n             </a>\n             .\n            </span>\n            <button class="sr-only" type="submit">\n             Continue application\n            </button>\n           </div>\n          </form>\n         </div>\n        </div>\n       </div>\n       <div class="jobview-section">\n        We are seeking a Postdoctoral Appointee to support the development of turbulence modeling by applying data science analysis to experimental data, primarily Particle Image Velocimetry (PIV), and computational results from Direct Numerical Simulations (DNS). Data-driven machine learning will be applied to the analysis and creation of turbulence models. This includes collaboration with experimentalists and modelers to develop, validate, and apply turbulence modeling strategies to solve complex problems. Opportunities exist to support research spanning multiple disciplines, including heat transport, multi-material mechanical deformation, microscale/mesoscale modeling, and aerosciences.\n        <br/>\n        <br/>\n        Responsibilities include, but are not limited to:\n        <br/>\n        <br/>\n        * Research, development, of methods to analyze experimental and DNS data to extract quantities of interest to turbulence model development\n        <br/>\n        <br/>\n        * Development and application of methodologies from Data Science and Machine learning areas for analyzing performance of turbulence models relative to measurements and DNS\n        <br/>\n        <br/>\n        * Use of Machine learning and Data Science methods to identify potential improvements to turbulence modeling approaches\n        <br/>\n        <br/>\n        Qualifications We Require\n        <br/>\n        <br/>\n        * PhD, conferred within 5 years prior to employment, in Mechanical Engineering, Aerospace Engineering, or other related engineering or natural science field\n        <br/>\n        <br/>\n        * Experience with fluid dynamics and turbulence modeling for RANS, Hybrid RANS-LES and/or LES\n        <br/>\n        <br/>\n        * Proficiency with the Linux operating system and experience with a high-level programming language such as FORTRAN, C, or C++\n        <br/>\n        <br/>\n        * Ability to obtain and maintain a DoE Q clearance\n        <br/>\n        <br/>\n        Qualifications We Desire\n        <br/>\n        <br/>\n        * Experience with Matlab, Python, scripting languages and grid generation software\n        <br/>\n        <br/>\n        * Experience with Machine Learning Algorithms\n        <br/>\n        <br/>\n        * Experience with /working knowledge of Particle Image Velocimetry \xe2\x80\x93 relevant to data analysis.\n        <br/>\n        <br/>\n        * Experience Signal/image processing techniques, numerical methods for compressible flows, reduced order modeling techniques\n        <br/>\n        <br/>\n        * Experience/familiarity with Verification and Validation and Uncertainty Quantification.\n        <br/>\n        <br/>\n        * Thorough knowledge of and applied experience with scientific and engineering methods and with discipline\'s standards for the ethical conduct of research\n        <br/>\n        <br/>\n        * Strong verbal and written communication skills and an ability to interact well with fellow technical workers with diverse technical backgrounds\n        <br/>\n        <br/>\n        Position Information\n        <br/>\n        <br/>\n        This postdoctoral position is a temporary position for up to one year, which may be renewed at Sandia\'s discretion up to five additional years. The PhD must have been conferred within five years prior to employment.\n        <br/>\n        <br/>\n        Individuals in postdoctoral positions may bid on regular Sandia positions as internal candidates, and in some cases may be converted to regular career positions during their term if warranted by ongoing operational needs, continuing availability of funds, and satisfactory job performance.\n        <br/>\n        <br/>\n        About Our Team\n        <br/>\n        <br/>\n        The Aerosciences Department offers challenging and important work relating to national security in R&amp;D and technology applications in aerodynamics, aerothermodynamics, compressible fluid mechanics, and flight dynamics. Our primary mission supports U.S. Department of Energy Defense Programs, and aerosciences projects funded through the U.S. Department of Defense, DARPA, NASA, and industry.\n        <br/>\n        <br/>\n        Our projects span the Mach number range from subsonic through hypersonic and involve systems ranging from aircraft released ordinance to reentry systems and rocket systems. Technical activities include experimental, analytical, and computational efforts plus support of flight test activities, both pre-flight/post-flight analyses and field test operations. The Aerosciences Department maintains a strong balance of research and development activities and works synergistically with other organizations at Sandia to meet current and future customer needs.\n        <br/>\n        <br/>\n        About Sandia\n        <br/>\n        <br/>\n        Sandia National Laboratories is the nation\'s premier science and engineering lab for national security and technology innovation, with teams of specialists focused on cutting-edge work in a broad array of areas. Some of the main reasons we love our jobs:\n        <br/>\n        <br/>\n        * Challenging work with amazing impact that contributes to security, peace, and freedom worldwide\n        <br/>\n        <br/>\n        * Extraordinary co-workers\n        <br/>\n        <br/>\n        * Some of the best tools, equipment, and research facilities in the world\n        <br/>\n        <br/>\n        * Career advancement and enrichment opportunities\n        <br/>\n        <br/>\n        * Flexible schedules, generous vacations, strong medical and other benefits, competitive 401k, learning opportunities, relocation assistance and amenities aimed at creating a solid work/life balance*\n        <br/>\n        <br/>\n        World-changing technologies. Life-changing careers. Learn more about Sandia at: http://www.sandia.gov\n        <br/>\n        <br/>\n        * These benefits vary by job classification.\n        <br/>\n        <br/>\n        Security Clearance\n        <br/>\n        <br/>\n        Position requires a Department of Energy (DOE) granted Q-level security clearance.\n        <br/>\n        <br/>\n        Sandia is required by DOE directive to conduct a pre-employment background review that includes personal reference checks, law enforcement record and credit checks, and employment and education verifications. Applicants for employment must be able to obtain and maintain a DOE Q-level security clearance, which requires U.S. citizenship.\n        <br/>\n        <br/>\n        Applicants offered employment with Sandia are subject to a federal background investigation to meet the requirements for access to classified information or matter if the duties of the position require a DOE security clearance. Substance abuse or illegal drug use, falsification of information, criminal activity, serious misconduct or other indicators of untrustworthiness can cause a clearance to be denied or terminated by the DOE, rendering the inability to perform the duties assigned and resulting in termination of employment.\n        <br/>\n        <br/>\n        EEO\n        <br/>\n        <br/>\n        Equal opportunity employer/Disability/Vet/GLBT\n       </div>\n       <!-- ./jobview-section -->\n       <div class="hidden-xs jobview-footer row">\n        <div class="col-sm-6">\n         <div class="action-buttons">\n          <input id="trackInfo" type="hidden" value=\'{"emailAddress":"","postingId":"cded1f5c-bcd4-402c-b67e-96e1b38c21ec","placementID":null,"jobPosition":0,"uniqueUser":null,"affiliate":"Monster","technology":null}\'/>\n          <a class="btn btn-sm btn-primary btn-jobsdotcom" data-action="apply" data-applyurl="https://cg.sandia.gov/psc/applicant/EMPLOYEE/HRMS/c/HRS_HRAM.HRS_APP_SCHJOB.GBL?Page=HRS_APP_JBPST&amp;Action=U&amp;FOCUS=Applicant&amp;SiteId=1&amp;JobOpeningId=656431&amp;PostingSeq=1" data-atm-id="35" data-confurl="http://job-openings.monster.com/monster/confirmation?postingid=cded1f5c-bcd4-402c-b67e-96e1b38c21ec" data-form-selector=".email-collection" href="http://job-openings.monster.com/monster/confirmation?postingid=cded1f5c-bcd4-402c-b67e-96e1b38c21ec" rel="nofollow" role="button">\n           Apply Now\n          </a>\n          <form action="https://cg.sandia.gov/psc/applicant/EMPLOYEE/HRMS/c/HRS_HRAM.HRS_APP_SCHJOB.GBL?Page=HRS_APP_JBPST&amp;Action=U&amp;FOCUS=Applicant&amp;SiteId=1&amp;JobOpeningId=656431&amp;PostingSeq=1" aria-hidden="true" class="email-collection hidden panel panel-default" data-id="cded1f5c-bcd4-402c-b67e-96e1b38c21ec" data-lrtype="B" data-placement="Left-Bottom-Body" data-position="0" data-remote-subscription="/LiteReg/ApplySubscription" data-remote-validation="/LiteReg/IsEmailValid" data-technology="" method="POST" target="_blank">\n           <div class="panel-body">\n            <div class="row-flex">\n             <div class="col-flex stretch">\n              <input class="form-control input-sm" id="EmailCollectionField2" name="litRegEmailAddress" placeholder="Please enter your email" type="email"/>\n             </div>\n            </div>\n            <label class="control-label" for="EmailCollectionField2">\n             To begin the application, please enter your email\n            </label>\n            <span class="help-block small">\n             By continuing you agree to Monster\'s\n             <a href="http://my.monster.com/Privacy/Default.aspx" target="_blank" title="Privacy Policy">\n              Privacy Policy\n             </a>\n             ,\n             <a href="http://my.monster.com/Terms/Default.aspx" target="_blank" title="Terms of Use">\n              Terms of Use\n             </a>\n             and\n             <a href="http://inside.monster.com/cookie-info/inside2.aspx" target="_blank" title="use of cookies">\n              use of cookies\n             </a>\n             .\n            </span>\n            <button class="sr-only" type="submit">\n             Continue application\n            </button>\n           </div>\n          </form>\n         </div>\n        </div>\n       </div>\n       <!-- ./jobview-footer -->\n      </article>\n      <!-- ./#jobview -->\n     </div>\n     <div class="col-xs-12 col-sm-6 col-md-4 col-lg-4">\n      <div class="jobview-affix">\n       <div style="background-color: #fff;">\n        <input id="trackInfo" type="hidden" value=\'{"emailAddress":"","postingId":"cded1f5c-bcd4-402c-b67e-96e1b38c21ec","placementID":null,"jobPosition":0,"uniqueUser":null,"affiliate":"Monster","technology":null}\'/>\n        <form action="https://cg.sandia.gov/psc/applicant/EMPLOYEE/HRMS/c/HRS_HRAM.HRS_APP_SCHJOB.GBL?Page=HRS_APP_JBPST&amp;Action=U&amp;FOCUS=Applicant&amp;SiteId=1&amp;JobOpeningId=656431&amp;PostingSeq=1" aria-hidden="true" class="email-collection hidden" data-id="cded1f5c-bcd4-402c-b67e-96e1b38c21ec" data-lrtype="R" data-placement="Right-Top-Rail" data-position="0" data-remote-subscription="/LiteReg/ApplySubscription" data-remote-validation="/LiteReg/IsEmailValid" data-technology="" method="POST" target="_blank">\n         <div class="form-group">\n          <label class="control-label" for="EmailCollectionField1">\n           To begin the application, please enter your email\n          </label>\n          <input class="form-control input-sm" id="EmailCollectionField1" name="litRegEmailAddress" placeholder="Please enter your email" type="email"/>\n         </div>\n         <span class="help-block small">\n          By continuing you agree to Monster\'s\n          <a href="http://my.monster.com/Privacy/Default.aspx" target="_blank" title="Privacy Policy">\n           Privacy Policy\n          </a>\n          ,\n          <a href="http://my.monster.com/Terms/Default.aspx" target="_blank" title="Terms of Use">\n           Terms of Use\n          </a>\n          and\n          <a href="http://inside.monster.com/cookie-info/inside2.aspx" target="_blank" title="use of cookies">\n           use of cookies\n          </a>\n          .\n         </span>\n         <button class="sr-only" type="submit">\n          Continue application\n         </button>\n        </form>\n        <a class="btn btn-sm btn-primary btn-block btn-jobsdotcom" data-action="apply" data-applyurl="https://cg.sandia.gov/psc/applicant/EMPLOYEE/HRMS/c/HRS_HRAM.HRS_APP_SCHJOB.GBL?Page=HRS_APP_JBPST&amp;Action=U&amp;FOCUS=Applicant&amp;SiteId=1&amp;JobOpeningId=656431&amp;PostingSeq=1" data-atm-id="36" data-confurl="http://job-openings.monster.com/monster/confirmation?postingid=cded1f5c-bcd4-402c-b67e-96e1b38c21ec" data-form-selector=".email-collection" href="http://job-openings.monster.com/monster/confirmation?postingid=cded1f5c-bcd4-402c-b67e-96e1b38c21ec" rel="nofollow" role="button">\n         Apply Now\n        </a>\n        <div class="social-sharing no-logo">\n         <h5>\n          Share this Job\n         </h5>\n         <a href="https://www.twitter.com/share?url=%20&amp;text=Postdoctoral+Appointee+-+Data+Science+of+Turbulence+Modeling at Sandia+Corporation http://job-openings.monster.com/monster/cded1f5c-bcd4-402c-b67e-96e1b38c21ec via @monster" target="_blank" title="Share this job on Twitter">\n          <i class="fa fa-2x fa-twitter" style="margin: 0 4px;">\n          </i>\n         </a>\n         <a href="https://plus.google.com/share?url=http://job-openings.monster.com/monster/cded1f5c-bcd4-402c-b67e-96e1b38c21ec" target="_blank" title="Share this job on Google+">\n          <i class="fa fa-2x fa-google-plus" style="margin: 0 4px;">\n          </i>\n         </a>\n         <a href="mailto: ?subject=Postdoctoral Appointee - Data Science of Turbulence Modeling - Sandia Corporation | Monster.com&amp;body=Sandia Corporation http://job-openings.monster.com/monster/cded1f5c-bcd4-402c-b67e-96e1b38c21ec" title="Share this job via Email">\n          <i class="fa fa-2x fa-envelope-o" style="margin: 0 4px;">\n          </i>\n         </a>\n        </div>\n       </div>\n       <div>\n        <div class="jobview-related-jobs" id="relatedJobs">\n         <div class="related-job-container">\n          <h5>\n           Related Jobs\n          </h5>\n          <ul class="list-unstyled">\n           <li>\n            <a class="cloudJobs" data-m_impr_a_placement_id="rjv1" data-m_impr_j_cid="0" data-m_impr_j_coc="" data-m_impr_j_jawsid="216802925" data-m_impr_j_jobid="" data-m_impr_j_jpm="1" data-m_impr_j_jpt="2" data-m_impr_j_lat="35" data-m_impr_j_lid="516" data-m_impr_j_long="-78" data-m_impr_j_occid="0" data-m_impr_j_p="1" data-m_impr_j_postingid="7b9bf96b-ba7e-443d-9c9d-6cf5994dabed" data-m_impr_j_pvc="c7b3ca60-a665-48bb-8c1b-1e43a40183a6" data-m_impr_s_search_query="" data-m_impr_s_t="RE_EXP6b_JSJ_CR_JS0" data-m_impr_uuid="33fe765e-0540-4b16-9535-c22124324838" href="http://job-openings.monster.com/monster/7b9bf96b-ba7e-443d-9c9d-6cf5994dabed?intcid=js" onclick="jobClick(this, \'http://job-openings.monster.com/monster/7b9bf96b-ba7e-443d-9c9d-6cf5994dabed?intcid=js\', \'newjobsprodseekerus\', \'click on jobview from jobview\')" rel="nofollow" target="_blank" title="View This Job: Agile Project Manager">\n             Agile Project Manager\n            </a>\n            <div class="location small text-muted">\n             Veritude, Durham - NC\n            </div>\n           </li>\n           <li>\n            <a class="cloudJobs" data-m_impr_a_placement_id="rjv1" data-m_impr_j_cid="0" data-m_impr_j_coc="" data-m_impr_j_jawsid="230666319" data-m_impr_j_jobid="" data-m_impr_j_jpm="1" data-m_impr_j_jpt="2" data-m_impr_j_lat="35" data-m_impr_j_lid="512" data-m_impr_j_long="-80" data-m_impr_j_occid="0" data-m_impr_j_p="2" data-m_impr_j_postingid="db7abedc-f56c-4ce8-aa3a-ff29694c1f30" data-m_impr_j_pvc="tmpenterpriserentacar" data-m_impr_s_search_query="" data-m_impr_s_t="RE_EXP6b_JSJ_CR_JS0" data-m_impr_uuid="63139c99-52c9-4e72-be9f-0667f88db60c" href="http://job-openings.monster.com/monster/db7abedc-f56c-4ce8-aa3a-ff29694c1f30?intcid=js" onclick="jobClick(this, \'http://job-openings.monster.com/monster/db7abedc-f56c-4ce8-aa3a-ff29694c1f30?intcid=js\', \'newjobsprodseekerus\', \'click on jobview from jobview\')" rel="nofollow" target="_blank" title="View This Job: Sales Management Trainee">\n             Sales Management Trainee\n            </a>\n            <div class="location small text-muted">\n             Enterprise Rent-A-Car, Mooresville - NC\n            </div>\n           </li>\n           <li>\n            <a class="cloudJobs" data-m_impr_a_placement_id="rjv1" data-m_impr_j_cid="0" data-m_impr_j_coc="" data-m_impr_j_jawsid="217409762" data-m_impr_j_jobid="" data-m_impr_j_jpm="1" data-m_impr_j_jpt="2" data-m_impr_j_lat="36" data-m_impr_j_lid="607" data-m_impr_j_long="-86" data-m_impr_j_occid="0" data-m_impr_j_p="3" data-m_impr_j_postingid="ffda8562-a5ea-4af4-84e7-890e3424736d" data-m_impr_j_pvc="cielomasterfeed" data-m_impr_s_search_query="" data-m_impr_s_t="RE_EXP6b_JSJ_CR_JS0" data-m_impr_uuid="5676d7fe-ad81-4339-b54b-7906853d7a5d" href="http://job-openings.monster.com/monster/ffda8562-a5ea-4af4-84e7-890e3424736d?intcid=js" onclick="jobClick(this, \'http://job-openings.monster.com/monster/ffda8562-a5ea-4af4-84e7-890e3424736d?intcid=js\', \'newjobsprodseekerus\', \'click on jobview from jobview\')" rel="nofollow" target="_blank" title="View This Job: RN - Surgical Care / Saint Thomas West Hospital / PRN Days">\n             RN - Surgical Care / Saint Thomas West Hospital / PRN Days\n            </a>\n            <div class="location small text-muted">\n             Saint Thomas Health, Nashville - TN\n            </div>\n           </li>\n           <li>\n            <a class="cloudJobs" data-m_impr_a_placement_id="rjv1" data-m_impr_j_cid="0" data-m_impr_j_coc="" data-m_impr_j_jawsid="223632537" data-m_impr_j_jobid="" data-m_impr_j_jpm="1" data-m_impr_j_jpt="2" data-m_impr_j_lat="42" data-m_impr_j_lid="889" data-m_impr_j_long="-88" data-m_impr_j_occid="0" data-m_impr_j_p="4" data-m_impr_j_postingid="ffd5f62b-4d4b-4e81-8223-f1ca930612dc" data-m_impr_j_pvc="cielomasterfeed" data-m_impr_s_search_query="" data-m_impr_s_t="RE_EXP6b_JSJ_CR_JS0" data-m_impr_uuid="2bf956be-ab89-48cb-a5c0-daa9869a378c" href="http://job-openings.monster.com/monster/ffd5f62b-4d4b-4e81-8223-f1ca930612dc?intcid=js" onclick="jobClick(this, \'http://job-openings.monster.com/monster/ffd5f62b-4d4b-4e81-8223-f1ca930612dc?intcid=js\', \'newjobsprodseekerus\', \'click on jobview from jobview\')" rel="nofollow" target="_blank" title="View This Job: RN - Behavioral Health - Older Adult - Full Time - Nights">\n             RN - Behavioral Health - Older Adult - Full Time - Nights\n            </a>\n            <div class="location small text-muted">\n             Amita Health, Hoffman Estates - IL\n            </div>\n           </li>\n           <li>\n            <a class="cloudJobs" data-m_impr_a_placement_id="rjv1" data-m_impr_j_cid="0" data-m_impr_j_coc="" data-m_impr_j_jawsid="211735186" data-m_impr_j_jobid="" data-m_impr_j_jpm="1" data-m_impr_j_jpt="2" data-m_impr_j_lat="30" data-m_impr_j_lid="612" data-m_impr_j_long="-97" data-m_impr_j_occid="0" data-m_impr_j_p="5" data-m_impr_j_postingid="ffd2c858-435c-4a25-bcfd-d6ba67be0c9a" data-m_impr_j_pvc="cielomasterfeed" data-m_impr_s_search_query="" data-m_impr_s_t="RE_EXP6b_JSJ_CR_JS0" data-m_impr_uuid="7d032f43-a44f-4ec9-b310-502de5be9497" href="http://job-openings.monster.com/monster/ffd2c858-435c-4a25-bcfd-d6ba67be0c9a?intcid=js" onclick="jobClick(this, \'http://job-openings.monster.com/monster/ffd2c858-435c-4a25-bcfd-d6ba67be0c9a?intcid=js\', \'newjobsprodseekerus\', \'click on jobview from jobview\')" rel="nofollow" target="_blank" title="View This Job: Registered Nurse (RN) - Medical Surgical (Med Surg), Full Time Night">\n             Registered Nurse (RN) - Medical Surgical (Med Surg), Full Time Night\n            </a>\n            <div class="location small text-muted">\n             Seton Healthcare Family, Austin - TX\n            </div>\n           </li>\n           <li>\n            <a class="cloudJobs" data-m_impr_a_placement_id="rjv1" data-m_impr_j_cid="0" data-m_impr_j_coc="" data-m_impr_j_jawsid="217409013" data-m_impr_j_jobid="" data-m_impr_j_jpm="1" data-m_impr_j_jpt="2" data-m_impr_j_lat="42" data-m_impr_j_lid="470" data-m_impr_j_long="-83" data-m_impr_j_occid="0" data-m_impr_j_p="6" data-m_impr_j_postingid="ffcb8386-5236-48d2-a851-e6c640106d9e" data-m_impr_j_pvc="cielomasterfeed" data-m_impr_s_search_query="" data-m_impr_s_t="RE_EXP6b_JSJ_CR_JS0" data-m_impr_uuid="c045e9a9-3e3f-4dcd-8d7d-7bde0b45526d" href="http://job-openings.monster.com/monster/ffcb8386-5236-48d2-a851-e6c640106d9e?intcid=js" onclick="jobClick(this, \'http://job-openings.monster.com/monster/ffcb8386-5236-48d2-a851-e6c640106d9e?intcid=js\', \'newjobsprodseekerus\', \'click on jobview from jobview\')" rel="nofollow" target="_blank" title="View This Job: Registered Nurse/Medical 5E/Providence Hospital/FT Rotating">\n             Registered Nurse/Medical 5E/Providence Hospital/FT Rotating\n            </a>\n            <div class="location small text-muted">\n             St. John Providence, Southfield - MI\n            </div>\n           </li>\n           <li>\n            <a class="cloudJobs" data-m_impr_a_placement_id="rjv1" data-m_impr_j_cid="0" data-m_impr_j_coc="" data-m_impr_j_jawsid="223329008" data-m_impr_j_jobid="" data-m_impr_j_jpm="1" data-m_impr_j_jpt="2" data-m_impr_j_lat="30" data-m_impr_j_lid="386" data-m_impr_j_long="-87" data-m_impr_j_occid="0" data-m_impr_j_p="7" data-m_impr_j_postingid="ffc8528b-58c1-4e96-a5ae-d72df134fd51" data-m_impr_j_pvc="cielomasterfeed" data-m_impr_s_search_query="" data-m_impr_s_t="RE_EXP6b_JSJ_CR_JS0" data-m_impr_uuid="65eaaf4e-674b-4c51-ad0d-5a42c9956af6" href="http://job-openings.monster.com/monster/ffc8528b-58c1-4e96-a5ae-d72df134fd51?intcid=js" onclick="jobClick(this, \'http://job-openings.monster.com/monster/ffc8528b-58c1-4e96-a5ae-d72df134fd51?intcid=js\', \'newjobsprodseekerus\', \'click on jobview from jobview\')" rel="nofollow" target="_blank" title="View This Job: RN - Med/Surg, Sacred Heart Hospital/Pensacola,FL/FT nights-36 hrs">\n             RN - Med/Surg, Sacred Heart Hospital/Pensacola,FL/FT nights-36 hrs\n            </a>\n            <div class="location small text-muted">\n             Sacred Heart, Pensacola - FL\n            </div>\n           </li>\n          </ul>\n          <!-- jrs-job=222209082&amp;count=6 -->\n         </div>\n        </div>\n        <div>\n         <h5>\n          More\n         </h5>\n         <a href="http://www.monster.com/jobs/search/?client=power&amp;q=IT/Software Development&amp;where=Albuquerque , NM&amp;intcid=more_jobs_category_location" title="See all IT/Software Development jobs in Albuquerque, NM">\n          See all IT/Software Development jobs in Albuquerque, NM\n         </a>\n         <br/>\n         <a href="http://www.monster.com/jobs/search/?client=power&amp;q=Software/System Architecture&amp;intcid=more_jobs_occupation" title="See all Software/System Architecture jobs">\n          See all Software/System Architecture jobs\n         </a>\n         <br/>\n         <a class="aut-city-search" href="http://www.monster.com/jobs/search/?client=power&amp;where=Albuquerque , NM&amp;intcid=more_jobs_location" title="See all jobs in Albuquerque">\n          See all jobs in Albuquerque\n         </a>\n        </div>\n       </div>\n       <div class="oasAdsContainer">\n        <div>\n         <!-- 1st Section Begins : Delivery via OAS JX Tag -->\n         <script type="text/javascript">\n          window.MonsterAdds = window.MonsterAdds || {};\r\n\r\n            MonsterAdds.writeScript = function (showMobile) {\r\n                //TODO add mobile test if needed, see AdBlock.cshtml\r\n                document.write("<scr" + "ipt type=\'text/javascript\' src=\'//oas.monster.com/RealMedia/ads/adstream_jx.ads/us.monster.en/aggjobview/11125859932@Right3?size=300x250&site=mons&affiliate=Monster&app=js&oas_pv=no_analytics&fb=0&moc=11969&st=NM&pci=Albuquerque&pcy=US&proejc=660&key=IT%2fSoftware+Development&plid=537&pcid=2132&poccid=11969&mesco=9901111000004\'><\\/script>");\r\n            };\r\n\r\n            MonsterAdds.writeScript(true);\n         </script>\n         <!-- 2nd Section Begins : Delivery via OAS NX Tag for non-Javascript Browser -->\n         <noscript>\n          <a href="//oas.monster.com/RealMedia/ads/click_nx.ads/us.monster.en/aggjobview/11248920321@Right3?size=300x250&amp;site=mons&amp;affiliate=Monster&amp;app=js&amp;oas_pv=no_analytics&amp;fb=0&amp;moc=11969&amp;st=NM&amp;pci=Albuquerque&amp;pcy=US&amp;proejc=660&amp;key=IT%2fSoftware+Development&amp;plid=537&amp;pcid=2132&amp;poccid=11969&amp;mesco=9901111000004">\n           <img src="//oas.monster.com/RealMedia/ads/click_nx.ads/us.monster.en/aggjobview/1239897839@Right3?size=300x250&amp;site=mons&amp;affiliate=Monster&amp;app=js&amp;oas_pv=no_analytics&amp;fb=0&amp;moc=11969&amp;st=NM&amp;pci=Albuquerque&amp;pcy=US&amp;proejc=660&amp;key=IT%2fSoftware+Development&amp;plid=537&amp;pcid=2132&amp;poccid=11969&amp;mesco=9901111000004"/>\n          </a>\n         </noscript>\n        </div>\n       </div>\n      </div>\n      <div class="hidden-xs affix-fix">\n      </div>\n     </div>\n    </div>\n    <!-- ./row -->\n    <div class="modal fade" id="subscriptionModal">\n     <div class="modal-dialog">\n      <div class="modal-content">\n       <div class="modal-body">\n        <div class="email-collection promoted">\n         <div class="icon">\n         </div>\n         <h4 class="title">\n          Get new similar jobs by email for\n         </h4>\n         <p class="desc">\n          Postdoctoral Appointee - Data Science of Turbulence Modeling\n         </p>\n         <form action="" aria-hidden="true" class="email-jvsub-collection" data-id="cded1f5c-bcd4-402c-b67e-96e1b38c21ec" data-remote-subscribe="/LiteReg/JobViewSubscription" data-remote-validation="/LiteReg/IsEmailValid" id="modalForm" method="POST">\n          <div class="row-flex">\n           <div class="col-flex stretch">\n            <input class="form-control input-sm" id="emailAddress" name="emailAddress" placeholder="Please enter your email" type="email"/>\n           </div>\n           <div class="col-flex">\n            <a class="btn btn-sm btn-primary btn-jobsdotcom" data-action="modal-subscription" data-form-selector=".email-jvsub-collection" href="#" rel="nofollow" role="button">\n             Email me jobs\n            </a>\n           </div>\n           <div class="col-flex">\n            <a class="btn btn-link btn-sm" href="#" id="cancelModal">\n             Skip\n            </a>\n           </div>\n          </div>\n         </form>\n        </div>\n       </div>\n       <div class="modal-footer">\n        <span class="help-block small">\n         By continuing you agree to Monster\'s\n         <a href="http://my.monster.com/Privacy/Default.aspx" target="_blank" title="Privacy Policy">\n          Privacy Policy\n         </a>\n         ,\n         <a href="http://my.monster.com/Terms/Default.aspx" target="_blank" title="Terms of Use">\n          Terms of Use\n         </a>\n         and\n         <a href="http://inside.monster.com/cookie-info/inside2.aspx" target="_blank" title="use of cookies">\n          use of cookies\n         </a>\n         .\n        </span>\n       </div>\n       <div class="help-block small alert-success" style="display: none;">\n        You will start receiving jobs like this emailed to: {emailaddress}\n       </div>\n      </div>\n      <!-- /.modal-content -->\n     </div>\n     <!-- /.modal-dialog -->\n    </div>\n    <!-- /.modal -->\n    <script id="ApplySubscriptionThankYou" type="text/template">\n     <p><b>Thank you for applying for:</b><br />Postdoctoral Appointee - Data Science of Turbulence Modeling in Albuquerque, NM 87102</p>\r\n        <p class="text-muted">To check your full apply history, <a href=https://login20.monster.com>log in</a> or <a href=http://my.monster.com/Become-Member/Create-Account>create an account.</a></p>\n    </script>\n    <script type="text/javascript">\n     var script = document.createElement("script");\r\n    script.type = "text/javascript";\r\n    script.async = true;\r\n    script.src = "//nexus.ensighten.com/monster/Bootstrap.js";\r\n    document.head.appendChild(script);\n    </script>\n   </div>\n   <footer class="page-footer">\n    <div class="container">\n     <div class="row">\n      <div class="col-md-12">\n       <!-- Copyright info -->\n       <p class="copy">\n        Copyright \xc2\xa9 2015 |\n        <a href="http://www.monster.com">\n         Monster Worldwide\n        </a>\n       </p>\n      </div>\n     </div>\n    </div>\n   </footer>\n   <script src="/js/jobviewjs?v=Qp96d4MjGz4yVpoQyg3bu08SRTYnAxoYIMyQbxHelEg1">\n   </script>\n   <!--tracking script-->\n   <script src="http://logs.jobs.com/impression_trackingv2.js" type="text/javascript">\n   </script>\n   <script type="text/javascript">\n    monster.controls.add("monster.jv.base.tracking", {"cloudApiDomain":"logs.jobs.com"});\n   </script>\n   <script type="text/javascript">\n    monster.controls.add("monster.jv.base.jobview", {});\n   </script>\n   <script type="text/javascript">\n    monster.controls.add("monster.jv.base.subscription", {});\n   </script>\n   <script type="text/javascript">\n    monster.controls.add("monster.jv.base.subscriptionModal", {});\n   </script>\n   <script type="text/javascript">\n    monster.controls.add("monster.jv.base.banner", {});\n   </script>\n   <script type="text/javascript">\n    monster.controls.add("monster.jv.base.tooltip", {});\n   </script>\n  </div>\n  <!-- Google Analytics Script Start -->\n  <script>\n   (function (i, s, o, g, r, a, m) {\r\n            i[\'GoogleAnalyticsObject\'] = r; i[r] = i[r] || function () {\r\n                (i[r].q = i[r].q || []).push(arguments)\r\n            }, i[r].l = 1 * new Date(); a = s.createElement(o),\r\n            m = s.getElementsByTagName(o)[0]; a.async = 1; a.src = g; m.parentNode.insertBefore(a, m)\r\n        })(window, document, \'script\', \'//www.google-analytics.com/analytics.js\', \'ga\');\r\n\r\n        ga(\'create\', \'UA-41898665-3\', \'jobs.com\');\r\n        ga(\'send\', \'pageview\');\n  </script>\n  <!--Google Analytics Script End -->\n  <script type="text/javascript">\n   monster.eventBus.pub(monster.Events.PAGE_LOAD);\n  </script>\n  <!-- Site Catalyst Start -->\n  <script src="http://media.newjobs.com/js/global/at_1.5.js" type="text/javascript">\n  </script>\n  <script type="text/javascript">\n   var DYNAMIC_S_ACCOUNT = \'newjobsProdseekerUS\';\r\n    var DYNAMIC_S_CURRENCYCODE = \'USD\';\r\n    //<![CDATA[\r\n    var amc = amc || {}; if (!amc.on) { amc.on = amc.call = function () { }; };\r\n    document.write("<scr" + "ipt type=\'text/javascript\' src=\'//media.monster.com/js/sc/sitecatalystLL.js\'></sc" + "ript>");\r\n    //]]>\r\n\r\n    _m.ATM.properties = {"channel":"58","eVar1":"D=g","prop1":"D=g","eVar4":"0","eVar2":"unrecognized","prop22":"N/A-Cloud","prop23":"N/A-Cloud","prop24":"1/1/0001","prop25":"N/A-Cloud","prop26":"N/A-Cloud","eVar25":"cded1f5c-bcd4-402c-b67e-96e1b38c21ec_Postdoctoral Appointee - Data Science of Turbulence Modeling","eVar26":"1f31d1e2_Sandia Corporation","eVar27":"N/A-Cloud","eVar28":"IT/Software Development","eVar29":"N/A-Cloud","eVar30":"Software/System Architecture","eVar31":"Albuquerque_NM_US","eVar32":"N/A-Cloud","eVar33":"N/A-Cloud","eVar35":"Sandia Corporation","eVar36":"App_Cstm","eVar37":"N/A-Cloud","eVar38":"R/L-Apply","eVar47":"2","eVar50":"Aggregated","eVar53":"9901111000004","eVar64":"27024","eVar66":"Monster","events.event3":"1","events.event30":"true","events.event42":"1","eVar61":"Group C JS - newconfirmation.aspx"};\r\n    _m.ATM.pageName = \'desktop|mons|jobs30|jobview\';\r\n    _m.ATM.appConfig = {version:\'0\',appID:\'jobviewcloud\',channelID:\'58\',countryID:\'164\'};\r\n    _m.ATM.runOnLoad=true;\r\n\r\n    $(document).ready(_m.ATM.initFromOnReady);\n  </script>\n  <!-- Site Catalyst End -->\n </body>\n</html>'
p7
tp8
a.