(lp1
(S'http://job-openings.monster.com/monster/a2affe42-8096-4b05-9975-e31e4c426c3f'
S'<!DOCTYPE html>\n<!--[if lt IE 7]>      <html class="no-js lt-ie9 lt-ie8 lt-ie7"> <![endif]-->\n<!--[if IE 7]>         <html class="no-js lt-ie9 lt-ie8"> <![endif]-->\n<!--[if IE 8]>         <html class="no-js lt-ie9"> <![endif]-->\n<!--[if gt IE 8]><!-->\n<html class="no-js">\n <!--<![endif]-->\n <head>\n  <title>\n   Business Intelligence Consulting and Services (Job ID : 110.7-17-001) - Computer Consultants International, Inc. | Jobs.com\n  </title>\n  <meta charset="utf-8"/>\n  <meta content="IE=edge,chrome=1" http-equiv="X-UA-Compatible"/>\n  <meta content="text/html; charset=utf-8" http-equiv="Content-Type"/>\n  <meta content="width=device-width, initial-scale=1.0" name="viewport"/>\n  <meta content="Computer Consultants International, Inc. - Bismarck, ND. Company DescriptionComputer Consultants I" name="description"/>\n  <link href="http://plus.monster.com/+monster" rel="publisher"/>\n  <link href="https://maxcdn.bootstrapcdn.com/bootstrap/3.2.0/css/bootstrap.min.css" rel="stylesheet"/>\n  <link href="https://maxcdn.bootstrapcdn.com/font-awesome/4.2.0/css/font-awesome.min.css" rel="stylesheet"/>\n  <link href="/bundles/monster?v=3VUpvWSKWfcSTe2LCMpXVIfzIyGEJcLvPJMZUFZH8gg1" rel="stylesheet"/>\n  <!-- Favicon -->\n  <link href="http://media.newjobs.com/niche/img/favicon/favicon.ico" rel="shortcut icon"/>\n  <meta content="noindex, nofollow" name="robots"/>\n  <meta content="Monster" name="m_impr.a_affiliate_id"/>\n  <meta content="jobview" name="_ac.page_name"/>\n  <!-- Le HTML5 shim, for IE6-8 support of HTML5 elements -->\n  <!--[if lt IE 9]>\r\n    <script src="/scripts/third_party/html5shiv.js"></script>\r\n    <script src="/scripts/bootstrap/respond.min.js" type="text/javascript"></script>\r\n\r\n    <script type="text/javascript">\r\n        if (!Array.prototype.forEach) {\r\n            Array.prototype.forEach = function (fun /*, thisArg */) {\r\n                "use strict";\r\n                if (this === void 0 || this === null || typeof fun !== "function") throw new TypeError();\r\n\r\n                var\r\n                    t = Object(this),\r\n                    len = t.length >>> 0,\r\n                    thisArg = arguments.length >= 2 ? arguments[1] : void 0;\r\n\r\n                for (var i = 0; i < len; i++)\r\n                    if (i in t)\r\n                        fun.call(thisArg, t[i], i, t);\r\n            };\r\n        }\r\n    </script>\r\n<![endif]-->\n </head>\n <body>\n  <div class="page">\n   <div class="navbar navbar-default navbar-fixed-top">\n    <div class="container">\n     <!--<div class="container">-->\n     <div class="navbar-header" itemscope="" itemtype="http://schema.org/Organization">\n      <a class="navbar-brand" href="http://www.monster.com" itemprop="url">\n       <img alt="monster.com" itemprop="logo" src="/Areas/JobViewCloud/content/images/monster-new.png" title="monster.com"/>\n      </a>\n     </div>\n     <!-- large screen navbar-collapse location -->\n     <div class="navbar-collapse collapse hidden-xs">\n     </div>\n     <!--/.navbar-collapse -->\n    </div>\n    <!-- ./container -->\n   </div>\n   <!-- ./navbar -->\n   <div class="jobview container">\n    <div class="row">\n     <input id="normalized-company-id" type="hidden" value="142857"/>\n     <div class="col-xs-12 col-sm-6 col-md-8 col-lg-8">\n      <article id="jobview">\n       <header class="jobview-header">\n        <h3>\n         Business Intelligence Consulting and Services (Job ID : 110.7-17-001)\n        </h3>\n        <h4 class="company">\n         Computer Consultants International, Inc.\n         <small class="location">\n          -\n          <i class="fa fa-map-marker">\n          </i>\n          Bismarck, ND\n         </small>\n        </h4>\n        <span class="postedDate">\n         <strong>\n          Posted:\n         </strong>\n         2/3/2017\n        </span>\n       </header>\n       <!-- ./jobview-header -->\n       <div class="jobview-upper-apply-mobile visible-xs row">\n        <div class="col-sm-6">\n         <div class="action-buttons">\n          <input id="trackInfo" type="hidden" value=\'{"emailAddress":"","postingId":"a2affe42-8096-4b05-9975-e31e4c426c3f","placementID":null,"jobPosition":0,"uniqueUser":null,"affiliate":"Monster","technology":null}\'/>\n          <a class="btn btn-sm btn-primary btn-jobsdotcom" data-action="apply" data-applyurl="https://www.smartrecruiters.com/ComputerConsultantsInternational1/107376230-business-intelligence-consulting-and-services-job-id-110-7-17-001-" data-atm-id="35" data-confurl="http://job-openings.monster.com/monster/confirmation?postingid=a2affe42-8096-4b05-9975-e31e4c426c3f" data-form-selector=".email-collection" href="http://job-openings.monster.com/monster/confirmation?postingid=a2affe42-8096-4b05-9975-e31e4c426c3f" rel="nofollow" role="button">\n           Apply Now\n          </a>\n          <form action="https://www.smartrecruiters.com/ComputerConsultantsInternational1/107376230-business-intelligence-consulting-and-services-job-id-110-7-17-001-" aria-hidden="true" class="email-collection hidden panel panel-default" data-id="a2affe42-8096-4b05-9975-e31e4c426c3f" data-lrtype="B" data-placement="Left-Bottom-Body" data-position="0" data-remote-subscription="/LiteReg/ApplySubscription" data-remote-validation="/LiteReg/IsEmailValid" data-technology="" method="POST" target="_blank">\n           <div class="panel-body">\n            <div class="row-flex">\n             <div class="col-flex stretch">\n              <input class="form-control input-sm" id="EmailCollectionField2" name="litRegEmailAddress" placeholder="Please enter your email" type="email"/>\n             </div>\n            </div>\n            <label class="control-label" for="EmailCollectionField2">\n             To begin the application, please enter your email\n            </label>\n            <span class="help-block small">\n             By continuing you agree to Monster\'s\n             <a href="http://my.monster.com/Privacy/Default.aspx" target="_blank" title="Privacy Policy">\n              Privacy Policy\n             </a>\n             ,\n             <a href="http://my.monster.com/Terms/Default.aspx" target="_blank" title="Terms of Use">\n              Terms of Use\n             </a>\n             and\n             <a href="http://inside.monster.com/cookie-info/inside2.aspx" target="_blank" title="use of cookies">\n              use of cookies\n             </a>\n             .\n            </span>\n            <button class="sr-only" type="submit">\n             Continue application\n            </button>\n           </div>\n          </form>\n         </div>\n        </div>\n       </div>\n       <div class="jobview-section">\n        Company Description\n        <br/>\n        <br/>\n        <p>\n         <span>\n          <b>\n           Computer\n          </b>\n          <b>\n           Consultants\n          </b>\n          <b>\n           International\n          </b>\n          , Inc. (CCI) is an IT Consulting Firm with more than 18 years experience providing effective, expert-level services in industries such as Construction, Technology, Finance, Healthcare, and Government. CCI focuses on building long-term relationships while completing projects from design to delivery. People are CCI\'s key component for success. Recruiting utmost-quality individuals for our clients, CCI fields a workforce of individuals who are selected not only because of their technical qualifications but also for their achievements as substantial, contributing human beings. In government work and in the commercial market, high standards of ethics and accountability are critical. Therefore our people are chosen for their integrity and ability to maintain relationships, as well as expertise in their field. To learn more about CCI, visit us online at www.cci-worldwide.com\n         </span>\n         .\n        </p>\n        Job Description\n        <br/>\n        <br/>\n        <p>\n         Business Intelligence Solutions and System Design:\n         <br/>\n         <br/>\n         \xe2\x80\xa2    Determines the customer\xe2\x80\x99s information requirements\n         <br/>\n         \xe2\x80\xa2    Studies the customer\xe2\x80\x99s requirements and determines if the business processes for gathering, cleansing, and ensuring the quality of data are adequate\n         <br/>\n         \xe2\x80\xa2    Provide BI technical and architectural guidance to projects and cross-functional teams, ensuring that new initiatives enable effective data reporting.   Collaborate with dashboard/report designers and data scientists to define the necessary data sources, data elements, transformations, and structures\n         <br/>\n         \xe2\x80\xa2    Prepares an analysis document with the recommended solution\n         <br/>\n         \xe2\x80\xa2    Works with State architects as well as other technical and management personnel to develop the best solution\n         <br/>\n         <br/>\n         Design, Build and Test BI Solutions and Reports:\n         <br/>\n         \xe2\x80\xa2    Creates design documents for BI solutions based on business analysis document\n         <br/>\n         \xe2\x80\xa2    Works closely/collaborates with State\xe2\x80\x99s database analysts to fine tune the BI solution design including database or data warehouse design\n         <br/>\n         \xe2\x80\xa2    Presents design documents to State architects as well as other technical and man-agement resources to provide assurance the best solution is proposed\n         <br/>\n         \xe2\x80\xa2    Presents design documents to customer for approval\n         <br/>\n         \xe2\x80\xa2    Prototypes the solution as designed and presents prototype to the customer for ap-proval,\n         <br/>\n         \xe2\x80\xa2    Prepares BI application and data warehouse processes for production\n         <br/>\n         \xe2\x80\xa2    Educates and conducts continuous communication with end users throughout the project\n         <br/>\n         <br/>\n         BI Project Coordination:\n         <br/>\n         \xe2\x80\xa2    Manage BI projects using project management best practices\n         <br/>\n         \xe2\x80\xa2    Coordinates with project managers responsible for specific projects to ensure that in-terdependencies between projects are understood and that activities and direction are consistent with the related architecture and standard\n         <br/>\n         \xe2\x80\xa2    Identifies organizational change management issues and incorporates tasks in pro-ject plans to address\n         <br/>\n         <br/>\n         General skill sets:\n         <br/>\n         \xe2\x80\xa2    Interpersonal skill set includes strong analytical, problem solving and project management skills, be able to work well with people and possess strong communication skills as needed to mentor others; communicate highly technical information to non-technical and technical users; written and ver-bal English language proficiency.\n         <br/>\n        </p>\n        Qualifications\n        <br/>\n        <br/>\n        <p>\n         BI Report Designer Experience\n        </p>\n        <p>\n         \xe2\x80\xa2    Meets general BI skillset requirements\n         <br/>\n         \xe2\x80\xa2    Requires three years of experience in this classification in the last four years\n         <br/>\n         \xe2\x80\xa2    Coordinates closely with State IT and business personnel to ensure proper development and implementation of BI reports\n         <br/>\n         \xe2\x80\xa2    Gathers, analyzes and documents technical and business requirements for BI reports creation\n         <br/>\n         \xe2\x80\xa2    Provides performance tuning of BI application and data warehouse processes\n         <br/>\n         \xe2\x80\xa2    Develops reports and dashboards using BI reporting tool sets\n         <br/>\n         \xe2\x80\xa2    Translates requirements using reporting tool to develop reports\n         <br/>\n         \xe2\x80\xa2    Tests and refines the reports to produce the required product\n         <br/>\n         \xe2\x80\xa2    Publishes reports for end user consumption\n         <br/>\n         \xe2\x80\xa2    Prepares required documentation, including user-level documentation\n         <br/>\n         \xe2\x80\xa2    Technical skill set includes analyzing customer reporting needs, development of dashboards and data visualization techniques; experience using business intelligence reporting tools such as: Cognos, Microsoft Reporting Services (SSRS); experience working with Oracle, MS SQL Server, DB2 or similar enterprise-level relational databases; experience with OLAP technologies\n        </p>\n        <p>\n         BI Data Integrator Experience\n        </p>\n        <p>\n         \xe2\x80\xa2    Meets general BI skillset requirements\n         <br/>\n         \xe2\x80\xa2    Requires 3 years of data integration experience in the last four years and demonstrated proficiency in ETL tools, SQL, and stored procedures\n         <br/>\n         \xe2\x80\xa2    Creates design documents for BI solution based on business analysis document\n         <br/>\n         \xe2\x80\xa2    Proficiency in IBM Info sphere (Data stage), Informatica, SSIS, other ETL tools\n        </p>\n        <p>\n         BI Analyst Experience\n        </p>\n        <p>\n         \xe2\x80\xa2    Meets general BI skillset requirements\n         <br/>\n         \xe2\x80\xa2    In general, would have the skills found in both report designer and data integrator\n         <br/>\n         \xe2\x80\xa2    Requires three years of experience in this classification in the last four years\n         <br/>\n         \xe2\x80\xa2    Prepares project and operational cost estimates\n         <br/>\n         \xe2\x80\xa2    Presents final analysis document and cost estimate to customer for approval\n         <br/>\n         \xe2\x80\xa2    Develops and implements multidimensional data warehouse and data cube models using enterprise standard tools such as Cognos Framework Manager or Microsoft Sequel Server Analysis Services (SSAS)\n         <br/>\n         \xe2\x80\xa2    Plans and supervises systems and customer acceptance test activities\n         <br/>\n         \xe2\x80\xa2    Develops and administers overall project management plans that establish management and reporting requirements for BI projects\n         <br/>\n         \xe2\x80\xa2    Delegates tasks to other project team members and monitor performance\n        </p>\n        <p>\n         BI Data Modeler Experience\n        </p>\n        <p>\n         \xe2\x80\xa2    Meets general BI skillset requirements\n         <br/>\n         \xe2\x80\xa2    Requires three years of experience in this classification\n         <br/>\n         \xe2\x80\xa2    Understand and translate business needs into data models supporting ad-hoc and long-term analytics solutions.  Implement data strategies, build data flows and develop conceptual data models\n         <br/>\n         \xe2\x80\xa2    Create logical and physical data models using best practices while ensuring data quality.  Optimize and update existing data models based on current and future project needs.  Maintain conceptual, logical and physical data models along with corresponding metadata\n         <br/>\n         \xe2\x80\xa2    Evaluate existing and proposed data models in conjunction with source system databases for variances and discrepancies which may require reverse engineering physical data models from databases and SQL scripts\n         <br/>\n         \xe2\x80\xa2    Utilize and maintain standard naming conventions and coding practices to ensure consistency of data models\n         <br/>\n         \xe2\x80\xa2    Be familiar with operational data stores, data marts, &amp; data warehouses\n        </p>\n        <p>\n         BI Architect Experience\n        </p>\n        <p>\n         \xe2\x80\xa2    Meets general BI skillset requirements\n         <br/>\n         \xe2\x80\xa2    Five years of experience modeling, implementing, and managing the installation of data warehouses, data marts, ODS, data lakes using multidimensional models\n         <br/>\n         \xe2\x80\xa2    Proven experience in successful implementation of data warehouses and data analytic solutions\n         <br/>\n        </p>\n        <br/>\n        <br/>\n        Additional Information\n        <br/>\n        <br/>\n        <p>\n         For immediate consideration, please send your resume to career(at)cci-worldwide.com with\n         <b>\n          "110.7-17-001-ND"\n         </b>\n         <span>\n          as the subject line.\n         </span>\n        </p>\n        <p>\n        </p>\n       </div>\n       <!-- ./jobview-section -->\n       <div class="hidden-xs jobview-footer row">\n        <div class="col-sm-6">\n         <div class="action-buttons">\n          <input id="trackInfo" type="hidden" value=\'{"emailAddress":"","postingId":"a2affe42-8096-4b05-9975-e31e4c426c3f","placementID":null,"jobPosition":0,"uniqueUser":null,"affiliate":"Monster","technology":null}\'/>\n          <a class="btn btn-sm btn-primary btn-jobsdotcom" data-action="apply" data-applyurl="https://www.smartrecruiters.com/ComputerConsultantsInternational1/107376230-business-intelligence-consulting-and-services-job-id-110-7-17-001-" data-atm-id="35" data-confurl="http://job-openings.monster.com/monster/confirmation?postingid=a2affe42-8096-4b05-9975-e31e4c426c3f" data-form-selector=".email-collection" href="http://job-openings.monster.com/monster/confirmation?postingid=a2affe42-8096-4b05-9975-e31e4c426c3f" rel="nofollow" role="button">\n           Apply Now\n          </a>\n          <form action="https://www.smartrecruiters.com/ComputerConsultantsInternational1/107376230-business-intelligence-consulting-and-services-job-id-110-7-17-001-" aria-hidden="true" class="email-collection hidden panel panel-default" data-id="a2affe42-8096-4b05-9975-e31e4c426c3f" data-lrtype="B" data-placement="Left-Bottom-Body" data-position="0" data-remote-subscription="/LiteReg/ApplySubscription" data-remote-validation="/LiteReg/IsEmailValid" data-technology="" method="POST" target="_blank">\n           <div class="panel-body">\n            <div class="row-flex">\n             <div class="col-flex stretch">\n              <input class="form-control input-sm" id="EmailCollectionField2" name="litRegEmailAddress" placeholder="Please enter your email" type="email"/>\n             </div>\n            </div>\n            <label class="control-label" for="EmailCollectionField2">\n             To begin the application, please enter your email\n            </label>\n            <span class="help-block small">\n             By continuing you agree to Monster\'s\n             <a href="http://my.monster.com/Privacy/Default.aspx" target="_blank" title="Privacy Policy">\n              Privacy Policy\n             </a>\n             ,\n             <a href="http://my.monster.com/Terms/Default.aspx" target="_blank" title="Terms of Use">\n              Terms of Use\n             </a>\n             and\n             <a href="http://inside.monster.com/cookie-info/inside2.aspx" target="_blank" title="use of cookies">\n              use of cookies\n             </a>\n             .\n            </span>\n            <button class="sr-only" type="submit">\n             Continue application\n            </button>\n           </div>\n          </form>\n         </div>\n        </div>\n       </div>\n       <!-- ./jobview-footer -->\n      </article>\n      <!-- ./#jobview -->\n     </div>\n     <div class="col-xs-12 col-sm-6 col-md-4 col-lg-4">\n      <div class="jobview-affix">\n       <div style="background-color: #fff;">\n        <input id="trackInfo" type="hidden" value=\'{"emailAddress":"","postingId":"a2affe42-8096-4b05-9975-e31e4c426c3f","placementID":null,"jobPosition":0,"uniqueUser":null,"affiliate":"Monster","technology":null}\'/>\n        <form action="https://www.smartrecruiters.com/ComputerConsultantsInternational1/107376230-business-intelligence-consulting-and-services-job-id-110-7-17-001-" aria-hidden="true" class="email-collection hidden" data-id="a2affe42-8096-4b05-9975-e31e4c426c3f" data-lrtype="R" data-placement="Right-Top-Rail" data-position="0" data-remote-subscription="/LiteReg/ApplySubscription" data-remote-validation="/LiteReg/IsEmailValid" data-technology="" method="POST" target="_blank">\n         <div class="form-group">\n          <label class="control-label" for="EmailCollectionField1">\n           To begin the application, please enter your email\n          </label>\n          <input class="form-control input-sm" id="EmailCollectionField1" name="litRegEmailAddress" placeholder="Please enter your email" type="email"/>\n         </div>\n         <span class="help-block small">\n          By continuing you agree to Monster\'s\n          <a href="http://my.monster.com/Privacy/Default.aspx" target="_blank" title="Privacy Policy">\n           Privacy Policy\n          </a>\n          ,\n          <a href="http://my.monster.com/Terms/Default.aspx" target="_blank" title="Terms of Use">\n           Terms of Use\n          </a>\n          and\n          <a href="http://inside.monster.com/cookie-info/inside2.aspx" target="_blank" title="use of cookies">\n           use of cookies\n          </a>\n          .\n         </span>\n         <button class="sr-only" type="submit">\n          Continue application\n         </button>\n        </form>\n        <a class="btn btn-sm btn-primary btn-block btn-jobsdotcom" data-action="apply" data-applyurl="https://www.smartrecruiters.com/ComputerConsultantsInternational1/107376230-business-intelligence-consulting-and-services-job-id-110-7-17-001-" data-atm-id="36" data-confurl="http://job-openings.monster.com/monster/confirmation?postingid=a2affe42-8096-4b05-9975-e31e4c426c3f" data-form-selector=".email-collection" href="http://job-openings.monster.com/monster/confirmation?postingid=a2affe42-8096-4b05-9975-e31e4c426c3f" rel="nofollow" role="button">\n         Apply Now\n        </a>\n        <div class="social-sharing no-logo">\n         <h5>\n          Share this Job\n         </h5>\n         <a href="https://www.twitter.com/share?url=%20&amp;text=Business+Intelligence+Consulting+and+Services+(Job+ID+%3a+110.7-17-001) at Computer+Consultants+International%2c+Inc. http://job-openings.monster.com/monster/a2affe42-8096-4b05-9975-e31e4c426c3f via @monster" target="_blank" title="Share this job on Twitter">\n          <i class="fa fa-2x fa-twitter" style="margin: 0 4px;">\n          </i>\n         </a>\n         <a href="https://plus.google.com/share?url=http://job-openings.monster.com/monster/a2affe42-8096-4b05-9975-e31e4c426c3f" target="_blank" title="Share this job on Google+">\n          <i class="fa fa-2x fa-google-plus" style="margin: 0 4px;">\n          </i>\n         </a>\n         <a href="mailto: ?subject=Business Intelligence Consulting and Services (Job ID : 110.7-17-001) - Computer Consultants International, Inc. | Monster.com&amp;body=Computer Consultants International, Inc. http://job-openings.monster.com/monster/a2affe42-8096-4b05-9975-e31e4c426c3f" title="Share this job via Email">\n          <i class="fa fa-2x fa-envelope-o" style="margin: 0 4px;">\n          </i>\n         </a>\n        </div>\n       </div>\n       <div>\n        <div class="jobview-related-jobs" id="relatedJobs">\n         <div class="related-job-container">\n          <h5>\n           Related Jobs\n          </h5>\n          <ul class="list-unstyled">\n           <li>\n            <a class="cloudJobs" data-m_impr_a_placement_id="rjv1" data-m_impr_j_cid="660" data-m_impr_j_coc="xcomsysfoxx " data-m_impr_j_jawsid="228312698" data-m_impr_j_jobid="182655376" data-m_impr_j_jpm="1" data-m_impr_j_jpt="1" data-m_impr_j_lat="0" data-m_impr_j_lid="522" data-m_impr_j_long="0" data-m_impr_j_occid="0" data-m_impr_j_p="1" data-m_impr_j_postingid="63195dae-c6ce-44b9-86fb-22453a0bc774" data-m_impr_j_pvc="monster" data-m_impr_s_search_query="" data-m_impr_s_t="RE_EXP6b_JSJ_CR" data-m_impr_uuid="6934c9e1-b2c8-4171-bcd9-b0ad8d083248" href="http://jobview.monster.com/Agile-Project-Manager-II-Job-Fargo-ND-US-182655376.aspx?intcid=js" onclick="jobClick(this, \'http://jobview.monster.com/Agile-Project-Manager-II-Job-Fargo-ND-US-182655376.aspx?intcid=js\', \'newjobsprodseekerus\', \'click on jobview from jobview\')" rel="nofollow" target="_blank" title="View This Job: Agile Project Manager II">\n             Agile Project Manager II\n            </a>\n            <div class="location small text-muted">\n             Experis, Fargo - ND\n            </div>\n           </li>\n           <li>\n            <a class="cloudJobs" data-m_impr_a_placement_id="rjv1" data-m_impr_j_cid="660" data-m_impr_j_coc="x549889HJSx " data-m_impr_j_jawsid="229127941" data-m_impr_j_jobid="182820325" data-m_impr_j_jpm="1" data-m_impr_j_jpt="1" data-m_impr_j_lat="0" data-m_impr_j_lid="550" data-m_impr_j_long="0" data-m_impr_j_occid="0" data-m_impr_j_p="2" data-m_impr_j_postingid="5483e248-5010-47d2-9ac3-5d6d66dc0bbb" data-m_impr_j_pvc="monster" data-m_impr_s_search_query="" data-m_impr_s_t="RE_EXP6b_JSJ_CR" data-m_impr_uuid="ece7ddd2-84c5-4d7e-a7d8-5847faddc97a" href="http://jobview.monster.com/Technical-Business-Analyst-Program-Manager-Job-New-York-NY-US-182820325.aspx?intcid=js" onclick="jobClick(this, \'http://jobview.monster.com/Technical-Business-Analyst-Program-Manager-Job-New-York-NY-US-182820325.aspx?intcid=js\', \'newjobsprodseekerus\', \'click on jobview from jobview\')" rel="nofollow" target="_blank" title="View This Job: Technical Business Analyst / Program Manager">\n             Technical Business Analyst / Program Manager\n            </a>\n            <div class="location small text-muted">\n             Tekmark Global Solutions, New York - NY\n            </div>\n           </li>\n           <li>\n            <a class="cloudJobs" data-m_impr_a_placement_id="rjv1" data-m_impr_j_cid="10" data-m_impr_j_coc="xuhgroupwrapx " data-m_impr_j_jawsid="229286281" data-m_impr_j_jobid="182871254" data-m_impr_j_jpm="1" data-m_impr_j_jpt="1" data-m_impr_j_lat="0" data-m_impr_j_lid="607" data-m_impr_j_long="0" data-m_impr_j_occid="0" data-m_impr_j_p="3" data-m_impr_j_postingid="470a6688-19b4-4328-bc43-16c5122f915d" data-m_impr_j_pvc="monster" data-m_impr_s_search_query="" data-m_impr_s_t="RE_EXP6b_JSJ_CR" data-m_impr_uuid="12907069-cebb-4476-9266-21902fc26b0f" href="http://jobview.monster.com/Senior-Reporting-Analyst-Finance-Brentwood-TN-Job-Brentwood-TN-US-182871254.aspx?intcid=js" onclick="jobClick(this, \'http://jobview.monster.com/Senior-Reporting-Analyst-Finance-Brentwood-TN-Job-Brentwood-TN-US-182871254.aspx?intcid=js\', \'newjobsprodseekerus\', \'click on jobview from jobview\')" rel="nofollow" target="_blank" title="View This Job: Senior Reporting Analyst (Finance) - Brentwood, TN">\n             Senior Reporting Analyst (Finance) - Brentwood, TN\n            </a>\n            <div class="location small text-muted">\n             UnitedHealth Group, Brentwood - TN\n            </div>\n           </li>\n           <li>\n            <a class="cloudJobs" data-m_impr_a_placement_id="rjv1" data-m_impr_j_cid="660" data-m_impr_j_coc="xmidwestbcfwdx " data-m_impr_j_jawsid="229345804" data-m_impr_j_jobid="182893106" data-m_impr_j_jpm="1" data-m_impr_j_jpt="1" data-m_impr_j_lat="0" data-m_impr_j_lid="428" data-m_impr_j_long="0" data-m_impr_j_occid="0" data-m_impr_j_p="4" data-m_impr_j_postingid="01ed9ab8-98f0-41b0-b4c7-1fa9bb2b3775" data-m_impr_j_pvc="monster" data-m_impr_s_search_query="" data-m_impr_s_t="RE_EXP6b_JSJ_CR" data-m_impr_uuid="60d96ca7-d7fd-4b36-adf6-ab884a93754a" href="http://jobview.monster.com/Sr-Business-Intelligence-Data-Analyst-Job-Indianapolis-IN-US-182893106.aspx?intcid=js" onclick="jobClick(this, \'http://jobview.monster.com/Sr-Business-Intelligence-Data-Analyst-Job-Indianapolis-IN-US-182893106.aspx?intcid=js\', \'newjobsprodseekerus\', \'click on jobview from jobview\')" rel="nofollow" target="_blank" title="View This Job: Sr Business Intelligence Data Analyst">\n             Sr Business Intelligence Data Analyst\n            </a>\n            <div class="location small text-muted">\n             BCforward, Indianapolis - IN\n            </div>\n           </li>\n           <li>\n            <a class="cloudJobs" data-m_impr_a_placement_id="rjv1" data-m_impr_j_cid="47" data-m_impr_j_coc="xbradyx " data-m_impr_j_jawsid="229096515" data-m_impr_j_jobid="182809136" data-m_impr_j_jpm="1" data-m_impr_j_jpt="1" data-m_impr_j_lat="0" data-m_impr_j_lid="656" data-m_impr_j_long="0" data-m_impr_j_occid="0" data-m_impr_j_p="5" data-m_impr_j_postingid="9ddd4b7d-6536-4352-b6e3-a13f4fa4d6a2" data-m_impr_j_pvc="monster" data-m_impr_s_search_query="" data-m_impr_s_t="RE_EXP6b_JSJ_CR" data-m_impr_uuid="6e442ae6-3053-4853-84cf-5f962a80af1b" href="http://jobview.monster.com/Business-Intelligence-Analyst-Job-Milwaukee-WI-US-182809136.aspx?intcid=js" onclick="jobClick(this, \'http://jobview.monster.com/Business-Intelligence-Analyst-Job-Milwaukee-WI-US-182809136.aspx?intcid=js\', \'newjobsprodseekerus\', \'click on jobview from jobview\')" rel="nofollow" target="_blank" title="View This Job: Business Intelligence Analyst">\n             Business Intelligence Analyst\n            </a>\n            <div class="location small text-muted">\n             Brady Corporation, Milwaukee - WI\n            </div>\n           </li>\n           <li>\n            <a class="cloudJobs" data-m_impr_a_placement_id="rjv1" data-m_impr_j_cid="3975" data-m_impr_j_coc="xuhgroupwrapx " data-m_impr_j_jawsid="229096576" data-m_impr_j_jobid="182809368" data-m_impr_j_jpm="1" data-m_impr_j_jpt="1" data-m_impr_j_lat="0" data-m_impr_j_lid="338" data-m_impr_j_long="0" data-m_impr_j_occid="0" data-m_impr_j_p="6" data-m_impr_j_postingid="3ff70e84-40bd-4c27-94f9-5f11090cf4f2" data-m_impr_j_pvc="monster" data-m_impr_s_search_query="" data-m_impr_s_t="RE_EXP6b_JSJ_CR" data-m_impr_uuid="29957a06-67ed-48e9-a3e1-5e0a43fa5084" href="http://jobview.monster.com/Senior-Reporting-Analyst-Multiple-Locations-Job-Phoenix-AZ-US-182809368.aspx?intcid=js" onclick="jobClick(this, \'http://jobview.monster.com/Senior-Reporting-Analyst-Multiple-Locations-Job-Phoenix-AZ-US-182809368.aspx?intcid=js\', \'newjobsprodseekerus\', \'click on jobview from jobview\')" rel="nofollow" target="_blank" title="View This Job: Senior Reporting Analyst - Multiple Locations">\n             Senior Reporting Analyst - Multiple Locations\n            </a>\n            <div class="location small text-muted">\n             UnitedHealth Group, Phoenix - AZ\n            </div>\n           </li>\n          </ul>\n          <!-- jrs-job=212782385&amp;count=6 -->\n         </div>\n        </div>\n        <div>\n         <h5>\n          More\n         </h5>\n         <a href="http://www.monster.com/jobs/search/?client=power&amp;q=IT/Software Development&amp;where=Bismarck , ND&amp;intcid=more_jobs_category_location" title="See all IT/Software Development jobs in Bismarck, ND">\n          See all IT/Software Development jobs in Bismarck, ND\n         </a>\n         <br/>\n         <a href="http://www.monster.com/jobs/search/?client=power&amp;q=General/Other: IT/Software Development&amp;intcid=more_jobs_occupation" title="See all General/Other: IT/Software Development jobs">\n          See all General/Other: IT/Software Development jobs\n         </a>\n         <br/>\n         <a class="aut-city-search" href="http://www.monster.com/jobs/search/?client=power&amp;where=Bismarck , ND&amp;intcid=more_jobs_location" title="See all jobs in Bismarck">\n          See all jobs in Bismarck\n         </a>\n        </div>\n       </div>\n       <div class="oasAdsContainer">\n        <div>\n         <!-- 1st Section Begins : Delivery via OAS JX Tag -->\n         <script type="text/javascript">\n          window.MonsterAdds = window.MonsterAdds || {};\r\n\r\n            MonsterAdds.writeScript = function (showMobile) {\r\n                //TODO add mobile test if needed, see AdBlock.cshtml\r\n                document.write("<scr" + "ipt type=\'text/javascript\' src=\'//oas.monster.com/RealMedia/ads/adstream_jx.ads/us.monster.en/aggjobview/1756306904@Right3?size=300x250&site=mons&affiliate=Monster&app=js&oas_pv=no_analytics&fb=0&moc=11904&st=ND&pci=Bismarck&pcy=US&proejc=660&key=IT%2fSoftware+Development&plid=521&pcid=2132&poccid=11904&mesco=1500144001001\'><\\/script>");\r\n            };\r\n\r\n            MonsterAdds.writeScript(true);\n         </script>\n         <!-- 2nd Section Begins : Delivery via OAS NX Tag for non-Javascript Browser -->\n         <noscript>\n          <a href="//oas.monster.com/RealMedia/ads/click_nx.ads/us.monster.en/aggjobview/1980583484@Right3?size=300x250&amp;site=mons&amp;affiliate=Monster&amp;app=js&amp;oas_pv=no_analytics&amp;fb=0&amp;moc=11904&amp;st=ND&amp;pci=Bismarck&amp;pcy=US&amp;proejc=660&amp;key=IT%2fSoftware+Development&amp;plid=521&amp;pcid=2132&amp;poccid=11904&amp;mesco=1500144001001">\n           <img src="//oas.monster.com/RealMedia/ads/click_nx.ads/us.monster.en/aggjobview/12049164394@Right3?size=300x250&amp;site=mons&amp;affiliate=Monster&amp;app=js&amp;oas_pv=no_analytics&amp;fb=0&amp;moc=11904&amp;st=ND&amp;pci=Bismarck&amp;pcy=US&amp;proejc=660&amp;key=IT%2fSoftware+Development&amp;plid=521&amp;pcid=2132&amp;poccid=11904&amp;mesco=1500144001001"/>\n          </a>\n         </noscript>\n        </div>\n       </div>\n      </div>\n      <div class="hidden-xs affix-fix">\n      </div>\n     </div>\n    </div>\n    <!-- ./row -->\n    <div class="modal fade" id="subscriptionModal">\n     <div class="modal-dialog">\n      <div class="modal-content">\n       <div class="modal-body">\n        <div class="email-collection promoted">\n         <div class="icon">\n         </div>\n         <h4 class="title">\n          Get new similar jobs by email for\n         </h4>\n         <p class="desc">\n          Business Intelligence Consulting and Services (Job ID : 110.7-17-001)\n         </p>\n         <form action="" aria-hidden="true" class="email-jvsub-collection" data-id="a2affe42-8096-4b05-9975-e31e4c426c3f" data-remote-subscribe="/LiteReg/JobViewSubscription" data-remote-validation="/LiteReg/IsEmailValid" id="modalForm" method="POST">\n          <div class="row-flex">\n           <div class="col-flex stretch">\n            <input class="form-control input-sm" id="emailAddress" name="emailAddress" placeholder="Please enter your email" type="email"/>\n           </div>\n           <div class="col-flex">\n            <a class="btn btn-sm btn-primary btn-jobsdotcom" data-action="modal-subscription" data-form-selector=".email-jvsub-collection" href="#" rel="nofollow" role="button">\n             Email me jobs\n            </a>\n           </div>\n           <div class="col-flex">\n            <a class="btn btn-link btn-sm" href="#" id="cancelModal">\n             Skip\n            </a>\n           </div>\n          </div>\n         </form>\n        </div>\n       </div>\n       <div class="modal-footer">\n        <span class="help-block small">\n         By continuing you agree to Monster\'s\n         <a href="http://my.monster.com/Privacy/Default.aspx" target="_blank" title="Privacy Policy">\n          Privacy Policy\n         </a>\n         ,\n         <a href="http://my.monster.com/Terms/Default.aspx" target="_blank" title="Terms of Use">\n          Terms of Use\n         </a>\n         and\n         <a href="http://inside.monster.com/cookie-info/inside2.aspx" target="_blank" title="use of cookies">\n          use of cookies\n         </a>\n         .\n        </span>\n       </div>\n       <div class="help-block small alert-success" style="display: none;">\n        You will start receiving jobs like this emailed to: {emailaddress}\n       </div>\n      </div>\n      <!-- /.modal-content -->\n     </div>\n     <!-- /.modal-dialog -->\n    </div>\n    <!-- /.modal -->\n    <script id="ApplySubscriptionThankYou" type="text/template">\n     <p><b>Thank you for applying for:</b><br />Business Intelligence Consulting and Services (Job ID : 110.7-17-001) in Bismarck, ND</p>\r\n        <p class="text-muted">To check your full apply history, <a href=https://login20.monster.com>log in</a> or <a href=http://my.monster.com/Become-Member/Create-Account>create an account.</a></p>\n    </script>\n    <script type="text/javascript">\n     var script = document.createElement("script");\r\n    script.type = "text/javascript";\r\n    script.async = true;\r\n    script.src = "//nexus.ensighten.com/monster/Bootstrap.js";\r\n    document.head.appendChild(script);\n    </script>\n   </div>\n   <footer class="page-footer">\n    <div class="container">\n     <div class="row">\n      <div class="col-md-12">\n       <!-- Copyright info -->\n       <p class="copy">\n        Copyright \xc2\xa9 2015 |\n        <a href="http://www.monster.com">\n         Monster Worldwide\n        </a>\n       </p>\n      </div>\n     </div>\n    </div>\n   </footer>\n   <script src="/js/jobviewjs?v=Qp96d4MjGz4yVpoQyg3bu08SRTYnAxoYIMyQbxHelEg1">\n   </script>\n   <!--tracking script-->\n   <script src="http://logs.jobs.com/impression_trackingv2.js" type="text/javascript">\n   </script>\n   <script type="text/javascript">\n    monster.controls.add("monster.jv.base.tracking", {"cloudApiDomain":"logs.jobs.com"});\n   </script>\n   <script type="text/javascript">\n    monster.controls.add("monster.jv.base.jobview", {});\n   </script>\n   <script type="text/javascript">\n    monster.controls.add("monster.jv.base.subscription", {});\n   </script>\n   <script type="text/javascript">\n    monster.controls.add("monster.jv.base.subscriptionModal", {});\n   </script>\n   <script type="text/javascript">\n    monster.controls.add("monster.jv.base.banner", {});\n   </script>\n   <script type="text/javascript">\n    monster.controls.add("monster.jv.base.tooltip", {});\n   </script>\n  </div>\n  <!-- Google Analytics Script Start -->\n  <script>\n   (function (i, s, o, g, r, a, m) {\r\n            i[\'GoogleAnalyticsObject\'] = r; i[r] = i[r] || function () {\r\n                (i[r].q = i[r].q || []).push(arguments)\r\n            }, i[r].l = 1 * new Date(); a = s.createElement(o),\r\n            m = s.getElementsByTagName(o)[0]; a.async = 1; a.src = g; m.parentNode.insertBefore(a, m)\r\n        })(window, document, \'script\', \'//www.google-analytics.com/analytics.js\', \'ga\');\r\n\r\n        ga(\'create\', \'UA-41898665-3\', \'jobs.com\');\r\n        ga(\'send\', \'pageview\');\n  </script>\n  <!--Google Analytics Script End -->\n  <script type="text/javascript">\n   monster.eventBus.pub(monster.Events.PAGE_LOAD);\n  </script>\n  <!-- Site Catalyst Start -->\n  <script src="http://media.newjobs.com/js/global/at_1.5.js" type="text/javascript">\n  </script>\n  <script type="text/javascript">\n   var DYNAMIC_S_ACCOUNT = \'newjobsProdseekerUS\';\r\n    var DYNAMIC_S_CURRENCYCODE = \'USD\';\r\n    //<![CDATA[\r\n    var amc = amc || {}; if (!amc.on) { amc.on = amc.call = function () { }; };\r\n    document.write("<scr" + "ipt type=\'text/javascript\' src=\'//media.monster.com/js/sc/sitecatalystLL.js\'></sc" + "ript>");\r\n    //]]>\r\n\r\n    _m.ATM.properties = {"channel":"58","eVar1":"D=g","prop1":"D=g","eVar4":"0","eVar2":"unrecognized","prop22":"N/A-Cloud","prop23":"N/A-Cloud","prop24":"1/1/0001","prop25":"N/A-Cloud","prop26":"N/A-Cloud","eVar25":"a2affe42-8096-4b05-9975-e31e4c426c3f_Business Intelligence Consulting and Services (Job ID : 110.7-17-001)","eVar26":"Unspecified_Computer Consultants International, Inc.","eVar27":"N/A-Cloud","eVar28":"IT/Software Development","eVar29":"N/A-Cloud","eVar30":"General/Other: IT/Software Development","eVar31":"Bismarck_ND_US","eVar32":"N/A-Cloud","eVar33":"N/A-Cloud","eVar35":"Computer Consultants International, Inc.","eVar36":"App_Cstm","eVar37":"N/A-Cloud","eVar38":"R/L-Apply","eVar47":"8899","eVar50":"Aggregated","eVar53":"1500144001001","eVar64":"142857","eVar66":"Monster","events.event3":"1","events.event30":"true","events.event42":"1","eVar61":"Group C JS - newconfirmation.aspx"};\r\n    _m.ATM.pageName = \'desktop|mons|jobs30|jobview\';\r\n    _m.ATM.appConfig = {version:\'0\',appID:\'jobviewcloud\',channelID:\'58\',countryID:\'164\'};\r\n    _m.ATM.runOnLoad=true;\r\n\r\n    $(document).ready(_m.ATM.initFromOnReady);\n  </script>\n  <!-- Site Catalyst End -->\n </body>\n</html>'
tp2
a(S'http://job-openings.monster.com/monster/3d424abe-3cfd-4e80-bc1b-12ec521f9d13'
p3
S'<!DOCTYPE html>\n<!--[if lt IE 7]>      <html class="no-js lt-ie9 lt-ie8 lt-ie7"> <![endif]-->\n<!--[if IE 7]>         <html class="no-js lt-ie9 lt-ie8"> <![endif]-->\n<!--[if IE 8]>         <html class="no-js lt-ie9"> <![endif]-->\n<!--[if gt IE 8]><!-->\n<html class="no-js">\n <!--<![endif]-->\n <head>\n  <title>\n   HPC Systems Administrator - NDSU Division of Continuing Education | Jobs.com\n  </title>\n  <meta charset="utf-8"/>\n  <meta content="IE=edge,chrome=1" http-equiv="X-UA-Compatible"/>\n  <meta content="text/html; charset=utf-8" http-equiv="Content-Type"/>\n  <meta content="width=device-width, initial-scale=1.0" name="viewport"/>\n  <meta content="NDSU Division of Continuing Education - Fargo, ND. CCAST has an opening for an experienced linux systems administrator to work" name="description"/>\n  <link href="http://plus.monster.com/+monster" rel="publisher"/>\n  <link href="https://maxcdn.bootstrapcdn.com/bootstrap/3.2.0/css/bootstrap.min.css" rel="stylesheet"/>\n  <link href="https://maxcdn.bootstrapcdn.com/font-awesome/4.2.0/css/font-awesome.min.css" rel="stylesheet"/>\n  <link href="/bundles/monster?v=3VUpvWSKWfcSTe2LCMpXVIfzIyGEJcLvPJMZUFZH8gg1" rel="stylesheet"/>\n  <!-- Favicon -->\n  <link href="http://media.newjobs.com/niche/img/favicon/favicon.ico" rel="shortcut icon"/>\n  <meta content="noindex, nofollow" name="robots"/>\n  <meta content="Monster" name="m_impr.a_affiliate_id"/>\n  <meta content="jobview" name="_ac.page_name"/>\n  <!-- Le HTML5 shim, for IE6-8 support of HTML5 elements -->\n  <!--[if lt IE 9]>\r\n    <script src="/scripts/third_party/html5shiv.js"></script>\r\n    <script src="/scripts/bootstrap/respond.min.js" type="text/javascript"></script>\r\n\r\n    <script type="text/javascript">\r\n        if (!Array.prototype.forEach) {\r\n            Array.prototype.forEach = function (fun /*, thisArg */) {\r\n                "use strict";\r\n                if (this === void 0 || this === null || typeof fun !== "function") throw new TypeError();\r\n\r\n                var\r\n                    t = Object(this),\r\n                    len = t.length >>> 0,\r\n                    thisArg = arguments.length >= 2 ? arguments[1] : void 0;\r\n\r\n                for (var i = 0; i < len; i++)\r\n                    if (i in t)\r\n                        fun.call(thisArg, t[i], i, t);\r\n            };\r\n        }\r\n    </script>\r\n<![endif]-->\n </head>\n <body>\n  <div class="page">\n   <div class="navbar navbar-default navbar-fixed-top">\n    <div class="container">\n     <!--<div class="container">-->\n     <div class="navbar-header" itemscope="" itemtype="http://schema.org/Organization">\n      <a class="navbar-brand" href="http://www.monster.com" itemprop="url">\n       <img alt="monster.com" itemprop="logo" src="/Areas/JobViewCloud/content/images/monster-new.png" title="monster.com"/>\n      </a>\n     </div>\n     <!-- large screen navbar-collapse location -->\n     <div class="navbar-collapse collapse hidden-xs">\n     </div>\n     <!--/.navbar-collapse -->\n    </div>\n    <!-- ./container -->\n   </div>\n   <!-- ./navbar -->\n   <div class="jobview container">\n    <div class="row">\n     <input id="normalized-company-id" type="hidden" value="71047"/>\n     <div class="col-xs-12 col-sm-6 col-md-8 col-lg-8">\n      <article id="jobview">\n       <header class="jobview-header">\n        <h3>\n         HPC Systems Administrator\n        </h3>\n        <h4 class="company">\n         NDSU Division of Continuing Education\n         <small class="location">\n          -\n          <i class="fa fa-map-marker">\n          </i>\n          Fargo, ND 58102\n         </small>\n        </h4>\n        <span class="postedDate">\n         <strong>\n          Posted:\n         </strong>\n         3/5/2017\n        </span>\n       </header>\n       <!-- ./jobview-header -->\n       <div class="jobview-upper-apply-mobile visible-xs row">\n        <div class="col-sm-6">\n         <div class="action-buttons">\n          <input id="trackInfo" type="hidden" value=\'{"emailAddress":"","postingId":"3d424abe-3cfd-4e80-bc1b-12ec521f9d13","placementID":null,"jobPosition":0,"uniqueUser":null,"affiliate":"Monster","technology":null}\'/>\n          <a class="btn btn-sm btn-primary btn-jobsdotcom" data-action="apply" data-applyurl="http://jobs.ndsu.edu/postings/8092" data-atm-id="35" data-confurl="http://job-openings.monster.com/monster/confirmation?postingid=3d424abe-3cfd-4e80-bc1b-12ec521f9d13" data-form-selector=".email-collection" href="http://job-openings.monster.com/monster/confirmation?postingid=3d424abe-3cfd-4e80-bc1b-12ec521f9d13" rel="nofollow" role="button">\n           Apply Now\n          </a>\n          <form action="http://jobs.ndsu.edu/postings/8092" aria-hidden="true" class="email-collection hidden panel panel-default" data-id="3d424abe-3cfd-4e80-bc1b-12ec521f9d13" data-lrtype="B" data-placement="Left-Bottom-Body" data-position="0" data-remote-subscription="/LiteReg/ApplySubscription" data-remote-validation="/LiteReg/IsEmailValid" data-technology="" method="POST" target="_blank">\n           <div class="panel-body">\n            <div class="row-flex">\n             <div class="col-flex stretch">\n              <input class="form-control input-sm" id="EmailCollectionField2" name="litRegEmailAddress" placeholder="Please enter your email" type="email"/>\n             </div>\n            </div>\n            <label class="control-label" for="EmailCollectionField2">\n             To begin the application, please enter your email\n            </label>\n            <span class="help-block small">\n             By continuing you agree to Monster\'s\n             <a href="http://my.monster.com/Privacy/Default.aspx" target="_blank" title="Privacy Policy">\n              Privacy Policy\n             </a>\n             ,\n             <a href="http://my.monster.com/Terms/Default.aspx" target="_blank" title="Terms of Use">\n              Terms of Use\n             </a>\n             and\n             <a href="http://inside.monster.com/cookie-info/inside2.aspx" target="_blank" title="use of cookies">\n              use of cookies\n             </a>\n             .\n            </span>\n            <button class="sr-only" type="submit">\n             Continue application\n            </button>\n           </div>\n          </form>\n         </div>\n        </div>\n       </div>\n       <div class="jobview-section">\n        CCAST has an opening for an experienced linux systems administrator to work on high-performance computing (HPC) platforms. HPC experience a plus but not required - we will train. CCAST is a research unit within the Office of Research and Creative Activities and is located in the state-of-the-art NDSU Research and Technology Park. CCAST provides supercomputing infrastructure for the entire University as well as conducts research in the areas of materials science, energy conversion, bio and health informatics, data science and in other areas of state and national priority.\n        <br/>\n        <br/>\n        Responsibilities include:\n        <br/>\n        <br/>\n        * Plan, design, install, test, benchmark, monitor, and maintain complex high-performance computing, storage, and networking equipment within a scientific research environment\n        <br/>\n        <br/>\n        * Install and maintain operating systems, compilers, schedulers, batch systems, file systems, backup/restore systems, vendor and other software infrastructure typically found on high-performance computing platforms\n        <br/>\n        <br/>\n        * Port and write system management tools\n        <br/>\n        <br/>\n        * Help identify, research, and select state-of-the-art hardware and software technologies, including virtualization and cloud computing, to support CCAST strategic directions\n        <br/>\n        <br/>\n        * Engage in day-to-day operations of CCAST primary data center; champion and apply data center best practices\n        <br/>\n        <br/>\n        * Help formulate systems use policies, clearly communicate them to clients, and enforce them in a consistent manner\n        <br/>\n        <br/>\n        * Help establish methodologies to consolidate hardware and software resources and increase systems utilization\n        <br/>\n        <br/>\n        * Ensure proper research data lifecycle management\n        <br/>\n        <br/>\n        * Provision on-demand hardware and software support for class instruction\n        <br/>\n        <br/>\n        * Maintain security of all CCAST systems\n        <br/>\n        <br/>\n        * Analyze, tune, and optimize CCAST systems\xe2\x80\x99 performance\n        <br/>\n        <br/>\n        * Compile, install and maintain application software and license servers; write job submission and data movement/analysis scripts for customers\n        <br/>\n        <br/>\n        * Develop in-house software for systems usage monitoring, statistics gathering, and accounting\n        <br/>\n        <br/>\n        * Monitor systems, diagnose problems quickly and respond promptly\n        <br/>\n        <br/>\n        * Develop documentation describing systems administration procedures and workflows using knowledge management tools\n        <br/>\n        <br/>\n        * Actively participate in various tiers of customer support including ticket troubleshooting and resolution\n        <br/>\n        <br/>\n        * Provide user training and reference materials for using applications; participate in outreach activities\n        <br/>\n        <br/>\n        * Help develop and maintain CCAST website\n        <br/>\n        <br/>\n        * Prepare reports, presentations, and assist in writing sections of grant proposals\n        <br/>\n        <br/>\n        * Participate in relationships with information technology firms and computer equipment vendors\n        <br/>\n        <br/>\n        * Provide exceptional customer service to all constituents\n        <br/>\n        <br/>\n        * Train, coach, develop, and supervise student employees\n        <br/>\n        <br/>\n        * Participate in 24x7 on call rotation\n        <br/>\n        <br/>\n        * Perform other tasks as assigned by the Technology Manager \xe2\x80\x93 CCAST HPC Systems and/or by the CCAST Director\n       </div>\n       <!-- ./jobview-section -->\n       <div class="hidden-xs jobview-footer row">\n        <div class="col-sm-6">\n         <div class="action-buttons">\n          <input id="trackInfo" type="hidden" value=\'{"emailAddress":"","postingId":"3d424abe-3cfd-4e80-bc1b-12ec521f9d13","placementID":null,"jobPosition":0,"uniqueUser":null,"affiliate":"Monster","technology":null}\'/>\n          <a class="btn btn-sm btn-primary btn-jobsdotcom" data-action="apply" data-applyurl="http://jobs.ndsu.edu/postings/8092" data-atm-id="35" data-confurl="http://job-openings.monster.com/monster/confirmation?postingid=3d424abe-3cfd-4e80-bc1b-12ec521f9d13" data-form-selector=".email-collection" href="http://job-openings.monster.com/monster/confirmation?postingid=3d424abe-3cfd-4e80-bc1b-12ec521f9d13" rel="nofollow" role="button">\n           Apply Now\n          </a>\n          <form action="http://jobs.ndsu.edu/postings/8092" aria-hidden="true" class="email-collection hidden panel panel-default" data-id="3d424abe-3cfd-4e80-bc1b-12ec521f9d13" data-lrtype="B" data-placement="Left-Bottom-Body" data-position="0" data-remote-subscription="/LiteReg/ApplySubscription" data-remote-validation="/LiteReg/IsEmailValid" data-technology="" method="POST" target="_blank">\n           <div class="panel-body">\n            <div class="row-flex">\n             <div class="col-flex stretch">\n              <input class="form-control input-sm" id="EmailCollectionField2" name="litRegEmailAddress" placeholder="Please enter your email" type="email"/>\n             </div>\n            </div>\n            <label class="control-label" for="EmailCollectionField2">\n             To begin the application, please enter your email\n            </label>\n            <span class="help-block small">\n             By continuing you agree to Monster\'s\n             <a href="http://my.monster.com/Privacy/Default.aspx" target="_blank" title="Privacy Policy">\n              Privacy Policy\n             </a>\n             ,\n             <a href="http://my.monster.com/Terms/Default.aspx" target="_blank" title="Terms of Use">\n              Terms of Use\n             </a>\n             and\n             <a href="http://inside.monster.com/cookie-info/inside2.aspx" target="_blank" title="use of cookies">\n              use of cookies\n             </a>\n             .\n            </span>\n            <button class="sr-only" type="submit">\n             Continue application\n            </button>\n           </div>\n          </form>\n         </div>\n        </div>\n       </div>\n       <!-- ./jobview-footer -->\n      </article>\n      <!-- ./#jobview -->\n     </div>\n     <div class="col-xs-12 col-sm-6 col-md-4 col-lg-4">\n      <div class="jobview-affix">\n       <div style="background-color: #fff;">\n        <input id="trackInfo" type="hidden" value=\'{"emailAddress":"","postingId":"3d424abe-3cfd-4e80-bc1b-12ec521f9d13","placementID":null,"jobPosition":0,"uniqueUser":null,"affiliate":"Monster","technology":null}\'/>\n        <form action="http://jobs.ndsu.edu/postings/8092" aria-hidden="true" class="email-collection hidden" data-id="3d424abe-3cfd-4e80-bc1b-12ec521f9d13" data-lrtype="R" data-placement="Right-Top-Rail" data-position="0" data-remote-subscription="/LiteReg/ApplySubscription" data-remote-validation="/LiteReg/IsEmailValid" data-technology="" method="POST" target="_blank">\n         <div class="form-group">\n          <label class="control-label" for="EmailCollectionField1">\n           To begin the application, please enter your email\n          </label>\n          <input class="form-control input-sm" id="EmailCollectionField1" name="litRegEmailAddress" placeholder="Please enter your email" type="email"/>\n         </div>\n         <span class="help-block small">\n          By continuing you agree to Monster\'s\n          <a href="http://my.monster.com/Privacy/Default.aspx" target="_blank" title="Privacy Policy">\n           Privacy Policy\n          </a>\n          ,\n          <a href="http://my.monster.com/Terms/Default.aspx" target="_blank" title="Terms of Use">\n           Terms of Use\n          </a>\n          and\n          <a href="http://inside.monster.com/cookie-info/inside2.aspx" target="_blank" title="use of cookies">\n           use of cookies\n          </a>\n          .\n         </span>\n         <button class="sr-only" type="submit">\n          Continue application\n         </button>\n        </form>\n        <a class="btn btn-sm btn-primary btn-block btn-jobsdotcom" data-action="apply" data-applyurl="http://jobs.ndsu.edu/postings/8092" data-atm-id="36" data-confurl="http://job-openings.monster.com/monster/confirmation?postingid=3d424abe-3cfd-4e80-bc1b-12ec521f9d13" data-form-selector=".email-collection" href="http://job-openings.monster.com/monster/confirmation?postingid=3d424abe-3cfd-4e80-bc1b-12ec521f9d13" rel="nofollow" role="button">\n         Apply Now\n        </a>\n        <div class="social-sharing no-logo">\n         <h5>\n          Share this Job\n         </h5>\n         <a href="https://www.twitter.com/share?url=%20&amp;text=HPC+Systems+Administrator at NDSU+Division+of+Continuing+Education http://job-openings.monster.com/monster/3d424abe-3cfd-4e80-bc1b-12ec521f9d13 via @monster" target="_blank" title="Share this job on Twitter">\n          <i class="fa fa-2x fa-twitter" style="margin: 0 4px;">\n          </i>\n         </a>\n         <a href="https://plus.google.com/share?url=http://job-openings.monster.com/monster/3d424abe-3cfd-4e80-bc1b-12ec521f9d13" target="_blank" title="Share this job on Google+">\n          <i class="fa fa-2x fa-google-plus" style="margin: 0 4px;">\n          </i>\n         </a>\n         <a href="mailto: ?subject=HPC Systems Administrator - NDSU Division of Continuing Education | Monster.com&amp;body=NDSU Division of Continuing Education http://job-openings.monster.com/monster/3d424abe-3cfd-4e80-bc1b-12ec521f9d13" title="Share this job via Email">\n          <i class="fa fa-2x fa-envelope-o" style="margin: 0 4px;">\n          </i>\n         </a>\n        </div>\n       </div>\n       <div>\n        <div class="jobview-related-jobs" id="relatedJobs">\n         <div class="related-job-container">\n          <h5>\n           Related Jobs\n          </h5>\n          <ul class="list-unstyled">\n           <li>\n            <a class="cloudJobs" data-m_impr_a_placement_id="rjv1" data-m_impr_j_cid="555" data-m_impr_j_coc="xanguardx " data-m_impr_j_jawsid="229283889" data-m_impr_j_jobid="182863952" data-m_impr_j_jpm="1" data-m_impr_j_jpt="1" data-m_impr_j_lat="0" data-m_impr_j_lid="522" data-m_impr_j_long="0" data-m_impr_j_occid="0" data-m_impr_j_p="1" data-m_impr_j_postingid="0ebca25b-4a83-4d34-b562-6df467cec516" data-m_impr_j_pvc="monster" data-m_impr_s_search_query="" data-m_impr_s_t="RE_EXP6b_JSJ_CR" data-m_impr_uuid="cfd2b713-5ccd-4541-8c18-032430fae297" href="http://jobview.monster.com/25U-Signal-Support-Systems-Specialist-Job-FARGO-ND-US-182863952.aspx?intcid=js" onclick="jobClick(this, \'http://jobview.monster.com/25U-Signal-Support-Systems-Specialist-Job-FARGO-ND-US-182863952.aspx?intcid=js\', \'newjobsprodseekerus\', \'click on jobview from jobview\')" rel="nofollow" target="_blank" title="View This Job: 25U Signal Support Systems Specialist">\n             25U Signal Support Systems Specialist\n            </a>\n            <div class="location small text-muted">\n             Army National Guard, FARGO - ND\n            </div>\n           </li>\n           <li>\n            <a class="cloudJobs" data-m_impr_a_placement_id="rjv1" data-m_impr_j_cid="555" data-m_impr_j_coc="xanguardx " data-m_impr_j_jawsid="229283890" data-m_impr_j_jobid="182863955" data-m_impr_j_jpm="1" data-m_impr_j_jpt="1" data-m_impr_j_lat="0" data-m_impr_j_lid="521" data-m_impr_j_long="0" data-m_impr_j_occid="0" data-m_impr_j_p="2" data-m_impr_j_postingid="b3e66913-6324-40f6-9f22-e11b649a6084" data-m_impr_j_pvc="monster" data-m_impr_s_search_query="" data-m_impr_s_t="RE_EXP6b_JSJ_CR" data-m_impr_uuid="13e078f6-b5b6-4206-91cf-c47147cc4cc5" href="http://jobview.monster.com/25U-Signal-Support-Systems-Specialist-Job-EDGELEY-ND-US-182863955.aspx?intcid=js" onclick="jobClick(this, \'http://jobview.monster.com/25U-Signal-Support-Systems-Specialist-Job-EDGELEY-ND-US-182863955.aspx?intcid=js\', \'newjobsprodseekerus\', \'click on jobview from jobview\')" rel="nofollow" target="_blank" title="View This Job: 25U Signal Support Systems Specialist">\n             25U Signal Support Systems Specialist\n            </a>\n            <div class="location small text-muted">\n             Army National Guard, EDGELEY - ND\n            </div>\n           </li>\n           <li>\n            <a class="cloudJobs" data-m_impr_a_placement_id="rjv1" data-m_impr_j_cid="555" data-m_impr_j_coc="xanguardx " data-m_impr_j_jawsid="229283892" data-m_impr_j_jobid="182863961" data-m_impr_j_jpm="1" data-m_impr_j_jpt="1" data-m_impr_j_lat="0" data-m_impr_j_lid="522" data-m_impr_j_long="0" data-m_impr_j_occid="0" data-m_impr_j_p="3" data-m_impr_j_postingid="092c600c-7052-47be-9801-5ed282efad5a" data-m_impr_j_pvc="monster" data-m_impr_s_search_query="" data-m_impr_s_t="RE_EXP6b_JSJ_CR" data-m_impr_uuid="f49c5ede-9436-4d31-b203-4b6f85282fc9" href="http://jobview.monster.com/25U-Signal-Support-Systems-Specialist-Job-DEVILS-LAKE-ND-US-182863961.aspx?intcid=js" onclick="jobClick(this, \'http://jobview.monster.com/25U-Signal-Support-Systems-Specialist-Job-DEVILS-LAKE-ND-US-182863961.aspx?intcid=js\', \'newjobsprodseekerus\', \'click on jobview from jobview\')" rel="nofollow" target="_blank" title="View This Job: 25U Signal Support Systems Specialist">\n             25U Signal Support Systems Specialist\n            </a>\n            <div class="location small text-muted">\n             Army National Guard, DEVILS LAKE - ND\n            </div>\n           </li>\n           <li>\n            <a class="cloudJobs" data-m_impr_a_placement_id="rjv1" data-m_impr_j_cid="555" data-m_impr_j_coc="xanguardx " data-m_impr_j_jawsid="229283891" data-m_impr_j_jobid="182863958" data-m_impr_j_jpm="1" data-m_impr_j_jpt="1" data-m_impr_j_lat="0" data-m_impr_j_lid="523" data-m_impr_j_long="0" data-m_impr_j_occid="0" data-m_impr_j_p="4" data-m_impr_j_postingid="4fd60f7b-b37f-415d-9570-0d3607a61fef" data-m_impr_j_pvc="monster" data-m_impr_s_search_query="" data-m_impr_s_t="RE_EXP6b_JSJ_CR" data-m_impr_uuid="3a9babba-cf99-46d1-8f4b-9ce56862fdfb" href="http://jobview.monster.com/25U-Signal-Support-Systems-Specialist-Job-DICKINSON-ND-US-182863958.aspx?intcid=js" onclick="jobClick(this, \'http://jobview.monster.com/25U-Signal-Support-Systems-Specialist-Job-DICKINSON-ND-US-182863958.aspx?intcid=js\', \'newjobsprodseekerus\', \'click on jobview from jobview\')" rel="nofollow" target="_blank" title="View This Job: 25U Signal Support Systems Specialist">\n             25U Signal Support Systems Specialist\n            </a>\n            <div class="location small text-muted">\n             Army National Guard, DICKINSON - ND\n            </div>\n           </li>\n           <li>\n            <a class="cloudJobs" data-m_impr_a_placement_id="rjv1" data-m_impr_j_cid="555" data-m_impr_j_coc="xanguardx " data-m_impr_j_jawsid="229283893" data-m_impr_j_jobid="182863964" data-m_impr_j_jpm="1" data-m_impr_j_jpt="1" data-m_impr_j_lat="0" data-m_impr_j_lid="521" data-m_impr_j_long="0" data-m_impr_j_occid="0" data-m_impr_j_p="5" data-m_impr_j_postingid="12e7f8bd-3dff-4462-a82c-0dc5c1cb2bbe" data-m_impr_j_pvc="monster" data-m_impr_s_search_query="" data-m_impr_s_t="RE_EXP6b_JSJ_CR" data-m_impr_uuid="e4af0e07-990e-4013-9348-74002c52d8e5" href="http://jobview.monster.com/25U-Signal-Support-Systems-Specialist-Job-BISMARCK-ND-US-182863964.aspx?intcid=js" onclick="jobClick(this, \'http://jobview.monster.com/25U-Signal-Support-Systems-Specialist-Job-BISMARCK-ND-US-182863964.aspx?intcid=js\', \'newjobsprodseekerus\', \'click on jobview from jobview\')" rel="nofollow" target="_blank" title="View This Job: 25U Signal Support Systems Specialist">\n             25U Signal Support Systems Specialist\n            </a>\n            <div class="location small text-muted">\n             Army National Guard, BISMARCK - ND\n            </div>\n           </li>\n           <li>\n            <a class="cloudJobs" data-m_impr_a_placement_id="rjv1" data-m_impr_j_cid="555" data-m_impr_j_coc="xanguardx " data-m_impr_j_jawsid="229283887" data-m_impr_j_jobid="182863946" data-m_impr_j_jpm="1" data-m_impr_j_jpt="1" data-m_impr_j_lat="0" data-m_impr_j_lid="522" data-m_impr_j_long="0" data-m_impr_j_occid="0" data-m_impr_j_p="6" data-m_impr_j_postingid="551707e9-5d1d-41b1-89c8-9fe181f84214" data-m_impr_j_pvc="monster" data-m_impr_s_search_query="" data-m_impr_s_t="RE_EXP6b_JSJ_CR" data-m_impr_uuid="df6b6cb6-36cb-4396-90de-0b443d251c4c" href="http://jobview.monster.com/25U-Signal-Support-Systems-Specialist-Job-WAHPETON-ND-US-182863946.aspx?intcid=js" onclick="jobClick(this, \'http://jobview.monster.com/25U-Signal-Support-Systems-Specialist-Job-WAHPETON-ND-US-182863946.aspx?intcid=js\', \'newjobsprodseekerus\', \'click on jobview from jobview\')" rel="nofollow" target="_blank" title="View This Job: 25U Signal Support Systems Specialist">\n             25U Signal Support Systems Specialist\n            </a>\n            <div class="location small text-muted">\n             Army National Guard, WAHPETON - ND\n            </div>\n           </li>\n          </ul>\n          <!-- jrs-job=207649526&amp;count=6 -->\n         </div>\n        </div>\n        <div>\n         <h5>\n          More\n         </h5>\n         <a href="http://www.monster.com/jobs/search/?client=power&amp;q=IT/Software Development&amp;where=Fargo , ND&amp;intcid=more_jobs_category_location" title="See all IT/Software Development jobs in Fargo, ND">\n          See all IT/Software Development jobs in Fargo, ND\n         </a>\n         <br/>\n         <a href="http://www.monster.com/jobs/search/?client=power&amp;q=Network and Server Administration&amp;intcid=more_jobs_occupation" title="See all Network and Server Administration jobs">\n          See all Network and Server Administration jobs\n         </a>\n         <br/>\n         <a class="aut-city-search" href="http://www.monster.com/jobs/search/?client=power&amp;where=Fargo , ND&amp;intcid=more_jobs_location" title="See all jobs in Fargo">\n          See all jobs in Fargo\n         </a>\n        </div>\n       </div>\n       <div class="oasAdsContainer">\n        <div>\n         <!-- 1st Section Begins : Delivery via OAS JX Tag -->\n         <script type="text/javascript">\n          window.MonsterAdds = window.MonsterAdds || {};\r\n\r\n            MonsterAdds.writeScript = function (showMobile) {\r\n                //TODO add mobile test if needed, see AdBlock.cshtml\r\n                document.write("<scr" + "ipt type=\'text/javascript\' src=\'//oas.monster.com/RealMedia/ads/adstream_jx.ads/us.monster.en/aggjobview/11503867177@Right3?size=300x250&site=mons&affiliate=Monster&app=js&oas_pv=no_analytics&fb=0&moc=11882&st=ND&pci=Fargo&pcy=US&proejc=660&key=IT%2fSoftware+Development&plid=522&pcid=3131&poccid=11882&mesco=1500131001001\'><\\/script>");\r\n            };\r\n\r\n            MonsterAdds.writeScript(true);\n         </script>\n         <!-- 2nd Section Begins : Delivery via OAS NX Tag for non-Javascript Browser -->\n         <noscript>\n          <a href="//oas.monster.com/RealMedia/ads/click_nx.ads/us.monster.en/aggjobview/1538091669@Right3?size=300x250&amp;site=mons&amp;affiliate=Monster&amp;app=js&amp;oas_pv=no_analytics&amp;fb=0&amp;moc=11882&amp;st=ND&amp;pci=Fargo&amp;pcy=US&amp;proejc=660&amp;key=IT%2fSoftware+Development&amp;plid=522&amp;pcid=3131&amp;poccid=11882&amp;mesco=1500131001001">\n           <img src="//oas.monster.com/RealMedia/ads/click_nx.ads/us.monster.en/aggjobview/11827426288@Right3?size=300x250&amp;site=mons&amp;affiliate=Monster&amp;app=js&amp;oas_pv=no_analytics&amp;fb=0&amp;moc=11882&amp;st=ND&amp;pci=Fargo&amp;pcy=US&amp;proejc=660&amp;key=IT%2fSoftware+Development&amp;plid=522&amp;pcid=3131&amp;poccid=11882&amp;mesco=1500131001001"/>\n          </a>\n         </noscript>\n        </div>\n       </div>\n      </div>\n      <div class="hidden-xs affix-fix">\n      </div>\n     </div>\n    </div>\n    <!-- ./row -->\n    <div class="modal fade" id="subscriptionModal">\n     <div class="modal-dialog">\n      <div class="modal-content">\n       <div class="modal-body">\n        <div class="email-collection promoted">\n         <div class="icon">\n         </div>\n         <h4 class="title">\n          Get new similar jobs by email for\n         </h4>\n         <p class="desc">\n          HPC Systems Administrator\n         </p>\n         <form action="" aria-hidden="true" class="email-jvsub-collection" data-id="3d424abe-3cfd-4e80-bc1b-12ec521f9d13" data-remote-subscribe="/LiteReg/JobViewSubscription" data-remote-validation="/LiteReg/IsEmailValid" id="modalForm" method="POST">\n          <div class="row-flex">\n           <div class="col-flex stretch">\n            <input class="form-control input-sm" id="emailAddress" name="emailAddress" placeholder="Please enter your email" type="email"/>\n           </div>\n           <div class="col-flex">\n            <a class="btn btn-sm btn-primary btn-jobsdotcom" data-action="modal-subscription" data-form-selector=".email-jvsub-collection" href="#" rel="nofollow" role="button">\n             Email me jobs\n            </a>\n           </div>\n           <div class="col-flex">\n            <a class="btn btn-link btn-sm" href="#" id="cancelModal">\n             Skip\n            </a>\n           </div>\n          </div>\n         </form>\n        </div>\n       </div>\n       <div class="modal-footer">\n        <span class="help-block small">\n         By continuing you agree to Monster\'s\n         <a href="http://my.monster.com/Privacy/Default.aspx" target="_blank" title="Privacy Policy">\n          Privacy Policy\n         </a>\n         ,\n         <a href="http://my.monster.com/Terms/Default.aspx" target="_blank" title="Terms of Use">\n          Terms of Use\n         </a>\n         and\n         <a href="http://inside.monster.com/cookie-info/inside2.aspx" target="_blank" title="use of cookies">\n          use of cookies\n         </a>\n         .\n        </span>\n       </div>\n       <div class="help-block small alert-success" style="display: none;">\n        You will start receiving jobs like this emailed to: {emailaddress}\n       </div>\n      </div>\n      <!-- /.modal-content -->\n     </div>\n     <!-- /.modal-dialog -->\n    </div>\n    <!-- /.modal -->\n    <script id="ApplySubscriptionThankYou" type="text/template">\n     <p><b>Thank you for applying for:</b><br />HPC Systems Administrator in Fargo, ND 58102</p>\r\n        <p class="text-muted">To check your full apply history, <a href=https://login20.monster.com>log in</a> or <a href=http://my.monster.com/Become-Member/Create-Account>create an account.</a></p>\n    </script>\n    <script type="text/javascript">\n     var script = document.createElement("script");\r\n    script.type = "text/javascript";\r\n    script.async = true;\r\n    script.src = "//nexus.ensighten.com/monster/Bootstrap.js";\r\n    document.head.appendChild(script);\n    </script>\n   </div>\n   <footer class="page-footer">\n    <div class="container">\n     <div class="row">\n      <div class="col-md-12">\n       <!-- Copyright info -->\n       <p class="copy">\n        Copyright \xc2\xa9 2015 |\n        <a href="http://www.monster.com">\n         Monster Worldwide\n        </a>\n       </p>\n      </div>\n     </div>\n    </div>\n   </footer>\n   <script src="/js/jobviewjs?v=Qp96d4MjGz4yVpoQyg3bu08SRTYnAxoYIMyQbxHelEg1">\n   </script>\n   <!--tracking script-->\n   <script src="http://logs.jobs.com/impression_trackingv2.js" type="text/javascript">\n   </script>\n   <script type="text/javascript">\n    monster.controls.add("monster.jv.base.tracking", {"cloudApiDomain":"logs.jobs.com"});\n   </script>\n   <script type="text/javascript">\n    monster.controls.add("monster.jv.base.jobview", {});\n   </script>\n   <script type="text/javascript">\n    monster.controls.add("monster.jv.base.subscription", {});\n   </script>\n   <script type="text/javascript">\n    monster.controls.add("monster.jv.base.subscriptionModal", {});\n   </script>\n   <script type="text/javascript">\n    monster.controls.add("monster.jv.base.banner", {});\n   </script>\n   <script type="text/javascript">\n    monster.controls.add("monster.jv.base.tooltip", {});\n   </script>\n  </div>\n  <!-- Google Analytics Script Start -->\n  <script>\n   (function (i, s, o, g, r, a, m) {\r\n            i[\'GoogleAnalyticsObject\'] = r; i[r] = i[r] || function () {\r\n                (i[r].q = i[r].q || []).push(arguments)\r\n            }, i[r].l = 1 * new Date(); a = s.createElement(o),\r\n            m = s.getElementsByTagName(o)[0]; a.async = 1; a.src = g; m.parentNode.insertBefore(a, m)\r\n        })(window, document, \'script\', \'//www.google-analytics.com/analytics.js\', \'ga\');\r\n\r\n        ga(\'create\', \'UA-41898665-3\', \'jobs.com\');\r\n        ga(\'send\', \'pageview\');\n  </script>\n  <!--Google Analytics Script End -->\n  <script type="text/javascript">\n   monster.eventBus.pub(monster.Events.PAGE_LOAD);\n  </script>\n  <!-- Site Catalyst Start -->\n  <script src="http://media.newjobs.com/js/global/at_1.5.js" type="text/javascript">\n  </script>\n  <script type="text/javascript">\n   var DYNAMIC_S_ACCOUNT = \'newjobsProdseekerUS\';\r\n    var DYNAMIC_S_CURRENCYCODE = \'USD\';\r\n    //<![CDATA[\r\n    var amc = amc || {}; if (!amc.on) { amc.on = amc.call = function () { }; };\r\n    document.write("<scr" + "ipt type=\'text/javascript\' src=\'//media.monster.com/js/sc/sitecatalystLL.js\'></sc" + "ript>");\r\n    //]]>\r\n\r\n    _m.ATM.properties = {"channel":"58","eVar1":"D=g","prop1":"D=g","eVar4":"0","eVar2":"unrecognized","prop22":"N/A-Cloud","prop23":"N/A-Cloud","prop24":"1/1/0001","prop25":"N/A-Cloud","prop26":"N/A-Cloud","eVar25":"3d424abe-3cfd-4e80-bc1b-12ec521f9d13_HPC Systems Administrator","eVar26":"d8218c3f_NDSU Division of Continuing Education","eVar27":"N/A-Cloud","eVar28":"IT/Software Development","eVar29":"N/A-Cloud","eVar30":"Network and Server Administration","eVar31":"Fargo_ND_US","eVar32":"N/A-Cloud","eVar33":"N/A-Cloud","eVar35":"NDSU Division of Continuing Education","eVar36":"App_Cstm","eVar37":"N/A-Cloud","eVar38":"R/L-Apply","eVar47":"2","eVar50":"Aggregated","eVar53":"1500131001001","eVar64":"71047","eVar66":"Monster","events.event3":"1","events.event30":"true","events.event42":"1","eVar61":"Group C JS - newconfirmation.aspx"};\r\n    _m.ATM.pageName = \'desktop|mons|jobs30|jobview\';\r\n    _m.ATM.appConfig = {version:\'0\',appID:\'jobviewcloud\',channelID:\'58\',countryID:\'164\'};\r\n    _m.ATM.runOnLoad=true;\r\n\r\n    $(document).ready(_m.ATM.initFromOnReady);\n  </script>\n  <!-- Site Catalyst End -->\n </body>\n</html>'
p4
tp5
a.