(lp1
(S'http://job-openings.monster.com/monster/b9dcc3b6-06dc-42e0-b118-e0e3a844c34c'
p2
S'<!DOCTYPE html>\n<html lang="en" ng-app="BeyondApp">\n <head>\n  <script src="//apis.google.com/js/client.js">\n  </script>\n  <script src="//apis.google.com/js/api.js">\n  </script>\n  <meta charset="utf-8"/>\n  <meta content="width=device-width, initial-scale=1.0" name="viewport"/>\n  <title ng-bind-template="{{getTitle()}}" ng-controller="PageTitleController">\n   Business Analytics Developer Student Job and Related Business Development Sales Intern Jobs in Brookings, SD | Beyond.com\n  </title>\n  <meta content="NOINDEX" name="robots"/>\n  <meta content="Business Analytics Developer Student job and the related Business Development Sales Intern Jobs in Brookings, SD at Beyond.com.  Apply now or search and find the perfect job for you." name="description"/>\n  <link href="//d1rdnyrx5i71py.cloudfront.net/portal/favicon.ico" rel="shortcut icon" type="image/x-icon"/>\n  <link href="//d1rdnyrx5i71py.cloudfront.net/portal/favicon.ico" rel="icon" type="image/x-icon"/>\n  <link href="//d1rdnyrx5i71py.cloudfront.net/portal/apple-touch-icon-57x57.png" rel="apple-touch-icon" sizes="57x57"/>\n  <link href="//d1rdnyrx5i71py.cloudfront.net/portal/apple-touch-icon-60x60.png" rel="apple-touch-icon" sizes="60x60"/>\n  <link href="//d1rdnyrx5i71py.cloudfront.net/portal/apple-touch-icon-72x72.png" rel="apple-touch-icon" sizes="72x72"/>\n  <link href="//d1rdnyrx5i71py.cloudfront.net/portal/apple-touch-icon-76x76.png" rel="apple-touch-icon" sizes="76x76"/>\n  <link href="//d1rdnyrx5i71py.cloudfront.net/portal/apple-touch-icon-114x114.png" rel="apple-touch-icon" sizes="114x114"/>\n  <link href="//d1rdnyrx5i71py.cloudfront.net/portal/apple-touch-icon-120x120.png" rel="apple-touch-icon" sizes="120x120"/>\n  <link href="//d1rdnyrx5i71py.cloudfront.net/portal/apple-touch-icon-144x144.png" rel="apple-touch-icon" sizes="144x144"/>\n  <link href="//d1rdnyrx5i71py.cloudfront.net/portal/apple-touch-icon-152x152.png" rel="apple-touch-icon" sizes="152x152"/>\n  <link href="//d1rdnyrx5i71py.cloudfront.net/portal/apple-touch-icon-180x180.png" rel="apple-touch-icon" sizes="180x180"/>\n  <link href="//d1rdnyrx5i71py.cloudfront.net/portal/favicon-32x32.png" rel="icon" sizes="32x32" type="image/png"/>\n  <link href="//d1rdnyrx5i71py.cloudfront.net/portal/android-chrome-192x192.png" rel="icon" sizes="192x192" type="image/png"/>\n  <link href="//d1rdnyrx5i71py.cloudfront.net/portal/favicon-96x96.png" rel="icon" sizes="96x96" type="image/png"/>\n  <link href="//d1rdnyrx5i71py.cloudfront.net/portal/favicon-16x16.png" rel="icon" sizes="16x16" type="image/png"/>\n  <link href="//d1rdnyrx5i71py.cloudfront.net/portal/manifest.json" rel="manifest"/>\n  <meta content="Beyond" name="apple-mobile-web-app-title"/>\n  <meta content="Beyond" name="application-name"/>\n  <meta content="#da532c" name="msapplication-TileColor"/>\n  <meta content="https://d1rdnyrx5i71py.cloudfront.net/portal/mstile-144x144.png" name="msapplication-TileImage"/>\n  <meta content="#ffffff" name="theme-color"/>\n  <link href="/jobs/search/rss?k=Business%20Development%20Sales%20Intern&amp;l=Brookings%2C%20SD&amp;ps=20&amp;said=4&amp;bda=1" rel="alternate" title="Business Development Sales Intern Jobs in Brookings, SD" type="application/rss+xml"/>\n  <link href="//dnpzj64zylsa.cloudfront.net/App_Bundles/Shared/Responsive/Layout-blue.min.css?v=20170301133039000" rel="stylesheet" type="text/css"/>\n  <link href="//dnpzj64zylsa.cloudfront.net/App_Bundles/Areas/Jobs/SearchIndexCards.Responsive.min.css?v=20170327163655000" rel="stylesheet" type="text/css"/>\n  <link href="//dnpzj64zylsa.cloudfront.net/App_Sprites/Areas/Jobs/Search-Index/highCompat-8wvfIUaKVczNMXXgMf2vvA2.css" media="all" rel="stylesheet" type="text/css"/>\n  <!-- Le HTML5 shim, for IE6-8 support of HTML elements -->\n  <!--[if lt IE 9]>\r\n          <script src="//html5shim.googlecode.com/svn/trunk/html5.js"></script>\r\n        <![endif]-->\n  <!--[if IE]>\r\n            <link rel="stylesheet" type="text/css" href="//dnpzj64zylsa.cloudfront.net/Content/jquery-ui-bootstrap/jquery.ui.1.8.16.ie.css"/>\r\n        <![endif]-->\n  <!-- LIQWID ADS -->\n  <script type="text/javascript">\n   (function() {var s=document.createElement(\'script\'); s.type=\'text/javascript\'; s.async=true; s.src=\'//www.liqwid.net/?key=18EF-47B5-4BAF-66A4\';var x=document.getElementsByTagName(\'script\')[0];x.parentNode.insertBefore(s,x);})();\n  </script>\n  <!-- END OF LIQWID ADS -->\n  <link href="//dnpzj64zylsa.cloudfront.net/App_Sprites/Shared/Responsive/highCompat-uj0JzAJg0B2Oz-FHdwXYVg2.css" media="all" rel="stylesheet" type="text/css"/>\n  <!-- HTML5 shim and Respond.js IE8 support of HTML5 elements and media queries -->\n  <!--[if lt IE 9]>\r\n          <script src="https://oss.maxcdn.com/libs/html5shiv/3.7.0/html5shiv.js"></script>\r\n          <script src="https://oss.maxcdn.com/libs/respond.js/1.3.0/respond.min.js"></script>\r\n        <![endif]-->\n  <link href="//fonts.googleapis.com/css?family=Oswald:300,400,700" rel="stylesheet" type="text/css"/>\n  <script type="text/javascript">\n   window.heap = window.heap || [], heap.load = function (e, t) { window.heap.appid = e, window.heap.config = t = t || {}; var r = t.forceSSL || "https:" === document.location.protocol, a = document.createElement("script"); a.type = "text/javascript", a.async = !0, a.src = (r ? "https:" : "http:") + "//cdn.heapanalytics.com/js/heap-" + e + ".js"; var n = document.getElementsByTagName("script")[0]; n.parentNode.insertBefore(a, n); for (var o = function (e) { return function () { heap.push([e].concat(Array.prototype.slice.call(arguments, 0))) } }, p = ["addEventProperties", "addUserProperties", "clearEventProperties", "identify", "removeEventProperty", "setEventProperties", "track", "unsetEventProperty"], c = 0; c < p.length; c++) heap[p[c]] = o(p[c]) };\r\n    heap.load("261324032");\n  </script>\n </head>\n <body class="unknown unknown0 template10 " data-adurl="https://data.beyond.com/content/ByZoneAliasList?s_resulttypecode=addwzn&amp;s_membershiptypeidlist=20004&amp;s_siteidlist=716124&amp;s_sitegroupidlist=344072&amp;t_pgid=831121225717499184&amp;t_sn=%2fjobs%2fsearch&amp;t_httph=www.beyond.com&amp;t_httpurl=%2fjobs%2fsearch&amp;t_httpua=python-requests%2f2.12.4&amp;t_httpqs=id%3d436640745%26fjda%3d1&amp;t_sgid=134421131261431485&amp;t_ws=COLO-WFE14&amp;t_ugid=891151316188411412&amp;t_bot=N&amp;t_i1=174&amp;t_asid=F8BC5BFB-39A1-434F-A7DB-C2790BA168DE&amp;t_uguid=93933155-EF1D-4F7F-BE53-DE772B1A1D58&amp;t_sguid=02E781FE-7E41-4894-8869-4903993238A1&amp;t_nus=0&amp;r_sitepath=https%3a%2f%2fwww.beyond.com&amp;r_keywords=Business+Development+Sales+Intern&amp;r_partnerid=716124&amp;r_partnersitename=Beyond.com&amp;f_ip=155.69.149.29" data-approot="//dnpzj64zylsa.cloudfront.net/" data-autocompleteenabled="" data-pagetrackingurl="https://data.beyond.com/t/t.aspx?parid=716124&amp;umbid=344072&amp;esid=1&amp;ugid=891151316188411412&amp;sgid=134421131261431485&amp;pgid=831121225717499184&amp;asid=F8BC5BFB-39A1-434F-A7DB-C2790BA168DE&amp;ws=COLO-WFE14&amp;uguid=93933155-EF1D-4F7F-BE53-DE772B1A1D58&amp;sguid=02E781FE-7E41-4894-8869-4903993238A1&amp;nus=0&amp;i1=174&amp;ttid=1&amp;tcid=96&amp;noc=4%2f19%2f2017+8%3a24%3a29+AM&amp;httpqs=id%3d436640745%26fjda%3d1&amp;httph=www.beyond.com&amp;hd=www.beyond.com&amp;ip=155.69.149.29&amp;httpua=python-requests%2f2.12.4&amp;sn=%2fjobs%2fsearch&amp;httpurl=%2fjobs%2fsearch" data-theme="blue" data-trackingurl="/t?tcid=99&amp;ttid=6&amp;src=F99&amp;parid=716124&amp;umbid=344072&amp;esid=1&amp;ugid=891151316188411412&amp;sgid=134421131261431485&amp;pgid=831121225717499184&amp;asid=F8BC5BFB-39A1-434F-A7DB-C2790BA168DE&amp;ws=COLO-WFE14&amp;uguid=93933155-EF1D-4F7F-BE53-DE772B1A1D58&amp;sguid=02E781FE-7E41-4894-8869-4903993238A1&amp;nus=0&amp;i1=174&amp;noc=4%2f19%2f2017+8%3a24%3a29+AM&amp;httpqs=id%3d436640745%26fjda%3d1&amp;httph=www.beyond.com&amp;hd=www.beyond.com&amp;ip=155.69.149.29&amp;httpua=python-requests%2f2.12.4&amp;sn=%2fjobs%2fsearch&amp;httpurl=%2fjobs%2fsearch" id="body" itemscope="" itemtype="http://schema.org/WebPage">\n  <meta content="2017-04-19T03:30:02.2800000" itemprop="dateModified"/>\n  <span itemprop="contentLocation" itemscope="" itemtype="http://schema.org/Place">\n   <span itemprop="address" itemscope="" itemtype="http://schema.org/PostalAddress">\n    <meta content="Brookings" itemprop="addressLocality"/>\n    <meta content="SD" itemprop="addressRegion"/>\n    <meta content="US" itemprop="addressCountry"/>\n   </span>\n  </span>\n  <header class="ng-cloak" ng-cloak="" role="banner">\n   <nav class="navbar navbar-default navbar-fixed-top " role="navigation">\n    <div class="container">\n     <div class="navbar-header">\n      <a class="navbar-toggle" data-target="#TopNav" data-toggle="collapse" href="javascript:void(0)" ng-click="selectedTopNav=2">\n       <span class="sr-only">\n        Toggle navigation\n       </span>\n       <i class="fa fa-bars fa-lg ">\n       </i>\n      </a>\n      <a class="navbar-toggle" data-target="#TopSearchNav" data-toggle="collapse" href="javascript:void(0)" ng-click="selectedTopNav=1">\n       <span class="sr-only">\n        Toggle search\n       </span>\n       <i class="fa fa-search fa-lg ">\n       </i>\n      </a>\n      <a class="navbar-brand navbar-brand-site-logo visible-xs" href="/">\n       <img alt="Beyond.com" border="0" class="img-responsive" src="//d95hpgjsuryud.cloudfront.net/sites/logo/navbar_v2/Beyondcom.png?v=2"/>\n      </a>\n     </div>\n     <div class="collapse navbar-collapse" id="TopSearchNav" ng-if="$responsively.xs.visible &amp;&amp; selectedTopNav==1" ng-style="{ \'max-height\': ($responsively.window.innerHeight-50) + \'px\' }" role="navigation">\n      <byd-nav-bar-form-search>\n      </byd-nav-bar-form-search>\n     </div>\n     <div class="collapse navbar-collapse" id="TopNav" ng-if="$responsively.xs.hidden || selectedTopNav==2" ng-style="{ \'max-height\': ($responsively.window.innerHeight-50) + \'px\' }" role="navigation">\n      <div class="navbar-left navbar-center" ng-if="!$responsively.xs.visible">\n       <div class="container">\n        <div class="col-md-12">\n         <a class="navbar-brand navbar-brand-site-logo pull-left" href="/">\n          <img alt="Beyond.com" border="0" src="//d95hpgjsuryud.cloudfront.net/sites/logo/navbar_v2/Beyondcom.png?v=2"/>\n         </a>\n         <byd-nav-bar-form-search>\n         </byd-nav-bar-form-search>\n        </div>\n       </div>\n      </div>\n      <ul class="nav navbar-nav navbar-left visible-xs">\n       <li>\n        <a href="/" rel="nofollow">\n         Home\n        </a>\n       </li>\n       <li>\n        <a href="/my/portfolio" rel="nofollow">\n         Portfolio\n        </a>\n       </li>\n       <li>\n        <a href="/job/jobs.html">\n         Jobs\n        </a>\n       </li>\n       <li>\n        <a class="hidden-xs" href="/career-network/members/" rel="nofollow">\n         Connections\n        </a>\n       </li>\n       <li class="dropdown">\n        <a class="dropdown-toggle" data-toggle="dropdown" href="javascript:void(0)" rel="nofollow">\n         Interests\n         <i class="caret">\n         </i>\n        </a>\n        <ul class="dropdown-menu">\n         <li>\n          <a href="/communities" rel="nofollow">\n           Communities\n          </a>\n         </li>\n         <li>\n          <a href="/career-advice/" rel="nofollow">\n           Career Advice\n          </a>\n         </li>\n         <li>\n          <a href="/news/" rel="nofollow">\n           News\n          </a>\n         </li>\n        </ul>\n       </li>\n       <li class="dropdown">\n        <a class="dropdown-toggle" data-toggle="dropdown" href="javascript:void(0)" rel="nofollow">\n         Career Resources\n         <i class="caret">\n         </i>\n        </a>\n        <ul class="dropdown-menu">\n         <li>\n          <a href="/resources/premium-membership" rel="nofollow">\n           Premium Membership\n          </a>\n         </li>\n         <li>\n          <a href="/resources/featured-resume" rel="nofollow">\n           Featured Resume Listing\n          </a>\n         </li>\n         <li>\n          <a href="/resources/resume-distribution" rel="nofollow">\n           Resume Distribution Service\n          </a>\n         </li>\n         <li>\n          <a href="/resources/resume-writing" rel="nofollow">\n           Resume Writing Help\n          </a>\n         </li>\n         <li>\n          <a href="/salary" rel="nofollow">\n           Salary Center\n          </a>\n         </li>\n         <li>\n          <a href="/resources/mobile-applications" rel="nofollow">\n           Mobile Apps\n          </a>\n         </li>\n         <li>\n          <a href="/resources/retirement-planning-center" rel="nofollow">\n           Retirement Planning Center\n          </a>\n         </li>\n        </ul>\n       </li>\n      </ul>\n      <ul class="nav navbar-nav navbar-right">\n       <li class="visible-xs visible-md visible-lg">\n        <a href="/job-seekers/register" rel="nofollow">\n         Join Now\n        </a>\n       </li>\n       <li class="visible-xs visible-md visible-lg">\n        <a href="/account/signin?red=%2Fjobs%2Fsearch%3Fid%3D436640745%26fjda%3D1" rel="nofollow">\n         Sign In\n        </a>\n       </li>\n       <li class="visible-md visible-lg">\n        <form class="navbar-form">\n         <a class="btn btn-info" href="/employers/" rel="nofollow">\n          Hiring?\n         </a>\n        </form>\n       </li>\n       <li class="visible-xs">\n        <a href="/employers/" rel="nofollow">\n         Hiring?\n        </a>\n       </li>\n       <li class="dropdown visible-sm">\n        <a class="dropdown-toggle" data-toggle="dropdown" href="javascript:void(0)" style="margin-right: 15px;">\n         <i class="fa fa-bars fa-lg">\n         </i>\n        </a>\n        <ul class="dropdown-menu">\n         <li>\n          <a href="/job-seekers/register" rel="nofollow">\n           Join Now\n          </a>\n         </li>\n         <li>\n          <a href="/account/signin?red=%2Fjobs%2Fsearch%3Fid%3D436640745%26fjda%3D1" rel="nofollow">\n           Sign In\n          </a>\n         </li>\n         <li>\n          <a href="/employers/" rel="nofollow">\n           Hiring?\n          </a>\n         </li>\n        </ul>\n       </li>\n      </ul>\n     </div>\n    </div>\n   </nav>\n   <nav class="navbar navbar-default navbar-sub navbar-beyond bg-secondary hidden-xs" role="navigation">\n    <div class="container">\n     <ul class="nav navbar-nav navbar-left ">\n      <li>\n       <a href="/" rel="nofollow">\n        Home\n       </a>\n      </li>\n      <li>\n       <a href="/my/portfolio" rel="nofollow">\n        Portfolio\n       </a>\n      </li>\n      <li>\n       <a href="/job/jobs.html">\n        Jobs\n       </a>\n      </li>\n      <li>\n       <a class="hidden-xs" href="/career-network/members/" rel="nofollow">\n        Connections\n       </a>\n      </li>\n      <li class="dropdown">\n       <a class="dropdown-toggle" data-toggle="dropdown" href="javascript:void(0)" rel="nofollow">\n        Interests\n        <i class="caret">\n        </i>\n       </a>\n       <ul class="dropdown-menu">\n        <li>\n         <a href="/communities" rel="nofollow">\n          Communities\n         </a>\n        </li>\n        <li>\n         <a href="/career-advice/" rel="nofollow">\n          Career Advice\n         </a>\n        </li>\n        <li>\n         <a href="/news/" rel="nofollow">\n          News\n         </a>\n        </li>\n       </ul>\n      </li>\n      <li class="dropdown">\n       <a class="dropdown-toggle" data-toggle="dropdown" href="javascript:void(0)" rel="nofollow">\n        Career Resources\n        <i class="caret">\n        </i>\n       </a>\n       <ul class="dropdown-menu">\n        <li>\n         <a href="/resources/premium-membership" rel="nofollow">\n          Premium Membership\n         </a>\n        </li>\n        <li>\n         <a href="/resources/featured-resume" rel="nofollow">\n          Featured Resume Listing\n         </a>\n        </li>\n        <li>\n         <a href="/resources/resume-distribution" rel="nofollow">\n          Resume Distribution Service\n         </a>\n        </li>\n        <li>\n         <a href="/resources/resume-writing" rel="nofollow">\n          Resume Writing Help\n         </a>\n        </li>\n        <li>\n         <a href="/salary" rel="nofollow">\n          Salary Center\n         </a>\n        </li>\n        <li>\n         <a href="/resources/mobile-applications" rel="nofollow">\n          Mobile Apps\n         </a>\n        </li>\n        <li>\n         <a href="/resources/retirement-planning-center" rel="nofollow">\n          Retirement Planning Center\n         </a>\n        </li>\n       </ul>\n      </li>\n     </ul>\n    </div>\n   </nav>\n  </header>\n  <div class="beyond-ad beyond-ad-zone-top text-center no-margin-left" data-maxwidth="" data-minwidth="" id="Display_Header_Top_Text_Position1">\n  </div>\n  <div class="container job-search-v3 job-search-v3-cards " ng-model-options="{ debounce: 200 }">\n   <div class="row">\n    <div class="col-md-12 " data-micro-site-active-header="">\n     <div class="row">\n      <div class="col-sm-8 col-md-9">\n       <div class="panel panel-default featured-panel margin-top-sm" data-drawer-open="true" data-model-name="FeaturedJobModel" ng-controller="JobSearchJobController">\n        <div style="background-color: #faa41a;height:25px;">\n        </div>\n        <ul class="media-list list-group list-group-lined no-margin-bottom job-logo-exists">\n         <li class="media list-group-item no-margin-top featured-job job job-beyond" data-jobid="436640745" itemscope="" itemtype="http://schema.org/JobPosting">\n          <div class="panel-body">\n           <div class="job-companylogo pull-left hidden-xs">\n            <img class="Areas/Jobs/Search-Index/1x1.png media-object" src="data:image/gif;base64,R0lGODlhAQABAIABAP///wAAACH5BAEKAAEALAAAAAABAAEAAAICTAEAOw=="/>\n           </div>\n           <div class="media-body">\n            <div class="pull-right hidden-xs">\n             <button byd-uxc="JobDetailAction" byd-uxn="Report" class="btn btn-link btn-default text-muted report-job-btn" data-byd-report-job-button="" data-job-id="436640745" data-job-source-id="1" style="color:#999;">\n              Report Job\n              <i class="glyphicon glyphicon-flag">\n              </i>\n             </button>\n            </div>\n            <div class="job-header job-header-cards">\n             <a byd-uxc="FeaturedJob" byd-uxn="Title" class="track-click direct-apply-job-beyond " data-directurl="https://www.beyond.com/t?tcid=720&amp;ttid=2&amp;zid=585&amp;rtid=1&amp;rid=436640745&amp;bydrpc=&amp;red=http%3a%2f%2fpixel.appcast.io%2ftrack%2fajpg2%3fcs%3d8%26price%3dGTkapSiWt_XIH5LUm53PPw%3d%3d" data-trackclickurl="" href="https://www.beyond.com/jobs/job/view?url=https%3a%2f%2fwww.beyond.com%2ft%3ftcid%3d720%26ttid%3d2%26zid%3d585%26rtid%3d1%26rid%3d436640745%26bydrpc%3d%26red%3dhttp%253a%252f%252fpixel.appcast.io%252ftrack%252fajpg2%253fcs%253d8%2526price%253dGTkapSiWt_XIH5LUm53PPw%253d%253d%26src%3d619" onclick="trackFeaturedClick(\'/t?rtid=1&amp;rid=436640745&amp;tcid=720&amp;tl1=JobType&amp;tv1=APPREQEXT&amp;zid=619&amp;parid=716124&amp;umbid=344072&amp;esid=1&amp;ugid=891151316188411412&amp;sgid=134421131261431485&amp;pgid=831121225717499184&amp;asid=F8BC5BFB-39A1-434F-A7DB-C2790BA168DE&amp;ws=COLO-WFE14&amp;uguid=93933155-EF1D-4F7F-BE53-DE772B1A1D58&amp;sguid=02E781FE-7E41-4894-8869-4903993238A1&amp;nus=0&amp;i1=174&amp;noc=4%2f19%2f2017+8%3a24%3a29+AM&amp;httpqs=id%3d436640745%26fjda%3d1&amp;httph=www.beyond.com&amp;hd=www.beyond.com&amp;ip=155.69.149.29&amp;httpua=python-requests%2f2.12.4&amp;sn=%2fjobs%2fsearch&amp;httpurl=%2fjobs%2fsearch\'); byd.t(\'//tp.bydst.com/j/a?U=bb3b97c1-dce8-43bd-a497-0e450e5eff2e&amp;JP=1&amp;J=436640745&amp;T=Business+Analytics+Developer+Student&amp;L=Brookings%2c+SD&amp;I=True\');" onmousedown="" onmouseup="" rel="nofollow" target="_blank">\n              <h2 class="h3 theme-primary-link-color no-margin" itemprop="name title">\n               Business Analytics Developer Student\n              </h2>\n             </a>\n            </div>\n            <div class="job-header-sub job-header-sub-cards">\n             <span>\n              <a byd-uxc="Search" byd-uxn="JobCompany" href="/jobs/search?k=Daktronics&amp;kt=10&amp;ol=4221022&amp;soid=5" rel="nofollow" target="_blank">\n               <span class="job-title-company" itemprop="hiringOrganization" itemscope="" itemtype="http://schema.org/Organization">\n                <span itemprop="name">\n                 Daktronics\n                </span>\n               </span>\n              </a>\n             </span>\n             \xe2\x80\xa2\n             <span itemprop="jobLocation" itemscope="" itemtype="http://schema.org/Place">\n              <span itemprop="address" itemscope="" itemtype="http://schema.org/PostalAddress">\n               <span itemprop="addressLocality">\n                Brookings\n               </span>\n               ,\n               <span itemprop="addressRegion">\n                SD\n               </span>\n               <meta content="US" itemprop="addressCountry"/>\n              </span>\n             </span>\n            </div>\n            <div class="job-divider">\n            </div>\n            <div class="job-abstract" itemprop="description">\n             Every day, in nearly 100 countries around the world, millions of people depend on Daktronics scoring and display systems for information and entertainment. Our displays provide vital travel information in airports and train stations and along highways. They advertise the price of gas, store specials, and more as you make your daily commute. They also...\n             <a byd-uxc="FeaturedJob" byd-uxn="ReadMore" class="track-click direct-apply-job-beyond " data-directurl="https://www.beyond.com/t?tcid=720&amp;ttid=2&amp;zid=585&amp;rtid=1&amp;rid=436640745&amp;bydrpc=&amp;red=http%3a%2f%2fpixel.appcast.io%2ftrack%2fajpg2%3fcs%3d8%26price%3dGTkapSiWt_XIH5LUm53PPw%3d%3d" data-trackclickurl="" href="https://www.beyond.com/jobs/job/view?url=https%3a%2f%2fwww.beyond.com%2ft%3ftcid%3d720%26ttid%3d2%26zid%3d585%26rtid%3d1%26rid%3d436640745%26bydrpc%3d%26red%3dhttp%253a%252f%252fpixel.appcast.io%252ftrack%252fajpg2%253fcs%253d8%2526price%253dGTkapSiWt_XIH5LUm53PPw%253d%253d%26src%3d619" onclick="trackFeaturedClick(\'/t?rtid=1&amp;rid=436640745&amp;tcid=720&amp;tl1=JobType&amp;tv1=APPREQEXT&amp;zid=619&amp;parid=716124&amp;umbid=344072&amp;esid=1&amp;ugid=891151316188411412&amp;sgid=134421131261431485&amp;pgid=831121225717499184&amp;asid=F8BC5BFB-39A1-434F-A7DB-C2790BA168DE&amp;ws=COLO-WFE14&amp;uguid=93933155-EF1D-4F7F-BE53-DE772B1A1D58&amp;sguid=02E781FE-7E41-4894-8869-4903993238A1&amp;nus=0&amp;i1=174&amp;noc=4%2f19%2f2017+8%3a24%3a29+AM&amp;httpqs=id%3d436640745%26fjda%3d1&amp;httph=www.beyond.com&amp;hd=www.beyond.com&amp;ip=155.69.149.29&amp;httpua=python-requests%2f2.12.4&amp;sn=%2fjobs%2fsearch&amp;httpurl=%2fjobs%2fsearch\'); byd.t(\'//tp.bydst.com/j/a?U=bb3b97c1-dce8-43bd-a497-0e450e5eff2e&amp;JP=1&amp;J=436640745&amp;T=Business+Analytics+Developer+Student&amp;L=Brookings%2c+SD&amp;I=True\');" onmousedown="" onmouseup="" rel="nofollow" target="_blank">\n              Read more\n             </a>\n            </div>\n            <div class="clearfix">\n            </div>\n           </div>\n          </div>\n         </li>\n        </ul>\n        <byd-job-search-job-drawer-cards any-job-has-logo="true" drawer-open="true" is-featured="true" job="model.job">\n        </byd-job-search-job-drawer-cards>\n       </div>\n       <div class="margin-top margin-bottom text-center-xs visible-xs">\n        <p class="font-20 header-color text-bold">\n         See More Jobs Below\n         <i class="fa fa-long-arrow-down">\n         </i>\n        </p>\n       </div>\n       <script type="text/javascript">\n        (window._bydT = window._bydT || []).push(\'/t?rtid=1&rid=436640745&tcid=720&ttid=1&tl1=JobType&tv1=APPREQEXT&zid=619&parid=716124&umbid=344072&esid=1&ugid=891151316188411412&sgid=134421131261431485&pgid=831121225717499184&asid=F8BC5BFB-39A1-434F-A7DB-C2790BA168DE&ws=COLO-WFE14&uguid=93933155-EF1D-4F7F-BE53-DE772B1A1D58&sguid=02E781FE-7E41-4894-8869-4903993238A1&nus=0&i1=174&noc=4%2f19%2f2017+8%3a24%3a29+AM&httpqs=id%3d436640745%26fjda%3d1&httph=www.beyond.com&hd=www.beyond.com&ip=155.69.149.29&httpua=python-requests%2f2.12.4&sn=%2fjobs%2fsearch&httpurl=%2fjobs%2fsearch\');\n       </script>\n       <script type="text/javascript">\n        (window._bydT = window._bydT || []).push(\'//tp.bydst.com/j/v?U=bb3b97c1-dce8-43bd-a497-0e450e5eff2e&JP=1&J=436640745&T=Business+Analytics+Developer+Student&L=Brookings%2c+SD&I=True\');\n       </script>\n       <div class="clearfix">\n       </div>\n       <ul class="job-search-results media-list list-group list-group-lined job-logo-exists" data-is-cards-version="true" data-model-name="JobSearchInfiniteAdModels" data-more-results-url="/jobs/search?k=Business%20Development%20Sales%20Intern&amp;l=Brookings%2C%20SD&amp;ps=20&amp;resultType=infinitescroll&amp;said=4&amp;bda=1" data-pages-total="1" infinite-scroll="getMoreJobs()" infinite-scroll-disabled="!isMoreJobsAvailable() || false" infinite-scroll-distance="3" ng-controller="JobSearchResultsController">\n        <li class="list-group-item google-native-ad-zone google-ad-zone-bg">\n         <style type="text/css">\n          .adslot_3141061185 { height:180px; }\r\n        @media (max-width:991px) { .adslot_3141061185 { height: 215px; } }\n         </style>\n         <script async="" src="//pagead2.googlesyndication.com/pagead/js/adsbygoogle.js">\n         </script>\n         <ins class="adsbygoogle adslot_3141061185" data-ad-client="ca-pub-5910828605562046" data-ad-slot="3141061185" style="display:inline-block;min-width:200px;max-width:1200px;width:100%;">\n         </ins>\n         <script>\n          (adsbygoogle = window.adsbygoogle || []).push({});\n         </script>\n         <script type="text/javascript">\n          (window._bydT = window._bydT || []).push(\'https://data.beyond.com/t/t.aspx?tcid=204&ttid=1&cnid=22896&zid=678&ttils=1&cnaid=882&parid=716124&umbid=344072&esid=1&ugid=891151316188411412&sgid=134421131261431485&pgid=831121225717499184&asid=F8BC5BFB-39A1-434F-A7DB-C2790BA168DE&ws=COLO-WFE14&uguid=93933155-EF1D-4F7F-BE53-DE772B1A1D58&sguid=02E781FE-7E41-4894-8869-4903993238A1&nus=0&i1=174&noc=4%2f19%2f2017+8%3a24%3a29+AM&httpqs=id%3d436640745%26fjda%3d1&httph=www.beyond.com&hd=www.beyond.com&ip=155.69.149.29&httpua=python-requests%2f2.12.4&sn=%2fjobs%2fsearch&httpurl=%2fjobs%2fsearch\');\n         </script>\n        </li>\n        <li class="margin-bottom media list-group-item no-margin-top job job-beyond panel panel-default " data-jobid="436955889" itemscope="" itemtype="http://schema.org/JobPosting" ng-controller="JobSearchJobController">\n         <div class="panel-body">\n          <div class="logo-left-div hidden-xs" style="float:left;">\n           <div class="job-companylogo pull-left hidden-xs">\n            <img class="Areas/Jobs/Search-Index/1x1.png media-object" src="data:image/gif;base64,R0lGODlhAQABAIABAP///wAAACH5BAEKAAEALAAAAAABAAEAAAICTAEAOw=="/>\n           </div>\n          </div>\n          <div class="media-body">\n           <div class="pull-right hidden-xs">\n            <button byd-uxc="JobDetailAction" byd-uxn="Report" class="btn btn-link btn-default text-muted report-job-btn" data-byd-report-job-button="" data-job-id="436955889" data-job-source-id="1" style="color:#999;">\n             Report Job\n             <i class="glyphicon glyphicon-flag">\n             </i>\n            </button>\n           </div>\n           <meta content="Information Technology" itemprop="industry"/>\n           <div class="job-header job-header-cards">\n            <a byd-uxc="Job" byd-uxn="Title" class="job-title direct-apply-job-beyond" data-directurl="https://www.beyond.com/t?tcid=720&amp;ttid=2&amp;zid=585&amp;rtid=1&amp;rid=436955889&amp;bydrpc=&amp;red=http%3a%2f%2fpixel.appcast.io%2ftrack%2fajymo%3fcs%3d8%26price%3dGTkapSiWt_XIH5LUm53PPw%3d%3d" href="https://www.beyond.com/jobs/job/view?url=https%3a%2f%2fwww.beyond.com%2ft%3ftcid%3d720%26ttid%3d2%26zid%3d585%26rtid%3d1%26rid%3d436955889%26bydrpc%3d%26red%3dhttp%253a%252f%252fpixel.appcast.io%252ftrack%252fajymo%253fcs%253d8%2526price%253dGTkapSiWt_XIH5LUm53PPw%253d%253d%26src%3d711" itemprop="url" ng-click="view()" onclick="byd.t(\'//tp.bydst.com/j/a?U=bb3b97c1-dce8-43bd-a497-0e450e5eff2e&amp;JP=1&amp;J=436955889&amp;T=Business+Analyst+Student&amp;L=Brookings%2c+SD&amp;I=True\');" onmousedown="byd.tg({ tcid: 1357, zid: 711, ttid: 2, rid: 436955889, rtid: 1, api: 1 });" rel="nofollow" target="_blank">\n             <h2 class="h3 theme-primary-link-color no-margin" itemprop="name title">\n              Business Analyst Student\n             </h2>\n            </a>\n           </div>\n           <div class="job-header-sub job-header-sub-cards">\n            <span>\n             <a byd-uxc="Search" byd-uxn="JobCompany" href="/jobs/search?k=Daktronics&amp;kt=10&amp;l=Brookings%2C%20SD&amp;ol=4221022&amp;soid=5" rel="nofollow" target="_blank">\n              <span class="job-title-company" itemprop="hiringOrganization" itemscope="" itemtype="http://schema.org/Organization">\n               <span itemprop="name">\n                Daktronics\n               </span>\n              </span>\n             </a>\n            </span>\n            \xe2\x80\xa2\n            <span itemprop="jobLocation" itemscope="" itemtype="http://schema.org/Place">\n             <span itemprop="address" itemscope="" itemtype="http://schema.org/PostalAddress">\n              <span itemprop="addressLocality">\n               Brookings\n              </span>\n              ,\n              <span itemprop="addressRegion">\n               SD\n              </span>\n              <meta content="US" itemprop="addressCountry"/>\n             </span>\n            </span>\n           </div>\n           <div class="job-abstract" itemprop="description">\n            <div class="hidden-xs">\n             Every day, in nearly 100 countries around the world, millions of people depend on Daktronics scoring and display systems for information and entertainment. Our displays...\n             <a byd-uxc="Job" byd-uxn="ReadMore" class="job-title direct-apply-job-beyond" data-directurl="https://www.beyond.com/t?tcid=720&amp;ttid=2&amp;zid=585&amp;rtid=1&amp;rid=436955889&amp;bydrpc=&amp;red=http%3a%2f%2fpixel.appcast.io%2ftrack%2fajymo%3fcs%3d8%26price%3dGTkapSiWt_XIH5LUm53PPw%3d%3d" href="https://www.beyond.com/jobs/job/view?url=https%3a%2f%2fwww.beyond.com%2ft%3ftcid%3d720%26ttid%3d2%26zid%3d585%26rtid%3d1%26rid%3d436955889%26bydrpc%3d%26red%3dhttp%253a%252f%252fpixel.appcast.io%252ftrack%252fajymo%253fcs%253d8%2526price%253dGTkapSiWt_XIH5LUm53PPw%253d%253d%26src%3d711" itemprop="url" ng-click="view()" onclick="byd.t(\'//tp.bydst.com/j/a?U=bb3b97c1-dce8-43bd-a497-0e450e5eff2e&amp;JP=1&amp;J=436955889&amp;T=Business+Analyst+Student&amp;L=Brookings%2c+SD&amp;I=True\');" onmousedown="byd.tg({ tcid: 1357, zid: 711, ttid: 2, rid: 436955889, rtid: 1, api: 1 });" rel="nofollow" target="_blank">\n              Read More\n             </a>\n            </div>\n            <div class="visible-xs">\n             Every day, in nearly 100 countries around the world, millions of people depend on Daktronics scoring and display systems for...\n             <a byd-uxc="Job" byd-uxn="ReadMore" class="job-title direct-apply-job-beyond" data-directurl="https://www.beyond.com/t?tcid=720&amp;ttid=2&amp;zid=585&amp;rtid=1&amp;rid=436955889&amp;bydrpc=&amp;red=http%3a%2f%2fpixel.appcast.io%2ftrack%2fajymo%3fcs%3d8%26price%3dGTkapSiWt_XIH5LUm53PPw%3d%3d" href="https://www.beyond.com/jobs/job/view?url=https%3a%2f%2fwww.beyond.com%2ft%3ftcid%3d720%26ttid%3d2%26zid%3d585%26rtid%3d1%26rid%3d436955889%26bydrpc%3d%26red%3dhttp%253a%252f%252fpixel.appcast.io%252ftrack%252fajymo%253fcs%253d8%2526price%253dGTkapSiWt_XIH5LUm53PPw%253d%253d%26src%3d711" itemprop="url" ng-click="view()" onclick="byd.t(\'//tp.bydst.com/j/a?U=bb3b97c1-dce8-43bd-a497-0e450e5eff2e&amp;JP=1&amp;J=436955889&amp;T=Business+Analyst+Student&amp;L=Brookings%2c+SD&amp;I=True\');" onmousedown="byd.tg({ tcid: 1357, zid: 711, ttid: 2, rid: 436955889, rtid: 1, api: 1 });" rel="nofollow" target="_blank">\n              Read More\n             </a>\n            </div>\n           </div>\n           <div class="clearfix">\n           </div>\n           <div class="job-divider hidden-xs">\n           </div>\n          </div>\n         </div>\n         <byd-job-search-job-drawer-cards any-job-has-logo="true" job="model.job">\n         </byd-job-search-job-drawer-cards>\n        </li>\n        <li class="margin-bottom media list-group-item no-margin-top job job-beyond job-priority panel panel-default " data-jobid="339756931" itemscope="" itemtype="http://schema.org/JobPosting" ng-controller="JobSearchJobController">\n         <div class="panel-body">\n          <div class="logo-left-div hidden-xs" style="float:left;">\n           <div class="job-companylogo pull-left hidden-xs">\n            <img alt="Pizza Hut" class="media-object" itemprop="image" src="//d95hpgjsuryud.cloudfront.net/_emp/004/004367/004367763/logo/1421255644_130X90.gif"/>\n           </div>\n          </div>\n          <div class="media-body">\n           <div class="pull-right hidden-xs">\n            <button byd-uxc="JobDetailAction" byd-uxn="Report" class="btn btn-link btn-default text-muted report-job-btn" data-byd-report-job-button="" data-job-id="339756931" data-job-source-id="1" style="color:#999;">\n             Report Job\n             <i class="glyphicon glyphicon-flag">\n             </i>\n            </button>\n           </div>\n           <meta content="Customer Service" itemprop="industry"/>\n           <div class="job-header job-header-cards">\n            <a byd-uxc="Job" byd-uxn="Title" class="job-title direct-apply-job-beyond" data-directurl="https://www.beyond.com/t?tcid=2025&amp;ttid=2&amp;zid=585&amp;rtid=1&amp;rid=339756931&amp;bydrpc=&amp;red=https%3a%2f%2fad.doubleclick.net%2fddm%2fclk%2f316379694%3b144658750%3bx%3fhttps%3a%2f%2fjobs.pizzahut.com%2fjob%2f-%2f-%2f1671%2f2120775%3futm_source%3dbeyond%26utm_campaign%3djob_boards_2017%26utm_medium%3djob_board%26utm_content%3djob_posting%26ss%3dpaid" href="https://www.beyond.com/jobs/job/view?url=https%3a%2f%2fwww.beyond.com%2ft%3ftcid%3d2025%26ttid%3d2%26zid%3d585%26rtid%3d1%26rid%3d339756931%26bydrpc%3d%26red%3dhttps%253a%252f%252fad.doubleclick.net%252fddm%252fclk%252f316379694%253b144658750%253bx%253fhttps%253a%252f%252fjobs.pizzahut.com%252fjob%252f-%252f-%252f1671%252f2120775%253futm_source%253dbeyond%2526utm_campaign%253djob_boards_2017%2526utm_medium%253djob_board%2526utm_content%253djob_posting%2526ss%253dpaid%26src%3d711" itemprop="url" ng-click="view()" onclick="byd.t(\'//tp.bydst.com/j/a?U=bb3b97c1-dce8-43bd-a497-0e450e5eff2e&amp;JP=1&amp;J=339756931&amp;T=Customer+Service+Representative&amp;L=Madison%2c+SD&amp;I=True\');" onmousedown="byd.tg({ tcid: 1357, zid: 711, ttid: 2, rid: 339756931, rtid: 1, api: 1 });" rel="nofollow" target="_blank">\n             <h2 class="h3 theme-primary-link-color no-margin" itemprop="name title">\n              Customer Service Representative\n             </h2>\n            </a>\n           </div>\n           <div class="job-header-sub job-header-sub-cards">\n            <span>\n             <a byd-uxc="Search" byd-uxn="JobCompany" href="/jobs/search?k=Pizza%20Hut&amp;kt=10&amp;l=Brookings%2C%20SD&amp;ol=4367763&amp;soid=5" rel="nofollow" target="_blank">\n              <span class="job-title-company" itemprop="hiringOrganization" itemscope="" itemtype="http://schema.org/Organization">\n               <span itemprop="name">\n                Pizza Hut\n               </span>\n              </span>\n             </a>\n            </span>\n            \xe2\x80\xa2\n            <span itemprop="jobLocation" itemscope="" itemtype="http://schema.org/Place">\n             <span itemprop="address" itemscope="" itemtype="http://schema.org/PostalAddress">\n              <span itemprop="addressLocality">\n               Madison\n              </span>\n              ,\n              <span itemprop="addressRegion">\n               SD\n              </span>\n              <meta content="US" itemprop="addressCountry"/>\n             </span>\n            </span>\n           </div>\n           <div class="job-abstract" itemprop="description">\n            <div class="hidden-xs">\n             What are we looking for? The good news is that your training will teach you everything you need to know to succeed on the job. But there are a few skills you should have from the get-go: You re a fun and friendly person who values customers and takes absolute pride in...\n             <a byd-uxc="Job" byd-uxn="ReadMore" class="job-title direct-apply-job-beyond" data-directurl="https://www.beyond.com/t?tcid=2025&amp;ttid=2&amp;zid=585&amp;rtid=1&amp;rid=339756931&amp;bydrpc=&amp;red=https%3a%2f%2fad.doubleclick.net%2fddm%2fclk%2f316379694%3b144658750%3bx%3fhttps%3a%2f%2fjobs.pizzahut.com%2fjob%2f-%2f-%2f1671%2f2120775%3futm_source%3dbeyond%26utm_campaign%3djob_boards_2017%26utm_medium%3djob_board%26utm_content%3djob_posting%26ss%3dpaid" href="https://www.beyond.com/jobs/job/view?url=https%3a%2f%2fwww.beyond.com%2ft%3ftcid%3d2025%26ttid%3d2%26zid%3d585%26rtid%3d1%26rid%3d339756931%26bydrpc%3d%26red%3dhttps%253a%252f%252fad.doubleclick.net%252fddm%252fclk%252f316379694%253b144658750%253bx%253fhttps%253a%252f%252fjobs.pizzahut.com%252fjob%252f-%252f-%252f1671%252f2120775%253futm_source%253dbeyond%2526utm_campaign%253djob_boards_2017%2526utm_medium%253djob_board%2526utm_content%253djob_posting%2526ss%253dpaid%26src%3d711" itemprop="url" ng-click="view()" onclick="byd.t(\'//tp.bydst.com/j/a?U=bb3b97c1-dce8-43bd-a497-0e450e5eff2e&amp;JP=1&amp;J=339756931&amp;T=Customer+Service+Representative&amp;L=Madison%2c+SD&amp;I=True\');" onmousedown="byd.tg({ tcid: 1357, zid: 711, ttid: 2, rid: 339756931, rtid: 1, api: 1 });" rel="nofollow" target="_blank">\n              Read More\n             </a>\n            </div>\n            <div class="visible-xs">\n             What are we looking for? The good news is that your training will teach you everything you need to know to succeed on the job. But...\n             <a byd-uxc="Job" byd-uxn="ReadMore" class="job-title direct-apply-job-beyond" data-directurl="https://www.beyond.com/t?tcid=2025&amp;ttid=2&amp;zid=585&amp;rtid=1&amp;rid=339756931&amp;bydrpc=&amp;red=https%3a%2f%2fad.doubleclick.net%2fddm%2fclk%2f316379694%3b144658750%3bx%3fhttps%3a%2f%2fjobs.pizzahut.com%2fjob%2f-%2f-%2f1671%2f2120775%3futm_source%3dbeyond%26utm_campaign%3djob_boards_2017%26utm_medium%3djob_board%26utm_content%3djob_posting%26ss%3dpaid" href="https://www.beyond.com/jobs/job/view?url=https%3a%2f%2fwww.beyond.com%2ft%3ftcid%3d2025%26ttid%3d2%26zid%3d585%26rtid%3d1%26rid%3d339756931%26bydrpc%3d%26red%3dhttps%253a%252f%252fad.doubleclick.net%252fddm%252fclk%252f316379694%253b144658750%253bx%253fhttps%253a%252f%252fjobs.pizzahut.com%252fjob%252f-%252f-%252f1671%252f2120775%253futm_source%253dbeyond%2526utm_campaign%253djob_boards_2017%2526utm_medium%253djob_board%2526utm_content%253djob_posting%2526ss%253dpaid%26src%3d711" itemprop="url" ng-click="view()" onclick="byd.t(\'//tp.bydst.com/j/a?U=bb3b97c1-dce8-43bd-a497-0e450e5eff2e&amp;JP=1&amp;J=339756931&amp;T=Customer+Service+Representative&amp;L=Madison%2c+SD&amp;I=True\');" onmousedown="byd.tg({ tcid: 1357, zid: 711, ttid: 2, rid: 339756931, rtid: 1, api: 1 });" rel="nofollow" target="_blank">\n              Read More\n             </a>\n            </div>\n           </div>\n           <div class="clearfix">\n           </div>\n           <div class="job-divider hidden-xs">\n           </div>\n          </div>\n         </div>\n         <byd-job-search-job-drawer-cards any-job-has-logo="true" job="model.job">\n         </byd-job-search-job-drawer-cards>\n        </li>\n        <li class="margin-bottom media list-group-item no-margin-top job job-beyond job-priority panel panel-default " data-jobid="339757082" itemscope="" itemtype="http://schema.org/JobPosting" ng-controller="JobSearchJobController">\n         <div class="panel-body">\n          <div class="logo-left-div hidden-xs" style="float:left;">\n           <div class="job-companylogo pull-left hidden-xs">\n            <img alt="Pizza Hut" class="media-object" itemprop="image" src="//d95hpgjsuryud.cloudfront.net/_emp/004/004367/004367763/logo/1421255644_130X90.gif"/>\n           </div>\n          </div>\n          <div class="media-body">\n           <div class="pull-right hidden-xs">\n            <button byd-uxc="JobDetailAction" byd-uxn="Report" class="btn btn-link btn-default text-muted report-job-btn" data-byd-report-job-button="" data-job-id="339757082" data-job-source-id="1" style="color:#999;">\n             Report Job\n             <i class="glyphicon glyphicon-flag">\n             </i>\n            </button>\n           </div>\n           <meta content="Customer Service" itemprop="industry"/>\n           <div class="job-header job-header-cards">\n            <a byd-uxc="Job" byd-uxn="Title" class="job-title direct-apply-job-beyond" data-directurl="https://www.beyond.com/t?tcid=2025&amp;ttid=2&amp;zid=585&amp;rtid=1&amp;rid=339757082&amp;bydrpc=&amp;red=https%3a%2f%2fad.doubleclick.net%2fddm%2fclk%2f316379694%3b144658750%3bx%3fhttps%3a%2f%2fjobs.pizzahut.com%2fjob%2f-%2f-%2f1671%2f2120926%3futm_source%3dbeyond%26utm_campaign%3djob_boards_2017%26utm_medium%3djob_board%26utm_content%3djob_posting%26ss%3dpaid" href="https://www.beyond.com/jobs/job/view?url=https%3a%2f%2fwww.beyond.com%2ft%3ftcid%3d2025%26ttid%3d2%26zid%3d585%26rtid%3d1%26rid%3d339757082%26bydrpc%3d%26red%3dhttps%253a%252f%252fad.doubleclick.net%252fddm%252fclk%252f316379694%253b144658750%253bx%253fhttps%253a%252f%252fjobs.pizzahut.com%252fjob%252f-%252f-%252f1671%252f2120926%253futm_source%253dbeyond%2526utm_campaign%253djob_boards_2017%2526utm_medium%253djob_board%2526utm_content%253djob_posting%2526ss%253dpaid%26src%3d711" itemprop="url" ng-click="view()" onclick="byd.t(\'//tp.bydst.com/j/a?U=bb3b97c1-dce8-43bd-a497-0e450e5eff2e&amp;JP=1&amp;J=339757082&amp;T=Customer+Service+Representative&amp;L=Brookings%2c+SD&amp;I=True\');" onmousedown="byd.tg({ tcid: 1357, zid: 711, ttid: 2, rid: 339757082, rtid: 1, api: 1 });" rel="nofollow" target="_blank">\n             <h2 class="h3 theme-primary-link-color no-margin" itemprop="name title">\n              Customer Service Representative\n             </h2>\n            </a>\n           </div>\n           <div class="job-header-sub job-header-sub-cards">\n            <span>\n             <a byd-uxc="Search" byd-uxn="JobCompany" href="/jobs/search?k=Pizza%20Hut&amp;kt=10&amp;l=Brookings%2C%20SD&amp;ol=4367763&amp;soid=5" rel="nofollow" target="_blank">\n              <span class="job-title-company" itemprop="hiringOrganization" itemscope="" itemtype="http://schema.org/Organization">\n               <span itemprop="name">\n                Pizza Hut\n               </span>\n              </span>\n             </a>\n            </span>\n            \xe2\x80\xa2\n            <span itemprop="jobLocation" itemscope="" itemtype="http://schema.org/Place">\n             <span itemprop="address" itemscope="" itemtype="http://schema.org/PostalAddress">\n              <span itemprop="addressLocality">\n               Brookings\n              </span>\n              ,\n              <span itemprop="addressRegion">\n               SD\n              </span>\n              <meta content="US" itemprop="addressCountry"/>\n             </span>\n            </span>\n           </div>\n           <div class="job-abstract" itemprop="description">\n            <div class="hidden-xs">\n             What are we looking for? The good news is that your training will teach you everything you need to know to succeed on the job. But there are a few skills you should have from the get-go: You re a fun and friendly person who values customers and takes absolute pride in...\n             <a byd-uxc="Job" byd-uxn="ReadMore" class="job-title direct-apply-job-beyond" data-directurl="https://www.beyond.com/t?tcid=2025&amp;ttid=2&amp;zid=585&amp;rtid=1&amp;rid=339757082&amp;bydrpc=&amp;red=https%3a%2f%2fad.doubleclick.net%2fddm%2fclk%2f316379694%3b144658750%3bx%3fhttps%3a%2f%2fjobs.pizzahut.com%2fjob%2f-%2f-%2f1671%2f2120926%3futm_source%3dbeyond%26utm_campaign%3djob_boards_2017%26utm_medium%3djob_board%26utm_content%3djob_posting%26ss%3dpaid" href="https://www.beyond.com/jobs/job/view?url=https%3a%2f%2fwww.beyond.com%2ft%3ftcid%3d2025%26ttid%3d2%26zid%3d585%26rtid%3d1%26rid%3d339757082%26bydrpc%3d%26red%3dhttps%253a%252f%252fad.doubleclick.net%252fddm%252fclk%252f316379694%253b144658750%253bx%253fhttps%253a%252f%252fjobs.pizzahut.com%252fjob%252f-%252f-%252f1671%252f2120926%253futm_source%253dbeyond%2526utm_campaign%253djob_boards_2017%2526utm_medium%253djob_board%2526utm_content%253djob_posting%2526ss%253dpaid%26src%3d711" itemprop="url" ng-click="view()" onclick="byd.t(\'//tp.bydst.com/j/a?U=bb3b97c1-dce8-43bd-a497-0e450e5eff2e&amp;JP=1&amp;J=339757082&amp;T=Customer+Service+Representative&amp;L=Brookings%2c+SD&amp;I=True\');" onmousedown="byd.tg({ tcid: 1357, zid: 711, ttid: 2, rid: 339757082, rtid: 1, api: 1 });" rel="nofollow" target="_blank">\n              Read More\n             </a>\n            </div>\n            <div class="visible-xs">\n             What are we looking for? The good news is that your training will teach you everything you need to know to succeed on the job. But...\n             <a byd-uxc="Job" byd-uxn="ReadMore" class="job-title direct-apply-job-beyond" data-directurl="https://www.beyond.com/t?tcid=2025&amp;ttid=2&amp;zid=585&amp;rtid=1&amp;rid=339757082&amp;bydrpc=&amp;red=https%3a%2f%2fad.doubleclick.net%2fddm%2fclk%2f316379694%3b144658750%3bx%3fhttps%3a%2f%2fjobs.pizzahut.com%2fjob%2f-%2f-%2f1671%2f2120926%3futm_source%3dbeyond%26utm_campaign%3djob_boards_2017%26utm_medium%3djob_board%26utm_content%3djob_posting%26ss%3dpaid" href="https://www.beyond.com/jobs/job/view?url=https%3a%2f%2fwww.beyond.com%2ft%3ftcid%3d2025%26ttid%3d2%26zid%3d585%26rtid%3d1%26rid%3d339757082%26bydrpc%3d%26red%3dhttps%253a%252f%252fad.doubleclick.net%252fddm%252fclk%252f316379694%253b144658750%253bx%253fhttps%253a%252f%252fjobs.pizzahut.com%252fjob%252f-%252f-%252f1671%252f2120926%253futm_source%253dbeyond%2526utm_campaign%253djob_boards_2017%2526utm_medium%253djob_board%2526utm_content%253djob_posting%2526ss%253dpaid%26src%3d711" itemprop="url" ng-click="view()" onclick="byd.t(\'//tp.bydst.com/j/a?U=bb3b97c1-dce8-43bd-a497-0e450e5eff2e&amp;JP=1&amp;J=339757082&amp;T=Customer+Service+Representative&amp;L=Brookings%2c+SD&amp;I=True\');" onmousedown="byd.tg({ tcid: 1357, zid: 711, ttid: 2, rid: 339757082, rtid: 1, api: 1 });" rel="nofollow" target="_blank">\n              Read More\n             </a>\n            </div>\n           </div>\n           <div class="clearfix">\n           </div>\n           <div class="job-divider hidden-xs">\n           </div>\n          </div>\n         </div>\n         <byd-job-search-job-drawer-cards any-job-has-logo="true" job="model.job">\n         </byd-job-search-job-drawer-cards>\n        </li>\n        <li class="margin-bottom media list-group-item no-margin-top job job-beyond job-before-ad panel panel-default " data-jobid="434029233" itemscope="" itemtype="http://schema.org/JobPosting" ng-controller="JobSearchJobController">\n         <div class="panel-body">\n          <div class="logo-left-div hidden-xs" style="float:left;">\n           <div class="job-companylogo pull-left hidden-xs">\n            <img class="Areas/Jobs/Search-Index/1x1.png media-object" src="data:image/gif;base64,R0lGODlhAQABAIABAP///wAAACH5BAEKAAEALAAAAAABAAEAAAICTAEAOw=="/>\n           </div>\n          </div>\n          <div class="media-body">\n           <div class="pull-right hidden-xs">\n            <button byd-uxc="JobDetailAction" byd-uxn="Report" class="btn btn-link btn-default text-muted report-job-btn" data-byd-report-job-button="" data-job-id="434029233" data-job-source-id="1" style="color:#999;">\n             Report Job\n             <i class="glyphicon glyphicon-flag">\n             </i>\n            </button>\n           </div>\n           <meta content="Healthcare &amp; Medical" itemprop="industry"/>\n           <div class="job-header job-header-cards">\n            <a byd-uxc="Job" byd-uxn="Title" class="job-title direct-apply-job-beyond" data-directurl="https://www.beyond.com/t?tcid=1039&amp;ttid=2&amp;zid=585&amp;rtid=1&amp;rid=434029233&amp;bydrpc=&amp;red=https%3a%2f%2fmy.jobs%2f1453b3d6a7e444e5ae3a503cfc56eb631624" href="https://www.beyond.com/jobs/job/view?url=https%3a%2f%2fwww.beyond.com%2ft%3ftcid%3d1039%26ttid%3d2%26zid%3d585%26rtid%3d1%26rid%3d434029233%26bydrpc%3d%26red%3dhttps%253a%252f%252fmy.jobs%252f1453b3d6a7e444e5ae3a503cfc56eb631624%26src%3d711" itemprop="url" ng-click="view()" onclick="byd.t(\'//tp.bydst.com/j/a?U=bb3b97c1-dce8-43bd-a497-0e450e5eff2e&amp;JP=1&amp;J=434029233&amp;T=EMT+Intern+-+Ambulance&amp;L=Canby%2c+MN&amp;I=True\');" onmousedown="byd.tg({ tcid: 1357, zid: 711, ttid: 2, rid: 434029233, rtid: 1, api: 1 });" rel="nofollow" target="_blank">\n             <h2 class="h3 theme-primary-link-color no-margin" itemprop="name title">\n              EMT Intern - Ambulance\n             </h2>\n            </a>\n           </div>\n           <div class="job-header-sub job-header-sub-cards">\n            <span class="job-title-company" itemprop="hiringOrganization" itemscope="" itemtype="http://schema.org/Organization">\n             <span itemprop="name">\n              Sanford Health\n             </span>\n            </span>\n            \xe2\x80\xa2\n            <span itemprop="jobLocation" itemscope="" itemtype="http://schema.org/Place">\n             <span itemprop="address" itemscope="" itemtype="http://schema.org/PostalAddress">\n              <span itemprop="addressLocality">\n               Canby\n              </span>\n              ,\n              <span itemprop="addressRegion">\n               MN\n              </span>\n              <meta content="US" itemprop="addressCountry"/>\n             </span>\n            </span>\n           </div>\n           <div class="job-abstract" itemprop="description">\n            <div class="hidden-xs">\n             **Job Title:** EMT Intern | Ambulance | Canby **City:** Canby **State:** Minnesota **Department** **:** Ambulance **Job Schedule:** PRN **Shift:** Varies **Hours Per...\n             <a byd-uxc="Job" byd-uxn="ReadMore" class="job-title direct-apply-job-beyond" data-directurl="https://www.beyond.com/t?tcid=1039&amp;ttid=2&amp;zid=585&amp;rtid=1&amp;rid=434029233&amp;bydrpc=&amp;red=https%3a%2f%2fmy.jobs%2f1453b3d6a7e444e5ae3a503cfc56eb631624" href="https://www.beyond.com/jobs/job/view?url=https%3a%2f%2fwww.beyond.com%2ft%3ftcid%3d1039%26ttid%3d2%26zid%3d585%26rtid%3d1%26rid%3d434029233%26bydrpc%3d%26red%3dhttps%253a%252f%252fmy.jobs%252f1453b3d6a7e444e5ae3a503cfc56eb631624%26src%3d711" itemprop="url" ng-click="view()" onclick="byd.t(\'//tp.bydst.com/j/a?U=bb3b97c1-dce8-43bd-a497-0e450e5eff2e&amp;JP=1&amp;J=434029233&amp;T=EMT+Intern+-+Ambulance&amp;L=Canby%2c+MN&amp;I=True\');" onmousedown="byd.tg({ tcid: 1357, zid: 711, ttid: 2, rid: 434029233, rtid: 1, api: 1 });" rel="nofollow" target="_blank">\n              Read More\n             </a>\n            </div>\n            <div class="visible-xs">\n             **Job Title:** EMT Intern | Ambulance | Canby **City:** Canby **State:** Minnesota **Department** **:** Ambulance **Job Schedule:**...\n             <a byd-uxc="Job" byd-uxn="ReadMore" class="job-title direct-apply-job-beyond" data-directurl="https://www.beyond.com/t?tcid=1039&amp;ttid=2&amp;zid=585&amp;rtid=1&amp;rid=434029233&amp;bydrpc=&amp;red=https%3a%2f%2fmy.jobs%2f1453b3d6a7e444e5ae3a503cfc56eb631624" href="https://www.beyond.com/jobs/job/view?url=https%3a%2f%2fwww.beyond.com%2ft%3ftcid%3d1039%26ttid%3d2%26zid%3d585%26rtid%3d1%26rid%3d434029233%26bydrpc%3d%26red%3dhttps%253a%252f%252fmy.jobs%252f1453b3d6a7e444e5ae3a503cfc56eb631624%26src%3d711" itemprop="url" ng-click="view()" onclick="byd.t(\'//tp.bydst.com/j/a?U=bb3b97c1-dce8-43bd-a497-0e450e5eff2e&amp;JP=1&amp;J=434029233&amp;T=EMT+Intern+-+Ambulance&amp;L=Canby%2c+MN&amp;I=True\');" onmousedown="byd.tg({ tcid: 1357, zid: 711, ttid: 2, rid: 434029233, rtid: 1, api: 1 });" rel="nofollow" target="_blank">\n              Read More\n             </a>\n            </div>\n           </div>\n           <div class="clearfix">\n           </div>\n           <div class="job-divider hidden-xs">\n           </div>\n          </div>\n         </div>\n         <byd-job-search-job-drawer-cards any-job-has-logo="true" job="model.job">\n         </byd-job-search-job-drawer-cards>\n        </li>\n        <li class="margin-bottom ng-cloak media list-group-item no-margin-top job" ng-cloak="" ng-repeat-start="job in model.Jobs">\n         <div class="panel-body" ng-class="{ \'\': ($index == 0 || $index == 40) }">\n          <div class="hidden-xs" style="float:left;">\n           <img alt="Instant Apply" border="none" class="instant-apply-flag" ng-if="job.ImportSourceTypeId === 1  &amp;&amp; !job.IsApplyUrlExternal" src="/Areas/Jobs/Content/img/instant-apply-tag.jpg" title="Instant Apply"/>\n           <br/>\n           <div class="job-companylogo pull-left hidden-xs" ng-if="job.CompanyLogoImageUrl">\n            <img alt="{{job.Company}}" class="media-object" itemprop="image" ng-src="{{job.CompanyLogoImageUrl}}"/>\n           </div>\n           <div class="job-companylogo pull-left hidden-xs" ng-if="!job.CompanyLogoImageUrl">\n            <img class="Areas/Jobs/Search-Index/1x1.png media-object" src="data:image/gif;base64,R0lGODlhAQABAIABAP///wAAACH5BAEKAAEALAAAAAABAAEAAAICTAEAOw=="/>\n           </div>\n          </div>\n          <div class="media-body" ng-init="pageCount = 20 + ((model.pageNumber - 2) * 15);">\n           <div class="pull-right">\n            <button byd-uxc="JobDetailAction" byd-uxn="Report" class="btn btn-link btn-default text-muted report-job-btn hidden-xs" data-byd-report-job-button="" data-job-id="{{job.JobId}}" data-job-source-id="1" style="color:#999;">\n             Report Job\n             <i class="glyphicon glyphicon-flag">\n             </i>\n            </button>\n           </div>\n           <meta content="{{job.CareerFocusText}}" itemprop="industry" ng-if="job.CareerFocusText"/>\n           <div infinite-scroll="trackPageView(job)" infinite-scroll-disabled="job.PageViewTracked" infinite-scroll-distance="0" ng-if="job.TrackPageView">\n           </div>\n           <div class="job-header job-header-cards">\n            <a class="job-title" itemprop="url" ng-click="view(job, \'Title\')" ng-href="{{job.ViewJobUrl}}" rel="nofollow" target="_blank">\n             <h2 class="h3 theme-primary-link-color no-margin" itemprop="name title" ng-bind="job.Title">\n             </h2>\n            </a>\n           </div>\n           <div class="job-header-sub job-header-sub-cards">\n            <span class="job-title-company" itemprop="hiringOrganization" itemscope="" itemtype="http://schema.org/Organization" ng-if="job.Company &amp;&amp; !(job.ImportSourceTypeId===1 &amp;&amp; job.SearchByCompanyForJobsUrl)">\n             <span itemprop="name" ng-bind="job.Company">\n             </span>\n            </span>\n            <span ng-if="job.Company &amp;&amp; (job.ImportSourceTypeId===1 &amp;&amp; job.SearchByCompanyForJobsUrl)">\n             <a byd-uxc="Search" byd-uxn="JobCompany" ng-href="{{job.SearchByCompanyForJobsUrl}}" rel="nofollow" target="_blank">\n              <span class="job-title-company" itemprop="hiringOrganization" itemscope="" itemtype="http://schema.org/Organization">\n               <span itemprop="name" ng-bind="job.Company">\n               </span>\n              </span>\n             </a>\n            </span>\n            <span ng-if="job.Company &amp;&amp; job.Location">\n             \xe2\x80\xa2\n            </span>\n            <span ng-bind="job.Location" ng-if="job.Location">\n            </span>\n           </div>\n           <div class="hidden-xs job-abstract" itemprop="description" ng-init="jobClass = job.IsDirectApply ? \'direct-apply-job-\' + job.Provider.toLowerCase() : \'\'">\n            {{job.Abstract}}\n            <a byd-uxc="Job" byd-uxn="ReadMore" class="job-title" data-directurl="{{job.JobUrl}}" itemprop="url" ng-class="jobClass" ng-click=" " ng-href="{{job.ViewJobUrl}}" ng-mousedown="job.OnMouseDownJavaScript" ng-mouseup="job.OnMouseUpJavaScript" rel="nofollow" target="_blank">\n             Read More\n            </a>\n           </div>\n           <div class="visible-xs job-abstract" itemprop="description" ng-init="jobClass = job.IsDirectApply ? \'direct-apply-job-\' + job.Provider.toLowerCase() : \'\'">\n            {{job.Abstract | trimToNearestWordWithinLength:160:\'...\'}}\n            <a byd-uxc="Job" byd-uxn="ReadMore" class="job-title" data-directurl="{{job.JobUrl}}" itemprop="url" ng-class="jobClass" ng-click=" " ng-href="{{job.ViewJobUrl}}" ng-mousedown="job.OnMouseDownJavaScript" ng-mouseup="job.OnMouseUpJavaScript" rel="nofollow" target="_blank">\n             Read More\n            </a>\n           </div>\n           <div class="clearfix">\n           </div>\n           <div class="job-divider hidden-xs">\n           </div>\n          </div>\n         </div>\n         <byd-job-search-job-drawer-cards any-job-has-logo="true" job="job">\n         </byd-job-search-job-drawer-cards>\n        </li>\n        <li class="list-group-item google-native-ad-zone google-ad-zone-bg" ng-cloak="" ng-if="model.ads[$index + 21]" ng-repeat-end="">\n         <div class="panel-body">\n          <div>\n           <byd-ad-sense ad-slot="model.ads[$index + 21].Value.AdUnitId" initial-height="model.ads[$index + 21].Value.InitialHeight" small-height="model.ads[$index + 21].Value.SmallHeight">\n           </byd-ad-sense>\n          </div>\n          <div>\n           <byd-tracking cnaid="882" cndid="model.ads[$index + 21].Value.ContentDisplayId" cnid="model.ads[$index + 21].Value.ContentId" tcid="204" ttid="1" ttils="1" zid="model.ads[$index + 21].Value.ZoneId">\n           </byd-tracking>\n          </div>\n         </div>\n        </li>\n        <li class="list-group-item list-group-item-registration-panel">\n         <byd-job-seeker-registration-panel class="no-margin-bottom" keywords="Business Development Sales Intern" location="Brookings, SD" return-url="http://www.beyond.com/jobs/search?id=436640745&amp;fjda=1" source="F50">\n         </byd-job-seeker-registration-panel>\n        </li>\n       </ul>\n      </div>\n      <div class="col-sm-4 col-md-3" id="right-rail">\n       <div class="margin signup-ad signup-ad-cards" id="SignUpAdDiv">\n        <div class="margin-top margin-bottom visible-lg">\n         <img class="Areas/Jobs/Search-Index/SignUpAdHeader.jpg" src="data:image/gif;base64,R0lGODlhAQABAIABAP///wAAACH5BAEKAAEALAAAAAABAAEAAAICTAEAOw=="/>\n        </div>\n        <div class="margin-top margin-bottom visible-med hidden-lg">\n         <img class="Areas/Jobs/Search-Index/SignUpAdHeader_Med.jpg" src="data:image/gif;base64,R0lGODlhAQABAIABAP///wAAACH5BAEKAAEALAAAAAABAAEAAAICTAEAOw=="/>\n        </div>\n        <p class="no-margin signup-ad-text">\n         Don\'t miss your\n        </p>\n        <p class="signup-ad-text margin-bottom">\n         next career opportunity.\n        </p>\n        <div class="signup-ad-form margin-xs padding-top padding-bottom">\n         <p class="no-margin-bottom signup-ad-form-text">\n          <b>\n           Create your free account\n          </b>\n         </p>\n         <p class="no-margin-bottom margin-right-xs margin-left-xs signup-ad-form-text">\n          and get the latest jobs for you delivered right to your inbox.\n         </p>\n         <form action="/Free/SignUp.asp" class="margin-top margin-left-sm margin-right-sm" id="SignUpAdForm" method="post">\n          <input name="FPositionType1" type="hidden" value="173"/>\n          <input name="FEmployerSearch" type="hidden" value="N"/>\n          <input name="FWebSite" type="hidden" value="N"/>\n          <input name="FCitizenshipType" type="hidden" value="157"/>\n          <input name="FTravelDistance" type="hidden" value="152"/>\n          <input name="FRelocation" type="hidden" value="1"/>\n          <input name="FTravelPreference" type="hidden" value="147"/>\n          <input name="FSearchStatus" type="hidden" value="1"/>\n          <input name="FSource" type="hidden" value="S09"/>\n          <input name="FServer" type="hidden" value=""/>\n          <input name="FCEducation" type="hidden" value="Y"/>\n          <input name="FAlert" type="hidden" value="Y"/>\n          <input name="FDescription" type="hidden" value=""/>\n          <input name="FNewsletter" type="hidden" value="Y"/>\n          <input id="FRetro" name="FRetro" type="hidden" value="N"/>\n          <input name="FRegistrationType" type="hidden" value="registration"/>\n          <input name="FCountry" type="hidden" value=""/>\n          <input id="u" name="u" type="hidden" value="Y"/>\n          <div class="form-group" ng-init="input.jobTitle = \'Business Development Sales Intern\'">\n           <input class="form-control byd-universal-typeahead-input signupad-form-input" data-default-value="Job Title" id="SignUpAdJobTitleInput" name="FTitle" placeholder="Job Title" type="text" typeahead-model="input.jobTitle" typeahead-type="\'jobTitle\'" value="Business Development Sales Intern"/>\n          </div>\n          <div class="form-group" ng-init="input.Location = \'Brookings, SD\'">\n           <input class="form-control byd-universal-typeahead-input signupad-form-input" data-default-value="Location" id="SignUpAdLocationInput" name="FWhere" placeholder="Location" type="text" typeahead-model="input.Location" typeahead-type="\'location\'" value="Brookings, SD"/>\n          </div>\n          <input class="form-control signupad-form-input default-selected" data-default-value="Email" id="SignUpAdEmailInput" name="FEAdd" placeholder="Email" type="text" value=""/>\n          <div class="signup-ad-form-error hidden" id="SignUpAdEmailValidDiv">\n           *Invalid email address.\n          </div>\n          <a byd-uxc="SignUp" byd-uxn="S09" class="signup-submit btn btn-info margin-top" id="SignUpAdSubmit" rel="nofollow">\n           Sign Up Now\n          </a>\n         </form>\n        </div>\n       </div>\n       <script type="text/javascript">\n        (window._bydT = window._bydT || []).push(\'/t?tcid=58&ttid=1&src=S09&parid=716124&umbid=344072&esid=1&ugid=891151316188411412&sgid=134421131261431485&pgid=831121225717499184&asid=F8BC5BFB-39A1-434F-A7DB-C2790BA168DE&ws=COLO-WFE14&uguid=93933155-EF1D-4F7F-BE53-DE772B1A1D58&sguid=02E781FE-7E41-4894-8869-4903993238A1&nus=0&i1=174&noc=4%2f19%2f2017+8%3a24%3a29+AM&httpqs=id%3d436640745%26fjda%3d1&httph=www.beyond.com&hd=www.beyond.com&ip=155.69.149.29&httpua=python-requests%2f2.12.4&sn=%2fjobs%2fsearch&httpurl=%2fjobs%2fsearch\');\n       </script>\n       <div class="row ng-cloak" ng-cloak="" ng-controller="JobSearchRecentNewsController">\n        <div class="col-xs-12" id="RecentNews">\n         <ul class="list-group list-group-lined no-margin-bottom-sm">\n          <li class="list-group-item">\n           <div class="h2 no-margin text-oswald">\n            Recent News\n           </div>\n          </li>\n          <li class="list-group-item">\n           <div class="margin-bottom" ng-repeat="news in model.news">\n            <a byd-uxc="Related" byd-uxn="News" ng-href="{{news.FriendlyUrl}}" target="_blank">\n             <img class="margin-top-sm margin-bottom-xs" ng-src="{{news.ImageUrl}}"/>\n            </a>\n            <div class="h3 no-margin-top margin-bottom-xs">\n             <a byd-uxc="Related" byd-uxn="News" itemprop="relatedLink" ng-bind="news.Title" ng-href="{{news.FriendlyUrl}}" target="_blank">\n             </a>\n            </div>\n            <byd-activity-actions activity="news" show-subscribe-link="false" track-id="JobSearchResult">\n            </byd-activity-actions>\n           </div>\n          </li>\n          <li class="list-group-item">\n           <div class="h2 text-oswald">\n            Quick Links\n           </div>\n          </li>\n          <li class="list-group-item">\n           <a byd-uxc="Search" byd-uxn="Rss" class="theme-primary-link-color" href="/jobs/search/rss?k=Business%20Development%20Sales%20Intern&amp;l=Brookings%2C%20SD&amp;ps=20&amp;said=4&amp;bda=1" id="RssSearchLink" itemprop="relatedLink" rel="nofollow" target="_blank">\n            Job Search RSS\n            <i class="fa fa-rss-square">\n            </i>\n           </a>\n          </li>\n         </ul>\n        </div>\n       </div>\n      </div>\n     </div>\n    </div>\n   </div>\n  </div>\n  <div class="beyond-ad beyond-ad-zone-top text-center no-margin-left hidden-xs" data-maxwidth="" data-minwidth="" id="Display_JobSeeker_Bottom_728x90_Position-1">\n  </div>\n  <byd-layout-footer class="ng-cloak" ng-cloak="">\n   <a href="/job/jobs.html">\n    Browse Jobs\n   </a>\n  </byd-layout-footer>\n  <script src="//dnpzj64zylsa.cloudfront.net/App_Bundles/Areas/Jobs/SearchIndexCards.Responsive.min.js?v=20170323133636000" type="text/javascript">\n  </script>\n  <script type="text/javascript">\n   /* <![CDATA[ */\n\nvar pagetrackingurl = $(\'body\').data(\'pagetrackingurl\');\nif (pagetrackingurl) {\n    document.write(\'<img src="\' + pagetrackingurl + \'" width="1" height="1" alt="" />\');\n}\n/* ]]> */\n  </script>\n  <script type="text/javascript">\n   var ga = window.ga = window.ga || function () { (ga.q = ga.q || []).push(arguments) }; ga.l = +new Date;\r\nga(\'create\', \'UA-20054939-1\', \'auto\', {\r\n    allowLinker: true\r\n});\r\nga(\'require\', \'displayfeatures\');\r\nga(\'set\', \'dimension1\', \'Jobseeker Visitor\');\r\nga(\'set\', \'dimension2\', \'SR5\');\r\nga(\'set\', \'dimension3\', \'C1\');\r\nga(\'set\', \'dimension4\', \'D1\');\r\nga(\'set\', \'dimension5\', \'AD0\');\r\n\r\n\r\nif(typeof googTrackFilter != "undefined")\r\n    ga(\'send\', \'pageview\', window.location.pathname + window.location.search + googTrackFilter);\r\nelse\r\n    ga(\'send\', \'pageview\');\n  </script>\n  <script async="" src="https://www.google-analytics.com/analytics.js">\n  </script>\n  <script type="text/javascript">\n   window._bydWto={"host":"tp.bydst.com","ux":true};\n  </script>\n  <script type="text/javascript">\n   window._bydWtc={"ub":"bb3b97c1-dce8-43bd-a497-0e450e5eff2e","jc":null,"ec":null,"p":"SR5","c":"C1","dm":"D1","ad":"AD0"};\n  </script>\n  <script src="//tags.crwdcntrl.net/c/261/cc_af.js">\n  </script>\n  <img height="1" src="//bcp.crwdcntrl.net/5/c=261/b=23782394" width="1"/>\n  <script type="text/javascript">\n   gtmDl = [];\r\n    gtmDl.push({\r\n            "u_mv": "v",\r\n                \r\n            "j_t": "Business Analytics Developer Student",\r\n            "j_ts": "Business Analytics Developer Student",\r\n            "j_la": "44.333996",\r\n            "j_lo": "-96.80012",\r\n            "j_i": "Information Technology",\r\n            "j_iid": "23",\r\n            "j_s": "",\r\n            "j_id": "436640745",\r\n            "j_zip": "57006",\r\n            "j_co": "Daktronics",\r\n        \r\n        \r\n        "u_aff": "F8BC5BFB-39A1-434F-A7DB-C2790BA168DE",\r\n        "g_env": ".prod",\r\n        "ip_la": "",\r\n        "ip_lo": ""\r\n    });\n  </script>\n  <script type="text/javascript">\n   function gtm_expireTagAfterTime(tagKey, expSeconds) {\r\n    var cookieName = "gtm_" + tagKey;\r\n    var cookieValue = "true";\r\n    var cookiePath = "/";\r\n    var expirationTime = expSeconds;\r\n    expirationTime = expirationTime * 1000;\r\n    var date = new Date();\r\n    var dateTimeNow = date.getTime();\r\n    date.setTime(dateTimeNow + expirationTime);\r\n    var expirationTime = date.toUTCString();\r\n    document.cookie = cookieName + "=" + cookieValue + "; expires=" + expirationTime + "; path=" + cookiePath;\r\n}\r\nfunction gtm_expireTagAfterSession(tagKey) {\r\n    var cookieName = "gtm_" + tagKey;\r\n    var cookieValue = "true";\r\n    var cookiePath = "/";\r\n    document.cookie = cookieName + "=" + cookieValue + "; path=" + cookiePath;\r\n}\n  </script>\n  <noscript>\n   <iframe height="0" src="//www.googletagmanager.com/ns.html?id=GTM-KR5HBR" style="display:none;visibility:hidden" width="0">\n   </iframe>\n  </noscript>\n  <script>\n   (function(w,d,s,l,i){w[l]=w[l]||[];w[l].push({\'gtm.start\':\r\nnew Date().getTime(),event:\'gtm.js\'});var f=d.getElementsByTagName(s)[0],\r\nj=d.createElement(s),dl=l!=\'dataLayer\'?\'&l=\'+l:\'\';j.async=true;j.src=\r\n\'//www.googletagmanager.com/gtm.js?id=\'+i+dl;f.parentNode.insertBefore(j,f);\r\n})(window, document, \'script\', \'gtmDl\', \'GTM-KR5HBR\');\n  </script>\n  <img src="https://data.beyond.com/t/ugid.aspx" style="width:1px;height:1px;"/>\n  <script src="//gdc.indeed.com/ads/apiresults.js" type="text/javascript">\n  </script>\n  <script type="text/javascript">\n   (function (byd) { byd.googCsaOptions = {"TestMode":false,"Query":"Business Development Sales Intern in Brookings, SD","ChannelId":"4259223588"}; }(window.byd = window.byd || {}));\n  </script>\n  <form action="#" class="hidden" data-loadingiconsrc="//dnpzj64zylsa.cloudfront.net/content/local/img/loading.gif" data-searchurl="/jobs/search?k=Business%20Development%20Sales%20Intern&amp;l=Brookings%2C%20SD&amp;ps=20&amp;ej=436640745&amp;said=4&amp;bda=1" id="SearchIndexDataForm" method="post">\n  </form>\n  <script src="https://assets.j2c.com/api/j2c.js?v=20160415" type="text/javascript">\n  </script>\n  <script src="//www.juju.com/assets/js/partnerapi.js" type="text/javascript">\n  </script>\n  <!--BEYONDRESULTS=TRUE-->\n  <byd-registration-wizard-modal model-name="RegizationWizardModel76689164-bf9f-4405-b584-54ea8b5f86a5">\n  </byd-registration-wizard-modal>\n  <script type="text/javascript">\n   byd.uxi(\'JobSearchResult\');\n  </script>\n  <script type="text/javascript">\n   (window._bydT = window._bydT || []).push(\'/t?tcid=1357&ttid=1&rtid=1&pgid=831121225717499184&zid=711&lrid=436955889%2c339756931%2c339757082%2c434029233\');\n  </script>\n  <script id="/RegistrationWizard/Modal/Steps/EmailHiddenWhatWhere.v1" type="text/ng-template">\n   <form ng-controller="EmailRegistrationWizardStepController" name="form" role="form" method="post" ng-submit="submit()" novalidate>\r\n        <ng-include src="\'/RegistrationWizard/Modal/Header.v1\'"></ng-include>\r\n        <fieldset class="modal-body">\r\n            <p ng-if="form.$errored" class="alert alert-danger" role="alert"><strong>We\'re sorry!</strong> There was a problem trying to submit your registration. Please try again.</p>\r\n            <p ng-if="form.$submitted && form.$invalid" class="alert alert-danger" role="alert"><strong>Oops!</strong> There are issue(s) with your submission. Please resolve the highlighted issues below and try again.</p>\r\n            <p ng-hide="showWhatWhere"><strong>{{wizard.Input.Keywords}}</strong> jobs in <strong>{{wizard.Input.Location}}</strong> <a href="#" ng-click="showWhatWhere = !showWhatWhere">edit</a></p>\r\n            <div ng-if="showWhatWhere" class="form-group" ng-class="{ \'has-error\': form.$submitted && form.FKeywords.$invalid, \'has-success\': form.$submitted && !form.FKeywords.$invalid }">\r\n                <div class="row">\r\n                    <div class="col-xs-11 col-sm-10">\r\n                        <input type="text" class="form-control byd-universal-typeahead-input" name="FKeywords" typeahead-model="wizard.Input.Keywords"\r\n                               typeahead-type="\'keyword\'" placeholder="Please enter your desired job title" ng-required="true">\r\n                    </div>\r\n                </div>\r\n                <p class="help-block" ng-if="form.$submitted && form.FKeywords.$error.required">\r\n                    <span class="label label-danger"><i class="fa fa-warning"></i> Required</span> Try a Job Title or Keywords.\r\n                </p>\r\n            </div>\r\n            <div ng-if="showWhatWhere" class="form-group" ng-class="{ \'has-error\': form.$submitted && form.FWhere.$invalid, \'has-success\': form.$submitted && !form.FWhere.$invalid }">\r\n                <div class="row">\r\n                    <div class="col-xs-11 col-sm-10">\r\n                        <input class="form-control byd-universal-typeahead-input" type="text" name="FWhere" typeahead-type="\'location\'"\r\n                               typeahead-model="wizard.Input.Location" placeholder="Please enter your location" autocomplete="off" ng-required="true">\r\n                    </div>\r\n                </div>\r\n                <p class="help-block" ng-if="form.$submitted && form.FWhere.$invalid">\r\n                    <span class="label label-danger"><i class="fa fa-warning"></i> Required</span> Please provide a City, State or Zip.\r\n                </p>\r\n            </div>\r\n            <div class="form-group" ng-class="{ \'has-error\': form.$submitted && form.FEAdd.$invalid, \'has-success\': form.$submitted && form.FEAdd.$valid }">\r\n                <div class="row">\r\n                    <div class="col-xs-11 col-sm-10">\r\n                        <input ng-model="wizard.Input.Email" placeholder="Please enter your email address" name="FEAdd" class="form-control" type="email" ng-min-length="3" required byd-email-validation>\r\n                    </div>\r\n                </div>\r\n                <span class="help-block" ng-if="form.$submitted && form.FEAdd.$invalid">\r\n                    <span class="label label-danger"><i class="fa fa-warning"></i> Required</span> Please provide a valid email address.\r\n                </span>\r\n            </div>\r\n            <div class="form-group" ng-class="{ \'has-error\': form.$submitted && form.PrivacyPolicy.$invalid }">\r\n                <label class="checkbox" style="margin-top:-.5em;">\r\n                    <input name="PrivacyPolicy" ng-model="wizard.Input.PrivacyPolicy" type="checkbox" checked="" required>\r\n                    <span class="help-inline" style="vertical-align: inherit; padding-left: 6px;">I agree to the site <a href="/policies/privacy" target="_blank">privacy policy</a></span>\r\n                </label>\r\n                <span class="help-block" ng-if="form.$submitted && form.PrivacyPolicy.$invalid">\r\n                    <span class="label label-danger"><i class="fa fa-warning"></i> Required</span> You must agree to the site privacy policy.\r\n                </span>\r\n            </div>\r\n            <div class="form-group margin-bottom-xs" ng-if="$responsively.xs.hidden">\r\n                <byd-google-re-captcha name="RecaptchaResponse" public-key="\'6LdDsQITAAAAALHBqitvZE_tunLqxEC1jlsWSCMp\'" ng-model="wizard.Input.ReCaptchaResponse"></byd-google-re-captcha>\r\n                <span class="help-block" ng-if="form.$submitted && form.RecaptchaResponse.$invalid">\r\n                    <span class="label label-danger"><i class="fa fa-warning"></i> Required</span> You must complete the captcha to proceed.\r\n                </span>\r\n            </div>\r\n        </fieldset>\r\n        <ng-include src="\'/RegistrationWizard/Modal/Footer.v1\'"></ng-include>\r\n    </form>\n  </script>\n  <script id="/RegistrationWizard/Modal/Steps/Following.v1" type="text/ng-template">\n   <form name="form" ng-controller="FollowingRegistrationWizardStepController" role="form" class="form-horizontal" method="post" ng-submit="submit()">\r\n        <ng-include src="\'/RegistrationWizard/Modal/Header.v1\'"></ng-include>\r\n        <fieldset class="modal-body margin-bottom-md">\r\n            <p><strong>Why follow?</strong> Following titles makes it easy for you to keep up with the latest jobs in that field. We\'ll send regular email updates with new matches for the titles you are following.</p>\r\n            <div class="checkbox col-sm-6" ng-repeat="suggestion in step.suggestions">\r\n                <label>\r\n                    <input type="checkbox" ng-model="suggestion.selected" ng-disabled="suggestionDisabled(suggestion)" ng-click="suggestionToggled(suggestion)">\r\n                    <span class="title" ng-bind="suggestion.Title"></span>\r\n                </label>\r\n            </div>\r\n            <div ng-if="step.fetchingTitles" class="text-center margin-top-md col-xs-12"><i class="fa fa-refresh fa-spin"></i> Loading more suggestions...</div>\r\n        </fieldset>\r\n        <ng-include src="\'/RegistrationWizard/Modal/Footer.v1\'"></ng-include>\r\n    </form>\n  </script>\n  <script id="/RegistrationWizard/Modal/Steps/Resume.v1" type="text/ng-template">\n   <form ng-controller="ResumeRegistrationWizardStepController" name="form" role="form" class="ng-pristine ng-valid" method="post" ng-submit="submit()" novalidate>\r\n        <ng-include src="\'/RegistrationWizard/Modal/Header.v1\'"></ng-include>\r\n        <div ng-if="!form.$submitting" class="modal-body margin-bottom-lg">\r\n            <p ng-if="form.$errored" class="alert alert-danger" role="alert"><strong>We\'re sorry!</strong> There was a problem trying to upload your resume. Please try again.</p>\r\n            <p ng-if="form.$submitted && form.$invalid" class="alert alert-danger" role="alert"><strong>Oops!</strong> There are issue(s) with your resume submission. Please resolve the highlighted issues below and try again.</p>\r\n            <ng-include src="\'/RegistrationWizard/Inputs/Resume.v1\'"></ng-include>\r\n            <div class="form-group">\r\n                <label class="checkbox" style="margin-top:-.5em;">\r\n                    <input name="ResumeCritiqueLead" ng-model="wizard.Input.ResumeCritiqueLead" type="checkbox">\r\n                    <span class="help-inline" style="vertical-align: inherit; padding-left: 6px;">Yes, I would like a complimentary resume evaluation from an expert at TopResume.</span>\r\n                </label>\r\n            </div>\r\n        </div>\r\n        <div ng-if="form.$submitting" class="modal-body margin-bottom-lg">\r\n            <div class="form-group">\r\n                <p><strong>Upload in progress!</strong> We are uploading your resume right now.</p>\r\n                <div class="progress" style="max-width: 600px; height: 22px;">\r\n                    <div class="progress-bar progress-bar-striped" ng-class="{ \'progress-bar-success\': model.fileUploadProgress===100 }" role="progressbar" aria-valuenow="{{model.fileUploadProgress}}" aria-valuemin="0" aria-valuemax="100" ng-style="{width: (model.fileUploadProgress || 0) + \'%\'}" aria-valuetext="{{model.fileUploadProgress || 0}}%" style="min-width: 30px;"><span ng-bind="model.fileUploadProgress || 0"></span>%</div>\r\n                </div>\r\n            </div>\r\n        </div>\r\n        <div class="modal-footer margin-top-sm">\r\n            <button type="submit" class="btn btn-info" ng-disabled="form.$submitting">\r\n                <span ng-if="!form.$submitting">Add Resume</span>\r\n                <span ng-if="form.$submitting">\r\n                    <i class="fa fa-refresh fa-spin"></i> <span>Uploading...</span>\r\n                </span>\r\n            </button>\r\n            <a ng-if="!step.IsResumeRequired && !form.$submitting && step.AllowSkip" class="margin-left-sm" href="javascript:void(0)" ng-click="wizard.continue()">Skip for now</a>\r\n        </div>\r\n    </form>\n  </script>\n  <script id="/RegistrationWizard/Modal/Steps/DupeResume.v1" type="text/ng-template">\n   <form ng-controller="ResumeRegistrationWizardStepController" name="form" role="form" class="ng-pristine ng-valid" method="post" ng-submit="submit()" novalidate>\r\n        <ng-include src="\'/RegistrationWizard/Modal/Header.v1\'"></ng-include>\r\n        <div ng-if="!form.$submitting" class="modal-body margin-bottom-lg">\r\n            <p ng-if="form.$errored" class="alert alert-danger" role="alert"><strong>We\'re sorry!</strong> There was a problem trying to upload your resume. Please try again.</p>\r\n            <p ng-if="form.$submitted && form.$invalid" class="alert alert-danger" role="alert"><strong>Oops!</strong> There are issue(s) with your resume submission. Please resolve the highlighted issues below and try again.</p>\r\n            <ng-include src="\'/RegistrationWizard/Inputs/Resume.v1\'"></ng-include>\r\n            <div class="form-group">\r\n                <label class="checkbox" style="margin-top:-.5em;">\r\n                    <input name="ResumeCritiqueLead" ng-model="wizard.Input.ResumeCritiqueLead" type="checkbox">\r\n                    <span class="help-inline" style="vertical-align: inherit; padding-left: 6px;">Yes, I would like a complimentary resume evaluation from an expert at TopResume.</span>\r\n                </label>\r\n            </div>\r\n        </div>\r\n        <div ng-if="form.$submitting" class="modal-body margin-bottom-lg">\r\n            <div class="form-group">\r\n                <p><strong>Upload in progress!</strong> We are uploading your resume right now.</p>\r\n                <div class="progress" style="max-width: 600px; height: 22px;">\r\n                    <div class="progress-bar progress-bar-striped" ng-class="{ \'progress-bar-success\': model.fileUploadProgress===100 }" role="progressbar" aria-valuenow="{{model.fileUploadProgress}}" aria-valuemin="0" aria-valuemax="100" ng-style="{width: (model.fileUploadProgress || 0) + \'%\'}" aria-valuetext="{{model.fileUploadProgress || 0}}%" style="min-width: 30px;"><span ng-bind="model.fileUploadProgress || 0"></span>%</div>\r\n                </div>\r\n            </div>\r\n        </div>\r\n        <div class="modal-footer margin-top-sm">\r\n            <button type="submit" class="btn btn-info" ng-disabled="form.$submitting">\r\n                <span ng-if="!form.$submitting">Add Resume</span>\r\n                <span ng-if="form.$submitting">\r\n                    <i class="fa fa-refresh fa-spin"></i> <span>Uploading...</span>\r\n                </span>\r\n            </button>\r\n            <a ng-if="!step.IsResumeRequired && !form.$submitting && step.AllowSkip" class="margin-left-sm" href="javascript:void(0)" ng-click="wizard.continue()">Skip for now</a>\r\n        </div>\r\n    </form>\n  </script>\n  <script id="/RegistrationWizard/Modal/Steps/SMS.v1" type="text/ng-template">\n   <form ng-controller="SMSRegistrationWizardStepController" name="form" role="form" method="post" ng-submit="submit()" novalidate>\r\n        <ng-include src="\'/RegistrationWizard/Modal/Header.v1\'"></ng-include>\r\n        <fieldset class="modal-body">\r\n            <p ng-if="form.$submitted && form.$invalid" class="alert alert-danger" role="alert"><strong>Oops!</strong> There are issue(s) with your submission. Please resolve the highlighted issues below and try again.</p>\r\n            <div class="form-group" ng-class="{ \'has-error\': form.$submitted && form.PhoneNumber.$invalid, \'has-success\': form.$submitted && form.PhoneNumber.$valid }">\r\n                <label><strong>Mobile Phone</strong></label>\r\n                <div class="row">\r\n                    <div class="col-xs-7 col-sm-3">\r\n                        <input type="text" class="input-medium form-control" ng-model="wizard.Input.PhoneNumber" name="PhoneNumber" ui-mask="999-999-999-9999" required byd-phone-validation>\r\n                    </div>\r\n                </div>\r\n                <p class="help-block" ng-if="form.$submitted && form.PhoneNumber.$invalid">\r\n                    <span class="label label-danger"><i class="fa fa-warning"></i> Required</span> Please enter a valid 10-digit mobile number.\r\n                </p>\r\n            </div>\r\n            <div class="form-group" ng-class="{ \'has-error\': form.$submitted && form.TextPolicy.$invalid }">\r\n                <label class="checkbox" style="margin-top:-.5em;">\r\n                    <input name="TextPolicy" ng-model="wizard.Input.TextPolicy" type="checkbox" required>\r\n                    <span class="help-inline" style="vertical-align: inherit;">Yes, Beyond may send me Job Alerts and other relevant career information via text message \r\n                        to the number I provided. By checking the box, I also agree to the <a href="/policies/terms" target="_blank">Terms of Service</a> and\r\n                        <a href="/policies/privacy" target="_blank">Privacy Policy</a>. Text HELP to 97900 for help. Text STOP to 97900 to\r\n                        cancel. Get up to 5 messages per month. There is no charge for this service, but message and data rates may apply.\r\n                    </span>\r\n                </label>\r\n                <span class="help-block" ng-if="form.$submitted && form.TextPolicy.$invalid">\r\n                    <span class="label label-danger"><i class="fa fa-warning"></i> Required</span> You must agree to the Text Alert terms.\r\n                </span>\r\n            </div>\r\n        </fieldset>\r\n        <ng-include src="\'/RegistrationWizard/Modal/Footer.v1\'"></ng-include>\r\n    </form>\n  </script>\n  <script id="/RegistrationWizard/Modal/Steps/Career.v1" type="text/ng-template">\n   <form ng-controller="CareerRegistrationWizardStepController" name="form" role="form" ng-submit="submit()" novalidate>\r\n        <ng-include src="\'/RegistrationWizard/Modal/Header.v1\'"></ng-include>\r\n        <fieldset class="modal-body">\r\n            <p ng-if="form.$errored" class="alert alert-danger" role="alert"><strong>We\'re sorry!</strong> There was a problem trying to process your submission. Please try again.</p>\r\n            <p ng-if="form.$submitted && form.$invalid" class="alert alert-danger" role="alert"><strong>Oops!</strong> There are issue(s) with your submission. Please resolve the highlighted issues below and try again.</p>\r\n            <div class="form-group">\r\n                <label>Desired Job Title:</label>\r\n                <div class="row">\r\n                    <div class="col-xs-12 col-sm-9">\r\n                        <input class="form-control byd-universal-typeahead-input" type="text" placeholder="Desired Job Title" typeahead-model="model.JobTitle" typeahead-type="\'jobTitle\'" />\r\n                    </div>\r\n                </div>\r\n            </div>\r\n            <div class="form-group">\r\n                <label>Desired Compensation:</label>\r\n                <div class="row">\r\n                    <label class="col-sm-1">From&nbsp;&nbsp;</label>\r\n                    <div class="col-sm-4">\r\n                        <select name="SalaryMin" class="form-control" ng-model="model.SalaryMin" ng-options="salary.Value as salary.Text for salary in SalaryMinOptions | filter: filterSalaryMin(model.SalaryMax)"></select>\r\n                    </div>                    \r\n                    <label class="col-sm-1">&nbsp;To&nbsp;</label>\r\n                    <div class="col-sm-4">\r\n                        <select name="SalaryMax" class="form-control" ng-model="model.SalaryMax" ng-options="salary.Value as salary.Text for salary in SalaryMaxOptions | filter: filterSalaryMax(model.SalaryMin)"></select>\r\n                    </div>\r\n                </div>\r\n            </div>\r\n            <div class="form-group">\r\n                <label>Your Education Level:</label>\r\n                <div class="row">\r\n                    <div class="col-xs-8 col-sm-5">\r\n                        <select name="EducationLevel" class="form-control" ng-model="model.EducationLevelId" ng-options="edu.Value as edu.Text for edu in EducationLevels"></select>\r\n                    </div>\r\n                </div>\r\n            </div>\r\n            <div class="form-group">\r\n                <label>Your Experience Level:</label>\r\n                <div class="row">\r\n                    <div class="col-xs-8 col-sm-5">\r\n                        <select name="ExperienceLevel" class="form-control" ng-model="model.ExperienceLevelId" ng-options="exp.Value as exp.Text for exp in ExperienceLevels"></select>\r\n                    </div>\r\n                </div>\r\n            </div>\r\n        </fieldset>\r\n        <ng-include src="\'/RegistrationWizard/Modal/Footer.v1\'"></ng-include>\r\n    </form>\n  </script>\n  <script id="/RegistrationWizard/Modal/Steps/Profile.v1" type="text/ng-template">\n   <form ng-controller="ProfileRegistrationWizardStepController" name="form" role="form" method="post" ng-submit="submit()" novalidate>\r\n        <ng-include src="\'/RegistrationWizard/Modal/Header.v1\'"></ng-include>\r\n        <div class="modal-body">\r\n            <p ng-if="form.$errored" class="alert alert-danger" role="alert"><strong>We\'re sorry!</strong> There was a problem trying to process your submission. Please try again.</p>\r\n            <p ng-if="form.$submitted && form.$invalid" class="alert alert-danger" role="alert"><strong>Oops!</strong> There are issue(s) with your submission. Please resolve the highlighted issues below and try again.</p>\r\n            <div class="form-group" ng-class="{ \'has-error\': form.$submitted && form.FirstName.$invalid, \'has-success\': form.$submitted && form.FirstName.$valid }">\r\n                <label><strong>First Name:</strong></label>\r\n                <div class="row">\r\n                    <div class="col-xs-10 col-sm-6">\r\n                        <input type="text" class="form-control" ng-model="wizard.Input.FirstName" name="FirstName" placeholder="First Name" required>\r\n                    </div>\r\n                </div>\r\n                <p class="help-block" ng-if="form.$submitted && form.FirstName.$invalid">\r\n                    <span class="label label-danger"><i class="fa fa-warning"></i> Required</span> Please provide your first name.\r\n                </p>\r\n            </div>\r\n            <div class="form-group" ng-class="{ \'has-error\': form.$submitted && form.LastName.$invalid, \'has-success\': form.$submitted && form.LastName.$valid }">\r\n                <label><strong>Last Name:</strong></label>\r\n                <div class="row">\r\n                    <div class="col-xs-10 col-sm-6">\r\n                        <input type="text" class="form-control" ng-model="wizard.Input.LastName" name="LastName" placeholder="Last Name" required>\r\n                    </div>\r\n                </div>\r\n                <p class="help-block" ng-if="form.$submitted && form.LastName.$invalid">\r\n                    <span class="label label-danger"><i class="fa fa-warning"></i> Required</span> Please provide your last name.\r\n                </p>\r\n            </div>\r\n            <div class="form-group" ng-class="{ \'has-error\': form.$submitted && form.Location.$invalid, \'has-success\': form.$submitted && form.Location.$valid }">\r\n                <label><strong>Location:</strong></label>\r\n                <div class="row">\r\n                    <div class="col-xs-11 col-sm-9">\r\n                        <input class="form-control byd-universal-typeahead-input" type="text" name="Location" typeahead-type="\'location\'" typeahead-model="wizard.Input.Location" placeholder="City, State or Postal Code" autocomplete="off" required>\r\n                    </div>\r\n                </div>\r\n                <p class="help-block" ng-if="form.$submitted && form.Location.$invalid">\r\n                    <span class="label label-danger"><i class="fa fa-warning"></i> Required</span> Please provide either City and State or Zip.\r\n                </p>\r\n            </div>\r\n            <div class="form-group" ng-class="{ \'has-error\': form.$submitted && form.PhoneNumber.$invalid, \'has-success\': form.$submitted && form.PhoneNumber.$valid }">\r\n                <label><strong>Phone:</strong></label>\r\n                <div class="row">\r\n                    <div class="col-xs-7 col-sm-3">\r\n                        <input type="text" class="input-medium form-control" ng-model="wizard.Input.PhoneNumber" name="PhoneNumber" ui-mask="999-999-999-9999" required byd-phone-validation>\r\n                    </div>\r\n                    <div class="col-xs-4 col-sm-2">\r\n                        <select name="PhoneType" class="form-control" ng-model="wizard.Input.PhoneType">\r\n                            <option ng-repeat="type in PhoneTypes" value="{{type.Value}}" ng-selected="wizard.Input.PhoneType == {{ type.Value }}">{{ type.Text }}</option>\r\n                        </select>\r\n                    </div>\r\n                </div>\r\n                <p class="help-block" ng-if="form.$submitted && form.PhoneNumber.$invalid">\r\n                    <span class="label label-danger"><i class="fa fa-warning"></i> Required</span> Please provide the best phone number to contact you.\r\n                </p>\r\n            </div>\r\n        </div>\r\n        <ng-include src="\'/RegistrationWizard/Modal/Footer.v1\'"></ng-include>\r\n    </form>\n  </script>\n  <script id="/RegistrationWizard/Modal/Steps/Offers.v1" type="text/ng-template">\n   <form ng-controller="OffersRegistrationWizardStepController" name="form" role="form" method="post" ng-submit="submit()" novalidate>\r\n        <ng-include src="\'/RegistrationWizard/Modal/Header.v1\'"></ng-include>\r\n        <div class="modal-body">\r\n            <div class="form-group" ng-repeat="offer in step.offers" ng-bind-html="offer.Html | to_trusted" />\r\n            <div class="form-group" ng-if="step.ShowResumeRabbitOffer">\r\n                <div class="checkbox">\r\n                    <label class="checkbox-mobile-text-allowed">\r\n                        <input type="checkbox" ng-model="wizard.Input.ResumeRabbitOffer">\r\n                        <span><b style="font-size: 13px;">Yes, instantly post my resume on over 90 other job sites. I understand it will be accessible to over 1.5 million employers daily who search CareerBuilder, Job.com, Dice & more!</b></span>\r\n                    </label>\r\n                </div>\r\n            </div>            \r\n        </div>\r\n        <ng-include src="\'/RegistrationWizard/Modal/Footer.v1\'"></ng-include>\r\n    </form>\n  </script>\n  <script id="/RegistrationWizard/Modal/Steps/ResumeRabbit.v1" type="text/ng-template">\n   <iframe style="border:medium none;-webkit-border-radius: 5px;-moz-border-radius:5px;border-radius:5px;overflow:x-hidden !important;width:598px !important;height:450px !important; min-height:450px !important;margin-bottom:-5px;" frameborder="0" ng-src="{{ wizard.currentStep.ResumeRabbitUrl }}"></iframe>\n  </script>\n  <script id="/RegistrationWizard/Modal/Steps/AlertSent.v1" type="text/ng-template">\n   <form name="form" role="form" method="post" ng-submit="wizard.continue()" novalidate>\r\n        <div class="modal-header">\r\n            <a href="javascript:void(0)" class="close" ng-click="wizard.close()">\xc3\x97</a>\r\n            <h2 class="modal-title">Check your email, we\'ve already started finding jobs for you!</h2>\r\n        </div>\r\n        <div class="modal-body">\r\n            <p>Your first alert is waiting in your inbox, so review your matches now.</p>      \r\n        </div>\r\n        <div class="modal-footer">\r\n            <button type="submit" class="btn btn-success">Close</button>\r\n        </div>\r\n    </form>\n  </script>\n  <script id="/RegistrationWizard/Modal/Default.v1" type="text/ng-template">\n   <ng-include ng-if="step.visible" ng-repeat="step in wizard.Steps" model="step" src="step.TemplateUrl"></ng-include>\n  </script>\n  <script id="/RegistrationWizard/Modal/Header.v1" type="text/ng-template">\n   <div class="modal-header">\r\n        <a ng-if="wizard.Input.IsApplyUrlExternal && wizard.Input.ApplyUrl" target="_blank" ng-href="{{wizard.Input.ApplyUrl}}" ng-click="wizard.OpenJobWindow = false; wizard.close();" class="close">\xc3\x97</a>\r\n        <a ng-if="!wizard.Input.IsApplyUrlExternal || !wizard.Input.ApplyUrl" href="javascript:void(0)" ng-click="wizard.close()" class="close">\xc3\x97</a>\r\n        <h2 class="modal-title" ng-bind="wizard.currentStep.Title"></h2>\r\n        <p ng-if="wizard.currentStep.Subtitle" class="subhead" ng-bind="wizard.currentStep.Subtitle"></p>\r\n    </div>\n  </script>\n  <script id="/RegistrationWizard/Modal/Footer.v1" type="text/ng-template">\n   <div class="modal-footer">\r\n        <a ng-if="wizard.currentStep.ContinueButtonUrl" class="btn btn-info" ng-href="{{ wizard.currentStep.ContinueButtonUrl }}" target="_blank" ng-click="submit()" ng-class="{ disabled: form.$submitting || (form.$submitted && form.$invalid && !wizard.currentStep.ContinueButtonEnabledOnInvalid) }">\r\n            <span ng-if="!form.$submitting" ng-bind="wizard.currentStep.ContinueButtonText || \'Continue\'"></span>\r\n            <span ng-if="form.$submitting">\r\n                <i class="fa fa-refresh fa-spin"></i> <span ng-bind="wizard.currentStep.ContinueButtonSavingText || \'Saving...\'"></span>\r\n            </span>\r\n        </a>\r\n        <button ng-if="!wizard.currentStep.ContinueButtonUrl" type="submit" class="btn btn-info" ng-disabled="form.$submitting || (form.$submitted && form.$invalid && !wizard.currentStep.ContinueButtonEnabledOnInvalid)">\r\n            <span ng-if="!form.$submitting" ng-bind="wizard.currentStep.ContinueButtonText || \'Continue\'"></span>\r\n            <span ng-if="form.$submitting">\r\n                <i class="fa fa-refresh fa-spin"></i> <span ng-bind="wizard.currentStep.ContinueButtonSavingText || \'Saving...\'"></span>\r\n            </span>\r\n        </button>\r\n        <a ng-if="!form.$submitting && wizard.currentStep.AllowSkip" class="margin-left-sm" href="javascript:void(0)" ng-click="wizard.continue()" ng-bind="wizard.currentStep.SkipButtonText || \'Skip for now\'"></a>\r\n        <span class="margin-left-sm" ng-if="!form.$submitting && wizard.currentStep.AllowClose">\r\n            <a ng-if="wizard.Input.IsApplyUrlExternal && wizard.Input.ApplyUrl" target="_blank" ng-href="{{wizard.Input.ApplyUrl}}" ng-click="wizard.OpenJobWindow = false; wizard.close();" ng-bind="wizard.currentStep.CloseButtonText || \'No, thanks.\'"></a>\r\n            <a ng-if="!wizard.Input.IsApplyUrlExternal || !wizard.Input.ApplyUrl" href="javascript:void(0)" ng-click="wizard.close()" ng-bind="wizard.currentStep.CloseButtonText || \'No, thanks.\'"></a>\r\n        </span>        \r\n    </div>\n  </script>\n  <script id="/RegistrationWizard/Inputs/Resume.v1" type="text/ng-template">\n   <div class="form-group">\r\n        <div ng-if="model.showUpload" class="form-group resume-upload-control" ng-class="{\'has-error\': form.$submitted && form.ResumeUploadFile.$invalid}">\r\n            <label for="ResumeUploadFile" class="control-label">Upload Resume (or <a href="javascript:void(0)" ng-click="model.showUpload = !model.showUpload">enter text</a>):</label>\r\n            <input class="resume-upload file margin-bottom-sm" type="file" name="ResumeUploadFile" ngf-select="" ng-model="model.resumeFile" ngf-max-size="5MB" ngf-pattern="\'.doc,.docx,.pdf,.rtf,.txt\'" ngf-multiple="false" ng-required="model.IsResumeRequired" />\r\n            <p ng-if="form.$submitted && form.ResumeUploadFile.$error.required" class="help-block validate-error-message">\r\n                <span ng-if="form.$submitted && form.ResumeUploadFile.$error.required" class="label label-danger"><i class="fa fa-warning"></i> Required</span> \r\n                You must select a resume file to upload.\r\n            </p>\r\n            <p ng-if="form.$submitted && form.ResumeUploadFile.$error.pattern" class="help-block validate-error-message"><span class="label label-danger"><i class="fa fa-warning"></i> Unsupported File Type</span> We only accept .doc, .docx, .pdf, .rtf, .txt.</p>\r\n            <p ng-if="form.$submitted && form.ResumeUploadFile.$error.maxSize" class="help-block validate-error-message"><span class="label label-danger"><i class="fa fa-warning"></i> File Exceeds Allowed Size</span> We only accept files up to 5 megabytes (i.e. 5,120,000 bytes.)</p>\r\n        </div>\r\n        <div ng-if="!model.showUpload" class="form-group resume-text-control" ng-class="{\'has-error\': form.$submitted && form.ResumeText.$invalid}">\r\n            <label for="ResumeText" class="control-label">Enter text resume (or <a href="javascript:void(0)" ng-click="model.showUpload = !model.showUpload">upload resume</a>):</label>\r\n            <textarea name="ResumeText" class="form-control" rows="10" style="resize:vertical;" ng-model="model.resumeText" ng-required="model.IsResumeRequired" ng-minlength="200"></textarea>\r\n            <p ng-if="form.$submitted && form.ResumeText.$error.required" class="help-block" ng-class="{ \'validate-error-message\': form.$submitted && form.ResumeText.$error.required }">\r\n                <span ng-if="form.$submitted && form.ResumeText.$error.required" class="label label-danger"><i class="fa fa-warning"></i> Required</span>\r\n                You must enter the text of your resume to apply to this position.\r\n            </p>\r\n            <p ng-if="form.$submitted && form.ResumeText.$error.minlength" class="help-block validate-error-messages">\r\n                <span class="label label-danger"><i class="fa fa-warning"></i> Resume Below Minimum Length</span>\r\n                Your resume must be a minimum of 200 charaters in length.\r\n            </p>\r\n        </div>\r\n    </div>\n  </script>\n  <script type="text/javascript">\n   var bydConstants = window.bydConstants = {"JobSearchInput":{"BeyondDirectApply":true,"BoostRAJobs":true,"ExcludeJobId":"436640745","FeaturedJobDirectApply":true,"IsGeoPartner":false,"Keywords":"Business Development Sales Intern","KeywordType":2,"Location":{"City":"Brookings","State":"SD","Country":"US","Latitude":44.333996,"Longitude":-96.80012,"IsEmpty":false},"LocationString":"Brookings, SD","MobileView":false,"PageSize":20,"SearchAlgorithmId":4},"FeaturedJobModel":{"job":{"ActivityUniversalId":"1-436640745","Age":"Today","CanEmail":true,"CanEmailMe":true,"CanSave":true,"CanShare":true,"Company":"Daktronics","HasLiked":false,"ImportSourceTypeId":1,"IsFeaturedJob":true,"IsApplyUrlExternal":false,"JobId":"436640745","Likes":0,"Location":"Brookings, SD","OnClickJavaScript":"trackFeaturedClick(\'/t?rtid=1&rid=436640745&tcid=720&tl1=JobType&tv1=APPREQEXT&zid=619&parid=716124&umbid=344072&esid=1&ugid=891151316188411412&sgid=134421131261431485&pgid=831121225717499184&asid=F8BC5BFB-39A1-434F-A7DB-C2790BA168DE&ws=COLO-WFE14&uguid=93933155-EF1D-4F7F-BE53-DE772B1A1D58&sguid=02E781FE-7E41-4894-8869-4903993238A1&nus=0&i1=174&noc=4%2f19%2f2017+8%3a24%3a29+AM&httpqs=id%3d436640745%26fjda%3d1&httph=www.beyond.com&hd=www.beyond.com&ip=155.69.149.29&httpua=python-requests%2f2.12.4&sn=%2fjobs%2fsearch&httpurl=%2fjobs%2fsearch\');","OnMouseDownJavaScript":"","SearchByCompanyForJobsUrl":"/jobs/search?k=Daktronics&kt=10&ol=4221022&soid=5","SearchByLocationForJobsUrl":"/jobs/search?l=Brookings%2C%20SD&soid=4","SearchBySimilarForJobsUrl":"/jobs/search?mltid=436640745&soid=7","Title":"Business Analytics Developer Student","ViewJobUrl":"https://www.beyond.com/jobs/job/view?url=https%3a%2f%2fwww.beyond.com%2ft%3ftcid%3d720%26ttid%3d2%26zid%3d585%26rtid%3d1%26rid%3d436640745%26bydrpc%3d%26red%3dhttp%253a%252f%252fpixel.appcast.io%252ftrack%252fajpg2%253fcs%253d8%2526price%253dGTkapSiWt_XIH5LUm53PPw%253d%253d%26src%3d619","WebTrackTrackApplyImageUrl":"//tp.bydst.com/j/a?U=bb3b97c1-dce8-43bd-a497-0e450e5eff2e&JP=1&J=436640745&T=Business+Analytics+Developer+Student&L=Brookings%2c+SD&I=True","NoFollow":true}},"JobSearchResultsPagerModel":{"PagesTotal":0},"JobSearchJobModels":{"436955889":{"ActivityUniversalId":"1-436955889","Age":"5 Days Ago","CanEmail":true,"CanEmailMe":true,"CanSave":true,"CanShare":true,"Company":"Daktronics","HasLiked":false,"ImportSourceTypeId":1,"IsApplyUrlExternal":false,"JobId":"436955889","Likes":0,"Location":"Brookings, SD","OnMouseDownJavaScript":"byd.tg({ tcid: 1357, zid: 711, ttid: 2, rid: 436955889, rtid: 1, api: 1 });","SearchByCompanyForJobsUrl":"/jobs/search?k=Daktronics&kt=10&l=Brookings%2C%20SD&ol=4221022&soid=5","SearchByLocationForJobsUrl":"/jobs/search?l=Brookings%2C%20SD&soid=4","SearchBySimilarForJobsUrl":"/jobs/search?mltid=436955889&soid=7","Title":"Business Analyst Student","ViewJobUrl":"https://www.beyond.com/jobs/job/view?url=https%3a%2f%2fwww.beyond.com%2ft%3ftcid%3d720%26ttid%3d2%26zid%3d585%26rtid%3d1%26rid%3d436955889%26bydrpc%3d%26red%3dhttp%253a%252f%252fpixel.appcast.io%252ftrack%252fajymo%253fcs%253d8%2526price%253dGTkapSiWt_XIH5LUm53PPw%253d%253d%26src%3d711","WebTrackTrackApplyImageUrl":"//tp.bydst.com/j/a?U=bb3b97c1-dce8-43bd-a497-0e450e5eff2e&JP=1&J=436955889&T=Business+Analyst+Student&L=Brookings%2c+SD&I=True","NoFollow":true},"339756931":{"ActivityUniversalId":"1-339756931","Age":"May 8, 2016","CanEmail":true,"CanEmailMe":true,"CanSave":true,"CanShare":true,"Company":"Pizza Hut","CompanyLogoImageUrl":"//d95hpgjsuryud.cloudfront.net/_emp/004/004367/004367763/logo/1421255644_130X90.gif","HasLiked":false,"ImportSourceTypeId":1,"IsApplyUrlExternal":false,"JobId":"339756931","Likes":0,"Location":"Madison, SD","OnMouseDownJavaScript":"byd.tg({ tcid: 1357, zid: 711, ttid: 2, rid: 339756931, rtid: 1, api: 1 });","SearchByCompanyForJobsUrl":"/jobs/search?k=Pizza%20Hut&kt=10&l=Brookings%2C%20SD&ol=4367763&soid=5","SearchByLocationForJobsUrl":"/jobs/search?l=Madison%2C%20SD&soid=4","SearchBySimilarForJobsUrl":"/jobs/search?mltid=339756931&soid=7","Title":"Customer Service Representative","ViewJobUrl":"https://www.beyond.com/jobs/job/view?url=https%3a%2f%2fwww.beyond.com%2ft%3ftcid%3d2025%26ttid%3d2%26zid%3d585%26rtid%3d1%26rid%3d339756931%26bydrpc%3d%26red%3dhttps%253a%252f%252fad.doubleclick.net%252fddm%252fclk%252f316379694%253b144658750%253bx%253fhttps%253a%252f%252fjobs.pizzahut.com%252fjob%252f-%252f-%252f1671%252f2120775%253futm_source%253dbeyond%2526utm_campaign%253djob_boards_2017%2526utm_medium%253djob_board%2526utm_content%253djob_posting%2526ss%253dpaid%26src%3d711","WebTrackTrackApplyImageUrl":"//tp.bydst.com/j/a?U=bb3b97c1-dce8-43bd-a497-0e450e5eff2e&JP=1&J=339756931&T=Customer+Service+Representative&L=Madison%2c+SD&I=True","NoFollow":true},"339757082":{"ActivityUniversalId":"1-339757082","Age":"May 8, 2016","CanEmail":true,"CanEmailMe":true,"CanSave":true,"CanShare":true,"Company":"Pizza Hut","CompanyLogoImageUrl":"//d95hpgjsuryud.cloudfront.net/_emp/004/004367/004367763/logo/1421255644_130X90.gif","HasLiked":false,"ImportSourceTypeId":1,"IsApplyUrlExternal":false,"JobId":"339757082","Likes":0,"Location":"Brookings, SD","OnMouseDownJavaScript":"byd.tg({ tcid: 1357, zid: 711, ttid: 2, rid: 339757082, rtid: 1, api: 1 });","SearchByCompanyForJobsUrl":"/jobs/search?k=Pizza%20Hut&kt=10&l=Brookings%2C%20SD&ol=4367763&soid=5","SearchByLocationForJobsUrl":"/jobs/search?l=Brookings%2C%20SD&soid=4","SearchBySimilarForJobsUrl":"/jobs/search?mltid=339757082&soid=7","Title":"Customer Service Representative","ViewJobUrl":"https://www.beyond.com/jobs/job/view?url=https%3a%2f%2fwww.beyond.com%2ft%3ftcid%3d2025%26ttid%3d2%26zid%3d585%26rtid%3d1%26rid%3d339757082%26bydrpc%3d%26red%3dhttps%253a%252f%252fad.doubleclick.net%252fddm%252fclk%252f316379694%253b144658750%253bx%253fhttps%253a%252f%252fjobs.pizzahut.com%252fjob%252f-%252f-%252f1671%252f2120926%253futm_source%253dbeyond%2526utm_campaign%253djob_boards_2017%2526utm_medium%253djob_board%2526utm_content%253djob_posting%2526ss%253dpaid%26src%3d711","WebTrackTrackApplyImageUrl":"//tp.bydst.com/j/a?U=bb3b97c1-dce8-43bd-a497-0e450e5eff2e&JP=1&J=339757082&T=Customer+Service+Representative&L=Brookings%2c+SD&I=True","NoFollow":true},"434029233":{"ActivityUniversalId":"1-434029233","Age":"13 Days Ago","CanEmail":true,"CanEmailMe":true,"CanSave":true,"CanShare":true,"Company":"Sanford Health","HasLiked":false,"ImportSourceTypeId":2,"IsApplyUrlExternal":false,"JobId":"434029233","Likes":0,"Location":"Canby, MN","OnMouseDownJavaScript":"byd.tg({ tcid: 1357, zid: 711, ttid: 2, rid: 434029233, rtid: 1, api: 1 });","SearchByCompanyForJobsUrl":"/jobs/search?k=Sanford%20Health&kt=10&l=Brookings%2C%20SD&soid=5","SearchByLocationForJobsUrl":"/jobs/search?l=Canby%2C%20MN&soid=4","SearchBySimilarForJobsUrl":"/jobs/search?mltid=434029233&soid=7","Title":"EMT Intern - Ambulance","ViewJobUrl":"https://www.beyond.com/jobs/job/view?url=https%3a%2f%2fwww.beyond.com%2ft%3ftcid%3d1039%26ttid%3d2%26zid%3d585%26rtid%3d1%26rid%3d434029233%26bydrpc%3d%26red%3dhttps%253a%252f%252fmy.jobs%252f1453b3d6a7e444e5ae3a503cfc56eb631624%26src%3d711","WebTrackTrackApplyImageUrl":"//tp.bydst.com/j/a?U=bb3b97c1-dce8-43bd-a497-0e450e5eff2e&JP=1&J=434029233&T=EMT+Intern+-+Ambulance&L=Canby%2c+MN&I=True","NoFollow":true}},"JobSearchInfiniteAdModels":{},"JobSearchRecentNewsModel":[{"ActivityId":"128790610","Age":"12 Days Ago","CanEmail":true,"CanShare":true,"FriendlyUrl":"/articles/terrible-small-talk-you-should-avoid-in-your-next-interview-20036-article.html","ImageUrl":"https://d1jmp0w2deph4j.cloudfront.net/community-863/000/000/267/8/content/6976457740_6c02314b6b_o.jpg","Title":"Terrible Small Talk You Should Avoid in Your Next Interview"},{"ActivityId":"128686887","Age":"Mar 27","CanEmail":true,"CanShare":true,"FriendlyUrl":"/articles/high-impact-resume-updates-20025-article.html","ImageUrl":"https://d1jmp0w2deph4j.cloudfront.net/community-863/000/000/267/9/content/ID-10055089.jpg","Title":"High-Impact Resume Updates"},{"ActivityId":"128403803","Age":"Feb 22","CanEmail":true,"CanShare":true,"FriendlyUrl":"/articles/check-the-company-s-culture-before-accepting-that-job-offer-19864-article.html","ImageUrl":"https://d1jmp0w2deph4j.cloudfront.net/community-863/000/000/267/9/content/ID-100227982.jpg","Title":"Check the Company\'s Culture Before Accepting That Job Offer"}],"RegizationWizardModel76689164-bf9f-4405-b584-54ea8b5f86a5":{"Input":{"AffiliateId":"F8BC5BFB-39A1-434F-A7DB-C2790BA168DE","EnableImpressionTracking":true,"Keywords":"Business Development Sales Intern","Location":"Brookings, SD","ReturnUrl":"http://www.beyond.com/jobs/search?id=436640745&fjda=1","Source":"F43"},"ModalTemplateUrl":"/RegistrationWizard/Modal/Default.v1","ModelName":"RegizationWizardModel76689164-bf9f-4405-b584-54ea8b5f86a5","Paths":[1,4,5],"RegisterUrl":"/account/register","Steps":[{"TemplateUrl":"/RegistrationWizard/Modal/Steps/EmailHiddenWhatWhere.v1","Paths":[1],"TrackingCampaignId":10602,"Title":"Send me new jobs for:"},{"TemplateUrl":"/RegistrationWizard/Modal/Steps/Following.v1","ServiceName":"FollowingRegistrationWizardStepService","Paths":[1],"TrackingCampaignId":2818,"Title":"Select titles to follow."},{"TemplateUrl":"/RegistrationWizard/Modal/Steps/Resume.v1","Paths":[1,4],"TrackingCampaignId":186,"Title":"Nice work! Now, let the employers come to you.","Subtitle":"The simple step of uploading your resume will allow employers to find you.","AllowSkip":true,"ContinueButtonEnabledOnInvalid":true},{"TemplateUrl":"/RegistrationWizard/Modal/Steps/DupeResume.v1","Paths":[10],"TrackingCampaignId":18115,"Title":"Nice work! Now, let the employers come to you.","Subtitle":"The simple step of uploading your resume will allow employers to find you.","AllowSkip":true,"ContinueButtonEnabledOnInvalid":true},{"TemplateUrl":"/RegistrationWizard/Modal/Steps/SMS.v1","Paths":[9],"TrackingCampaignId":18055,"Title":"Be the first to know about new job opportunities.","Subtitle":"Get the latest jobs sent directly to your phone by signing up for Text Alerts.","AllowSkip":true,"ContinueButtonEnabledOnInvalid":true},{"TemplateUrl":"/RegistrationWizard/Modal/Steps/Career.v1","Paths":[1],"TrackingCampaignId":184,"Title":"Great, now let\'s make it a little better.","Subtitle":"With a little more info, we can target your experience better.","AllowSkip":true},{"TemplateUrl":"/RegistrationWizard/Modal/Steps/Profile.v1","Paths":[1],"TrackingCampaignId":490,"Title":"Success! Make it easy for employers to contact you.","Subtitle":"Double-check your contact information to be sure employers can reach you with job opportunities."},{"MobileResumeRabbitUrl":"/js/careerresources/rr/form.asp?aff1=F8BC5BFB-39A1-434F-A7DB-C2790BA168DE&ssdn=beyond&smcn=beyond&iurl=www.beyond.com&campaign=BEYOND_DP%3aDskExpFJ&m=0&curl=http%3a%2f%2fwww.beyond.com%2fjobs%2fsearch%3fid%3d436640745%26fjda%3d1","TemplateUrl":"/RegistrationWizard/Modal/Steps/Offers.v1","ServiceName":"OffersRegistrationWizardStepService","Paths":[1],"TrackingCampaignId":491,"Title":"Congratulations! You\'re almost done.","Subtitle":"Sign up below for fantastic offers for you from our partners."},{"ResumeRabbitUrl":"/js/careerresources/rr/form.asp?aff1=F8BC5BFB-39A1-434F-A7DB-C2790BA168DE&ssdn=beyond&smcn=beyond&iurl=www.beyond.com&campaign=BEYOND_DP%3aDskExpFJ&m=0&curl=http%3a%2f%2fwww.beyond.com%2fjobs%2fsearch%3fid%3d436640745%26fjda%3d1","TemplateUrl":"/RegistrationWizard/Modal/Steps/ResumeRabbit.v1","ServiceName":"ResumeRabbitRegistrationWizardStepService","Paths":[1],"TrackingCampaignId":10645,"IsDesktopOnly":true},{"TemplateUrl":"/RegistrationWizard/Modal/Steps/AlertSent.v1","Paths":[1],"TrackingCampaignId":10646}]},"BeyondContext":{"Beyond":true,"Cdn":"//dnpzj64zylsa.cloudfront.net","Host":"","HostPostfix":"","Layout":0,"Version":"4.0.5705.21827","WebFileUrl":"https://files.Beyond.com","SearchCategories":[]},"SalaryMinOptions":[{"Text":"(Select Min Salary)","Value":"0"},{"Text":"$10,000","Value":"10000"},{"Text":"$20,000","Value":"20000"},{"Text":"$30,000","Value":"30000"},{"Text":"$40,000","Value":"40000"},{"Text":"$50,000","Value":"50000"},{"Text":"$60,000","Value":"60000"},{"Text":"$70,000","Value":"70000"},{"Text":"$80,000","Value":"80000"},{"Text":"$90,000","Value":"90000"},{"Text":"$100,000","Value":"100000"},{"Text":"$110,000","Value":"110000"},{"Text":"$120,000","Value":"120000"},{"Text":"$130,000","Value":"130000"},{"Text":"$140,000","Value":"140000"},{"Text":"$150,000","Value":"150000"},{"Text":"$175,000","Value":"175000"},{"Text":"$200,000","Value":"200000"},{"Text":"$250,000","Value":"250000"}],"SalaryMaxOptions":[{"Text":"(Select Max Salary)","Value":"0"},{"Text":"$10,000","Value":"10000"},{"Text":"$20,000","Value":"20000"},{"Text":"$30,000","Value":"30000"},{"Text":"$40,000","Value":"40000"},{"Text":"$50,000","Value":"50000"},{"Text":"$60,000","Value":"60000"},{"Text":"$70,000","Value":"70000"},{"Text":"$80,000","Value":"80000"},{"Text":"$90,000","Value":"90000"},{"Text":"$100,000","Value":"100000"},{"Text":"$110,000","Value":"110000"},{"Text":"$120,000","Value":"120000"},{"Text":"$130,000","Value":"130000"},{"Text":"$140,000","Value":"140000"},{"Text":"$150,000","Value":"150000"},{"Text":"$175,000","Value":"175000"},{"Text":"$200,000","Value":"200000"},{"Text":"$250,000","Value":"250000"}],"ExperienceLevels":[{"Text":"(Select Experience Level)","Value":"2164"},{"Text":"Less than 1 year","Value":"2125"},{"Text":"1 \xe2\x80\x93 3 Years","Value":"2126"},{"Text":"3 \xe2\x80\x93 5 Years","Value":"2127"},{"Text":"5 \xe2\x80\x93 10 Years","Value":"2128"},{"Text":"10 \xe2\x80\x93 15 Years","Value":"2129"},{"Text":"15 \xe2\x80\x93 20 Years","Value":"2130"},{"Text":"21+ Years","Value":"2131"}],"EducationLevels":[{"Text":"(Select Education Level)","Value":"160"},{"Text":"High School Diploma","Value":"99"},{"Text":"Some College","Value":"2110"},{"Text":"Associate\'s Degree","Value":"100"},{"Text":"Bachelor\'s Degree","Value":"101"},{"Text":"Graduate Degree","Value":"102"}],"PhoneTypes":[{"Text":"Mobile","Value":"5"},{"Text":"Work","Value":"3"},{"Text":"Home","Value":"1"}]};\r\nfor (var n in bydConstants) { beyondApp.constant(n, bydConstants[n]); }\n  </script>\n  <script async="" defer="" src="https://www.google.com/recaptcha/api.js?onload=vcRecaptchaApiLoaded&amp;render=explicit">\n  </script>\n </body>\n</html>\n'
p3
tp4
a.