(lp1
(S'http://job-openings.monster.com/monster/f028aa94-bb4e-4d9b-b957-921a62683f0c'
S'<!DOCTYPE html>\n<!--[if lt IE 7]>      <html class="no-js lt-ie9 lt-ie8 lt-ie7"> <![endif]-->\n<!--[if IE 7]>         <html class="no-js lt-ie9 lt-ie8"> <![endif]-->\n<!--[if IE 8]>         <html class="no-js lt-ie9"> <![endif]-->\n<!--[if gt IE 8]><!-->\n<html class="no-js">\n <!--<![endif]-->\n <head>\n  <title>\n   Computer Scientist (Data Architect) for ABIS in Clarksburg, WV - CACI International Inc. | Jobs.com\n  </title>\n  <meta charset="utf-8"/>\n  <meta content="IE=edge,chrome=1" http-equiv="X-UA-Compatible"/>\n  <meta content="text/html; charset=utf-8" http-equiv="Content-Type"/>\n  <meta content="width=device-width, initial-scale=1.0" name="viewport"/>\n  <meta content="CACI International Inc. - Clarksburg, WV. Job Requisition Number: 108219\n\nCategory: Consultant\n\nPrima" name="description"/>\n  <link href="http://plus.monster.com/+monster" rel="publisher"/>\n  <link href="https://maxcdn.bootstrapcdn.com/bootstrap/3.2.0/css/bootstrap.min.css" rel="stylesheet"/>\n  <link href="https://maxcdn.bootstrapcdn.com/font-awesome/4.2.0/css/font-awesome.min.css" rel="stylesheet"/>\n  <link href="/bundles/monster?v=3VUpvWSKWfcSTe2LCMpXVIfzIyGEJcLvPJMZUFZH8gg1" rel="stylesheet"/>\n  <!-- Favicon -->\n  <link href="http://media.newjobs.com/niche/img/favicon/favicon.ico" rel="shortcut icon"/>\n  <meta content="noindex, nofollow" name="robots"/>\n  <meta content="Monster" name="m_impr.a_affiliate_id"/>\n  <meta content="jobview" name="_ac.page_name"/>\n  <!-- Le HTML5 shim, for IE6-8 support of HTML5 elements -->\n  <!--[if lt IE 9]>\r\n    <script src="/scripts/third_party/html5shiv.js"></script>\r\n    <script src="/scripts/bootstrap/respond.min.js" type="text/javascript"></script>\r\n\r\n    <script type="text/javascript">\r\n        if (!Array.prototype.forEach) {\r\n            Array.prototype.forEach = function (fun /*, thisArg */) {\r\n                "use strict";\r\n                if (this === void 0 || this === null || typeof fun !== "function") throw new TypeError();\r\n\r\n                var\r\n                    t = Object(this),\r\n                    len = t.length >>> 0,\r\n                    thisArg = arguments.length >= 2 ? arguments[1] : void 0;\r\n\r\n                for (var i = 0; i < len; i++)\r\n                    if (i in t)\r\n                        fun.call(thisArg, t[i], i, t);\r\n            };\r\n        }\r\n    </script>\r\n<![endif]-->\n </head>\n <body>\n  <div class="page">\n   <div class="navbar navbar-default navbar-fixed-top">\n    <div class="container">\n     <!--<div class="container">-->\n     <div class="navbar-header" itemscope="" itemtype="http://schema.org/Organization">\n      <a class="navbar-brand" href="http://www.monster.com" itemprop="url">\n       <img alt="monster.com" itemprop="logo" src="/Areas/JobViewCloud/content/images/monster-new.png" title="monster.com"/>\n      </a>\n     </div>\n     <!-- large screen navbar-collapse location -->\n     <div class="navbar-collapse collapse hidden-xs">\n     </div>\n     <!--/.navbar-collapse -->\n    </div>\n    <!-- ./container -->\n   </div>\n   <!-- ./navbar -->\n   <div class="jobview container">\n    <div class="row">\n     <input id="normalized-company-id" type="hidden" value="5310"/>\n     <div class="col-xs-12 col-sm-6 col-md-8 col-lg-8">\n      <article id="jobview">\n       <header class="jobview-header">\n        <h3>\n         Computer Scientist (Data Architect) for ABIS in Clarksburg, WV\n        </h3>\n        <h4 class="company">\n         CACI International Inc.\n         <small class="location">\n          -\n          <i class="fa fa-map-marker">\n          </i>\n          Clarksburg, WV 26302\n         </small>\n        </h4>\n        <span class="postedDate">\n         <strong>\n          Posted:\n         </strong>\n         9/29/2016\n        </span>\n       </header>\n       <!-- ./jobview-header -->\n       <div class="jobview-upper-apply-mobile visible-xs row">\n        <div class="col-sm-6">\n         <div class="action-buttons">\n          <input id="trackInfo" type="hidden" value=\'{"emailAddress":"","postingId":"f028aa94-bb4e-4d9b-b957-921a62683f0c","placementID":null,"jobPosition":0,"uniqueUser":null,"affiliate":"Monster","technology":null}\'/>\n          <a class="btn btn-sm btn-primary btn-jobsdotcom" data-action="apply" data-applyurl="http://careers.caci.com/job/Clarksburg-Computer-Scientist-%28Data-Architect%29-for-ABIS-in-Clarksburg%2C-WV-Job-WV-26301/310862500/" data-atm-id="35" data-confurl="http://job-openings.monster.com/monster/confirmation?postingid=f028aa94-bb4e-4d9b-b957-921a62683f0c" data-form-selector=".email-collection" href="http://job-openings.monster.com/monster/confirmation?postingid=f028aa94-bb4e-4d9b-b957-921a62683f0c" rel="nofollow" role="button">\n           Apply Now\n          </a>\n          <form action="http://careers.caci.com/job/Clarksburg-Computer-Scientist-%28Data-Architect%29-for-ABIS-in-Clarksburg%2C-WV-Job-WV-26301/310862500/" aria-hidden="true" class="email-collection hidden panel panel-default" data-id="f028aa94-bb4e-4d9b-b957-921a62683f0c" data-lrtype="B" data-placement="Left-Bottom-Body" data-position="0" data-remote-subscription="/LiteReg/ApplySubscription" data-remote-validation="/LiteReg/IsEmailValid" data-technology="" method="POST" target="_blank">\n           <div class="panel-body">\n            <div class="row-flex">\n             <div class="col-flex stretch">\n              <input class="form-control input-sm" id="EmailCollectionField2" name="litRegEmailAddress" placeholder="Please enter your email" type="email"/>\n             </div>\n            </div>\n            <label class="control-label" for="EmailCollectionField2">\n             To begin the application, please enter your email\n            </label>\n            <span class="help-block small">\n             By continuing you agree to Monster\'s\n             <a href="http://my.monster.com/Privacy/Default.aspx" target="_blank" title="Privacy Policy">\n              Privacy Policy\n             </a>\n             ,\n             <a href="http://my.monster.com/Terms/Default.aspx" target="_blank" title="Terms of Use">\n              Terms of Use\n             </a>\n             and\n             <a href="http://inside.monster.com/cookie-info/inside2.aspx" target="_blank" title="use of cookies">\n              use of cookies\n             </a>\n             .\n            </span>\n            <button class="sr-only" type="submit">\n             Continue application\n            </button>\n           </div>\n          </form>\n         </div>\n        </div>\n       </div>\n       <div class="jobview-section">\n        Job Requisition Number: 108219\n        <br/>\n        <br/>\n        Category: Consultant\n        <br/>\n        <br/>\n        Primary Location: Clarksburg, WV, US\n        <br/>\n        <br/>\n        Security Clearance: Top Secret\n        <br/>\n        <br/>\n        Clearance Status: Must be Obtainable\n        <br/>\n        <br/>\n        Schedule: Full Time\n        <br/>\n        <br/>\n        Type of Travel: Continental US\n        <br/>\n        <br/>\n        Percent of Travel Required: Up to 10%\n        <br/>\n        <br/>\n        Description:\n        <br/>\n        <br/>\n        CACI seeks experienced Data Architect with a background in biometrics, cloud architect, architecting new application solutions, data migrations, information technology and database management that possess an active DoD Secret clearance with experience working in a Department of Defense environment. This position is a senior level highly technical position with responsibility to lead the creation and use of data deliverables in support of Automated Biometrics Information System (ABIS). Data deliverables will include requirements, data analysis including profiling, modeling, data flow diagrams, data sourcing plans, data management, database architecture and data transformation strategies. is a demanding role that requires deep technical knowledge and adaptability with hands on execution. You must have excellent communication skills, both verbal and written, and be a strategic thinker.\n        <br/>\n        <br/>\n        Duties and Responsibilities:\n        <br/>\n        <br/>\n        The Data Architect is responsible for designing, developing, and driving enterprise data integration and migration strategy, methodology, and standards that shape the client\'s modernization programs and initiatives. Design a robust technical solution to migrate and integrate data from multiple applications, so that ongoing data migrations and integrations can be re-factored with minimal rework. The position is responsible for data sharing interoperability support and portal application administration and maintenance. Provide technical, strategic guidance on the development of metadata tags, Document Type Definitions (DTD), and schemas using appropriate technologies for representation such as HTML and XML. Ensure that metadata and data standards and definitions will support DoD environment and system implementations requirements for sharing data. The position interfaces with clients to comprehend business needs, map data requirements, unify vocabularies, ontologies, and taxonomies, and develop data analytics architecture to drive a future state data platform, applying innovative data architecture principles and techniques. Develop required technical documentation, including a data migration plan, data mapping specifications, data extraction file layout and specifications, data migration, and data verification protocols. Manage and coordinate data integration activities with the delivery team, including tasks and timelines and the execution of data cleansing and standardization activities to be implemented. Develops project standards and processes and uses automated development tools; Applies reverse engineering and re-engineering disciplines to develop migration strategic and planning documents. Support the project teams during the user acceptance testing activities and assist with the development of a post-deployment data maintenance plan.\n        <br/>\n        <br/>\n        Required Qualifications:\n        <br/>\n        <br/>\n        * Bachelor\'s degree in computer science, information systems or related field and 14 years of intense technical experience in the areas of data architecture, data modeling, data management, data engineering and/or data governance At least 8 years of experience of application design and architecture\n        <br/>\n        <br/>\n        * Experience with designing, deploying, and administering solutions using Cloud services\n        <br/>\n        <br/>\n        * At least 7 years of experience in architecting Business Intelligence solutions and Data Modeling (DM) including conceptual, logical, and physical data models\n        <br/>\n        <br/>\n        * At least 8 years of experience with one or more Public Cloud technologies (AWS, Azure, Google Cloud, etc.)\n        <br/>\n        <br/>\n        * 3+ years of experience in DM tools such as Erwin and Operational Data Store (ODS)\n        <br/>\n        <br/>\n        * Familiarity with DM standards including naming conventions\n        <br/>\n        <br/>\n        * Knowledge of Cloud computing concepts and articulating these concepts to technical and non-technical audiences\n        <br/>\n        <br/>\n        * Knowledge of development approaches and architecture concepts like ODS, master data management, slowly changing dimensions, and data governance\n        <br/>\n        <br/>\n        * Experience in modeling for data warehouse projects and solutions\n        <br/>\n        <br/>\n        * Experience working with large databases\n        <br/>\n        <br/>\n        * Experience with industry or government interoperability standards and technologies\n        <br/>\n        <br/>\n        * Understanding of software development lifecycle and methodologies, agile methodology in particular\n        <br/>\n        <br/>\n        * Previous work experience in a DoD environment and projects\n        <br/>\n        <br/>\n        * Excellent written and verbal communications skills\n        <br/>\n        <br/>\n        Desired Qualifications\n        <br/>\n        <br/>\n        * Technical experience with Automated Biometrics Identification System (ABIS)\n        <br/>\n        <br/>\n        * Ability to document processes and work practices in accordance with ISO 9001:2008 and CMMi Level 3standards\n        <br/>\n        <br/>\n        * MS preferred\n        <br/>\n        <br/>\n        CACI employs a diverse range of talent to create an environment that fuels innovation and fosters continuous improvement and success. Join CACI, where you will have the opportunity to make an immediate impact by providing information solutions and services in support of national security missions and government transformation for Intelligence, Defense, and Federal Civilian clients. A member of the Fortune 1000 Largest Companies and the Russell 2000 Index, CACI provides dynamic careers for approximately 15,000 employees working in over 120 offices worldwide.\n        <br/>\n        <br/>\n        CACI is an Equal Opportunity Employer - Females/Minorities/Protected Veterans/Individuals with Disabilities.\n       </div>\n       <!-- ./jobview-section -->\n       <div class="hidden-xs jobview-footer row">\n        <div class="col-sm-6">\n         <div class="action-buttons">\n          <input id="trackInfo" type="hidden" value=\'{"emailAddress":"","postingId":"f028aa94-bb4e-4d9b-b957-921a62683f0c","placementID":null,"jobPosition":0,"uniqueUser":null,"affiliate":"Monster","technology":null}\'/>\n          <a class="btn btn-sm btn-primary btn-jobsdotcom" data-action="apply" data-applyurl="http://careers.caci.com/job/Clarksburg-Computer-Scientist-%28Data-Architect%29-for-ABIS-in-Clarksburg%2C-WV-Job-WV-26301/310862500/" data-atm-id="35" data-confurl="http://job-openings.monster.com/monster/confirmation?postingid=f028aa94-bb4e-4d9b-b957-921a62683f0c" data-form-selector=".email-collection" href="http://job-openings.monster.com/monster/confirmation?postingid=f028aa94-bb4e-4d9b-b957-921a62683f0c" rel="nofollow" role="button">\n           Apply Now\n          </a>\n          <form action="http://careers.caci.com/job/Clarksburg-Computer-Scientist-%28Data-Architect%29-for-ABIS-in-Clarksburg%2C-WV-Job-WV-26301/310862500/" aria-hidden="true" class="email-collection hidden panel panel-default" data-id="f028aa94-bb4e-4d9b-b957-921a62683f0c" data-lrtype="B" data-placement="Left-Bottom-Body" data-position="0" data-remote-subscription="/LiteReg/ApplySubscription" data-remote-validation="/LiteReg/IsEmailValid" data-technology="" method="POST" target="_blank">\n           <div class="panel-body">\n            <div class="row-flex">\n             <div class="col-flex stretch">\n              <input class="form-control input-sm" id="EmailCollectionField2" name="litRegEmailAddress" placeholder="Please enter your email" type="email"/>\n             </div>\n            </div>\n            <label class="control-label" for="EmailCollectionField2">\n             To begin the application, please enter your email\n            </label>\n            <span class="help-block small">\n             By continuing you agree to Monster\'s\n             <a href="http://my.monster.com/Privacy/Default.aspx" target="_blank" title="Privacy Policy">\n              Privacy Policy\n             </a>\n             ,\n             <a href="http://my.monster.com/Terms/Default.aspx" target="_blank" title="Terms of Use">\n              Terms of Use\n             </a>\n             and\n             <a href="http://inside.monster.com/cookie-info/inside2.aspx" target="_blank" title="use of cookies">\n              use of cookies\n             </a>\n             .\n            </span>\n            <button class="sr-only" type="submit">\n             Continue application\n            </button>\n           </div>\n          </form>\n         </div>\n        </div>\n       </div>\n       <!-- ./jobview-footer -->\n      </article>\n      <!-- ./#jobview -->\n     </div>\n     <div class="col-xs-12 col-sm-6 col-md-4 col-lg-4">\n      <div class="jobview-affix">\n       <div style="background-color: #fff;">\n        <input id="trackInfo" type="hidden" value=\'{"emailAddress":"","postingId":"f028aa94-bb4e-4d9b-b957-921a62683f0c","placementID":null,"jobPosition":0,"uniqueUser":null,"affiliate":"Monster","technology":null}\'/>\n        <form action="http://careers.caci.com/job/Clarksburg-Computer-Scientist-%28Data-Architect%29-for-ABIS-in-Clarksburg%2C-WV-Job-WV-26301/310862500/" aria-hidden="true" class="email-collection hidden" data-id="f028aa94-bb4e-4d9b-b957-921a62683f0c" data-lrtype="R" data-placement="Right-Top-Rail" data-position="0" data-remote-subscription="/LiteReg/ApplySubscription" data-remote-validation="/LiteReg/IsEmailValid" data-technology="" method="POST" target="_blank">\n         <div class="form-group">\n          <label class="control-label" for="EmailCollectionField1">\n           To begin the application, please enter your email\n          </label>\n          <input class="form-control input-sm" id="EmailCollectionField1" name="litRegEmailAddress" placeholder="Please enter your email" type="email"/>\n         </div>\n         <span class="help-block small">\n          By continuing you agree to Monster\'s\n          <a href="http://my.monster.com/Privacy/Default.aspx" target="_blank" title="Privacy Policy">\n           Privacy Policy\n          </a>\n          ,\n          <a href="http://my.monster.com/Terms/Default.aspx" target="_blank" title="Terms of Use">\n           Terms of Use\n          </a>\n          and\n          <a href="http://inside.monster.com/cookie-info/inside2.aspx" target="_blank" title="use of cookies">\n           use of cookies\n          </a>\n          .\n         </span>\n         <button class="sr-only" type="submit">\n          Continue application\n         </button>\n        </form>\n        <a class="btn btn-sm btn-primary btn-block btn-jobsdotcom" data-action="apply" data-applyurl="http://careers.caci.com/job/Clarksburg-Computer-Scientist-%28Data-Architect%29-for-ABIS-in-Clarksburg%2C-WV-Job-WV-26301/310862500/" data-atm-id="36" data-confurl="http://job-openings.monster.com/monster/confirmation?postingid=f028aa94-bb4e-4d9b-b957-921a62683f0c" data-form-selector=".email-collection" href="http://job-openings.monster.com/monster/confirmation?postingid=f028aa94-bb4e-4d9b-b957-921a62683f0c" rel="nofollow" role="button">\n         Apply Now\n        </a>\n        <div class="social-sharing no-logo">\n         <h5>\n          Share this Job\n         </h5>\n         <a href="https://www.twitter.com/share?url=%20&amp;text=Computer+Scientist+(Data+Architect)+for+ABIS+in+Clarksburg%2c+WV at CACI+International+Inc. http://job-openings.monster.com/monster/f028aa94-bb4e-4d9b-b957-921a62683f0c via @monster" target="_blank" title="Share this job on Twitter">\n          <i class="fa fa-2x fa-twitter" style="margin: 0 4px;">\n          </i>\n         </a>\n         <a href="https://plus.google.com/share?url=http://job-openings.monster.com/monster/f028aa94-bb4e-4d9b-b957-921a62683f0c" target="_blank" title="Share this job on Google+">\n          <i class="fa fa-2x fa-google-plus" style="margin: 0 4px;">\n          </i>\n         </a>\n         <a href="mailto: ?subject=Computer Scientist (Data Architect) for ABIS in Clarksburg, WV - CACI International Inc. | Monster.com&amp;body=CACI International Inc. http://job-openings.monster.com/monster/f028aa94-bb4e-4d9b-b957-921a62683f0c" title="Share this job via Email">\n          <i class="fa fa-2x fa-envelope-o" style="margin: 0 4px;">\n          </i>\n         </a>\n        </div>\n       </div>\n       <div>\n        <div class="jobview-related-jobs" id="relatedJobs">\n         <div class="related-job-container">\n          <h5>\n           Related Jobs\n          </h5>\n          <ul class="list-unstyled">\n           <li>\n            <a class="cloudJobs" data-m_impr_a_placement_id="rjv1" data-m_impr_j_cid="0" data-m_impr_j_coc="xw97517080wx" data-m_impr_j_jawsid="229595493" data-m_impr_j_jobid="182928711" data-m_impr_j_jpm="1" data-m_impr_j_jpt="1" data-m_impr_j_lat="39" data-m_impr_j_lid="663" data-m_impr_j_long="-80" data-m_impr_j_occid="0" data-m_impr_j_p="1" data-m_impr_j_postingid="81e1848d-1898-416e-b49e-098ac4c1fd5c" data-m_impr_j_pvc="monster" data-m_impr_s_search_query="" data-m_impr_s_t="RE_EXP6b_JSJ" data-m_impr_uuid="a79faeae-bb9d-4d28-8258-7a1101622876" href="http://jobview.monster.com/Project-Manager-Fairmont-WV-or-Columbia-MD-or-Remote-Job-Fairmont-WV-US-182928711.aspx?intcid=js" onclick="jobClick(this, \'http://jobview.monster.com/Project-Manager-Fairmont-WV-or-Columbia-MD-or-Remote-Job-Fairmont-WV-US-182928711.aspx?intcid=js\', \'newjobsprodseekerus\', \'click on jobview from jobview\')" rel="nofollow" target="_blank" title="View This Job: Project Manager - Fairmont, WV or Columbia, MD or Remote">\n             Project Manager - Fairmont, WV or Columbia, MD or Remote\n            </a>\n            <div class="location small text-muted">\n             Healthcare Management Solutions, LLC, Fairmont - WV\n            </div>\n           </li>\n           <li>\n            <a class="cloudJobs" data-m_impr_a_placement_id="rjv1" data-m_impr_j_cid="0" data-m_impr_j_coc="xrcgdcx" data-m_impr_j_jawsid="229719761" data-m_impr_j_jobid="182945996" data-m_impr_j_jpm="1" data-m_impr_j_jpt="1" data-m_impr_j_lat="39" data-m_impr_j_lid="663" data-m_impr_j_long="-80" data-m_impr_j_occid="0" data-m_impr_j_p="2" data-m_impr_j_postingid="e3b16779-711a-4a64-b973-10268546b125" data-m_impr_j_pvc="monster" data-m_impr_s_search_query="" data-m_impr_s_t="RE_EXP6b_JSJ" data-m_impr_uuid="5cb3abae-b494-491c-98b4-1640d99b0606" href="http://jobview.monster.com/Security-Engineer-Fairmont-WV-Job-Fairmont-WV-US-182945996.aspx?intcid=js" onclick="jobClick(this, \'http://jobview.monster.com/Security-Engineer-Fairmont-WV-Job-Fairmont-WV-US-182945996.aspx?intcid=js\', \'newjobsprodseekerus\', \'click on jobview from jobview\')" rel="nofollow" target="_blank" title="View This Job: Security Engineer, Fairmont, WV">\n             Security Engineer, Fairmont, WV\n            </a>\n            <div class="location small text-muted">\n             RCG, Fairmont - WV\n            </div>\n           </li>\n           <li>\n            <a class="cloudJobs" data-m_impr_a_placement_id="rjv1" data-m_impr_j_cid="0" data-m_impr_j_coc="" data-m_impr_j_jawsid="183655488" data-m_impr_j_jobid="" data-m_impr_j_jpm="1" data-m_impr_j_jpt="2" data-m_impr_j_lat="39" data-m_impr_j_lid="663" data-m_impr_j_long="-80" data-m_impr_j_occid="0" data-m_impr_j_p="3" data-m_impr_j_postingid="c7fc1a81-ee59-4a9d-b1eb-3eae794f98da" data-m_impr_j_pvc="862e4105-0757-411b-823c-a018c023f8cd" data-m_impr_s_search_query="" data-m_impr_s_t="RE_EXP6b_JSJ" data-m_impr_uuid="a12bd634-f877-4a63-a45f-39119e164bc6" href="http://job-openings.monster.com/monster/c7fc1a81-ee59-4a9d-b1eb-3eae794f98da?intcid=js" onclick="jobClick(this, \'http://job-openings.monster.com/monster/c7fc1a81-ee59-4a9d-b1eb-3eae794f98da?intcid=js\', \'newjobsprodseekerus\', \'click on jobview from jobview\')" rel="nofollow" target="_blank" title="View This Job: AVON Independent Sales Representative (Part-Time) (Shinnston,WV)">\n             AVON Independent Sales Representative (Part-Time) (Shinnston,WV)\n            </a>\n            <div class="location small text-muted">\n             AVON, Shinnston - WV\n            </div>\n           </li>\n           <li>\n            <a class="cloudJobs" data-m_impr_a_placement_id="rjv1" data-m_impr_j_cid="0" data-m_impr_j_coc="" data-m_impr_j_jawsid="230601621" data-m_impr_j_jobid="" data-m_impr_j_jpm="1" data-m_impr_j_jpt="2" data-m_impr_j_lat="39" data-m_impr_j_lid="663" data-m_impr_j_long="-79" data-m_impr_j_occid="0" data-m_impr_j_p="4" data-m_impr_j_postingid="695c2407-fde1-48f2-b25f-3ca561f40528" data-m_impr_j_pvc="track5autoftpin" data-m_impr_s_search_query="" data-m_impr_s_t="RE_EXP6b_JSJ" data-m_impr_uuid="a0730d96-2264-4819-b649-5a0676750886" href="http://job-openings.monster.com/monster/695c2407-fde1-48f2-b25f-3ca561f40528?intcid=js" onclick="jobClick(this, \'http://job-openings.monster.com/monster/695c2407-fde1-48f2-b25f-3ca561f40528?intcid=js\', \'newjobsprodseekerus\', \'click on jobview from jobview\')" rel="nofollow" target="_blank" title="View This Job: LTC Travel LPN - Grafton, WV">\n             LTC Travel LPN - Grafton, WV\n            </a>\n            <div class="location small text-muted">\n             Cariant Health Partners, Grafton - WV\n            </div>\n           </li>\n           <li>\n            <a class="cloudJobs" data-m_impr_a_placement_id="rjv1" data-m_impr_j_cid="0" data-m_impr_j_coc="" data-m_impr_j_jawsid="230494690" data-m_impr_j_jobid="" data-m_impr_j_jpm="1" data-m_impr_j_jpt="2" data-m_impr_j_lat="39" data-m_impr_j_lid="663" data-m_impr_j_long="-80" data-m_impr_j_occid="0" data-m_impr_j_p="5" data-m_impr_j_postingid="fa27531e-991e-40fc-b28a-c2cfd69dd7b5" data-m_impr_j_pvc="beyondftpin" data-m_impr_s_search_query="" data-m_impr_s_t="RE_EXP6b_JSJ" data-m_impr_uuid="dd43035b-691e-4d88-9399-be639b2aa0e7" href="http://job-openings.monster.com/monster/fa27531e-991e-40fc-b28a-c2cfd69dd7b5?intcid=js" onclick="jobClick(this, \'http://job-openings.monster.com/monster/fa27531e-991e-40fc-b28a-c2cfd69dd7b5?intcid=js\', \'newjobsprodseekerus\', \'click on jobview from jobview\')" rel="nofollow" target="_blank" title="View This Job: Garden Center Merchandiser in Clarksburg, WV">\n             Garden Center Merchandiser in Clarksburg, WV\n            </a>\n            <div class="location small text-muted">\n             Plant Essentials Inc, Clarksburg - WV\n            </div>\n           </li>\n           <li>\n            <a class="cloudJobs" data-m_impr_a_placement_id="rjv1" data-m_impr_j_cid="0" data-m_impr_j_coc="" data-m_impr_j_jawsid="227336176" data-m_impr_j_jobid="" data-m_impr_j_jpm="1" data-m_impr_j_jpt="2" data-m_impr_j_lat="39" data-m_impr_j_lid="663" data-m_impr_j_long="-80" data-m_impr_j_occid="0" data-m_impr_j_p="6" data-m_impr_j_postingid="7c8fbad9-376a-4ad7-a183-49f4a3697ac2" data-m_impr_j_pvc="beyondftpin" data-m_impr_s_search_query="" data-m_impr_s_t="RE_EXP6b_JSJ" data-m_impr_uuid="88b36ab7-c0e0-4a33-8783-b8bccbed8550" href="http://job-openings.monster.com/monster/7c8fbad9-376a-4ad7-a183-49f4a3697ac2?intcid=js" onclick="jobClick(this, \'http://job-openings.monster.com/monster/7c8fbad9-376a-4ad7-a183-49f4a3697ac2?intcid=js\', \'newjobsprodseekerus\', \'click on jobview from jobview\')" rel="nofollow" target="_blank" title="View This Job: Registered Nurse - FT- Bridgeport, WV">\n             Registered Nurse - FT- Bridgeport, WV\n            </a>\n            <div class="location small text-muted">\n             HealthSouth Corporation, Bridgeport - WV\n            </div>\n           </li>\n           <li>\n            <a class="cloudJobs" data-m_impr_a_placement_id="rjv1" data-m_impr_j_cid="0" data-m_impr_j_coc="" data-m_impr_j_jawsid="230604420" data-m_impr_j_jobid="" data-m_impr_j_jpm="1" data-m_impr_j_jpt="2" data-m_impr_j_lat="39" data-m_impr_j_lid="663" data-m_impr_j_long="-80" data-m_impr_j_occid="0" data-m_impr_j_p="7" data-m_impr_j_postingid="54dee234-c66d-438d-98e4-bddffa3846bf" data-m_impr_j_pvc="track5autoftpin" data-m_impr_s_search_query="" data-m_impr_s_t="RE_EXP6b_JSJ" data-m_impr_uuid="bde30bf7-5dbb-4d70-9a7d-500a6b4926ec" href="http://job-openings.monster.com/monster/54dee234-c66d-438d-98e4-bddffa3846bf?intcid=js" onclick="jobClick(this, \'http://job-openings.monster.com/monster/54dee234-c66d-438d-98e4-bddffa3846bf?intcid=js\', \'newjobsprodseekerus\', \'click on jobview from jobview\')" rel="nofollow" target="_blank" title="View This Job: LPN - LTC Needed in Fairmont, WV">\n             LPN - LTC Needed in Fairmont, WV\n            </a>\n            <div class="location small text-muted">\n             Medical Staffing Solutions LLC, Fairmont - WV\n            </div>\n           </li>\n          </ul>\n          <!-- jrs-job=112037168&amp;count=6 -->\n         </div>\n        </div>\n        <div>\n         <h5>\n          More\n         </h5>\n         <a href="http://www.monster.com/jobs/search/?client=power&amp;q=IT/Software Development&amp;where=Clarksburg , WV&amp;intcid=more_jobs_category_location" title="See all IT/Software Development jobs in Clarksburg, WV">\n          See all IT/Software Development jobs in Clarksburg, WV\n         </a>\n         <br/>\n         <a href="http://www.monster.com/jobs/search/?client=power&amp;q=Software/System Architecture&amp;intcid=more_jobs_occupation" title="See all Software/System Architecture jobs">\n          See all Software/System Architecture jobs\n         </a>\n         <br/>\n         <a class="aut-city-search" href="http://www.monster.com/jobs/search/?client=power&amp;where=Clarksburg , WV&amp;intcid=more_jobs_location" title="See all jobs in Clarksburg">\n          See all jobs in Clarksburg\n         </a>\n        </div>\n       </div>\n       <div class="oasAdsContainer">\n        <div>\n         <!-- 1st Section Begins : Delivery via OAS JX Tag -->\n         <script type="text/javascript">\n          window.MonsterAdds = window.MonsterAdds || {};\r\n\r\n            MonsterAdds.writeScript = function (showMobile) {\r\n                //TODO add mobile test if needed, see AdBlock.cshtml\r\n                document.write("<scr" + "ipt type=\'text/javascript\' src=\'//oas.monster.com/RealMedia/ads/adstream_jx.ads/us.monster.en/aggjobview/1731678947@Right3?size=300x250&site=mons&affiliate=Monster&app=js&oas_pv=no_analytics&fb=0&moc=11969&st=WV&pci=Clarksburg&pcy=US&proejc=660&key=IT%2fSoftware+Development&plid=663&pcid=2132&poccid=11969&mesco=1500127001001\'><\\/script>");\r\n            };\r\n\r\n            MonsterAdds.writeScript(true);\n         </script>\n         <!-- 2nd Section Begins : Delivery via OAS NX Tag for non-Javascript Browser -->\n         <noscript>\n          <a href="//oas.monster.com/RealMedia/ads/click_nx.ads/us.monster.en/aggjobview/1427636045@Right3?size=300x250&amp;site=mons&amp;affiliate=Monster&amp;app=js&amp;oas_pv=no_analytics&amp;fb=0&amp;moc=11969&amp;st=WV&amp;pci=Clarksburg&amp;pcy=US&amp;proejc=660&amp;key=IT%2fSoftware+Development&amp;plid=663&amp;pcid=2132&amp;poccid=11969&amp;mesco=1500127001001">\n           <img src="//oas.monster.com/RealMedia/ads/click_nx.ads/us.monster.en/aggjobview/1536236957@Right3?size=300x250&amp;site=mons&amp;affiliate=Monster&amp;app=js&amp;oas_pv=no_analytics&amp;fb=0&amp;moc=11969&amp;st=WV&amp;pci=Clarksburg&amp;pcy=US&amp;proejc=660&amp;key=IT%2fSoftware+Development&amp;plid=663&amp;pcid=2132&amp;poccid=11969&amp;mesco=1500127001001"/>\n          </a>\n         </noscript>\n        </div>\n       </div>\n      </div>\n      <div class="hidden-xs affix-fix">\n      </div>\n     </div>\n    </div>\n    <!-- ./row -->\n    <div class="modal fade" id="subscriptionModal">\n     <div class="modal-dialog">\n      <div class="modal-content">\n       <div class="modal-body">\n        <div class="email-collection promoted">\n         <div class="icon">\n         </div>\n         <h4 class="title">\n          Get new similar jobs by email for\n         </h4>\n         <p class="desc">\n          Computer Scientist (Data Architect) for ABIS in Clarksburg, WV\n         </p>\n         <form action="" aria-hidden="true" class="email-jvsub-collection" data-id="f028aa94-bb4e-4d9b-b957-921a62683f0c" data-remote-subscribe="/LiteReg/JobViewSubscription" data-remote-validation="/LiteReg/IsEmailValid" id="modalForm" method="POST">\n          <div class="row-flex">\n           <div class="col-flex stretch">\n            <input class="form-control input-sm" id="emailAddress" name="emailAddress" placeholder="Please enter your email" type="email"/>\n           </div>\n           <div class="col-flex">\n            <a class="btn btn-sm btn-primary btn-jobsdotcom" data-action="modal-subscription" data-form-selector=".email-jvsub-collection" href="#" rel="nofollow" role="button">\n             Email me jobs\n            </a>\n           </div>\n           <div class="col-flex">\n            <a class="btn btn-link btn-sm" href="#" id="cancelModal">\n             Skip\n            </a>\n           </div>\n          </div>\n         </form>\n        </div>\n       </div>\n       <div class="modal-footer">\n        <span class="help-block small">\n         By continuing you agree to Monster\'s\n         <a href="http://my.monster.com/Privacy/Default.aspx" target="_blank" title="Privacy Policy">\n          Privacy Policy\n         </a>\n         ,\n         <a href="http://my.monster.com/Terms/Default.aspx" target="_blank" title="Terms of Use">\n          Terms of Use\n         </a>\n         and\n         <a href="http://inside.monster.com/cookie-info/inside2.aspx" target="_blank" title="use of cookies">\n          use of cookies\n         </a>\n         .\n        </span>\n       </div>\n       <div class="help-block small alert-success" style="display: none;">\n        You will start receiving jobs like this emailed to: {emailaddress}\n       </div>\n      </div>\n      <!-- /.modal-content -->\n     </div>\n     <!-- /.modal-dialog -->\n    </div>\n    <!-- /.modal -->\n    <script id="ApplySubscriptionThankYou" type="text/template">\n     <p><b>Thank you for applying for:</b><br />Computer Scientist (Data Architect) for ABIS in Clarksburg, WV in Clarksburg, WV 26302</p>\r\n        <p class="text-muted">To check your full apply history, <a href=https://login20.monster.com>log in</a> or <a href=http://my.monster.com/Become-Member/Create-Account>create an account.</a></p>\n    </script>\n    <script type="text/javascript">\n     var script = document.createElement("script");\r\n    script.type = "text/javascript";\r\n    script.async = true;\r\n    script.src = "//nexus.ensighten.com/monster/Bootstrap.js";\r\n    document.head.appendChild(script);\n    </script>\n   </div>\n   <footer class="page-footer">\n    <div class="container">\n     <div class="row">\n      <div class="col-md-12">\n       <!-- Copyright info -->\n       <p class="copy">\n        Copyright \xc2\xa9 2015 |\n        <a href="http://www.monster.com">\n         Monster Worldwide\n        </a>\n       </p>\n      </div>\n     </div>\n    </div>\n   </footer>\n   <script src="/js/jobviewjs?v=Qp96d4MjGz4yVpoQyg3bu08SRTYnAxoYIMyQbxHelEg1">\n   </script>\n   <!--tracking script-->\n   <script src="http://logs.jobs.com/impression_trackingv2.js" type="text/javascript">\n   </script>\n   <script type="text/javascript">\n    monster.controls.add("monster.jv.base.tracking", {"cloudApiDomain":"logs.jobs.com"});\n   </script>\n   <script type="text/javascript">\n    monster.controls.add("monster.jv.base.jobview", {});\n   </script>\n   <script type="text/javascript">\n    monster.controls.add("monster.jv.base.subscription", {});\n   </script>\n   <script type="text/javascript">\n    monster.controls.add("monster.jv.base.subscriptionModal", {});\n   </script>\n   <script type="text/javascript">\n    monster.controls.add("monster.jv.base.banner", {});\n   </script>\n   <script type="text/javascript">\n    monster.controls.add("monster.jv.base.tooltip", {});\n   </script>\n  </div>\n  <!-- Google Analytics Script Start -->\n  <script>\n   (function (i, s, o, g, r, a, m) {\r\n            i[\'GoogleAnalyticsObject\'] = r; i[r] = i[r] || function () {\r\n                (i[r].q = i[r].q || []).push(arguments)\r\n            }, i[r].l = 1 * new Date(); a = s.createElement(o),\r\n            m = s.getElementsByTagName(o)[0]; a.async = 1; a.src = g; m.parentNode.insertBefore(a, m)\r\n        })(window, document, \'script\', \'//www.google-analytics.com/analytics.js\', \'ga\');\r\n\r\n        ga(\'create\', \'UA-41898665-3\', \'jobs.com\');\r\n        ga(\'send\', \'pageview\');\n  </script>\n  <!--Google Analytics Script End -->\n  <script type="text/javascript">\n   monster.eventBus.pub(monster.Events.PAGE_LOAD);\n  </script>\n  <!-- Site Catalyst Start -->\n  <script src="http://media.newjobs.com/js/global/at_1.5.js" type="text/javascript">\n  </script>\n  <script type="text/javascript">\n   var DYNAMIC_S_ACCOUNT = \'newjobsProdseekerUS\';\r\n    var DYNAMIC_S_CURRENCYCODE = \'USD\';\r\n    //<![CDATA[\r\n    var amc = amc || {}; if (!amc.on) { amc.on = amc.call = function () { }; };\r\n    document.write("<scr" + "ipt type=\'text/javascript\' src=\'//media.monster.com/js/sc/sitecatalystLL.js\'></sc" + "ript>");\r\n    //]]>\r\n\r\n    _m.ATM.properties = {"channel":"58","eVar1":"D=g","prop1":"D=g","eVar4":"0","eVar2":"unrecognized","prop22":"N/A-Cloud","prop23":"N/A-Cloud","prop24":"11/22/2015","prop25":"N/A-Cloud","prop26":"N/A-Cloud","eVar25":"f028aa94-bb4e-4d9b-b957-921a62683f0c_Computer Scientist (Data Architect) for ABIS in Clarksburg, WV","eVar26":"b41ea12e_CACI International Inc.","eVar27":"N/A-Cloud","eVar28":"IT/Software Development","eVar29":"N/A-Cloud","eVar30":"Software/System Architecture","eVar31":"Clarksburg_WV_US","eVar32":"N/A-Cloud","eVar33":"N/A-Cloud","eVar35":"CACI International Inc.","eVar36":"App_Cstm","eVar37":"N/A-Cloud","eVar38":"R/L-Apply","eVar47":"2","eVar50":"Aggregated","eVar53":"1500127001001","eVar64":"5310","eVar66":"Monster","events.event3":"1","events.event30":"true","events.event42":"1","eVar61":"Group C JS - newconfirmation.aspx"};\r\n    _m.ATM.pageName = \'desktop|mons|jobs30|jobview\';\r\n    _m.ATM.appConfig = {version:\'0\',appID:\'jobviewcloud\',channelID:\'58\',countryID:\'164\'};\r\n    _m.ATM.runOnLoad=true;\r\n\r\n    $(document).ready(_m.ATM.initFromOnReady);\n  </script>\n  <!-- Site Catalyst End -->\n </body>\n</html>'
tp2
a(S'http://job-openings.monster.com/monster/98e3611f-5cca-4ff5-815d-dcb61275a6ac'
S'<!DOCTYPE html>\n<!--[if lt IE 7]>      <html class="no-js lt-ie9 lt-ie8 lt-ie7"> <![endif]-->\n<!--[if IE 7]>         <html class="no-js lt-ie9 lt-ie8"> <![endif]-->\n<!--[if IE 8]>         <html class="no-js lt-ie9"> <![endif]-->\n<!--[if gt IE 8]><!-->\n<html class="no-js">\n <!--<![endif]-->\n <head>\n  <title>\n   Clinical Research Coordinator - West Virginia University Research Corporation Human Resources | Jobs.com\n  </title>\n  <meta charset="utf-8"/>\n  <meta content="IE=edge,chrome=1" http-equiv="X-UA-Compatible"/>\n  <meta content="text/html; charset=utf-8" http-equiv="Content-Type"/>\n  <meta content="width=device-width, initial-scale=1.0" name="viewport"/>\n  <meta content="West Virginia University Research Corporation Human Resources - Morgantown, WV. Purpose\n\nThis position is critical to the successful conduct of cli" name="description"/>\n  <link href="http://plus.monster.com/+monster" rel="publisher"/>\n  <link href="https://maxcdn.bootstrapcdn.com/bootstrap/3.2.0/css/bootstrap.min.css" rel="stylesheet"/>\n  <link href="https://maxcdn.bootstrapcdn.com/font-awesome/4.2.0/css/font-awesome.min.css" rel="stylesheet"/>\n  <link href="/bundles/monster?v=3VUpvWSKWfcSTe2LCMpXVIfzIyGEJcLvPJMZUFZH8gg1" rel="stylesheet"/>\n  <!-- Favicon -->\n  <link href="http://media.newjobs.com/niche/img/favicon/favicon.ico" rel="shortcut icon"/>\n  <meta content="noindex, nofollow" name="robots"/>\n  <meta content="Monster" name="m_impr.a_affiliate_id"/>\n  <meta content="jobview" name="_ac.page_name"/>\n  <!-- Le HTML5 shim, for IE6-8 support of HTML5 elements -->\n  <!--[if lt IE 9]>\r\n    <script src="/scripts/third_party/html5shiv.js"></script>\r\n    <script src="/scripts/bootstrap/respond.min.js" type="text/javascript"></script>\r\n\r\n    <script type="text/javascript">\r\n        if (!Array.prototype.forEach) {\r\n            Array.prototype.forEach = function (fun /*, thisArg */) {\r\n                "use strict";\r\n                if (this === void 0 || this === null || typeof fun !== "function") throw new TypeError();\r\n\r\n                var\r\n                    t = Object(this),\r\n                    len = t.length >>> 0,\r\n                    thisArg = arguments.length >= 2 ? arguments[1] : void 0;\r\n\r\n                for (var i = 0; i < len; i++)\r\n                    if (i in t)\r\n                        fun.call(thisArg, t[i], i, t);\r\n            };\r\n        }\r\n    </script>\r\n<![endif]-->\n </head>\n <body>\n  <div class="page">\n   <div class="navbar navbar-default navbar-fixed-top">\n    <div class="container">\n     <!--<div class="container">-->\n     <div class="navbar-header" itemscope="" itemtype="http://schema.org/Organization">\n      <a class="navbar-brand" href="http://www.monster.com" itemprop="url">\n       <img alt="monster.com" itemprop="logo" src="/Areas/JobViewCloud/content/images/monster-new.png" title="monster.com"/>\n      </a>\n     </div>\n     <!-- large screen navbar-collapse location -->\n     <div class="navbar-collapse collapse hidden-xs">\n     </div>\n     <!--/.navbar-collapse -->\n    </div>\n    <!-- ./container -->\n   </div>\n   <!-- ./navbar -->\n   <div class="jobview container">\n    <div class="row">\n     <input id="normalized-company-id" type="hidden" value="34701"/>\n     <div class="col-xs-12 col-sm-6 col-md-8 col-lg-8">\n      <article id="jobview">\n       <header class="jobview-header">\n        <h3>\n         Clinical Research Coordinator\n        </h3>\n        <h4 class="company">\n         West Virginia University Research Corporation Human Resources\n         <small class="location">\n          -\n          <i class="fa fa-map-marker">\n          </i>\n          Morgantown, WV 26502\n         </small>\n        </h4>\n        <span class="postedDate">\n         <strong>\n          Posted:\n         </strong>\n         2/16/2017\n        </span>\n       </header>\n       <!-- ./jobview-header -->\n       <div class="jobview-upper-apply-mobile visible-xs row">\n        <div class="col-sm-6">\n         <div class="action-buttons">\n          <input id="trackInfo" type="hidden" value=\'{"emailAddress":"","postingId":"98e3611f-5cca-4ff5-815d-dcb61275a6ac","placementID":null,"jobPosition":0,"uniqueUser":null,"affiliate":"Monster","technology":null}\'/>\n          <a class="btn btn-sm btn-primary btn-jobsdotcom" data-action="apply" data-applyurl="https://rew31.ultipro.com/WES1016/JobBoard/JobDetails.aspx?__ID=*769080E311817E7A" data-atm-id="35" data-confurl="http://job-openings.monster.com/monster/confirmation?postingid=98e3611f-5cca-4ff5-815d-dcb61275a6ac" data-form-selector=".email-collection" href="http://job-openings.monster.com/monster/confirmation?postingid=98e3611f-5cca-4ff5-815d-dcb61275a6ac" rel="nofollow" role="button">\n           Apply Now\n          </a>\n          <form action="https://rew31.ultipro.com/WES1016/JobBoard/JobDetails.aspx?__ID=*769080E311817E7A" aria-hidden="true" class="email-collection hidden panel panel-default" data-id="98e3611f-5cca-4ff5-815d-dcb61275a6ac" data-lrtype="B" data-placement="Left-Bottom-Body" data-position="0" data-remote-subscription="/LiteReg/ApplySubscription" data-remote-validation="/LiteReg/IsEmailValid" data-technology="" method="POST" target="_blank">\n           <div class="panel-body">\n            <div class="row-flex">\n             <div class="col-flex stretch">\n              <input class="form-control input-sm" id="EmailCollectionField2" name="litRegEmailAddress" placeholder="Please enter your email" type="email"/>\n             </div>\n            </div>\n            <label class="control-label" for="EmailCollectionField2">\n             To begin the application, please enter your email\n            </label>\n            <span class="help-block small">\n             By continuing you agree to Monster\'s\n             <a href="http://my.monster.com/Privacy/Default.aspx" target="_blank" title="Privacy Policy">\n              Privacy Policy\n             </a>\n             ,\n             <a href="http://my.monster.com/Terms/Default.aspx" target="_blank" title="Terms of Use">\n              Terms of Use\n             </a>\n             and\n             <a href="http://inside.monster.com/cookie-info/inside2.aspx" target="_blank" title="use of cookies">\n              use of cookies\n             </a>\n             .\n            </span>\n            <button class="sr-only" type="submit">\n             Continue application\n            </button>\n           </div>\n          </form>\n         </div>\n        </div>\n       </div>\n       <div class="jobview-section">\n        Purpose\n        <br/>\n        <br/>\n        This position is critical to the successful conduct of clinical trials. This position is a key role in the completion of all tasks associated with the studies. The incumbent will oversee the conduct of assigned studies as defined per study protocol, and will execute the study from IRB approval through submission of the final report and Case Report Forms.\n        <br/>\n        <br/>\n        This position supervises and coordinates the activities of others and is responsible for the performance of various duties in support of clinical trials. Performs functional operation duties; acts independently, using professional concepts and organizational objectives to effectively address moderate to complex matters. Position duties may require creativity, depth SKAs and interpretive abilities. Work effort has considerable impact on personnel and workflow with potential legal liabilities.\n        <br/>\n        <br/>\n        Duties &amp; Responsibilities\n        <br/>\n        <br/>\n        Responsibilities are supervisory in nature, and performed under limited supervision. Specific tasks include, but are not limited to:\n        <br/>\n        <br/>\n        1) Coordinate all aspects of assigned study.\n        <br/>\n        <br/>\n        2) Supervise the study staff on assigned studies. Direct supervision (i.e. recruitment, selection, performance management, time management) of the Lead Clinical Research Technician and Clinical Research Technicians; and, functional oversight of the Health Care Associates assigned to the study is required.\n        <br/>\n        <br/>\n        3) Ensure protocol review by independent contractors assigned to the study.\n        <br/>\n        <br/>\n        4) Participate in the preparation of study documents/notebooks for use in study execution.\n        <br/>\n        <br/>\n        5) Ensure the execution of studies following the protocol.\n        <br/>\n        <br/>\n        6) Complete the Study Monitor Checklist for assigned studies.\n        <br/>\n        <br/>\n        7) Conduct first QC audit of consent.\n        <br/>\n        <br/>\n        8) Supervise and/or execute the set up for each study.\n        <br/>\n        <br/>\n        9) Execute and/or oversee the entering of entrance and exit physical exams into database.\n        <br/>\n        <br/>\n        10) Conduct QC of study specimen containers prior to study initiation.\n        <br/>\n        <br/>\n        11) Ensure the collection of data and follow the data through the QC process throughout the study.\n        <br/>\n        <br/>\n        12) Ensure maintenance of freezers and the changing of temperature charts at least weekly.\n        <br/>\n        <br/>\n        13) Follow QC procedures throughout the study to ensure accurate capture of all study data and proper handling of study specimens as prescribed by GCP and the sponsor.\n        <br/>\n        <br/>\n        14) Complete data accuracy checklist at the conclusion of each period.\n        <br/>\n        <br/>\n        15) Execute transcription of required Case Report Forms.\n        <br/>\n        <br/>\n        16) Act as back up for transcription of Clinical Study Report.\n        <br/>\n        <br/>\n        17) Ensure resolution of outstanding issues regarding data from each period.\n        <br/>\n        <br/>\n        18) Participate in the process of collecting Adverse Experiences/Events and completing the documentation process and follow-up.\n        <br/>\n        <br/>\n        19) Participate in the execution and design of QC process of study documents for all studies\n        <br/>\n        <br/>\n        20) Review all study protocols prior to study conduct to ensure knowledge in area of job function.\n        <br/>\n        <br/>\n        21) Attend sponsor initiation meetings and execute protocol review meetings with study unit staff.\n        <br/>\n        <br/>\n        22) Build study sessions or perform study sign off in the database.\n        <br/>\n        <br/>\n        23) Work closely with the IT department to ensure required authorizations are obtained for database related needs such as templates, schedules, sessions and randomizations for all studies.\n        <br/>\n        <br/>\n        24) Ensure catering services are scheduled for the study unit.\n        <br/>\n        <br/>\n        25) Perform quality control check on final study reports, including required tables.\n        <br/>\n        <br/>\n        26) Function as sponsor contact and oversee specimen collection, specimen storage, specimen paperwork, release and shipment. QC shipment paperwork.\n        <br/>\n        <br/>\n        27) Ensure the maintenance of DSU equipment, inspections, validation and documentation as per the GCP requirements and regulatory standards.\n        <br/>\n        <br/>\n        28) Develop and streamline DSU policies and procedures for study conduct.\n        <br/>\n        <br/>\n        29) Assist with the preparation and revision of SOP\'s, guidelines, and work instructions for the study unit.\n        <br/>\n        <br/>\n        30) Maintain OSHA compliance in the study unit.\n        <br/>\n        <br/>\n        31) Participate in the quality control of test article dispensation including packaging, dosing and accountability in accordance with SOP\'s and Federal Regulations as delegated by the PI.\n        <br/>\n        <br/>\n        32) Ensure compliance with all applicable regulations (i.e. OSHA, FDA, State and Environmental Health) and ensure proper documentation of all procedures (i.e. equipment inspections and freezer charts) as required by clinical SOP\'s and Federal Regulations.\n        <br/>\n        <br/>\n        33) Works closely with the Data Science Team in the proper progress of the Study Report (CSR) in assuring that the Study Report is meeting its timelines and milestones.\n        <br/>\n        <br/>\n        34) Actively participates in the resolution and tracking of queries issued against the Study report with respect to the internally-generated (QA) versus external-generated (sponsor) queries.\n        <br/>\n        <br/>\n        Supervisory/Lead Role\n        <br/>\n        <br/>\n        This position reports to the Associate Director of Clinical Operations. Normally receives no instructions on routine work, limited instructions on new assignments. Typically determines methods and procedures on new assignments. Supervision of others will be required; and, sharing of knowledge with others and team participation is expected in the role. Program, project or activity lead responsibilities will occur or be assigned in this position.\n        <br/>\n        <br/>\n        Physical Demands\n        <br/>\n        <br/>\n        This position requires manual dexterity used in operating office equipment; requires standing and bending in the assessment and treatment of patients; prolonged periods of sitting and the ability to walk short distances. Work activities may require the use of elevators and/or stairs. Activities are predominantly non-manual though some manual work may be included.\n        <br/>\n        <br/>\n        Work Environment\n        <br/>\n        <br/>\n        Work is performed in a normal clinic/hospital setting. Exposure to diseases, chemical and biologic hazards is possible. Incumbent is responsible to know and follow all safety precautions and procedures.\n        <br/>\n        <br/>\n        The following items have been determined as possible job exposures of this position requiring WVU EHS medical monitoring:\n        <br/>\n        <br/>\n        1) Contact with Human Blood or Other Potentially Infectious Material (OPIM) includes human body fluids other than feces, urine, tears and sweat.\n        <br/>\n        <br/>\n        2) Patient Contact- having contact with a patient, or with potentially contaminated items including (but not limited to) blood and/or body fluids.\n        <br/>\n        <br/>\n        RequirementsRequisite Qualifications\n        <br/>\n        <br/>\n        Education and/or Experience\n        <br/>\n        <br/>\n        1) Bachelors\' degree in an allied health discipline, or a related medical field, or completion of training in a vocational health occupation program;\n        <br/>\n        <br/>\n        2) 5 - 7 years of medical related experience, including 1 - 2 years supervisory experience\n        <br/>\n        <br/>\n        Or\n        <br/>\n        <br/>\n        3) An equivalent combination of education and experience.\n        <br/>\n        <br/>\n        Certifications, Licenses, Registrations\n        <br/>\n        <br/>\n        1) CPR certification\n        <br/>\n        <br/>\n        Skills, Knowledge, Abilities\n        <br/>\n        <br/>\n        1) Strong working knowledge of clinical trials research:\n        <br/>\n        <br/>\n        a. Must possess and apply knowledge of many different and unrelated processes and methods related to such areas as: patient care, treatment design administration and modification, counseling and education data collection, validation, entry, analysis, and reporting, human subjects protection and related issues\n        <br/>\n        <br/>\n        2) Knowledge of principles and processes for providing customer and personal services. This includes customer needs assessment, meeting quality standards for services, and evaluation of customer satisfaction.\n        <br/>\n        <br/>\n        3) Intermediate computer skills and ability to work with database systems.\n        <br/>\n        <br/>\n        4) Excellent time management skills and the ability to prioritize and manage multiple projects simultaneously.\n        <br/>\n        <br/>\n        5) Excellent communication skills.\n        <br/>\n        <br/>\n        6) Ability to establish and follow written standard operating procedures.\n        <br/>\n        <br/>\n        7) Ability to effectively present information and respond to questions from groups of managers, clients, customers, and the general public. Position requires excellent customer service skills and the ability to communicate effectively with patients and families; pharmaceutical company personnel; regulatory and monitoring agency personnel; and, internal staff members.\n        <br/>\n        <br/>\n        8) Ability to develop constructive and cooperative working relationships with others and maintain them over time.\n        <br/>\n        <br/>\n        9) Ability to read, analyze and interpret general business periodicals, professional journals, technical procedures or governmental regulations.\n        <br/>\n        <br/>\n        10) Ability to write reports, business correspondence, and procedure manuals.\n        <br/>\n        <br/>\n        11) Ability to combine pieces of information to form general rules or conclusions (includes finding a relationship among seemingly unrelated events).\n        <br/>\n        <br/>\n        12) Ability to analyze information and evaluate results to choose the best solution, solve practical problems and deal with a variety of concrete variables in situations where only limited standardization exists.\n        <br/>\n        <br/>\n        13) Ability to interpret a variety of instructions furnished in written, oral, diagram or schedule form.\n        <br/>\n        <br/>\n        14) Ability to develop specific goals and plans, to prioritize, organize and accomplish tasks independently and through others.\n        <br/>\n        <br/>\n        Behavioral Competencies\n        <br/>\n        <br/>\n        1) Technical skills \xe2\x80\x93 Strives to continuously build knowledge and skills; pursues training and development opportunities; assess strengths, weaknesses, and shares expertise with others.\n        <br/>\n        <br/>\n        2) Problem solving \xe2\x80\x93 Gathers and analyzes information, identifies problems, develops alternatives, uses reason even when dealing with emotional topics and works well in groups and resolves matters timely.\n        <br/>\n        <br/>\n        3) Internal &amp; External Customer Service \xe2\x80\x93 Manages difficult or emotional matters with objectivity and openness; responds promptly to needs and requests for service and assistance; meets commitments and dates, notifies others if change occurs; provides, solicits and applies feedback; and builds goodwill through balanced contributions, positive approach, respect and support of others.\n        <br/>\n        <br/>\n        4) Communications \xe2\x80\x93 Demonstrates group presentation skills, participates in meetings, listens and gets clarification, is responsive and speaks clearly and persuasively in positive and negative situations. Writes and edits clearly and informatively, varies style to meet needs, presents numerical data effectively, and able to read and interpret written information.\n        <br/>\n        <br/>\n        5) Organizational Support \xe2\x80\x93 Aligns work and develops strategies to meet organizational goals; seeks to improve and promote quality; demonstrates accuracy and thoroughness; and upholds organizational expectations and values.\n        <br/>\n        <br/>\n        6) Self-Management \xe2\x80\x93 Responds to management direction; resourcefully adapts to changes in work environment and circumstances; responds well under pressure and manages competing demands; takes calculated risks, asks for and offers help when needed; exercise discretion and sound judgment; is tactful and responsible for own actions. Adheres to work schedule and complies with leave management responsibilities.\n        <br/>\n        <br/>\n        Preferred Qualifications &amp; Credentials\n        <br/>\n        <br/>\n        Education and/or Experience\n        <br/>\n        <br/>\n        1) Bachelor\'s degree in nursing.\n        <br/>\n        <br/>\n        * AA/EOE/Minorities/Females/Vet/Disability/E-Verify Compliant Employer.\n        <br/>\n        <br/>\n        * Please view Equal Employment Opportunity Posters provided by OFCCP here.\n        <br/>\n        <br/>\n        * The contractor will not discharge or in any other manner discriminate against employees or applicants because they have inquired about, discussed, or disclosed their own pay or the pay of another employee or applicant. However, employees who have access to the compensation information of other employees or applicants as a part of their essential job functions cannot disclose the pay of other employees or applicants to individuals who do not otherwise have access to compensation information, unless the disclosure is (a) in response to a formal complaint or charge, (b) in furtherance of an investigation, proceeding, hearing, or action, including an investigation conducted by the employer, or (c) consistent with the contractor\'s legal duty to furnish information.\n        <br/>\n        <br/>\n        Apply On-lineSend This Job to a Friend\n        <br/>\n        <br/>\n        Copyright \xc2\xa9 Ultimate Software\n       </div>\n       <!-- ./jobview-section -->\n       <div class="hidden-xs jobview-footer row">\n        <div class="col-sm-6">\n         <div class="action-buttons">\n          <input id="trackInfo" type="hidden" value=\'{"emailAddress":"","postingId":"98e3611f-5cca-4ff5-815d-dcb61275a6ac","placementID":null,"jobPosition":0,"uniqueUser":null,"affiliate":"Monster","technology":null}\'/>\n          <a class="btn btn-sm btn-primary btn-jobsdotcom" data-action="apply" data-applyurl="https://rew31.ultipro.com/WES1016/JobBoard/JobDetails.aspx?__ID=*769080E311817E7A" data-atm-id="35" data-confurl="http://job-openings.monster.com/monster/confirmation?postingid=98e3611f-5cca-4ff5-815d-dcb61275a6ac" data-form-selector=".email-collection" href="http://job-openings.monster.com/monster/confirmation?postingid=98e3611f-5cca-4ff5-815d-dcb61275a6ac" rel="nofollow" role="button">\n           Apply Now\n          </a>\n          <form action="https://rew31.ultipro.com/WES1016/JobBoard/JobDetails.aspx?__ID=*769080E311817E7A" aria-hidden="true" class="email-collection hidden panel panel-default" data-id="98e3611f-5cca-4ff5-815d-dcb61275a6ac" data-lrtype="B" data-placement="Left-Bottom-Body" data-position="0" data-remote-subscription="/LiteReg/ApplySubscription" data-remote-validation="/LiteReg/IsEmailValid" data-technology="" method="POST" target="_blank">\n           <div class="panel-body">\n            <div class="row-flex">\n             <div class="col-flex stretch">\n              <input class="form-control input-sm" id="EmailCollectionField2" name="litRegEmailAddress" placeholder="Please enter your email" type="email"/>\n             </div>\n            </div>\n            <label class="control-label" for="EmailCollectionField2">\n             To begin the application, please enter your email\n            </label>\n            <span class="help-block small">\n             By continuing you agree to Monster\'s\n             <a href="http://my.monster.com/Privacy/Default.aspx" target="_blank" title="Privacy Policy">\n              Privacy Policy\n             </a>\n             ,\n             <a href="http://my.monster.com/Terms/Default.aspx" target="_blank" title="Terms of Use">\n              Terms of Use\n             </a>\n             and\n             <a href="http://inside.monster.com/cookie-info/inside2.aspx" target="_blank" title="use of cookies">\n              use of cookies\n             </a>\n             .\n            </span>\n            <button class="sr-only" type="submit">\n             Continue application\n            </button>\n           </div>\n          </form>\n         </div>\n        </div>\n       </div>\n       <!-- ./jobview-footer -->\n      </article>\n      <!-- ./#jobview -->\n     </div>\n     <div class="col-xs-12 col-sm-6 col-md-4 col-lg-4">\n      <div class="jobview-affix">\n       <div style="background-color: #fff;">\n        <input id="trackInfo" type="hidden" value=\'{"emailAddress":"","postingId":"98e3611f-5cca-4ff5-815d-dcb61275a6ac","placementID":null,"jobPosition":0,"uniqueUser":null,"affiliate":"Monster","technology":null}\'/>\n        <form action="https://rew31.ultipro.com/WES1016/JobBoard/JobDetails.aspx?__ID=*769080E311817E7A" aria-hidden="true" class="email-collection hidden" data-id="98e3611f-5cca-4ff5-815d-dcb61275a6ac" data-lrtype="R" data-placement="Right-Top-Rail" data-position="0" data-remote-subscription="/LiteReg/ApplySubscription" data-remote-validation="/LiteReg/IsEmailValid" data-technology="" method="POST" target="_blank">\n         <div class="form-group">\n          <label class="control-label" for="EmailCollectionField1">\n           To begin the application, please enter your email\n          </label>\n          <input class="form-control input-sm" id="EmailCollectionField1" name="litRegEmailAddress" placeholder="Please enter your email" type="email"/>\n         </div>\n         <span class="help-block small">\n          By continuing you agree to Monster\'s\n          <a href="http://my.monster.com/Privacy/Default.aspx" target="_blank" title="Privacy Policy">\n           Privacy Policy\n          </a>\n          ,\n          <a href="http://my.monster.com/Terms/Default.aspx" target="_blank" title="Terms of Use">\n           Terms of Use\n          </a>\n          and\n          <a href="http://inside.monster.com/cookie-info/inside2.aspx" target="_blank" title="use of cookies">\n           use of cookies\n          </a>\n          .\n         </span>\n         <button class="sr-only" type="submit">\n          Continue application\n         </button>\n        </form>\n        <a class="btn btn-sm btn-primary btn-block btn-jobsdotcom" data-action="apply" data-applyurl="https://rew31.ultipro.com/WES1016/JobBoard/JobDetails.aspx?__ID=*769080E311817E7A" data-atm-id="36" data-confurl="http://job-openings.monster.com/monster/confirmation?postingid=98e3611f-5cca-4ff5-815d-dcb61275a6ac" data-form-selector=".email-collection" href="http://job-openings.monster.com/monster/confirmation?postingid=98e3611f-5cca-4ff5-815d-dcb61275a6ac" rel="nofollow" role="button">\n         Apply Now\n        </a>\n        <div class="social-sharing no-logo">\n         <h5>\n          Share this Job\n         </h5>\n         <a href="https://www.twitter.com/share?url=%20&amp;text=Clinical+Research+Coordinator at West+Virginia+University+Research+Corporation+Human+Resources http://job-openings.monster.com/monster/98e3611f-5cca-4ff5-815d-dcb61275a6ac via @monster" target="_blank" title="Share this job on Twitter">\n          <i class="fa fa-2x fa-twitter" style="margin: 0 4px;">\n          </i>\n         </a>\n         <a href="https://plus.google.com/share?url=http://job-openings.monster.com/monster/98e3611f-5cca-4ff5-815d-dcb61275a6ac" target="_blank" title="Share this job on Google+">\n          <i class="fa fa-2x fa-google-plus" style="margin: 0 4px;">\n          </i>\n         </a>\n         <a href="mailto: ?subject=Clinical Research Coordinator - West Virginia University Research Corporation Human Resources | Monster.com&amp;body=West Virginia University Research Corporation Human Resources http://job-openings.monster.com/monster/98e3611f-5cca-4ff5-815d-dcb61275a6ac" title="Share this job via Email">\n          <i class="fa fa-2x fa-envelope-o" style="margin: 0 4px;">\n          </i>\n         </a>\n        </div>\n       </div>\n       <div>\n        <div class="jobview-related-jobs" id="relatedJobs">\n         <div class="related-job-container">\n          <h5>\n           Related Jobs\n          </h5>\n          <ul class="list-unstyled">\n           <li>\n            <a class="cloudJobs" data-m_impr_a_placement_id="rjv1" data-m_impr_j_cid="5625" data-m_impr_j_coc="" data-m_impr_j_jawsid="190523854" data-m_impr_j_jobid="" data-m_impr_j_jpm="1" data-m_impr_j_jpt="2" data-m_impr_j_lat="1323265" data-m_impr_j_lid="576" data-m_impr_j_long="571244" data-m_impr_j_occid="0" data-m_impr_j_p="1" data-m_impr_j_postingid="6af9e457-b598-4668-8989-47900dbf80c6" data-m_impr_j_pvc="82766566-544a-4501-b5bf-d5bd2021f176" data-m_impr_s_search_query="" data-m_impr_s_t="RE_RE" data-m_impr_uuid="e6ffc9a0-38ca-4610-b891-a3fd8e326150" href="http://job-openings.monster.com/monster/6af9e457-b598-4668-8989-47900dbf80c6?intcid=" onclick="jobClick(this, \'http://job-openings.monster.com/monster/6af9e457-b598-4668-8989-47900dbf80c6?intcid=\', \'newjobsprodseekerus\', \'click on jobview from jobview\')" rel="nofollow" target="_blank" title="View This Job: Truck Driver - CDL - Class A - Experienced">\n             Truck Driver - CDL - Class A - Experienced\n            </a>\n            <div class="location small text-muted">\n             Swift Transportation, Medford - OR\n            </div>\n           </li>\n           <li>\n            <a class="cloudJobs" data-m_impr_a_placement_id="rjv1" data-m_impr_j_cid="3975" data-m_impr_j_coc="xppg_8398826x " data-m_impr_j_jawsid="226403782" data-m_impr_j_jobid="182357318" data-m_impr_j_jpm="1" data-m_impr_j_jpt="1" data-m_impr_j_lat="0" data-m_impr_j_lid="663" data-m_impr_j_long="0" data-m_impr_j_occid="0" data-m_impr_j_p="2" data-m_impr_j_postingid="5e4f293a-ef07-48dd-bc8c-34b91335948c" data-m_impr_j_pvc="monster" data-m_impr_s_search_query="" data-m_impr_s_t="RE_RE_JSJ_CR" data-m_impr_uuid="47f2f91b-d7a7-408d-bed5-65d2cdd37a7f" href="http://jobview.local-jobs.monster.com/Director-of-Laboratory-Pathology-Services-Job-Bridgeport-WV-US-182357318.aspx?ch=newsppg&amp;intcid=js" onclick="jobClick(this, \'http://jobview.local-jobs.monster.com/Director-of-Laboratory-Pathology-Services-Job-Bridgeport-WV-US-182357318.aspx?ch=newsppg&amp;intcid=js\', \'newjobsprodseekerus\', \'click on jobview from jobview\')" rel="nofollow" target="_blank" title="View This Job: Director of Laboratory and Pathology Services">\n             Director of Laboratory and Pathology Services\n            </a>\n            <div class="location small text-muted">\n             United Hospital Center, Bridgeport - WV\n            </div>\n           </li>\n           <li>\n            <a class="cloudJobs" data-m_impr_a_placement_id="rjv1" data-m_impr_j_cid="3975" data-m_impr_j_coc="xppg_8398826x " data-m_impr_j_jawsid="225747140" data-m_impr_j_jobid="182231090" data-m_impr_j_jpm="1" data-m_impr_j_jpt="1" data-m_impr_j_lat="0" data-m_impr_j_lid="663" data-m_impr_j_long="0" data-m_impr_j_occid="0" data-m_impr_j_p="3" data-m_impr_j_postingid="df999133-569d-4fa0-a369-f566a51d0fc8" data-m_impr_j_pvc="monster" data-m_impr_s_search_query="" data-m_impr_s_t="RE_RE_JSJ_CR" data-m_impr_uuid="cef7d6dc-9327-4474-a27f-1325d718e3ec" href="http://jobview.local-jobs.monster.com/Director-of-Laboratory-Pathology-Services-Job-Bridgeport-WV-US-182231090.aspx?ch=newsppg&amp;intcid=js" onclick="jobClick(this, \'http://jobview.local-jobs.monster.com/Director-of-Laboratory-Pathology-Services-Job-Bridgeport-WV-US-182231090.aspx?ch=newsppg&amp;intcid=js\', \'newjobsprodseekerus\', \'click on jobview from jobview\')" rel="nofollow" target="_blank" title="View This Job: Director of Laboratory and Pathology Services">\n             Director of Laboratory and Pathology Services\n            </a>\n            <div class="location small text-muted">\n             United Hospital Center, Bridgeport - WV\n            </div>\n           </li>\n           <li>\n            <a class="cloudJobs" data-m_impr_a_placement_id="rjv1" data-m_impr_j_cid="5" data-m_impr_j_coc="" data-m_impr_j_jawsid="225997606" data-m_impr_j_jobid="" data-m_impr_j_jpm="1" data-m_impr_j_jpt="2" data-m_impr_j_lat="0" data-m_impr_j_lid="663" data-m_impr_j_long="0" data-m_impr_j_occid="0" data-m_impr_j_p="4" data-m_impr_j_postingid="723495a3-af1b-428a-980c-846b3d59935f" data-m_impr_j_pvc="adiciopremium" data-m_impr_s_search_query="" data-m_impr_s_t="RE_RE_JSJ_CR" data-m_impr_uuid="7b7f32d1-c6e5-4ca6-a448-a002fb61027f" href="http://job-openings.monster.com/monster/723495a3-af1b-428a-980c-846b3d59935f?intcid=js" onclick="jobClick(this, \'http://job-openings.monster.com/monster/723495a3-af1b-428a-980c-846b3d59935f?intcid=js\', \'newjobsprodseekerus\', \'click on jobview from jobview\')" rel="nofollow" target="_blank" title="View This Job: Director of Laboratory and Pathology Services">\n             Director of Laboratory and Pathology Services\n            </a>\n            <div class="location small text-muted">\n             United Hospital Center, Bridgeport - WV\n            </div>\n           </li>\n           <li>\n            <a class="cloudJobs" data-m_impr_a_placement_id="rjv1" data-m_impr_j_cid="5" data-m_impr_j_coc="" data-m_impr_j_jawsid="226720967" data-m_impr_j_jobid="" data-m_impr_j_jpm="1" data-m_impr_j_jpt="2" data-m_impr_j_lat="0" data-m_impr_j_lid="663" data-m_impr_j_long="0" data-m_impr_j_occid="0" data-m_impr_j_p="5" data-m_impr_j_postingid="41a44514-b6ac-4e8c-862b-8b8a9dd95e90" data-m_impr_j_pvc="adiciopremium" data-m_impr_s_search_query="" data-m_impr_s_t="RE_RE_JSJ_CR" data-m_impr_uuid="30ca124b-3491-40d9-9ed9-1570c4cb4d9e" href="http://job-openings.monster.com/monster/41a44514-b6ac-4e8c-862b-8b8a9dd95e90?intcid=js" onclick="jobClick(this, \'http://job-openings.monster.com/monster/41a44514-b6ac-4e8c-862b-8b8a9dd95e90?intcid=js\', \'newjobsprodseekerus\', \'click on jobview from jobview\')" rel="nofollow" target="_blank" title="View This Job: Director of Laboratory and Pathology Services">\n             Director of Laboratory and Pathology Services\n            </a>\n            <div class="location small text-muted">\n             United Hospital Center, Bridgeport - WV\n            </div>\n           </li>\n           <li>\n            <a class="cloudJobs" data-m_impr_a_placement_id="rjv1" data-m_impr_j_cid="3975" data-m_impr_j_coc="x1-11vsoux " data-m_impr_j_jawsid="224931894" data-m_impr_j_jobid="182143869" data-m_impr_j_jpm="1" data-m_impr_j_jpt="1" data-m_impr_j_lat="0" data-m_impr_j_lid="893" data-m_impr_j_long="0" data-m_impr_j_occid="0" data-m_impr_j_p="6" data-m_impr_j_postingid="46c42c66-ebcb-4236-a9ee-921c83c3b50f" data-m_impr_j_pvc="monster" data-m_impr_s_search_query="" data-m_impr_s_t="RE_RE_JSJ_CR" data-m_impr_uuid="b4514e1a-4e7e-4a6a-af02-7e913557bc7e" href="http://jobview.local-jobs.monster.com/Manager-Pharmacovigilance-Job-Burlington-MA-US-182143869.aspx?ch=ghnortheast&amp;intcid=js" onclick="jobClick(this, \'http://jobview.local-jobs.monster.com/Manager-Pharmacovigilance-Job-Burlington-MA-US-182143869.aspx?ch=ghnortheast&amp;intcid=js\', \'newjobsprodseekerus\', \'click on jobview from jobview\')" rel="nofollow" target="_blank" title="View This Job: Manager, Pharmacovigilance">\n             Manager, Pharmacovigilance\n            </a>\n            <div class="location small text-muted">\n             Private, Burlington - MA\n            </div>\n           </li>\n           <li>\n            <a class="cloudJobs" data-m_impr_a_placement_id="rjv1" data-m_impr_j_cid="559" data-m_impr_j_coc="xw268000791wx " data-m_impr_j_jawsid="225065793" data-m_impr_j_jobid="182165506" data-m_impr_j_jpm="1" data-m_impr_j_jpt="1" data-m_impr_j_lat="0" data-m_impr_j_lid="532" data-m_impr_j_long="0" data-m_impr_j_occid="0" data-m_impr_j_p="7" data-m_impr_j_postingid="e5a2e505-300e-479e-8f4c-d33d1d124203" data-m_impr_j_pvc="monster" data-m_impr_s_search_query="" data-m_impr_s_t="RE_RE_JSJ_CR" data-m_impr_uuid="7b35cb4e-16af-4a2a-94e8-93d4188ec4f4" href="http://jobview.monster.com/Clinical-Research-Coordinator-Job-Pennington-NJ-US-182165506.aspx?intcid=js" onclick="jobClick(this, \'http://jobview.monster.com/Clinical-Research-Coordinator-Job-Pennington-NJ-US-182165506.aspx?intcid=js\', \'newjobsprodseekerus\', \'click on jobview from jobview\')" rel="nofollow" target="_blank" title="View This Job: Clinical Research Coordinator">\n             Clinical Research Coordinator\n            </a>\n            <div class="location small text-muted">\n             Matossian Eye Associates, Pennington - NJ\n            </div>\n           </li>\n          </ul>\n          <!-- jrs-job=215868898&amp;count=6 -->\n         </div>\n        </div>\n        <div>\n         <h5>\n          More\n         </h5>\n         <a href="http://www.monster.com/jobs/search/?client=power&amp;q=Engineering&amp;where=Morgantown , WV&amp;intcid=more_jobs_category_location" title="See all Engineering jobs in Morgantown, WV">\n          See all Engineering jobs in Morgantown, WV\n         </a>\n         <br/>\n         <a href="http://www.monster.com/jobs/search/?client=power&amp;q=Industrial/Manufacturing Engineering&amp;intcid=more_jobs_occupation" title="See all Industrial/Manufacturing Engineering jobs">\n          See all Industrial/Manufacturing Engineering jobs\n         </a>\n         <br/>\n         <a class="aut-city-search" href="http://www.monster.com/jobs/search/?client=power&amp;where=Morgantown , WV&amp;intcid=more_jobs_location" title="See all jobs in Morgantown">\n          See all jobs in Morgantown\n         </a>\n        </div>\n       </div>\n       <div class="oasAdsContainer">\n        <div>\n         <!-- 1st Section Begins : Delivery via OAS JX Tag -->\n         <script type="text/javascript">\n          window.MonsterAdds = window.MonsterAdds || {};\r\n\r\n            MonsterAdds.writeScript = function (showMobile) {\r\n                //TODO add mobile test if needed, see AdBlock.cshtml\r\n                document.write("<scr" + "ipt type=\'text/javascript\' src=\'//oas.monster.com/RealMedia/ads/adstream_jx.ads/us.monster.en/aggjobview/1626412540@Right3?size=300x250&site=mons&affiliate=Monster&app=js&oas_pv=no_analytics&fb=0&moc=11838&st=WV&pci=Morgantown&pcy=US&proejc=4&key=Engineering&plid=663&pcid=2128&poccid=11838&mesco=1100049001001\'><\\/script>");\r\n            };\r\n\r\n            MonsterAdds.writeScript(true);\n         </script>\n         <!-- 2nd Section Begins : Delivery via OAS NX Tag for non-Javascript Browser -->\n         <noscript>\n          <a href="//oas.monster.com/RealMedia/ads/click_nx.ads/us.monster.en/aggjobview/11937412919@Right3?size=300x250&amp;site=mons&amp;affiliate=Monster&amp;app=js&amp;oas_pv=no_analytics&amp;fb=0&amp;moc=11838&amp;st=WV&amp;pci=Morgantown&amp;pcy=US&amp;proejc=4&amp;key=Engineering&amp;plid=663&amp;pcid=2128&amp;poccid=11838&amp;mesco=1100049001001">\n           <img src="//oas.monster.com/RealMedia/ads/click_nx.ads/us.monster.en/aggjobview/11557851306@Right3?size=300x250&amp;site=mons&amp;affiliate=Monster&amp;app=js&amp;oas_pv=no_analytics&amp;fb=0&amp;moc=11838&amp;st=WV&amp;pci=Morgantown&amp;pcy=US&amp;proejc=4&amp;key=Engineering&amp;plid=663&amp;pcid=2128&amp;poccid=11838&amp;mesco=1100049001001"/>\n          </a>\n         </noscript>\n        </div>\n       </div>\n      </div>\n      <div class="hidden-xs affix-fix">\n      </div>\n     </div>\n    </div>\n    <!-- ./row -->\n    <div class="modal fade" id="subscriptionModal">\n     <div class="modal-dialog">\n      <div class="modal-content">\n       <div class="modal-body">\n        <div class="email-collection promoted">\n         <div class="icon">\n         </div>\n         <h4 class="title">\n          Get new similar jobs by email for\n         </h4>\n         <p class="desc">\n          Clinical Research Coordinator\n         </p>\n         <form action="" aria-hidden="true" class="email-jvsub-collection" data-id="98e3611f-5cca-4ff5-815d-dcb61275a6ac" data-remote-subscribe="/LiteReg/JobViewSubscription" data-remote-validation="/LiteReg/IsEmailValid" id="modalForm" method="POST">\n          <div class="row-flex">\n           <div class="col-flex stretch">\n            <input class="form-control input-sm" id="emailAddress" name="emailAddress" placeholder="Please enter your email" type="email"/>\n           </div>\n           <div class="col-flex">\n            <a class="btn btn-sm btn-primary btn-jobsdotcom" data-action="modal-subscription" data-form-selector=".email-jvsub-collection" href="#" rel="nofollow" role="button">\n             Email me jobs\n            </a>\n           </div>\n           <div class="col-flex">\n            <a class="btn btn-link btn-sm" href="#" id="cancelModal">\n             Skip\n            </a>\n           </div>\n          </div>\n         </form>\n        </div>\n       </div>\n       <div class="modal-footer">\n        <span class="help-block small">\n         By continuing you agree to Monster\'s\n         <a href="http://my.monster.com/Privacy/Default.aspx" target="_blank" title="Privacy Policy">\n          Privacy Policy\n         </a>\n         ,\n         <a href="http://my.monster.com/Terms/Default.aspx" target="_blank" title="Terms of Use">\n          Terms of Use\n         </a>\n         and\n         <a href="http://inside.monster.com/cookie-info/inside2.aspx" target="_blank" title="use of cookies">\n          use of cookies\n         </a>\n         .\n        </span>\n       </div>\n       <div class="help-block small alert-success" style="display: none;">\n        You will start receiving jobs like this emailed to: {emailaddress}\n       </div>\n      </div>\n      <!-- /.modal-content -->\n     </div>\n     <!-- /.modal-dialog -->\n    </div>\n    <!-- /.modal -->\n    <script id="ApplySubscriptionThankYou" type="text/template">\n     <p><b>Thank you for applying for:</b><br />Clinical Research Coordinator in Morgantown, WV 26502</p>\r\n        <p class="text-muted">To check your full apply history, <a href=https://login20.monster.com>log in</a> or <a href=http://my.monster.com/Become-Member/Create-Account>create an account.</a></p>\n    </script>\n    <script type="text/javascript">\n     var script = document.createElement("script");\r\n    script.type = "text/javascript";\r\n    script.async = true;\r\n    script.src = "//nexus.ensighten.com/monster/Bootstrap.js";\r\n    document.head.appendChild(script);\n    </script>\n   </div>\n   <footer class="page-footer">\n    <div class="container">\n     <div class="row">\n      <div class="col-md-12">\n       <!-- Copyright info -->\n       <p class="copy">\n        Copyright \xc2\xa9 2015 |\n        <a href="http://www.monster.com">\n         Monster Worldwide\n        </a>\n       </p>\n      </div>\n     </div>\n    </div>\n   </footer>\n   <script src="/js/jobviewjs?v=Qp96d4MjGz4yVpoQyg3bu08SRTYnAxoYIMyQbxHelEg1">\n   </script>\n   <!--tracking script-->\n   <script src="http://logs.jobs.com/impression_trackingv2.js" type="text/javascript">\n   </script>\n   <script type="text/javascript">\n    monster.controls.add("monster.jv.base.tracking", {"cloudApiDomain":"logs.jobs.com"});\n   </script>\n   <script type="text/javascript">\n    monster.controls.add("monster.jv.base.jobview", {});\n   </script>\n   <script type="text/javascript">\n    monster.controls.add("monster.jv.base.subscription", {});\n   </script>\n   <script type="text/javascript">\n    monster.controls.add("monster.jv.base.subscriptionModal", {});\n   </script>\n   <script type="text/javascript">\n    monster.controls.add("monster.jv.base.banner", {});\n   </script>\n   <script type="text/javascript">\n    monster.controls.add("monster.jv.base.tooltip", {});\n   </script>\n  </div>\n  <!-- Google Analytics Script Start -->\n  <script>\n   (function (i, s, o, g, r, a, m) {\r\n            i[\'GoogleAnalyticsObject\'] = r; i[r] = i[r] || function () {\r\n                (i[r].q = i[r].q || []).push(arguments)\r\n            }, i[r].l = 1 * new Date(); a = s.createElement(o),\r\n            m = s.getElementsByTagName(o)[0]; a.async = 1; a.src = g; m.parentNode.insertBefore(a, m)\r\n        })(window, document, \'script\', \'//www.google-analytics.com/analytics.js\', \'ga\');\r\n\r\n        ga(\'create\', \'UA-41898665-3\', \'jobs.com\');\r\n        ga(\'send\', \'pageview\');\n  </script>\n  <!--Google Analytics Script End -->\n  <script type="text/javascript">\n   monster.eventBus.pub(monster.Events.PAGE_LOAD);\n  </script>\n  <!-- Site Catalyst Start -->\n  <script src="http://media.newjobs.com/js/global/at_1.5.js" type="text/javascript">\n  </script>\n  <script type="text/javascript">\n   var DYNAMIC_S_ACCOUNT = \'newjobsProdseekerUS\';\r\n    var DYNAMIC_S_CURRENCYCODE = \'USD\';\r\n    //<![CDATA[\r\n    var amc = amc || {}; if (!amc.on) { amc.on = amc.call = function () { }; };\r\n    document.write("<scr" + "ipt type=\'text/javascript\' src=\'//media.monster.com/js/sc/sitecatalystLL.js\'></sc" + "ript>");\r\n    //]]>\r\n\r\n    _m.ATM.properties = {"channel":"58","eVar1":"D=g","prop1":"D=g","eVar4":"0","eVar2":"unrecognized","prop22":"N/A-Cloud","prop23":"N/A-Cloud","prop24":"1/1/0001","prop25":"N/A-Cloud","prop26":"N/A-Cloud","eVar25":"98e3611f-5cca-4ff5-815d-dcb61275a6ac_Clinical Research Coordinator","eVar26":"7d5618c7_West Virginia University Research Corporation Human Resources","eVar27":"N/A-Cloud","eVar28":"Engineering","eVar29":"N/A-Cloud","eVar30":"Industrial/Manufacturing Engineering","eVar31":"Morgantown_WV_US","eVar32":"N/A-Cloud","eVar33":"N/A-Cloud","eVar35":"West Virginia University Research Corporation Human Resources","eVar36":"App_Cstm","eVar37":"N/A-Cloud","eVar38":"R/L-Apply","eVar47":"2","eVar50":"Aggregated","eVar53":"1100049001001","eVar64":"34701","eVar66":"Monster","events.event3":"1","events.event30":"true","events.event42":"1","eVar61":"Group B RE - newconfirmation.aspx"};\r\n    _m.ATM.pageName = \'desktop|mons|jobs30|jobview\';\r\n    _m.ATM.appConfig = {version:\'0\',appID:\'jobviewcloud\',channelID:\'58\',countryID:\'164\'};\r\n    _m.ATM.runOnLoad=true;\r\n\r\n    $(document).ready(_m.ATM.initFromOnReady);\n  </script>\n  <!-- Site Catalyst End -->\n </body>\n</html>'
tp3
a(S'http://job-openings.monster.com/monster/791aab9c-68fc-45d0-bef4-d43bc2f8d694'
p4
S'<!DOCTYPE html>\n<!--[if lt IE 7]>      <html class="no-js lt-ie9 lt-ie8 lt-ie7"> <![endif]-->\n<!--[if IE 7]>         <html class="no-js lt-ie9 lt-ie8"> <![endif]-->\n<!--[if IE 8]>         <html class="no-js lt-ie9"> <![endif]-->\n<!--[if gt IE 8]><!-->\n<html class="no-js">\n <!--<![endif]-->\n <head>\n  <title>\n   Clinical Research Coordinator - West Virginia University Research Corporation | Jobs.com\n  </title>\n  <meta charset="utf-8"/>\n  <meta content="IE=edge,chrome=1" http-equiv="X-UA-Compatible"/>\n  <meta content="text/html; charset=utf-8" http-equiv="Content-Type"/>\n  <meta content="width=device-width, initial-scale=1.0" name="viewport"/>\n  <meta content="West Virginia University Research Corporation - Morgantown, WV. Requisition Number16-0028" name="description"/>\n  <link href="http://plus.monster.com/+monster" rel="publisher"/>\n  <link href="https://maxcdn.bootstrapcdn.com/bootstrap/3.2.0/css/bootstrap.min.css" rel="stylesheet"/>\n  <link href="https://maxcdn.bootstrapcdn.com/font-awesome/4.2.0/css/font-awesome.min.css" rel="stylesheet"/>\n  <link href="/bundles/monster?v=3VUpvWSKWfcSTe2LCMpXVIfzIyGEJcLvPJMZUFZH8gg1" rel="stylesheet"/>\n  <!-- Favicon -->\n  <link href="http://media.newjobs.com/niche/img/favicon/favicon.ico" rel="shortcut icon"/>\n  <meta content="noindex, nofollow" name="robots"/>\n  <meta content="Monster" name="m_impr.a_affiliate_id"/>\n  <meta content="jobview" name="_ac.page_name"/>\n  <!-- Le HTML5 shim, for IE6-8 support of HTML5 elements -->\n  <!--[if lt IE 9]>\r\n    <script src="/scripts/third_party/html5shiv.js"></script>\r\n    <script src="/scripts/bootstrap/respond.min.js" type="text/javascript"></script>\r\n\r\n    <script type="text/javascript">\r\n        if (!Array.prototype.forEach) {\r\n            Array.prototype.forEach = function (fun /*, thisArg */) {\r\n                "use strict";\r\n                if (this === void 0 || this === null || typeof fun !== "function") throw new TypeError();\r\n\r\n                var\r\n                    t = Object(this),\r\n                    len = t.length >>> 0,\r\n                    thisArg = arguments.length >= 2 ? arguments[1] : void 0;\r\n\r\n                for (var i = 0; i < len; i++)\r\n                    if (i in t)\r\n                        fun.call(thisArg, t[i], i, t);\r\n            };\r\n        }\r\n    </script>\r\n<![endif]-->\n </head>\n <body>\n  <div class="page">\n   <div class="navbar navbar-default navbar-fixed-top">\n    <div class="container">\n     <!--<div class="container">-->\n     <div class="navbar-header" itemscope="" itemtype="http://schema.org/Organization">\n      <a class="navbar-brand" href="http://www.monster.com" itemprop="url">\n       <img alt="monster.com" itemprop="logo" src="/Areas/JobViewCloud/content/images/monster-new.png" title="monster.com"/>\n      </a>\n     </div>\n     <!-- large screen navbar-collapse location -->\n     <div class="navbar-collapse collapse hidden-xs">\n     </div>\n     <!--/.navbar-collapse -->\n    </div>\n    <!-- ./container -->\n   </div>\n   <!-- ./navbar -->\n   <div class="jobview container">\n    <div class="row">\n     <input id="normalized-company-id" type="hidden" value="34701"/>\n     <div class="col-xs-12 col-sm-6 col-md-8 col-lg-8">\n      <article id="jobview">\n       <header class="jobview-header">\n        <h3>\n         Clinical Research Coordinator\n        </h3>\n        <h4 class="company">\n         West Virginia University Research Corporation\n         <small class="location">\n          -\n          <i class="fa fa-map-marker">\n          </i>\n          Morgantown, WV\n         </small>\n        </h4>\n        <span class="postedDate">\n         <strong>\n          Posted:\n         </strong>\n         3/3/2017\n        </span>\n       </header>\n       <!-- ./jobview-header -->\n       <div class="jobview-upper-apply-mobile visible-xs row">\n        <div class="col-sm-6">\n         <div class="action-buttons">\n          <input id="trackInfo" type="hidden" value=\'{"emailAddress":"","postingId":"791aab9c-68fc-45d0-bef4-d43bc2f8d694","placementID":null,"jobPosition":0,"uniqueUser":null,"affiliate":"Monster","technology":null}\'/>\n          <a class="btn btn-sm btn-primary btn-jobsdotcom" data-action="apply" data-applyurl="https://rew31.ultipro.com/WES1016/JobBoard/JobDetails.aspx?__ID=*769080E311817E7A" data-atm-id="35" data-confurl="http://job-openings.monster.com/monster/confirmation?postingid=791aab9c-68fc-45d0-bef4-d43bc2f8d694" data-form-selector=".email-collection" href="http://job-openings.monster.com/monster/confirmation?postingid=791aab9c-68fc-45d0-bef4-d43bc2f8d694" rel="nofollow" role="button">\n           Apply Now\n          </a>\n          <form action="https://rew31.ultipro.com/WES1016/JobBoard/JobDetails.aspx?__ID=*769080E311817E7A" aria-hidden="true" class="email-collection hidden panel panel-default" data-id="791aab9c-68fc-45d0-bef4-d43bc2f8d694" data-lrtype="B" data-placement="Left-Bottom-Body" data-position="0" data-remote-subscription="/LiteReg/ApplySubscription" data-remote-validation="/LiteReg/IsEmailValid" data-technology="" method="POST" target="_blank">\n           <div class="panel-body">\n            <div class="row-flex">\n             <div class="col-flex stretch">\n              <input class="form-control input-sm" id="EmailCollectionField2" name="litRegEmailAddress" placeholder="Please enter your email" type="email"/>\n             </div>\n            </div>\n            <label class="control-label" for="EmailCollectionField2">\n             To begin the application, please enter your email\n            </label>\n            <span class="help-block small">\n             By continuing you agree to Monster\'s\n             <a href="http://my.monster.com/Privacy/Default.aspx" target="_blank" title="Privacy Policy">\n              Privacy Policy\n             </a>\n             ,\n             <a href="http://my.monster.com/Terms/Default.aspx" target="_blank" title="Terms of Use">\n              Terms of Use\n             </a>\n             and\n             <a href="http://inside.monster.com/cookie-info/inside2.aspx" target="_blank" title="use of cookies">\n              use of cookies\n             </a>\n             .\n            </span>\n            <button class="sr-only" type="submit">\n             Continue application\n            </button>\n           </div>\n          </form>\n         </div>\n        </div>\n       </div>\n       <div class="jobview-section">\n        <table>\n         <tbody>\n          <tr>\n          </tr>\n          <tr>\n           <td>\n            Requisition Number\n           </td>\n           <td>\n            16-0028\n           </td>\n          </tr>\n          <tr>\n           <td>\n            Post Date\n           </td>\n           <td>\n            2/19/2016\n           </td>\n          </tr>\n          <tr>\n           <td>\n            Title\n           </td>\n           <td>\n            Clinical Research Coordinator\n           </td>\n          </tr>\n          <tr>\n           <td>\n            Position Type\n           </td>\n           <td>\n            Full Time\n           </td>\n          </tr>\n          <tr>\n           <td>\n            Work Hours\n           </td>\n           <td>\n            40\n           </td>\n          </tr>\n          <tr>\n           <td>\n            City\n           </td>\n           <td>\n            Morgantown\n           </td>\n          </tr>\n          <tr>\n           <td>\n            State\n           </td>\n           <td>\n            WV\n           </td>\n          </tr>\n          <tr>\n           <td>\n            Description\n           </td>\n           <td>\n            Purpose\n            <br/>\n            This position is critical to the successful conduct of clinical trials. This position is a key role in the completion of all tasks associated with the studies. The incumbent will oversee the conduct of assigned studies as defined per study protocol, and will execute the study from IRB approval through submission of the final report and Case Report Forms.\n            <br/>\n            <br/>\n            This position supervises and coordinates the activities of others and is responsible for the performance of various duties in support of clinical trials. Performs functional operation duties; acts independently, using professional concepts and organizational objectives to effectively address moderate to complex matters. Position duties may require creativity, depth SKAs and interpretive abilities. Work effort has considerable impact on personnel and workflow with potential legal liabilities.\n            <br/>\n            <br/>\n            Duties &amp; Responsibilities\n            <br/>\n            Responsibilities are supervisory in nature, and performed under limited supervision. Specific tasks include, but are not limited to:\n            <br/>\n            1) Coordinate all aspects of assigned study.\n            <br/>\n            2) Supervise the study staff on assigned studies. Direct supervision (i.e. recruitment, selection, performance management, time management) of the Lead Clinical Research Technician and Clinical Research Technicians; and, functional oversight of the Health Care Associates assigned to the study is required.\n            <br/>\n            3) Ensure protocol review by independent contractors assigned to the study.\n            <br/>\n            4) Participate in the preparation of study documents/notebooks for use in study execution.\n            <br/>\n            5) Ensure the execution of studies following the protocol.\n            <br/>\n            6) Complete the Study Monitor Checklist for assigned studies.\n            <br/>\n            7) Conduct first QC audit of consent.\n            <br/>\n            8) Supervise and/or execute the set up for each study.\n            <br/>\n            9) Execute and/or oversee the entering of entrance and exit physical exams into database.\n            <br/>\n            10) Conduct QC of study specimen containers prior to study initiation.\n            <br/>\n            11) Ensure the collection of data and follow the data through the QC process throughout the study.\n            <br/>\n            12) Ensure maintenance of freezers and the changing of temperature charts at least weekly.\n            <br/>\n            13) Follow QC procedures throughout the study to ensure accurate capture of all study data and proper handling of study specimens as prescribed by GCP and the sponsor.\n            <br/>\n            14) Complete data accuracy checklist at the conclusion of each period.\n            <br/>\n            15) Execute transcription of required Case Report Forms.\n            <br/>\n            16) Act as back up for transcription of Clinical Study Report.\n            <br/>\n            17) Ensure resolution of outstanding issues regarding data from each period.\n            <br/>\n            18) Participate in the process of collecting Adverse Experiences/Events and completing the documentation process and follow-up.\n            <br/>\n            19) Participate in the execution and design of QC process of study documents for all studies\n            <br/>\n            20) Review all study protocols prior to study conduct to ensure knowledge in area of job function.\n            <br/>\n            21) Attend sponsor initiation meetings and execute protocol review meetings with study unit staff.\n            <br/>\n            22) Build study sessions or perform study sign off in the database.\n            <br/>\n            23) Work closely with the IT department to ensure required authorizations are obtained for database related needs such as templates, schedules, sessions and randomizations for all studies.\n            <br/>\n            24) Ensure catering services are scheduled for the study unit.\n            <br/>\n            25) Perform quality control check on final study reports, including required tables.\n            <br/>\n            26) Function as sponsor contact and oversee specimen collection, specimen storage, specimen paperwork, release and shipment. QC shipment paperwork.\n            <br/>\n            27) Ensure the maintenance of DSU equipment, inspections, validation and documentation as per the GCP requirements and regulatory standards.\n            <br/>\n            28) Develop and streamline DSU policies and procedures for study conduct.\n            <br/>\n            29) Assist with the preparation and revision of SOP\xe2\x80\x99s, guidelines, and work instructions for the study unit.\n            <br/>\n            30) Maintain OSHA compliance in the study unit.\n            <br/>\n            31) Participate in the quality control of test article dispensation including packaging, dosing and accountability in accordance with SOP\xe2\x80\x99s and Federal Regulations as delegated by the PI.\n            <br/>\n            32) Ensure compliance with all applicable regulations (i.e. OSHA, FDA, State and Environmental Health) and ensure proper documentation of all procedures (i.e. equipment inspections and freezer charts) as required by clinical SOP\'s and Federal Regulations.\n            <br/>\n            33) Works closely with the Data Science Team in the proper progress of the Study Report (CSR) in assuring that the Study Report is meeting its timelines and milestones.\n            <br/>\n            34) Actively participates in the resolution and tracking of queries issued against the Study report with respect to the internally-generated (QA) versus external-generated (sponsor) queries.\n            <br/>\n            <br/>\n            Supervisory/Lead Role\n            <br/>\n            This position reports to the Associate Director of Clinical Operations. Normally receives no instructions on routine work, limited instructions on new assignments. Typically determines methods and procedures on new assignments. Supervision of others will be required; and, sharing of knowledge with others and team participation is expected in the role. Program, project or activity lead responsibilities will occur or be assigned in this position.\n            <br/>\n            <br/>\n            Physical Demands\n            <br/>\n            This position requires manual dexterity used in operating office equipment; requires standing and bending in the assessment and treatment of patients; prolonged periods of sitting and the ability to walk short distances. Work activities may require the use of elevators and/or stairs. Activities are predominantly non-manual though some manual work may be included.\n            <br/>\n            <br/>\n            Work Environment\n            <br/>\n            Work is performed in a normal clinic/hospital setting. Exposure to diseases, chemical and biologic hazards is possible. Incumbent is responsible to know and follow all safety precautions and procedures.\n            <br/>\n            <br/>\n            The following items have been determined as possible job exposures of this position requiring WVU EHS medical monitoring:\n            <br/>\n            <br/>\n            1) Contact with Human Blood or Other Potentially Infectious Material (OPIM) includes human body fluids other than feces, urine, tears and sweat.\n            <br/>\n            2) Patient Contact- having contact with a patient, or with potentially contaminated items including (but not limited to) blood and/or body fluids.\n            <br/>\n           </td>\n          </tr>\n          <tr>\n           <td>\n            Requirements\n           </td>\n           <td>\n            Requisite Qualifications\n            <br/>\n            Education and/or Experience\n            <br/>\n            1) Bachelors\xe2\x80\x99 degree in an allied health discipline, or a related medical field, or completion of training in a vocational health occupation program;\n            <br/>\n            2) 5 - 7 years of medical related experience, including 1 - 2 years supervisory experience\n            <br/>\n            Or\n            <br/>\n            3) An equivalent combination of education and experience.\n            <br/>\n            <br/>\n            Certifications, Licenses, Registrations\n            <br/>\n            1) CPR certification\n            <br/>\n            <br/>\n            Skills, Knowledge, Abilities\n            <br/>\n            1) Strong working knowledge of clinical trials research:\n            <br/>\n            a. Must possess and apply knowledge of many different and unrelated processes and methods related to such areas as: patient care, treatment design administration and modification, counseling and education data collection, validation, entry, analysis, and reporting, human subjects protection and related issues\n            <br/>\n            2) Knowledge of principles and processes for providing customer and personal services. This includes customer needs assessment, meeting quality standards for services, and evaluation of customer satisfaction.\n            <br/>\n            3) Intermediate computer skills and ability to work with database systems.\n            <br/>\n            4) Excellent time management skills and the ability to prioritize and manage multiple projects simultaneously.\n            <br/>\n            5) Excellent communication skills.\n            <br/>\n            6) Ability to establish and follow written standard operating procedures.\n            <br/>\n            7) Ability to effectively present information and respond to questions from groups of managers, clients, customers, and the general public. Position requires excellent customer service skills and the ability to communicate effectively with patients and families; pharmaceutical company personnel; regulatory and monitoring agency personnel; and, internal staff members.\n            <br/>\n            8) Ability to develop constructive and cooperative working relationships with others and maintain them over time.\n            <br/>\n            9) Ability to read, analyze and interpret general business periodicals, professional journals, technical procedures or governmental regulations.\n            <br/>\n            10) Ability to write reports, business correspondence, and procedure manuals.\n            <br/>\n            11) Ability to combine pieces of information to form general rules or conclusions (includes finding a relationship among seemingly unrelated events).\n            <br/>\n            12) Ability to analyze information and evaluate results to choose the best solution, solve practical problems and deal with a variety of concrete variables in situations where only limited standardization exists.\n            <br/>\n            13) Ability to interpret a variety of instructions furnished in written, oral, diagram or schedule form.\n            <br/>\n            14) Ability to develop specific goals and plans, to prioritize, organize and accomplish tasks independently and through others.\n            <br/>\n            <br/>\n            Behavioral Competencies\n            <br/>\n            1) Technical skills \xe2\x80\x93 Strives to continuously build knowledge and skills; pursues training and development opportunities; assess strengths, weaknesses, and shares expertise with others.\n            <br/>\n            2) Problem solving \xe2\x80\x93 Gathers and analyzes information, identifies problems, develops alternatives, uses reason even when dealing with emotional topics and works well in groups and resolves matters timely.\n            <br/>\n            3) Internal &amp; External Customer Service \xe2\x80\x93 Manages difficult or emotional matters with objectivity and openness; responds promptly to needs and requests for service and assistance; meets commitments and dates, notifies others if change occurs; provides, solicits and applies feedback; and builds goodwill through balanced contributions, positive approach, respect and support of others.\n            <br/>\n            4) Communications \xe2\x80\x93 Demonstrates group presentation skills, participates in meetings, listens and gets clarification, is responsive and speaks clearly and persuasively in positive and negative situations. Writes and edits clearly and informatively, varies style to meet needs, presents numerical data effectively, and able to read and interpret written information.\n            <br/>\n            5) Organizational Support \xe2\x80\x93 Aligns work and develops strategies to meet organizational goals; seeks to improve and promote quality; demonstrates accuracy and thoroughness; and upholds organizational expectations and values.\n            <br/>\n            6) Self-Management \xe2\x80\x93 Responds to management direction; resourcefully adapts to changes in work environment and circumstances; responds well under pressure and manages competing demands; takes calculated risks, asks for and offers help when needed; exercise discretion and sound judgment; is tactful and responsible for own actions. Adheres to work schedule and complies with leave management responsibilities.\n            <br/>\n            <br/>\n            Preferred Qualifications &amp; Credentials\n            <br/>\n            Education and/or Experience\n            <br/>\n            1) Bachelor\xe2\x80\x99s degree in nursing.\n            <br/>\n            <br/>\n           </td>\n          </tr>\n          <tr>\n           <td colspan="2">\n            <ul>\n             <li>\n              AA/EOE/Minorities/Females/Vet/Disability/E-Verify Compliant Employer.\n             </li>\n             <li>\n              Please view Equal Employment Opportunity Posters provided by OFCCP here.\n             </li>\n             <li>\n              The contractor will not discharge or in any other manner discriminate against employees or applicants because they have inquired about, discussed, or disclosed their own pay or the pay of another employee or applicant. However, employees who have access to the compensation information of other employees or applicants as a part of their essential job functions cannot disclose the pay of other employees or applicants to individuals who do not otherwise have access to compensation information, unless the disclosure is (a) in response to a formal complaint or charge, (b) in furtherance of an investigation, proceeding, hearing, or action, including an investigation conducted by the employer, or (c) consistent with the contractor\'s legal duty to furnish information.\n             </li>\n            </ul>\n           </td>\n          </tr>\n          <tr>\n           <td>\n           </td>\n           <td>\n           </td>\n          </tr>\n          <tr>\n           <td>\n           </td>\n           <td>\n           </td>\n          </tr>\n         </tbody>\n        </table>\n       </div>\n       <!-- ./jobview-section -->\n       <div class="hidden-xs jobview-footer row">\n        <div class="col-sm-6">\n         <div class="action-buttons">\n          <input id="trackInfo" type="hidden" value=\'{"emailAddress":"","postingId":"791aab9c-68fc-45d0-bef4-d43bc2f8d694","placementID":null,"jobPosition":0,"uniqueUser":null,"affiliate":"Monster","technology":null}\'/>\n          <a class="btn btn-sm btn-primary btn-jobsdotcom" data-action="apply" data-applyurl="https://rew31.ultipro.com/WES1016/JobBoard/JobDetails.aspx?__ID=*769080E311817E7A" data-atm-id="35" data-confurl="http://job-openings.monster.com/monster/confirmation?postingid=791aab9c-68fc-45d0-bef4-d43bc2f8d694" data-form-selector=".email-collection" href="http://job-openings.monster.com/monster/confirmation?postingid=791aab9c-68fc-45d0-bef4-d43bc2f8d694" rel="nofollow" role="button">\n           Apply Now\n          </a>\n          <form action="https://rew31.ultipro.com/WES1016/JobBoard/JobDetails.aspx?__ID=*769080E311817E7A" aria-hidden="true" class="email-collection hidden panel panel-default" data-id="791aab9c-68fc-45d0-bef4-d43bc2f8d694" data-lrtype="B" data-placement="Left-Bottom-Body" data-position="0" data-remote-subscription="/LiteReg/ApplySubscription" data-remote-validation="/LiteReg/IsEmailValid" data-technology="" method="POST" target="_blank">\n           <div class="panel-body">\n            <div class="row-flex">\n             <div class="col-flex stretch">\n              <input class="form-control input-sm" id="EmailCollectionField2" name="litRegEmailAddress" placeholder="Please enter your email" type="email"/>\n             </div>\n            </div>\n            <label class="control-label" for="EmailCollectionField2">\n             To begin the application, please enter your email\n            </label>\n            <span class="help-block small">\n             By continuing you agree to Monster\'s\n             <a href="http://my.monster.com/Privacy/Default.aspx" target="_blank" title="Privacy Policy">\n              Privacy Policy\n             </a>\n             ,\n             <a href="http://my.monster.com/Terms/Default.aspx" target="_blank" title="Terms of Use">\n              Terms of Use\n             </a>\n             and\n             <a href="http://inside.monster.com/cookie-info/inside2.aspx" target="_blank" title="use of cookies">\n              use of cookies\n             </a>\n             .\n            </span>\n            <button class="sr-only" type="submit">\n             Continue application\n            </button>\n           </div>\n          </form>\n         </div>\n        </div>\n       </div>\n       <!-- ./jobview-footer -->\n      </article>\n      <!-- ./#jobview -->\n     </div>\n     <div class="col-xs-12 col-sm-6 col-md-4 col-lg-4">\n      <div class="jobview-affix">\n       <div style="background-color: #fff;">\n        <input id="trackInfo" type="hidden" value=\'{"emailAddress":"","postingId":"791aab9c-68fc-45d0-bef4-d43bc2f8d694","placementID":null,"jobPosition":0,"uniqueUser":null,"affiliate":"Monster","technology":null}\'/>\n        <form action="https://rew31.ultipro.com/WES1016/JobBoard/JobDetails.aspx?__ID=*769080E311817E7A" aria-hidden="true" class="email-collection hidden" data-id="791aab9c-68fc-45d0-bef4-d43bc2f8d694" data-lrtype="R" data-placement="Right-Top-Rail" data-position="0" data-remote-subscription="/LiteReg/ApplySubscription" data-remote-validation="/LiteReg/IsEmailValid" data-technology="" method="POST" target="_blank">\n         <div class="form-group">\n          <label class="control-label" for="EmailCollectionField1">\n           To begin the application, please enter your email\n          </label>\n          <input class="form-control input-sm" id="EmailCollectionField1" name="litRegEmailAddress" placeholder="Please enter your email" type="email"/>\n         </div>\n         <span class="help-block small">\n          By continuing you agree to Monster\'s\n          <a href="http://my.monster.com/Privacy/Default.aspx" target="_blank" title="Privacy Policy">\n           Privacy Policy\n          </a>\n          ,\n          <a href="http://my.monster.com/Terms/Default.aspx" target="_blank" title="Terms of Use">\n           Terms of Use\n          </a>\n          and\n          <a href="http://inside.monster.com/cookie-info/inside2.aspx" target="_blank" title="use of cookies">\n           use of cookies\n          </a>\n          .\n         </span>\n         <button class="sr-only" type="submit">\n          Continue application\n         </button>\n        </form>\n        <a class="btn btn-sm btn-primary btn-block btn-jobsdotcom" data-action="apply" data-applyurl="https://rew31.ultipro.com/WES1016/JobBoard/JobDetails.aspx?__ID=*769080E311817E7A" data-atm-id="36" data-confurl="http://job-openings.monster.com/monster/confirmation?postingid=791aab9c-68fc-45d0-bef4-d43bc2f8d694" data-form-selector=".email-collection" href="http://job-openings.monster.com/monster/confirmation?postingid=791aab9c-68fc-45d0-bef4-d43bc2f8d694" rel="nofollow" role="button">\n         Apply Now\n        </a>\n        <div class="social-sharing no-logo">\n         <h5>\n          Share this Job\n         </h5>\n         <a href="https://www.twitter.com/share?url=%20&amp;text=Clinical+Research+Coordinator at West+Virginia+University+Research+Corporation http://job-openings.monster.com/monster/791aab9c-68fc-45d0-bef4-d43bc2f8d694 via @monster" target="_blank" title="Share this job on Twitter">\n          <i class="fa fa-2x fa-twitter" style="margin: 0 4px;">\n          </i>\n         </a>\n         <a href="https://plus.google.com/share?url=http://job-openings.monster.com/monster/791aab9c-68fc-45d0-bef4-d43bc2f8d694" target="_blank" title="Share this job on Google+">\n          <i class="fa fa-2x fa-google-plus" style="margin: 0 4px;">\n          </i>\n         </a>\n         <a href="mailto: ?subject=Clinical Research Coordinator - West Virginia University Research Corporation | Monster.com&amp;body=West Virginia University Research Corporation http://job-openings.monster.com/monster/791aab9c-68fc-45d0-bef4-d43bc2f8d694" title="Share this job via Email">\n          <i class="fa fa-2x fa-envelope-o" style="margin: 0 4px;">\n          </i>\n         </a>\n        </div>\n       </div>\n       <div>\n        <div class="jobview-related-jobs" id="relatedJobs">\n         <div class="related-job-container">\n          <h5>\n           Related Jobs\n          </h5>\n          <ul class="list-unstyled">\n           <li>\n            <a class="cloudJobs" data-m_impr_a_placement_id="rjv1" data-m_impr_j_cid="3975" data-m_impr_j_coc="xppg_8398826x " data-m_impr_j_jawsid="226403782" data-m_impr_j_jobid="182357318" data-m_impr_j_jpm="1" data-m_impr_j_jpt="1" data-m_impr_j_lat="0" data-m_impr_j_lid="663" data-m_impr_j_long="0" data-m_impr_j_occid="0" data-m_impr_j_p="1" data-m_impr_j_postingid="5e4f293a-ef07-48dd-bc8c-34b91335948c" data-m_impr_j_pvc="monster" data-m_impr_s_search_query="" data-m_impr_s_t="RE_EXP6b_JSJ_CR" data-m_impr_uuid="3b9c9be6-07e1-44d4-b5be-2072c38c7746" href="http://jobview.local-jobs.monster.com/Director-of-Laboratory-Pathology-Services-Job-Bridgeport-WV-US-182357318.aspx?ch=newsppg&amp;intcid=js" onclick="jobClick(this, \'http://jobview.local-jobs.monster.com/Director-of-Laboratory-Pathology-Services-Job-Bridgeport-WV-US-182357318.aspx?ch=newsppg&amp;intcid=js\', \'newjobsprodseekerus\', \'click on jobview from jobview\')" rel="nofollow" target="_blank" title="View This Job: Director of Laboratory and Pathology Services">\n             Director of Laboratory and Pathology Services\n            </a>\n            <div class="location small text-muted">\n             United Hospital Center, Bridgeport - WV\n            </div>\n           </li>\n           <li>\n            <a class="cloudJobs" data-m_impr_a_placement_id="rjv1" data-m_impr_j_cid="3975" data-m_impr_j_coc="xppg_8398826x " data-m_impr_j_jawsid="225747140" data-m_impr_j_jobid="182231090" data-m_impr_j_jpm="1" data-m_impr_j_jpt="1" data-m_impr_j_lat="0" data-m_impr_j_lid="663" data-m_impr_j_long="0" data-m_impr_j_occid="0" data-m_impr_j_p="2" data-m_impr_j_postingid="df999133-569d-4fa0-a369-f566a51d0fc8" data-m_impr_j_pvc="monster" data-m_impr_s_search_query="" data-m_impr_s_t="RE_EXP6b_JSJ_CR" data-m_impr_uuid="6d16abc3-5c9f-426d-a0e8-7ec2c36c1229" href="http://jobview.local-jobs.monster.com/Director-of-Laboratory-Pathology-Services-Job-Bridgeport-WV-US-182231090.aspx?ch=newsppg&amp;intcid=js" onclick="jobClick(this, \'http://jobview.local-jobs.monster.com/Director-of-Laboratory-Pathology-Services-Job-Bridgeport-WV-US-182231090.aspx?ch=newsppg&amp;intcid=js\', \'newjobsprodseekerus\', \'click on jobview from jobview\')" rel="nofollow" target="_blank" title="View This Job: Director of Laboratory and Pathology Services">\n             Director of Laboratory and Pathology Services\n            </a>\n            <div class="location small text-muted">\n             United Hospital Center, Bridgeport - WV\n            </div>\n           </li>\n           <li>\n            <a class="cloudJobs" data-m_impr_a_placement_id="rjv1" data-m_impr_j_cid="5" data-m_impr_j_coc="" data-m_impr_j_jawsid="225997606" data-m_impr_j_jobid="" data-m_impr_j_jpm="1" data-m_impr_j_jpt="2" data-m_impr_j_lat="0" data-m_impr_j_lid="663" data-m_impr_j_long="0" data-m_impr_j_occid="0" data-m_impr_j_p="3" data-m_impr_j_postingid="723495a3-af1b-428a-980c-846b3d59935f" data-m_impr_j_pvc="adiciopremium" data-m_impr_s_search_query="" data-m_impr_s_t="RE_EXP6b_JSJ_CR" data-m_impr_uuid="6b696814-7bc6-4d8a-bc0d-09db3ebf1930" href="http://job-openings.monster.com/monster/723495a3-af1b-428a-980c-846b3d59935f?intcid=js" onclick="jobClick(this, \'http://job-openings.monster.com/monster/723495a3-af1b-428a-980c-846b3d59935f?intcid=js\', \'newjobsprodseekerus\', \'click on jobview from jobview\')" rel="nofollow" target="_blank" title="View This Job: Director of Laboratory and Pathology Services">\n             Director of Laboratory and Pathology Services\n            </a>\n            <div class="location small text-muted">\n             United Hospital Center, Bridgeport - WV\n            </div>\n           </li>\n           <li>\n            <a class="cloudJobs" data-m_impr_a_placement_id="rjv1" data-m_impr_j_cid="5" data-m_impr_j_coc="" data-m_impr_j_jawsid="226720967" data-m_impr_j_jobid="" data-m_impr_j_jpm="1" data-m_impr_j_jpt="2" data-m_impr_j_lat="0" data-m_impr_j_lid="663" data-m_impr_j_long="0" data-m_impr_j_occid="0" data-m_impr_j_p="4" data-m_impr_j_postingid="41a44514-b6ac-4e8c-862b-8b8a9dd95e90" data-m_impr_j_pvc="adiciopremium" data-m_impr_s_search_query="" data-m_impr_s_t="RE_EXP6b_JSJ_CR" data-m_impr_uuid="5ec9a924-7f93-45fa-a227-2ece2aa73179" href="http://job-openings.monster.com/monster/41a44514-b6ac-4e8c-862b-8b8a9dd95e90?intcid=js" onclick="jobClick(this, \'http://job-openings.monster.com/monster/41a44514-b6ac-4e8c-862b-8b8a9dd95e90?intcid=js\', \'newjobsprodseekerus\', \'click on jobview from jobview\')" rel="nofollow" target="_blank" title="View This Job: Director of Laboratory and Pathology Services">\n             Director of Laboratory and Pathology Services\n            </a>\n            <div class="location small text-muted">\n             United Hospital Center, Bridgeport - WV\n            </div>\n           </li>\n           <li>\n            <a class="cloudJobs" data-m_impr_a_placement_id="rjv1" data-m_impr_j_cid="3975" data-m_impr_j_coc="x1-11vsoux " data-m_impr_j_jawsid="224931894" data-m_impr_j_jobid="182143869" data-m_impr_j_jpm="1" data-m_impr_j_jpt="1" data-m_impr_j_lat="0" data-m_impr_j_lid="893" data-m_impr_j_long="0" data-m_impr_j_occid="0" data-m_impr_j_p="5" data-m_impr_j_postingid="46c42c66-ebcb-4236-a9ee-921c83c3b50f" data-m_impr_j_pvc="monster" data-m_impr_s_search_query="" data-m_impr_s_t="RE_EXP6b_JSJ_CR" data-m_impr_uuid="1e08a357-2fc0-41f1-8b8b-fff99139c992" href="http://jobview.local-jobs.monster.com/Manager-Pharmacovigilance-Job-Burlington-MA-US-182143869.aspx?ch=ghnortheast&amp;intcid=js" onclick="jobClick(this, \'http://jobview.local-jobs.monster.com/Manager-Pharmacovigilance-Job-Burlington-MA-US-182143869.aspx?ch=ghnortheast&amp;intcid=js\', \'newjobsprodseekerus\', \'click on jobview from jobview\')" rel="nofollow" target="_blank" title="View This Job: Manager, Pharmacovigilance">\n             Manager, Pharmacovigilance\n            </a>\n            <div class="location small text-muted">\n             Private, Burlington - MA\n            </div>\n           </li>\n           <li>\n            <a class="cloudJobs" data-m_impr_a_placement_id="rjv1" data-m_impr_j_cid="559" data-m_impr_j_coc="xw268000791wx " data-m_impr_j_jawsid="225065793" data-m_impr_j_jobid="182165506" data-m_impr_j_jpm="1" data-m_impr_j_jpt="1" data-m_impr_j_lat="0" data-m_impr_j_lid="532" data-m_impr_j_long="0" data-m_impr_j_occid="0" data-m_impr_j_p="6" data-m_impr_j_postingid="e5a2e505-300e-479e-8f4c-d33d1d124203" data-m_impr_j_pvc="monster" data-m_impr_s_search_query="" data-m_impr_s_t="RE_EXP6b_JSJ_CR" data-m_impr_uuid="bcc2b97f-3dca-4c64-a3e9-69f20e85a4b5" href="http://jobview.monster.com/Clinical-Research-Coordinator-Job-Pennington-NJ-US-182165506.aspx?intcid=js" onclick="jobClick(this, \'http://jobview.monster.com/Clinical-Research-Coordinator-Job-Pennington-NJ-US-182165506.aspx?intcid=js\', \'newjobsprodseekerus\', \'click on jobview from jobview\')" rel="nofollow" target="_blank" title="View This Job: Clinical Research Coordinator">\n             Clinical Research Coordinator\n            </a>\n            <div class="location small text-muted">\n             Matossian Eye Associates, Pennington - NJ\n            </div>\n           </li>\n          </ul>\n          <!-- jrs-job=219705949&amp;count=6 -->\n         </div>\n        </div>\n        <div>\n         <h5>\n          More\n         </h5>\n         <a href="http://www.monster.com/jobs/search/?client=power&amp;q=Engineering&amp;where=Morgantown , WV&amp;intcid=more_jobs_category_location" title="See all Engineering jobs in Morgantown, WV">\n          See all Engineering jobs in Morgantown, WV\n         </a>\n         <br/>\n         <a href="http://www.monster.com/jobs/search/?client=power&amp;q=Industrial/Manufacturing Engineering&amp;intcid=more_jobs_occupation" title="See all Industrial/Manufacturing Engineering jobs">\n          See all Industrial/Manufacturing Engineering jobs\n         </a>\n         <br/>\n         <a class="aut-city-search" href="http://www.monster.com/jobs/search/?client=power&amp;where=Morgantown , WV&amp;intcid=more_jobs_location" title="See all jobs in Morgantown">\n          See all jobs in Morgantown\n         </a>\n        </div>\n       </div>\n       <div class="oasAdsContainer">\n        <div>\n         <!-- 1st Section Begins : Delivery via OAS JX Tag -->\n         <script type="text/javascript">\n          window.MonsterAdds = window.MonsterAdds || {};\r\n\r\n            MonsterAdds.writeScript = function (showMobile) {\r\n                //TODO add mobile test if needed, see AdBlock.cshtml\r\n                document.write("<scr" + "ipt type=\'text/javascript\' src=\'//oas.monster.com/RealMedia/ads/adstream_jx.ads/us.monster.en/aggjobview/11276991421@Right3?size=300x250&site=mons&affiliate=Monster&app=js&oas_pv=no_analytics&fb=0&moc=11838&st=WV&pci=Morgantown&pcy=US&proejc=4&key=Engineering&plid=663&pcid=2128&poccid=11838&mesco=1100049001001\'><\\/script>");\r\n            };\r\n\r\n            MonsterAdds.writeScript(true);\n         </script>\n         <!-- 2nd Section Begins : Delivery via OAS NX Tag for non-Javascript Browser -->\n         <noscript>\n          <a href="//oas.monster.com/RealMedia/ads/click_nx.ads/us.monster.en/aggjobview/11738914927@Right3?size=300x250&amp;site=mons&amp;affiliate=Monster&amp;app=js&amp;oas_pv=no_analytics&amp;fb=0&amp;moc=11838&amp;st=WV&amp;pci=Morgantown&amp;pcy=US&amp;proejc=4&amp;key=Engineering&amp;plid=663&amp;pcid=2128&amp;poccid=11838&amp;mesco=1100049001001">\n           <img src="//oas.monster.com/RealMedia/ads/click_nx.ads/us.monster.en/aggjobview/1515642448@Right3?size=300x250&amp;site=mons&amp;affiliate=Monster&amp;app=js&amp;oas_pv=no_analytics&amp;fb=0&amp;moc=11838&amp;st=WV&amp;pci=Morgantown&amp;pcy=US&amp;proejc=4&amp;key=Engineering&amp;plid=663&amp;pcid=2128&amp;poccid=11838&amp;mesco=1100049001001"/>\n          </a>\n         </noscript>\n        </div>\n       </div>\n      </div>\n      <div class="hidden-xs affix-fix">\n      </div>\n     </div>\n    </div>\n    <!-- ./row -->\n    <div class="modal fade" id="subscriptionModal">\n     <div class="modal-dialog">\n      <div class="modal-content">\n       <div class="modal-body">\n        <div class="email-collection promoted">\n         <div class="icon">\n         </div>\n         <h4 class="title">\n          Get new similar jobs by email for\n         </h4>\n         <p class="desc">\n          Clinical Research Coordinator\n         </p>\n         <form action="" aria-hidden="true" class="email-jvsub-collection" data-id="791aab9c-68fc-45d0-bef4-d43bc2f8d694" data-remote-subscribe="/LiteReg/JobViewSubscription" data-remote-validation="/LiteReg/IsEmailValid" id="modalForm" method="POST">\n          <div class="row-flex">\n           <div class="col-flex stretch">\n            <input class="form-control input-sm" id="emailAddress" name="emailAddress" placeholder="Please enter your email" type="email"/>\n           </div>\n           <div class="col-flex">\n            <a class="btn btn-sm btn-primary btn-jobsdotcom" data-action="modal-subscription" data-form-selector=".email-jvsub-collection" href="#" rel="nofollow" role="button">\n             Email me jobs\n            </a>\n           </div>\n           <div class="col-flex">\n            <a class="btn btn-link btn-sm" href="#" id="cancelModal">\n             Skip\n            </a>\n           </div>\n          </div>\n         </form>\n        </div>\n       </div>\n       <div class="modal-footer">\n        <span class="help-block small">\n         By continuing you agree to Monster\'s\n         <a href="http://my.monster.com/Privacy/Default.aspx" target="_blank" title="Privacy Policy">\n          Privacy Policy\n         </a>\n         ,\n         <a href="http://my.monster.com/Terms/Default.aspx" target="_blank" title="Terms of Use">\n          Terms of Use\n         </a>\n         and\n         <a href="http://inside.monster.com/cookie-info/inside2.aspx" target="_blank" title="use of cookies">\n          use of cookies\n         </a>\n         .\n        </span>\n       </div>\n       <div class="help-block small alert-success" style="display: none;">\n        You will start receiving jobs like this emailed to: {emailaddress}\n       </div>\n      </div>\n      <!-- /.modal-content -->\n     </div>\n     <!-- /.modal-dialog -->\n    </div>\n    <!-- /.modal -->\n    <script id="ApplySubscriptionThankYou" type="text/template">\n     <p><b>Thank you for applying for:</b><br />Clinical Research Coordinator in Morgantown, WV</p>\r\n        <p class="text-muted">To check your full apply history, <a href=https://login20.monster.com>log in</a> or <a href=http://my.monster.com/Become-Member/Create-Account>create an account.</a></p>\n    </script>\n    <script type="text/javascript">\n     var script = document.createElement("script");\r\n    script.type = "text/javascript";\r\n    script.async = true;\r\n    script.src = "//nexus.ensighten.com/monster/Bootstrap.js";\r\n    document.head.appendChild(script);\n    </script>\n   </div>\n   <footer class="page-footer">\n    <div class="container">\n     <div class="row">\n      <div class="col-md-12">\n       <!-- Copyright info -->\n       <p class="copy">\n        Copyright \xc2\xa9 2015 |\n        <a href="http://www.monster.com">\n         Monster Worldwide\n        </a>\n       </p>\n      </div>\n     </div>\n    </div>\n   </footer>\n   <script src="/js/jobviewjs?v=Qp96d4MjGz4yVpoQyg3bu08SRTYnAxoYIMyQbxHelEg1">\n   </script>\n   <!--tracking script-->\n   <script src="http://logs.jobs.com/impression_trackingv2.js" type="text/javascript">\n   </script>\n   <script type="text/javascript">\n    monster.controls.add("monster.jv.base.tracking", {"cloudApiDomain":"logs.jobs.com"});\n   </script>\n   <script type="text/javascript">\n    monster.controls.add("monster.jv.base.jobview", {});\n   </script>\n   <script type="text/javascript">\n    monster.controls.add("monster.jv.base.subscription", {});\n   </script>\n   <script type="text/javascript">\n    monster.controls.add("monster.jv.base.subscriptionModal", {});\n   </script>\n   <script type="text/javascript">\n    monster.controls.add("monster.jv.base.banner", {});\n   </script>\n   <script type="text/javascript">\n    monster.controls.add("monster.jv.base.tooltip", {});\n   </script>\n  </div>\n  <!-- Google Analytics Script Start -->\n  <script>\n   (function (i, s, o, g, r, a, m) {\r\n            i[\'GoogleAnalyticsObject\'] = r; i[r] = i[r] || function () {\r\n                (i[r].q = i[r].q || []).push(arguments)\r\n            }, i[r].l = 1 * new Date(); a = s.createElement(o),\r\n            m = s.getElementsByTagName(o)[0]; a.async = 1; a.src = g; m.parentNode.insertBefore(a, m)\r\n        })(window, document, \'script\', \'//www.google-analytics.com/analytics.js\', \'ga\');\r\n\r\n        ga(\'create\', \'UA-41898665-3\', \'jobs.com\');\r\n        ga(\'send\', \'pageview\');\n  </script>\n  <!--Google Analytics Script End -->\n  <script type="text/javascript">\n   monster.eventBus.pub(monster.Events.PAGE_LOAD);\n  </script>\n  <!-- Site Catalyst Start -->\n  <script src="http://media.newjobs.com/js/global/at_1.5.js" type="text/javascript">\n  </script>\n  <script type="text/javascript">\n   var DYNAMIC_S_ACCOUNT = \'newjobsProdseekerUS\';\r\n    var DYNAMIC_S_CURRENCYCODE = \'USD\';\r\n    //<![CDATA[\r\n    var amc = amc || {}; if (!amc.on) { amc.on = amc.call = function () { }; };\r\n    document.write("<scr" + "ipt type=\'text/javascript\' src=\'//media.monster.com/js/sc/sitecatalystLL.js\'></sc" + "ript>");\r\n    //]]>\r\n\r\n    _m.ATM.properties = {"channel":"58","eVar1":"D=g","prop1":"D=g","eVar4":"0","eVar2":"unrecognized","prop22":"N/A-Cloud","prop23":"N/A-Cloud","prop24":"1/1/0001","prop25":"N/A-Cloud","prop26":"N/A-Cloud","eVar25":"791aab9c-68fc-45d0-bef4-d43bc2f8d694_Clinical Research Coordinator","eVar26":"Unspecified_West Virginia University Research Corporation","eVar27":"N/A-Cloud","eVar28":"Engineering","eVar29":"N/A-Cloud","eVar30":"Industrial/Manufacturing Engineering","eVar31":"Morgantown_WV_US","eVar32":"N/A-Cloud","eVar33":"N/A-Cloud","eVar35":"West Virginia University Research Corporation","eVar36":"App_Cstm","eVar37":"N/A-Cloud","eVar38":"R/L-Apply","eVar47":"22269","eVar50":"Aggregated","eVar53":"1100049001001","eVar64":"34701","eVar66":"Monster","events.event3":"1","events.event30":"true","events.event42":"1","eVar61":"Group C JS - newconfirmation.aspx"};\r\n    _m.ATM.pageName = \'desktop|mons|jobs30|jobview\';\r\n    _m.ATM.appConfig = {version:\'0\',appID:\'jobviewcloud\',channelID:\'58\',countryID:\'164\'};\r\n    _m.ATM.runOnLoad=true;\r\n\r\n    $(document).ready(_m.ATM.initFromOnReady);\n  </script>\n  <!-- Site Catalyst End -->\n </body>\n</html>'
p5
tp6
a.