(dp1
S'skills'
p2
(dp3
S'change management'
p4
F0.0075962927074867508
sS'training'
p5
F0.0042787177291315074
sS'management'
p6
F0.0016473615767266404
sS'government'
p7
F0.0047402173011435733
sS'data science'
p8
F0.0021869835012010893
sS'innovation management'
p9
F0.011167854583807821
sS'data scientist'
p10
F0.0019261303002979604
sS'c'
F0.0022738580434510862
sS'problem solving'
p11
F0.0044629306635513653
sS'innovation'
p12
F0.0035196812220631337
sS'policy'
p13
F0.029778089760444541
sS'organization'
p14
F0.0064115775973879316
sS'public policy'
p15
F0.0075416893988884421
sS'data'
p16
F0.00021563906886267804
ssS'working-year'
p17
(dp18
S'[0]'
p19
F0.0039931176918988776
ssS'major'
p20
(dp21
VData Science
p22
F0.001867798150191023
sVSociology
p23
F0.0071554497659954341
sVManagement Science and Engineering
p24
F0.0023446264335798043
ssS'education'
p25
(dp26
S'Bachelor'
p27
F0.001657052413945285
ssS'responsibility'
p28
(dp29
S'information'
p30
F0.0025220094536898083
sS'implement'
p31
F0.0038506603183992862
sS'design'
p32
F0.0026553069273063229
ss.