(dp1
S'skills'
p2
(dp3
S'ppc'
p4
F0.018888006650537567
sS'digital marketing'
p5
F0.010254850414404142
sS'consulting'
p6
F0.023811265251795333
sS'r d'
p7
F0.0011833276998982054
sS'communication'
p8
F0.0067784688166393544
sS'analytics'
p9
F0.0029264525757265332
sS'engineering'
p10
F0.0060069948736648339
sS'marketing strategy'
p11
F0.025688803238219288
sS'email marketing'
p12
F0.016166221720278928
sS'seo'
p13
F0.056358923894919796
sS'digital analytics'
p14
F0.013280221048709295
sS'sem'
p15
F0.067561873791183238
sS'content management'
p16
F0.015106500819811478
sS'social media'
p17
F0.015106500819811478
sS'lead generation'
p18
F0.015721985208886187
sS'strategy'
p19
F0.016189041568948657
sS'marketing automation'
p20
F0.015862590282982675
sS'innovation'
p21
F0.0035973490486887472
sS'government'
p22
F0.011275369342280159
sS'marketing'
p23
F0.063900137206980775
sS'data scientist'
p24
F0.00053333514284375095
sS'automation'
p25
F0.016078855664992706
sS'data'
p26
F0.0014843674977122277
sS'b2b'
p27
F0.0080489856111121295
sS'project management'
p28
F0.013372499393087369
sS'search'
p29
F0.01453165205001033
sS'b testing'
p30
F0.011496271010500818
sS'digital strategy'
p31
F0.0193322443345973
sS'marketing analytics'
p32
F0.021026183348984966
sS'demand generation'
p33
F0.01689046844779581
sS'optimization'
p34
F0.0055478877847305709
sS'advertising'
p35
F0.034062497662224779
ssS'working-year'
p36
(dp37
V(5, 10]
p38
F0.0034832549173756723
ssS'major'
p39
(dp40
S'business'
p41
F0.0011351747517239095
sS'marketing'
p42
F0.063900137206980775
sS'marketing analytics'
p43
F0.021026183348984966
sS'automation'
p44
F0.016078855664992706
sS'analytics'
p45
F0.0029264525757265332
sS'engineering'
p46
F0.0060069948736648339
sS'design'
p47
F0.0019634543404518866
sS'marketing strategy'
p48
F0.025688803238219288
sS'communication'
p49
F0.0067784688166393544
sS'management technology'
p50
F0.010772037182074168
sS'project management'
p51
F0.013372499393087369
ssS'education'
p52
(dp53
VBachelor
p54
F0.0009796978885076215
ssS'responsibility'
p55
(dp56
S'implement'
p57
F0.003835623267931128
sS'optimization'
p58
F0.0055478877847305709
sS'design'
p59
F0.0019634543404518866
sS'model'
p60
F0.0021229238389601389
ss.