(dp1
S'skills'
p2
(dp3
S'multivariate analysis'
p4
F0.10792596924626199
sS'python'
p5
F0.012410750303649189
sS'predictive modeling'
p6
F0.049500140683070709
sS'analysis'
p7
F0.0081575886131935692
sS'r'
F0.013214102538427169
sS'sql'
p8
F0.016236758543643977
sS'sas'
p9
F0.032981829920890875
sS'modeling'
p10
F0.019336802119560771
sS'data'
p11
F0.0028238449493922122
sS'regression'
p12
F0.056575423587661919
ssS'working-year'
p13
(dp14
S'[0]'
p15
F0.052290826917723396
ssS'major'
p16
(dp17
sS'education'
p18
(dp19
S'Bachelor'
p20
F0.021699495896902541
ssS'responsibility'
p21
(dp22
S'modeling'
p23
F0.019336802119560771
sS'analysis'
p24
F0.0081575886131935692
ss.