(dp1
S'skills'
p2
(dp3
S'management'
p4
F0.0070683320258027021
sS'government'
p5
F0.0081173302111435999
sS'communication'
p6
F0.0032532900129652225
sS'data scientist'
p7
F0.00076791408533934266
sS'integration'
p8
F0.0079938279315823185
sS'dod'
p9
F0.015235513391309203
sS'access'
p10
F0.0075648344588124979
sS'data management'
p11
F0.0096963853394473262
sS'analysis'
p12
F0.0020801244814326646
sS'data security'
p13
F0.019294228188336385
sS'policy'
p14
F0.058601148190658481
sS'ic'
p15
F0.059420646974609422
sS'data'
p16
F0.014960699800593367
sS'security'
p17
F0.0066203281762309682
sS'project management'
p18
F0.019254179624071856
ssS'working-year'
p19
(dp20
V(5, 10]
p21
F0.0050153089474247242
ssS'major'
p22
(dp23
S'management'
p24
F0.0070683320258027021
sS'business'
p25
F0.0016344632317352556
sS'communication'
p26
F0.0032532900129652225
sS'data analyst'
p27
F0.011440279343993951
sS'law'
p28
F0.007416009396176957
sS'project management'
p29
F0.019254179624071856
ssS'education'
p30
(dp31
VBachelor
p32
F0.0014106023539923016
ssS'responsibility'
p33
(dp34
S'report'
p35
F0.0052928337623837727
sS'analytic'
p36
F0.012402343595074056
sS'analysis'
p37
F0.0020801244814326646
sS'pattern'
p38
F0.0075336019033522689
ss.