(dp1
S'skills'
p2
(dp3
S'consulting'
p4
F0.027664650811516676
sS'spring'
p5
F0.017664157925247954
sS'analytics'
p6
F0.0045333885882906559
sS'engineering'
p7
F0.013958217998850653
sS'analysis'
p8
F0.0044759821430827868
sS'data mining'
p9
F0.019810592627522775
sS'strategy'
p10
F0.0062696399826173924
sS'hdfs'
p11
F0.015261943856817161
sS'java'
p12
F0.0062918818512054204
sS'hadoop'
p13
F0.0053116125093685546
sS'perl'
p14
F0.013191614608026786
sS'access'
p15
F0.0081389513597045163
sS'computer science'
p16
F0.0073821111379916166
sS'innovation'
p17
F0.0055726791066740859
sS'systems engineering'
p18
F0.040444338413280212
sS'government'
p19
F0.0087333775932393193
sS'python'
p20
F0.006486746994199849
sS'data scientist'
p21
F0.0008261932793159892
sS'c++'
p22
F0.012017733446812675
sS'software development'
p23
F0.0098350365387198709
sS'c'
F0.010413516012639729
sS'data visualization'
p24
F0.0076395354673393801
sS'mapreduce'
p25
F0.01239519726376602
sS'security clearance'
p26
F0.013261916140058021
sS'machine learning'
p27
F0.0070762347991584259
sS'r'
F0.0035582086955582232
sS'security'
p28
F0.007122763796748496
sS'spss'
p29
F0.010855845244089784
ssS'working-year'
p30
(dp31
sS'major'
p32
(dp33
S'systems engineering'
p34
F0.040444338413280212
sS'data mining'
p35
F0.019810592627522775
sS'computer engineering'
p36
F0.01800962774413209
sS'machine learning data mining'
p37
F0.014271352762967511
sS'analytics'
p38
F0.0045333885882906559
sS'engineering'
p39
F0.013958217998850653
sS'management technology'
p40
F0.016687039741873824
sS'computer science'
p41
F0.0073821111379916166
sS'statistic'
p42
F0.003967035455778767
sS'design'
p43
F0.0030416011434678779
sS'machine learning'
p44
F0.0070762347991584259
sS'ee cs'
p45
F0.021826502892340591
ssS'education'
p46
(dp47
S'Bachelor'
p48
F0.0015176569969292174
ssS'responsibility'
p49
(dp50
S'development'
p51
F0.0020646775271127376
sS'mine data'
p52
F0.018792868052745305
sS'business problem'
p53
F0.0082528242129652069
sS'pattern'
p54
F0.0081053484763745388
sVinsight
p55
F0.0046475949976564641
sS'analysis'
p56
F0.0044759821430827868
sS'analytic'
p57
F0.01334359288577164
sS'design'
p58
F0.0030416011434678779
sS'data mining'
p59
F0.019810592627522775
sS'implement'
p60
F0.0059417914016611671
ss.