(dp1
S'skills'
p2
(dp3
S'change management'
p4
F0.011141229304313899
sS'mathematics'
p5
F0.0048743820855354824
sS'management'
p6
F0.0072483909375972173
sS'analytics'
p7
F0.016235099290359167
sS'design thinking'
p8
F0.012110998119566249
sS'healthcare'
p9
F0.079119050070431476
sS'data scientist'
p10
F0.0028249911071036751
sS'healthcare analytics'
p11
F0.013959376392909763
sS'analysis'
p12
F0.0009136499246776798
sS'entrepreneurship'
p13
F0.0099957508136190969
sS'procurement'
p14
F0.056026300063633488
sS'ip'
p15
F0.012158196493301032
sS'data analysis'
p16
F0.0039566987065751073
sS'policy'
p17
F0.0072790886081086654
sS'innovation'
p18
F0.0051621991256925962
sS'health policy'
p19
F0.016498057840506442
sS'organization'
p20
F0.0094036471428356333
sS'data analytics'
p21
F0.005446193817295459
ssS'working-year'
p22
(dp23
sS'major'
p24
(dp25
VMathematics
p26
F0.0045713934122198719
sVData Science
p27
F0.0027394372869468334
sVEconomics
p28
F0.004375390793398562
sVChemical Engineering
p29
F0.010027686575291187
sVManagement Science and Engineering
p30
F0.0034387854359170461
ssS'education'
p31
(dp32
VBachelor
p33
F0.0024303435404530844
sVMaster
p34
F0.0019394151605978049
sVDoctor
p35
F0.0029044847247372478
ssS'responsibility'
p36
(dp37
S'development'
p38
F0.0032292293397709827
sS'information'
p39
F0.0036989471987450523
sS'data analysis'
p40
F0.0039566987065751073
sS'insight'
p41
F0.004893048949358627
sS'analysis'
p42
F0.0009136499246776798
sS'improvement'
p43
F0.0071632173235709543
sS'design'
p44
F0.0038944501600492736
sS'ownership'
p45
F0.010507449200233034
sS'implement'
p46
F0.005647635133652287
sS'transformation'
p47
F0.016770438055108621
ss.