(dp1
S'skills'
p2
(dp3
S'consulting'
p4
F0.0097392874767718556
sS'pmp'
p5
F0.022563647186815351
sS'data science'
p6
F0.0051846591623301687
sS'analytics'
p7
F0.0037488683706186493
sS'problem solving'
p8
F0.010580223555832978
sS'sas'
p9
F0.0059708485201612786
sS'education'
p10
F0.0090458049560916774
sS'outsourcing'
p11
F0.02358255949873167
sS'research'
p12
F0.014709661063133418
sS'stata'
p13
F0.013118314796114959
sS'advanced analytics'
p14
F0.012684528251457257
sS'microsoft excel'
p15
F0.0088656674788901314
sS'data analysis'
p16
F0.0063955259265761431
sS'data modeling'
p17
F0.011259490279389101
sS'government'
p18
F0.022475168238180736
sS'sql'
p19
F0.0029394131846252028
sS'modeling'
p20
F0.0035006279699204847
sS'data'
p21
F0.003578493168626338
sS'security'
p22
F0.018839231169998204
sS'project management'
p23
F0.0081959194970885607
sS'national security'
p24
F0.018114884602638284
sS'science'
p25
F0.0030303184835952257
sS'analysis'
p26
F0.0029536096702942236
sS'spss'
p27
F0.0095101242709377809
sS'r'
F0.0023922082181635396
sS'microsoft access'
p28
F0.023215501591661469
sS'data analytics'
p29
F0.0088031150064042975
ssS'working-year'
p30
(dp31
V(5, 10]
p32
F0.0051967425067968049
ssS'major'
p33
(dp34
VData Science
p35
F0.0044279697526080283
sVManagement Science and Engineering
p36
F0.0055583816313314327
ssS'education'
p37
(dp38
VBachelor
p39
F0.0039283570158185638
ssS'responsibility'
p40
(dp41
S'development'
p42
F0.010439318986328609
sS'data analysis'
p43
F0.0063955259265761431
sS'analysis'
p44
F0.0029536096702942236
sS'recommendation'
p45
F0.011259490279389101
sS'report'
p46
F0.0089451569835018487
sS'modeling'
p47
F0.0035006279699204847
sS'model'
p48
F0.0066698743185415552
ss.