(dp1
S'skills'
p2
(dp3
S'communication'
p4
I1
sS'data science'
p5
I1
sS'arm'
p6
I1
sS'engineering'
p7
I1
sS'modeling'
p8
I1
sS'strategy'
p9
I1
sS'research'
p10
I1
sS'predictive modeling'
p11
I1
sS'tableau'
p12
I1
sS'writing'
p13
I1
sS'r'
I1
sS'stata'
p14
I1
sS'government'
p15
I1
sS'python'
p16
I1
sS'marketing'
p17
I1
sS'data scientist'
p18
I1
sS'mentoring'
p19
I1
sS'political science'
p20
I1
sS'sql'
p21
I1
sS'business development'
p22
I1
sS'data'
p23
I1
sS'data visualization'
p24
I1
sS'science'
p25
I1
sS'economics'
p26
I1
sS'machine learning'
p27
I1
sS'new business development'
p28
I1
sS'advertising'
p29
I1
sS'security'
p30
I1
sS'microsoft office'
p31
I1
sS'data analytics'
p32
I1
sS'predictive analytics'
p33
I1
ssS'working-year'
p34
(dp35
V(5, 10]
p36
I1
ssS'major'
p37
(dp38
S'business'
p39
I1
sS'science'
p40
I1
sS'data science'
p41
I1
sS'economics'
p42
I1
sS'statistic'
p43
I1
sS'machine learning'
p44
I1
sS'engineering'
p45
I1
sS'data analytics'
p46
I1
sS'political science'
p47
I1
sS'communication'
p48
I1
sS'marketing'
p49
I1
sVphysic
p50
I1
sS'predictive analytics'
p51
I1
ssS'education'
p52
(dp53
VBachelor
p54
I1
ssS'responsibility'
p55
(dp56
S'development'
p57
I1
sS'large data set'
p58
I1
sS'identify opportunity'
p59
I1
sS'manage data'
p60
I1
sVinsight
p61
I1
sS'communicate'
p62
I1
sS'understand'
p63
I1
sS'pattern'
p64
I1
sS'modeling'
p65
I1
sS'model'
p66
I1
sS'presentation'
p67
I1
ss.