(dp1
S'skills'
p2
(dp3
S'research design'
p4
I1
sS'search'
p5
I1
sS'big data'
p6
I1
sS'nosql'
p7
I1
sS'government'
p8
I1
sS'mongodb'
p9
I1
sS'integration'
p10
I1
sS'hive'
p11
I1
sS'pig'
p12
I1
sS'mahout'
p13
I1
sS'h2o'
p14
I1
sS'data'
p15
I1
sS'research'
p16
I1
sS'accounting'
p17
I1
sS'hbase'
p18
I1
sS'machine learning'
p19
I1
sS'impala'
p20
I1
sS'spark'
p21
I1
sS'cassandra'
p22
I1
ssS'working-year'
p23
(dp24
V(20, 30)
p25
I1
sV(2, 5]
p26
I1
ssS'major'
p27
(dp28
S'information'
p29
I1
sS'big data'
p30
I1
sS'machine learning'
p31
I1
sS'finance accounting'
p32
I1
sS'design'
p33
I1
sS'accounting'
p34
I1
ssS'education'
p35
(dp36
VMaster
p37
I1
ssS'responsibility'
p38
(dp39
S'information'
p40
I1
sS'implement'
p41
I1
sS'design'
p42
I1
ss.