(dp1
S'skills'
p2
(dp3
S'testing'
p4
F0.0040947560298000259
sS'strategic leadership'
p5
F0.012039435958855151
sS'analytics'
p6
F0.0017394749239670532
sS'thought leadership'
p7
F0.0082033577990582463
sS'statistical analysis'
p8
F0.0051494003068252156
sS'problem solving'
p9
F0.0049092237299065023
sS'education'
p10
F0.0083945069992530773
sS'management'
p11
F0.0036241954687986086
sS'open source'
p12
F0.0063958394798361894
sS'predictive modeling'
p13
F0.0041580118173779402
sS'strategy'
p14
F0.0031500228624536698
sS'advanced analytics'
p15
F0.0058856211086761676
sS'data analysis'
p16
F0.0029675240299313304
sS'theory'
p17
F0.0058609525009466713
sS'data scientist'
p18
F0.0021187433303277567
sS'leadership development'
p19
F0.0091008696620901476
sS'mathematical analysis'
p20
F0.0096703375519593422
sS'leadership'
p21
F0.0033048172424076441
sS'mentoring'
p22
F0.0068802274029579093
sS'modeling'
p23
F0.001624291378043105
sS'data'
p24
F0.0011860148787447291
sS'business strategy'
p25
F0.0060790706406388742
sS'analysis'
p26
F0.00068523744350825985
sS'machine learning'
p27
F0.0013110354436680787
sS'credit'
p28
F0.0063550696484752931
sS'healthcare'
p29
F0.010788961373240657
sS'organization'
p30
F0.0035263676785633625
sS'security'
p31
F0.0043707016314395841
sS'validation'
p32
F0.0063239246101501933
ssS'working-year'
p33
(dp34
V(5, 10]
p35
F0.0024112885231537175
ssS'major'
p36
(dp37
VData Science
p38
F0.0020545779652101255
sVComputer Science
p39
F0.0018107114927043955
sVBusiness
p40
F0.0021634286943482284
sVManagement Science and Engineering
p41
F0.0025790890769377848
ssS'education'
p42
(dp43
VMaster
p44
F0.0014545613704483539
sVDoctor
p45
F0.0021783635435529362
ssS'responsibility'
p46
(dp47
S'development'
p48
F0.0024219220048282372
sS'information'
p49
F0.013871051995293947
sS'product'
p50
F0.010759943125741973
sS'data analysis'
p51
F0.0029675240299313304
sS'large data set'
p52
F0.0062889142706657325
sS'business problem'
p53
F0.0056963011242612896
sS'pattern'
p54
F0.0052371821511482917
sS'communicate'
p55
F0.012037457293689553
sS'analysis'
p56
F0.00068523744350825985
sS'statistical model'
p57
F0.0071817286112377905
sS'analytic'
p58
F0.0090309038891985705
sS'statistical method'
p59
F0.0070315808581030226
sS'modeling'
p60
F0.001624291378043105
sS'model'
p61
F0.0061896433676065631
sS'evaluation'
p62
F0.0067668863676533545
ss.