(dp1
S'skills'
p2
(dp3
S'r d'
p4
F0.00076464564593049789
sS'communication'
p5
F0.0014600426315169806
sS'strategic leadership'
p6
F0.010446329491502399
sS'thought leadership'
p7
F0.0063205495881175711
sS'analysis'
p8
F0.00093353817509361661
sS'problem solving'
p9
F0.0035136208184744899
sS'education'
p10
F0.0055391331848200264
sS'management'
p11
F0.0031721937024552162
sS'critical thinking'
p12
F0.0062981139612789906
sS'predictive modeling'
p13
F0.004028559122997888
sS'hadoop'
p14
F0.0022156446966453561
sS'strategy'
p15
F0.0026152688195647971
sS'agile methodologies'
p16
F0.01091432504913435
sS'advanced analytics'
p17
F0.0081236194863823635
sS'segmentation'
p18
F0.0052449293861093239
sS'theory'
p19
F0.0054737770939562664
sS'leadership development'
p20
F0.007533924084974759
sS'data scientist'
p21
F0.00034463183345769384
sS'leadership'
p22
F0.0028378339716390545
sS'mentoring'
p23
F0.0052135275447324674
sS'modeling'
p24
F0.0017982591767265281
sS'data'
p25
F0.0028775168810399052
sS'project management'
p26
F0.0086410750268180962
sS'data visualization'
p27
F0.0031866963588156817
sS'hive'
p28
F0.0036781305847541929
sS'machine learning'
p29
F0.002951725502814688
sS'credit'
p30
F0.0050242011169447038
sS'r'
F0.0014842434782216798
sS'healthcare'
p31
F0.007953126548624654
sS'security'
p32
F0.0029711342466883861
sS'validation'
p33
F0.0047187702779170502
sS'data analytics'
p34
F0.0056965870189452624
sS'statistical analysis'
p35
F0.0034115063192196875
ssS'working-year'
p36
(dp37
V(10, 15]
p38
F0.005270437822927407
sV(2, 5]
p39
F0.0014617015866831727
ssS'major'
p40
(dp41
S'information'
p42
F0.0058520165995646
sS'management'
p43
F0.0031721937024552162
sS'business'
p44
F0.0029341202148841462
sS'communication'
p45
F0.0014600426315169806
sS'machine learning'
p46
F0.002951725502814688
sS'behavioral economics'
p47
F0.010446329491502399
sS'data analytics'
p48
F0.0056965870189452624
sS'advanced analytics'
p49
F0.0081236194863823635
sS'phd'
p50
F0.0031370439100913807
sS'project management'
p51
F0.0086410750268180962
ssS'education'
p52
(dp53
VMaster
p54
F0.0017962714690947972
sVDoctor
p55
F0.0023699528070416989
ssS'responsibility'
p56
(dp57
S'development'
p58
F0.00086124351224069499
sS'large data set'
p59
F0.0041301473560880105
sS'product'
p60
F0.0010662302927481734
sS'business problem'
p61
F0.0034425188523355796
sS'pattern'
p62
F0.0033810019715230853
sS'communicate'
p63
F0.0068989285647716647
sS'analysis'
p64
F0.00093353817509361661
sS'statistical model'
p65
F0.0034642957776998898
sS'analytic'
p66
F0.0055660424700425459
sS'statistical method'
p67
F0.004662340281294277
sS'interface'
p68
F0.004336022136288184
sS'modeling'
p69
F0.0017982591767265281
sS'information'
p70
F0.0058520165995646
sS'evaluation'
p71
F0.004904377642505074
sS'model'
p72
F0.0041153886710568058
ss.