(dp1
S'skills'
p2
(dp3
S'digital marketing'
p4
F0.0062383251398951539
sS'probability'
p5
F0.0058964960036776339
sS'communication'
p6
F0.005357595123894607
sS'data science'
p7
F0.0020352638336050746
sS'testing'
p8
F0.0034642606005076361
sS'analytics'
p9
F0.0014716369915118894
sS'engineering'
p10
F0.004145024626306784
sS'statistical analysis'
p11
F0.0043565146419841079
sS'visualization'
p12
F0.0063427927984229084
sS'statistics'
p13
F0.0031557118605841103
sS'big data'
p14
F0.0021535112121195727
sS'scala'
p15
F0.0041295539554968468
sS'predictive modeling'
p16
F0.0035177764952436037
sS'hadoop'
p17
F0.0021739534710652534
sS'research'
p18
F0.0014435877185477804
sS'r'
F0.00093907327684254001
sS'fraud detection'
p19
F0.0079931371837829827
sS'computer science'
p20
F0.0023789902930409826
sS'innovation'
p21
F0.0032755070594496171
sS'python'
p22
F0.0017639645101633365
sS'marketing'
p23
F0.019342279416015722
sS'collaboration'
p24
F0.0043276978343036445
sS'data scientist'
p25
F0.0017925070476546162
sS'scalability'
p26
F0.020487729638218849
sS'statistical modeling'
p27
F0.0030310753302713982
sS'algorithm design'
p28
F0.0071323719510505736
sS'modeling'
p29
F0.0041225669493479816
sS'spark'
p30
F0.0028530213592481532
sS'data'
p31
F0.0014047553555352123
sS'fraud'
p32
F0.0066190458132119939
sS'solver'
p33
F0.0073011519860007338
sS'science'
p34
F0.0035686999400715348
sS'documentation'
p35
F0.0049059914702944676
sS'thought leadership'
p36
F0.0069402350245839637
sS'analysis'
p37
F0.00057972710956705567
sS'machine learning'
p38
F0.001109167042020371
sS'optimization'
p39
F0.0067682194835483661
sS'architecture'
p40
F0.0074010643745673708
sS'electrical engineering'
p41
F0.00670833347441424
sS'physics'
p42
F0.0041168940396728651
ssS'working-year'
p43
(dp44
S'[0]'
p45
F0.0037160993748635916
ssS'major'
p46
(dp47
VStatistics
p48
F0.0030482314211304233
sVBusiness
p49
F0.0018303119241524775
sVData Science
p50
F0.0017382216287733716
sVEconomics
p51
F0.0027762631937808136
sVElectrical and Electronics Engineering
p52
F0.0053242446622250106
sVEngineering
p53
F0.0038111318557812646
sVComputer Science
p54
F0.001531904816162771
sVPhysics
p55
F0.0044394790206431309
ssS'education'
p56
(dp57
S'Bachelor'
p58
F0.0015420961551098253
ssS'responsibility'
p59
(dp60
S'development'
p61
F0.0061470101645386731
sS'product'
p62
F0.0091031667730473546
sS'insight'
p63
F0.0031047264907097887
sS'formulate'
p64
F0.007626291865759363
sS'documentation'
p65
F0.0049059914702944676
sS'communicate'
p66
F0.0067893160144893135
sS'analysis'
p67
F0.00057972710956705567
sS'develop ... model'
p68
F0.0052451997075738371
sS'analytic'
p69
F0.0038201793101516799
sS'optimization'
p70
F0.0067682194835483661
sS'design'
p71
F0.0049421956345802962
sS'ownership'
p72
F0.013334326396234815
sS'modeling'
p73
F0.0041225669493479816
sS'implement'
p74
F0.0035835248309976438
sS'model'
p75
F0.010473169826745454
ss.