(dp1
S'skills'
p2
(dp3
S'sql'
p4
F0.0061994896257549729
sS'portfolio management'
p5
F0.019581873854020465
sS'data mining'
p6
F0.0096453605849188065
sS'writing'
p7
F0.020427821146204478
sS'research'
p8
F0.011634004659023704
sS'management'
p9
F0.0041184039418166009
sS'education'
p10
F0.0095392124991512221
sS'web scraping'
p11
F0.020889504342095192
sS'natural language processing'
p12
F0.01139071878163774
sS'unstructured data'
p13
F0.014494583788423453
sS'data analysis'
p14
F0.0067443727952984775
sS'apis'
p15
F0.01672461530062113
sS'python'
p16
F0.0023693250579693908
sS'processing'
p17
F0.0074231276666850907
sS'data scientist'
p18
F0.0048153257507449008
sS'data wrangling'
p19
F0.04546502452984038
sS'modeling'
p20
F0.0036915713137343291
sS'data'
p21
F0.0016172930164700852
sS'c'
F0.0056846451086277148
sS'data collection'
p22
F0.032957723154193118
sS'programming'
p23
F0.0050105237947039808
sS'analysis'
p24
F0.0031147156523102719
sS'machine learning'
p25
F0.0029796260083365424
sS'r'
F0.0025226923027906415
sS'healthcare'
p26
F0.024520366757365127
ssS'working-year'
p27
(dp28
V(5, 10]
p29
F0.0054802011889857217
sV(2, 5]
p30
F0.0056315655837778887
ssS'major'
p31
(dp32
VComputer Science
p33
F0.0041152533925099891
sVBusiness
p34
F0.004916883396245973
sVManagement Science and Engineering
p35
F0.0058615660839495109
ssS'education'
p36
(dp37
VBachelor
p38
F0.0041426310348632121
ssS'responsibility'
p39
(dp40
S'data mining'
p41
F0.0096453605849188065
sS'data collection'
p42
F0.032957723154193118
sS'processing'
p43
F0.0074231276666850907
sS'insight'
p44
F0.016680848690995318
sS'analysis'
p45
F0.0031147156523102719
sS'data analysis'
p46
F0.0067443727952984775
sS'data wrangling'
p47
F0.04546502452984038
sS'modeling'
p48
F0.0036915713137343291
sS'extract'
p49
F0.028124623006389359
ss.