(dp1
S'skills'
p2
(dp3
S'financial markets'
p4
F0.020530372268314553
sS'r d'
p5
F0.001337507204770936
sS'commodity'
p6
F0.057997722997530553
sS'credit'
p7
F0.017576521171330982
sS'machine learning'
p8
F0.0051631159446628265
sS'communication'
p9
F0.0025538856453570639
sS'data science'
p10
F0.0060619791931840576
sS'fixed income'
p11
F0.019091180949137285
sS'data scientist'
p12
F0.00060282506373544496
sS'presentation skills'
p13
F0.013991426856146459
sS'research'
p14
F0.0062114553432114699
sS'risk management'
p15
F0.010224098379990706
sS'management'
p16
F0.0027743778798346112
sS'trading'
p17
F0.06031082459476312
sS'logistic regression'
p18
F0.011986288910583507
sS'marketing'
p19
F0.005555837537164203
sS'policy'
p20
F0.0076671426242935379
sS'security'
p21
F0.0051970654412757762
sS'quantitative research'
p22
F0.01440560779372207
sS'energy'
p23
F0.0088780488554540613
sS'science'
p24
F0.0047806295238039705
ssS'working-year'
p25
(dp26
V(0, 2]
p27
F0.0060131999477659971
sV(2, 5]
p28
F0.0025567874659572108
ssS'major'
p29
(dp30
S'information'
p31
F0.0020472527126815573
sS'management'
p32
F0.0027743778798346112
sS'business'
p33
F0.0012830802568345168
sS'communication'
p34
F0.0025538856453570639
sS'data science'
p35
F0.0060619791931840576
sS'machine learning'
p36
F0.0051631159446628265
sS'finance economics'
p37
F0.016106534502034153
sS'marketing'
p38
F0.005555837537164203
sS'phd'
p39
F0.010974544493283854
sS'accounting finance'
p40
F0.018866449131454053
sS'science'
p41
F0.0047806295238039705
ssS'education'
p42
(dp43
VMaster
p44
F0.0031420123091332446
sVDoctor
p45
F0.004145487483327011
ssS'responsibility'
p46
(dp47
S'information'
p48
F0.0020472527126815573
sS'product'
p49
F0.0018650347465985963
sS'communicate'
p50
F0.012067506968346527
sS'implement'
p51
F0.0043353787425801354
sS'automate report'
p52
F0.024108909948825308
sS'presentation'
p53
F0.0055123654792999521
sS'model'
p54
F0.0047990525870955586
ss.