(dp1
S'skills'
p2
(dp3
S'customer insight'
p4
I1
sS'testing'
p5
I1
sS'analytics'
p6
I1
sS'engineering'
p7
I1
sS'adobe photoshop'
p8
I1
sS'user experience design'
p9
I1
sS'research'
p10
I1
sS'management'
p11
I1
sS'user experience'
p12
I1
sS'agile'
p13
I1
sS'recruiting'
p14
I1
sS'strategy'
p15
I1
sS'user interface'
p16
I1
sS'teamwork'
p17
I1
sS'innovation'
p18
I1
sS'keynote'
p19
I1
sS'product development'
p20
I1
sS'design thinking'
p21
I1
sS'collaboration'
p22
I1
sS'data scientist'
p23
I1
sS'product design'
p24
I1
sS'data'
p25
I1
sS'customer experience'
p26
I1
sS'search'
p27
I1
sS'illustrator'
p28
I1
sS'banking'
p29
I1
sS'information architecture'
p30
I1
ssS'working-year'
p31
(dp32
V(5, 10]
p33
I1
sV(0, 2]
p34
I1
sV(2, 5]
p35
I1
ssS'major'
p36
(dp37
S'information'
p38
I1
sS'management'
p39
I1
sS'business'
p40
I1
sS'analytics'
p41
I1
sS'engineering'
p42
I1
sS'design'
p43
I1
sS'law'
p44
I1
sS'history'
p45
I1
ssS'education'
p46
(dp47
VMaster
p48
I1
ssS'responsibility'
p49
(dp50
S'development'
p51
I1
sS'information'
p52
I1
sS'product'
p53
I1
sVinsight
p54
I1
sS'design'
p55
I1
sS'identify opportunity'
p56
I1
sS'interface'
p57
I1
sS'prototype'
p58
I1
ss.