(dp1
S'skills'
p2
(dp3
S'market risk'
p4
I1
sS'management'
p5
I1
sS'risk assessment'
p6
I1
sS'risk management'
p7
I1
sS'machine learning'
p8
I1
sS'data science'
p9
I1
sS'data scientist'
p10
I1
sS'search'
p11
I1
sS'strategy'
p12
I1
sS'access'
p13
I1
sS'analytics'
p14
I1
sS'investment strategies'
p15
I1
sS'artificial intelligence'
p16
I1
sS'policy'
p17
I1
sS'data analytics'
p18
I1
sS'research'
p19
I1
sS'unstructured data'
p20
I1
sS'data management'
p21
I1
ssS'working-year'
p22
(dp23
V[0]
p24
I1
ssS'major'
p25
(dp26
S'information'
p27
I1
sS'management'
p28
I1
sS'business'
p29
I1
sS'data science'
p30
I1
sS'machine learning'
p31
I1
sS'analytics'
p32
I1
sS'finance economics'
p33
I1
sS'machine learning artificial intelligence'
p34
I1
sS'phd'
p35
I1
sS'data analytics'
p36
I1
sS'artificial intelligence'
p37
I1
ssS'education'
p38
(dp39
VMaster
p40
I1
sVDoctor
p41
I1
ssS'responsibility'
p42
(dp43
S'development'
p44
I1
sS'information'
p45
I1
sS'product'
p46
I1
sVinsight
p47
I1
ss.