(dp1
S'skills'
p2
(dp3
S'search'
p4
I1
sS'big data'
p5
I1
sS'credit'
p6
I1
sS'python'
p7
I1
sS'data scientist'
p8
I1
sS'programming'
p9
I1
sS'analysis'
p10
I1
sS'research'
p11
I1
sS'analytics'
p12
I1
sS'r'
I1
sS'matlab'
p13
I1
sS'sql'
p14
I1
sS'data'
p15
I1
sS'regression'
p16
I1
sS'trend analysis'
p17
I1
ssS'working-year'
p18
(dp19
V[0]
p20
I1
ssS'major'
p21
(dp22
S'analytics'
p23
I1
sS'big data'
p24
I1
sS'business'
p25
I1
ssS'education'
p26
(dp27
S'Bachelor'
p28
I1
ssS'responsibility'
p29
(dp30
S'report'
p31
I1
sS'product'
p32
I1
sS'model'
p33
I1
sS'analysis'
p34
I1
ss.