(dp1
S'skills'
p2
(dp3
S'change management'
p4
F0.012430094791437231
sS'customer satisfaction'
p5
F0.011192233311109655
sS'training'
p6
F0.0051533077914619769
sS'management'
p7
F0.0048950230408576186
sS'r d'
p8
F0.001179927332944475
sS'customer service'
p9
F0.010085184924709259
sS'management consulting'
p10
F0.013423606307911369
sS'data scientist'
p11
F0.00053180257059419998
sS'strategy'
p12
F0.012106891000916345
sS'sales operations'
p13
F0.019276691908348458
sS'leadership'
p14
F0.013137214161811831
sS'teamwork'
p15
F0.0077528620683888095
sS'communication'
p16
F0.0022529968193236165
sS'organization'
p17
F0.0092367448596129189
sS'experimentation'
p18
F0.01012454825072262
sS'data'
p19
F0.00074005103693411346
sS'collaboration'
p20
F0.0052064818468561553
sS'organizational effectiveness'
p21
F0.021268492397383244
ssS'working-year'
p22
(dp23
V(5, 10]
p24
F0.0034732455641648232
ssS'major'
p25
(dp26
S'communication'
p27
F0.0022529968193236165
sS'operations strategy'
p28
F0.019800603843220251
sS'management'
p29
F0.0048950230408576186
sS'business'
p30
F0.0011319127553109098
ssS'education'
p31
(dp32
S'Bachelor'
p33
F0.00097688266469007088
ssS'responsibility'
p34
(dp35
S'development'
p36
F0.0026579756670876619
sS'presentation'
p37
F0.0048629201211065672
sS'communicate'
p38
F0.0035485868192360001
sS'improvement'
p39
F0.00558860104045598
ss.