(dp1
S'skills'
p2
(dp3
S'consulting'
p4
I1
sS'communication'
p5
I1
sS'data science'
p6
I1
sS'hadoop'
p7
I1
sS'analytics'
p8
I1
sS'business intelligence'
p9
I1
sS'pricing'
p10
I1
sS'analysis'
p11
I1
sS'strategy'
p12
I1
sS'management'
p13
I1
sS'big data'
p14
I1
sS'tableau'
p15
I1
sS'continuous improvement'
p16
I1
sS'matlab'
p17
I1
sS'advanced analytics'
p18
I1
sS'python'
p19
I1
sS'data scientist'
p20
I1
sS'spotfire'
p21
I1
sS'machine learning'
p22
I1
sS'minitab'
p23
I1
sS'sql'
p24
I1
sS'modeling'
p25
I1
sS'pig'
p26
I1
sS'data'
p27
I1
sS'hive'
p28
I1
sS'spss'
p29
I1
sS'data engineering'
p30
I1
sS'r'
I1
sS'organization'
p31
I1
ssS'working-year'
p32
(dp33
V(2, 5]
p34
I1
ssS'major'
p35
(dp36
S'management'
p37
I1
sS'business'
p38
I1
sS'big data'
p39
I1
sS'communication'
p40
I1
sS'data science'
p41
I1
sS'machine learning'
p42
I1
sS'analytics'
p43
I1
sS'advanced analytics'
p44
I1
sS'data science engineering'
p45
I1
ssS'education'
p46
(dp47
S'Bachelor'
p48
I1
ssS'responsibility'
p49
(dp50
S'development'
p51
I1
sVinsight
p52
I1
sS'analysis'
p53
I1
sS'understand'
p54
I1
sS'modeling'
p55
I1
sS'implement'
p56
I1
sS'model'
p57
I1
ss.