(dp1
S'skills'
p2
(dp3
S'digital marketing'
p4
F0.0066265048301643158
sS'consulting'
p5
F0.0038466056994287622
sS'r d'
p6
F0.00076464564593049789
sS'communication'
p7
F0.0029200852630339611
sS'analytics'
p8
F0.005673067283670989
sS'pmo'
p9
F0.013782933620650596
sS'management'
p10
F0.0015860968512276081
sS'marketing mix modeling'
p11
F0.011540901255443478
sS'excel'
p12
F0.0036296259004779275
sS'strategy'
p13
F0.0026152688195647971
sS'teamwork'
p14
F0.0050242011169447038
sS'mathematics'
p15
F0.0030184152151242366
sS'segmentation'
p16
F0.0052449293861093239
sS'retail'
p17
F0.005309367923742668
sS'marketing'
p18
F0.015881211582024303
sS'data scientist'
p19
F0.00034463183345769384
sS'leadership'
p20
F0.0028378339716390545
sS'modeling'
p21
F0.0035965183534530563
sS'data'
p22
F0.0014387584405199526
sS'project management'
p23
F0.0086410750268180962
sS'data collection'
p24
F0.011308242989495778
sS'science'
p25
F0.0054661201631576121
sS'marketing analytics'
p26
F0.013586751624018218
sS'analysis'
p27
F0.0018670763501872332
sS'advertising'
p28
F0.011005294868521415
sS'security'
p29
F0.0029711342466883861
sS'validation'
p30
F0.0047187702779170502
sS'powerpoint'
p31
F0.0052833242958341105
sS'predictive analytics'
p32
F0.0094952797211200618
ssS'working-year'
p33
(dp34
V(5, 10]
p35
F0.0022508183544308349
ssS'major'
p36
(dp37
S'information'
p38
F0.0058520165995646
sS'management'
p39
F0.0015860968512276081
sS'business'
p40
F0.0044011803223262197
sS'science'
p41
F0.0054661201631576121
sS'marketing analytics'
p42
F0.013586751624018218
sS'communication'
p43
F0.0029200852630339611
sS'mba'
p44
F0.0069291392006960769
sS'statistic'
p45
F0.0016547782906786664
sS'analytics'
p46
F0.005673067283670989
sS'marketing finance'
p47
F0.010072642561092224
sS'marketing'
p48
F0.015881211582024303
sS'mathematics'
p49
F0.0030184152151242366
sS'business economics'
p50
F0.011540901255443478
sS'law'
p51
F0.0066564553611867657
sS'project management'
p52
F0.0086410750268180962
sS'predictive analytics'
p53
F0.0094952797211200618
ssS'education'
p54
(dp55
VBachelor
p56
F0.00063306362627959904
ssS'responsibility'
p57
(dp58
S'information'
p59
F0.0058520165995646
sS'product'
p60
F0.0010662302927481734
sS'data collection'
p61
F0.011308242989495778
sS'business problem'
p62
F0.0034425188523355796
sS'pattern'
p63
F0.0033810019715230853
sVinsight
p64
F0.0038773232010243875
sS'analysis'
p65
F0.0018670763501872332
sS'understand'
p66
F0.0024972378800299931
sS'ownership'
p67
F0.0059163477870148541
sS'modeling'
p68
F0.0035965183534530563
sS'model'
p69
F0.0013717962236856017
sS'presentation'
p70
F0.0031513895756891718
ss.