(dp1
S'skills'
p2
(dp3
S'validation'
p4
I1
sS'digital marketing'
p5
I1
sS'forecasting'
p6
I1
sS'information theory'
p7
I1
sS'customer insight'
p8
I1
sS'data processing'
p9
I1
sS'model validation'
p10
I1
sS'testing'
p11
I1
sS'information retrieval'
p12
I1
sS'analytics'
p13
I1
sS'engineering'
p14
I1
sS'c++'
p15
I1
sS'modeling'
p16
I1
sS'machine learning'
p17
I1
sS'random forest'
p18
I1
sS'dimensionality reduction'
p19
I1
sS'clustering'
p20
I1
sS'investment banking'
p21
I1
sS'java'
p22
I1
sS'big data'
p23
I1
sS'scala'
p24
I1
sS'time series analysis'
p25
I1
sS'hidden markov models'
p26
I1
sS'risk management'
p27
I1
sS'computer science'
p28
I1
sS'customer service'
p29
I1
sS'matlab'
p30
I1
sS'segmentation'
p31
I1
sS'theory'
p32
I1
sS'government'
p33
I1
sS'python'
p34
I1
sS'marketing'
p35
I1
sS'processing'
p36
I1
sS'octave'
p37
I1
sS'organization'
p38
I1
sS'multivariate analysis'
p39
I1
sS'spark'
p40
I1
sS'credit risk'
p41
I1
sS'data'
p42
I1
sS'project management'
p43
I1
sS'c'
I1
sS'fraud'
p44
I1
sS'credit'
p45
I1
sS'risk modeling'
p46
I1
sS'programming'
p47
I1
sS'analysis'
p48
I1
sS'spss'
p49
I1
sS'data architecture'
p50
I1
sS'banking'
p51
I1
sS'customer analytics'
p52
I1
sS'r'
I1
sS'architecture'
p53
I1
sS'investment management'
p54
I1
sS'security'
p55
I1
sS'hadoop'
p56
I1
sS'statistical analysis'
p57
I1
ssS'working-year'
p58
(dp59
V[0]
p60
I1
ssS'major'
p61
(dp62
S'information'
p63
I1
sS'business'
p64
I1
sS'big data'
p65
I1
sS'marketing'
p66
I1
sS'applied math'
p67
I1
sS'machine learning'
p68
I1
sS'analytics'
p69
I1
sS'engineering'
p70
I1
sS'design'
p71
I1
sS'computer science'
p72
I1
sS'statistic'
p73
I1
sS'phd'
p74
I1
sS'information retrieval'
p75
I1
sS'project management'
p76
I1
sS'history'
p77
I1
ssS'education'
p78
(dp79
VMaster
p80
I1
sVDoctor
p81
I1
ssS'responsibility'
p82
(dp83
S'development'
p84
I1
sS'large data set'
p85
I1
sS'forecasting'
p86
I1
sVinsight
p87
I1
sS'information'
p88
I1
sS'processing'
p89
I1
sS'product'
p90
I1
sS'analysis'
p91
I1
sS'statistical model'
p92
I1
sS'design'
p93
I1
sS'modeling'
p94
I1
sS'implement'
p95
I1
sS'evaluation'
p96
I1
sS'model'
p97
I1
ss.