(dp1
S'skills'
p2
(dp3
S'management'
p4
F0.0020040800214334718
sS'theory'
p5
F0.0069162783516576827
sS'data visualization'
p6
F0.0040264845757271087
sS'communication'
p7
F0.0018448068073520436
sS'collaboration'
p8
F0.00426318984166104
sS'data scientist'
p9
F0.00043545245780419193
sS'graphic design'
p10
F0.012426297162753222
sS'product management'
p11
F0.006971210453558912
sS'product design'
p12
F0.00923613126914518
sS'leadership'
p13
F0.0035856866888709935
sS'innovation'
p14
F0.002937129693870577
sS'interaction design'
p15
F0.010940962337386043
sS'fixed income'
p16
F0.013790570709141518
sS'data'
p17
F0.00060597120200722699
sS'information design'
p18
F0.012622488226337785
ssS'working-year'
p19
(dp20
V(5, 10]
p21
F0.002843975191363196
ssS'major'
p22
(dp23
S'information'
p24
F0.0014788390183370305
sS'management'
p25
F0.0020040800214334718
sS'design'
p26
F0.03847446528772544
sS'business'
p27
F0.0037073471891594973
sS'communication'
p28
F0.0018448068073520436
ssS'education'
p29
(dp30
VBachelor
p31
F0.00079989451132269338
ssS'responsibility'
p32
(dp33
S'development'
p34
F0.0010882065084076545
sS'information'
p35
F0.0014788390183370305
sS'product'
p36
F0.0080832800076108581
sVinsight
p37
F0.0073486678551179865
sS'design'
p38
F0.03847446528772544
ss.