(dp1
S'skills'
p2
(dp3
S'owl'
p4
F0.018182303176048364
sS'consulting'
p5
F0.013735651638973074
sS'communication'
p6
F0.0048120649213095942
sS'sentiment analysis'
p7
F0.012774021969033683
sS'semantic web'
p8
F0.015465542597030981
sS'problem solving'
p9
F0.007460826337243924
sS'distributed algorithms'
p10
F0.021521545139919045
sS'insurance'
p11
F0.0095841076399686559
sS'open source'
p12
F0.0097201207900246035
sS'big data'
p13
F0.0038684654296737616
sS'deep learning'
p14
F0.0094666920452688465
sS'strategy'
p15
F0.0047872687879235102
sS'vendor management'
p16
F0.01524358312091912
sS'r'
F0.0016869067070332559
sS'natural language processing'
p17
F0.0076168940181164215
sS'business analysis'
p18
F0.0081110401224232642
sS'government'
p19
F0.023773126282330991
sS'python'
p20
F0.0015843511025935137
sS'processing'
p21
F0.014891380729520242
sS'data scientist'
p22
F0.0032199746661516057
sS'knowledge representation'
p23
F0.018416226745002016
sS'java'
p24
F0.0037667688986877919
sS'data'
p25
F0.00036049084460326112
sS'semantics'
p26
F0.019250379586492648
sS'training'
p27
F0.0071528715836544961
sS'dynamic programming'
p28
F0.018297015135038223
sS'software engineering'
p29
F0.0079090060447234399
sS'analytics'
p30
F0.0026435789118040322
sS'programming'
p31
F0.0033505022335406564
sS'analysis'
p32
F0.0010413942910459876
sS'machine learning'
p33
F0.0019924550815624297
sS'rdf'
p34
F0.017393517620778082
sS'algorithms'
p35
F0.005453409356733295
sS'rapid prototyping'
p36
F0.01575523748747211
ssS'working-year'
p37
(dp38
V(2, 5]
p39
F0.0037657885362648497
ssS'major'
p40
(dp41
VData Science
p42
F0.0031224589136931995
sVComputer Science
p43
F0.0027518411743227894
sVBusiness
p44
F0.003287885553720712
sVManagement Science and Engineering
p45
F0.003919588262823381
ssS'education'
p46
(dp47
VMaster
p48
F0.0022105795903470424
sVDoctor
p49
F0.0033105828929375926
ssS'responsibility'
p50
(dp51
S'large data set'
p52
F0.009557620472136371
sS'processing'
p53
F0.014891380729520242
sS'analysis'
p54
F0.0010413942910459876
sS'design'
p55
F0.0088779258967688606
sS'recommendation'
p56
F0.015879645865156663
sS'implement'
p57
F0.0064372740885094452
sS'engineering design'
p58
F0.01776239446911777
ss.