(dp1
S'skills'
p2
(dp3
S'science'
p4
I1
sS'data scientist'
p5
I1
sS'research'
p6
I1
sS'teamwork'
p7
I1
sS'writing'
p8
I1
sS'data'
p9
I1
sS'experimentation'
p10
I1
ssS'working-year'
p11
(dp12
V[0]
p13
I1
ssS'major'
p14
(dp15
S'science'
p16
I1
sS'library science'
p17
I1
sS'history'
p18
I1
ssS'education'
p19
(dp20
S'Bachelor'
p21
I1
ssS'responsibility'
p22
(dp23
S'development'
p24
I1
ss.