(dp1
S'skills'
p2
(dp3
S'data scientist'
p4
F0.00049351278551141751
sS'r d'
p5
F0.0010949725649724729
sS'government'
p6
F0.0052167375490282872
sS'marketing'
p7
F0.0045483789970917603
sS'excel'
p8
F0.0051976242894843918
sS'writing'
p9
F0.0055953400372932439
sS'access'
p10
F0.0048616669455301652
sS'marketing strategy'
p11
F0.023770705929765584
sS'real estate'
p12
F0.013424847041178488
sS'communication'
p13
F0.006272343144996949
sS'organization'
p14
F0.0028572330765735962
sS'data'
p15
F0.00068676736227485738
sS'b2b'
p16
F0.0074479946854824237
ssS'working-year'
p17
(dp18
V(5, 10]
p19
F0.0032231718835449559
ssS'major'
p20
(dp21
S'information'
p22
F0.0016760175541153013
sS'business'
p23
F0.0021008300738570487
sS'marketing'
p24
F0.0045483789970917603
sS'journalism'
p25
F0.017121618982854674
sS'marketing strategy'
p26
F0.023770705929765584
sS'communication'
p27
F0.006272343144996949
ssS'education'
p28
(dp29
S'Bachelor'
p30
F0.00090654711283238586
ssS'responsibility'
p31
(dp32
S'development'
p33
F0.0012333007095286751
sS'information'
p34
F0.0016760175541153013
sS'product'
p35
F0.0015268417792153842
ss.