(dp1
S'skills'
p2
(dp3
S'communication'
p4
F0.020922943071949644
sS'analytics'
p5
F0.0019157212819020412
sS'account management'
p6
F0.011015754842031811
sS'insurance'
p7
F0.0069453114835896215
sS'management'
p8
F0.0039914047013200537
sS'recruiting'
p9
F0.0075966921819766329
sS'strategy'
p10
F0.003469188174508447
sS'access'
p11
F0.0051089471918424117
sS'policy'
p12
F0.01202492611471696
sS'finance'
p13
F0.0058483393263957899
sS'marketing'
p14
F0.012589523276283363
sS'data scientist'
p15
F0.0023334177646781463
sS'leadership'
p16
F0.0072793331330564858
sS'mentoring'
p17
F0.0075773429547994599
sS'business development'
p18
F0.0076624455485510643
sS'data'
p19
F0.00026123675743275977
sS'project management'
p20
F0.0041882231791289569
sS'training'
p21
F0.0051834686145866291
sS'science'
p22
F0.0030970655867581165
sS'analysis'
p23
F0.00075466678800469153
sS'managed care'
p24
F0.01383718432388497
sS'advertising'
p25
F0.014499547508062951
ssS'working-year'
p26
(dp27
V(5, 10]
p28
F0.0026556041003895571
ssS'major'
p29
(dp30
VData Science
p31
F0.002262751063006746
sVEconomics
p32
F0.0036140342456485925
sVBusiness
p33
F0.0023826307206478289
sVManagement Science and Engineering
p34
F0.0028404064723984417
ssS'education'
p35
(dp36
VBachelor
p37
F0.0020074423516958299
sVMaster
p38
F0.001601939835295544
ssS'responsibility'
p39
(dp40
S'development'
p41
F0.010669259933164041
sS'information'
p42
F0.0030552977963202526
sS'product'
p43
F0.0029625394068672835
sS'analysis'
p44
F0.00075466678800469153
sS'report'
p45
F0.013713280309509444
sS'presentation'
p46
F0.0054258906218273284
ss.