(dp1
S'skills'
p2
(dp3
S'open source'
p4
I1
sS'software engineering'
p5
I1
sS'big data'
p6
I1
sS'scala'
p7
I1
sS'deep learning'
p8
I1
sS'data science'
p9
I1
sS'documentation'
p10
I1
sS'data scientist'
p11
I1
sS'mapreduce'
p12
I1
sS'unit testing'
p13
I1
sS'machine learning'
p14
I1
sS'engineering'
p15
I1
sS'computer science'
p16
I1
sS'hadoop'
p17
I1
sS'spark'
p18
I1
sS'research'
p19
I1
sS'data analytics'
p20
I1
ssS'working-year'
p21
(dp22
V[0]
p23
I1
ssS'major'
p24
(dp25
S'software engineering'
p26
I1
sS'big data'
p27
I1
sS'machine learning data science'
p28
I1
sS'machine learning'
p29
I1
sS'engineering'
p30
I1
sS'design'
p31
I1
sS'computer science'
p32
I1
sS'phd'
p33
I1
sS'computer science data science'
p34
I1
sS'data science'
p35
I1
sS'data analytics'
p36
I1
ssS'education'
p37
(dp38
VDoctor
p39
I1
ssS'responsibility'
p40
(dp41
S'product'
p42
I1
sVinsight
p43
I1
sS'design'
p44
I1
sS'model'
p45
I1
sS'documentation'
p46
I1
ss.