(dp1
S'skills'
p2
(dp3
S'software engineering'
p4
F0.025768724036697849
sS'open source'
p5
F0.011848714942899106
sS'r d'
p6
F0.0019277686003036495
sS'big data'
p7
F0.01034359768629145
sS'scala'
p8
F0.010483350709292667
sS'deep learning'
p9
F0.013303657945226709
sS'data science'
p10
F0.0087372188371244389
sS'documentation'
p11
F0.010546122131386421
sS'data scientist'
p12
F0.00086886053787221405
sS'mapreduce'
p13
F0.013035324821988678
sS'unit testing'
p14
F0.020455047530572583
sS'machine learning'
p15
F0.0074416741549835101
sS'engineering'
p16
F0.0048930216459194785
sS'computer science'
p17
F0.0077633469244606677
sS'hadoop'
p18
F0.0055859211366129403
sS'spark'
p19
F0.0074391016403407874
sS'research'
p20
F0.0044763304938167164
sS'data analytics'
p21
F0.014361817977340874
ssS'working-year'
p22
(dp23
V[0]
p24
F0.0066956360204809629
ssS'major'
p25
(dp26
S'software engineering'
p27
F0.025768724036697849
sS'big data'
p28
F0.01034359768629145
sS'machine learning data science'
p29
F0.021731717312901733
sS'machine learning'
p30
F0.0074416741549835101
sS'engineering'
p31
F0.0048930216459194785
sS'design'
p32
F0.0063973582735850206
sS'computer science'
p33
F0.0077633469244606677
sS'phd'
p34
F0.007908885350793763
sS'computer science data science'
p35
F0.022471752618088967
sS'data science'
p36
F0.0087372188371244389
sS'data analytics'
p37
F0.014361817977340874
ssS'education'
p38
(dp39
VDoctor
p40
F0.0059749514431051282
ssS'responsibility'
p41
(dp42
S'product'
p43
F0.0026881017239707467
sVinsight
p44
F0.0048876116407279247
sS'design'
p45
F0.0063973582735850206
sS'model'
p46
F0.0034584721695735598
sS'documentation'
p47
F0.010546122131386421
ss.