(dp1
S'skills'
p2
(dp3
S'segmentation'
p4
F0.019115850245082777
sS'economics'
p5
F0.0079092139417804002
sS'customer insight'
p6
F0.013996283431643613
sS'theory'
p7
F0.0096715387804400515
sS'big data'
p8
F0.0042004129582926325
sS'marketing'
p9
F0.006287836707846696
sS'testing'
p10
F0.0067570231514851916
sS'data scientist'
p11
F0.0034962761226530635
sS'analysis'
p12
F0.0011307548572743562
sS'strategy'
p13
F0.01039611505760287
sS'analytics'
p14
F0.02870420666612299
sS'customer analytics'
p15
F0.017984075876112181
sS'statistics'
p16
F0.0030776001808666821
sS'healthcare'
p17
F0.017803566622509336
sS'advanced analytics'
p18
F0.009712246053921068
sS'management'
p19
F0.0029902602877876308
sS'customer experience'
p20
F0.012643882513155924
sS'education'
p21
F0.0069261608904728359
sS'data'
p22
F0.00039142405239099971
sS'crm'
p23
F0.021708831460044872
ssS'working-year'
p24
(dp25
V(10, 15]
p26
F0.0064601529907536599
ssS'major'
p27
(dp28
VData Science
p29
F0.003390392681864893
sVEconomics
p30
F0.0054150876155922801
sVStatistics
p31
F0.0059455602966603308
sVBusiness
p32
F0.0035700143471092878
sVManagement Science and Engineering
p33
F0.004255922569204265
ssS'education'
p34
(dp35
VMaster
p36
F0.0024002662878685704
sVDoctor
p37
F0.003594659312793624
ssS'responsibility'
p38
(dp39
S'development'
p40
F0.0039965709650630976
sS'information'
p41
F0.0045779049489418962
sS'business problem'
p42
F0.0093998368387149984
sS'insight'
p43
F0.0060557536501963209
sS'analysis'
p44
F0.0011307548572743562
sS'design'
p45
F0.014459592178400768
ss.