(dp1
S'skills'
p2
(dp3
S'visualization'
p4
F0.0087933918995670938
sS'management'
p5
F0.0022592414034727469
sS'r d'
p6
F0.0010891636919487463
sS'data visualization'
p7
F0.0045391404368276423
sS'cognition'
p8
F0.018277480470664846
sS'data scientist'
p9
F0.0004908946805484922
sS'product management'
p10
F0.0078587916253648211
sS'user interface'
p11
F0.010731345447298264
sS'information design'
p12
F0.014229595480619518
sS'innovation'
p13
F0.0033110878511803587
sS'interaction design'
p14
F0.012333976109785328
sS'organization'
p15
F0.0028420753414193597
sS'product development'
p16
F0.0054876453331063916
sS'data'
p17
F0.0027324961363721111
sS'theory'
p18
F0.0077968655157944697
ssS'working-year'
p19
(dp20
V(2, 5]
p21
F0.0020820523927025563
ssS'major'
p22
(dp23
S'information'
p24
F0.0066685048572226839
sS'management'
p25
F0.0022592414034727469
sS'design'
p26
F0.018072112894875456
sS'business'
p27
F0.0041793701734556673
sS'general'
p28
F0.0061487018437012897
ssS'education'
p29
(dp30
S'Bachelor'
p31
F0.00090173784432929626
ssS'responsibility'
p32
(dp33
S'development'
p34
F0.0012267580001943056
sS'information'
p35
F0.0066685048572226839
sS'product'
p36
F0.0045562254684809213
sVinsight
p37
F0.002761435754575724
sS'design'
p38
F0.018072112894875456
sS'solve problem'
p39
F0.008031365466662414
sS'interface'
p40
F0.0061762437325908609
ss.