(dp1
S'skills'
p2
(dp3
S'consulting'
p4
I1
sS'economics'
p5
I1
sS'r d'
p6
I1
sS'nosql'
p7
I1
sS'communication'
p8
I1
sS'data science'
p9
I1
sS'forecasting'
p10
I1
sS'analytics'
p11
I1
sS'engineering'
p12
I1
sS'problem solving'
p13
I1
sS'spss'
p14
I1
sS'econometrics'
p15
I1
sS'management'
p16
I1
sS'marketing mix modeling'
p17
I1
sS'big data'
p18
I1
sS'microsoft powerpoint'
p19
I1
sS'predictive modeling'
p20
I1
sS'excel'
p21
I1
sS'research'
p22
I1
sS'r'
I1
sS'business planning'
p23
I1
sS'innovation'
p24
I1
sS'statistical software'
p25
I1
sS'data management'
p26
I1
sS'segmentation'
p27
I1
sS'data modeling'
p28
I1
sS'python'
p29
I1
sS'marketing'
p30
I1
sS'processing'
p31
I1
sS'statistical modeling'
p32
I1
sS'sql'
p33
I1
sS'modeling'
p34
I1
sS'pricing strategy'
p35
I1
sS'training'
p36
I1
sS'data processing'
p37
I1
sS'science'
p38
I1
sS'marketing analytics'
p39
I1
sS'simulation'
p40
I1
sS'optimization'
p41
I1
sS'operations research'
p42
I1
sS'organization'
p43
I1
sS'powerpoint'
p44
I1
ssS'working-year'
p45
(dp46
V[0]
p47
I1
ssS'major'
p48
(dp49
S'management'
p50
I1
sS'business'
p51
I1
sS'big data'
p52
I1
sS'statistics economics'
p53
I1
sS'marketing'
p54
I1
sS'data science'
p55
I1
sS'economics'
p56
I1
sS'statistic'
p57
I1
sS'marketing analytics'
p58
I1
sS'analytics'
p59
I1
sS'engineering'
p60
I1
sS'communication'
p61
I1
sS'econometrics'
p62
I1
sS'operations research'
p63
I1
sS'science'
p64
I1
ssS'education'
p65
(dp66
VMaster
p67
I1
ssS'responsibility'
p68
(dp69
S'development'
p70
I1
sS'forecasting'
p71
I1
sS'processing'
p72
I1
sS'statistical model'
p73
I1
sS'analytic'
p74
I1
sS'optimization'
p75
I1
sS'modeling'
p76
I1
sS'simulation'
p77
I1
ss.