(dp1
S'skills'
p2
(dp3
S'big data'
p4
F0.044962985860817928
sS'statistical computing'
p5
F0.21555821608857631
sS'research'
p6
F0.019458334595570621
sS'fraud detection'
p7
F0.088595448377550859
sS'organization'
p8
F0.021866579667655071
sS'data'
p9
F0.0052558726704708464
ssS'working-year'
p10
(dp11
V[0]
p12
F0.029105519844131532
ssS'major'
p13
(dp14
S'statistical computing'
p15
F0.21555821608857631
sS'big data'
p16
F0.044962985860817928
sS'computing'
p17
F0.043474793114968824
ssS'education'
p18
(dp19
S'Bachelor'
p20
F0.0069378605573907079
ssS'responsibility'
p21
(dp22
S'report'
p23
F0.026032100749683453
ss.