(dp1
S'skills'
p2
(dp3
S'r d'
p4
F0.00095270234771386848
sS'data science'
p5
F0.0043179294949130054
sS'hadoop'
p6
F0.0027605596336393416
sS'statistical analysis'
p7
F0.0042505310752226728
sS'problem solving'
p8
F0.0043777595812547589
sS'big data'
p9
F0.005111801176751923
sS'programming languages'
p10
F0.0095837940910214383
sS'tableau'
p11
F0.004613546685231818
sS'advanced analytics'
p12
F0.010121539824100531
sS'python'
p13
F0.0016856511910681741
sS'processing'
p14
F0.0036972053100230596
sS'sql'
p15
F0.0043829739050984468
sS'data'
p16
F0.0017926062240353005
sS'project management'
p17
F0.01076625821206802
sS'fraud'
p18
F0.0080807376277799575
sS'programming'
p19
F0.0024114507436235762
sS'analysis'
p20
F0.0011631322506386824
sS'credit'
p21
F0.0062598515076550017
sS'organizational leadership'
p22
F0.011472635944604371
sS'r'
F0.0018492778371346681
sS'healthcare'
p23
F0.0099091159086112258
sS'organization'
p24
F0.0049719833119030096
sS'security'
p25
F0.0037018540382173161
sS'validation'
p26
F0.005879303107288761
sS'data analytics'
p27
F0.0070976037799851642
ssS'working-year'
p28
(dp29
V(2, 5]
p30
F0.0018211920001133728
ssS'major'
p31
(dp32
S'information'
p33
F0.0087495115934093457
sS'health services'
p34
F0.0094139514383744221
sS'business'
p35
F0.0036557367874542608
sS'data science'
p36
F0.0043179294949130054
sS'data analytics'
p37
F0.0070976037799851642
sS'advanced analytics'
p38
F0.010121539824100531
sS'big data'
p39
F0.005111801176751923
sS'project management'
p40
F0.01076625821206802
ssS'education'
p41
(dp42
VBachelor
p43
F0.00078875908889128701
sVMaster
p44
F0.0022380458907283202
ssS'responsibility'
p45
(dp46
S'development'
p47
F0.0010730574618868984
sS'large data set'
p48
F0.0051459144552651083
sVinsight
p49
F0.0024154554048144965
sS'information'
p50
F0.0087495115934093457
sS'processing'
p51
F0.0036972053100230596
sS'communicate'
p52
F0.0057304325433602228
sS'analysis'
p53
F0.0011631322506386824
sS'understand'
p54
F0.0062228155061536256
sS'report'
p55
F0.0029595659785022952
sS'presentation'
p56
F0.00392644130428094
ss.