(dp1
S'skills'
p2
(dp3
S'consulting'
p4
F0.011940041968747083
sS'economics'
p5
F0.0071026007265469222
sS'r d'
p6
F0.0011867477221522466
sS'nosql'
p7
F0.0067967455226844381
sS'communication'
p8
F0.002266019922325487
sS'data science'
p9
F0.005378692521119958
sS'forecasting'
p10
F0.01614449715061219
sS'analytics'
p11
F0.0088047315934431242
sS'engineering'
p12
F0.0030121780652625687
sS'problem solving'
p13
F0.0054532207500601181
sS'spss'
p14
F0.0070280616609136176
sS'econometrics'
p15
F0.0097575642591681503
sS'management'
p16
F0.0024616589858648136
sS'marketing mix modeling'
p17
F0.017911745590095802
sS'big data'
p18
F0.0063675904831794186
sS'microsoft powerpoint'
p19
F0.021391431659795866
sS'predictive modeling'
p20
F0.0062524169047683976
sS'excel'
p21
F0.005633263319527881
sS'research'
p22
F0.0055113202033697144
sS'r'
F0.0023035801959683296
sS'statistical software'
p23
F0.0096895593932631099
sS'innovation'
p24
F0.0072154920225144231
sS'business planning'
p25
F0.015504501434085429
sS'data management'
p26
F0.0067538406555109985
sS'segmentation'
p27
F0.0081402516772852811
sS'data modeling'
p28
F0.007754347492595781
sS'python'
p29
F0.0020997562524577543
sS'marketing'
p30
F0.029577609085134276
sS'processing'
p31
F0.0046054782908090718
sS'data scientist'
p32
F0.00053487657389243227
sS'statistical modeling'
p33
F0.006759931056957256
sS'sql'
p34
F0.0027298580247072696
sS'modeling'
p35
F0.002790939820526432
sS'pricing strategy'
p36
F0.019388117873136601
sS'training'
p37
F0.0051830956977710054
sS'data processing'
p38
F0.0085743035190903091
sS'science'
p39
F0.0042417724387509214
sS'marketing analytics'
p40
F0.021086952665022494
sS'simulation'
p41
F0.0087631072543904783
sS'optimization'
p42
F0.0055639221424899077
sS'operations research'
p43
F0.015305869098049653
sS'organization'
p44
F0.0030967121494656028
sS'powerpoint'
p45
F0.0081998414649217255
ssS'working-year'
p46
(dp47
V[0]
p48
F0.0041218799779261413
ssS'major'
p49
(dp50
S'management'
p51
F0.0024616589858648136
sS'business'
p52
F0.0034153668108225137
sS'big data'
p53
F0.0063675904831794186
sS'statistics economics'
p54
F0.013146860964744081
sS'marketing'
p55
F0.029577609085134276
sS'data science'
p56
F0.005378692521119958
sS'economics'
p57
F0.0071026007265469222
sS'statistic'
p58
F0.0025682541679030169
sS'marketing analytics'
p59
F0.021086952665022494
sS'analytics'
p60
F0.0088047315934431242
sS'engineering'
p61
F0.0030121780652625687
sS'communication'
p62
F0.002266019922325487
sS'econometrics'
p63
F0.0097575642591681503
sS'operations research'
p64
F0.015305869098049653
sS'science'
p65
F0.0042417724387509214
ssS'education'
p66
(dp67
VMaster
p68
F0.0027878548523234277
ssS'responsibility'
p69
(dp70
S'development'
p71
F0.0013366698441423502
sS'forecasting'
p72
F0.01614449715061219
sS'processing'
p73
F0.0046054782908090718
sS'statistical model'
p74
F0.0053766671463145689
sS'analytic'
p75
F0.051831759648777696
sS'optimization'
p76
F0.0055639221424899077
sS'modeling'
p77
F0.002790939820526432
sS'simulation'
p78
F0.0087631072543904783
ss.