(dp1
S'skills'
p2
(dp3
S'c'
F0.0081846581994080691
sS'data analysis'
p4
F0.0097860272886017338
sS'java'
p5
F0.0049451983672632082
sS'big data'
p6
F0.007730478270807294
sS'sql'
p7
F0.0033141434264867208
sS'communication'
p8
F0.0027510276951741006
sS'processing'
p9
F0.005591212240771715
sS'r'
F0.0027966271852808491
sS'data'
p10
F0.0054218475969067684
sS'research'
p11
F0.003345468053273546
sS'engineering'
p12
F0.003656889861687189
sS'machine learning'
p13
F0.0055616722631982021
sS'statistical analysis'
p14
F0.0064279961172665689
sS'statistical modeling'
p15
F0.0082067934937095112
sS'natural language processing'
p16
F0.017891106000847274
sS'data modeling'
p17
F0.0094140499383794391
sS'modeling'
p18
F0.0033882988698320897
sS'analysis'
p19
F0.0035179649124580503
sS'hypothesis testing'
p20
F0.014722796474438343
sS'data analytics'
p21
F0.010733569225170547
sS'matlab'
p22
F0.0077624488675903979
ssS'working-year'
p23
(dp24
V[0]
p25
F0.0050041069205699826
ssS'major'
p26
(dp27
S'business'
p28
F0.0027642500971803274
sS'big data'
p29
F0.007730478270807294
sS'communication'
p30
F0.0027510276951741006
sS'natural language processing'
p31
F0.017891106000847274
sS'machine learning'
p32
F0.0055616722631982021
sS'engineering'
p33
F0.003656889861687189
sS'statistic'
p34
F0.0031179506740155924
sS'data analytics'
p35
F0.010733569225170547
ssS'education'
p36
(dp37
S'Bachelor'
p38
F0.0011928251484636656
ssS'responsibility'
p39
(dp40
S'development'
p41
F0.0048682922744552968
sS'product'
p42
F0.0060270070232186215
sS'processing'
p43
F0.005591212240771715
sS'predict'
p44
F0.011973626867127149
sVinsight
p45
F0.0073056931892985823
sS'analysis'
p46
F0.0035179649124580503
sS'statistical model'
p47
F0.0065274625706134761
sS'data analysis'
p48
F0.0097860272886017338
sS'understand'
p49
F0.0047053219002670399
sS'modeling'
p50
F0.0033882988698320897
sS'model'
p51
F0.0025847528846286603
sS'extract'
p52
F0.0082891725455528729
ss.