(dp1
S'skills'
p2
(dp3
S'nlp'
p4
I1
sS'search'
p5
I1
sS'b testing'
p6
I1
sS'data scientist'
p7
I1
sS'agile'
p8
I1
sS'nosql'
p9
I1
sS'customer service'
p10
I1
sS'testing'
p11
I1
sS'programming'
p12
I1
sS'hadoop'
p13
I1
sS'machine learning'
p14
I1
sS'lucene'
p15
I1
sS'leadership'
p16
I1
sS'elasticsearch'
p17
I1
sS'innovation'
p18
I1
sS'go'
p19
I1
sS'spark'
p20
I1
sS'big data'
p21
I1
sS'solr'
p22
I1
sS'cassandra'
p23
I1
ssS'working-year'
p24
(dp25
V[0]
p26
I1
ssS'major'
p27
(dp28
S'law'
p29
I1
sS'design'
p30
I1
sS'big data'
p31
I1
sS'business'
p32
I1
sS'machine learning'
p33
I1
ssS'education'
p34
(dp35
S'Bachelor'
p36
I1
ssS'responsibility'
p37
(dp38
S'design'
p39
I1
sS'product'
p40
I1
sS'communicate'
p41
I1
sS'model'
p42
I1
ss.