(dp1
S'skills'
p2
(dp3
S'a'
F0.0046868217885063321
sS'training'
p4
F0.005897981832136163
sS'management'
p5
F0.0090831966636556599
sS'data scientist'
p6
F0.0026550668299846572
sS'big data'
p7
F0.0031897872841169612
sS'marketing'
p8
F0.0047749737405452346
sS'data science'
p9
F0.0030146389114300729
sS'data management'
p10
F0.0068920253248352641
sS'storage'
p11
F0.0093746906329485197
sS'governance'
p12
F0.018067749478174428
sS'strategy'
p13
F0.01184219121223184
sS'analytics'
p14
F0.0043595862756066498
sS'vendor management'
p15
F0.012569270292687694
sS'data collection'
p16
F0.018172178180256859
sS'facebook'
p17
F0.010711477967132139
sS'marketing strategy'
p18
F0.0093452632207752552
sS'communication'
p19
F0.0039678430052903666
sS'organization'
p20
F0.0088380142319883764
sS'data'
p21
F0.0050531962252281688
sS'project management'
p22
F0.004765547176251995
sS'science'
p23
F0.001761989694722036
ssS'working-year'
p24
(dp25
V(5, 10]
p26
F0.0030216648159821021
ssS'major'
p27
(dp28
VData Science
p29
F0.0025746591042733399
sVEconomics
p30
F0.0041122093922918816
sVBusiness
p31
F0.0027110635267521659
sVManagement Science and Engineering
p32
F0.0032319411991701564
ssS'education'
p33
(dp34
S'Bachelor'
p35
F0.0022841574628318464
ssS'responsibility'
p36
(dp37
S'insight'
p38
F0.0045987302155626195
sS'data collection'
p39
F0.018172178180256859
sS'design'
p40
F0.0036601975188433021
sS'transformation'
p41
F0.0078808449507089384
ss.