(dp1
S'skills'
p2
(dp3
S'data science'
p4
F0.0040912956655122417
sS'rest'
p5
F0.012168015178433035
sS'engineering'
p6
F0.0041661727111348794
sS'cassandra'
p7
F0.012804103818233594
sS'java'
p8
F0.0042151937675791954
sS'big data'
p9
F0.0043289970284444475
sS'scala'
p10
F0.0083012462166620303
sS'team building'
p11
F0.013621873319957276
sS'hadoop'
p12
F0.004370090140814846
sS'natural language processing'
p13
F0.0085236671155112329
sS'data analysis'
p14
F0.0050468095747131471
sS'data modeling'
p15
F0.0088850399483614666
sS'python'
p16
F0.0017729643290927413
sS'processing'
p17
F0.0055547213832337411
sS'data scientist'
p18
F0.0036033049835506063
sS'data quality'
p19
F0.012023258718320488
sS'modeling'
p20
F0.0027624003027943963
sS'spark'
p21
F0.0057351551813457774
sS'data'
p22
F0.004840877056100935
sS'science'
p23
F0.0023912717285513346
sS'programming'
p24
F0.0037493715470574012
sS'machine learning'
p25
F0.0022296521150817665
sS'algorithms'
p26
F0.0061026247563444012
sS'healthcare'
p27
F0.0091742868820073615
sS'organization'
p28
F0.0059972239431349697
ssS'working-year'
p29
(dp30
S'[0]'
p31
F0.0074701181311033421
ssS'major'
p32
(dp33
VData Science
p34
F0.0034941802129423898
sVEngineering
p35
F0.0076611528121317265
sVBusiness
p36
F0.0036793005005922252
sVComputer Science
p37
F0.0030794413141231212
ssS'education'
p38
(dp39
VBachelor
p40
F0.0030999279852717914
ssS'responsibility'
p41
(dp42
S'processing'
p43
F0.0055547213832337411
sS'insight'
p44
F0.01248226772795568
sS'develop ... model'
p45
F0.010543921861143325
sS'data analysis'
p46
F0.0050468095747131471
sS'modeling'
p47
F0.0027624003027943963
sS'model'
p48
F0.010526604366677829
ss.