(dp1
S'skills'
p2
(dp3
S'digital marketing'
p4
I1
sS'communication'
p5
I1
sS'microsoft excel'
p6
I1
sS'digital imaging'
p7
I1
sS'analytics'
p8
I1
sS'business intelligence'
p9
I1
sS'problem solving'
p10
I1
sS'sap'
p11
I1
sS'visualization'
p12
I1
sS'excel'
p13
I1
sS'tableau'
p14
I1
sS'intelligence'
p15
I1
sS'advanced analytics'
p16
I1
sS'user acceptance testing'
p17
I1
sS'data management'
p18
I1
sS'customer satisfaction'
p19
I1
sS'python'
p20
I1
sS'marketing'
p21
I1
sS'collaboration'
p22
I1
sS'philosophy'
p23
I1
sS'data scientist'
p24
I1
sS'business analytics'
p25
I1
sS'construction'
p26
I1
sS'business development'
p27
I1
sS'data'
p28
I1
sS'training'
p29
I1
sS'data visualization'
p30
I1
sS'business objects'
p31
I1
sS'r'
I1
sS'dashboard'
p32
I1
sS'product marketing'
p33
I1
ssS'working-year'
p34
(dp35
V(0, 2]
p36
I1
sV(2, 5]
p37
I1
ssS'major'
p38
(dp39
S'business'
p40
I1
sS'marketing'
p41
I1
sS'philosophy'
p42
I1
sS'business analytics'
p43
I1
sS'analytics'
p44
I1
sS'design'
p45
I1
sS'communication'
p46
I1
sS'advanced analytics'
p47
I1
sS'business management'
p48
I1
ssS'education'
p49
(dp50
VBachelor
p51
I1
sVMaster
p52
I1
sVDoctor
p53
I1
ssS'responsibility'
p54
(dp55
S'development'
p56
I1
sS'large data set'
p57
I1
sS'product'
p58
I1
sS'pattern'
p59
I1
sVinsight
p60
I1
sS'communicate'
p61
I1
sS'presentation'
p62
I1
sS'analytic'
p63
I1
sS'design'
p64
I1
sS'understand'
p65
I1
sS'extract'
p66
I1
ss.