(dp1
S'skills'
p2
(dp3
S'data science'
p4
I1
sS'statistical analysis'
p5
I1
sS'data mining'
p6
I1
sS'accounting'
p7
I1
sS'machine learning'
p8
I1
sS'rdbms'
p9
I1
sS'big data'
p10
I1
sS'predictive modeling'
p11
I1
sS'strategy'
p12
I1
sS'natural language processing'
p13
I1
sS'government'
p14
I1
sS'python'
p15
I1
sS'processing'
p16
I1
sS'data scientist'
p17
I1
sS'modeling'
p18
I1
sS'search'
p19
I1
sS'data visualization'
p20
I1
sS'programming'
p21
I1
sS'analysis'
p22
I1
sS'linear regression'
p23
I1
sS'r'
I1
sS'architecture'
p24
I1
sS'logistic regression'
p25
I1
sS'oracle'
p26
I1
sS'cluster analysis'
p27
I1
ssS'working-year'
p28
(dp29
V(20, 30)
p30
I1
sV(2, 5]
p31
I1
ssS'major'
p32
(dp33
S'information'
p34
I1
sS'data mining predictive analysis'
p35
I1
sS'business'
p36
I1
sS'big data'
p37
I1
sS'data science'
p38
I1
sS'natural language processing'
p39
I1
sVapplied statistic
p40
I1
sS'machine learning data mining'
p41
I1
sS'finance accounting'
p42
I1
sS'data mining'
p43
I1
sS'accounting'
p44
I1
sS'machine learning'
p45
I1
ssS'education'
p46
(dp47
S'Bachelor'
p48
I1
ssS'responsibility'
p49
(dp50
S'information'
p51
I1
sS'formulate'
p52
I1
sS'processing'
p53
I1
sS'analysis'
p54
I1
sS'statistical method'
p55
I1
sS'data mining'
p56
I1
sS'modeling'
p57
I1
ss.