(dp1
S'skills'
p2
(dp3
S'financial markets'
p4
F0.015678667379036237
sS'r d'
p5
F0.0010214296315041724
sS'intelligence'
p6
F0.0047509803269211344
sS'arm'
p7
F0.01260215456542044
sS'analytics'
p8
F0.0050521345461547618
sS'engineering'
p9
F0.0025925711705991265
sS'trading'
p10
F0.023029133271880942
sS'analysis'
p11
F0.0012470398010578909
sS'education'
p12
F0.0073992898513640651
sS'econometrics'
p13
F0.0083983015762989551
sS'management'
p14
F0.0021187413161921033
sS'predictive modeling'
p15
F0.0053814334553479249
sS'research'
p16
F0.0071153611580817957
sS'access'
p17
F0.013605411228162775
sS'computer science'
p18
F0.0041134151614679653
sS'data modeling'
p19
F0.0066741398816869161
sS'finance'
p20
F0.0069810331323790871
sS'data scientist'
p21
F0.00046036640439497907
sS'search'
p22
F0.0062717453499422692
sS'modeling'
p23
F0.0024021521838361831
sS'data'
p24
F0.0032032059807595961
sS'c'
F0.005802556186147511
sS'applied mathematics'
p25
F0.014097906180762633
sS'unit testing'
p26
F0.010838122199034727
sS'machine learning'
p27
F0.0039429766045061881
sS'etl'
p28
F0.0065725997167719197
ssS'working-year'
p29
(dp30
V[0]
p31
F0.0035476877421951368
ssS'major'
p32
(dp33
S'information'
p34
F0.0078172460546422646
sS'management'
p35
F0.0021187413161921033
sS'finance'
p36
F0.0069810331323790871
sS'applied mathematics'
p37
F0.014097906180762633
sS'software systems'
p38
F0.015179487556784048
sS'machine learning'
p39
F0.0039429766045061881
sS'analytics'
p40
F0.0050521345461547618
sS'engineering'
p41
F0.0025925711705991265
sS'design'
p42
F0.0033896450554069882
sVphysic
p43
F0.0056705452662223019
sS'applied math'
p44
F0.0061912011590102012
sS'computer science engineering'
p45
F0.0075319024401286818
sS'mathematics computer science'
p46
F0.0088165394669457893
sS'econometrics'
p47
F0.0083983015762989551
sS'applied mathematics computer science'
p48
F0.013039691006155679
sS'computer science'
p49
F0.0041134151614679653
ssS'education'
p50
(dp51
VMaster
p52
F0.0023994969624475276
ssS'responsibility'
p53
(dp54
S'development'
p55
F0.0011504670797842119
sS'information'
p56
F0.0078172460546422646
sS'product'
p57
F0.0014242927044919628
sS'understand'
p58
F0.0033358625412340951
sS'communicate'
p59
F0.0030719109778460894
sS'analysis'
p60
F0.0012470398010578909
sS'design'
p61
F0.0033896450554069882
sS'modeling'
p62
F0.0024021521838361831
sS'model'
p63
F0.0036649481199958617
sS'prototype'
p64
F0.011861925719837546
sS'extract'
p65
F0.0058766521778173351
ss.