(dp1
S'skills'
p2
(dp3
S'testing'
p4
I1
sS'analytics'
p5
I1
sS'engineering'
p6
I1
sS'multivariate statistics'
p7
I1
sS'genetics'
p8
I1
sS'big data'
p9
I1
sS'tableau'
p10
I1
sS'research'
p11
I1
sS'microstrategy'
p12
I1
sS'operations research'
p13
I1
sS'automotive'
p14
I1
sS'data scientist'
p15
I1
sS'automation'
p16
I1
sS'spotfire'
p17
I1
sS'data'
p18
I1
sS'data collection'
p19
I1
sS'data visualization'
p20
I1
sS'science'
p21
I1
sS'analysis'
p22
I1
sS'machine learning'
p23
I1
sS'organization'
p24
I1
sS'retail'
p25
I1
sS'data integration'
p26
I1
sS'trend analysis'
p27
I1
ssS'working-year'
p28
(dp29
V(0, 2]
p30
I1
ssS'major'
p31
(dp32
S'genetics'
p33
I1
sS'business'
p34
I1
sS'big data'
p35
I1
sS'science'
p36
I1
sS'automation'
p37
I1
sS'analytics'
p38
I1
sS'engineering'
p39
I1
sS'design'
p40
I1
sS'statistic'
p41
I1
sS'machine learning'
p42
I1
sS'operations research'
p43
I1
ssS'education'
p44
(dp45
VBachelor
p46
I1
sVMaster
p47
I1
ssS'responsibility'
p48
(dp49
S'development'
p50
I1
sS'product'
p51
I1
sS'data collection'
p52
I1
sS'analysis'
p53
I1
sS'improvement'
p54
I1
sS'understand'
p55
I1
sS'design'
p56
I1
sS'implement'
p57
I1
sS'data aggregation'
p58
I1
ss.