(dp1
S'skills'
p2
(dp3
S'testing'
p4
F0.0069402644572881794
sS'analytics'
p5
F0.0058965251659900113
sS'engineering'
p6
F0.0041520500917751006
sS'sas'
p7
F0.0093914363164570615
sS'multivariate statistics'
p8
F0.015193331701545161
sS'statistics'
p9
F0.0031610605247545916
sS'genetics'
p10
F0.013166796966504737
sS'big data'
p11
F0.0043143224622463304
sS'tableau'
p12
F0.0068102579224535312
sS'research'
p13
F0.0057841379095711068
sS'microstrategy'
p14
F0.015485736479648154
sS'operations research'
p15
F0.009765893273057321
sS'automotive'
p16
F0.014397927007915708
sS'data scientist'
p17
F0.0035910903903860281
sS'automation'
p18
F0.022610497121788538
sS'spotfire'
p19
F0.01455667495830666
sS'data'
p20
F0.0016081557677894633
sS'data collection'
p21
F0.024578640996347413
sS'data visualization'
p22
F0.0066668936460325453
sS'science'
p23
F0.0023831657226918387
sS'analysis'
p24
F0.0058070969788835587
sS'machine learning'
p25
F0.0022220939723187772
sS'organization'
p26
F0.0059768943704463767
sS'retail'
p27
F0.011681225370903464
sS'data integration'
p28
F0.013120885289598583
sS'trend analysis'
p29
F0.019701963306780697
ssS'working-year'
p30
(dp31
V(0, 2]
p32
F0.0077206107257293335
ssS'major'
p33
(dp34
VStatistics
p35
F0.0061067958301290852
sVBusiness
p36
F0.0036668282955054717
sVData Science
p37
F0.0034823355342544493
sVEngineering
p38
F0.0041520500917751006
sVComputer Science
p39
F0.0030690025300074497
sVBiological Engineering
p40
F0.0089159178999209839
sVOperations Research
p41
F0.010910945417583572
ssS'education'
p42
(dp43
VBachelor
p44
F0.0030894197548132431
sVMaster
p45
F0.0024653582549972095
ssS'responsibility'
p46
(dp47
S'development'
p48
F0.0041049525505563343
sS'product'
p49
F0.0091185958692728587
sS'data collection'
p50
F0.024578640996347413
sS'analysis'
p51
F0.0058070969788835587
sS'improvement'
p52
F0.0091057847333529084
sS'understand'
p53
F0.0071243383506585604
sS'design'
p54
F0.0099011444747015426
sS'implement'
p55
F0.0071791972037952793
sS'data aggregation'
p56
F0.018945547023684433
ss.