(dp1
S'skills'
p2
(dp3
S'debugging'
p4
I1
sS'communication'
p5
I1
sS'reinforcement learning'
p6
I1
sS'engineering'
p7
I1
sS'c++'
p8
I1
sS'data mining'
p9
I1
sS'machine learning'
p10
I1
sS'git'
p11
I1
sS'open source'
p12
I1
sS'recruiting'
p13
I1
sS'hadoop'
p14
I1
sS'computer science'
p15
I1
sS'operations research'
p16
I1
sS'data analysis'
p17
I1
sS'theory'
p18
I1
sS'processing'
p19
I1
sS'data scientist'
p20
I1
sS'training'
p21
I1
sS'experimental design'
p22
I1
sS'data processing'
p23
I1
sS'data wrangling'
p24
I1
sS'data'
p25
I1
sS'c'
I1
sS'software engineering'
p26
I1
sS'science'
p27
I1
sS'economics'
p28
I1
sS'programming'
p29
I1
sS'analysis'
p30
I1
sS'simulation'
p31
I1
sS'data engineering'
p32
I1
sS'artificial intelligence'
p33
I1
sS'application development'
p34
I1
ssS'working-year'
p35
(dp36
V(5, 10]
p37
I1
ssS'major'
p38
(dp39
S'information'
p40
I1
sS'economics statistics'
p41
I1
sS'economics'
p42
I1
sS'software engineering'
p43
I1
sS'communication'
p44
I1
sS'machine learning'
p45
I1
sS'statistic'
p46
I1
sS'reinforcement learning'
p47
I1
sS'artificial intelligence'
p48
I1
sS'phd'
p49
I1
sS'engineering'
p50
I1
sS'operations research'
p51
I1
sS'design'
p52
I1
sS'computer science'
p53
I1
sS'machine learning artificial intelligence'
p54
I1
sS'data mining'
p55
I1
sS'development practice'
p56
I1
sS'law'
p57
I1
sS'computer science economics'
p58
I1
sS'statistics operations research'
p59
I1
sS'science'
p60
I1
ssS'education'
p61
(dp62
VDoctor
p63
I1
ssS'responsibility'
p64
(dp65
S'development'
p66
I1
sS'information'
p67
I1
sS'product'
p68
I1
sS'data analysis'
p69
I1
sS'data mining'
p70
I1
sS'business problem'
p71
I1
sS'processing'
p72
I1
sS'analysis'
p73
I1
sS'simulation'
p74
I1
sS'design'
p75
I1
sS'design experiment'
p76
I1
sS'data wrangling'
p77
I1
sS'understand'
p78
I1
sS'transformation'
p79
I1
ss.