(dp1
S'skills'
p2
(dp3
S'forecasting'
p4
I1
sS'data analysis'
p5
I1
sS'big data'
p6
I1
sS'data scientist'
p7
I1
sS'analysis'
p8
I1
sS'machine learning'
p9
I1
sS'r'
I1
sS'linux'
p10
I1
sS'strategy'
p11
I1
ssS'working-year'
p12
(dp13
V[0]
p14
I1
ssS'major'
p15
(dp16
S'machine learning'
p17
I1
sS'big data'
p18
I1
sS'statistic'
p19
I1
ssS'education'
p20
(dp21
S'Bachelor'
p22
I1
ssS'responsibility'
p23
(dp24
S'forecasting'
p25
I1
sS'data analysis'
p26
I1
sS'analysis'
p27
I1
ss.