(dp1
S'skills'
p2
(dp3
S'quality improvement'
p4
F0.010391483557111442
sS'r d'
p5
F0.00078212326069462357
sS'communication'
p6
F0.0014934150345230831
sS'data science'
p7
F0.0035448144996333441
sS'health insurance'
p8
F0.0087391127619835356
sS'research'
p9
F0.0018161112289199249
sS'insurance'
p10
F0.0096240661974235069
sS'management'
p11
F0.0032447009870827642
sS'continuous improvement'
p12
F0.006408158443673876
sS'access'
p13
F0.0069452384936145219
sS'computer science'
p14
F0.0031497007522097564
sS'innovation'
p15
F0.0047553528376952205
sS'policy'
p16
F0.004483452925063078
sS'military'
p17
F0.0059697420129422515
sS'customer satisfaction'
p18
F0.0074188517947926863
sS'finance'
p19
F0.0053454767985074148
sS'c'
F0.0044431001653929512
sS'sql'
p20
F0.0017991064315213627
sS'business intelligence tools'
p21
F0.0097766801959668082
sS'vba'
p22
F0.0091171110621960944
sS'economics'
p23
F0.0046809520978766386
sS'programming'
p24
F0.0019796862295271642
sS'business intelligence'
p25
F0.004435131213689057
sS'r'
F0.0015181690434381754
sS'healthcare'
p26
F0.0081349122983075031
sS'organization'
p27
F0.0020408807689811402
ssS'working-year'
p28
(dp29
V[0]
p30
F0.0027165151854522764
ssS'major'
p31
(dp32
S'information'
p33
F0.0071829323747798629
sS'management'
p34
F0.0032447009870827642
sS'finance'
p35
F0.0053454767985074148
sS'business'
p36
F0.00075029645494894593
sS'communication'
p37
F0.0014934150345230831
sS'data science'
p38
F0.0035448144996333441
sS'economics'
p39
F0.0046809520978766386
sS'general'
p40
F0.0044153535144293076
sS'computer science'
p41
F0.0031497007522097564
sS'statistic'
p42
F0.0016926017944656074
sS'mathematics computer science'
p43
F0.0067509502204042048
sS'computer science data science'
p44
F0.0091171110621960944
ssS'education'
p45
(dp46
VMaster
p47
F0.0018373291026741068
ssS'responsibility'
p48
(dp49
S'report'
p50
F0.0048593254732742447
sS'development'
p51
F0.0026427872347043039
sS'product'
p52
F0.0021812025417362632
sS'improvement'
p53
F0.0037044441182451072
sS'information'
p54
F0.0071829323747798629
ss.