(dp1
S'skills'
p2
(dp3
S'supply chain'
p4
F0.010117899364349739
sS'intelligence'
p5
F0.016397478954431114
sS'sap'
p6
F0.010483394096028352
sS'analytics'
p7
F0.020437694929116814
sS'business intelligence'
p8
F0.005334316733092483
sS'data governance'
p9
F0.011416579445833682
sS'data warehousing'
p10
F0.007941227837295806
sS'business objects'
p11
F0.011230004956955829
sS'sas'
p12
F0.0036168064143013491
sS'continuous improvement'
p13
F0.010469900945415514
sS'access'
p14
F0.012112073238101592
sS'management'
p15
F0.021290965547772503
sS'excel'
p16
F0.0042218126026268028
sS'information management'
p17
F0.012593923837313706
sS'governance'
p18
F0.02823380695218641
sS'strategy'
p19
F0.0041123013870152346
sS'supply chain management'
p20
F0.012361686922902584
sS'policy'
p21
F0.0071270449818296331
sS'data management'
p22
F0.0071799428318779918
sS'architecture'
p23
F0.0057102206858607269
sS'data analysis'
p24
F0.0038740522583959928
sS'data modeling'
p25
F0.0068203700909093244
sS'data scientist'
p26
F0.0027659834599579069
sS'leadership'
p27
F0.0086287656459729609
sS'sql'
p28
F0.0017805322684935957
sS'modeling'
p29
F0.0021204848277325129
sS'db2'
p30
F0.012951255833385139
sS'data'
p31
F0.0061932891840455829
sS'sap bi'
p32
F0.01640230204450072
sS'performance metrics'
p33
F0.014284996876516312
sS'analysis'
p34
F0.00089456585314394237
sS'data architecture'
p35
F0.010593925730588259
sS'procurement'
p36
F0.15085410428360846
sS'operations research'
p37
F0.0075220326776812259
sS'organization'
p38
F0.023018065786967117
sS'data analytics'
p39
F0.0053324351997018201
ssS'working-year'
p40
(dp41
V(0, 2]
p42
F0.0059466845015408703
sV(2, 5]
p43
F0.003234841849689649
ssS'major'
p44
(dp45
VData Science
p46
F0.0026822166647651768
sVInformation Science
p47
F0.0066126767325172158
sVBusiness
p48
F0.0028243194443188361
sVOperations Research
p49
F0.008403991901271942
sVManagement Science and Engineering
p50
F0.0033669570195010243
ssS'education'
p51
(dp52
VBachelor
p53
F0.002379579184516728
ssS'responsibility'
p54
(dp55
S'development'
p56
F0.0063235561483765985
sS'information'
p57
F0.0036216845940715264
sS'data analysis'
p58
F0.0038740522583959928
sS'insight'
p59
F0.0047908442715652354
sS'communicate'
p60
F0.0052382320686203453
sS'analysis'
p61
F0.00089456585314394237
sS'improvement'
p62
F0.0070135939852196032
sS'drive ... decision'
p63
F0.01053807503584625
sS'report'
p64
F0.01083695258575681
sS'modeling'
p65
F0.0021204848277325129
sS'implement'
p66
F0.016589006593626165
ss.