(dp1
S'skills'
p2
(dp3
S'research design'
p4
F0.0068201897658919037
sS'r d'
p5
F0.00078063633434349302
sS'communication'
p6
F0.0029811516848844812
sS'actuarial science'
p7
F0.018589873185871835
sS'hadoop'
p8
F0.0045239589433405183
sS'cluster'
p9
F0.0063085545576040646
sS'business intelligence'
p10
F0.0044266994052980131
sS'problem solving'
p11
F0.0035870995808380247
sS'education'
p12
F0.0056549705708143615
sS'critical thinking'
p13
F0.0064298235688342543
sS'predictive modeling'
p14
F0.0041128065571290227
sS'tableau'
p15
F0.0037803015614732197
sS'research'
p16
F0.0072506341839008413
sS'computer science'
p17
F0.0031437127279660116
sS'intelligence'
p18
F0.0036309773601184334
sS'data management'
p19
F0.0044426404311916452
sS'segmentation'
p20
F0.010709228442360103
sS'python'
p21
F0.0013812084854570022
sS'collaboration'
p22
F0.0034445925526728934
sS'data scientist'
p23
F0.00035183896305471783
sS'sql'
p24
F0.0017956860770888124
sS'modeling'
p25
F0.0018358653572284136
sS'data'
p26
F0.0044065396343681441
sS'project management'
p27
F0.0088217819190139109
sS'business intelligence tools'
p28
F0.009758093351487784
sS'data collection'
p29
F0.011544727158477628
sS'analytics'
p30
F0.0038611370485821563
sS'analysis'
p31
F0.0019061216730998942
sS'r'
F0.0015152827905038821
sS'healthcare'
p32
F0.020298616713932693
sS'organization'
p33
F0.002037000767519199
ssS'working-year'
p34
(dp35
V(5, 10]
p36
F0.0022978887002459286
ssS'major'
p37
(dp38
S'information'
p39
F0.0011948794349681332
sS'economics statistics'
p40
F0.0090539657025303626
sS'health services'
p41
F0.007713713060721248
sS'business'
p42
F0.004493220214998441
sS'mathematics economics'
p43
F0.0081101797843015945
sS'communication'
p44
F0.0029811516848844812
sVapplied statistic
p45
F0.0069805298998203763
sS'actuarial science'
p46
F0.018589873185871835
sS'pharmacy'
p47
F0.0083758834178947351
sS'analytics'
p48
F0.0038611370485821563
sS'design'
p49
F0.0012952826162296667
sS'computer science'
p50
F0.0031437127279660116
sS'statistic'
p51
F0.0016893839203316423
sS'behavioral economics'
p52
F0.010664788853491994
sS'mathematics economics statistics'
p53
F0.012206477411730995
sS'project management'
p54
F0.0088217819190139109
sS'statistics computer science'
p55
F0.0067787098475738114
ssS'education'
p56
(dp57
VBachelor
p58
F0.00064630259945274663
sVMaster
p59
F0.0018338360815663615
ssS'responsibility'
p60
(dp61
S'information'
p62
F0.0011948794349681332
sS'data collection'
p63
F0.011544727158477628
sS'presentation'
p64
F0.0032172931599716453
sVinsight
p65
F0.0059376118601238478
sS'communicate'
p66
F0.0023477342454260989
sS'analysis'
p67
F0.0019061216730998942
sS'statistical model'
p68
F0.0035367430278038796
sS'analytic'
p69
F0.011364885195486112
sS'statistical method'
p70
F0.004759841694020963
sS'design'
p71
F0.0012952826162296667
sS'recommendation'
p72
F0.0069656992145284112
sS'modeling'
p73
F0.0018358653572284136
sS'implement'
p74
F0.0025303446273233867
sS'evaluation'
p75
F0.0050069406730517581
sS'model'
p76
F0.0014004839774128673
ss.