(dp1
S'skills'
p2
(dp3
S'r d'
p4
F0.0078964367666284115
sS'data scientist'
p5
F0.0035589864339765692
sS'research'
p6
F0.018335738368903089
sS'r'
F0.015327668227020039
sS'innovation'
p7
F0.024005386921057605
sS'data'
p8
F0.0049526492471744527
ssS'working-year'
p9
(dp10
V[0]
p11
F0.027426355237739331
ssS'major'
p12
(dp13
S'phd'
p14
F0.032396011148443683
ssS'education'
p15
(dp16
VDoctor
p17
F0.024474320334257543
ssS'responsibility'
p18
(dp19
S'report'
p20
F0.024530248783355562
ss.