(dp1
S'skills'
p2
(dp3
S'negotiation'
p4
F0.027208155411483002
sS'visualization'
p5
F0.011050362487122649
sS'nosql'
p6
F0.015677826338992104
sS'python'
p7
F0.0048434377556692207
sS'data science'
p8
F0.012406850748716705
sS'spotfire'
p9
F0.026100663284495181
sS'tableau'
p10
F0.013256257475566092
sS'hadoop'
p11
F0.0079320080139903756
sS'applied mathematics'
p12
F0.03778238856444386
sS'business process'
p13
F0.017633640766526744
sS'qlikview'
p14
F0.026668371155835438
sS'r'
F0.0053135916520336141
sS'computer science'
p15
F0.011023952632734148
sS'modeling'
p16
F0.0064377678526809706
sS'mathematics'
p17
F0.010805926470144767
sS'd3.js'
p18
F0.025899647099117545
sS'collaboration'
p19
F0.012079037884706281
sS'spss'
p20
F0.016211395564507413
ssS'working-year'
p21
(dp22
V(0, 2]
p23
F0.012307015893094407
ssS'major'
p24
(dp25
S'design'
p26
F0.0045421243742453645
sS'business'
p27
F0.0026260375923213108
sS'applied mathematics'
p28
F0.03778238856444386
sS'computer science engineering'
p29
F0.02018549853954487
sS'computer science'
p30
F0.011023952632734148
sS'applied math'
p31
F0.016592419106147342
sS'mathematics'
p32
F0.010805926470144767
sS'ee computer science'
p33
F0.015065837042187093
sS'data science'
p34
F0.012406850748716705
ssS'education'
p35
(dp36
VMaster
p37
F0.0064306518593593744
ssS'responsibility'
p38
(dp39
S'development'
p40
F0.0030832517738216881
sS'modeling'
p41
F0.0064377678526809706
sS'model'
p42
F0.0049110304807944549
sS'prototype'
p43
F0.015894980464582313
sS'design'
p44
F0.0045421243742453645
ss.