(dp1
S'skills'
p2
(dp3
S'communication'
p4
F0.0034491707170171168
sS'data science'
p5
F0.0026205684654915019
sS'linux'
p6
F0.0040219565093665135
sS'analytics'
p7
F0.0056845585750557297
sS'engineering'
p8
F0.0026685289260863936
sS'cognitive science'
p9
F0.012231490384523152
sS'problem solving'
p10
F0.005347738267872007
sS'data mining'
p11
F0.0046230486463663132
sS'laboratory'
p12
F0.0091835115971043348
sS'education'
p13
F0.0045721715682206301
sS'technical leadership'
p14
F0.0098010887091335517
sS'statistics'
p15
F0.0040632368400984956
sS'networking'
p16
F0.0079137072824418016
sS'time series analysis'
p17
F0.0062693048200426248
sS'deep learning'
p18
F0.0067854938625129648
sS'innovation'
p19
F0.0042174829458272852
sS'research'
p20
F0.003717474255606703
sS'access'
p21
F0.010106588344646863
sS'opencv'
p22
F0.010534136766840244
sS'computer vision'
p23
F0.0077011722509503786
sS'matlab'
p24
F0.0027808304741570042
sS'natural language processing'
p25
F0.0054596037733339936
sS'mathematics'
p26
F0.0039823383051760478
sS'electronics'
p27
F0.0095587699150816684
sS'pca'
p28
F0.012595441416794521
sS'computer science'
p29
F0.0030631443642423111
sS'signal processing'
p30
F0.0068271677811779959
sS'python'
p31
F0.0011356242107914292
sS'collaboration'
p32
F0.0055722645317504453
sS'processing'
p33
F0.0035579261147510245
sS'data scientist'
p34
F0.0023079992705095391
sS'leadership'
p35
F0.0036000187825791334
sS'data wrangling'
p36
F0.021791515025195829
sS'data'
p37
F0.0025839104112085603
sS'c'
F0.0027246665008673148
sS'science'
p38
F0.0076583212221578694
sS'applied mathematics'
p39
F0.0065841192698119968
sS'programming'
p40
F0.0048031164916552335
sS'analysis'
p41
F0.00074644601689352933
sS'machine learning'
p42
F0.0014281431848236152
sS'r'
F0.001209133565607715
sS'electrical engineering'
p43
F0.0086375274147686629
sS'data analytics'
p44
F0.0044495047526923685
ssS'working-year'
p45
(dp46
V(2, 5]
p47
F0.0026992253342726265
ssS'major'
p48
(dp49
VStatistics
p50
F0.0039248469932202188
sVBusiness
p51
F0.0023566761376342359
sVData Science
p52
F0.0022381023586166946
sVElectrical and Electronics Engineering
p53
F0.006855399989923708
sVEngineering
p54
F0.0049071436313000609
sVCognitive Science
p55
F0.0093856475988769138
sVComputer Science
p56
F0.0019724526064318036
sVMathematics
p57
F0.0037347985393953206
ssS'education'
p58
(dp59
VMaster
p60
F0.0015844895102923246
sVDoctor
p61
F0.0023729450365500395
ssS'responsibility'
p62
(dp63
S'data mining'
p64
F0.0046230486463663132
sS'information'
p65
F0.0060440313704984523
sS'product'
p66
F0.0029302677357685115
sS'processing'
p67
F0.0035579261147510245
sS'evaluation'
p68
F0.0073713359124764214
sS'insight'
p69
F0.0039975890109139114
sS'analysis'
p70
F0.00074644601689352933
sS'data wrangling'
p71
F0.021791515025195829
sS'presentation'
p72
F0.0053667850594980547
ss.