(dp1
S'skills'
p2
(dp3
S'healthcare industry'
p4
F0.013092146123053046
sS'public relations'
p5
F0.01376590683547863
sS'analytics'
p6
F0.0093269432920485441
sS'quality control'
p7
F0.012900568634757997
sS'statistical analysis'
p8
F0.0069026813764413086
sS'sas'
p9
F0.0074275434674392314
sS'statistics'
p10
F0.0025000344632777603
sS'excel'
p11
F0.0043349979270940094
sS'tableau'
p12
F0.0053861289199029268
sS'mathematics'
p13
F0.0049005181825088626
sS'data analysis'
p14
F0.0039779142492377085
sS'python'
p15
F0.0013974571387487024
sS'marketing'
p16
F0.010215627466367554
sS'leadership'
p17
F0.0044300499227984506
sS'statistical modeling'
p18
F0.0048025885259796149
sS'sql'
p19
F0.0036565354361021291
sS'modeling'
p20
F0.0021773342869210524
sS'data'
p21
F0.00095389936628262405
sS'project management'
p22
F0.005097730089341947
sS'word'
p23
F0.0074763234871263184
sS'business strategy'
p24
F0.0081488882582290544
sS'analysis'
p25
F0.00091854885188774789
sS'r'
F0.0029758300622731429
sS'medicare'
p26
F0.014789855203304133
sS'advertising'
p27
F0.0088241214057112327
sS'healthcare'
p28
F0.007231207354718939
sS'management'
p29
F0.0024290854348516145
sS'powerpoint'
p30
F0.0065603871499577814
sS'data analytics'
p31
F0.0054753959289163458
ssS'working-year'
p32
(dp33
V(2, 5]
p34
F0.003321566832255055
ssS'major'
p35
(dp36
VStatistics
p37
F0.0048297715010404297
sVBusiness
p38
F0.0029000384642737646
sVData Science
p39
F0.0027541259587267096
sVEconomics
p40
F0.0043988513338457397
sVMathematics
p41
F0.004595904905046788
sVManagement Science and Engineering
p42
F0.003457223963723572
ssS'education'
p43
(dp44
VBachelor
p45
F0.0024433748731096695
sVMaster
p46
F0.0019498141695018147
ssS'responsibility'
p47
(dp48
S'development'
p49
F0.0032465442423971012
sS'information'
p50
F0.0037187806957892618
sS'product'
p51
F0.0036058790635864523
sS'data analysis'
p52
F0.0039779142492377085
sS'analysis'
p53
F0.00091854885188774789
sS'improvement'
p54
F0.007201625995547206
sS'design'
p55
F0.0078306638606888881
sS'interface'
p56
F0.0084653008004023558
sS'modeling'
p57
F0.0021773342869210524
ss.