(dp1
S'skills'
p2
(dp3
S'r d'
p4
F0.00091247713747706074
sS'communication'
p5
F0.0017423175402769304
sS'data science'
p6
F0.0041356169162389015
sS'intelligence analysis'
p7
F0.0097176116931159753
sS'report writing'
p8
F0.013024427891966991
sS'analytics'
p9
F0.0022566200972824603
sS'business intelligence'
p10
F0.0051743197493038995
sS'data mining'
p11
F0.0098612727745891159
sS'modeling'
p12
F0.0042918452351206468
sS'writing'
p13
F0.0046627833644110371
sS'quantitative analysis'
p14
F0.014411514328355669
sS'management'
p15
F0.0037854844849298914
sS'multi-channel marketing'
p16
F0.016447634120643043
sS'predictive modeling'
p17
F0.0048074138867774795
sS'strategy'
p18
F0.003120887458013991
sS'access'
p19
F0.0040513891212751374
sS'python'
p20
F0.0016144792518897402
sS'r'
F0.0017711972173445377
sS'computer science'
p21
F0.0036746508775780491
sS'intelligence'
p22
F0.02546525455229728
sS'mathematics'
p23
F0.0036019754900482558
sS'dimensional modeling'
p24
F0.013024427891966991
sS'segmentation'
p25
F0.0062589490674237937
sS'data analysis'
p26
F0.0061978172827810984
sS'data modeling'
p27
F0.0059622316276403114
sS'finance'
p28
F0.018709168794775955
sS'database design'
p29
F0.0088406159412591223
sS'marketing'
p30
F0.0037903158309098004
sS'performance improvement'
p31
F0.01086474810640954
sS'data'
p32
F0.0040061429466033346
sS'data visualization'
p33
F0.0038027909881867138
sS'data integration'
p34
F0.0077691800923054355
sS'science'
p35
F0.0032614516973507083
sS'business strategy'
p36
F0.0075696222111309597
sS'analysis'
p37
F0.0011140222222783827
sS'spss'
p38
F0.005403798521502471
sS'data architecture'
p39
F0.0074245047434916382
sS'banking'
p40
F0.006601487145273326
sS'optimization'
p41
F0.0085560758280067029
sS'architecture'
p42
F0.0039879425549923285
sS'product management'
p43
F0.0065839209839167502
sS'retail'
p44
F0.012671691444665834
sS'data analytics'
p45
F0.006797927175941347
ssS'working-year'
p46
(dp47
V(5, 10]
p48
F0.0026859765696207964
ssS'major'
p49
(dp50
S'science'
p51
F0.0032614516973507083
sS'mathematics economics'
p52
F0.0094798990367614185
sS'management'
p53
F0.0037854844849298914
sS'finance'
p54
F0.018709168794775955
sS'business'
p55
F0.016631571418034969
sS'information'
p56
F0.0055867251803843375
sS'marketing'
p57
F0.0037903158309098004
sS'data science'
p58
F0.0041356169162389015
sS'statistic'
p59
F0.0019747020935432084
sS'communication'
p60
F0.0017423175402769304
sS'economics computer science'
p61
F0.011648790632165741
sS'analytics'
p62
F0.0022566200972824603
sS'design'
p63
F0.001514041458081788
sS'computer science'
p64
F0.0036746508775780491
sS'data mining'
p65
F0.0098612727745891159
sS'mathematics'
p66
F0.0036019754900482558
sS'computer science data science'
p67
F0.01063662957256211
sS'data analytics'
p68
F0.006797927175941347
sS'data analytics business'
p69
F0.012231819618211086
ssS'education'
p70
(dp71
VBachelor
p72
F0.0007554559273603216
sVMaster
p73
F0.002143550619786458
ssS'responsibility'
p74
(dp75
S'development'
p76
F0.001027750591273896
sS'information'
p77
F0.0055867251803843375
sS'product'
p78
F0.0012723681493461536
sS'data analysis'
p79
F0.0061978172827810984
sS'pattern'
p80
F0.0040346623526842148
sVinsight
p81
F0.0023134695099445513
sS'recommendation'
p82
F0.0040710642076021604
sS'analysis'
p83
F0.0011140222222783827
sS'improvement'
p84
F0.004321851471285958
sS'optimization'
p85
F0.0085560758280067029
sS'design'
p86
F0.001514041458081788
sS'data mining'
p87
F0.0098612727745891159
sS'report'
p88
F0.0028346065260766427
sS'understand'
p89
F0.0059600744070049168
sS'modeling'
p90
F0.0042918452351206468
sS'quantitative analysis'
p91
F0.014411514328355669
sS'model'
p92
F0.0049110304807944549
ss.