(dp1
S'skills'
p2
(dp3
S'intelligence'
p4
F0.0041756877922520721
sS'data science'
p5
F0.0031990450150547849
sS'engineering'
p6
F0.0097727774766514994
sS'neo4j'
p7
F0.012453993327074381
sS'investment banking'
p8
F0.013192369638793904
sS'java'
p9
F0.0032959227863518176
sS'big data'
p10
F0.0033849072509645412
sS'army'
p11
F0.016987877690827401
sS'agile'
p12
F0.0058076858316476309
sS'hadoop'
p13
F0.0034170385675520343
sS'research'
p14
F0.0068071303855989753
sS'computer science'
p15
F0.0037393171893277143
sS'distributed computing'
p16
F0.0095143522937747669
sS'government'
p17
F0.0069338284990132053
sS'python'
p18
F0.0013863072147693243
sS'collaboration'
p19
F0.0068023122874293985
sS'processing'
p20
F0.0086866387588868093
sS'data scientist'
p21
F0.0028174778328826549
sS'spark'
p22
F0.004484403253499092
sS'data'
p23
F0.0015771474451392676
sS'banking'
p24
F0.054802658274867369
sS'science'
p25
F0.0018697709792396074
sS'scala'
p26
F0.0064908680523899911
sS'machine learning'
p27
F0.0017433981963671259
sS'credit'
p28
F0.0084508904899937409
sS'asset management'
p29
F0.012620269380621911
ssS'working-year'
p30
(dp31
S'[0]'
p32
F0.0058409966237882513
ssS'major'
p33
(dp34
VData Science
p35
F0.0027321515494815496
sVManagement Science and Engineering
p36
F0.0034296397299704586
sVEngineering
p37
F0.0097727774766514994
sVBusiness
p38
F0.002876899859505623
sVComputer Science
p39
F0.0024078610275324406
ssS'education'
p40
(dp41
VMaster
p42
F0.0019342571415536618
ssS'responsibility'
p43
(dp44
S'development'
p45
F0.0032206409638673365
sS'information'
p46
F0.003689109573216475
sS'product'
p47
F0.0035771087519089004
sS'pattern'
p48
F0.0069643379669525156
sS'processing'
p49
F0.0086866387588868093
sS'recommendation'
p50
F0.0069473450660060406
sS'model'
p51
F0.0041154543667596827
sS'transformation'
p52
F0.0083629179131193259
ss.