(dp1
S'skills'
p2
(dp3
S'a'
F0.0044631071446635485
sS'training'
p4
F0.028082276265182924
sS'management'
p5
F0.0021624077976125349
sS'business development'
p6
F0.0083025066325589092
sS'data scientist'
p7
F0.0025283333297467262
sS'energy'
p8
F0.0073639506110980534
sS'excel'
p9
F0.0038590793002531397
sS'forecasting'
p10
F0.0069981599184494479
sS'sales'
p11
F0.023803852555066854
sS'cell'
p12
F0.01026513579597633
sS'salesforce.com'
p13
F0.011806887472341869
sS'automotive'
p14
F0.030410895947506927
sS'communication'
p15
F0.0037784471577824736
sS'organization'
p16
F0.0042080759887390962
sS'automation'
p17
F0.0079595425428730538
sS'data'
p18
F0.00028305844361449387
sS'b2b'
p19
F0.016590571129346893
ssS'working-year'
p20
(dp21
S'[0]'
p22
F0.0052415626027312234
ssS'major'
p23
(dp24
VBusiness
p25
F0.002581657153160177
sVManagement Science and Engineering
p26
F0.0030776719295200297
ssS'education'
p27
(dp28
VBachelor
p29
F0.0021751284669926175
sVMaster
p30
F0.0017357534253560308
ssS'responsibility'
p31
(dp32
S'development'
p33
F0.002890121724138708
sS'forecasting'
p34
F0.0069981599184494479
sS'presentation'
p35
F0.005879127308614813
sS'product'
p36
F0.016050034495438504
ss.