(dp1
S'skills'
p2
(dp3
S'training'
p4
I1
sS'management'
p5
I1
sS'communication'
p6
I1
sS'energy'
p7
I1
sS'data scientist'
p8
I1
sS'forecasting'
p9
I1
sS'automation'
p10
I1
sS'cell'
p11
I1
sS'salesforce.com'
p12
I1
sS'automotive'
p13
I1
sS'business development'
p14
I1
sS'data'
p15
I1
sS'b2b'
p16
I1
ssS'working-year'
p17
(dp18
V[0]
p19
I1
ssS'major'
p20
(dp21
S'communication'
p22
I1
sS'management'
p23
I1
sS'business'
p24
I1
sS'automation'
p25
I1
ssS'education'
p26
(dp27
S'Bachelor'
p28
I1
ssS'responsibility'
p29
(dp30
S'development'
p31
I1
sS'forecasting'
p32
I1
sS'presentation'
p33
I1
sS'product'
p34
I1
ss.