(dp1
S'skills'
p2
(dp3
S'data science'
p4
I1
sS'testing'
p5
I1
sS'hadoop'
p6
I1
sS'd3'
p7
I1
sS'visualization'
p8
I1
sS'open source'
p9
I1
sS'big data'
p10
I1
sS'scala'
p11
I1
sS'tableau'
p12
I1
sS'writing'
p13
I1
sS'innovation'
p14
I1
sS'data analysis'
p15
I1
sS'distributed computing'
p16
I1
sS'apis'
p17
I1
sS'python'
p18
I1
sS'marketing'
p19
I1
sS'credit'
p20
I1
sS'data scientist'
p21
I1
sS'military experience'
p22
I1
sS'statistical modeling'
p23
I1
sS'sql'
p24
I1
sS'modeling'
p25
I1
sS'spark'
p26
I1
sS'data'
p27
I1
sS'data visualization'
p28
I1
sS'aws'
p29
I1
sS'programming'
p30
I1
sS'analysis'
p31
I1
sS'machine learning'
p32
I1
sS'data center'
p33
I1
sS'banking'
p34
I1
sS'h2o'
p35
I1
sS'r'
I1
sS'military'
p36
I1
sS'validation'
p37
I1
ssS'working-year'
p38
(dp39
V(0, 2]
p40
I1
sV(2, 5]
p41
I1
ssS'major'
p42
(dp43
S'big data'
p44
I1
sS'computing'
p45
I1
sS'marketing'
p46
I1
sS'data science'
p47
I1
sS'machine learning'
p48
I1
sS'phd'
p49
I1
ssS'education'
p50
(dp51
VBachelor
p52
I1
sVMaster
p53
I1
sVDoctor
p54
I1
ssS'responsibility'
p55
(dp56
S'development'
p57
I1
sS'data analysis'
p58
I1
sS'communicate'
p59
I1
sS'analysis'
p60
I1
sS'statistical model'
p61
I1
sS'analytic'
p62
I1
sS'modeling'
p63
I1
sS'model'
p64
I1
sS'extract'
p65
I1
sS'transformation'
p66
I1
ss.