(dp1
S'skills'
p2
(dp3
S'r d'
p4
F0.00080355129523420222
sS'business insights'
p5
F0.010977845277762795
sS'analytics'
p6
F0.0079489553328932049
sS'engineering'
p7
F0.0020395569678685888
sS'statistical analysis'
p8
F0.0035850858971056207
sS'education'
p9
F0.0029104838749983894
sS'visualization'
p10
F0.0032437463269440257
sS'management'
p11
F0.0016667984522685431
sS'agile'
p12
F0.0037348759511525854
sS'research'
p13
F0.0018658677009451283
sS'innovation'
p14
F0.0024428182385420653
sS'advanced analytics'
p15
F0.0085369543330476114
sS'mathematics'
p16
F0.0031719940714710665
sS'python'
p17
F0.0014217527658520216
sS'data scientist'
p18
F0.00036216691696043361
sS'business analytics'
p19
F0.01200145448143545
sS'sql'
p20
F0.0036967940373726629
sS'modeling'
p21
F0.0018897557297497954
sS'business transformation'
p22
F0.011208339658859062
sS'data'
p23
F0.007055829064467712
sS'information technology'
p24
F0.0099277762477652624
sS'programming'
p25
F0.0020339242084183194
sS'analysis'
p26
F0.00098103718204554241
sS'r'
F0.0015597627158611389
sS'data analytics'
p27
F0.0059864329338035344
ssS'working-year'
p28
(dp29
V(2, 5]
p30
F0.0015360738787648996
ssS'major'
p31
(dp32
S'information'
p33
F0.001229954173763675
sS'management'
p34
F0.0016667984522685431
sS'business'
p35
F0.0030834100888312847
sS'business analytics'
p36
F0.01200145448143545
sS'analytics'
p37
F0.0079489553328932049
sS'engineering'
p38
F0.0020395569678685888
sS'data analytics'
p39
F0.0059864329338035344
sS'statistic'
p40
F0.0017389744463687745
sS'advanced analytics'
p41
F0.0085369543330476114
sS'mathematics'
p42
F0.0031719940714710665
sS'information technology'
p43
F0.0099277762477652624
ssS'education'
p44
(dp45
S'Bachelor'
p46
F0.00066527430002376645
ssS'responsibility'
p47
(dp48
S'development'
p49
F0.0036202564858963068
sS'information'
p50
F0.001229954173763675
sS'product'
p51
F0.0022409615154824619
sS'data infrastructure'
p52
F0.006935907760689251
sS'communicate'
p53
F0.0048333002469437489
sVinsight
p54
F0.010186509583904579
sS'manage data'
p55
F0.0085894042648096188
sS'analysis'
p56
F0.00098103718204554241
sS'improvement'
p57
F0.003805935737923055
sS'analytic'
p58
F0.002924623098251318
sS'analytical method'
p59
F0.007806665441572963
sS'pattern'
p60
F0.0035530294690956882
sS'modeling'
p61
F0.0018897557297497954
sS'implement'
p62
F0.0052092417767988317
sS'transformation'
p63
F0.0047451849357223221
ss.