(dp1
S'skills'
p2
(dp3
S'communication'
p4
I1
sS'data wrangling'
p5
I1
sS'julia'
p6
I1
sS'analytics'
p7
I1
sS'unix'
p8
I1
sS'data governance'
p9
I1
sS'analysis'
p10
I1
sS'education'
p11
I1
sS'management'
p12
I1
sS'java'
p13
I1
sS'scala'
p14
I1
sS'storage'
p15
I1
sS'integration'
p16
I1
sS'governance'
p17
I1
sS'strategy'
p18
I1
sS'access'
p19
I1
sS'computer science'
p20
I1
sS'natural language processing'
p21
I1
sS'data management'
p22
I1
sS'innovation'
p23
I1
sS'pyspark'
p24
I1
sS'python'
p25
I1
sS'collaboration'
p26
I1
sS'processing'
p27
I1
sS'data scientist'
p28
I1
sS'data quality'
p29
I1
sS'sql'
p30
I1
sS'modeling'
p31
I1
sS'spark'
p32
I1
sS'data'
p33
I1
sS'information technology'
p34
I1
sS'training'
p35
I1
sS'data collection'
p36
I1
sS'lisp'
p37
I1
sS'economics'
p38
I1
sS'programming'
p39
I1
sS'hive'
p40
I1
sS'r'
I1
sS'architecture'
p41
I1
sS'organization'
p42
I1
sS'data integration'
p43
I1
ssS'working-year'
p44
(dp45
V(2, 5]
p46
I1
ssS'major'
p47
(dp48
S'information'
p49
I1
sS'natural language processing'
p50
I1
sS'management'
p51
I1
sS'business'
p52
I1
sS'statistics economics'
p53
I1
sS'communication'
p54
I1
sS'economics'
p55
I1
sS'computer science statistics'
p56
I1
sS'analytics'
p57
I1
sS'design'
p58
I1
sS'computer science'
p59
I1
sS'statistic'
p60
I1
sS'ee computer science'
p61
I1
sS'information technology'
p62
I1
ssS'education'
p63
(dp64
VBachelor
p65
I1
sVMaster
p66
I1
ssS'responsibility'
p67
(dp68
S'information'
p69
I1
sS'processing'
p70
I1
sVinsight
p71
I1
sS'analysis'
p72
I1
sS'data collection'
p73
I1
sS'design'
p74
I1
sS'data wrangling'
p75
I1
sS'report'
p76
I1
sS'modeling'
p77
I1
sS'model'
p78
I1
sS'data gathering'
p79
I1
ss.