(dp1
S'skills'
p2
(dp3
S'r'
F0.055499230661394117
sS'.net'
p4
F0.37684468386244285
ssS'working-year'
p5
(dp6
S'[0]'
p7
F0.21962147305443827
ssS'major'
p8
(dp9
sS'education'
p10
(dp11
S'Bachelor'
p12
F0.091137882766990683
ssS'responsibility'
p13
(dp14
s.