(dp1
S'skills'
p2
(dp3
S'probability'
p4
I1
sS'communication'
p5
I1
sS'insurance'
p6
I1
sS'social media'
p7
I1
sS'java'
p8
I1
sS'classification'
p9
I1
sS'deep learning'
p10
I1
sS'research'
p11
I1
sS'fraud detection'
p12
I1
sS'natural language processing'
p13
I1
sS'tensorflow'
p14
I1
sS'numpy'
p15
I1
sS'transportation'
p16
I1
sS'python'
p17
I1
sS'data scientist'
p18
I1
sS'processing'
p19
I1
sS'aws'
p20
I1
sS'experimental design'
p21
I1
sS'mentoring'
p22
I1
sS'teaching'
p23
I1
sS'apache'
p24
I1
sS'modeling'
p25
I1
sS'spark'
p26
I1
sS'data'
p27
I1
sS'fraud'
p28
I1
sVbayesian method
p29
I1
sS'scikit-learn'
p30
I1
sS'machine learning'
p31
I1
sVpanda
p32
I1
sS'emr'
p33
I1
sS'theano'
p34
I1
ssS'working-year'
p35
(dp36
V[0]
p37
I1
ssS'major'
p38
(dp39
S'transportation'
p40
I1
sS'business'
p41
I1
sS'communication'
p42
I1
sS'natural language processing'
p43
I1
sS'machine learning'
p44
I1
sS'design'
p45
I1
sS'statistic'
p46
I1
ssS'education'
p47
(dp48
VBachelor
p49
I1
ssS'responsibility'
p50
(dp51
S'product'
p52
I1
sS'processing'
p53
I1
sS'understand'
p54
I1
sS'solve problem'
p55
I1
sS'recommendation'
p56
I1
sS'design'
p57
I1
sS'modeling'
p58
I1
sS'model'
p59
I1
ss.