(dp1
S'skills'
p2
(dp3
S'consulting'
p4
F0.0035010631535478732
sS'data scientist'
p5
F0.00031367338062166368
sS'r d'
p6
F0.00069595713875369037
sS'communication'
p7
F0.0039866587785997555
sS'data acquisition'
p8
F0.0066884567277625297
sS'analytics'
p9
F0.015490358294905023
sS'engineering'
p10
F0.0070658549869888057
sS'graph theory'
p11
F0.019209617448537837
sS'problem solving'
p12
F0.0031979904737640696
sS'neo4j'
p13
F0.0080718406093745268
sS'time management'
p14
F0.0070445038592075191
sS'visualization'
p15
F0.0056188283832827026
sS'management'
p16
F0.0028872339291838153
sS'excel'
p17
F0.0033035747602655034
sS'perl'
p18
F0.0050083418172847454
sS'access'
p19
F0.0030900425501251051
sS'ssis'
p20
F0.0084805867546315829
sS'oracle sql'
p21
F0.0077098540572905971
sS'computer science'
p22
F0.0028026998218815629
sS'advanced analytics'
p23
F0.00739387061726666
sS'algorithm development'
p24
F0.006236933382286672
sS'data management'
p25
F0.0039607268928928911
sS'data analysis'
p26
F0.0047271487750025322
sS'business analysis'
p27
F0.013037654391083089
sS'python'
p28
F0.0012313824802548865
sS'customer service'
p29
F0.0059485497522013932
sS'alteryx'
p30
F0.007776329152612468
sS'training'
p31
F0.0060791563099280264
sS'business analytics'
p32
F0.010394480067819517
sS'oracle sql developer'
p33
F0.012544805685236219
sS'sql'
p34
F0.0016008997907605346
sS'modeling'
p35
F0.0016367206405121112
sS'spark'
p36
F0.0026856417786315042
sS'data'
p37
F0.0052380561529438265
sS'c'
F0.0039536060793750839
sS'postgresql'
p38
F0.006857147853612619
sS'data visualization'
p39
F0.0029004338045491886
sS'sql server'
p40
F0.0055406380708448192
sS'applied mathematics'
p41
F0.0096056920079094551
sS'documentation'
p42
F0.0038073288372632332
sS'education'
p43
F0.0025207750171596221
sS'analysis'
p44
F0.0025490338984335871
sS'data engineering'
p45
F0.0056922343507256421
sS'optimization'
p46
F0.0065258205467847736
sS'english'
p47
F0.0058587346631842445
sS'oracle'
p48
F0.0044590205784218887
sS'organization'
p49
F0.0036320759447969445
sS'programming'
p50
F0.0017615852042402733
sS'scripting'
p51
F0.0035961706423436146
ssS'working-year'
p52
(dp53
V(2, 5]
p54
F0.0013303961899133283
ssS'major'
p55
(dp56
S'information'
p57
F0.0021305307891296204
sS'management'
p58
F0.0028872339291838153
sS'business analysis'
p59
F0.013037654391083089
sS'business'
p60
F0.0046734567320972486
sS'communication'
p61
F0.0039866587785997555
sS'applied mathematics'
p62
F0.0096056920079094551
sS'english'
p63
F0.0058587346631842445
sS'business analytics'
p64
F0.010394480067819517
sS'analytics'
p65
F0.015490358294905023
sS'engineering'
p66
F0.0070658549869888057
sS'graph theory'
p67
F0.019209617448537837
sS'applied mathematics computer science'
p68
F0.0088846708211433607
sS'computer science'
p69
F0.0028026998218815629
sS'applied math'
p70
F0.0042184116371561031
sS'advanced analytics'
p71
F0.00739387061726666
sS'mathematics computer science'
p72
F0.0060072014673088255
sS'law'
p73
F0.0030292512957265194
sS'computer application'
p74
F0.014406859722101773
ssS'education'
p75
(dp76
S'Bachelor'
p77
F0.00057619519883414354
ssS'responsibility'
p78
(dp79
S'development'
p80
F0.00078387756961568339
sS'large data set'
p81
F0.0037591341190156974
sS'product'
p82
F0.00097045028339960856
sS'data analysis'
p83
F0.0047271487750025322
sS'business problem'
p84
F0.0031332756333969599
sVinsight
p85
F0.0035290212863560949
sS'analysis'
p86
F0.0025490338984335871
sS'analytic'
p87
F0.0025330210223837688
sS'optimization'
p88
F0.0065258205467847736
sS'modeling'
p89
F0.0016367206405121112
sS'information'
p90
F0.0021305307891296204
sS'transformation'
p91
F0.0041098127155154351
sS'documentation'
p92
F0.0038073288372632332
ss.