(dp1
S'skills'
p2
(dp3
S'consulting'
p4
I1
sS'excel'
p5
I1
sS'data science'
p6
I1
sS'outlook'
p7
I1
sS'analytics'
p8
I1
sS'go'
p9
I1
sS'quantitative analysis'
p10
I1
sS'management'
p11
I1
sS'r programming'
p12
I1
sS'tableau'
p13
I1
sS'research'
p14
I1
sS'matlab'
p15
I1
sS'intelligence'
p16
I1
sS'advanced analytics'
p17
I1
sS'management consulting'
p18
I1
sS'segmentation'
p19
I1
sS'python'
p20
I1
sS'marketing'
p21
I1
sS'innovation'
p22
I1
sS'data scientist'
p23
I1
sS'data'
p24
I1
sS'customer experience'
p25
I1
sS'data visualization'
p26
I1
sS'database management'
p27
I1
sS'science'
p28
I1
sS'marketing analytics'
p29
I1
sS'programming'
p30
I1
sS'analysis'
p31
I1
sS'spss'
p32
I1
sS'r'
I1
sS'dashboard'
p33
I1
sS'healthcare'
p34
I1
sS'retail'
p35
I1
sS'microsoft office'
p36
I1
sS'powerpoint'
p37
I1
ssS'working-year'
p38
(dp39
V(0, 2]
p40
I1
ssS'major'
p41
(dp42
S'information'
p43
I1
sS'management'
p44
I1
sS'business'
p45
I1
sS'marketing'
p46
I1
sS'data science'
p47
I1
sS'marketing analytics'
p48
I1
sS'analytics'
p49
I1
sS'design'
p50
I1
sS'statistic'
p51
I1
sS'advanced analytics'
p52
I1
sS'science'
p53
I1
ssS'education'
p54
(dp55
VBachelor
p56
I1
sVMaster
p57
I1
ssS'responsibility'
p58
(dp59
S'development'
p60
I1
sS'information'
p61
I1
sS'analysis'
p62
I1
sS'design'
p63
I1
sS'implement'
p64
I1
sS'quantitative analysis'
p65
I1
ss.