(dp1
S'skills'
p2
(dp3
S'research design'
p4
F0.013045162970396878
sS'processing'
p5
F0.0057945290495270505
sS'programming'
p6
F0.0037794009836427684
sS'questionnaire design'
p7
F0.020398832497951956
sS'data scientist'
p8
F0.00067297198024284216
sS'excel'
p9
F0.0070876694856605348
sS'analysis'
p10
F0.0018229454546373532
sS'time management'
p11
F0.01511366282520886
sS'market research'
p12
F0.01446646244933311
sS'management'
p13
F0.003097214578579002
sS'advertising'
p14
F0.021490339434167272
sS'data processing'
p15
F0.010788032791291808
sS'automotive'
p16
F0.012965823199359364
sS'survey research'
p17
F0.01830660960160703
sS'spss'
p18
F0.008842579398822225
sS'data'
p19
F0.00093650094855662371
sS'powerpoint'
p20
F0.010316891443137882
sS'research'
p21
F0.010401364311086844
ssS'working-year'
p22
(dp23
V(2, 5]
p24
F0.002854304552904959
ssS'major'
p25
(dp26
S'management'
p27
F0.003097214578579002
sS'design'
p28
F0.0024775223859520171
sS'business'
p29
F0.0014323841412661696
ssS'education'
p30
(dp31
S'Bachelor'
p32
F0.001236200608407799
ssS'responsibility'
p33
(dp34
S'product'
p35
F0.0020820569716573419
sS'processing'
p36
F0.0057945290495270505
sS'analysis'
p37
F0.0018229454546373532
sS'design'
p38
F0.0024775223859520171
sS'report'
p39
F0.0046384470426708698
sS'presentation'
p40
F0.012307608742873347
ss.