(dp1
S'skills'
p2
(dp3
S'communication'
p4
F0.0078374720748062201
sS'presentation skills'
p5
F0.022937776778939753
sS'servers'
p6
F0.027426467300829659
sS'sas'
p7
F0.0068576082013733497
sS'engineering'
p8
F0.0060636375102656173
sS'problem solving'
p9
F0.012151543885907183
sS'mathematical modeling'
p10
F0.011783166734370014
sS'creative problem solving'
p11
F0.027921928115961919
sS'quantitative analysis'
p12
F0.037762399425944858
sS'econometrics'
p13
F0.015184448315545745
sS'mathematica'
p14
F0.015588142481812752
sS'excel'
p15
F0.0080047238950795314
sS'access'
p16
F0.011482485272754727
sS'computer science'
p17
F0.0069603131840951515
sS'advanced analytics'
p18
F0.014568369080881603
sS'jmp'
p19
F0.0206229693838283
sS'text mining'
p20
F0.016269232324012894
sS'data analysis'
p21
F0.007345356509731016
sS'quality management'
p22
F0.027921928115961919
sS'data scientist'
p23
F0.0052444141839795956
sS'minitab'
p24
F0.02074371730079972
sS'sql'
p25
F0.0067519193943866053
sS'technical documentation'
p26
F0.025914683897728521
sS'modeling'
p27
F0.0040205232129779823
sS'manufacturing'
p28
F0.018478507782335691
sS'data'
p29
F0.0011742721571729991
sS'c'
F0.0061911976430598882
sS'science'
p30
F0.0034803657831390714
sS'applied mathematics'
p31
F0.014960944281404487
sS'documentation'
p32
F0.01435366811358431
sS'programming'
p33
F0.00545700611304394
sS'analysis'
p34
F0.0016961322859115344
sS'oracle'
p35
F0.01299515593347189
ssS'working-year'
p36
(dp37
S'[0]'
p38
F0.010872350151209815
ssS'major'
p39
(dp40
VBusiness
p41
F0.0053550215206639318
sVData Science
p42
F0.0050855890227973401
sVEngineering
p43
F0.0060636375102656173
sVComputer Science
p44
F0.0044819591403574147
sVMathematics
p45
F0.0084864976712002577
sVManagement Science and Engineering
p46
F0.0063838838538063979
ssS'education'
p47
(dp48
VMaster
p49
F0.0036003994318028558
ssS'responsibility'
p50
(dp51
S'development'
p52
F0.0059948564475946469
sS'product'
p53
F0.013316761294235115
sS'data analysis'
p54
F0.007345356509731016
sS'evaluation'
p55
F0.033499437463630467
sS'quantitative analysis'
p56
F0.037762399425944858
sS'documentation'
p57
F0.01435366811358431
sS'analysis'
p58
F0.0016961322859115344
sS'improvement'
p59
F0.039894155886224372
sS'report'
p60
F0.010273645644417965
sS'modeling'
p61
F0.0040205232129779823
sS'presentation'
p62
F0.012194823476780232
ss.