(dp1
S'skills'
p2
(dp3
S'statistical modeling'
p4
F0.0055980172505949895
sS'customer satisfaction'
p5
F0.014138227309607176
sS'business analysis'
p6
F0.0083391631258664181
sS'communication'
p7
F0.0049474042472214264
sS'collaboration'
p8
F0.0079927169377295437
sS'documentation'
p9
F0.0090607529967000958
sS'data scientist'
p10
F0.0033105364536371198
sS'analysis'
p11
F0.0021413670109633122
sS'time management'
p12
F0.013462538274639071
sS'analytics'
p13
F0.010871718274794084
sS'business intelligence'
p14
F0.0063845103399200664
sS'pricing'
p15
F0.011814583342310597
sS'problem solving'
p16
F0.0076706620779789098
sS'intelligence'
p17
F0.0049064331558961848
sS'modeling'
p18
F0.0025379552781923517
sS'security'
p19
F0.0068292212991243502
sS'machine learning'
p20
F0.0020484928807313731
sS'data'
p21
F0.0018531482480386393
ssS'working-year'
p22
(dp23
S'[0]'
p24
F0.006863171032951196
ssS'major'
p25
(dp26
VData Science
p27
F0.0032102780706408209
sVComputer Science
p28
F0.0028292367073506179
sVBusiness
p29
F0.0033803573349191068
sVManagement Science and Engineering
p30
F0.0040298266827152891
ssS'education'
p31
(dp32
S'Bachelor'
p33
F0.0028480588364684588
ssS'responsibility'
p34
(dp35
S'development'
p36
F0.011352759397632362
sS'insight'
p37
F0.0057340417375296411
sS'pattern'
p38
F0.0081830971111692061
sS'documentation'
p39
F0.0090607529967000958
sS'analysis'
p40
F0.0021413670109633122
sS'report'
p41
F0.0064852388130388411
sS'interface'
p42
F0.0098673662454689965
sS'modeling'
p43
F0.0025379552781923517
sS'implement'
p44
F0.019854967266746321
sS'presentation'
p45
F0.0076979823197175215
sS'model'
p46
F0.0048356588809426275
ss.