(dp1
S'skills'
p2
(dp3
S'shell scripting'
p4
I1
sS'communication'
p5
I1
sS'testing'
p6
I1
sS'hadoop'
p7
I1
sS'business intelligence'
p8
I1
sS'ssrs'
p9
I1
sS'data warehousing'
p10
I1
sS'troubleshooting'
p11
I1
sS'linux'
p12
I1
sS'sap'
p13
I1
sS'datastage'
p14
I1
sS'tableau'
p15
I1
sS'strategy'
p16
I1
sS'python'
p17
I1
sS'ssis'
p18
I1
sS'r'
I1
sS'intelligence'
p19
I1
sS'database development'
p20
I1
sS'architecture'
p21
I1
sS'teradata'
p22
I1
sS'data modeling'
p23
I1
sS'theory'
p24
I1
sS'database design'
p25
I1
sS'informatica'
p26
I1
sS'data scientist'
p27
I1
sS'scripting'
p28
I1
sS'sql'
p29
I1
sS'modeling'
p30
I1
sS't-sql'
p31
I1
sS'data'
p32
I1
sS'software development'
p33
I1
sS'sql server'
p34
I1
sS'performance tuning'
p35
I1
sS'documentation'
p36
I1
sS'programming'
p37
I1
sS'analysis'
p38
I1
sS'arcgis'
p39
I1
sS'optimization'
p40
I1
sS'dashboard'
p41
I1
sS'oracle'
p42
I1
sS'sap hana'
p43
I1
sS'etl'
p44
I1
ssS'working-year'
p45
(dp46
V(2, 5]
p47
I1
ssS'major'
p48
(dp49
S'information'
p50
I1
sS'design'
p51
I1
sS'business'
p52
I1
sS'communication'
p53
I1
ssS'education'
p54
(dp55
VBachelor
p56
I1
ssS'responsibility'
p57
(dp58
S'development'
p59
I1
sS'information'
p60
I1
sS'documentation'
p61
I1
sS'analysis'
p62
I1
sVrequirement specification
p63
I1
sS'design'
p64
I1
sS'collect data'
p65
I1
sS'modeling'
p66
I1
sS'implement'
p67
I1
sS'optimization'
p68
I1
ss.