(dp1
S'skills'
p2
(dp3
S'consulting'
p4
F0.031456252699389523
sS'data science'
p5
F0.0094468406716117035
sS'analytics'
p6
F0.0051547159582594265
sS'engineering'
p7
F0.010580848838384251
sS'natural language processing'
p8
F0.025883072133205443
sS'strategy'
p9
F0.0071289307416563244
sS'java'
p10
F0.0071542209881726602
sS'research'
p11
F0.0048398903308779721
sS'access'
p12
F0.0092544421551970148
sS'innovation'
p13
F0.0063364473091116506
sS'algorithm development'
p14
F0.018679140586543838
sS'artificial intelligence'
p15
F0.0339190572037689
sS'signal processing'
p16
F0.021581553464702845
sS'government'
p17
F0.009930337974038618
sS'python'
p18
F0.003687896768276056
sS'processing'
p19
F0.0080888095869032419
sS'leadership'
p20
F0.0077356184912191484
sS'modeling'
p21
F0.0049018536949347489
sS'programming'
p22
F0.010551627111693008
sS'c++'
p23
F0.013664833969979893
sS'machine learning'
p24
F0.0080460740863527273
sS'security'
p25
F0.0080989801546784927
ssS'working-year'
p26
(dp27
V(5, 10]
p28
F0.0061354794737530881
sV(2, 5]
p29
F0.0039844352895881405
ssS'major'
p30
(dp31
S'information'
p32
F0.00319038874514334
sS'data science'
p33
F0.0094468406716117035
sS'machine learning'
p34
F0.0080460740863527273
sS'analytics'
p35
F0.0051547159582594265
sS'engineering'
p36
F0.010580848838384251
sS'management technology'
p37
F0.018974095950150944
sS'natural language processing'
p38
F0.025883072133205443
sS'phd'
p39
F0.0085512313691323422
sS'artificial intelligence'
p40
F0.0339190572037689
ssS'education'
p41
(dp42
VDoctor
p43
F0.0064602266872151887
ssS'responsibility'
p44
(dp45
S'development'
p46
F0.0046953072697792199
sS'information'
p47
F0.00319038874514334
sS'processing'
p48
F0.0080888095869032419
sS'modeling'
p49
F0.0049018536949347489
sS'model'
p50
F0.0037393633102495846
sS'prototype'
p51
F0.012102777003489069
ss.