(dp1
S'skills'
p2
(dp3
S'qualitative research'
p4
F0.0064656945080705137
sS'communication'
p5
F0.0027016541964349087
sS'data science'
p6
F0.0020526295659737187
sS'testing'
p7
F0.0034938191380546298
sS'analytics'
p8
F0.0014841936211322981
sS'survey methodology'
p9
F0.010481774780024407
sS'sociology'
p10
F0.0098147691819694995
sS'genetics'
p11
F0.0066283363568581874
sS'psychology'
p12
F0.0076067271542159792
sS'questionnaire design'
p13
F0.0099724023555285771
sS'research'
p14
F0.017470860238806927
sS'market research'
p15
F0.0054689558370280668
sS'statistical software'
p16
F0.0067158658213267728
sS'survey research'
p17
F0.0083760607835405634
sS'budgets'
p18
F0.0088173104520511986
sS'performance management'
p19
F0.0080976472476345374
sS'government'
p20
F0.0044490094123361187
sS'python'
p21
F0.00088950770094413985
sS'data scientist'
p22
F0.0018078014763888708
sS'performance measurement'
p23
F0.009226306421490112
sS'data quality'
p24
F0.006032146865505501
sS'survey design'
p25
F0.0078267481119974162
sS'leadership'
p26
F0.0028198099337949181
sS'statistics'
p27
F0.0015913188648508611
sS'editing'
p28
F0.0073515567370042714
sS'data'
p29
F0.0016191329402658419
sS'training'
p30
F0.0040158613498674561
sS'data collection'
p31
F0.01237320664491892
sS'quantitative research'
p32
F0.0059783116726582937
sS'eye tracking'
p33
F0.010557630870631256
sS'documentation'
p34
F0.004947851465774796
sS'analysis'
p35
F0.0011693471732222864
sS'materials'
p36
F0.0075000384013372192
sS'advertising'
p37
F0.0056167189152394022
sS'science'
p38
F0.0011997165327544239
sS'organization'
p39
F0.0030088461421189099
sS'retail'
p40
F0.0058804803488336551
ssS'working-year'
p41
(dp42
V(0, 2]
p43
F0.0038866555701197159
sV(2, 5]
p44
F0.0021142396389609822
ssS'major'
p45
(dp46
VStatistics
p47
F0.0030742402216520138
sVPsychology
p48
F0.0079568276642020177
sVBusiness
p49
F0.0018459289200923451
sVData Science
p50
F0.0017530528713396974
sVSociology
p51
F0.0067158658213267728
sVBiological Engineering
p52
F0.0044883887038851371
sVManagement Science and Engineering
p53
F0.0022005879496056185
ssS'education'
p54
(dp55
VBachelor
p56
F0.0015552539721329468
sVMaster
p57
F0.0012410933194951825
ssS'responsibility'
p58
(dp59
S'development'
p60
F0.0082659454089700924
sS'information'
p61
F0.0047341474386668756
sS'data collection'
p62
F0.01237320664491892
sS'explore opportunity'
p63
F0.011455399223224109
sS'documentation'
p64
F0.004947851465774796
sS'communicate'
p65
F0.003423622666009543
sS'analysis'
p66
F0.0011693471732222864
sS'design'
p67
F0.012460911348280526
sS'implement'
p68
F0.0072282019628655547
sS'evaluation'
p69
F0.011547587658111527
ss.