(dp1
S'skills'
p2
(dp3
S'communication'
p4
F0.0035338601765867329
sS'analytics'
p5
F0.0019413782633560862
sS'engineering'
p6
F0.0082021525250467932
sS'security clearance'
p7
F0.0081558492706671187
sS'problem solving'
p8
F0.0054790443414135066
sS'data mining'
p9
F0.0047365610015226286
sS'laboratory'
p10
F0.028226998815206843
sS'education'
p11
F0.0046844347094046187
sS'management'
p12
F0.0020224305071420805
sS'java'
p13
F0.0027662209099738469
sS'innovation'
p14
F0.0043210372145864361
sS'research'
p15
F0.0057131272879134259
sS'access'
p16
F0.0051773705917331578
sS'r'
F0.0012388221129775471
sS'matlab'
p17
F0.0028491097938349659
sS'natural language processing'
p18
F0.005593656544554247
sS'mathematics'
p19
F0.0081602378664098474
sS'artificial intelligence'
p20
F0.0061777155358811713
sS'computer science'
p21
F0.0031383554981857602
sS'text mining'
p22
F0.0073356806460951
sS'government'
p23
F0.01163892640905788
sS'python'
p24
F0.0011635078409671115
sS'processing'
p25
F0.0036452859077471429
sS'data scientist'
p26
F0.0023646688954550854
sS'electrical engineering'
p27
F0.0088496095611134279
sS'data'
p28
F0.00079420639201655961
sS'c'
F0.0027915667944153955
sS'pattern recognition'
p29
F0.0071280216716109179
sS'national security'
p30
F0.0093809223835091115
sS'science'
p31
F0.0047078162155854402
sS'analysis'
p32
F0.00076477393248689711
sS'machine learning'
p33
F0.001463209200522409
sS'optimization'
p34
F0.0089286109704845625
sS'organization'
p35
F0.0039356782126823238
sS'security'
p36
F0.009756030427320499
sS'physics'
p37
F0.021723967655773779
sS'data analytics'
p38
F0.004558755985459368
sS'statistical analysis'
p39
F0.0057470985567245709
ssS'working-year'
p40
(dp41
S'[0]'
p42
F0.0049022650235365679
ssS'major'
p43
(dp44
VBusiness
p45
F0.0024145409535136476
sVData Science
p46
F0.0022930557647434431
sVElectrical and Electronics Engineering
p47
F0.0070237245432477266
sVEngineering
p48
F0.0082021525250467932
sVComputer Science
p49
F0.0020208833623932983
sVMathematics
p50
F0.0038265011821036871
sVPhysics
p51
F0.005856544868750202
sVManagement Science and Engineering
p52
F0.0028784476305109205
ssS'education'
p53
(dp54
VMaster
p55
F0.001623394386661109
sVDoctor
p56
F0.0024312093120010445
ssS'responsibility'
p57
(dp58
S'development'
p59
F0.0054060759036344578
sS'information'
p60
F0.0030962169632352556
sS'large data set'
p61
F0.0070188775342251474
sS'pattern'
p62
F0.0058450693651208611
sS'processing'
p63
F0.0036452859077471429
sS'analysis'
p64
F0.00076477393248689711
sS'analytic'
p65
F0.0050395669024545595
sS'optimization'
p66
F0.0089286109704845625
sS'data mining'
p67
F0.0047365610015226286
sS'model'
p68
F0.0034540420578161625
sS'prototype'
p69
F0.014076658096203962
sS'presentation'
p70
F0.0054985587997982291
ss.