(dp1
S'skills'
p2
(dp3
S'forecasting'
p4
F0.015114582504279992
sS'outlook'
p5
F0.012784358206666258
sS'analytics'
p6
F0.0044831827937295184
sS'process improvement'
p7
F0.0083138212485295501
sS'data mining'
p8
F0.0054690188883560241
sS'sas'
p9
F0.0035701980842201462
sS'strategy'
p10
F0.0040593078124402963
sS'regression'
p11
F0.0061241437904170117
sS'direct marketing'
p12
F0.011941832240582036
sS'excel'
p13
F0.0041674078010465604
sS'anova'
p14
F0.013274957467796649
sS'research'
p15
F0.0021988668599529338
sS'access'
p16
F0.005977994910042409
sS'database marketing'
p17
F0.012121417978510452
sS'innovation'
p18
F0.0099784776914161009
sS'advanced analytics'
p19
F0.007584563284376504
sS'segmentation'
p20
F0.014928099547062066
sS'data analysis'
p21
F0.0038241289045506835
sS'marketing'
p22
F0.0098206934148327256
sS'data scientist'
p23
F0.0027303393432058717
sS'experimental design'
p24
F0.0089270950232994747
sS'survey design'
p25
F0.011820810292862078
sS'sql'
p26
F0.0017575872650336265
sS'modeling'
p27
F0.0041863179846471773
sS'data'
p28
F0.00061134787564161297
sS'word'
p29
F0.0071872903626240114
sS'business process'
p30
F0.0078744405399993715
sS'economics'
p31
F0.0061765253205140758
sS'analysis'
p32
F0.0017660758853305667
sS'factor analysis'
p33
F0.012683274617158426
sS'cluster analysis'
p34
F0.010130732438191795
sS'powerpoint'
p35
F0.006306763935397558
ssS'working-year'
p36
(dp37
V(2, 5]
p38
F0.003193155743379215
ssS'major'
p39
(dp40
VData Science
p41
F0.0026476520170233575
sVEconomics
p42
F0.0042287926482589199
sVComputer Science
p43
F0.0023333910988458705
sVBusiness
p44
F0.0027879235751910158
ssS'education'
p45
(dp46
VMaster
p47
F0.0018744347557324147
ssS'responsibility'
p48
(dp49
S'development'
p50
F0.0031210335113765943
sS'forecasting'
p51
F0.015114582504279992
sS'data analysis'
p52
F0.0038241289045506835
sS'formulate'
p53
F0.011616336321298411
sS'business problem'
p54
F0.007340594232295476
sS'presentation'
p55
F0.012697702795410343
sS'pattern'
p56
F0.0067489460710673859
sS'insight'
p57
F0.0094582131753066234
sS'recommendation'
p58
F0.013464957447516862
sS'analysis'
p59
F0.0017660758853305667
sS'improvement'
p60
F0.013846425238861381
sS'analytic'
p61
F0.0058188813719062954
sS'design'
p62
F0.0037639660052022619
sS'data mining'
p63
F0.0054690188883560241
sS'modeling'
p64
F0.0041863179846471773
sS'statistical model'
p65
F0.0092548049113889055
sS'evaluation'
p66
F0.0087202143913058684
ss.