(dp1
S'skills'
p2
(dp3
S'consulting'
p4
F0.03123753034024522
sS'analytics'
p5
F0.008016013474502549
sS'engineering'
p6
F0.011288984120494512
sS'data mining'
p7
F0.0097787065837886527
sS'management'
p8
F0.0041753404018417149
sS'java'
p9
F0.0057109076851072967
sS'strategy'
p10
F0.0072581171945937089
sS'access'
p11
F0.010688765092610391
sS'innovation'
p12
F0.0089208510236623208
sS'advanced analytics'
p13
F0.013561338960083335
sS'data analysis'
p14
F0.0068376129721920056
sS'government'
p15
F0.012014375648059747
sS'python'
p16
F0.0024020807039321014
sS'data scientist'
p17
F0.0048818970744879181
sS'data'
p18
F0.0010931012707324692
sS'c'
F0.0057632346723414628
sS'cloud computing'
p19
F0.014919800159990075
sS'programming'
p20
F0.0050797937089164793
sS'analysis'
p21
F0.0047366643560478794
sS'machine learning'
p22
F0.0030208189946269092
sS'algorithms'
p23
F0.0082680722505311249
sS'security'
p24
F0.010070741086266322
sS'data analytics'
p25
F0.0094116252603032129
ssS'working-year'
p26
(dp27
sS'major'
p28
(dp29
VData Science
p30
F0.0047340506110832379
sVManagement Science and Engineering
p31
F0.0059426015597644809
sVEngineering
p32
F0.011288984120494512
sVBusiness
p33
F0.004984858742737853
sVComputer Science
p34
F0.0041721462965539063
ssS'education'
p35
(dp36
VBachelor
p37
F0.0041999024316585563
sVMaster
p38
F0.0033515238950422898
ssS'responsibility'
p39
(dp40
S'development'
p41
F0.005580465448912989
sS'information'
p42
F0.0063921898595824637
sS'product'
p43
F0.006198123920358279
sS'data analysis'
p44
F0.0068376129721920056
sS'business problem'
p45
F0.013125117797837073
sS'analysis'
p46
F0.0047366643560478794
sS'data mining'
p47
F0.0097787065837886527
sS'interface'
p48
F0.014550954832028012
sS'presentation'
p49
F0.011351863328615699
ss.