(dp1
S'skills'
p2
(dp3
S'communication'
p4
F0.0078569198963317939
sS'microsoft excel'
p5
F0.0051038085734553609
sS'analytics'
p6
F0.0064744724217135974
sS'engineering'
p7
F0.0030393418785946767
sS'problem solving'
p8
F0.0060908483001321364
sS'linux'
p9
F0.0045808388034720331
sS'creative problem solving'
p10
F0.013995606648695553
sS'education'
p11
F0.0052075105454423547
sS'visualization'
p12
F0.0093017135083571685
sS'management'
p13
F0.0022482602163763081
sS'big data'
p14
F0.0031581268644234927
sS'excel'
p15
F0.0040122933667644306
sS'access'
p16
F0.0057554888960209801
sS'teamwork'
p17
F0.0071077174895831244
sS'intelligence'
p18
F0.0038959270716793525
sS'transportation'
p19
F0.011001580327394459
sS'government'
p20
F0.025877116780436381
sS'data scientist'
p21
F0.0026287138093396482
sS'business process'
p22
F0.007581347219652001
sS'leadership'
p23
F0.0041002695315231312
sS'data'
p24
F0.00058859299193286807
sS'a'
F0.0046403024655434907
sS'decision analysis'
p25
F0.013314624703282695
sS'fraud'
p26
F0.067947872281037269
sS'pattern recognition'
p27
F0.0079239546126096561
sS'national security'
p28
F0.010428419920129234
sS'sustainability'
p29
F0.012588401316460265
sS'programming'
p30
F0.0027352735355704117
sS'analysis'
p31
F0.0059511936781114381
sS'command'
p32
F0.0095279262463587207
sS'healthcare'
p33
F0.0066929040776927146
sS'organization'
p34
F0.00437514600318035
sS'security'
p35
F0.010845413477517577
sS'microsoft office'
p36
F0.0047652666126372792
sS'data analytics'
p37
F0.0050677982170863455
ssS'working-year'
p38
(dp39
V(5, 10]
p40
F0.0029916731056497735
ssS'major'
p41
(dp42
VData Science
p43
F0.0025491041751986667
sVEngineering
p44
F0.0030393418785946767
sVBusiness
p45
F0.0026841547076280749
sVManagement Science and Engineering
p46
F0.0031998623783347207
ssS'education'
p47
(dp48
VBachelor
p49
F0.0022614859247392228
ssS'responsibility'
p50
(dp51
S'development'
p52
F0.0060097320219062956
sS'information'
p53
F0.003441948385929019
sS'pattern'
p54
F0.0064977446044023474
sS'communicate'
p55
F0.004978270179358789
sS'analysis'
p56
F0.0059511936781114381
sS'improvement'
p57
F0.0066655248048116825
sS'analytic'
p58
F0.016806893094042007
sS'understand'
p59
F0.01043017277143561
sS'report'
p60
F0.015448707842474657
sS'identify ... trend'
p61
F0.010655630552606613
sS'presentation'
p62
F0.0061125417923315302
ss.