(dp1
S'skills'
p2
(dp3
S'management'
p4
F0.0036244000387626622
sS'finance'
p5
F0.011942022634963374
sS'marketing'
p6
F0.0072580515911038731
sS'data scientist'
p7
F0.0007875204024118366
sS'analysis'
p8
F0.0021332340426607325
sS'accounting'
p9
F0.13224387556608164
sS'communication'
p10
F0.0033363527367005047
sS'policy'
p11
F0.010016224619821769
sS'organization'
p12
F0.0091188289677880726
sS'data'
p13
F0.0021918107306644384
ssS'working-year'
p14
(dp15
V(5, 10]
p16
F0.0051433593886355674
sV(2, 5]
p17
F0.0033401436257398456
ssS'major'
p18
(dp19
S'information'
p20
F0.0026744960969925023
sS'management'
p21
F0.0036244000387626622
sS'finance'
p22
F0.011942022634963374
sS'communication'
p23
F0.0033363527367005047
sS'marketing'
p24
F0.0072580515911038731
sS'accounting'
p25
F0.13224387556608164
sS'accounting finance'
p26
F0.024646808014282529
ssS'education'
p27
(dp28
VBachelor
p29
F0.001446617733243169
ssS'responsibility'
p30
(dp31
S'report'
p32
F0.0054279699435510181
sS'information'
p33
F0.0026744960969925023
sS'analysis'
p34
F0.0021332340426607325
ss.