(dp1
S'skills'
p2
(dp3
S'forecasting'
p4
I1
sS'communication'
p5
I1
sS'data science'
p6
I1
sS'hadoop'
p7
I1
sS'analytics'
p8
I1
sS'data governance'
p9
I1
sS'data warehousing'
p10
I1
sS'data-driven decision making'
p11
I1
sS'problem solving'
p12
I1
sS'education'
p13
I1
sS'visualization'
p14
I1
sS'big data'
p15
I1
sS'agile'
p16
I1
sS'tableau'
p17
I1
sS'governance'
p18
I1
sS'perl'
p19
I1
sS'strategy'
p20
I1
sS'microstrategy'
p21
I1
sS'innovation'
p22
I1
sS'advanced analytics'
p23
I1
sS'mathematics'
p24
I1
sS'dimensional modeling'
p25
I1
sS'unstructured data'
p26
I1
sS'operations research'
p27
I1
sS'hdfs'
p28
I1
sS'python'
p29
I1
sS'data scientist'
p30
I1
sS'leadership'
p31
I1
sS'sql'
p32
I1
sS'modeling'
p33
I1
sS'spark'
p34
I1
sS'data'
p35
I1
sS'training'
p36
I1
sS'science'
p37
I1
sS'machine learning'
p38
I1
sS'economics'
p39
I1
sS'analysis'
p40
I1
sS'spss'
p41
I1
sS'statistical learning'
p42
I1
sS'r'
I1
sS'etl'
p43
I1
sS'healthcare'
p44
I1
sS'organization'
p45
I1
sS'predictive analytics'
p46
I1
sS'data analytics'
p47
I1
sS'statistical analysis'
p48
I1
ssS'working-year'
p49
(dp50
sS'major'
p51
(dp52
S'business'
p53
I1
sS'big data'
p54
I1
sS'science'
p55
I1
sS'data science'
p56
I1
sS'economics'
p57
I1
sS'statistic'
p58
I1
sS'machine learning'
p59
I1
sS'analytics'
p60
I1
sS'design'
p61
I1
sS'data analytics'
p62
I1
sS'communication'
p63
I1
sS'advanced analytics'
p64
I1
sS'mathematics'
p65
I1
sS'general'
p66
I1
sS'operations research'
p67
I1
sS'predictive analytics'
p68
I1
ssS'education'
p69
(dp70
S'Bachelor'
p71
I1
ssS'responsibility'
p72
(dp73
S'development'
p74
I1
sS'forecasting'
p75
I1
sS'business problem'
p76
I1
sS'pattern'
p77
I1
sS'provide leadership'
p78
I1
sVinsight
p79
I1
sS'communicate'
p80
I1
sS'product'
p81
I1
sS'analysis'
p82
I1
sS'design'
p83
I1
sS'modeling'
p84
I1
sS'implement'
p85
I1
sS'extract'
p86
I1
sS'model'
p87
I1
ss.