(dp1
S'skills'
p2
(dp3
S'software development'
p4
F0.01508937112789898
sS'speech recognition'
p5
F0.039229188806006718
sS'natural language processing'
p6
F0.034924419248229262
sS'signal processing'
p7
F0.029120315291414116
sS'theory'
p8
F0.020133002051058321
sS'shell scripting'
p9
F0.028832893450787319
sS'python'
p10
F0.0049761346804820753
sS'processing'
p11
F0.010914352661780402
sS'c++'
p12
F0.018438166384150953
sS'writing'
p13
F0.014371592561540867
sS'machine learning'
p14
F0.010856689006927996
sS'architecture'
p15
F0.012291603765387312
sS'linux'
p16
F0.017216958908360541
sS'education'
p17
F0.010186693562494364
sS'digital signal processing'
p18
F0.043976761086099332
sS'research'
p19
F0.0065305369533079491
sS'scripting'
p20
F0.014532470403991318
ssS'working-year'
p21
(dp22
V(0, 2]
p23
F0.01264419441071343
ssS'major'
p24
(dp25
S'machine learning'
p26
F0.010856689006927996
sS'natural language processing'
p27
F0.034924419248229262
ssS'education'
p28
(dp29
S'Bachelor'
p30
F0.0023284600500831829
ssS'responsibility'
p31
(dp32
S'development'
p33
F0.0031677244251592683
sS'product'
p34
F0.0078433653041886167
sS'processing'
p35
F0.010914352661780402
sS'engineering design'
p36
F0.034699083118486421
ss.