(dp1
S'skills'
p2
(dp3
S'communication'
p4
I1
sS'data science'
p5
I1
sS'presentation skills'
p6
I1
sS'process improvement'
p7
I1
sS'system administration'
p8
I1
sS'education'
p9
I1
sS'management'
p10
I1
sS'ehr'
p11
I1
sS'user experience'
p12
I1
sS'excel'
p13
I1
sS'integration'
p14
I1
sS'governance'
p15
I1
sS'coaching'
p16
I1
sS'statistical software'
p17
I1
sS'customer satisfaction'
p18
I1
sS'visual analytics'
p19
I1
sS'business analytics'
p20
I1
sS'business process'
p21
I1
sS'leadership'
p22
I1
sS'mentoring'
p23
I1
sS'sql'
p24
I1
sS'informatics'
p25
I1
sS'process development'
p26
I1
sS'training'
p27
I1
sS'word'
p28
I1
sS'documentation'
p29
I1
sS'business strategy'
p30
I1
sS'analysis'
p31
I1
sS'application development'
p32
I1
sS'healthcare'
p33
I1
sS'organization'
p34
I1
sS'powerpoint'
p35
I1
sS'data analytics'
p36
I1
ssS'working-year'
p37
(dp38
V(5, 10]
p39
I1
sV(2, 5]
p40
I1
ssS'major'
p41
(dp42
S'information'
p43
I1
sS'management'
p44
I1
sS'business'
p45
I1
sS'communication'
p46
I1
sS'data science'
p47
I1
sS'data analyst'
p48
I1
sS'general'
p49
I1
sS'business analytics'
p50
I1
sS'informatics'
p51
I1
sS'design'
p52
I1
sS'analytics data science'
p53
I1
sS'data analytics'
p54
I1
ssS'education'
p55
(dp56
VBachelor
p57
I1
ssS'responsibility'
p58
(dp59
S'development'
p60
I1
sS'information'
p61
I1
sS'documentation'
p62
I1
sS'communicate'
p63
I1
sS'analysis'
p64
I1
sS'improvement'
p65
I1
sS'design'
p66
I1
sS'recommendation'
p67
I1
sS'understand'
p68
I1
sS'model'
p69
I1
sS'presentation'
p70
I1
ss.