(dp1
S'skills'
p2
(dp3
S'training'
p4
I1
sS'software engineering'
p5
I1
sS'data science'
p6
I1
sS'scrum'
p7
I1
sS'data scientist'
p8
I1
sS'search'
p9
I1
sS'research'
p10
I1
sS'analytics'
p11
I1
sS'engineering'
p12
I1
ssS'working-year'
p13
(dp14
V(2, 5]
p15
I1
ssS'major'
p16
(dp17
S'business'
p18
I1
sS'software engineering'
p19
I1
sS'data science'
p20
I1
sS'data science analytics'
p21
I1
sS'analytics'
p22
I1
sS'engineering'
p23
I1
ssS'education'
p24
(dp25
VBachelor
p26
I1
sVMaster
p27
I1
ssS'responsibility'
p28
(dp29
S'extract'
p30
I1
sS'communicate'
p31
I1
sVtest hypothesis
p32
I1
ss.