(dp1
S'skills'
p2
(dp3
S'supply chain'
p4
F0.017222913140204223
sS'unsupervised learning'
p5
F0.022289505985699513
sS'engineering'
p6
F0.0054437990092162433
sS'sas'
p7
F0.0061566082518996297
sS'education'
p8
F0.018654459998340169
sS'experimentation'
p9
F0.016004824796763906
sS'visualization'
p10
F0.0083302012085954193
sS'big data'
p11
F0.0056565561171674113
sS'scala'
p12
F0.010846961723105052
sS'research'
p13
F0.0037918237407188367
sS'r'
F0.0024666324738397386
sS'computer science'
p14
F0.0062488145030543145
sS'python'
p15
F0.0023166733900145155
sS'data scientist'
p16
F0.0047083185118394592
sS'spark'
p17
F0.0074939361036251489
sS'manufacturing'
p18
F0.066358374613898832
sS'process development'
p19
F0.026424934196552056
sS'science'
p20
F0.0031245950586404106
sS'machine learning'
p21
F0.0029134120970401747
sS'data architecture'
p22
F0.018033215799179124
sS'optimization'
p23
F0.0088889282550601873
sS'architecture'
p24
F0.0097200645452651478
ssS'working-year'
p25
(dp26
S'[0]'
p27
F0.0097609543579750338
ssS'major'
p28
(dp29
VEngineering
p30
F0.010010573007852122
sVComputer Science
p31
F0.0040238033171208784
sVBusiness
p32
F0.0048076193207738406
ssS'education'
p33
(dp34
VMaster
p35
F0.0032323586009963415
ssS'responsibility'
p36
(dp37
S'development'
p38
F0.0053820488996183047
sS'optimization'
p39
F0.0088889282550601873
sS'design'
p40
F0.0064907502667487897
sS'improvement'
p41
F0.011938695539284923
ss.