(dp1
S'skills'
p2
(dp3
S'supply chain'
p4
F0.0084410065812770049
sS'unsupervised learning'
p5
F0.011308183337721021
sS'communication'
p6
F0.001750095743581738
sS'analytics'
p7
F0.0045333885882906559
sS'communication skills'
p8
F0.0065784373630630982
sS'data mining'
p9
F0.0099052963137613876
sS'hbase'
p10
F0.013037371079122723
sS'perl'
p11
F0.013191614608026786
sS'experimentation'
p12
F0.031458417779030995
sS'java'
p13
F0.0062918818512054204
sS'big data'
p14
F0.0049178265785269617
sS'scala'
p15
F0.0049842716541949501
sS'predictive modeling'
p16
F0.0048288755559148791
sS'hadoop'
p17
F0.0053116125093685546
sS'research'
p18
F0.0085130213855621473
sS'mahout'
p19
F0.018854444475408419
sS'r'
F0.0053373130433373344
sS'matlab'
p20
F0.0098763300324252821
sS'intelligence'
p21
F0.017052625816270497
sS'mathematics'
p22
F0.018090278688858426
sS'unstructured data'
p23
F0.0053617484050946934
sS'computer science'
p24
F0.0036910555689958083
sS'data analysis'
p25
F0.0062254861099363705
sS'python'
p26
F0.0048650602456498868
sS'octave'
p27
F0.022337259755502829
sS'sql'
p28
F0.0042166556988781937
sS'modeling'
p29
F0.0021555026292458604
sS'manufacturing'
p30
F0.030691822727928107
sS'data'
p31
F0.0074731939533257356
sS'process development'
p32
F0.012400919462331577
sS'business strategy'
p33
F0.0076034151674306515
sS'analysis'
p34
F0.0011189955357706967
sS'machine learning'
p35
F0.0035381173995792129
sS'data architecture'
p36
F0.0074576498539536545
sS'weka'
p37
F0.018613076585018554
sS'optimization'
p38
F0.0042971362975480097
sS'scripting'
p39
F0.0094720566026014839
ssS'working-year'
p40
(dp41
V[0]
p42
F0.0031834162329518862
ssS'major'
p43
(dp44
S'law'
p45
F0.0039894157689255505
sS'business'
p46
F0.01143029755586285
sS'big data'
p47
F0.0049178265785269617
sS'communication'
p48
F0.001750095743581738
sS'data mining'
p49
F0.0099052963137613876
sS'computer science computer engineering'
p50
F0.010630325802524489
sS'machine learning data mining'
p51
F0.0071356763814837557
sS'analytics'
p52
F0.0045333885882906559
sS'computer engineering'
p53
F0.0090048138720660448
sS'machine learning'
p54
F0.0035381173995792129
sS'design'
p55
F0.0015208005717339389
sS'computer science'
p56
F0.0036910555689958083
sS'statistic'
p57
F0.003967035455778767
sS'mathematics'
p58
F0.018090278688858426
sS'computer science mathematics'
p59
F0.0073329212292202704
sS'ee computer science'
p60
F0.005044365081089428
ssS'education'
p61
(dp62
S'Bachelor'
p63
F0.00075882849846460869
ssS'responsibility'
p64
(dp65
S'development'
p66
F0.0010323387635563688
sS'data analysis'
p67
F0.0062254861099363705
sS'business problem'
p68
F0.0041264121064826034
sS'pattern'
p69
F0.016210696952749078
sVinsight
p70
F0.0046475949976564641
sS'analysis'
p71
F0.0011189955357706967
sS'improvement'
p72
F0.0043411454510684849
sS'optimization'
p73
F0.0042971362975480097
sS'design'
p74
F0.0015208005717339389
sS'data mining'
p75
F0.0099052963137613876
sS'modeling'
p76
F0.0021555026292458604
sS'extract'
p77
F0.010546491854832895
ss.