(dp1
S'skills'
p2
(dp3
S'documentation'
p4
F0.0049733121079657472
sS'communication'
p5
F0.0081466690863337392
sS'writing'
p6
F0.0038543058766423548
sS'management'
p7
F0.0046623440850753978
sS'saas'
p8
F0.0052959559111503624
sS'innovation'
p9
F0.0066409079661568565
sS'research'
p10
F0.0014633968124558117
sS'access'
p11
F0.0039784940396165609
sS'quality assurance'
p12
F0.0066939174440704113
sS'sdlc'
p13
F0.0062859512738235182
sS'business requirements'
p14
F0.0088910345340966115
sS'root cause analysis'
p15
F0.009203762873795757
sS'customer satisfaction'
p16
F0.0077602619881205767
sS'product development'
p17
F0.0044828067732104807
sS'collaboration'
p18
F0.0043870830532992348
sS'processing'
p19
F0.0028011802515792794
sS'data scientist'
p20
F0.0018171040568848683
sS'sql'
p21
F0.0011697150237273534
sS'data'
p22
F0.00061029925149814546
sS'b2b'
p23
F0.005961791855228429
sS'software quality assurance'
p24
F0.010392690564503711
sS'excel'
p25
F0.002773506392463234
sS'education'
p26
F0.007199405659736772
sS'analysis'
p27
F0.000587682198549108
sS'root'
p28
F0.0067179070865302989
ssS'working-year'
p29
(dp30
sS'major'
p31
(dp32
VBusiness
p33
F0.0018554276966965938
sVManagement Science and Engineering
p34
F0.0022119117297922683
ssS'education'
p35
(dp36
VBachelor
p37
F0.0015632569942880046
ssS'responsibility'
p38
(dp39
S'development'
p40
F0.0041542401455029795
sS'information'
p41
F0.0047585084031883176
sS'product'
p42
F0.0046140407914845513
sS'processing'
p43
F0.0028011802515792794
sS'documentation'
p44
F0.0049733121079657472
sS'analysis'
p45
F0.000587682198549108
sS'understand'
p46
F0.0036049396457020159
sS'recommendation'
p47
F0.0044806204885390584
sS'report'
p48
F0.010678952419412156
sS'design'
p49
F0.0075150196055839332
ss.