(dp1
S'skills'
p2
(dp3
S'characterization'
p4
I1
sS'communication'
p5
I1
sS'decision support'
p6
I1
sS'engineering'
p7
I1
sS'statistical analysis'
p8
I1
sS'modeling'
p9
I1
sS'education'
p10
I1
sS'image processing'
p11
I1
sS'genetics'
p12
I1
sS'big data'
p13
I1
sS'high performance computing'
p14
I1
sS'statistical computing'
p15
I1
sS'anova'
p16
I1
sS'mixed model'
p17
I1
sS'advanced analytics'
p18
I1
sS'computer science'
p19
I1
sS'data analysis'
p20
I1
sS'theory'
p21
I1
sS'python'
p22
I1
sS'sql'
p23
I1
sS'informatics'
p24
I1
sS'java'
p25
I1
sS'software development'
p26
I1
sS'c'
I1
sS'remote sensing'
p27
I1
sS'object oriented design'
p28
I1
sS'analysis'
p29
I1
sS'machine learning'
p30
I1
sS'data architecture'
p31
I1
sS'r'
I1
sS'biotechnology'
p32
I1
sVbayesian statistic
p33
I1
sS'predictive analytics'
p34
I1
ssS'working-year'
p35
(dp36
V[0]
p37
I1
ssS'major'
p38
(dp39
S'genetics'
p40
I1
sS'big data'
p41
I1
sS'statistics computer science'
p42
I1
sS'computational science'
p43
I1
sS'statistical computing'
p44
I1
sS'communication'
p45
I1
sS'high performance computing'
p46
I1
sS'machine learning'
p47
I1
sS'mathematics statistics'
p48
I1
sS'engineering'
p49
I1
sS'design'
p50
I1
sS'computer science'
p51
I1
sS'statistic'
p52
I1
sS'advanced analytics'
p53
I1
sS'biotechnology'
p54
I1
sS'informatics'
p55
I1
sVphysic
p56
I1
sS'predictive analytics'
p57
I1
ssS'education'
p58
(dp59
VBachelor
p60
I1
sVMaster
p61
I1
sVDoctor
p62
I1
ssS'responsibility'
p63
(dp64
S'development'
p65
I1
sS'modeling'
p66
I1
sS'data analysis'
p67
I1
sS'design'
p68
I1
sS'analysis'
p69
I1
ss.