(dp1
S'skills'
p2
(dp3
S'training'
p4
I1
sS'documentation'
p5
I1
sS'data scientist'
p6
I1
sS'analysis'
p7
I1
sS'analytics'
p8
I1
sS'business requirements'
p9
I1
sS'advanced analytics'
p10
I1
sS'data'
p11
I1
ssS'working-year'
p12
(dp13
V[0]
p14
I1
ssS'major'
p15
(dp16
S'advanced analytics'
p17
I1
sS'analytics'
p18
I1
sS'business'
p19
I1
ssS'education'
p20
(dp21
S'Bachelor'
p22
I1
ssS'responsibility'
p23
(dp24
S'product'
p25
I1
sS'documentation'
p26
I1
sS'analysis'
p27
I1
sS'statistical model'
p28
I1
sS'understand'
p29
I1
sS'interface'
p30
I1
sS'model'
p31
I1
sS'presentation'
p32
I1
ss.