(dp1
S'skills'
p2
(dp3
S'visualization'
p4
F0.066302174922735893
sS'data visualization'
p5
F0.013690047557472169
sS'data scientist'
p6
F0.0014805383565342526
sS'analytics'
p7
F0.0081238323502168565
sS'modeling'
p8
F0.0077253214232171647
sS'data'
p9
F0.020603020868245722
ssS'working-year'
p10
(dp11
V[0]
p12
F0.011409363778899562
ssS'major'
p13
(dp14
S'analytics'
p15
F0.0081238323502168565
sS'design'
p16
F0.0054505492490944376
sS'data analyst'
p17
F0.022056858575220335
sS'business'
p18
F0.006302490221571146
ssS'education'
p19
(dp20
S'Bachelor'
p21
F0.0027196413384971575
ssS'responsibility'
p22
(dp23
S'business problem'
p24
F0.014789060989633651
sVinsight
p25
F0.0083284902358003836
sS'design'
p26
F0.0054505492490944376
sS'interface'
p27
F0.01862755109749404
sS'modeling'
p28
F0.0077253214232171647
sS'evaluation'
p29
F0.021069206352201799
ss.