(dp1
S'skills'
p2
(dp3
S'firmware'
p4
F0.027476398649327549
sS'arduino'
p5
F0.026471250043637779
sS'communication'
p6
F0.014262787019016725
sS'energy'
p7
F0.013898627504730109
sS'testing'
p8
F0.0092224234905405982
sS'data scientist'
p9
F0.0047719444376751272
sS'analysis'
p10
F0.0015433275754690539
sS'writing'
p11
F0.010121893360731949
sS'hardware'
p12
F0.03345329798697716
sS'javascript'
p13
F0.0099884892523510981
sS'test automation'
p14
F0.023740919112582824
sS'system administration'
p15
F0.020743212857877381
sS'linux'
p16
F0.0083156668369334663
sS'security'
p17
F0.0098439225933323951
sS'automation'
p18
F0.045068220614375806
sS'data'
p19
F0.00053424093637149961
sS'linux system administration'
p20
F0.025907453786640208
ssS'working-year'
p21
(dp22
S'[0]'
p23
F0.0098928591465963188
ssS'major'
p24
(dp25
sS'education'
p26
(dp27
S'Bachelor'
p28
F0.0041053100345491292
ssS'responsibility'
p29
(dp30
S'development'
p31
F0.0054547792901536874
sS'product'
p32
F0.0060585265347646248
sS'pattern'
p33
F0.011795455295379035
sS'analysis'
p34
F0.0015433275754690539
sS'design'
p35
F0.006578463108191341
sS'implement'
p36
F0.0095399242122504845
ss.