(dp1
S'skills'
p2
(dp3
S'training'
p4
I1
sS'data analysis'
p5
I1
sS'classification'
p6
I1
sS'data mining'
p7
I1
sS'data scientist'
p8
I1
sS'analysis'
p9
I1
sS'analytics'
p10
I1
sS'exploratory data analysis'
p11
I1
sS'healthcare'
p12
I1
sS'advanced analytics'
p13
I1
sS'organization'
p14
I1
sS'modeling'
p15
I1
ssS'working-year'
p16
(dp17
V[0]
p18
I1
ssS'major'
p19
(dp20
S'advanced analytics'
p21
I1
sS'analytics'
p22
I1
sS'design'
p23
I1
sS'data mining'
p24
I1
ssS'education'
p25
(dp26
S'Bachelor'
p27
I1
ssS'responsibility'
p28
(dp29
S'data analysis'
p30
I1
sS'business problem'
p31
I1
sS'analysis'
p32
I1
sS'analytic'
p33
I1
sS'design'
p34
I1
sS'data mining'
p35
I1
sS'modeling'
p36
I1
sS'implement'
p37
I1
sS'presentation'
p38
I1
sS'model'
p39
I1
ss.