(dp1
S'skills'
p2
(dp3
S'documentation'
p4
F0.0079375406854604504
sS'r d'
p5
F0.0014509353776137009
sS'intelligence'
p6
F0.033743711862584735
sS'testing'
p7
F0.0058988027669184557
sS'integration'
p8
F0.0068074647756584412
sS'business intelligence'
p9
F0.0082277169158542565
sS'visualization'
p10
F0.005857082590347693
sS'user experience'
p11
F0.0099403946812232444
sS'tableau'
p12
F0.021078854643126296
sS'computer science'
p13
F0.0058430844343113856
sS'user acceptance testing'
p14
F0.021254921640621489
sS'operations research'
p15
F0.018713182713516539
sS'theory'
p16
F0.010386637100545991
sS'web design'
p17
F0.021899165986477554
sS'data scientist'
p18
F0.00065394803733845081
sS'sql'
p19
F0.0033375649348011144
sS'data'
p20
F0.0036401096940363465
sS'training'
p21
F0.012673859444726274
sS'data visualization'
p22
F0.0060468407939364708
sS'economics'
p23
F0.0086837450578983576
sS'dashboard'
p24
F0.039954529613679436
sS'english'
p25
F0.012214323149394715
sS'oracle'
p26
F0.0092961913119042911
sS'organization'
p27
F0.0037860862322088291
sS'microsoft office'
p28
F0.01212429392150856
sS'etl'
p29
F0.028009029181720622
ssS'working-year'
p30
(dp31
V(2, 5]
p32
F0.002773617498405879
ssS'major'
p33
(dp34
S'information'
p35
F0.0022208713172905937
sS'business'
p36
F0.0069594635838904004
sS'english'
p37
F0.012214323149394715
sS'economics'
p38
F0.0086837450578983576
sS'design'
p39
F0.012037432087222697
sS'operations research'
p40
F0.018713182713516539
sS'statistic'
p41
F0.0031399856611111091
sS'computer science engineering'
p42
F0.01069902749445841
sS'statistics operations research'
p43
F0.015687688418995045
sS'computer science'
p44
F0.0058430844343113856
ssS'education'
p45
(dp46
VBachelor
p47
F0.0012012550081701226
ssS'responsibility'
p48
(dp49
S'development'
p50
F0.0049026971668542745
sS'information'
p51
F0.0022208713172905937
sS'documentation'
p52
F0.0079375406854604504
sS'understand'
p53
F0.0047385750585728133
sS'report'
p54
F0.013521974594358544
sS'design'
p55
F0.012037432087222697
sS'implement'
p56
F0.004703043370926154
ss.