(dp1
S'skills'
p2
(dp3
S'data analysis'
p4
F0.023635743875012664
sS'java'
p5
F0.011943911310762832
sS'big data'
p6
F0.018671070399831177
sS'python'
p7
F0.0061569124012744326
sS'intelligence'
p8
F0.016185543147646576
sS'predictive modeling'
p9
F0.018333358042795473
sS'analysis'
p10
F0.0042483898307226452
sS'spss'
p11
F0.020607706226068744
sS'r'
F0.006754565659364763
sS'statistical analysis'
p12
F0.015525244859499764
sS'modeling'
p13
F0.0081836032025605562
sS'predictive analytics'
p14
F0.043211569578317566
ssS'working-year'
p15
(dp16
V(5, 10]
p17
F0.01024313098584202
sV(2, 5]
p18
F0.0066519809495666415
ssS'major'
p19
(dp20
S'predictive analytics'
p21
F0.043211569578317566
sS'design'
p22
F0.0057738869164135984
sS'business'
p23
F0.0066763667601389262
sS'big data'
p24
F0.018671070399831177
sS'statistic'
p25
F0.0075306435770715581
ssS'education'
p26
(dp27
VBachelor
p28
F0.002880975994170718
ssS'responsibility'
p29
(dp30
S'development'
p31
F0.0039193878480784173
sS'data analysis'
p32
F0.023635743875012664
sS'predict'
p33
F0.028919353026535911
sVinsight
p34
F0.017645106431780473
sS'analysis'
p35
F0.0042483898307226452
sS'design'
p36
F0.0057738869164135984
sS'modeling'
p37
F0.0081836032025605562
ss.