(dp1
S'skills'
p2
(dp3
S'data analysis'
p4
F0.012468588361056009
sS'java'
p5
F0.010414008131666248
sS'big data'
p6
F0.010695169129098046
sS'python'
p7
F0.0043802648130526547
sS'intelligence'
p8
F0.013193769830981335
sS'predictive modeling'
p9
F0.017470637888142602
sS'analysis'
p10
F0.002879148922303613
sS'spss'
p11
F0.018540746477794665
sS'r'
F0.0046638008959154721
sS'statistical analysis'
p12
F0.021636135742963091
sS'sas'
p13
F0.011640645854432072
sS'modeling'
p14
F0.0068247536892567431
sS'predictive analytics'
p15
F0.019348724145620087
ssS'working-year'
p16
(dp17
V(5, 10]
p18
F0.010131464382998813
sV(2, 5]
p19
F0.010411297717908701
ssS'major'
p20
(dp21
VData Science
p22
F0.0086326805260929628
sVComputer Science
p23
F0.0076080314819512414
sVBusiness
p24
F0.0090900365308749093
ssS'education'
p25
(dp26
VBachelor
p27
F0.0076586456106714851
ssS'responsibility'
p28
(dp29
S'development'
p30
F0.010176142877429567
sS'data analysis'
p31
F0.012468588361056009
sS'predict'
p32
F0.035057832239624442
sS'insight'
p33
F0.030838543798478741
sS'analysis'
p34
F0.002879148922303613
sS'design'
p35
F0.01227242697494519
sS'modeling'
p36
F0.0068247536892567431
ss.