(dp1
S'skills'
p2
(dp3
S'forecasting'
p4
F0.020222269005726334
sS'analytics'
p5
F0.0059981893929898387
sS'ssrs'
p6
F0.016400110723253265
sS'statistical analysis'
p7
F0.0088782763910779591
sS'sas'
p8
F0.0047766788161290232
sS'econometrics'
p9
F0.010576753654276691
sS'statistics'
p10
F0.0032155615682848433
sS'multivariate analysis'
p11
F0.015630657614975875
sS'predictive modeling'
p12
F0.0071689858920309301
sS'research'
p13
F0.0058838644252533672
sS'business requirements'
p14
F0.017874045287511464
sS'advanced analytics'
p15
F0.010147622601165805
sS'segmentation'
p16
F0.009986383834931176
sS'data analysis'
p17
F0.0051164207412609146
sS'data scientist'
p18
F0.0036530057419444078
sS'statistical modeling'
p19
F0.0061771224834151596
sS'modeling'
p20
F0.0028005023759363878
sS't-sql'
p21
F0.016592800347464597
sS'data'
p22
F0.0012269119435290301
sS'sql server'
p23
F0.0096476843768228335
sS'economics'
p24
F0.0082637649115843495
sS'microsoft sql server'
p25
F0.010828028659262206
sS'analysis'
p26
F0.0011814438681176894
sS'r'
F0.0019137665745308317
sS'retail'
p27
F0.011882625808332834
ssS'working-year'
p28
(dp29
V(5, 10]
p30
F0.0041573940054374439
ssS'major'
p31
(dp32
VData Science
p33
F0.0035423758020864228
sVStatistics
p34
F0.0062120854134071731
sVBusiness
p35
F0.0037300494730141869
sVEconomics
p36
F0.005657832922498141
ssS'education'
p37
(dp38
VBachelor
p39
F0.003142685612654851
sVMaster
p40
F0.0025078644318075063
ssS'responsibility'
p41
(dp42
S'development'
p43
F0.0041757275945314438
sS'forecasting'
p44
F0.020222269005726334
sS'data analysis'
p45
F0.0051164207412609146
sS'extract'
p46
F0.010667960450699412
sS'product'
p47
F0.0046379065197163678
sS'analysis'
p48
F0.0011814438681176894
sS'design'
p49
F0.005035926931098199
sS'solve problem'
p50
F0.014182905073212694
sS'report'
p51
F0.0071561255868014791
sS'modeling'
p52
F0.0028005023759363878
sS'evaluation'
p53
F0.011667045461471301
ss.