(dp1
S'skills'
p2
(dp3
S'data scientist'
p4
I1
sS'nosql'
p5
I1
sS'communication'
p6
I1
sS'collaboration'
p7
I1
sS'testing'
p8
I1
sS'aws'
p9
I1
sS'architecture'
p10
I1
sS'sql'
p11
I1
sS'innovation'
p12
I1
sS'organization'
p13
I1
sS'security'
p14
I1
sS'data'
p15
I1
sS'quality assurance'
p16
I1
ssS'working-year'
p17
(dp18
V(2, 5]
p19
I1
ssS'major'
p20
(dp21
S'information'
p22
I1
sS'business'
p23
I1
sS'communication'
p24
I1
ssS'education'
p25
(dp26
S'Bachelor'
p27
I1
ssS'responsibility'
p28
(dp29
S'development'
p30
I1
sS'information'
p31
I1
sS'product'
p32
I1
sVinsight
p33
I1
sS'understand'
p34
I1
ss.