(dp1
S'skills'
p2
(dp3
S'distributed computing'
p4
I1
sS'big data'
p5
I1
sS'nosql'
p6
I1
sS'communication'
p7
I1
sS'cloud computing'
p8
I1
sS'processing'
p9
I1
sS'data scientist'
p10
I1
sS'mapreduce'
p11
I1
sS'mahout'
p12
I1
sS'computer science'
p13
I1
sS'architecture'
p14
I1
sS'innovation'
p15
I1
sS'organization'
p16
I1
sS'security'
p17
I1
sS'data'
p18
I1
sS'collaboration'
p19
I1
sS'predictive analytics'
p20
I1
ssS'working-year'
p21
(dp22
V[0]
p23
I1
ssS'major'
p24
(dp25
S'information'
p26
I1
sS'business'
p27
I1
sS'big data'
p28
I1
sS'computing'
p29
I1
sS'communication'
p30
I1
sS'computer sciences'
p31
I1
sS'design'
p32
I1
sS'computer science'
p33
I1
sS'predictive analytics'
p34
I1
ssS'education'
p35
(dp36
S'Bachelor'
p37
I1
ssS'responsibility'
p38
(dp39
S'information'
p40
I1
sS'product'
p41
I1
sS'processing'
p42
I1
sVinsight
p43
I1
sS'analytic'
p44
I1
sS'understand'
p45
I1
sS'design'
p46
I1
sS'model'
p47
I1
ss.