(dp1
S'skills'
p2
(dp3
S'consulting'
p4
F0.035010631535478731
sS'data science'
p5
F0.0063085681773135784
sS'thought leadership'
p6
F0.011505542809556391
sS'security clearance'
p7
F0.010070065136857615
sS'data mining'
p8
F0.015042619486661362
sS'strategy'
p9
F0.014282027350233517
sS'access'
p10
F0.0061800851002502101
sS'coaching'
p11
F0.011306090384114672
sS'innovation'
p12
F0.0042314580335423568
sS'advanced analytics'
p13
F0.01478774123453332
sS'operations research'
p14
F0.01795196850144129
sS'text mining'
p15
F0.012287716481788728
sS'government'
p16
F0.01326289207380073
sS'data scientist'
p17
F0.00062734676124332736
sS'mentoring'
p18
F0.018980774857771762
sS'business development'
p19
F0.01284928615234127
sS'data'
p20
F0.00087300935882397119
sS'data visualization'
p21
F0.0058008676090983771
sS'engineering'
p22
F0.0070658549869888057
sS'analysis'
p23
F0.0033987118645781161
sS'machine learning'
p24
F0.0053731410000389408
sS'security'
p25
F0.0054084714931242825
sS'data analytics'
p26
F0.010369719420927478
sS'predictive analytics'
p27
F0.017284627831327025
ssS'working-year'
p28
(dp29
V(10, 15]
p30
F0.0095939834268203988
ssS'major'
p31
(dp32
S'business'
p33
F0.0026705467040555701
sS'computing'
p34
F0.0072212368224863479
sS'predictive analytics'
p35
F0.017284627831327025
sS'data science'
p36
F0.0063085681773135784
sS'data mining'
p37
F0.015042619486661362
sS'machine learning data mining'
p38
F0.010836552606456686
sS'advanced analytics'
p39
F0.01478774123453332
sS'engineering'
p40
F0.0070658549869888057
sS'management technology'
p41
F0.012670836956541479
sS'data analytics'
p42
F0.010369719420927478
sS'statistic'
p43
F0.0030122574308286232
sS'analytics data science'
p44
F0.013636366516329297
sS'machine learning'
p45
F0.0053731410000389408
sS'operations research'
p46
F0.01795196850144129
sS'data mining machine learning'
p47
F0.011286775747968561
ssS'education'
p48
(dp49
VBachelor
p50
F0.0011523903976682871
ssS'responsibility'
p51
(dp52
S'development'
p53
F0.0015677551392313668
sS'product'
p54
F0.0019409005667992171
sS'business problem'
p55
F0.0062665512667939198
sS'analysis'
p56
F0.0033987118645781161
sS'solve problem'
p57
F0.010263812816717729
sS'data mining'
p58
F0.015042619486661362
sS'model'
p59
F0.0024971341427768414
ss.