(dp1
S'skills'
p2
(dp3
S'd3'
p4
I1
sS'user experience'
p5
I1
sS'adobe creative suite'
p6
I1
sS'energy'
p7
I1
sS'data scientist'
p8
I1
sS'html'
p9
I1
sS'django'
p10
I1
sS'graphic design'
p11
I1
sS'user interface'
p12
I1
sS'defense'
p13
I1
sS'geospatial intelligence'
p14
I1
sS'visio'
p15
I1
sS'interaction design'
p16
I1
sS'organization'
p17
I1
sS'data'
p18
I1
sS'insurance'
p19
I1
sS'information architecture'
p20
I1
ssS'working-year'
p21
(dp22
V(5, 10]
p23
I1
sV(2, 5]
p24
I1
ssS'major'
p25
(dp26
S'information'
p27
I1
sS'information system'
p28
I1
sS'design'
p29
I1
sS'business'
p30
I1
sS'information systems'
p31
I1
ssS'education'
p32
(dp33
VBachelor
p34
I1
ssS'responsibility'
p35
(dp36
S'development'
p37
I1
sS'information'
p38
I1
sS'product'
p39
I1
sS'analytic'
p40
I1
sS'design'
p41
I1
sS'interface'
p42
I1
sS'model'
p43
I1
sS'prototype'
p44
I1
ss.