(dp1
S'skills'
p2
(dp3
S'communication'
p4
I1
sS'testing'
p5
I1
sS'process improvement'
p6
I1
sS'research'
p7
I1
sS'management'
p8
I1
sS'java'
p9
I1
sS'excel'
p10
I1
sS'integration'
p11
I1
sS'strategy'
p12
I1
sS'access'
p13
I1
sS'coaching'
p14
I1
sS'quality assurance'
p15
I1
sS'sdlc'
p16
I1
sS'business requirements'
p17
I1
sS'jenkins'
p18
I1
sS'soap'
p19
I1
sS'innovation'
p20
I1
sS'software development life cycle sdlc'
p21
I1
sS'product development'
p22
I1
sS'toad'
p23
I1
sS'scrum'
p24
I1
sS'data scientist'
p25
I1
sS'automation'
p26
I1
sS'leadership'
p27
I1
sS'sql'
p28
I1
sS'data'
p29
I1
sS'b2b'
p30
I1
sS'software development'
p31
I1
sS'software quality assurance'
p32
I1
sS'training'
p33
I1
sS'saas'
p34
I1
sS'documentation'
p35
I1
sS'product management'
p36
I1
sS'organization'
p37
I1
sS'scripting'
p38
I1
ssS'working-year'
p39
(dp40
V(5, 10]
p41
I1
ssS'major'
p42
(dp43
S'information'
p44
I1
sS'management'
p45
I1
sS'business'
p46
I1
sS'communication'
p47
I1
sS'automation'
p48
I1
sS'design'
p49
I1
ssS'education'
p50
(dp51
S'Bachelor'
p52
I1
ssS'responsibility'
p53
(dp54
S'development'
p55
I1
sS'information'
p56
I1
sS'product'
p57
I1
sS'documentation'
p58
I1
sS'improvement'
p59
I1
sS'design'
p60
I1
sS'solve problem'
p61
I1
sS'interface'
p62
I1
sS'understand'
p63
I1
sS'implement'
p64
I1
sS'presentation'
p65
I1
ss.