(dp1
S'skills'
p2
(dp3
S'communication'
p4
F0.0015106799482169915
sS'testing'
p5
F0.016082477678592704
sS'process improvement'
p6
F0.0063508234572647836
sS'research'
p7
F0.0018371067344565715
sS'management'
p8
F0.0032822119811530851
sS'java'
p9
F0.002715571357745692
sS'excel'
p10
F0.0037555088796852542
sS'integration'
p11
F0.0037119701955902482
sS'strategy'
p12
F0.0027059717844051946
sS'access'
p13
F0.0035127651340535874
sS'coaching'
p14
F0.0064263904880805939
sS'quality assurance'
p15
F0.0067105932901216983
sS'sdlc'
p16
F0.0081645117553186628
sS'business requirements'
p17
F0.0089187972787053357
sS'jenkins'
p18
F0.0073923497203649321
sS'soap'
p19
F0.0091307430935988771
sS'innovation'
p20
F0.0048103280150096159
sS'software development life cycle sdlc'
p21
F0.011035571417489365
sS'product development'
p22
F0.0039862086523720806
sS'toad'
p23
F0.011589870567044087
sS'scrum'
p24
F0.0067233954852394225
sS'data scientist'
p25
F0.00035658438259495486
sS'automation'
p26
F0.010750217564070269
sS'leadership'
p27
F0.0029362559590947442
sS'sql'
p28
F0.0018199053498048465
sS'data'
p29
F0.00049621919239512815
sS'b2b'
p30
F0.0053814990502040637
sS'software development'
p31
F0.004244794190121871
sS'software quality assurance'
p32
F0.011435646088787336
sS'training'
p33
F0.0034553971318473371
sS'saas'
p34
F0.0050312957999572652
sS'documentation'
p35
F0.0043281772909158139
sS'product management'
p36
F0.0057086020091763733
sS'organization'
p37
F0.002064474766310402
sS'scripting'
p38
F0.0040881323294464983
ssS'working-year'
p39
(dp40
V(5, 10]
p41
F0.0023288814187463554
ssS'major'
p42
(dp43
S'information'
p44
F0.0012109953425688594
sS'management'
p45
F0.0032822119811530851
sS'business'
p46
F0.0030358816096200127
sS'communication'
p47
F0.0015106799482169915
sS'automation'
p48
F0.010750217564070269
sS'design'
p49
F0.0013127527093194694
ssS'education'
p50
(dp51
S'Bachelor'
p52
F0.00065501959019681054
ssS'responsibility'
p53
(dp54
S'development'
p55
F0.0026733396882847003
sS'information'
p56
F0.0012109953425688594
sS'product'
p57
F0.004412837512183191
sS'documentation'
p58
F0.0043281772909158139
sS'improvement'
p59
F0.0037472700618086342
sS'design'
p60
F0.0013127527093194694
sS'solve problem'
p61
F0.0058339591154753954
sS'interface'
p62
F0.0044864044069108959
sS'understand'
p63
F0.0051676945725476157
sS'implement'
p64
F0.0025644725895416212
sS'presentation'
p65
F0.00326068632397897
ss.