(dp1
S'skills'
p2
(dp3
S'data analysis'
p4
F0.011918879389963652
sS'data modeling'
p5
F0.011465830053154446
sS'theory'
p6
F0.012561616664335537
sS'government'
p7
F0.0083601563285709748
sS'intelligence'
p8
F0.0081619405616337442
sS'programming'
p9
F0.0044416037200929979
sS'security clearance'
p10
F0.01269516758706409
sS'continuous improvement'
p11
F0.014377278559524724
sS'national security'
p12
F0.014969507992590331
sS'exploratory data analysis'
p13
F0.01728938988731387
sS'defense'
p14
F0.012229698861264765
sS'analysis'
p15
F0.0021423504274584284
sS'innovation'
p16
F0.0053345304269016899
sS'mathematics'
p17
F0.0069268759424004926
sS'modeling'
p18
F0.0041267742645390839
sS'machine learning'
p19
F0.0067738316026131956
sS'education'
p20
F0.0063558002569409286
sS'simulation'
p21
F0.012957415000081648
ssS'working-year'
p22
(dp23
V(5, 10]
p24
F0.0051653395569630708
ssS'major'
p25
(dp26
S'information'
p27
F0.0053718511349849412
sS'business'
p28
F0.0016833574309751994
sS'machine learning'
p29
F0.0067738316026131956
sS'design'
p30
F0.0029116181886188236
sS'statistic'
p31
F0.0037975040260446323
sS'mathematics'
p32
F0.0069268759424004926
ssS'education'
p33
(dp34
VBachelor
p35
F0.0014527998603083108
ssS'responsibility'
p36
(dp37
S'development'
p38
F0.0019764434447574926
sS'information'
p39
F0.0053718511349849412
sS'product'
p40
F0.0097874473026627207
sS'data analysis'
p41
F0.011918879389963652
sVtest hypothesis
p42
F0.01728938988731387
sS'pattern'
p43
F0.0077589660628542608
sS'communicate'
p44
F0.0052773855260432826
sS'improvement'
p45
F0.0083112528293960743
sS'analysis'
p46
F0.0021423504274584284
sS'simulation'
p47
F0.012957415000081648
sS'design'
p48
F0.0029116181886188236
sS'identify opportunity'
p49
F0.014377278559524724
sS'modeling'
p50
F0.0041267742645390839
sS'model'
p51
F0.0031480964620477277
sS'prototype'
p52
F0.020378180082797837
sS'transformation'
p53
F0.010362348299803877
ss.