(dp1
S'skills'
p2
(dp3
S'forecasting'
p4
F0.01032531610741556
sS'model validation'
p5
F0.0088931159275160779
sS'communication'
p6
F0.0028984949838248377
sS'data mining'
p7
F0.008202537428031613
sS'quantitative analysis'
p8
F0.011987396391423384
sS'econometrics'
p9
F0.012481024893427653
sS'banking'
p10
F0.0054910706383974059
sS'industrial engineering'
p11
F0.016106932066587653
sS'recruiting'
p12
F0.010252353955249111
sS'strategy'
p13
F0.0025959322663702327
sS'teamwork'
p14
F0.0049870536040652605
sS'innovation'
p15
F0.0023073569683826163
sS'mathematics'
p16
F0.0029960979122397691
sS'operations research'
p17
F0.0097889661884014417
sS'financial services'
p18
F0.0068018312302202157
sS'collaboration'
p19
F0.0033490862896597817
sS'data scientist'
p20
F0.00034208372378333012
sS'business process'
p21
F0.004889179510127563
sS'statistical modeling'
p22
F0.0043233570160946594
sS'modeling'
p23
F0.0017849633602627459
sS'credit risk'
p24
F0.0082063139049456512
sS'retail'
p25
F0.01054022393733757
sS'risk modeling'
p26
F0.0099981683092542056
sS'analysis'
p27
F0.00092663585956612225
sS'credit'
p28
F0.0049870536040652605
sS'financial engineering'
p29
F0.020348683283530455
sS'validation'
p30
F0.018735524134872134
ssS'working-year'
p31
(dp32
V(5, 10]
p33
F0.0022341764442317161
sV(2, 5]
p34
F0.001450894181236347
ssS'major'
p35
(dp36
S'data mining'
p37
F0.008202537428031613
sS'information'
p38
F0.0034852490727905988
sS'business'
p39
F0.0021843196239271531
sS'mathematics economics'
p40
F0.0078853134316869463
sS'communication'
p41
F0.0028984949838248377
sS'industrial engineering'
p42
F0.016106932066587653
sS'industrial engineering operations research'
p43
F0.011118563446018265
sS'engineering physics'
p44
F0.0096893822263855508
sS'operations research financial engineering'
p45
F0.012114858239808755
sS'design'
p46
F0.0012593690501604522
sS'financial engineering'
p47
F0.020348683283530455
sS'statistic'
p48
F0.0016425433310433342
sVphysic
p49
F0.0042136029519803421
sS'mathematics'
p50
F0.0029960979122397691
sS'law'
p51
F0.0099108591375895363
sS'econometrics'
p52
F0.012481024893427653
sS'operations research'
p53
F0.0097889661884014417
sS'history'
p54
F0.0046050215368608786
ssS'education'
p55
(dp56
VMaster
p57
F0.0017829903491754272
sVDoctor
p58
F0.0023524300506125549
ssS'responsibility'
p59
(dp60
S'development'
p61
F0.00085487572287107805
sS'information'
p62
F0.0034852490727905988
sS'forecasting'
p63
F0.01032531610741556
sS'understand'
p64
F0.0074363220420116801
sS'presentation'
p65
F0.0031280890982349082
sS'communicate'
p66
F0.0022826399502664102
sS'product'
p67
F0.0021166937789492387
sS'analysis'
p68
F0.00092663585956612225
sS'statistical model'
p69
F0.0034386817608592249
sS'design'
p70
F0.0012593690501604522
sS'data mining'
p71
F0.008202537428031613
sS'report'
p72
F0.0023578057980304791
sS'modeling'
p73
F0.0017849633602627459
sS'implement'
p74
F0.0024601871977303169
sS'quantitative analysis'
p75
F0.011987396391423384
sS'model'
p76
F0.013616535529004959
ss.