(dp1
S'skills'
p2
(dp3
S'nlp'
p4
F0.0084153857069723097
sS'r d'
p5
F0.00111884117674299
sS'nosql'
p6
F0.0064078309287433667
sS'intelligence'
p7
F0.0052040710937937221
sS'data science'
p8
F0.0050709199245436119
sS'linux'
p9
F0.0068492534076856643
sS'intelligence analysis'
p10
F0.011915327689106782
sS'hadoop'
p11
F0.0032419651283339406
sS'business intelligence'
p12
F0.0063445337525524651
sS'defense'
p13
F0.0077976826526865248
sS'dod'
p14
F0.020009584344989197
sS'data mining'
p15
F0.012091478878923983
sS'neo4j'
p16
F0.01297652850008439
sS'education'
p17
F0.004052472098431
sS'xml'
p18
F0.010304008033820431
sS'visualization'
p19
F0.0090329938586833636
sS'management'
p20
F0.0023208011147390342
sS'anomaly detection'
p21
F0.010454031348417983
sS'integration'
p22
F0.0052493529468973813
sS'writing'
p23
F0.0057173093024113532
sS'json'
p24
F0.0098563268833673327
sS'computer science'
p25
F0.0045057027109267631
sS'natural language processing'
p26
F0.013893638175044885
sS'information security'
p27
F0.012291754694092143
sS'algorithm development'
p28
F0.010026677644548055
sS'data management'
p29
F0.0063673811084654103
sS'clustering'
p30
F0.0069825284343623837
sS'data analysis'
p31
F0.0075995034802493026
sS'government'
p32
F0.0053304538988708655
sS'python'
p33
F0.0019796067121263844
sS'processing'
p34
F0.0043419495602723124
sS'data scientist'
p35
F0.0005042705574026746
sS'statistical modeling'
p36
F0.0063731230128261868
sS'sql'
p37
F0.0025736536145741563
sS'modeling'
p38
F0.0026312402667633393
sS'data'
p39
F0.0042104266079521224
sS'information technology'
p40
F0.013823143494844821
sS'aerospace'
p41
F0.012394588266488971
sS'pattern recognition'
p42
F0.010454031348417983
sS'risk assessment'
p43
F0.012728651212951381
sS'data visualization'
p44
F0.0046628227375586405
sS'security clearance'
p45
F0.0080944665269018987
sS'machine learning'
p46
F0.0043190097956716279
sS'r'
F0.00217176770519085
sS'elasticsearch'
p47
F0.011120499486982153
sS'security'
p48
F0.01738963586345137
sS'analysis'
p49
F0.0040979019075635323
sS'data analytics'
p50
F0.0083353330495193629
sS'predictive analytics'
p51
F0.013893638175044885
ssS'working-year'
p52
(dp53
V(0, 2]
p54
F0.0050301154876407654
sV(2, 5]
p55
F0.002138784065528239
ssS'major'
p56
(dp57
S'information'
p58
F0.0017125519967118202
sS'management'
p59
F0.0023208011147390342
sS'business'
p60
F0.0021466247348675563
sS'predictive analytics'
p61
F0.013893638175044885
sS'data science'
p62
F0.0050709199245436119
sS'data mining'
p63
F0.012091478878923983
sS'machine learning'
p64
F0.0043190097956716279
sS'design'
p65
F0.001856454103914999
sS'natural language processing'
p66
F0.013893638175044885
sS'statistic'
p67
F0.0024212968449439888
sS'machine learning data mining'
p68
F0.0087105804329828951
sS'data analytics'
p69
F0.0083353330495193629
sS'information technology'
p70
F0.013823143494844821
sS'computer science'
p71
F0.0045057027109267631
ssS'education'
p72
(dp73
VBachelor
p74
F0.00092630835779875941
sVMaster
p75
F0.0026283318226264468
ssS'responsibility'
p76
(dp77
S'development'
p78
F0.0012601846487009624
sS'large data set'
p79
F0.0060432946327500315
sS'processing'
p80
F0.0043419495602723124
sS'information'
p81
F0.0017125519967118202
sS'pattern'
p82
F0.0049471336749533973
sVinsight
p83
F0.0028366792356268335
sS'analysis'
p84
F0.0040979019075635323
sS'statistical model'
p85
F0.0050690104431194566
sS'decision-making'
p86
F0.0080944665269018987
sS'analytic'
p87
F0.0081443182736044891
sS'data analysis'
p88
F0.0075995034802493026
sS'design'
p89
F0.001856454103914999
sS'data mining'
p90
F0.012091478878923983
sS'understand'
p91
F0.0036539965710520607
sS'modeling'
p92
F0.0026312402667633393
sS'extract'
p93
F0.0064370958460015495
sS'model'
p94
F0.002007233166537243
sS'data aggregation'
p95
F0.013109470617946043
ss.