(dp1
S'skills'
p2
(dp3
S'reporting analysis'
p4
I1
sS'regression analysis'
p5
I1
sS'communication'
p6
I1
sS'data science'
p7
I1
sS'integration'
p8
I1
sS'analytics'
p9
I1
sS'data governance'
p10
I1
sS'problem solving'
p11
I1
sS'data mining'
p12
I1
sS'regression'
p13
I1
sS'visualization'
p14
I1
sS'management'
p15
I1
sS'predictive modeling'
p16
I1
sS'excel'
p17
I1
sS'tableau'
p18
I1
sS'governance'
p19
I1
sS'access'
p20
I1
sS'computer science'
p21
I1
sS'advanced analytics'
p22
I1
sS'unstructured data'
p23
I1
sS'data analysis'
p24
I1
sS'python'
p25
I1
sS'data scientist'
p26
I1
sS'data quality'
p27
I1
sS'modeling'
p28
I1
sS'statistical programming'
p29
I1
sS'word'
p30
I1
sS'data visualization'
p31
I1
sS'sql server'
p32
I1
sS'programming'
p33
I1
sS'analysis'
p34
I1
sS'spss'
p35
I1
sS'r'
I1
sS'dashboard'
p36
I1
sS'organization'
p37
I1
sS'microsoft office'
p38
I1
sS'powerpoint'
p39
I1
sS'data analytics'
p40
I1
ssS'working-year'
p41
(dp42
V(0, 2]
p43
I1
ssS'major'
p44
(dp45
S'information'
p46
I1
sS'management'
p47
I1
sS'communication'
p48
I1
sS'data science'
p49
I1
sS'data science analytics'
p50
I1
sS'analytics'
p51
I1
sS'computer science data science'
p52
I1
sS'information system'
p53
I1
sS'design'
p54
I1
sS'computer science'
p55
I1
sS'data mining'
p56
I1
sS'advanced analytics'
p57
I1
sS'ee computer science'
p58
I1
sS'data analytics'
p59
I1
ssS'education'
p60
(dp61
VBachelor
p62
I1
ssS'responsibility'
p63
(dp64
S'information'
p65
I1
sS'product'
p66
I1
sS'data analysis'
p67
I1
sVinsight
p68
I1
sS'communicate'
p69
I1
sS'analysis'
p70
I1
sS'design'
p71
I1
sS'data mining'
p72
I1
sS'report'
p73
I1
sS'understand'
p74
I1
sS'modeling'
p75
I1
sS'presentation'
p76
I1
sS'data gathering'
p77
I1
ss.