(dp1
S'skills'
p2
(dp3
S'soa'
p4
I1
sS'hdfs'
p5
I1
sS'search'
p6
I1
sS'javascript'
p7
I1
sS'java'
p8
I1
sS'data'
p9
I1
sS'.net'
p10
I1
sS'data scientist'
p11
I1
sS'j2ee'
p12
I1
sS'junit'
p13
I1
sS'lucene'
p14
I1
sS'architecture'
p15
I1
sS'apache'
p16
I1
sS'solr'
p17
I1
sS'soap'
p18
I1
ssS'working-year'
p19
(dp20
V(5, 10]
p21
I1
sV(0, 2]
p22
I1
ssS'major'
p23
(dp24
S'design'
p25
I1
sS'business'
p26
I1
ssS'education'
p27
(dp28
S'Bachelor'
p29
I1
ssS'responsibility'
p30
(dp31
S'report'
p32
I1
sS'development'
p33
I1
sS'product'
p34
I1
sS'design'
p35
I1
ss.