(dp1
S'skills'
p2
(dp3
S'apache storm'
p4
I1
sS'consulting'
p5
I1
sS'centos'
p6
I1
sS'testing'
p7
I1
sS'c++'
p8
I1
sS'hadoop'
p9
I1
sS'analytics'
p10
I1
sS'unix'
p11
I1
sS'analysis'
p12
I1
sS'linux'
p13
I1
sS'hbase'
p14
I1
sS'research'
p15
I1
sS'hdfs'
p16
I1
sS'open source'
p17
I1
sS'nosql'
p18
I1
sS'big data'
p19
I1
sS'integration'
p20
I1
sS'strategy'
p21
I1
sS'access'
p22
I1
sS'json'
p23
I1
sS'computer science'
p24
I1
sS'innovation'
p25
I1
sS'mathematics'
p26
I1
sS'government'
p27
I1
sS'data scientist'
p28
I1
sS'apache spark'
p29
I1
sS'mapreduce'
p30
I1
sS'ubuntu'
p31
I1
sS'java'
p32
I1
sS'spark'
p33
I1
sS'data'
p34
I1
sS'apache kafka'
p35
I1
sS'c'
I1
sS'github'
p36
I1
sS'open source software'
p37
I1
sS'programming'
p38
I1
sS'engineering'
p39
I1
sS'security clearance'
p40
I1
sS'security'
p41
I1
ssS'working-year'
p42
(dp43
V(2, 5]
p44
I1
ssS'major'
p45
(dp46
S'design'
p47
I1
sS'big data'
p48
I1
sS'phd'
p49
I1
sS'analytics'
p50
I1
sS'engineering'
p51
I1
sS'management technology'
p52
I1
sS'computer science'
p53
I1
sS'statistic'
p54
I1
sS'mathematics'
p55
I1
sS'ee cs'
p56
I1
sVphysic
p57
I1
ssS'education'
p58
(dp59
VDoctor
p60
I1
ssS'responsibility'
p61
(dp62
S'development'
p63
I1
sS'large data set'
p64
I1
sS'analysis'
p65
I1
sS'analytic'
p66
I1
sS'statistical method'
p67
I1
sS'design'
p68
I1
sS'evaluation'
p69
I1
ss.