(dp1
S'skills'
p2
(dp3
S'jira'
p4
F0.012892802438886632
sS'continuous improvement'
p5
F0.011556115452720868
sS'intelligence'
p6
F0.0045246645818062797
sS'hadoop'
p7
F0.0074052247919283269
sS'hardware'
p8
F0.010701199067880302
sS'analytics'
p9
F0.0025064480172435925
sS'unix'
p10
F0.0074411780656629678
sS'defense'
p11
F0.020355263135033073
sS'virtualization'
p12
F0.014577264375282919
sS'system administration'
p13
F0.013270873932129045
sS'linux'
p14
F0.0053201096190179514
sS'hbase'
p15
F0.0096491587603460254
sS'education'
p16
F0.012095831411027488
sS'research'
p17
F0.0049173506724019492
sS'management'
p18
F0.0026110918363102366
sS'java'
p19
F0.0035713745465944767
sS'agile'
p20
F0.0062930543881830232
sS'devops'
p21
F0.011902978927723464
sS'perl'
p22
F0.0082595122313814644
sS'troubleshooting'
p23
F0.02167367415408758
sS'bash'
p24
F0.010802324366303059
sS'innovation'
p25
F0.0055787454528378197
sS'jenkins'
p26
F0.012869277317374195
sS'government'
p27
F0.015026625450311039
sS'python'
p28
F0.0015021657428048009
sS'scrum'
p29
F0.0097905261219870237
sS'data scientist'
p30
F0.0030529442800111763
sS'cloudera'
p31
F0.013113645046239405
sS'solr'
p32
F0.011953686367114245
sS'information technology'
p33
F0.0089816976131462389
sS'a'
F0.0053891697222306235
sS'github'
p34
F0.010745706124176734
sS'national security'
p35
F0.012111392587354702
sS'analysis'
p36
F0.00098737383790815534
sS'security'
p37
F0.0062978409674921947
sS'scripting'
p38
F0.0070117705401921129
sS'security clearance'
p39
F0.010529741997864177
ssS'working-year'
p40
(dp41
V(2, 5]
p42
F0.0035704450387064423
ssS'major'
p43
(dp44
VData Science
p45
F0.0029604869815707856
sVInformation Science
p46
F0.0072987181226342752
sVManagement Science and Engineering
p47
F0.0037162666814665483
ssS'education'
p48
(dp49
VBachelor
p50
F0.0026264519529392125
ssS'responsibility'
p51
(dp52
S'development'
p53
F0.0069796023193897322
sS'information'
p54
F0.0039974213242922035
sS'communicate'
p55
F0.0057816797760276428
sS'analysis'
p56
F0.00098737383790815534
sS'improvement'
p57
F0.0077412290960781199
sS'transformation'
p58
F0.0090618361248785764
ss.