(dp1
S'skills'
p2
(dp3
S'jira'
p4
F0.014716455415439676
sS'shell scripting'
p5
F0.011084748510801675
sS'communication'
p6
F0.01562338183333082
sS'hardware'
p7
F0.024429711029963583
sS'defense'
p8
F0.023234461539001567
sS'process improvement'
p9
F0.010611061330360085
sS'troubleshooting'
p10
F0.024739358327198653
sS'system administration'
p11
F0.015148004126476246
sS'research'
p12
F0.005612896984616699
sS'devops'
p13
F0.01358662397342119
sS'continuous improvement'
p14
F0.013190697572678097
sS'innovation'
p15
F0.0063678443162326435
sS'computer hardware'
p16
F0.020664742378433472
sS'linux system administration'
p17
F0.018919259015243835
sS'government'
p18
F0.017152102076506349
sS'automation'
p19
F0.010970553702183583
sS'data'
p20
F0.00039013647327129246
sS'a'
F0.0061514535974145608
sS'national security'
p21
F0.013824517196750269
sS'intelligence'
p22
F0.0051646664798907201
sS'documentation'
p23
F0.0095376347333685219
sS'security clearance'
p24
F0.012019146293614702
sS'operational excellence'
p25
F0.019017459244436461
sS'security'
p26
F0.0071886539990782625
sS'scripting'
p27
F0.0080035670310745505
ssS'working-year'
p28
(dp29
V(5, 10]
p30
F0.0039659350709765088
sV(2, 5]
p31
F0.0040754750935234722
ssS'major'
p32
(dp33
VInformation Science
p34
F0.0083311025939279398
sVBusiness
p35
F0.0035582708788622175
ssS'education'
p36
(dp37
VBachelor
p38
F0.0029979566699667982
ssS'responsibility'
p39
(dp40
S'development'
p41
F0.0039834243500464425
sS'information'
p42
F0.0091256921021670694
sS'product'
p43
F0.0044243187194662713
sS'documentation'
p44
F0.0095376347333685219
sS'improvement'
p45
F0.0088362055800628551
sS'solve problem'
p46
F0.013529744971156846
sS'report'
p47
F0.0068265671716198316
sS'model'
p48
F0.0050901672430975027
sS'implement'
p49
F0.0069666551813144977
sS'transformation'
p50
F0.010343608997805481
ss.