(dp1
S'skills'
p2
(dp3
S'r d'
p4
F0.00087364832311633478
sS'communication'
p5
F0.0033363527367005047
sS'testing'
p6
F0.003551832304336006
sS'hardware'
p7
F0.0068444327328160874
sS'engineering'
p8
F0.0022174757671932954
sS'troubleshooting'
p9
F0.013540291674343974
sS'problem solving'
p10
F0.0040144986798314915
sS'it management'
p11
F0.010460713656627912
sS'education'
p12
F0.0063287542984007536
sS'management'
p13
F0.0018122000193813311
sS'saas'
p14
F0.0055558351493145124
sS'governance'
p15
F0.0064782415435093218
sS'research'
p16
F0.0020286348833680012
sS'access'
p17
F0.0038789895841995999
sS'innovation'
p18
F0.0053118302974255122
sS'policy'
p19
F0.0050081123099108846
sS'operating systems'
p20
F0.009804758944472608
sS'product development'
p21
F0.0044017921076193829
sS'customer service'
p22
F0.0074673284123379195
sS'mac os'
p23
F0.011413952119560764
sS'data scientist'
p24
F0.0003937602012059183
sS'data'
p25
F0.00054795268266610961
sS'b2b'
p26
F0.0059425489511827851
sS'project management'
p27
F0.0098728878497900373
sS'itil'
p28
F0.0098934233901895076
sS'documentation'
p29
F0.0047794127957134207
sS'analysis'
p30
F0.0021332340426607325
sS'command'
p31
F0.0073683526858125915
sS'architecture'
p32
F0.0038182428718011655
sS'organization'
p33
F0.0045594144838940363
sS'security'
p34
F0.0033946789158971558
sS'root'
p35
F0.0073545818112312859
sS'crm'
p36
F0.0080649774785971802
ssS'working-year'
p37
(dp38
V(2, 5]
p39
F0.0016700718128699228
ssS'major'
p40
(dp41
S'management'
p42
F0.0018122000193813311
sS'business'
p43
F0.0058666797275263331
sS'communication'
p44
F0.0033363527367005047
sS'business leadership'
p45
F0.010402418399753813
sS'engineering'
p46
F0.0022174757671932954
sS'design'
p47
F0.0028992283239864026
sS'project management'
p48
F0.0098728878497900373
ssS'education'
p49
(dp50
VBachelor
p51
F0.00072330886662158448
ssS'responsibility'
p52
(dp53
S'development'
p54
F0.00098401652356011312
sS'product'
p55
F0.0012182248238420618
sS'documentation'
p56
F0.0047794127957134207
sS'analysis'
p57
F0.0021332340426607325
sS'design'
p58
F0.0028992283239864026
sS'ownership'
p59
F0.0067597420460148447
sS'implement'
p60
F0.0028318324978129821
sS'model'
p61
F0.0031347003068900774
ss.