(dp1
S'skills'
p2
(dp3
S'intelligence'
p4
F0.011322538052068119
sS'data science'
p5
F0.002891444532837979
sS'operational planning'
p6
F0.014207978288192572
sS'intelligence analysis'
p7
F0.011680238552221217
sS'analytics'
p8
F0.0020907150528450161
sS'business intelligence'
p9
F0.0049111617999385128
sS'troubleshooting'
p10
F0.0090393809272456636
sS'data mining'
p11
F0.0051009118477936006
sS'analysis'
p12
F0.00082360269652435088
sS'writing'
p13
F0.010803174644627369
sS'management'
p14
F0.0065340062538436459
sS'open source'
p15
F0.0076873070671108048
sS'big data'
p16
F0.0030594353999102587
sS'program management'
p17
F0.0080295944917401271
sS'user experience'
p18
F0.0081134927045837888
sS'agile'
p19
F0.0052492545016815132
sS'integration'
p20
F0.01108770731824333
sS'governance'
p21
F0.0086647019733072095
sS'research'
p22
F0.0020508662059176403
sS'computer science'
p23
F0.0033797674595846651
sS'project planning'
p24
F0.010014038018108934
sS'data analysis'
p25
F0.0035667356128982336
sS'business analysis'
p26
F0.0064147408660510915
sS'collaboration'
p27
F0.0061482437982534957
sS'data scientist'
p28
F0.0025465665027977844
sS'technical documentation'
p29
F0.012583572469570099
sS'data'
p30
F0.0011403989218699319
sS'project management'
p31
F0.0045708012579916977
sS'data visualization'
p32
F0.004727725061489425
sS'science'
p33
F0.006759941232635504
sS'documentation'
p34
F0.020909429992384838
sS'budgeting'
p35
F0.01250067345725916
sS'engineering'
p36
F0.014721812224442965
sS'presentations'
p37
F0.010194408364875035
sS'data engineering'
p38
F0.0096269970097774982
sS'interaction design'
p39
F0.012804262570239389
sS'security'
p40
F0.005253247153172577
sS'data analytics'
p41
F0.0049094295228023967
ssS'working-year'
p42
(dp43
S'[0]'
p44
F0.0052793623330393818
ssS'major'
p45
(dp46
VData Science
p47
F0.0024694446697237082
sVManagement Science and Engineering
p48
F0.0030998666790117606
sVEngineering
p49
F0.014721812224442965
sVBusiness
p50
F0.0026002748730146975
sVComputer Science
p51
F0.0021763359287312448
ssS'education'
p52
(dp53
VBachelor
p54
F0.0021908144895911221
sVMaster
p55
F0.001748270877942733
ssS'responsibility'
p56
(dp57
S'development'
p58
F0.0029109639481108623
sS'information'
p59
F0.0033343874988687374
sS'product'
p60
F0.0032331559873022757
sS'data analysis'
p61
F0.0035667356128982336
sS'documentation'
p62
F0.020909429992384838
sS'communicate'
p63
F0.004822699236253827
sS'analysis'
p64
F0.00082360269652435088
sS'design'
p65
F0.0035106221394674945
sS'data mining'
p66
F0.0051009118477936006
ss.