(dp1
S'skills'
p2
(dp3
S'r d'
p4
F0.001013863486085623
sS'communication'
p5
F0.0019359083780854779
sS'testing'
p6
F0.0041218794642911673
sS'hardware'
p7
F0.0079429219368482989
sS'engineering'
p8
F0.0051467338794115988
sS'troubleshooting'
p9
F0.015713424906028811
sS'it management'
p10
F0.012139593626210168
sS'distributed systems'
p11
F0.027702118207095252
sS'management'
p12
F0.002103046936072162
sS'saas'
p13
F0.0064475123955007917
sS'governance'
p14
F0.0075179593220972372
sS'research'
p15
F0.0023542182597110139
sS'access'
p16
F0.0045015434680834862
sS'innovation'
p17
F0.0061643462710863966
sS'policy'
p18
F0.0058118834213780638
sS'operating systems'
p19
F0.011378362231857101
sS'product development'
p20
F0.0051082525693360737
sS'mac os'
p21
F0.013245820978255701
sS'data scientist'
p22
F0.0004569562828809422
sS'data'
p23
F0.00063589570581005313
sS'b2b'
p24
F0.0068962913754466891
sS'project management'
p25
F0.011457425405929178
sS'disaster recovery'
p26
F0.010428137191337002
sS'itil'
p27
F0.01148125677380017
sS'documentation'
p28
F0.0055464790468773024
sS'analysis'
p29
F0.0024756049383964055
sS'data center'
p30
F0.0090660709316185625
sS'command'
p31
F0.0085509278082269574
sS'architecture'
p32
F0.0044310472833248094
sS'organization'
p33
F0.0052911723640251783
sS'security'
p34
F0.0039395039270905263
sS'root'
p35
F0.0085349467932807517
ssS'working-year'
p36
(dp37
V[0]
p38
F0.0035214085737344321
ssS'major'
p39
(dp40
S'management'
p41
F0.002103046936072162
sS'business'
p42
F0.0068082456097219163
sS'computing'
p43
F0.0052599132410703024
sS'communication'
p44
F0.0019359083780854779
sS'business leadership'
p45
F0.012071942340455043
sS'engineering'
p46
F0.0051467338794115988
sS'design'
p47
F0.0033645365735150848
sS'distributed systems'
p48
F0.027702118207095252
sS'project management'
p49
F0.011457425405929178
ssS'education'
p50
(dp51
S'Bachelor'
p52
F0.00083939547484480177
ssS'responsibility'
p53
(dp54
S'development'
p55
F0.00114194510141544
sS'product'
p56
F0.0014137423881623928
sS'documentation'
p57
F0.0055464790468773024
sS'analysis'
p58
F0.0024756049383964055
sS'design'
p59
F0.0033645365735150848
sS'ownership'
p60
F0.007844638917597473
sS'implement'
p61
F0.0032863241332644483
sS'model'
p62
F0.0036378003561440405
ss.