(dp1
S'skills'
p2
(dp3
S'r d'
p4
F0.0013732933507179844
sS'intelligence'
p5
F0.019162816970792269
sS'data science'
p6
F0.0062241726164130621
sS'operational planning'
p7
F0.018580641869981762
sS'intelligence analysis'
p8
F0.014625168100007321
sS'business intelligence'
p9
F0.0077874377497884773
sS'data mining'
p10
F0.014841380429983619
sS'writing'
p11
F0.014035133872809141
sS'education'
p12
F0.0049741045489102914
sS'management'
p13
F0.0028486087261178111
sS'open source'
p14
F0.0084407233539716044
sS'big data'
p15
F0.0073685160775253467
sS'program management'
p16
F0.014316231312735208
sS'user experience'
p17
F0.0094084672066427361
sS'agile'
p18
F0.006383015421535021
sS'integration'
p19
F0.012886371448236381
sS'governance'
p20
F0.010183189048325689
sS'research'
p21
F0.0031888240641570588
sS'computer science'
p22
F0.0055304110197662952
sS'project planning'
p23
F0.016537478568978206
sS'data analysis'
p24
F0.0093278186530150308
sS'business analysis'
p25
F0.025726475219862953
sS'collaboration'
p26
F0.0060597180023610102
sS'data scientist'
p27
F0.00061895416243070767
sS'technical documentation'
p28
F0.015412162889304769
sS'project management'
p29
F0.015519255148499389
sS'data visualization'
p30
F0.0057232640290435493
sS'documentation'
p31
F0.022538368033297403
sS'budgeting'
p32
F0.015849015603939188
sS'engineering'
p33
F0.010456992748302831
sS'analysis'
p34
F0.0016766220736631175
sS'data engineering'
p35
F0.011232168116816484
sS'user experience design'
p36
F0.015772128263578985
sS'interaction design'
p37
F0.015551535094946717
sS'data analytics'
p38
F0.0102309940775037
ssS'working-year'
p39
(dp40
V[0]
p41
F0.0047698009109111879
ssS'major'
p42
(dp43
S'information'
p44
F0.0021020287049941071
sS'management'
p45
F0.0028486087261178111
sS'business analysis'
p46
F0.025726475219862953
sS'big data'
p47
F0.0073685160775253467
sS'data science'
p48
F0.0062241726164130621
sS'data mining'
p49
F0.014841380429983619
sS'data science analytics'
p50
F0.012306992292806476
sS'engineering'
p51
F0.010456992748302831
sS'business management'
p52
F0.015149718736747102
sS'data analytics'
p53
F0.0102309940775037
sS'statistic'
p54
F0.0029719596725566685
sS'computer science engineering'
p55
F0.010126504284052609
sS'project management'
p56
F0.015519255148499389
sS'computer science'
p57
F0.0055304110197662952
ssS'education'
p58
(dp59
VBachelor
p60
F0.0011369738037195474
sVMaster
p61
F0.0032260795281067092
ssS'responsibility'
p62
(dp63
S'development'
p64
F0.0015467818263319505
sS'information'
p65
F0.0021020287049941071
sS'product'
p66
F0.0019149353418253146
sS'data analysis'
p67
F0.0093278186530150308
sS'documentation'
p68
F0.022538368033297403
sS'communicate'
p69
F0.0041301278029903946
sS'analysis'
p70
F0.0016766220736631175
sS'data mining'
p71
F0.014841380429983619
ss.