(dp1
S'skills'
p2
(dp3
S'nlp'
p4
F0.065540074781648
sS'data science'
p5
F0.0045909958994679355
sS'testing'
p6
F0.0078144199041985229
sS'defense'
p7
F0.013479534938657398
sS'django'
p8
F0.016689121861657635
sS'writing'
p9
F0.0085765661300858508
sS'management'
p10
F0.003458201783204779
sS'java'
p11
F0.018920106376615013
sS'flask'
p12
F0.02040454664733481
sS'education'
p13
F0.0080100257626460648
sS'integration'
p14
F0.0088024546648649334
sS'research'
p15
F0.0032563371819150314
sS'natural language processing'
p16
F0.0095647256945049722
sS'python'
p17
F0.0079580383626452825
sS'processing'
p18
F0.0062331606361477861
sS'data scientist'
p19
F0.004043403302152207
sS'apache'
p20
F0.0086377930097023981
sS'data'
p21
F0.0004526774346353928
sS'regular expressions'
p22
F0.022183508303436281
sS'tomcat'
p23
F0.018983793553602607
sS'science'
p24
F0.0026833354511224899
sS'documentation'
p25
F0.011066568545587904
sS'machine learning'
p26
F0.0025019760375345011
sS'security'
p27
F0.0083410336477854653
sS'nltk'
p28
F0.019088369077413899
sS'application development'
p29
F0.014622505349184141
ssS'working-year'
p30
(dp31
V(2, 5]
p32
F0.004728795528363112
ssS'major'
p33
(dp34
VData Science
p35
F0.0039209503152864986
sVComputer Science
p36
F0.0034555562837870141
sVManagement Science and Engineering
p37
F0.0049219257193469177
ssS'education'
p38
(dp39
VBachelor
p40
F0.0034785451437782701
ssS'responsibility'
p41
(dp42
S'development'
p43
F0.0046219885588325137
sS'product'
p44
F0.0051335606515944526
sS'processing'
p45
F0.0062331606361477861
sS'documentation'
p46
F0.011066568545587904
sS'communicate'
p47
F0.0076574155812274506
sS'understand'
p48
F0.016043357354536453
sS'report'
p49
F0.0079209023670703399
ss.