(dp1
S'skills'
p2
(dp3
S'consulting'
p4
I1
sS'communication'
p5
I1
sS'analytics'
p6
I1
sS'engineering'
p7
I1
sS'd3'
p8
I1
sS'qlikview'
p9
I1
sS'visualization'
p10
I1
sS'management'
p11
I1
sS'tableau'
p12
I1
sS'strategy'
p13
I1
sS'html'
p14
I1
sS'teamwork'
p15
I1
sS'computer science'
p16
I1
sS'marketing'
p17
I1
sS'mathematics'
p18
I1
sS'aws'
p19
I1
sS'javascript'
p20
I1
sS'data scientist'
p21
I1
sS'sql'
p22
I1
sS'data'
p23
I1
sS'marketing analytics'
p24
I1
sS'dashboard'
p25
I1
sS'organization'
p26
I1
sS'security'
p27
I1
ssS'working-year'
p28
(dp29
V(0, 2]
p30
I1
ssS'major'
p31
(dp32
S'information'
p33
I1
sS'management'
p34
I1
sS'business'
p35
I1
sS'marketing'
p36
I1
sS'marketing analytics'
p37
I1
sS'analytics'
p38
I1
sS'engineering'
p39
I1
sS'design'
p40
I1
sS'computer science'
p41
I1
sS'communication'
p42
I1
sS'mathematics'
p43
I1
sS'mathematics computer science'
p44
I1
sS'computer science economics'
p45
I1
sS'law'
p46
I1
ssS'education'
p47
(dp48
VMaster
p49
I1
ssS'responsibility'
p50
(dp51
S'information'
p52
I1
sVinsight
p53
I1
sS'design'
p54
I1
sS'interface'
p55
I1
sS'understand'
p56
I1
sS'extract'
p57
I1
ss.