(dp1
S'skills'
p2
(dp3
S'negotiation'
p4
F0.010941617457700939
sS'consulting'
p5
F0.005537874693279478
sS'ip'
p6
F0.012354521994375672
sS'management consulting'
p7
F0.012523900791295327
sS'thought leadership'
p8
F0.0090995579861102831
sS'statistical analysis'
p9
F0.0049114715641312926
sS'problem solving'
p10
F0.005058483591208582
sS'data mining'
p11
F0.011896977878190622
sS'research'
p12
F0.0025561887270320661
sS'market research'
p13
F0.01066562244924023
sS'investment banking'
p14
F0.01264307332656868
sS'big data'
p15
F0.0059066657028956533
sS'education'
p16
F0.0039872848796894834
sS'strategy'
p17
F0.026356020087785714
sS'big data analytics'
p18
F0.017673337127723447
sS'risk management'
p19
F0.0084150085862121898
sS'coaching'
p20
F0.0089418141107609345
sS'business planning'
p21
F0.014382191678803107
sS'computer science'
p22
F0.0044332249193300864
sS'communication'
p23
F0.0042039833411507705
sS'advanced analytics'
p24
F0.011695398563504905
sS'marketing'
p25
F0.0045727670882289816
sS'data scientist'
p26
F0.00049615896666697478
sS'experimental design'
p27
F0.0090353423635501084
sS'management'
p28
F0.0022834691933223206
sS'statistical modeling'
p29
F0.0062706062887592784
sS'modeling'
p30
F0.0025889146860647336
sS'business transformation'
p31
F0.015355124840957054
sS'project management'
p32
F0.012440368068100047
sS'science'
p33
F0.0039347272488145279
sS'business strategy'
p34
F0.0091322519973429817
sS'analysis'
p35
F0.0040319839144123768
sS'banking'
p36
F0.007964260631026801
sS'leadership'
p37
F0.0081711358861671444
sS'organization'
p38
F0.0028725533611664842
sS'data analytics'
p39
F0.0082012526251303113
ssS'working-year'
p40
(dp41
V(5, 10]
p42
F0.0032404543065130253
sV(10, 15]
p43
F0.0075877348818016565
ssS'major'
p44
(dp45
S'information'
p46
F0.0016850042434135067
sS'management'
p47
F0.0022834691933223206
sS'business'
p48
F0.0095044256022353071
sS'big data'
p49
F0.0059066657028956533
sS'communication'
p50
F0.0042039833411507705
sS'data mining'
p51
F0.011896977878190622
sS'mba'
p52
F0.0099757312353184798
sS'phd'
p53
F0.0045163339938849101
sS'big data analytics'
p54
F0.017673337127723447
sS'design'
p55
F0.001826591571412345
sS'computer science'
p56
F0.0044332249193300864
sS'marketing'
p57
F0.0045727670882289816
sS'advanced analytics'
p58
F0.011695398563504905
sS'data analytics'
p59
F0.0082012526251303113
sS'project management'
p60
F0.012440368068100047
sS'science'
p61
F0.0039347272488145279
ssS'education'
p62
(dp63
VDoctor
p64
F0.003411969590834832
ssS'responsibility'
p65
(dp66
S'recommendation'
p67
F0.014734414692393878
sS'financial model'
p68
F0.012247270177484948
sS'mine data'
p69
F0.011285797436501203
sS'business problem'
p70
F0.0049561196345957277
sVinsight
p71
F0.0027910490066355175
sS'communicate'
p72
F0.0033107458796089225
sS'product'
p73
F0.0015350285984068875
sS'analysis'
p74
F0.0040319839144123768
sS'improvement'
p75
F0.0052140299251439174
sS'information'
p76
F0.0016850042434135067
sS'design'
p77
F0.001826591571412345
sS'data mining'
p78
F0.011896977878190622
sS'modeling'
p79
F0.0025889146860647336
sS'development'
p80
F0.0024798271639316525
sS'statistical model'
p81
F0.0049874714011389834
sS'presentation'
p82
F0.0045369871371181911
sS'transformation'
p83
F0.0065007761451852733
ss.