(dp1
S'skills'
p2
(dp3
S'communication'
p4
F0.0029927587128749651
sS'data science'
p5
F0.0022738013717591666
sS'sales'
p6
F0.012569394102801527
sS'quality control'
p7
F0.009096242156455072
sS'problem solving'
p8
F0.0046400980433898885
sS'sas'
p9
F0.0078557855766205106
sS'statistics'
p10
F0.0017627842245795929
sS'critical thinking'
p11
F0.0074125626257297121
sS'excel'
p12
F0.0061132484945408908
sS'research'
p13
F0.0016127794738407151
sS'intelligence'
p14
F0.0029679746878767091
sS'mathematics'
p15
F0.0034553748243398978
sS'data analysis'
p16
F0.0028048431284795183
sS'innovation'
p17
F0.0036594039170788728
sS'data scientist'
p18
F0.0020025929398182953
sS'management'
p19
F0.0034255155659722201
sS'sql'
p20
F0.002578237651542711
sS'modeling'
p21
F0.0015352470491900804
sS'data'
p22
F0.004708187609383613
sS'software engineering'
p23
F0.004918833627058623
sS'science'
p24
F0.0066449327806624991
sS'documentation'
p25
F0.0054809847995161264
sS'programming'
p26
F0.0020837717104629037
sS'analysis'
p27
F0.00064767244187926263
sS'advertising'
p28
F0.0062219230327604713
sS'product management'
p29
F0.0059035879376683198
ssS'working-year'
p30
(dp31
V(2, 5]
p32
F0.0023420499592270994
ssS'major'
p33
(dp34
VStatistics
p35
F0.0034054910583895658
sVBusiness
p36
F0.0020448286335994596
sVData Science
p37
F0.0019419451467014416
sVComputer Science
p38
F0.0017114475356374249
sVMathematics
p39
F0.0032405907931615349
sVManagement Science and Engineering
p40
F0.0024377023411510253
ssS'education'
p41
(dp42
VBachelor
p43
F0.001722833322627423
sVMaster
p44
F0.0013748217111988221
sVDoctor
p45
F0.0020589447481596749
ssS'responsibility'
p46
(dp47
S'information'
p48
F0.0026221270312464925
sS'product'
p49
F0.007627558926565671
sS'data analysis'
p50
F0.0028048431284795183
sS'large data set'
p51
F0.0059441533749203523
sS'documentation'
p52
F0.0054809847995161264
sS'communicate'
p53
F0.00758503925248239
sS'analysis'
p54
F0.00064767244187926263
sS'improvement'
p55
F0.0050778950781457614
sS'design'
p56
F0.0027607160869914512
sS'ownership'
p57
F0.0074485698489364614
sS'manipulate ... data set'
p58
F0.010928747845574073
sS'modeling'
p59
F0.0015352470491900804
sS'model'
p60
F0.0029251622720257863
sS'extract'
p61
F0.0058482202848824756
sS'decision making'
p62
F0.0061750152172580603
ss.