(dp1
S'skills'
p2
(dp3
S'forecasting'
p4
I1
sS'economics'
p5
I1
sS'model validation'
p6
I1
sS'communication'
p7
I1
sS'testing'
p8
I1
sS'actuarial science'
p9
I1
sS'analytics'
p10
I1
sS'quality control'
p11
I1
sS'statistical analysis'
p12
I1
sS'mathematical modeling'
p13
I1
sS'machine learning'
p14
I1
sS'quantitative finance'
p15
I1
sS'credit'
p16
I1
sS'governance'
p17
I1
sS'risk management'
p18
I1
sS'fraud detection'
p19
I1
sS'matlab'
p20
I1
sS'basel ii'
p21
I1
sS'policy'
p22
I1
sS'mathematics'
p23
I1
sS'theory'
p24
I1
sS'processing'
p25
I1
sS'data scientist'
p26
I1
sS'data quality'
p27
I1
sS'financial risk'
p28
I1
sS'management'
p29
I1
sS'statistical modeling'
p30
I1
sS'sql'
p31
I1
sS'modeling'
p32
I1
sS'credit risk'
p33
I1
sS'data'
p34
I1
sS'fraud'
p35
I1
sS'documentation'
p36
I1
sS'excel vba'
p37
I1
sS'analysis'
p38
I1
sS'spss'
p39
I1
sS'banking'
p40
I1
sS'r'
I1
sS'financial engineering'
p41
I1
sS'validation'
p42
I1
ssS'working-year'
p43
(dp44
V(2, 5]
p45
I1
ssS'major'
p46
(dp47
S'management'
p48
I1
sS'business'
p49
I1
sS'economics math'
p50
I1
sS'mathematics statistics'
p51
I1
sS'communication'
p52
I1
sS'economics'
p53
I1
sS'statistic'
p54
I1
sS'actuarial science'
p55
I1
sS'machine learning'
p56
I1
sS'analytics'
p57
I1
sS'quantitative finance'
p58
I1
sS'design'
p59
I1
sS'financial engineering'
p60
I1
sS'economics mathematics'
p61
I1
sS'mathematics'
p62
I1
ssS'education'
p63
(dp64
VMaster
p65
I1
sVDoctor
p66
I1
ssS'responsibility'
p67
(dp68
S'development'
p69
I1
sS'financial model'
p70
I1
sS'forecasting'
p71
I1
sS'processing'
p72
I1
sS'documentation'
p73
I1
sS'communicate'
p74
I1
sS'analysis'
p75
I1
sS'statistical model'
p76
I1
sS'design'
p77
I1
sS'recommendation'
p78
I1
sS'report'
p79
I1
sS'understand'
p80
I1
sS'modeling'
p81
I1
sS'presentation'
p82
I1
sS'model'
p83
I1
ss.