(dp1
S'skills'
p2
(dp3
S'spring'
p4
F0.013883283471332665
sS'energy'
p5
F0.010116378052623227
sS'servers'
p6
F0.01816441440907407
sS'engineering'
p7
F0.0040159173018808345
sS'virtualization'
p8
F0.016584625371223519
sS'linux'
p9
F0.012105429756060521
sS'networking'
p10
F0.023818961591087127
sS'team building'
p11
F0.013130592642844063
sS'agile'
p12
F0.007159638926883637
sS'devops'
p13
F0.027084155330623225
sS'computer science'
p14
F0.0046097811907777723
sS'arena'
p15
F0.016351998261065211
sS'iis'
p16
F0.018762187859790128
sS'automotive'
p17
F0.013925863827328308
sS'data scientist'
p18
F0.003473349721848781
sS'automation'
p19
F0.010934584673651833
sS'organization'
p20
F0.0057809306205956765
sS'apache'
p21
F0.0074200057984984543
sS'java'
p22
F0.0081263407715953008
sS'data'
p23
F0.00038885733729335383
sS'a'
F0.018393854691285509
sS'windows'
p24
F0.022096810146122685
sS'science'
p25
F0.002305029141619975
sS'electrical engineering'
p26
F0.012998770765176446
ssS'working-year'
p27
(dp28
S'[0]'
p29
F0.0072007040345717461
ssS'major'
p30
(dp31
VEngineering
p32
F0.0040159173018808345
sVElectrical and Electronics Engineering
p33
F0.010316815066803217
sVComputer Science
p34
F0.0029683794962367138
sVBusiness
p35
F0.0035466044169643086
ssS'education'
p36
(dp37
VBachelor
p38
F0.0029881273038357596
sVMaster
p39
F0.0023845268368005799
ssS'responsibility'
p40
(dp41
S'interface'
p42
F0.010352646552623209
sS'product'
p43
F0.017639251025806515
ss.