(dp1
S'skills'
p2
(dp3
S'higher education'
p4
F0.012166249711369505
sS'healthcare industry'
p5
F0.013678908974506403
sS'data science'
p6
F0.0033693023127747876
sS'analytics'
p7
F0.0048724787786191973
sS'statistical analysis'
p8
F0.0072120452476543643
sS'sas'
p9
F0.0038802152848106909
sS'education'
p10
F0.005878506301997953
sS'big data'
p11
F0.0035650563763660157
sS'programming languages'
p12
F0.013352832175913222
sS'predictive modeling'
p13
F0.0058235459627142012
sS'hadoop'
p14
F0.0071977955260479828
sS'advanced analytics'
p15
F0.0082431668188741834
sS'unstructured data'
p16
F0.0089322365082721566
sS'python'
p17
F0.0014600882710175517
sS'processing'
p18
F0.0045744764332513168
sS'data scientist'
p19
F0.0029674276335122643
sS'mathematical analysis'
p20
F0.013543890128794598
sS'sql'
p21
F0.0019102068874875268
sS'modeling'
p22
F0.0045498357928378287
sS'data'
p23
F0.0029899534758270484
sS'performance metrics'
p24
F0.01532536079469397
sS'science'
p25
F0.001969282599983452
sS'programming'
p26
F0.0030877177446355067
sS'analysis'
p27
F0.00095971630743453768
sS'machine learning'
p28
F0.0018361840947732195
sS'r'
F0.0015546002986384906
sS'healthcare'
p29
F0.0075552950793001802
sS'organization'
p30
F0.0098777806122223033
sS'validation'
p31
F0.0088570372691179171
sS'data analytics'
p32
F0.0057207918248901877
ssS'working-year'
p33
(dp34
V(2, 5]
p35
F0.0034704325726362339
ssS'major'
p36
(dp37
VData Science
p38
F0.0028775601753643211
sVComputer Science
p39
F0.0025360104939837471
sVBusiness
p40
F0.0030300121769583029
ssS'education'
p41
(dp42
VMaster
p43
F0.0020372007989472741
ssS'responsibility'
p44
(dp45
S'development'
p46
F0.0033920476258098562
sS'information'
p47
F0.0077708974763551521
sS'product'
p48
F0.0037674870888452288
sS'large data set'
p49
F0.0088080031802041069
sS'business problem'
p50
F0.0079780127790774358
sS'presentation'
p51
F0.0069001522193546409
sS'pattern'
p52
F0.0073349890072104927
sS'processing'
p53
F0.0045744764332513168
sS'communicate'
p54
F0.0056197279615730874
sS'analysis'
p55
F0.00095971630743453768
sS'develop ... model'
p56
F0.0086832297680003862
sS'understand'
p57
F0.011774116601928713
sS'report'
p58
F0.0058130992161692686
sS'modeling'
p59
F0.0045498357928378287
sS'model'
p60
F0.004334484150984988
sS'statistical model'
p61
F0.01005844343310615
sS'insight'
p62
F0.0051397572997464568
ss.