(dp1
S'skills'
p2
(dp3
S'healthcare industry'
p4
I1
sS'communication'
p5
I1
sS'data science'
p6
I1
sS'analytics'
p7
I1
sS'thought leadership'
p8
I1
sS'statistical analysis'
p9
I1
sS'education'
p10
I1
sS'quantitative analysis'
p11
I1
sS'research'
p12
I1
sS'java'
p13
I1
sS'big data'
p14
I1
sS'hadoop'
p15
I1
sS'strategy'
p16
I1
sS'big data analytics'
p17
I1
sS'computer vision'
p18
I1
sS'natural language processing'
p19
I1
sS'advanced analytics'
p20
I1
sS'mathematics'
p21
I1
sS'unstructured data'
p22
I1
sS'data analysis'
p23
I1
sS'signal processing'
p24
I1
sS'python'
p25
I1
sS'data scientist'
p26
I1
sS'team leadership'
p27
I1
sS'processing'
p28
I1
sS'leadership'
p29
I1
sS'sql'
p30
I1
sS'modeling'
p31
I1
sS'spark'
p32
I1
sS'c'
I1
sS'science'
p33
I1
sS'hive'
p34
I1
sS'machine learning'
p35
I1
sS'customer analytics'
p36
I1
sS'r'
I1
sS'healthcare'
p37
I1
sS'data analytics'
p38
I1
ssS'working-year'
p39
(dp40
V(5, 10]
p41
I1
ssS'major'
p42
(dp43
S'business'
p44
I1
sS'big data'
p45
I1
sS'science'
p46
I1
sS'data science'
p47
I1
sS'statistic'
p48
I1
sS'machine learning'
p49
I1
sS'big data analytics'
p50
I1
sS'analytics'
p51
I1
sS'natural language processing'
p52
I1
sS'machine learning big data'
p53
I1
sS'communication'
p54
I1
sS'advanced analytics'
p55
I1
sS'mathematics'
p56
I1
sS'data analytics'
p57
I1
ssS'education'
p58
(dp59
VMaster
p60
I1
ssS'responsibility'
p61
(dp62
S'processing'
p63
I1
sS'business problem'
p64
I1
sS'presentation'
p65
I1
sVinsight
p66
I1
sS'communicate'
p67
I1
sS'analytic'
p68
I1
sS'data analysis'
p69
I1
sS'modeling'
p70
I1
sS'prototype'
p71
I1
sS'quantitative analysis'
p72
I1
ss.