(dp1
S'skills'
p2
(dp3
S'data'
p4
F0.0034882790551315564
sS'credit risk'
p5
F0.13182449564575949
sS'management'
p6
F0.026648496094107417
sS'credit analysis'
p7
F0.1913301429546162
sS'analysis'
p8
F0.010077021228062645
ssS'working-year'
p9
(dp10
S'[0]'
p11
F0.064594550898364189
ssS'major'
p12
(dp13
VData Science
p14
F0.030214381841325372
sVManagement Science and Engineering
p15
F0.03792778054320272
ssS'education'
p16
(dp17
S'Bachelor'
p18
F0.026805259637350198
ssS'responsibility'
p19
(dp20
S'analysis'
p21
F0.010077021228062645
ss.