(dp1
S'skills'
p2
(dp3
S'management'
p4
F0.016716768767521258
sS'gis'
p5
F0.01446954106646132
sS'science'
p6
F0.010376883958584389
sS'data science'
p7
F0.0044385274009616201
sS'research'
p8
F0.040926510854622136
sS'access'
p9
F0.017117800923221068
sS'online research'
p10
F0.024770715663503057
sS'leadership'
p11
F0.0060974487867299703
sS'teaching'
p12
F0.010618490451658909
sS'network science'
p13
F0.023780813033637591
sS'organization'
p14
F0.0065062134290836942
sS'education'
p15
F0.0077440101469124318
sS'data'
p16
F0.0056893702670411366
sS'data management'
p17
F0.010147299279000998
ssS'working-year'
p18
(dp19
S'[0]'
p20
F0.0081041133968427406
ssS'major'
p21
(dp22
VData Science
p23
F0.0037907342531552125
sVComputer Science
p24
F0.0033407961120007295
sVManagement Science and Engineering
p25
F0.0047584669316195292
ssS'education'
p26
(dp27
S'Bachelor'
p28
F0.0033630215043169991
ssS'responsibility'
p29
(dp30
S'development'
p31
F0.0089369815676318722
sS'information'
p32
F0.0051184693709571752
sS'implement'
p33
F0.0078149932661240127
ss.