(dp1
S'skills'
p2
(dp3
S'market research'
p4
F0.0095098163813010297
sS'qualtrics'
p5
F0.017862664627381529
sS'qualitative research'
p6
F0.011243017749938638
sS'psychology'
p7
F0.013227127929882978
sS'marketing'
p8
F0.011306911112626402
sS'questionnaire design'
p9
F0.017340735253233666
sS'excel'
p10
F0.014394251277205332
sS'analysis'
p11
F0.0010166727648490503
sS'research'
p12
F0.012658165306553981
sS'access'
p13
F0.006882676632333694
sS'sociology'
p14
F0.017066631277846071
sS'product innovation'
p15
F0.016736585992356997
sS'data'
p16
F0.00070386639688114496
sS'economics'
p17
F0.0071112517043307455
sS'word'
p18
F0.0082749811890151827
sS'survey research'
p19
F0.014564900947046796
sS'writing'
p20
F0.0066678347954970112
sS'data scientist'
p21
F0.0031435360984091343
sS'powerpoint'
p22
F0.02178360006172925
sS'microsoft office'
p23
F0.0056985235753496252
sS'advertising'
p24
F0.0097667575202679217
ssS'working-year'
p25
(dp26
S'[0]'
p27
F0.0065169576574017288
ssS'major'
p28
(dp29
VEconomics
p30
F0.0048687583012595277
sVSociology
p31
F0.01167803374272252
sVPsychology
p32
F0.013835908045170275
sVBusiness
p33
F0.003209834858083425
ssS'education'
p34
(dp35
VBachelor
p36
F0.0027043882126703465
sVMaster
p37
F0.0021581029235138781
ssS'responsibility'
p38
(dp39
S'development'
p40
F0.0035933560902496105
sS'information'
p41
F0.0082320783354860212
sS'product'
p42
F0.0039910768270556285
sS'insight'
p43
F0.010889574813112672
sS'ensure accuracy'
p44
F0.018358372967922601
sS'decision-making'
p45
F0.021792495227211411
sS'analysis'
p46
F0.0010166727648490503
sS'design'
p47
F0.0043335869733485983
sS'report'
p48
F0.0061580902675739731
sS'presentation'
p49
F0.014619313604211316
ss.