(dp1
S'skills'
p2
(dp3
S'research design'
p4
F0.010990310085870321
sS'data science'
p5
F0.0034966305978505791
sS'linux'
p6
F0.0053665059238349692
sS'engineering'
p7
F0.0035606243519582985
sS'analysis'
p8
F0.00099598465626200556
sS'data mining'
p9
F0.0061685445601224924
sS'modeling'
p10
F0.002360888630876606
sS'instrumentation'
p11
F0.015716905706375597
sS'management'
p12
F0.0026338629860455003
sS'java'
p13
F0.003602520254849661
sS'big data'
p14
F0.0036997823440775221
sS'scala'
p15
F0.0070946697316820835
sS'industrial engineering'
p16
F0.01341390378291899
sS'hadoop'
p17
F0.0037349026203475724
sS'research'
p18
F0.0024801172722724949
sS'computer science'
p19
F0.00408716064880006
sS'mathematics'
p20
F0.0053136432618482729
sS'statistical data analysis'
p21
F0.0089933387520431084
sS'data analysis'
p22
F0.0043132616714118173
sS'theory'
p23
F0.0085188263095155106
sS'computational biology'
p24
F0.012109999463759642
sS'python'
p25
F0.0015152660254455406
sS'data scientist'
p26
F0.0030795687940810413
sS'leadership'
p27
F0.0048035134337320404
sS'algorithm design'
p28
F0.012253580881020026
sS'multivariate analysis'
p29
F0.013177007873090127
sS'spark'
p30
F0.0049015570445222634
sS'data'
p31
F0.0024134023695386933
sS'software development'
p32
F0.0061633622618409087
sS'c'
F0.0036355288485409804
sS'bioinformatics'
p33
F0.0094745851460841714
sS'science'
p34
F0.0061311094900647596
sS'economics'
p35
F0.0069665460010449459
sS'programming'
p36
F0.003204404752426965
sS'hive'
p37
F0.0060632390973546701
sS'machine learning'
p38
F0.0019055747727733702
sS'optimization'
p39
F0.0058139792365945993
sS'electrical engineering'
p40
F0.011525072916798884
sS'organization'
p41
F0.005125534416516515
sS'retail'
p42
F0.010017329896559657
sS'scripting'
p43
F0.0070729197018798351
ssS'working-year'
p44
(dp45
V(0, 2]
p46
F0.0066208725700295156
sV(2, 5]
p47
F0.0036015826407881845
ssS'major'
p48
(dp49
VElectrical and Electronics Engineering
p50
F0.0091471761493458759
sVBusiness
p51
F0.0031445184510875412
sVIndustrial Engineering
p52
F0.011656895529343436
sVEconomics
p53
F0.0047696847311757586
sVEngineering
p54
F0.0035606243519582985
sVComputer Science
p55
F0.00263184809986104
sVBiological Engineering
p56
F0.0076459179665020072
sVMathematics
p57
F0.0049833503766931742
sVData Science
p58
F0.0029863051819914613
sVManagement Science and Engineering
p59
F0.0037486759839211988
ssS'education'
p60
(dp61
VMaster
p62
F0.0021141880384423746
ssS'responsibility'
p63
(dp64
S'development'
p65
F0.0035202354721340658
sS'data analysis'
p66
F0.0043132616714118173
sS'understand'
p67
F0.0061095343414077768
sS'communicate'
p68
F0.0058321014019813719
sS'analysis'
p69
F0.00099598465626200556
sS'analytic'
p70
F0.03937894137731935
sS'optimization'
p71
F0.0058139792365945993
sS'design'
p72
F0.0042454035174955742
sS'data mining'
p73
F0.0061685445601224924
sS'modeling'
p74
F0.002360888630876606
sS'implement'
p75
F0.012313157994881439
sS'prototype'
p76
F0.018332391939242371
sS'evaluation'
p77
F0.01967118130131789
sS'model'
p78
F0.013494861993328262
ss.