(dp1
S'skills'
p2
(dp3
S'venture capital'
p4
F0.019812188304633726
sS'r d'
p5
F0.0013331646489112901
sS'communication'
p6
F0.0025455938088461646
sS'data science'
p7
F0.006042297442556837
sS'testing'
p8
F0.0054200038410322175
sS'rest'
p9
F0.010315190784503173
sS'engineering'
p10
F0.0033838104239637952
sS'pricing'
p11
F0.022079311502880051
sS'personalization'
p12
F0.012336328074695996
sS'quantitative analysis'
p13
F0.021055783921298869
sS'regression'
p14
F0.0077770939790734808
sS'management'
p15
F0.005530740318891076
sS'team building'
p16
F0.01261346449632348
sS'access'
p17
F0.0059192373525123769
sS'data scientist'
p18
F0.00060086783950253763
sS'data collection'
p19
F0.019715995082335173
sS'data'
p20
F0.0033446462448450849
sS'customer experience'
p21
F0.0100565416153976
sS'search'
p22
F0.0081858494502493259
sS'svm'
p23
F0.013850501839424151
sS'science'
p24
F0.0047651079993760352
sS'machine learning'
p25
F0.0051463525812061291
sS'data engineering'
p26
F0.010903955412104316
sS'organization'
p27
F0.0069575480760720697
ssS'working-year'
p28
(dp29
V(10, 15]
p30
F0.0091890425678961621
ssS'major'
p31
(dp32
S'information'
p33
F0.0020406057882897339
sS'management'
p34
F0.005530740318891076
sS'science'
p35
F0.0047651079993760352
sS'data science'
p36
F0.006042297442556837
sVapplied statistic
p37
F0.011921294569173761
sS'machine learning'
p38
F0.0051463525812061291
sS'engineering'
p39
F0.0033838104239637952
sS'design'
p40
F0.0044241471177714591
sS'statistic'
p41
F0.002885116695111831
sS'communication'
p42
F0.0025455938088461646
ssS'education'
p43
(dp44
S'Bachelor'
p45
F0.0011037505432212491
ssS'responsibility'
p46
(dp47
S'information'
p48
F0.0020406057882897339
sS'product'
p49
F0.005576938316939309
sS'data collection'
p50
F0.019715995082335173
sS'design'
p51
F0.0044241471177714591
sS'recommendation'
p52
F0.023791933680791848
sS'report'
p53
F0.0041414705738132768
sS'model'
p54
F0.0047834712475270666
sS'quantitative analysis'
p55
F0.021055783921298869
ss.