(dp1
S'skills'
p2
(dp3
S'scala'
p4
I1
sS'data scientist'
p5
I1
sS'functional programming'
p6
I1
sS'processing'
p7
I1
sS'storage'
p8
I1
sS'excel'
p9
I1
sS'hadoop'
p10
I1
sVpanda
p11
I1
sS'regression'
p12
I1
sS'spark'
p13
I1
sS'machine learning'
p14
I1
sS'data'
p15
I1
sS'data science'
p16
I1
sS'cassandra'
p17
I1
ssS'working-year'
p18
(dp19
V[0]
p20
I1
ssS'major'
p21
(dp22
S'data science'
p23
I1
sS'machine learning'
p24
I1
ssS'education'
p25
(dp26
S'Bachelor'
p27
I1
ssS'responsibility'
p28
(dp29
S'product'
p30
I1
sS'processing'
p31
I1
sS'model'
p32
I1
sS'data infrastructure'
p33
I1
ss.