(dp1
S'skills'
p2
(dp3
S'forecasting'
p4
I1
sS'pig'
p5
I1
sS'analytics'
p6
I1
sS'data mining'
p7
I1
sS'web analytics'
p8
I1
sS'open source'
p9
I1
sS'hadoop'
p10
I1
sS'r'
I1
sS'matlab'
p11
I1
sS'computer science'
p12
I1
sS'marketing'
p13
I1
sS'data scientist'
p14
I1
sS'data structures'
p15
I1
sS'weka'
p16
I1
sS'dynamic programming'
p17
I1
sS'java'
p18
I1
sS'science'
p19
I1
sS'programming'
p20
I1
sS'hive'
p21
I1
sS'machine learning'
p22
I1
sS'optimization'
p23
I1
sS'advertising'
p24
I1
sS'scripting'
p25
I1
ssS'working-year'
p26
(dp27
V[0]
p28
I1
ssS'major'
p29
(dp30
S'information'
p31
I1
sS'marketing'
p32
I1
sS'machine learning'
p33
I1
sS'analytics'
p34
I1
sS'design'
p35
I1
sS'computer science'
p36
I1
sS'data mining'
p37
I1
sS'science'
p38
I1
ssS'education'
p39
(dp40
VMaster
p41
I1
sVDoctor
p42
I1
ssS'responsibility'
p43
(dp44
S'information'
p45
I1
sS'forecasting'
p46
I1
sVinsight
p47
I1
sS'optimization'
p48
I1
sS'design'
p49
I1
sS'data mining'
p50
I1
ss.