(dp1
S'skills'
p2
(dp3
S'forecasting'
p4
F0.10024714549847244
sS'management'
p5
F0.0077440074119628395
sS'data scientist'
p6
F0.0090544586766143458
sS'data visualization'
p7
F0.016809689107517959
sS'intelligence'
p8
F0.013419304358006659
sS'predictive modeling'
p9
F0.017769281270845899
sS'programming'
p10
F0.0094214977336314187
sS'tableau'
p11
F0.017171163137810187
sS'machine learning'
p12
F0.0056027155712311061
sS'business analytics'
p13
F0.025962258065462512
sS'analytics'
p14
F0.0074336535212267242
sS'business intelligence'
p15
F0.0174619086220036
sS'r'
F0.0047435239881533434
sS'mentoring'
p16
F0.029402681209221838
sS'microstrategy'
p17
F0.039045233004241078
sS'sql'
p18
F0.0058285799900260442
sS'communication'
p19
F0.013531362043682535
sS'modeling'
p20
F0.0069414161454833551
sS'data'
p21
F0.0010136879305510506
sS'business development'
p22
F0.029732908367881908
ssS'working-year'
p23
(dp24
V(5, 10]
p25
F0.010304651808349221
ssS'major'
p26
(dp27
VData Science
p28
F0.008780247714573185
sVComputer Science
p29
F0.0077380833021555373
sVBusiness
p30
F0.0092454217707189264
sVManagement Science and Engineering
p31
F0.011021748192041816
ssS'education'
p32
(dp33
VMaster
p34
F0.0062160742326852732
sVDoctor
p35
F0.0093092459126193853
ssS'responsibility'
p36
(dp37
S'development'
p38
F0.010350094037727511
sS'forecasting'
p39
F0.10024714549847244
sS'product'
p40
F0.011495665732630314
sS'develop ... model'
p41
F0.026494983138257589
sS'modeling'
p42
F0.0069414161454833551
sS'model'
p43
F0.013225733691467017
sS'forecast'
p44
F0.038817301665276444
ss.