(dp1
S'skills'
p2
(dp3
S'dashboarding'
p4
F0.073288654492704275
sS'minitab'
p5
F0.059289020403075252
sS'data collection'
p6
F0.070610773085572467
sS'data visualization'
p7
F0.019898324938186294
sS'google analytics'
p8
F0.048328572987586464
sS'python'
p9
F0.0084478565505858496
sS'science'
p10
F0.017065735625672311
sS'applied mathematics'
p11
F0.065899514937983475
sS'data scientist'
p12
F0.0021519452856602508
sS'spss'
p13
F0.028275689938094324
sS'analytics'
p14
F0.011807895857873337
sS'engineering'
p15
F0.012118762913730799
sS'r'
F0.0092678924163376985
sS'facebook'
p16
F0.045406364240290473
sS'marketing research'
p17
F0.099208245733549735
sS'sql'
p18
F0.010982917169171109
sS'mathematical modeling'
p19
F0.052893184811644796
sS'modeling'
p20
F0.011228664859327274
sS'data'
p21
F0.002994625126198506
sS'computer science'
p22
F0.019227824359420026
ssS'working-year'
p23
(dp24
V(5, 10]
p25
F0.014054528561969284
sV(2, 5]
p26
F0.009127136651730974
ssS'major'
p27
(dp28
S'science'
p29
F0.017065735625672311
sS'applied mathematics'
p30
F0.065899514937983475
sS'applied math'
p31
F0.028940265882815126
sS'economics computer science'
p32
F0.060952974238076545
sS'analytics'
p33
F0.011807895857873337
sS'engineering'
p34
F0.012118762913730799
sS'design'
p35
F0.0079223099550791241
sS'marketing research'
p36
F0.099208245733549735
sS'statistic'
p37
F0.010332743512726091
sVphysic
p38
F0.026506502290946109
sS'computer science'
p39
F0.019227824359420026
ssS'education'
p40
(dp41
VMaster
p42
F0.011216253243068675
sVDoctor
p43
F0.014798426248620839
ssS'responsibility'
p44
(dp45
Vinsight
p46
F0.01210536371482614
sS'modeling'
p47
F0.011228664859327274
sS'data collection'
p48
F0.070610773085572467
sS'design'
p49
F0.0079223099550791241
ss.