(dp1
S'skills'
p2
(dp3
S'open source'
p4
F0.015773601767734437
sS'r d'
p5
F0.0025663419491542337
sS'communication'
p6
F0.0049002680820288665
sS'data scientist'
p7
F0.001156670591042385
sS'unix'
p8
F0.021100732710451126
sS'communication skills'
p9
F0.018419624616576678
sS'machine learning'
p10
F0.0099067287188217973
sS'hardware'
p11
F0.060316563457941771
sS'perl'
p12
F0.018468260451237502
sS'tcl'
p13
F0.04625897096430856
sS'teamwork'
p14
F0.016862474998745661
sS'analysis'
p15
F0.003133187500157951
sS'education'
p16
F0.0092953578757761068
sS'data'
p17
F0.001609611005331697
sS'scripting'
p18
F0.01326087924364208
ssS'working-year'
p19
(dp20
V(5, 10]
p21
F0.0075543091020584905
sV(0, 2]
p22
F0.011537827399776006
sV(2, 5]
p23
F0.0049058359503053985
ssS'major'
p24
(dp25
S'communication'
p26
F0.0049002680820288665
sS'machine learning'
p27
F0.0099067287188217973
sS'phd'
p28
F0.010528703623244198
ssS'education'
p29
(dp30
VDoctor
p31
F0.0079541541086337025
ssS'responsibility'
p32
(dp33
S'product'
p34
F0.003578535420036057
sVinsight
p35
F0.0065066329967190502
sS'analysis'
p36
F0.003133187500157951
ss.