(dp1
S'skills'
p2
(dp3
S'management'
p4
I1
sS'science'
p5
I1
sS'data science'
p6
I1
sS'data scientist'
p7
I1
sS'machine learning'
p8
I1
sS'sql'
p9
I1
sS'business development'
p10
I1
sS'data'
p11
I1
sS'experimentation'
p12
I1
ssS'working-year'
p13
(dp14
V(5, 10]
p15
I1
sV(2, 5]
p16
I1
ssS'major'
p17
(dp18
S'management'
p19
I1
sS'business'
p20
I1
sS'science'
p21
I1
sS'data science'
p22
I1
sS'phd'
p23
I1
sS'statistic'
p24
I1
sS'machine learning'
p25
I1
ssS'education'
p26
(dp27
VDoctor
p28
I1
ssS'responsibility'
p29
(dp30
S'development'
p31
I1
sS'product'
p32
I1
sVinsight
p33
I1
sS'statistical model'
p34
I1
sS'recommendation'
p35
I1
sS'model'
p36
I1
ss.