(dp1
S'skills'
p2
(dp3
S'r d'
p4
F0.0087364832311633469
sS'science'
p5
F0.031226665187400398
sS'data science'
p6
F0.039596332176755435
sS'data scientist'
p7
F0.0039376020120591828
sS'engineering'
p8
F0.022174757671932954
sS'mathematics'
p9
F0.034486999372802446
ssS'working-year'
p10
(dp11
V[0]
p12
F0.030344052603456278
ssS'major'
p13
(dp14
S'science'
p15
F0.031226665187400398
sS'data science'
p16
F0.039596332176755435
sS'engineering'
p17
F0.022174757671932954
sS'mathematics'
p18
F0.034486999372802446
ssS'education'
p19
(dp20
S'Bachelor'
p21
F0.0072330886662158441
ssS'responsibility'
p22
(dp23
S'recommendation'
p24
F0.038978274328105793
ss.