(dp1
S'skills'
p2
(dp3
S'nlp'
p4
F0.014298363678050175
sS'nosql'
p5
F0.010887379402077849
sS'intelligence'
p6
F0.0088421022751032207
sS'data science'
p7
F0.0086158685754977107
sS'linux'
p8
F0.011637388891762216
sS'regression'
p9
F0.011089559933123296
sS'java'
p10
F0.0065249145123611766
sS'scala'
p11
F0.010337748616108046
sS'predictive modeling'
p12
F0.010015445597453081
sS'hadoop'
p13
F0.0055083388986044268
sS'amazon web services'
p14
F0.019007473879332399
sS'mahout'
p15
F0.019552757233756879
sS'marketing automation'
p16
F0.025482957537939759
sS'computer science'
p17
F0.0076555226616209357
sS'web services'
p18
F0.016961994264397897
sS'natural language processing'
p19
F0.023606320417784595
sS'policy'
p20
F0.01089728141508387
sS'apis'
p21
F0.014257213027502609
sS'python'
p22
F0.0033634984414369585
sS'marketing'
p23
F0.0078964913143954162
sS'processing'
p24
F0.0073772939287960124
sS'automation'
p25
F0.012915191934612198
sS'computational linguistics'
p26
F0.047211627358004368
sS'modeling'
p27
F0.0044706721199173401
sS'experimental design'
p28
F0.015602697692611991
sS'science'
p29
F0.0067946910361473085
sS'programming'
p30
F0.0048117373634340797
sS'analysis'
p31
F0.0023208796297466304
sS'weka'
p32
F0.019302449791871092
sS'r'
F0.0036899942028011203
sS'logistic regression'
p33
F0.017036068034949704
sS'nltk'
p34
F0.023605813679002184
sS'crm'
p35
F0.017548793587688308
ssS'working-year'
p36
(dp37
V(2, 5]
p38
F0.0036339525557817763
ssS'major'
p39
(dp40
S'science'
p41
F0.0067946910361473085
sS'computing'
p42
F0.0098623373270068163
sS'marketing'
p43
F0.0078964913143954162
sS'data science'
p44
F0.0086158685754977107
sS'natural language processing'
p45
F0.023606320417784595
sS'automation'
p46
F0.012915191934612198
sS'mathematics statistics'
p47
F0.015414809470605211
sS'design'
p48
F0.0031542530376703916
sS'computational linguistics'
p49
F0.047211627358004368
sS'statistic'
p50
F0.004113962694881684
sS'computer science mathematics'
p51
F0.015209021808753154
sS'ee computer science'
p52
F0.010462386834852146
sS'computer science'
p53
F0.0076555226616209357
ssS'education'
p54
(dp55
S'Bachelor'
p56
F0.0015738665153340031
ssS'responsibility'
p57
(dp58
S'predict'
p59
F0.015798535449681652
sS'processing'
p60
F0.0073772939287960124
sS'analysis'
p61
F0.0023208796297466304
sS'statistical method'
p62
F0.011591095977106605
sS'design'
p63
F0.0031542530376703916
sS'report'
p64
F0.0059054302626596724
sS'modeling'
p65
F0.0044706721199173401
sS'model'
p66
F0.0034104378338850375
ss.