(dp1
S'skills'
p2
(dp3
S'c'
F0.016781493430441004
sS'data analysis'
p4
F0.020064876095334493
sS'r d'
p5
F0.0029540626752854486
sS'data science'
p6
F0.013388687858327379
sS'testing'
p7
F0.012009792683726065
sS'data scientist'
p8
F0.0013314193853725294
sS'strategy'
p9
F0.040414369959893413
sS'analytics'
p10
F0.0073056046314899795
sS'english'
p11
F0.024868010440853988
sS'data'
p12
F0.0074111585856999002
ssS'working-year'
p13
(dp14
V(2, 5]
p15
F0.00564700541042348
ssS'major'
p16
(dp17
S'analytics'
p18
F0.0073056046314899795
sS'data science'
p19
F0.013388687858327379
sS'english'
p20
F0.024868010440853988
ssS'education'
p21
(dp22
VBachelor
p23
F0.002445720628144926
ssS'responsibility'
p24
(dp25
S'report'
p26
F0.018353567435028622
sS'implement'
p27
F0.0095752609638280681
sVinsight
p28
F0.0074896494926262446
sS'data analysis'
p29
F0.020064876095334493
ss.