(dp1
S'skills'
p2
(dp3
S'visualization'
p4
I1
sS'data analysis'
p5
I1
sS'big data'
p6
I1
sS'data visualization'
p7
I1
sS'python'
p8
I1
sS'processing'
p9
I1
sS'data scientist'
p10
I1
sS'analysis'
p11
I1
sS'writing'
p12
I1
sS'analytics'
p13
I1
sS'business intelligence'
p14
I1
sS'data warehousing'
p15
I1
sS'architecture'
p16
I1
sS'sql'
p17
I1
sS'data'
p18
I1
sS'unstructured data'
p19
I1
sS'etl'
p20
I1
sS'dashboard'
p21
I1
ssS'working-year'
p22
(dp23
V(2, 5]
p24
I1
ssS'major'
p25
(dp26
S'analytics'
p27
I1
sS'big data'
p28
I1
sS'business'
p29
I1
ssS'education'
p30
(dp31
S'Bachelor'
p32
I1
ssS'responsibility'
p33
(dp34
S'report'
p35
I1
sS'model'
p36
I1
sS'data analysis'
p37
I1
sS'processing'
p38
I1
sS'analysis'
p39
I1
ss.