(dp1
S'skills'
p2
(dp3
S'product management'
p4
I1
sS'training'
p5
I1
sS'postgresql'
p6
I1
sS'data visualization'
p7
I1
sS'communication'
p8
I1
sS'data science'
p9
I1
sS'data scientist'
p10
I1
sS'writing'
p11
I1
sS'analytics'
p12
I1
sS'scripting'
p13
I1
sS'policy'
p14
I1
sS'strategy'
p15
I1
sS'data'
p16
I1
sS'data analytics'
p17
I1
ssS'working-year'
p18
(dp19
V[0]
p20
I1
ssS'major'
p21
(dp22
S'communication'
p23
I1
sS'data science'
p24
I1
sS'analytics'
p25
I1
sS'statistic'
p26
I1
sS'law'
p27
I1
sS'data analytics'
p28
I1
ssS'education'
p29
(dp30
S'Bachelor'
p31
I1
ssS'responsibility'
p32
(dp33
S'development'
p34
I1
sS'product'
p35
I1
sVinsight
p36
I1
sS'report'
p37
I1
sS'interface'
p38
I1
sS'model'
p39
I1
ss.