(dp1
S'skills'
p2
(dp3
S'r d'
p4
F0.00080670866771056452
sS'data science'
p5
F0.0036562428532563957
sS'analytics'
p6
F0.013965330660981826
sS'business intelligence'
p7
F0.0045745459473217186
sS'regression'
p8
F0.0047059822113057603
sS'instrumentation'
p9
F0.009890604401654091
sS'open source'
p10
F0.0049583031097004118
sS'big data'
p11
F0.0043284603284480918
sS'e-commerce'
p12
F0.008066039995944593
sS'deep learning'
p13
F0.0055671495920103908
sS'random forest'
p14
F0.0072453589436700747
sS'access'
p15
F0.0035817782015202591
sS'computer science'
p16
F0.0032487090273283343
sS'data integration'
p17
F0.0068686268006629579
sS'policy'
p18
F0.0046243866122949225
sS'architecture'
p19
F0.0035256859523507813
sS'python'
p20
F0.001427339220727668
sS'data scientist'
p21
F0.00036358996967933514
sS'training'
p22
F0.0035232831265791117
sS'experimental design'
p23
F0.0066211840895956577
sS'advanced analytics'
p24
F0.0085704983579318848
sS'leadership'
p25
F0.0029939427166408099
sS'b testing'
p26
F0.0078373399619720702
sS'data analytics'
p27
F0.0060099552636023691
sS'modeling'
p28
F0.0094859054803747098
sS'spark'
p29
F0.0031130228868223725
sS'data'
p30
F0.0065775852477208832
sS'search'
p31
F0.0049533234394435995
sS'svm'
p32
F0.0083810502289639252
sS'applied mathematics'
p33
F0.011134299184020782
sS'engineering'
p34
F0.0020475709441666969
sS'hive'
p35
F0.0038804638978644427
sS'data engineering'
p36
F0.0065980712513322758
sS'r'
F0.0015658914495187465
sS'dashboard'
p37
F0.0055536011201725343
sS'product management'
p38
F0.0058207552902996805
sS'retail'
p39
F0.0056014353144397096
sS'etl'
p40
F0.0051909333715958973
ssS'working-year'
p41
(dp42
V(10, 15]
p43
F0.005560363675662117
sV(2, 5]
p44
F0.0015421095325125023
ssS'major'
p45
(dp46
S'business'
p47
F0.00077388141227543539
sS'big data'
p48
F0.0043284603284480918
sS'applied mathematics'
p49
F0.011134299184020782
sS'applied math'
p50
F0.0048897109350139502
sS'data science analytics'
p51
F0.0072294512682694228
sS'statistics applied mathematics'
p52
F0.0086231543797990473
sS'advanced analytics'
p53
F0.0085704983579318848
sS'analytics'
p54
F0.013965330660981826
sS'engineering'
p55
F0.0020475709441666969
sS'design'
p56
F0.0013385435287560012
sS'data analytics'
p57
F0.0060099552636023691
sS'statistic'
p58
F0.0017458073518554888
sS'analytics data science'
p59
F0.0079031986685994936
sS'management technology'
p60
F0.007343608845146829
sS'mathematics computer science'
p61
F0.0069631608363697585
sS'data science'
p62
F0.0036562428532563957
sS'applied mathematics computer science'
p63
F0.010298537886983462
sS'computer science'
p64
F0.0032487090273283343
ssS'education'
p65
(dp66
VMaster
p67
F0.0018950840449978507
sVDoctor
p68
F0.0025003234919084324
ssS'responsibility'
p69
(dp70
S'development'
p71
F0.0018172407311326255
sS'product'
p72
F0.0011248834326243007
sVinsight
p73
F0.0040906140647349624
sS'design'
p74
F0.0013385435287560012
sS'recommendation'
p75
F0.0035991726786266643
sS'report'
p76
F0.005012074407601136
sS'modeling'
p77
F0.0094859054803747098
sS'model'
p78
F0.0057890339655730302
ss.