(dp1
S'skills'
p2
(dp3
S'data science'
p4
I1
sS'testing'
p5
I1
sS'analytics'
p6
I1
sS'business intelligence'
p7
I1
sS'regression'
p8
I1
sS'instrumentation'
p9
I1
sS'open source'
p10
I1
sS'big data'
p11
I1
sS'e-commerce'
p12
I1
sS'deep learning'
p13
I1
sS'random forest'
p14
I1
sS'access'
p15
I1
sS'computer science'
p16
I1
sS'data integration'
p17
I1
sS'policy'
p18
I1
sS'architecture'
p19
I1
sS'python'
p20
I1
sS'data scientist'
p21
I1
sS'training'
p22
I1
sS'experimental design'
p23
I1
sS'advanced analytics'
p24
I1
sS'leadership'
p25
I1
sS'data analytics'
p26
I1
sS'modeling'
p27
I1
sS'spark'
p28
I1
sS'data'
p29
I1
sS'search'
p30
I1
sS'svm'
p31
I1
sS'applied mathematics'
p32
I1
sS'engineering'
p33
I1
sS'hive'
p34
I1
sS'data engineering'
p35
I1
sS'r'
I1
sS'dashboard'
p36
I1
sS'product management'
p37
I1
sS'retail'
p38
I1
sS'etl'
p39
I1
ssS'working-year'
p40
(dp41
V(10, 15]
p42
I1
sV(2, 5]
p43
I1
ssS'major'
p44
(dp45
S'business'
p46
I1
sS'big data'
p47
I1
sS'applied mathematics'
p48
I1
sS'applied math'
p49
I1
sS'data science analytics'
p50
I1
sS'statistics applied mathematics'
p51
I1
sS'advanced analytics'
p52
I1
sS'analytics'
p53
I1
sS'engineering'
p54
I1
sS'design'
p55
I1
sS'data analytics'
p56
I1
sS'statistic'
p57
I1
sS'analytics data science'
p58
I1
sS'management technology'
p59
I1
sS'mathematics computer science'
p60
I1
sS'data science'
p61
I1
sS'applied mathematics computer science'
p62
I1
sS'computer science'
p63
I1
ssS'education'
p64
(dp65
VMaster
p66
I1
sVDoctor
p67
I1
ssS'responsibility'
p68
(dp69
S'development'
p70
I1
sS'product'
p71
I1
sVinsight
p72
I1
sS'design'
p73
I1
sS'recommendation'
p74
I1
sS'report'
p75
I1
sS'modeling'
p76
I1
sS'model'
p77
I1
ss.