(dp1
S'skills'
p2
(dp3
S'visualization'
p4
F0.013106959943594192
sS'processing'
p5
F0.011420196410284755
sS'software engineering'
p6
F0.018196244676321759
sS'big data'
p7
F0.0089001757088298435
sS'communication'
p8
F0.011071114399376619
sS'data science'
p9
F0.0084114750046195754
sS'scrum'
p10
F0.047514861039573385
sS'data scientist'
p11
F0.0074081934626844632
sS'rest'
p12
F0.02501675847873645
sS'engineering'
p13
F0.0085654180214940877
sS'management'
p14
F0.0063360060643332322
sS'science'
p15
F0.0049163208964621849
sS'modeling'
p16
F0.0056793404826681994
sS'validation'
p17
F0.022111624511014661
sS'data'
p18
F0.0016587620681744464
sS'project management'
p19
F0.013296876386884938
ssS'working-year'
p20
(dp21
V(5, 10]
p22
F0.0084310787522857249
ssS'major'
p23
(dp24
VData Science
p25
F0.0071838390391962418
sVManagement Science and Engineering
p26
F0.009017793975306939
sVEngineering
p27
F0.0085654180214940877
sVBusiness
p28
F0.0075644359942245746
sVComputer Science
p29
F0.0063311590653999843
ssS'education'
p30
(dp31
VBachelor
p32
F0.0063732785151741729
ssS'responsibility'
p33
(dp34
S'product'
p35
F0.0094055446903338925
sS'processing'
p36
F0.011420196410284755
sS'communicate'
p37
F0.014029670505465679
sS'ownership'
p38
F0.027554499650960754
sS'report'
p39
F0.014512422518688315
sS'modeling'
p40
F0.0056793404826681994
sS'transformation'
p41
F0.021989210736593472
ss.