(dp1
S'skills'
p2
(dp3
S'communication'
p4
I1
sS'data science'
p5
I1
sS'testing'
p6
I1
sS'engineering'
p7
I1
sS'personalization'
p8
I1
sS'education'
p9
I1
sS'access'
p10
I1
sS'statistical software'
p11
I1
sS'computer science'
p12
I1
sS'python'
p13
I1
sS'data scientist'
p14
I1
sS'statistical modeling'
p15
I1
sS'sql'
p16
I1
sS'modeling'
p17
I1
sS'data'
p18
I1
sS'project management'
p19
I1
sS'search'
p20
I1
sS'software engineering'
p21
I1
sS'science'
p22
I1
sS'machine learning'
p23
I1
sS'r'
I1
sS'scripting'
p24
I1
ssS'working-year'
p25
(dp26
V(2, 5]
p27
I1
ssS'major'
p28
(dp29
S'software engineering'
p30
I1
sS'business'
p31
I1
sVapplied statistic
p32
I1
sS'data science'
p33
I1
sS'applied math'
p34
I1
sS'coursera'
p35
I1
sS'machine learning'
p36
I1
sS'applied math computer science'
p37
I1
sS'engineering'
p38
I1
sS'design'
p39
I1
sS'computer science'
p40
I1
sS'statistic'
p41
I1
sS'communication'
p42
I1
sS'project management'
p43
I1
sS'science'
p44
I1
ssS'education'
p45
(dp46
S'Bachelor'
p47
I1
ssS'responsibility'
p48
(dp49
S'development'
p50
I1
sS'product'
p51
I1
sS'cross-functionally'
p52
I1
sS'statistical model'
p53
I1
sS'analytic'
p54
I1
sS'design'
p55
I1
sS'recommendation'
p56
I1
sS'modeling'
p57
I1
sS'evaluation'
p58
I1
ss.