(dp1
S'skills'
p2
(dp3
S'forecasting'
p4
F0.0068962913754466891
sS'economics'
p5
F0.006067900867617864
sS'r d'
p6
F0.001013863486085623
sS'communication'
p7
F0.0019359083780854779
sS'data science'
p8
F0.0045951299069321126
sS'testing'
p9
F0.0041218794642911673
sS'engineering'
p10
F0.0025733669397057994
sS'statistical analysis'
p11
F0.0045234046751135119
sS'problem solving'
p12
F0.0046588009370883976
sS'data mining'
p13
F0.010956969749543462
sS'accounting'
p14
F0.01096201437672987
sS'management'
p15
F0.002103046936072162
sS'tableau'
p16
F0.0049097249909504041
sS'risk management'
p17
F0.0077501190189065349
sS'computer science'
p18
F0.004082945419531166
sS'policy'
p19
F0.0058118834213780638
sS'application development'
p20
F0.0079056058196673128
sS'finance'
p21
F0.034646608879214724
sS'python'
p22
F0.0017938658354330445
sS'javascript'
p23
F0.0067297802435170289
sS'automation'
p24
F0.013776204730253013
sS'risk analysis'
p25
F0.013590910686901206
sS'word'
p26
F0.0074045399214817276
sS'sql server'
p27
F0.0080715468192554159
sS'science'
p28
F0.0036238352192785647
sS'applied mathematics'
p29
F0.013993477246090317
sS'documentation'
p30
F0.011092958093754605
sS'thought leadership'
p31
F0.0083805805649855205
sS'analysis'
p32
F0.0012378024691982027
sS'data architecture'
p33
F0.0082494497149907097
sS'r'
F0.0019679969081605976
sS'architecture'
p34
F0.0044310472833248094
sS'organization'
p35
F0.0052911723640251783
sS'validation'
p36
F0.006256739849978904
sS'data analytics'
p37
F0.0075532524177126074
ssS'working-year'
p38
(dp39
V(2, 5]
p40
F0.0019381080297502808
ssS'major'
p41
(dp42
S'science'
p43
F0.0036238352192785647
sS'mathematics economics'
p44
F0.010533221151957132
sS'management'
p45
F0.002103046936072162
sS'economics'
p46
F0.006067900867617864
sS'finance'
p47
F0.034646608879214724
sS'business'
p48
F0.0019452130313491192
sS'information'
p49
F0.001551868105662316
sS'communication'
p50
F0.0019359083780854779
sS'data science'
p51
F0.0045951299069321126
sS'data mining'
p52
F0.010956969749543462
sS'automation'
p53
F0.013776204730253013
sS'engineering'
p54
F0.0025733669397057994
sS'design'
p55
F0.0016822682867575424
sS'economics finance'
p56
F0.012589767295467831
sS'statistic'
p57
F0.0021941134372702314
sS'data analytics'
p58
F0.0075532524177126074
sS'accounting'
p59
F0.01096201437672987
sS'applied math'
p60
F0.0061453404096841998
sS'applied mathematics'
p61
F0.013993477246090317
sS'applied mathematics economics'
p62
F0.017013852191211473
sS'computer science'
p63
F0.004082945419531166
ssS'education'
p64
(dp65
VBachelor
p66
F0.00083939547484480177
ssS'responsibility'
p67
(dp68
S'development'
p69
F0.0068516706084926406
sS'information'
p70
F0.001551868105662316
sS'forecasting'
p71
F0.0068962913754466891
sVinsight
p72
F0.002570521677716168
sS'business problem'
p73
F0.0045645249968005097
sS'documentation'
p74
F0.011092958093754605
sS'analysis'
p75
F0.0012378024691982027
sS'improvement'
p76
F0.0048020571903177314
sS'cross-functionally'
p77
F0.010642977083322114
sS'design'
p78
F0.0016822682867575424
sS'data mining'
p79
F0.010956969749543462
sS'report'
p80
F0.0031495628067518253
sS'understand'
p81
F0.0066223048966721296
sS'model'
p82
F0.0054567005342160612
ss.