(dp1
S'skills'
p2
(dp3
S'visualization'
p4
I1
sS'factor analysis'
p5
I1
sS'distributed computing'
p6
I1
sS'product development'
p7
I1
sS'python'
p8
I1
sS'communication'
p9
I1
sS'data science'
p10
I1
sS'sql'
p11
I1
sS'data scientist'
p12
I1
sS'hive'
p13
I1
sS'research'
p14
I1
sS'product design'
p15
I1
sS'rest'
p16
I1
sS'personalization'
p17
I1
sS'analysis'
p18
I1
sS'modeling'
p19
I1
sS'data'
p20
I1
sS'scripting'
p21
I1
ssS'working-year'
p22
(dp23
V(2, 5]
p24
I1
ssS'major'
p25
(dp26
S'communication'
p27
I1
sS'data science'
p28
I1
sS'design'
p29
I1
sS'computing'
p30
I1
ssS'education'
p31
(dp32
VBachelor
p33
I1
sVMaster
p34
I1
sVDoctor
p35
I1
ssS'responsibility'
p36
(dp37
S'development'
p38
I1
sS'large data set'
p39
I1
sS'product'
p40
I1
sS'pattern'
p41
I1
sVinsight
p42
I1
sS'communicate'
p43
I1
sS'analysis'
p44
I1
sS'design'
p45
I1
sS'modeling'
p46
I1
sS'product decision'
p47
I1
ss.