(dp1
S'skills'
p2
(dp3
S'science'
p4
I1
sS'management'
p5
I1
sS'data scientist'
p6
I1
sS'finance'
p7
I1
sS'probability'
p8
I1
sS'communication'
p9
I1
sS'data science'
p10
I1
sS'predictive modeling'
p11
I1
sS'recruiting'
p12
I1
sS'business intelligence'
p13
I1
sS'experimental design'
p14
I1
sS'analytics'
p15
I1
sS'engineering'
p16
I1
sS'leadership'
p17
I1
sS'marketing'
p18
I1
sS'go'
p19
I1
sS'modeling'
p20
I1
sS'machine learning'
p21
I1
sS'data'
p22
I1
sS'optimization'
p23
I1
sS'product development'
p24
I1
ssS'working-year'
p25
(dp26
V(5, 10]
p27
I1
ssS'major'
p28
(dp29
S'management'
p30
I1
sS'finance'
p31
I1
sS'business'
p32
I1
sS'marketing'
p33
I1
sS'data science'
p34
I1
sS'statistic'
p35
I1
sS'machine learning'
p36
I1
sS'analytics'
p37
I1
sS'engineering'
p38
I1
sS'design'
p39
I1
sS'communication'
p40
I1
sS'science'
p41
I1
ssS'education'
p42
(dp43
S'Bachelor'
p44
I1
ssS'responsibility'
p45
(dp46
S'development'
p47
I1
sS'product'
p48
I1
sS'analytic'
p49
I1
sS'optimization'
p50
I1
sS'design'
p51
I1
sS'modeling'
p52
I1
ss.