(dp1
S'skills'
p2
(dp3
S'structural equation modeling'
p4
I1
sS'data visualization'
p5
I1
sS'predictive modeling'
p6
I1
sS'data scientist'
p7
I1
sS'factor analysis'
p8
I1
sS'analysis'
p9
I1
sS'tableau'
p10
I1
sS'r'
I1
sS'dashboard'
p11
I1
sS'statistical modeling'
p12
I1
sS'sql'
p13
I1
sS'modeling'
p14
I1
sS'pca'
p15
I1
sS'data'
p16
I1
sS'regression'
p17
I1
ssS'working-year'
p18
(dp19
V(5, 10]
p20
I1
ssS'major'
p21
(dp22
sS'education'
p23
(dp24
S'Bachelor'
p25
I1
ssS'responsibility'
p26
(dp27
S'modeling'
p28
I1
sS'implement'
p29
I1
sS'mapping'
p30
I1
sS'analysis'
p31
I1
sS'statistical model'
p32
I1
ss.