(dp1
S'skills'
p2
(dp3
S'digital marketing'
p4
I1
sS'forecasting'
p5
I1
sS'classification'
p6
I1
sS'communication'
p7
I1
sS'data science'
p8
I1
sS'engineering'
p9
I1
sS'data mining'
p10
I1
sS'education'
p11
I1
sS'quantitative analysis'
p12
I1
sS'regression'
p13
I1
sS'clustering'
p14
I1
sS'visualization'
p15
I1
sS'web analytics'
p16
I1
sS'excel'
p17
I1
sS'tableau'
p18
I1
sS'research'
p19
I1
sS'innovation'
p20
I1
sS'advanced analytics'
p21
I1
sS'data management'
p22
I1
sS'advertising'
p23
I1
sS'marketing'
p24
I1
sS'dashboard'
p25
I1
sS'data scientist'
p26
I1
sS'leadership'
p27
I1
sS'statistical modeling'
p28
I1
sS'sql'
p29
I1
sS'modeling'
p30
I1
sS'data'
p31
I1
sS'b2b'
p32
I1
sS'customer experience'
p33
I1
sS'search'
p34
I1
sS'digital strategy'
p35
I1
sS'programming'
p36
I1
sS'analysis'
p37
I1
sS'machine learning'
p38
I1
sS'e-commerce'
p39
I1
sS'optimization'
p40
I1
sS'web development'
p41
I1
sS'google adwords'
p42
I1
ssS'working-year'
p43
(dp44
V(0, 2]
p45
I1
sV(2, 5]
p46
I1
ssS'major'
p47
(dp48
S'data mining'
p49
I1
sS'business'
p50
I1
sS'marketing'
p51
I1
sS'data science'
p52
I1
sS'statistic'
p53
I1
sS'machine learning'
p54
I1
sS'engineering'
p55
I1
sS'communication'
p56
I1
sS'advanced analytics'
p57
I1
sS'web development'
p58
I1
sS'history'
p59
I1
ssS'education'
p60
(dp61
VMaster
p62
I1
ssS'responsibility'
p63
(dp64
S'development'
p65
I1
sS'large data set'
p66
I1
sS'forecasting'
p67
I1
sS'predict'
p68
I1
sS'evaluation'
p69
I1
sS'product'
p70
I1
sS'analysis'
p71
I1
sS'statistical model'
p72
I1
sS'optimization'
p73
I1
sS'understand'
p74
I1
sS'data mining'
p75
I1
sS'report'
p76
I1
sS'modeling'
p77
I1
sS'model'
p78
I1
sS'quantitative analysis'
p79
I1
ss.