(dp1
S'skills'
p2
(dp3
S'nosql'
p4
I1
sS'ip'
p5
I1
sS'data science'
p6
I1
sS'portfolio management'
p7
I1
sS'analytics'
p8
I1
sS'engineering'
p9
I1
sS'product strategy'
p10
I1
sS'linux'
p11
I1
sS'research'
p12
I1
sS'management'
p13
I1
sS'java'
p14
I1
sS'critical thinking'
p15
I1
sS'agile'
p16
I1
sS'hadoop'
p17
I1
sS'strategy'
p18
I1
sS'coaching'
p19
I1
sS'r'
I1
sS'communication'
p20
I1
sS'mathematics'
p21
I1
sS'transportation'
p22
I1
sS'performance management'
p23
I1
sS'python'
p24
I1
sS'data scientist'
p25
I1
sS'collaboration'
p26
I1
sS'gas'
p27
I1
sS'scalability'
p28
I1
sS'leadership'
p29
I1
sS'chemical engineering'
p30
I1
sS'sql'
p31
I1
sS'modeling'
p32
I1
sS'data'
p33
I1
sS'tensorflow'
p34
I1
sS'project management'
p35
I1
sS'scikit-learn'
p36
I1
sS'c'
I1
sS'data collection'
p37
I1
sS'software engineering'
p38
I1
sS'science'
p39
I1
sS'aws'
p40
I1
sS'business strategy'
p41
I1
sS'c++'
p42
I1
sS'machine learning'
p43
I1
sS'optimization'
p44
I1
sS'architecture'
p45
I1
sS'healthcare'
p46
I1
sS'product management'
p47
I1
sS'organization'
p48
I1
sS'deep learning'
p49
I1
ssS'working-year'
p50
(dp51
V(10, 15]
p52
I1
ssS'major'
p53
(dp54
S'management'
p55
I1
sS'transportation'
p56
I1
sS'software engineering'
p57
I1
sS'business'
p58
I1
sS'science'
p59
I1
sS'data science'
p60
I1
sS'data science analytics'
p61
I1
sS'machine learning'
p62
I1
sS'analytics'
p63
I1
sS'engineering'
p64
I1
sS'design'
p65
I1
sVphysic
p66
I1
sS'chemical engineering'
p67
I1
sS'mechanical'
p68
I1
sS'communication'
p69
I1
sS'mathematics'
p70
I1
sS'electrical'
p71
I1
sS'project management'
p72
I1
sS'data science engineering'
p73
I1
ssS'education'
p74
(dp75
VMaster
p76
I1
sVDoctor
p77
I1
ssS'responsibility'
p78
(dp79
S'development'
p80
I1
sS'product'
p81
I1
sS'data collection'
p82
I1
sS'analytic'
p83
I1
sS'report'
p84
I1
sS'optimization'
p85
I1
sS'design'
p86
I1
sS'interface'
p87
I1
sS'modeling'
p88
I1
sS'presentation'
p89
I1
ss.