(dp1
S'skills'
p2
(dp3
S'soa'
p4
I1
sS'nlp'
p5
I1
sS'system design'
p6
I1
sS'java'
p7
I1
sS'scala'
p8
I1
sS'user experience'
p9
I1
sS'integration'
p10
I1
sS'writing'
p11
I1
sS'lamp'
p12
I1
sS'optimization'
p13
I1
sS'python'
p14
I1
sS'javascript'
p15
I1
sS'data scientist'
p16
I1
sS'search'
p17
I1
sS'multivariate testing'
p18
I1
sS'ruby'
p19
I1
sS'b2b'
p20
I1
sS'c'
I1
sS'software engineering'
p21
I1
sS'linear algebra'
p22
I1
sS'programming'
p23
I1
sS'c++'
p24
I1
sS'r'
I1
sS'security'
p25
I1
ssS'working-year'
p26
(dp27
V[0]
p28
I1
ssS'major'
p29
(dp30
S'development practice'
p31
I1
sS'design'
p32
I1
sS'software engineering'
p33
I1
sS'statistic'
p34
I1
ssS'education'
p35
(dp36
S'Bachelor'
p37
I1
ssS'responsibility'
p38
(dp39
S'development'
p40
I1
sS'product'
p41
I1
sS'provide leadership'
p42
I1
sS'optimization'
p43
I1
sS'design'
p44
I1
sS'report'
p45
I1
sS'implement'
p46
I1
sS'prototype'
p47
I1
ss.