(dp1
S'skills'
p2
(dp3
S'management'
p4
F0.0035531328125476555
sS'postgresql'
p5
F0.026689526532812341
sS'programming'
p6
F0.0043228048424897095
sS'hipaa'
p7
F0.022441048224454856
sS'python'
p8
F0.0020441235794245722
sS'aws'
p9
F0.020497853715934981
sS'redis'
p10
F0.019150472564308966
sS'devops'
p11
F0.097184322068706877
sS'scalability'
p12
F0.015827775445996523
sS'system administration'
p13
F0.018058797076269721
sS'linux'
p14
F0.014479043433719446
sS'organization'
p15
F0.0069144464285556123
sS'security'
p16
F0.0085700031989011452
sS'data'
p17
F0.00046510387401754082
sS'docker'
p18
F0.033573440373278036
sS'scripting'
p19
F0.0095415073625359347
sS'science'
p20
F0.0027569956399768327
ssS'working-year'
p21
(dp22
V(2, 5]
p23
F0.004858605601690727
ssS'major'
p24
(dp25
VManagement Science and Engineering
p26
F0.0050570374057603623
ssS'education'
p27
(dp28
VBachelor
p29
F0.0035740346183133595
ssS'responsibility'
p30
(dp31
S'report'
p32
F0.0081383389026369757
sS'implement'
p33
F0.016610691569565548
ss.