(dp1
S'skills'
p2
(dp3
S'neural networks'
p4
I1
sS'segmentation'
p5
I1
sS'pig'
p6
I1
sS'analytics'
p7
I1
sS'engineering'
p8
I1
sS'personalization'
p9
I1
sS'clustering'
p10
I1
sS'mahout'
p11
I1
sS'big data'
p12
I1
sS'scala'
p13
I1
sS'access'
p14
I1
sS'computer science'
p15
I1
sS'pca'
p16
I1
sS'factor analysis'
p17
I1
sS'python'
p18
I1
sS'marketing'
p19
I1
sS'data scientist'
p20
I1
sS'customer analysis'
p21
I1
sS'sql'
p22
I1
sS'spark'
p23
I1
sS'customer experience'
p24
I1
sS'chemistry'
p25
I1
sS'science'
p26
I1
sS'analysis'
p27
I1
sS'machine learning'
p28
I1
sS'r'
I1
sS'organization'
p29
I1
sS'retail'
p30
I1
sS'data analytics'
p31
I1
ssS'working-year'
p32
(dp33
V(5, 10]
p34
I1
ssS'major'
p35
(dp36
S'business'
p37
I1
sS'big data'
p38
I1
sS'marketing'
p39
I1
sS'economics computer science'
p40
I1
sS'machine learning'
p41
I1
sS'analytics'
p42
I1
sS'engineering'
p43
I1
sS'design'
p44
I1
sS'computer science'
p45
I1
sS'statistic'
p46
I1
sS'chemistry'
p47
I1
sS'data analytics'
p48
I1
sVphysic
p49
I1
sS'science'
p50
I1
ssS'education'
p51
(dp52
VMaster
p53
I1
ssS'responsibility'
p54
(dp55
S'product'
p56
I1
sS'pattern'
p57
I1
sS'analysis'
p58
I1
sS'statistical model'
p59
I1
sS'statistical method'
p60
I1
sS'design'
p61
I1
sS'model'
p62
I1
ss.