(dp1
S'skills'
p2
(dp3
S'r d'
p4
I1
sS'nosql'
p5
I1
sS'data science'
p6
I1
sS'decision support'
p7
I1
sS'avro'
p8
I1
sS'pig'
p9
I1
sS'analytics'
p10
I1
sS'business intelligence'
p11
I1
sS'data warehousing'
p12
I1
sS'natural language processing'
p13
I1
sS'modeling'
p14
I1
sS'hbase'
p15
I1
sS'cassandra'
p16
I1
sS'weka'
p17
I1
sS'big data'
p18
I1
sS'anomaly detection'
p19
I1
sS'agile'
p20
I1
sS'matlab'
p21
I1
sS'business requirements'
p22
I1
sS'ruby'
p23
I1
sS'teradata'
p24
I1
sS'processing'
p25
I1
sS'data modeling'
p26
I1
sS'theory'
p27
I1
sS'python'
p28
I1
sS'javascript'
p29
I1
sS'java'
p30
I1
sS'data'
p31
I1
sS'science'
p32
I1
sS'documentation'
p33
I1
sS'engineering'
p34
I1
sS'hive'
p35
I1
sS'r'
I1
sS'organization'
p36
I1
sS'research development r d'
p37
I1
ssS'working-year'
p38
(dp39
V(5, 10]
p40
I1
sV(2, 5]
p41
I1
ssS'major'
p42
(dp43
S'business'
p44
I1
sS'big data'
p45
I1
sS'science'
p46
I1
sS'data science'
p47
I1
sS'phd'
p48
I1
sS'analytics'
p49
I1
sS'engineering'
p50
I1
sS'design'
p51
I1
sS'natural language processing'
p52
I1
ssS'education'
p53
(dp54
VDoctor
p55
I1
ssS'responsibility'
p56
(dp57
S'development'
p58
I1
sS'product'
p59
I1
sVinsight
p60
I1
sS'design'
p61
I1
sS'pattern'
p62
I1
sS'processing'
p63
I1
sS'statistical model'
p64
I1
sS'analytic'
p65
I1
sS'understand'
p66
I1
sS'modeling'
p67
I1
sS'model'
p68
I1
sS'documentation'
p69
I1
ss.