(dp1
S'skills'
p2
(dp3
S'business process'
p4
F0.088168203832633713
ssS'working-year'
p5
(dp6
V[0]
p7
F0.047539015745414838
ssS'major'
p8
(dp9
S'business'
p10
F0.013130187961606555
ssS'education'
p11
(dp12
S'Bachelor'
p13
F0.011331838910404823
ssS'responsibility'
p14
(dp15
s.