(dp1
S'skills'
p2
(dp3
S'communication'
p4
I1
sS'engineering'
p5
I1
sS'statistical analysis'
p6
I1
sS'data mining'
p7
I1
sS'go'
p8
I1
sS'scala'
p9
I1
sS'hadoop'
p10
I1
sS'access'
p11
I1
sS'computer science'
p12
I1
sS'segmentation'
p13
I1
sS'distributed computing'
p14
I1
sS'python'
p15
I1
sS'customer retention'
p16
I1
sS'data scientist'
p17
I1
sS'sql'
p18
I1
sS'modeling'
p19
I1
sS'spark'
p20
I1
sS'customer experience'
p21
I1
sS'applied mathematics'
p22
I1
sS'analysis'
p23
I1
sS'machine learning'
p24
I1
sS'r'
I1
sS'architecture'
p25
I1
ssS'working-year'
p26
(dp27
V(2, 5]
p28
I1
ssS'major'
p29
(dp30
S'mathematics physics'
p31
I1
sS'mathematics computer science'
p32
I1
sS'computing'
p33
I1
sS'communication'
p34
I1
sS'applied mathematics'
p35
I1
sS'statistic'
p36
I1
sS'computer science statistics'
p37
I1
sS'machine learning'
p38
I1
sS'statistics applied mathematics'
p39
I1
sS'engineering'
p40
I1
sS'applied math'
p41
I1
sS'design'
p42
I1
sS'computer science'
p43
I1
sS'data mining'
p44
I1
sVphysic
p45
I1
sS'phd'
p46
I1
sS'applied mathematics computer science'
p47
I1
sS'data mining machine learning'
p48
I1
ssS'education'
p49
(dp50
VDoctor
p51
I1
ssS'responsibility'
p52
(dp53
S'product'
p54
I1
sS'analysis'
p55
I1
sS'design'
p56
I1
sS'data mining'
p57
I1
sS'modeling'
p58
I1
sS'model'
p59
I1
sS'prototype'
p60
I1
ss.