(dp1
S'skills'
p2
(dp3
S'neural networks'
p4
I1
sS'communication'
p5
I1
sS'energy'
p6
I1
sS'analytics'
p7
I1
sS'engineering'
p8
I1
sS'communication skills'
p9
I1
sS'marketing management'
p10
I1
sS'anomaly detection'
p11
I1
sS'time series analysis'
p12
I1
sS'deep learning'
p13
I1
sS'predictive modeling'
p14
I1
sS'mllib'
p15
I1
sS'computer science'
p16
I1
sS'mathematics'
p17
I1
sS'data science'
p18
I1
sS'signal processing'
p19
I1
sS'python'
p20
I1
sS'automotive'
p21
I1
sS'processing'
p22
I1
sS'gas'
p23
I1
sS'data quality'
p24
I1
sS'leadership'
p25
I1
sS'tensorflow'
p26
I1
sS'modeling'
p27
I1
sS'spark'
p28
I1
sS'manufacturing'
p29
I1
sS'data'
p30
I1
sS'information technology'
p31
I1
sS'data visualization'
p32
I1
sS'scala'
p33
I1
sS'programming'
p34
I1
sS'analysis'
p35
I1
sS'machine learning'
p36
I1
sS'optimization'
p37
I1
sS'product innovation'
p38
I1
sS'customer support'
p39
I1
sS'product management'
p40
I1
sS'internet things'
p41
I1
sS'predictive analytics'
p42
I1
ssS'working-year'
p43
(dp44
V(5, 10]
p45
I1
sV(2, 5]
p46
I1
ssS'major'
p47
(dp48
S'information'
p49
I1
sS'communication'
p50
I1
sS'data science'
p51
I1
sS'machine learning'
p52
I1
sS'analytics'
p53
I1
sS'engineering'
p54
I1
sS'design'
p55
I1
sS'computer science'
p56
I1
sS'statistic'
p57
I1
sS'mathematics'
p58
I1
sS'ee computer science'
p59
I1
sS'marketing management'
p60
I1
sS'information technology'
p61
I1
sS'predictive analytics'
p62
I1
ssS'education'
p63
(dp64
VBachelor
p65
I1
sVMaster
p66
I1
sVDoctor
p67
I1
ssS'responsibility'
p68
(dp69
S'information'
p70
I1
sS'product'
p71
I1
sS'business problem'
p72
I1
sS'processing'
p73
I1
sS'design'
p74
I1
sS'analysis'
p75
I1
sS'optimization'
p76
I1
sS'understand'
p77
I1
sS'modeling'
p78
I1
sS'implement'
p79
I1
sS'model'
p80
I1
sS'normalization'
p81
I1
ss.