(dp1
S'skills'
p2
(dp3
S'a'
F0.013169309109957934
sS'search'
p4
F0.065534995302459875
sS'python'
p5
F0.0036707853010793379
sS'data'
p6
F0.0016704434911897594
sS'sql'
p7
F0.0048024215410777966
sS'data scientist'
p8
F0.0074603638391822413
sS'analysis'
p9
F0.0024128078996769713
sS'machine learning'
p10
F0.004616321984746756
sS'r'
F0.0039083965254502898
sS'hive'
p11
F0.014688410207676103
sS'leadership'
p12
F0.011636680431012831
sS'data mining'
p13
F0.014943516399169984
sS'modeling'
p14
F0.011438671676359894
sS'quantitative analysis'
p15
F0.053718342845358175
sS'scripting'
p16
F0.017134397024272278
ssS'working-year'
p17
(dp18
V(0, 2]
p19
F0.01603929693021235
ssS'major'
p20
(dp21
VComputer Science
p22
F0.0063757446926211107
sVBusiness
p23
F0.007617706670240241
ssS'education'
p24
(dp25
S'Bachelor'
p26
F0.0064181607582387799
ssS'responsibility'
p27
(dp28
S'product'
p29
F0.056830685523285067
sS'evaluation'
p30
F0.023827064674835755
sS'communicate'
p31
F0.014128471001983044
sS'analysis'
p32
F0.0024128078996769713
sS'understand'
p33
F0.014800562066508982
sS'data mining'
p34
F0.014943516399169984
sS'design'
p35
F0.020569279014344757
sS'modeling'
p36
F0.011438671676359894
sS'quantitative analysis'
p37
F0.053718342845358175
sS'model'
p38
F0.02179451890002311
ss.