(dp1
S'skills'
p2
(dp3
S'research design'
p4
F0.010708715871221318
sS'consulting'
p5
F0.0061660515241589416
sS'r d'
p6
F0.0012257155578050071
sS'communication'
p7
F0.0023404265466406525
sS'data science'
p8
F0.005555306305395539
sS'analytics'
p9
F0.0060625614553857137
sS'business intelligence'
p10
F0.006950578767721656
sS'data warehousing'
p11
F0.0098226809313643054
sS'data mining'
p12
F0.013246485816612245
sVpanda
p13
F0.010538098598935008
sS'clustering'
p14
F0.0076495162251074477
sS'open source'
p15
F0.0075336605457836112
sS'big data'
p16
F0.0065766755438211311
sS'predictive modeling'
p17
F0.0064577201464175102
sS'computer science'
p18
F0.0049360981937615588
sS'innovation'
p19
F0.0037262093131193892
sS'numpy'
p20
F0.011369317394374247
sS'operations research'
p21
F0.015808449874403524
sS'matlab'
p22
F0.0066038744097410848
sS'teradata'
p23
F0.083812402478777845
sS'theory'
p24
F0.0087743829834463147
sS'python'
p25
F0.0021687034726877107
sS'collaboration'
p26
F0.0054085244259878869
sS'data scientist'
p27
F0.00055243968527397488
sS'scipy'
p28
F0.013102046505426014
sS'octave'
p29
F0.014935958761888459
sS'sql'
p30
F0.0028194951538767624
sS'modeling'
p31
F0.0028825826206034196
sS'data'
p32
F0.000768769435382303
sS'statistical programming'
p33
F0.011974414240353273
sS'scikit-learn'
p34
F0.010889680032981767
sS'engineering'
p35
F0.0031110854047189519
sS'analysis'
p36
F0.001496447761269469
sS'machine learning'
p37
F0.0047315719254074256
sS'data architecture'
p38
F0.0099732153270783198
sS'r'
F0.0023792201427016179
sS'architecture'
p39
F0.005356937760437456
sS'rapid prototyping'
p40
F0.013880325353400206
sS'data integration'
p41
F0.010436212064290884
sS'predictive analytics'
p42
F0.015220791672362606
ssS'working-year'
p43
(dp44
V[0]
p45
F0.0042572252906341642
ssS'major'
p46
(dp47
S'statistics operations research'
p48
F0.013252584545001785
sS'business'
p49
F0.0011758377279050647
sS'big data'
p50
F0.0065766755438211311
sS'mathematics statistics'
p51
F0.009939101031793211
sS'communication'
p52
F0.0023404265466406525
sS'data science'
p53
F0.005555306305395539
sS'data mining'
p54
F0.013246485816612245
sS'machine learning'
p55
F0.0047315719254074256
sS'analytics'
p56
F0.0060625614553857137
sS'engineering'
p57
F0.0031110854047189519
sS'design'
p58
F0.002033787033244193
sS'computer science'
p59
F0.0049360981937615588
sS'statistic'
p60
F0.0026525849017744593
sS'computer science engineering'
p61
F0.0090382829281544196
sS'phd'
p62
F0.0050286345663255868
sS'operations research'
p63
F0.015808449874403524
sS'predictive analytics'
p64
F0.015220791672362606
ssS'education'
p65
(dp66
VBachelor
p67
F0.0010147915442153574
sVMaster
p68
F0.0028793963549370331
sVDoctor
p69
F0.0037989989772578871
ssS'responsibility'
p70
(dp71
S'exploratory analysis'
p72
F0.013695624477735393
sS'pattern'
p73
F0.0054196956976355131
sS'analysis'
p74
F0.001496447761269469
sS'analytic'
p75
F0.0044611415021087271
sS'design'
p76
F0.002033787033244193
sS'data mining'
p77
F0.013246485816612245
sS'modeling'
p78
F0.0028825826206034196
sS'prototype'
p79
F0.0071171554319025276
ss.