(dp1
S'skills'
p2
(dp3
S'communication'
p4
F0.0081188172262095203
sS'statistics'
p5
F0.004782117204115921
sS'java'
p6
F0.01271043043762342
sS'big data'
p7
F0.0065267955198085514
sS'scala'
p8
F0.025031450130242428
sS'hadoop'
p9
F0.0065887512892285382
sS'computer science'
p10
F0.0072101705804472858
sS'mathematics'
p11
F0.0093738117029528497
sS'data analysis'
p12
F0.0076090359741828985
sS'distributed computing'
p13
F0.018345622884406731
sS'python'
p14
F0.0026730846807859793
sS'data scientist'
p15
F0.0054326752059686064
sS'statistical modeling'
p16
F0.0091864898471302383
sS'algorithm design'
p17
F0.021616573451645586
sS'modeling'
p18
F0.0041648496872900131
sS'spark'
p19
F0.0086468493503367109
sS'data'
p20
F0.00060821275833063029
sS'software development'
p21
F0.010872803169606525
sS'c'
F0.006413445763579986
sS'software engineering'
p22
F0.013343912762635957
sS'science'
p23
F0.0036053019907389353
sS'applied mathematics'
p24
F0.015498003819711314
sS'analysis'
p25
F0.0017570190859186152
sS'machine learning'
p26
F0.0033616293427386631
sS'optimization'
p27
F0.0205129113578312
sS'architecture'
p28
F0.011215459090690555
sS'lte'
p29
F0.03172703430866624
sS'linear algebra'
p30
F0.02257757440561314
sS'electrical engineering'
p31
F0.020331410683993929
sS'physics'
p32
F0.01247735578177776
ssS'working-year'
p33
(dp34
V(5, 10]
p35
F0.0061827910850095324
sV(2, 5]
p36
F0.0063535611714417208
ssS'major'
p37
(dp38
VStatistics
p39
F0.0092384859994260517
sVBusiness
p40
F0.0055472530624313546
sVElectrical and Electronics Engineering
p41
F0.016136556899358879
sVEngineering
p42
F0.011550661162906295
sVComputer Science
p43
F0.0046428499812933219
sVMathematics
p44
F0.0087911411773459076
sVPhysics
p45
F0.01345503641641072
ssS'education'
p46
(dp47
S'Bachelor'
p48
F0.0046737375777943938
ssS'responsibility'
p49
(dp50
S'development'
p51
F0.0062100564226365059
sS'product'
p52
F0.0068973994395781875
sS'data analysis'
p53
F0.0076090359741828985
sS'business problem'
p54
F0.01460590031861869
sS'analysis'
p55
F0.0017570190859186152
sS'statistical model'
p56
F0.018414688746763566
sS'optimization'
p57
F0.0205129113578312
sS'design'
p58
F0.0074893272308639881
sS'modeling'
p59
F0.0041648496872900131
sS'model'
p60
F0.0079354402148802093
ss.