(dp1
S'skills'
p2
(dp3
S'communication'
p4
F0.0094236271375646215
sS'data science'
p5
F0.0071597674146464231
sS'engineering'
p6
F0.0072908022444860389
sS'problem solving'
p7
F0.014610784910436018
sS'data mining'
p8
F0.012630829337393675
sS'quantitative analysis'
p9
F0.045404789785957501
sS'statistics'
p10
F0.0055506717547774082
sS'scala'
p11
F0.014527180879158552
sS'hadoop'
p12
F0.0076476577464259813
sS'research'
p13
F0.0050783353670341563
sS'computer science'
p14
F0.0083689479951620273
sS'data modeling'
p15
F0.015548819909632566
sS'python'
p16
F0.0062053751518245945
sS'business process'
p17
F0.018186207913808074
sS'statistical modeling'
p18
F0.010662890001133312
sS'sql'
p19
F0.0040591896359109944
sS'modeling'
p20
F0.0048342005298901928
sS'spark'
p21
F0.020073043134710221
sS'project management'
p22
F0.011318174543598488
sS'science'
p23
F0.0041847255249648357
sS'analysis'
p24
F0.0020393971532983923
sS'machine learning'
p25
F0.0039018912013930912
sS'r'
F0.0033035256346067923
ssS'working-year'
p26
(dp27
V(5, 10]
p28
F0.0071764539379574922
ssS'major'
p29
(dp30
VStatistics
p31
F0.010723242677905238
sVBusiness
p32
F0.0064387758760363935
sVData Science
p33
F0.0061148153726491824
sVEngineering
p34
F0.0072908022444860389
sVComputer Science
p35
F0.0053890222997154628
sVMathematics
p36
F0.010204003152276498
sVManagement Science and Engineering
p37
F0.0076758603480291208
ssS'education'
p38
(dp39
VBachelor
p40
F0.0054248739742256353
ssS'responsibility'
p41
(dp42
S'development'
p43
F0.014416202409691888
sS'product'
p44
F0.016011820127592221
sS'data mining'
p45
F0.012630829337393675
sS'understand'
p46
F0.012509998889549257
sS'quantitative analysis'
p47
F0.045404789785957501
sS'insight'
p48
F0.021843968523922442
sS'analysis'
p49
F0.0020393971532983923
sS'presentation'
p50
F0.01466282346612861
sS'design'
p51
F0.0086929691072528421
sS'recommendation'
p52
F0.015548819909632566
sS'modeling'
p53
F0.0048342005298901928
sS'implement'
p54
F0.025212656846661994
sS'design ... experiment'
p55
F0.026728164055334253
sS'model'
p56
F0.018421557641686199
ss.