(dp1
S'skills'
p2
(dp3
S'edc'
p4
F0.030979762932296973
sS'outlook'
p5
F0.009025424392463198
sS'r d'
p6
F0.00081471172989023275
sS'communication'
p7
F0.0015556406609615447
sS'testing'
p8
F0.0033122245695196883
sS'due diligence'
p9
F0.02128792657219666
sS'operational excellence'
p10
F0.01064396328609833
sS'research'
p11
F0.0018917825301249217
sS'visualization'
p12
F0.0032887983592626928
sS'management'
p13
F0.013519587446178183
sS'gcp'
p14
F0.012505603742802712
sS'excel'
p15
F0.0038672799772949342
sS'strategy'
p16
F0.0027865066589410634
sS'access'
p17
F0.0072346234308484593
sS'risk management'
p18
F0.0062277742116213222
sS'data management'
p19
F0.0046365652119182647
sS'clinical research'
p20
F0.009988725477067327
sS'database design'
p21
F0.0078934070904099311
sS'spotfire'
p22
F0.0077680545489568972
sS'collaboration'
p23
F0.0071899035028013571
sS'processing'
p24
F0.0031616973980554339
sS'data scientist'
p25
F0.00036719701302932853
sS'data acquisition'
p26
F0.0078297410106743896
sS'data processing'
p27
F0.0058863274158834269
sS'data'
p28
F0.010730740035544646
sS'fda'
p29
F0.011628953474970527
sS'data collection'
p30
F0.012048663661427048
sS'word'
p31
F0.0059500767226192451
sS'data visualization'
p32
F0.0033953490965952801
sS'sql server'
p33
F0.0064860644083302443
sS'data cleaning'
p34
F0.0093568776801788035
sS'documentation'
p35
F0.0044569920912406894
sS'clinical data management'
p36
F0.013671845510794934
sS'pharmaceutical industry'
p37
F0.012739299838433537
sS'oracle'
p38
F0.010439770401860771
sS'organization'
p39
F0.0021259174676886874
sS'microsoft office'
p40
F0.0068078872614819883
sS'cro'
p41
F0.024593111008623599
ssS'working-year'
p42
(dp43
V(2, 5]
p44
F0.0015574082381921899
ssS'major'
p45
(dp46
S'management'
p47
F0.013519587446178183
sS'communication'
p48
F0.0015556406609615447
sS'law'
p49
F0.0035461473501560447
sS'design'
p50
F0.0013518227304301679
sS'information'
p51
F0.0024940737412430078
ssS'education'
p52
(dp53
VBachelor
p54
F0.00067451422085742997
sVMaster
p55
F0.0019138844819521945
ssS'responsibility'
p56
(dp57
S'development'
p58
F0.00091763445649454991
sS'information'
p59
F0.0024940737412430078
sS'product'
p60
F0.0011360429904876369
sS'data collection'
p61
F0.012048663661427048
sS'processing'
p62
F0.0031616973980554339
sS'due diligence'
p63
F0.02128792657219666
sS'design'
p64
F0.0013518227304301679
sS'ownership'
p65
F0.012607455403281653
sS'report'
p66
F0.0025308986839970024
sS'presentation'
p67
F0.0033577305598116772
sS'documentation'
p68
F0.0044569920912406894
ss.