(dp1
S'skills'
p2
(dp3
S'communication'
p4
F0.0097726503648818287
sS'information retrieval'
p5
F0.021663709894957858
sS'engineering'
p6
F0.0075608319572447813
sS'data mining'
p7
F0.013098637831371218
sS'research'
p8
F0.0052664218621094952
sS'perl'
p9
F0.017691671261045483
sS'computer science'
p10
F0.0086789090320198801
sS'natural language processing'
p11
F0.015468877357779647
sS'matlab'
p12
F0.0078790196767781779
sS'python'
p13
F0.0064352038611514319
sS'collaboration'
p14
F0.015788082839959593
sS'processing'
p15
F0.030242371975383701
sS'search'
p16
F0.11488851028332472
sS'knowledge representation'
p17
F0.037400855550034959
sS'data'
p18
F0.00073210794984242538
sS'a'
F0.011543468479098928
sS'c'
F0.0077198884191240569
sS'science'
p19
F0.0043397153592227922
sS'analysis'
p20
F0.002114930381198333
sS'machine learning'
p21
F0.0040464056903335762
sS'r'
F0.0068517568717770512
sS'statistical tools'
p22
F0.03587703194753275
sS'scripting'
p23
F0.015019039366954711
ssS'working-year'
p24
(dp25
S'[0]'
p26
F0.013556881052743101
ssS'major'
p27
(dp28
VEngineering
p29
F0.013903573622016836
sVComputer Science
p30
F0.0055886157182234424
ssS'education'
p31
(dp32
VDoctor
p33
F0.0067233442702251105
ssS'responsibility'
p34
(dp35
S'information'
p36
F0.017124755549745612
sS'processing'
p37
F0.030242371975383701
sS'analysis'
p38
F0.002114930381198333
sS'understand'
p39
F0.012973332181754785
sS'data mining'
p40
F0.013098637831371218
sS'report'
p41
F0.012810348272669313
ss.