(dp1
S'skills'
p2
(dp3
S'r d'
p4
F0.0008608274881859064
sS'communication'
p5
F0.0016436957927140853
sS'data science'
p6
F0.0039015253926782088
sS'information technology'
p7
F0.010635416483455031
sS'relational databases'
p8
F0.01083406335269649
sS'writing'
p9
F0.0043988522305764503
sS'education'
p10
F0.0062358794973760047
sS'deep learning'
p11
F0.0059406271327741914
sS'r programming'
p12
F0.0067761600497821808
sS'research'
p13
F0.0059965936803959789
sS'access'
p14
F0.00382206520875013
sS'emacs'
p15
F0.014913529319279337
sS'bash'
p16
F0.0087133276245963034
sS'innovation'
p17
F0.0078508183641194679
sS'medicine'
p18
F0.0097482368834152389
sS'tensorflow'
p19
F0.015855643389568547
sS'data management'
p20
F0.0048990122993853372
sS'python'
p21
F0.003046187267716491
sS'collaboration'
p22
F0.003798439586385623
sS'data scientist'
p23
F0.00038798174961589434
sS'data quality'
p24
F0.0061866315203994238
sS'sql'
p25
F0.0039602971763048863
sS'data'
p26
F0.0037793801383050329
sS'statistical programming'
p27
F0.0084097039214221098
sS'project management'
p28
F0.0097280027031474165
sS'word'
p29
F0.0062868735182392034
sS'science'
p30
F0.012307364895663052
sS'microsoft word'
p31
F0.0097933228409919429
sS'programming'
p32
F0.002178899938158829
sS'analysis'
p33
F0.0010509643606399835
sS'machine learning'
p34
F0.0033230117295838316
sS'r'
F0.0016709407710797527
sS'command'
p35
F0.0072602217239662852
sS'architecture'
p36
F0.0037622099575399326
sS'healthcare'
p37
F0.0089535198251812134
sS'hipaa'
p38
F0.011760333201125343
sS'powerpoint'
p39
F0.011895786779299445
ssS'working-year'
p40
(dp41
V(2, 5]
p42
F0.0016455634214860876
ssS'major'
p43
(dp44
S'information'
p45
F0.0013176238632981929
sS'health sciences'
p46
F0.012610362315085706
sS'computing'
p47
F0.0044659640726068608
sS'science'
p48
F0.012307364895663052
sS'data science'
p49
F0.0039015253926782088
sS'machine learning'
p50
F0.0033230117295838316
sS'information technology'
p51
F0.010635416483455031
sS'communication'
p52
F0.0016436957927140853
sS'medicine'
p53
F0.0097482368834152389
sS'project management'
p54
F0.0097280027031474165
ssS'education'
p55
(dp56
VBachelor
p57
F0.00071269427109464298
sVMaster
p58
F0.0020222175658362812
ssS'responsibility'
p59
(dp60
S'interface'
p61
F0.0048814337257583962
sS'information'
p62
F0.0013176238632981929
sVinsight
p63
F0.0043650368112161343
sS'presentation'
p64
F0.0035477907801783762
sS'analysis'
p65
F0.0010509643606399835
ss.