(dp1
S'skills'
p2
(dp3
S'r d'
p4
F0.0012634298826605457
sS'healthcare industry'
p5
F0.012869459010272314
sS'data science'
p6
F0.0057262388071000168
sS'data mining'
p7
F0.013654069995584932
sS'experimentation'
p8
F0.010841054742312221
sS'visualization'
p9
F0.015300501905246745
sS'management'
p10
F0.0026207200280283865
sS'big data'
p11
F0.0067790347913233191
sS'excel'
p12
F0.005997258795558914
sS'user interface'
p13
F0.012448360718865986
sS'computer science'
p14
F0.0050879781381849912
sS'data management'
p15
F0.0071902426670978634
sS'data analysis'
p16
F0.0085815931607738285
sS'data modeling'
p17
F0.0082553976382712009
sS'marketing'
p18
F0.0052481296120289542
sS'data scientist'
p19
F0.00056943782943625102
sS'sql'
p20
F0.0029062488509191244
sS'modeling'
p21
F0.0029712774704681402
sS'training'
p22
F0.016554010259342476
sS'word'
p23
F0.009227195902154154
sS'data visualization'
p24
F0.0052654029067200651
sS'analysis'
p25
F0.0015424923077700682
sS'machine learning'
p26
F0.0048771587538815001
sS'r'
F0.0024524269163232063
sS'healthcare'
p27
F0.0065705060870945211
sS'powerpoint'
p28
F0.0087296773749628229
sS'microsoft azure'
p29
F0.015127801288046517
ssS'working-year'
p30
(dp31
V[0]
p32
F0.0043882168380382927
ssS'major'
p33
(dp34
S'management'
p35
F0.0026207200280283865
sS'business'
p36
F0.0036360520509064308
sS'big data'
p37
F0.0067790347913233191
sS'marketing'
p38
F0.0052481296120289542
sS'data science'
p39
F0.0057262388071000168
sS'statistic'
p40
F0.002734202898752135
sS'machine learning'
p41
F0.0048771587538815001
sS'computer science engineering'
p42
F0.0093163839413283999
sS'computer science'
p43
F0.0050879781381849912
sS'data mining'
p44
F0.013654069995584932
sS'applied math'
p45
F0.007658039587452618
sS'ee computer science'
p46
F0.0069534632502401958
sS'data mining machine learning'
p47
F0.010244919525079155
ssS'education'
p48
(dp49
VBachelor
p50
F0.0010460158994219837
sVMaster
p51
F0.0029679931658581726
ssS'responsibility'
p52
(dp53
S'development'
p54
F0.0014230392802253944
sS'product'
p55
F0.010570443086875738
sS'data analysis'
p56
F0.0085815931607738285
sVinsight
p57
F0.0064065309506156796
sS'analysis'
p58
F0.0015424923077700682
sS'data mining'
p59
F0.013654069995584932
sS'interface'
p60
F0.0071644427298053993
sS'modeling'
p61
F0.0029712774704681402
sS'model'
p62
F0.013599776716046183
sS'transformation'
p63
F0.0074608907758587899
ss.