(dp1
S'skills'
p2
(dp3
S'speech recognition'
p4
F0.023285241864915492
sS'forecasting'
p5
F0.011871372493240155
sS'communication'
p6
F0.0064095925470075161
sS'cluster'
p7
F0.028442516619590904
sS'networking'
p8
F0.014706039039031527
sS'big data'
p9
F0.0051527333051120143
sS'deep learning'
p10
F0.012609480497544335
sS'storage'
p11
F0.0151437310224553
sS'hadoop'
p12
F0.0052016457546541087
sS'research'
p13
F0.0034540904520718148
sS'computer vision'
p14
F0.014311085276057586
sS'computer science'
p15
F0.005692239931932068
sS'natural language processing'
p16
F0.01014557948162066
sS'artificial intelligence'
p17
F0.011204925344432248
sS'government'
p18
F0.010555139739388524
sS'python'
p19
F0.0021103300111468258
sS'processing'
p20
F0.0066116926585859112
sS'mpi'
p21
F0.020538970568961486
sS'spark'
p22
F0.0068264600134237191
sS'data'
p23
F0.00096033593420625845
sS'c'
F0.0050632466554578837
sS'science'
p24
F0.0028462910453202124
sS'machine learning'
p25
F0.0026539179021621024
sS'data center'
p26
F0.017469557990795279
sS'architecture'
p27
F0.0088543098084399117
sS'computational neuroscience'
p28
F0.023053832039451008
sS'electrical engineering'
p29
F0.016051113697889943
ssS'working-year'
p30
(dp31
V(2, 5]
p32
F0.0050159693458750425
ssS'major'
p33
(dp34
VBusiness
p35
F0.0043794103124458065
sVElectrical and Electronics Engineering
p36
F0.012739387025809642
sVEngineering
p37
F0.0091189430233470752
sVCognitive Science
p38
F0.017441345133135638
sVComputer Science
p39
F0.0036654078799684118
sVMathematics
p40
F0.0069403746136941372
ssS'education'
p41
(dp42
VBachelor
p43
F0.0036897928245745214
sVMaster
p44
F0.0029444562154824975
ssS'responsibility'
p45
(dp46
S'product'
p47
F0.0054453153470354117
sS'processing'
p48
F0.0066116926585859112
sS'forecasting'
p49
F0.011871372493240155
sS'recommendation'
p50
F0.010575715566065876
sS'model'
p51
F0.0062648212222738498
sS'transformation'
p52
F0.012730595689606746
ss.