(dp1
S'skills'
p2
(dp3
S'reverse engineering'
p4
F0.019759852489662527
sS'management'
p5
F0.0051334213439073783
sS'networking'
p6
F0.010290061310597131
sS'government'
p7
F0.007385607692999902
sS'deep learning'
p8
F0.008823064257488529
sS'collaboration'
p9
F0.0072455224364687083
sS'analysis'
p10
F0.00097059127975674211
sS'machine learning'
p11
F0.0018569907134108764
sS'access'
p12
F0.013141427904229206
sS'risk management'
p13
F0.0089511538979836734
sS'engineering'
p14
F0.0034698435611151693
sS'leadership'
p15
F0.0046810442527020456
sS'product innovation'
p16
F0.015977987193836567
sS'communication'
p17
F0.0044848990343083752
sS'go'
p18
F0.0092887059349224584
sS'security'
p19
F0.092861932679311268
sS'research'
p20
F0.0024168848205714968
sS'data'
p21
F0.00033598155205233121
sS'insurance'
p22
F0.10718996306684492
sS'project management'
p23
F0.0053865533238655703
ssS'working-year'
p24
(dp25
V(5, 10]
p26
F0.003415422837328212
ssS'major'
p27
(dp28
VEngineering
p29
F0.0034698435611151693
sVComputer Science
p30
F0.0025647471568050928
sVBusiness
p31
F0.00306434659256123
sVManagement Science and Engineering
p32
F0.0036531006755492704
ssS'education'
p33
(dp34
S'Bachelor'
p35
F0.0025818097101130504
ssS'responsibility'
p36
(dp37
S'analytic'
p38
F0.019187472852404897
sS'product'
p39
F0.015240712642694014
sS'understand'
p40
F0.0059537671768959645
sS'analysis'
p41
F0.00097059127975674211
sS'recommendation'
p42
F0.0074000049428279641
ss.