(dp1
S'skills'
p2
(dp3
S'research design'
p4
F0.0098016934886861785
sS'consulting'
p5
F0.0056437903294897411
sS'r d'
p6
F0.0011218981198488451
sS'communication'
p7
F0.0021421936970617995
sS'data science'
p8
F0.0050847748970150423
sS'analytics'
p9
F0.0027745329064948281
sS'engineering'
p10
F0.0028475781709859259
sS'data mining'
p11
F0.012124515706462028
sVpanda
p12
F0.0096455274061290376
sS'clustering'
p13
F0.007001606380904358
sS'open source'
p14
F0.0068955636143101353
sS'big data'
p15
F0.0060196347190712533
sS'anomaly detection'
p16
F0.010482594275599453
sS'predictive modeling'
p17
F0.0059107547788247701
sS'tableau'
p18
F0.0054328924080188894
sS'fortran'
p19
F0.017220831383531605
sS'matlab'
p20
F0.0060445298559105558
sS'numpy'
p21
F0.010406342423812494
sS'operations research'
p22
F0.014469482808538743
sS'computer science'
p23
F0.0045180133740713724
sS'teradata'
p24
F0.057535153340964297
sS'theory'
p25
F0.0080311975394932109
sS'python'
p26
F0.0039700309472698531
sS'marketing'
p27
F0.0046602243822661477
sS'collaboration'
p28
F0.004950425362584541
sS'data scientist'
p29
F0.00050564834581087867
sS'scipy'
p30
F0.011992310326004686
sS'aerospace'
p31
F0.012428453261752603
sS'sql'
p32
F0.0025806854550511349
sS'modeling'
p33
F0.00263842944782007
sS'spark'
p34
F0.0043293132497065233
sS'data'
p35
F0.0035182754214900477
sS'statistical programming'
p36
F0.010960187897591111
sS'octave'
p37
F0.013670891216482605
sS'scikit-learn'
p38
F0.0099673300848330381
sS'java'
p39
F0.0038507692204098752
sS'programming'
p40
F0.0028397138538299488
sS'analysis'
p41
F0.0013696994536209622
sS'machine learning'
p42
F0.0043308103688838454
sS'data architecture'
p43
F0.0091284894387192277
sS'r'
F0.0021777014967350873
sS'architecture'
p44
F0.004903208059416797
sS'organization'
p45
F0.0058549858126508121
sS'rapid prototyping'
p46
F0.01270466938084445
sS'data integration'
p47
F0.0095522706052935686
sS'predictive analytics'
p48
F0.013931598935085991
ssS'working-year'
p49
(dp50
V(2, 5]
p51
F0.0021446277378384254
ssS'major'
p52
(dp53
S'information'
p54
F0.0017172311005279727
sS'big data'
p55
F0.0060196347190712533
sS'mathematics statistics'
p56
F0.0090972646056030754
sS'marketing'
p57
F0.0046602243822661477
sS'data science'
p58
F0.0050847748970150423
sS'data mining'
p59
F0.012124515706462028
sS'communication'
p60
F0.0021421936970617995
sS'general'
p61
F0.0063334988936485969
sS'analytics'
p62
F0.0027745329064948281
sS'engineering'
p63
F0.0028475781709859259
sS'data science operations research'
p64
F0.016932961678068709
sS'design'
p65
F0.0018615263828874445
sS'computer science'
p66
F0.0045180133740713724
sS'phd'
p67
F0.004602711966445551
sS'statistic'
p68
F0.0024279124100941088
sS'computer science engineering'
p69
F0.0082727453030921588
sS'machine learning'
p70
F0.0043308103688838454
sS'operations research'
p71
F0.014469482808538743
sS'predictive analytics'
p72
F0.013931598935085991
ssS'education'
p73
(dp74
VMaster
p75
F0.0026355130571144975
sVDoctor
p76
F0.0034772258398398695
ssS'responsibility'
p77
(dp78
S'development'
p79
F0.0012636277761564295
sS'information'
p80
F0.0017172311005279727
sS'exploratory analysis'
p81
F0.012535612568419006
sS'pattern'
p82
F0.009921300867256266
sS'analysis'
p83
F0.0013696994536209622
sS'analytic'
p84
F0.0081665705093247193
sS'design'
p85
F0.0018615263828874445
sS'data mining'
p86
F0.012124515706462028
sS'modeling'
p87
F0.00263842944782007
sS'model'
p88
F0.0020127174101616618
sS'prototype'
p89
F0.0065143362559763572
ss.