(dp1
S'skills'
p2
(dp3
S'java'
p4
F0.0082419972787720133
sS'cancer'
p5
F0.05212874107404733
sS'laboratory'
p6
F0.044872859706074852
sS'data scientist'
p7
F0.0010822648805074947
sS'processing'
p8
F0.0093186870679528577
sS'programming'
p9
F0.006077984038021996
sS'engineering'
p10
F0.0060948164361453146
sS'machine learning'
p11
F0.0092694537719970032
sS'access'
p12
F0.021323100638290196
sS'computer vision'
p13
F0.024082085815666014
sS'computer science'
p14
F0.0096701338883632866
sS'natural language processing'
p15
F0.02981851000141212
sS'policy'
p16
F0.013764987050632256
sS'pattern recognition'
p17
F0.022436429853037426
sS'research'
p18
F0.0055757800887892431
sS'data'
p19
F0.0015060687769185468
sS'insurance'
p20
F0.01477378582937819
sS'artificial intelligence'
p21
F0.039076340755219145
ssS'working-year'
p22
(dp23
V(2, 5]
p24
F0.0045902558599348756
ssS'major'
p25
(dp26
S'machine learning engineer'
p27
F0.026601250840944165
sS'artificial intelligence machine learning'
p28
F0.03163163190237734
sS'engineering'
p29
F0.0060948164361453146
sS'computer science'
p30
F0.0096701338883632866
sS'natural language processing'
p31
F0.02981851000141212
sS'machine learning'
p32
F0.0092694537719970032
sS'artificial intelligence'
p33
F0.039076340755219145
ssS'education'
p34
(dp35
VMaster
p36
F0.0056409226836485731
sVDoctor
p37
F0.0074424833764993696
ssS'responsibility'
p38
(dp39
S'report'
p40
F0.0074594908580964282
sS'pattern'
p41
F0.010617532507063723
sS'processing'
p42
F0.0093186870679528577
sS'recommendation'
p43
F0.010713326862110947
ss.