(dp1
S'skills'
p2
(dp3
S'negotiation'
p4
F0.0072878987709329461
sS'oncology'
p5
F0.0096589447416187933
sS'data analysis'
p6
F0.0049803888879490967
sS'product development'
p7
F0.0036943612331805532
sS'drug development'
p8
F0.01106689995388062
sS'data management'
p9
F0.0041729086907264382
sS'data scientist'
p10
F0.0003304773117263957
sS'due diligence'
p11
F0.019159133914976995
sS'analysis'
p12
F0.00089519642861655741
sS'data acquisition'
p13
F0.0070467669096069508
sS'pharmaceutical industry'
p14
F0.011465369854590185
sS'leadership'
p15
F0.0081638402291259234
sS'mentoring'
p16
F0.0049994005205738126
sS'devops'
p17
F0.0061383645455856221
sS'communication'
p18
F0.0014000765948653903
sS'management'
p19
F0.019772396640035595
sS'strategy'
p20
F0.002507855993046957
sS'data'
p21
F0.0082779994559915842
sS'cro'
p22
F0.01106689995388062
sS'project management'
p23
F0.0082861737310737805
sS'r d'
p24
F0.00073324055690120952
ssS'working-year'
p25
(dp26
V(5, 10]
p27
F0.0021583740291595687
ssS'major'
p28
(dp29
S'communication'
p30
F0.0014000765948653903
sS'management'
p31
F0.019772396640035595
sS'design'
p32
F0.0012166404573871511
sS'project management'
p33
F0.0082861737310737805
sS'law'
p34
F0.0031915326151404403
ssS'education'
p35
(dp36
VBachelor
p37
F0.00060706279877168693
sVMaster
p38
F0.0017224960337569751
ssS'responsibility'
p39
(dp40
S'development'
p41
F0.0024776130325352848
sS'product'
p42
F0.0010224386914388733
sS'data analysis'
p43
F0.0049803888879490967
sS'decision-making'
p44
F0.0053047664560232086
sS'due diligence'
p45
F0.019159133914976995
sS'analysis'
p46
F0.00089519642861655741
sS'design'
p47
F0.0012166404573871511
sS'ownership'
p48
F0.011346709862953488
sS'report'
p49
F0.002277808815597302
sS'presentation'
p50
F0.0030219575038305095
ss.