(dp1
S'skills'
p2
(dp3
S'data analysis'
p4
F0.019640970262334467
sS'r d'
p5
F0.0028916529004554743
sS'python'
p6
F0.010232614976765959
sS'science'
p7
F0.031006759094531381
sS'data science'
p8
F0.013105828255686659
sS'data scientist'
p9
F0.001303290806808321
sS'analysis'
p10
F0.0035303521128540291
sS'strategy'
p11
F0.0098901363106077174
sVpanda
p12
F0.024861007258050901
sS'e-commerce'
p13
F0.02891277716856196
sS'r'
F0.0056129489282045215
sS'sql'
p14
F0.0066516258911881367
sS'machine learning'
p15
F0.011162511232475265
sS'data'
p16
F0.0054409386095719331
sS'research'
p17
F0.006714495740725075
ssS'working-year'
p18
(dp19
V[0]
p20
F0.010043454030721445
ssS'major'
p21
(dp22
S'science'
p23
F0.031006759094531381
sS'data science'
p24
F0.013105828255686659
sS'business'
p25
F0.0055479667443407979
sS'machine learning'
p26
F0.011162511232475265
ssS'education'
p27
(dp28
S'Bachelor'
p29
F0.0023940504740291883
ssS'responsibility'
p30
(dp31
S'development'
p32
F0.0032569560991074168
sS'data analysis'
p33
F0.019640970262334467
sVinsight
p34
F0.0073314174610918876
sS'analysis'
p35
F0.0035303521128540291
sS'solve problem'
p36
F0.021322709724871339
sS'model'
p37
F0.0051877082543603393
sS'prototype'
p38
F0.01679047232174188
ss.