(dp1
S'skills'
p2
(dp3
S'visualization'
p4
F0.015363075999458766
sS'open source'
p5
F0.013106228442287274
sS'analytics'
p6
F0.0071289955900289076
sS'python'
p7
F0.0021362766916117461
sS'marketing'
p8
F0.0078082562396620857
sS'javascript'
p9
F0.0090878877623850173
sS'excel'
p10
F0.0066268615852707602
sS'sales'
p11
F0.013625429263077886
sS'analysis'
p12
F0.0014041750891562704
sS'd3.js'
p13
F0.014195544545246705
sS'online marketing'
p14
F0.019029068552389571
sS'engineering'
p15
F0.0050198966273510438
sS'r'
F0.0022745586336636934
sS'data'
p16
F0.0019442866864667692
sS'sql'
p17
F0.0027948518804633078
sS'intelligence'
p18
F0.0064346664339622094
sS'strategy'
p19
F0.0064549648820771922
sS'banking'
p20
F0.014074999666222769
sS'd3'
p21
F0.01237784136141514
ssS'working-year'
p22
(dp23
V(2, 5]
p24
F0.0050776411001276049
ssS'major'
p25
(dp26
VData Science
p27
F0.0042102007483814045
sVEconomics
p28
F0.0067244735554281183
sVEngineering
p29
F0.0092310611752734733
ssS'education'
p30
(dp31
VBachelor
p32
F0.0037351591297946998
ssS'responsibility'
p33
(dp34
S'product'
p35
F0.011024531891129072
sS'decision-making'
p36
F0.015049325597480012
sS'data infrastructure'
p37
F0.017742071215818944
sS'insight'
p38
F0.0075200547377437922
sS'analysis'
p39
F0.0014041750891562704
sS'cross-functionally'
p40
F0.020853129157472103
sS'drive ... decision'
p41
F0.016541322699709485
ss.