(dp1
S'skills'
p2
(dp3
S'communication'
p4
I1
sS'energy'
p5
I1
sS'information retrieval'
p6
I1
sS'engineering'
p7
I1
sS'data mining'
p8
I1
sS'quantitative analysis'
p9
I1
sS'insurance'
p10
I1
sS'user experience'
p11
I1
sS'arm'
p12
I1
sS'music'
p13
I1
sS'computer science'
p14
I1
sS'mathematics'
p15
I1
sS'data science'
p16
I1
sS'product development'
p17
I1
sS'python'
p18
I1
sS'aws'
p19
I1
sS'collaboration'
p20
I1
sS'data scientist'
p21
I1
sS'spark'
p22
I1
sS'data'
p23
I1
sS'fda'
p24
I1
sS'b testing'
p25
I1
sS'science'
p26
I1
sS'machine learning'
p27
I1
sS'emr'
p28
I1
sS'oracle'
p29
I1
sS'organization'
p30
I1
ssS'working-year'
p31
(dp32
V(2, 5]
p33
I1
ssS'major'
p34
(dp35
S'information'
p36
I1
sS'business'
p37
I1
sS'communication'
p38
I1
sS'data science'
p39
I1
sS'data mining'
p40
I1
sS'machine learning'
p41
I1
sS'engineering'
p42
I1
sS'music'
p43
I1
sS'computer science'
p44
I1
sS'statistic'
p45
I1
sS'mathematics'
p46
I1
sS'phd'
p47
I1
sS'information retrieval'
p48
I1
sVphysic
p49
I1
sS'science'
p50
I1
ssS'education'
p51
(dp52
VMaster
p53
I1
sVDoctor
p54
I1
ssS'responsibility'
p55
(dp56
S'development'
p57
I1
sS'information'
p58
I1
sS'product'
p59
I1
sS'communicate'
p60
I1
sS'statistical method'
p61
I1
sS'data mining'
p62
I1
sS'report'
p63
I1
sS'model'
p64
I1
sS'quantitative analysis'
p65
I1
ss.