(dp1
S'skills'
p2
(dp3
S'r d'
p4
F0.0010949725649724729
sS'communication'
p5
F0.0020907810483323163
sS'information retrieval'
p6
F0.019093834561174493
sS'engineering'
p7
F0.0027792362948822636
sS'c++'
p8
F0.007178592778896104
sS'data mining'
p9
F0.011833527329506939
sS'go'
p10
F0.0074836675179103807
sS'java'
p11
F0.0037583507591200378
sS'data'
p12
F0.0034338368113742868
sS'hadoop'
p13
F0.00317280320559615
sS'perl'
p14
F0.0078797911258613341
sS'r'
F0.0021254366608134453
sS'computer science'
p15
F0.0044095810530936589
sS'natural language processing'
p16
F0.013597240560643927
sS'mathematics'
p17
F0.0043223705880579069
sS'root cause analysis'
p18
F0.013037697727691446
sS'advertising'
p19
F0.0078797911258613341
sS'data analysis'
p20
F0.0074373807393373174
sS'python'
p21
F0.0038747502045353762
sS'processing'
p22
F0.0042493213029865034
sS'data scientist'
p23
F0.00049351278551141751
sS'training'
p24
F0.0047822696304767147
sS'leadership'
p25
F0.0040637782473871261
sS'mentoring'
p26
F0.0074657714440568932
sS'octave'
p27
F0.013342789827287023
sS'sql'
p28
F0.0025187490041299076
sS'modeling'
p29
F0.0025751071410723882
sS'spark'
p30
F0.0042254097317135668
sS'ruby'
p31
F0.00856485409578037
sS'arena'
p32
F0.013687352274353531
sS'search'
p33
F0.053786488121104904
sS'applied mathematics'
p34
F0.015112955425777543
sS'hive'
p35
F0.0052670829973680043
sS'machine learning'
p36
F0.004226870920030633
sS'optimization'
p37
F0.0051336454968040216
sS'operations research'
p38
F0.014122215221133813
sS'root'
p39
F0.0092177425367432116
ssS'working-year'
p40
(dp41
V(2, 5]
p42
F0.0020931566721303033
ssS'major'
p43
(dp44
S'data mining'
p45
F0.011833527329506939
sS'information'
p46
F0.0016760175541153013
sS'natural language processing'
p47
F0.013597240560643927
sS'business'
p48
F0.003151245110785573
sS'communication'
p49
F0.0020907810483323163
sS'applied mathematics'
p50
F0.015112955425777543
sS'statistic'
p51
F0.0023696425122518502
sS'statistics applied mathematics'
p52
F0.011704494878180573
sS'machine learning'
p53
F0.004226870920030633
sS'engineering'
p54
F0.0027792362948822636
sS'design'
p55
F0.0054505492490944376
sS'computer science'
p56
F0.0044095810530936589
sS'applied math'
p57
F0.0066369676424589356
sS'mathematics'
p58
F0.0043223705880579069
sS'phd'
p59
F0.0044922468792508571
sS'information retrieval'
p60
F0.019093834561174493
sS'computer science economics'
p61
F0.012763955487074532
sS'operations research'
p62
F0.014122215221133813
ssS'education'
p63
(dp64
VMaster
p65
F0.0025722607437437496
sVDoctor
p66
F0.0033937724196837125
ssS'responsibility'
p67
(dp68
S'development'
p69
F0.0012333007095286751
sS'information'
p70
F0.0016760175541153013
sS'product'
p71
F0.0045805253376461526
sS'processing'
p72
F0.0042493213029865034
sS'business problem'
p73
F0.00492968699654455
sS'understand'
p74
F0.0071520892884059002
sS'pattern'
p75
F0.0048415948232210576
sVinsight
p76
F0.0027761634119334612
sS'communicate'
p77
F0.0032930885682510079
sS'recommendation'
p78
F0.0048852770491225926
sS'data analysis'
p79
F0.0074373807393373174
sS'design'
p80
F0.0054505492490944376
sS'solve problem'
p81
F0.0080741994158179467
sS'data mining'
p82
F0.011833527329506939
sS'modeling'
p83
F0.0025751071410723882
sS'implement'
p84
F0.003549230063925604
sS'optimization'
p85
F0.0051336454968040216
ss.