(dp1
S'skills'
p2
(dp3
S'r d'
p4
F0.0023198571291789681
sS'communication'
p5
F0.0044296208651108393
sS'data science'
p6
F0.01051428029552263
sS'hadoop'
p7
F0.0067220406898223515
sS'analytics'
p8
F0.005737169738853712
sS'd3'
p9
F0.019314550417666915
sS'java'
p10
F0.0079626075405085546
sS'scala'
p11
F0.012615557633216598
sS'tableau'
p12
F0.011234116504717026
sS'music'
p13
F0.025921097175374896
sS'computer science'
p14
F0.0093423327396052105
sS'mac os'
p15
F0.030308234441771519
sS'python'
p16
F0.0041046082675162887
sS'data scientist'
p17
F0.0010455779354055458
sS'sql'
p18
F0.0053363326358684482
sS'spark'
p19
F0.0089521392621050144
sS'pig'
p20
F0.014418587373360969
sS'data'
p21
F0.002910031196079904
sS'data visualization'
p22
F0.009668112681830628
sS'presto'
p23
F0.032723163182804486
sS'mac os x'
p24
F0.034475446315407839
sS'applied mathematics'
p25
F0.03201897335969818
sS'hive'
p26
F0.011159074146966111
sS'machine learning'
p27
F0.0089552350000649018
sS'os x'
p28
F0.030067785792274516
ssS'working-year'
p29
(dp30
V[0]
p31
F0.0080574602958330237
ssS'major'
p32
(dp33
S'business'
p34
F0.0044509111734259508
sS'mathematics statistics'
p35
F0.018811292913280937
sS'communication'
p36
F0.0044296208651108393
sS'applied mathematics'
p37
F0.03201897335969818
sS'applied math'
p38
F0.014061372123853676
sS'machine learning'
p39
F0.0089552350000649018
sS'analytics'
p40
F0.005737169738853712
sS'music'
p41
F0.025921097175374896
sS'computer science'
p42
F0.0093423327396052105
sS'statistic'
p43
F0.010040858102762076
sS'computer science applied math'
p44
F0.027936192610872792
sS'applied mathematics statistics'
p45
F0.032723163182804486
sS'data science'
p46
F0.01051428029552263
ssS'education'
p47
(dp48
VMaster
p49
F0.0054497049655587914
sVDoctor
p50
F0.0071901958044146451
ssS'responsibility'
p51
(dp52
S'product'
p53
F0.006469668555997391
sVinsight
p54
F0.017645106431780473
sS'communicate'
p55
F0.01395376511970766
ss.