(dp1
S'skills'
p2
(dp3
S'visualization'
p4
F0.009925475287834714
sS'training'
p5
F0.016107944114629652
sS'networking'
p6
F0.011066020387764972
sS'r d'
p7
F0.0012293853648643034
sS'big data'
p8
F0.0065963661891619129
sS'communication'
p9
F0.0023474338117503552
sS'documentation'
p10
F0.013451041999912022
sS'storage'
p11
F0.027386730393343536
sS'data'
p12
F0.0077107114027865718
sS'access'
p13
F0.010916916793855163
sS'leadership'
p14
F0.0045626252777550072
sS'computer science'
p15
F0.0049508769308686295
sS'rapid prototyping'
p16
F0.013921883213739727
sS'electrical engineering'
p17
F0.020698523660351523
sS'microsoft office'
p18
F0.010272979580200367
ssS'working-year'
p19
(dp20
V[0]
p21
F0.004269971474139057
ssS'major'
p22
(dp23
S'information'
p24
F0.0075270249436315932
sS'business'
p25
F0.0023587164002886029
sS'big data'
p26
F0.0065963661891619129
sS'communication'
p27
F0.0023474338117503552
sS'phd'
p28
F0.0050436903584403338
sS'computer science'
p29
F0.0049508769308686295
sS'mechanical'
p30
F0.013677340647311036
sS'electrical engineering'
p31
F0.020698523660351523
sS'material science engineering'
p32
F0.025449243221676788
ssS'education'
p33
(dp34
VDoctor
p35
F0.0038103732256927914
ssS'responsibility'
p36
(dp37
S'development'
p38
F0.0041540817311968847
sS'information'
p39
F0.0075270249436315932
sS'product'
p40
F0.003428536929375863
sS'documentation'
p41
F0.013451041999912022
ss.