(dp1
S'skills'
p2
(dp3
S'research design'
p4
I1
sS'communication'
p5
I1
sS'engineering'
p6
I1
sS'pricing'
p7
I1
sS'clustering'
p8
I1
sS'big data'
p9
I1
sS'predictive modeling'
p10
I1
sS'research'
p11
I1
sS'big data analytics'
p12
I1
sS'mathematics'
p13
I1
sS'python'
p14
I1
sS'data scientist'
p15
I1
sS'sql'
p16
I1
sS'modeling'
p17
I1
sS'applied mathematics'
p18
I1
sS'economics'
p19
I1
sS'programming'
p20
I1
sS'analysis'
p21
I1
sS'engineering management'
p22
I1
sS'banking'
p23
I1
sS'r'
I1
sS'logistic regression'
p24
I1
sS'shiny'
p25
I1
sS'data analytics'
p26
I1
ssS'working-year'
p27
(dp28
V[0]
p29
I1
ssS'major'
p30
(dp31
S'engineering management'
p32
I1
sS'business'
p33
I1
sS'big data'
p34
I1
sS'communication'
p35
I1
sS'applied mathematics'
p36
I1
sS'economics'
p37
I1
sS'big data analytics'
p38
I1
sS'management science'
p39
I1
sS'engineering'
p40
I1
sS'design'
p41
I1
sS'statistic'
p42
I1
sS'mathematics'
p43
I1
sS'applied math'
p44
I1
sS'data analytics'
p45
I1
ssS'education'
p46
(dp47
VMaster
p48
I1
sVDoctor
p49
I1
ssS'responsibility'
p50
(dp51
S'product'
p52
I1
sS'business problem'
p53
I1
sS'understand'
p54
I1
sVinsight
p55
I1
sS'analysis'
p56
I1
sS'statistical model'
p57
I1
sS'analytic'
p58
I1
sS'design'
p59
I1
sS'modeling'
p60
I1
sS'model'
p61
I1
sS'prototype'
p62
I1
ss.