(dp1
S'skills'
p2
(dp3
S'digital marketing'
p4
F0.0084323059094744968
sS'probability'
p5
F0.0081307468715329911
sS'data science'
p6
F0.0044100180386433784
sS'regression'
p7
F0.005676172856764531
sS'instrumentation'
p8
F0.011929662655075671
sS'java'
p9
F0.0033397666698341574
sS'scala'
p10
F0.0052913594812306593
sS'predictive modeling'
p11
F0.005126389215757976
sS'hadoop'
p12
F0.0028194341281956312
sS'research'
p13
F0.0022593800833719448
sS'optimization'
p14
F0.0045618887708566555
sS'policy'
p15
F0.0055777554162514597
sS'segmentation'
p16
F0.0066742347875372214
sS'python'
p17
F0.0017216010979866898
sS'marketing'
p18
F0.0040418059808279864
sS'c'
F0.005527553523296919
sS'modeling'
p19
F0.002288306108772857
sS'training'
p20
F0.0042496471834804926
sS'decision trees'
p21
F0.011585631867024391
sS'science'
p22
F0.0034778513360374857
sS'machine learning'
p23
F0.0037561056753826721
sS'r'
F0.0018887174118602894
sS'advertising'
p24
F0.014004368114682466
sS'logistic regression'
p25
F0.0087198831648083817
sS'organization'
p26
F0.0025390104353438356
ssS'working-year'
p27
(dp28
V(2, 5]
p29
F0.0018600325877935161
ssS'major'
p30
(dp31
S'science'
p32
F0.0034778513360374857
sS'information'
p33
F0.0029787041838542088
sS'business'
p34
F0.00093342568447439967
sS'marketing'
p35
F0.0040418059808279864
sS'data science'
p36
F0.0044100180386433784
sS'machine learning'
p37
F0.0037561056753826721
sS'applied math'
p38
F0.0058977793031329412
sVphysic
p39
F0.0054017990450743259
sS'data science engineering'
p40
F0.0098799269076875751
ssS'education'
p41
(dp42
S'Bachelor'
p43
F0.00080558096519465572
ssS'responsibility'
p44
(dp45
S'information'
p46
F0.0029787041838542088
sS'pattern'
p47
F0.0043023650680281914
sVinsight
p48
F0.0024669698565759433
sS'optimization'
p49
F0.0045618887708566555
sS'ownership'
p50
F0.0075286226578838321
sS'modeling'
p51
F0.002288306108772857
sS'model'
p52
F0.0034912538962993756
ss.