(dp1
S'skills'
p2
(dp3
S'r d'
p4
F0.002032746098339987
sS'big data'
p5
F0.010906862906832073
sS'apis'
p6
F0.015245336702676058
sS'unstructured data'
p7
F0.01189140240337833
sS'marketing'
p8
F0.008443772890640645
sS'data science'
p9
F0.0092130079817203253
sS'predictive modeling'
p10
F0.010709585391335969
sS'data scientist'
p11
F0.00091617472557812673
sS'machine learning'
p12
F0.0078469138366905333
sS'optimization'
p13
F0.0095302824816906346
sS'personalization'
p14
F0.018809846767358251
sS'intelligence'
p15
F0.0094549212446648316
sS'modeling'
p16
F0.0047805206826838894
sS'data'
p17
F0.0038248182304911607
sS'b2b'
p18
F0.013826722807207471
ssS'working-year'
p19
(dp20
V(0, 2]
p21
F0.0091388731879413904
ssS'major'
p22
(dp23
S'marketing'
p24
F0.008443772890640645
sS'data science'
p25
F0.0092130079817203253
sS'business'
p26
F0.0039000558301801646
sS'big data'
p27
F0.010906862906832073
sS'machine learning'
p28
F0.0078469138366905333
ssS'education'
p29
(dp30
S'Bachelor'
p31
F0.0016829463728323996
ssS'responsibility'
p32
(dp33
S'product'
p34
F0.0028344835010186589
sS'predict'
p35
F0.01689348345114474
sS'communicate'
p36
F0.0061134069955154852
sS'optimization'
p37
F0.0095302824816906346
sS'modeling'
p38
F0.0047805206826838894
sS'model'
p39
F0.0072936096249422589
ss.