(dp1
S'skills'
p2
(dp3
S'nlp'
p4
F0.011842413512270191
sS'data science'
p5
F0.0041477273298641355
sS'information retrieval'
p6
F0.012101796562010941
sS'engineering'
p7
F0.01267091148696884
sS'data mining'
p8
F0.0073171700989039228
sS'quantitative analysis'
p9
F0.026303464427727106
sS'statistics'
p10
F0.0032155615682848433
sS'big data'
p11
F0.0043887073322850601
sS'recruiting'
p12
F0.011892752588335831
sS'computer science'
p13
F0.0048482181489214503
sS'python'
p14
F0.0017974190094940206
sS'statistical modeling'
p15
F0.0061771224834151596
sS'sql'
p16
F0.0023515305477001622
sS'modeling'
p17
F0.0028005023759363878
sS'spark'
p18
F0.0058142607700539953
sS'data'
p19
F0.0020448532392150502
sS'search'
p20
F0.010696516474654371
sS'non-profits'
p21
F0.01983260255391078
sS'science'
p22
F0.0024242547868761808
sS'programming'
p23
F0.0076021740333439714
sS'analysis'
p24
F0.0011814438681176894
sS'machine learning'
p25
F0.0022604059373587562
sS'predictive analytics'
p26
F0.0079396488735475525
ssS'working-year'
p27
(dp28
V(5, 10]
p29
F0.0041573940054374439
sV(2, 5]
p30
F0.004272222167003915
ssS'major'
p31
(dp32
VEngineering
p33
F0.0077668238854025091
sVStatistics
p34
F0.0062120854134071731
sVData Science
p35
F0.0035423758020864228
sVBusiness
p36
F0.0037300494730141869
sVComputer Science
p37
F0.0031219163667317164
ssS'education'
p38
(dp39
S'Bachelor'
p40
F0.003142685612654851
ssS'responsibility'
p41
(dp42
S'development'
p43
F0.0083514551890628876
sS'information'
p44
F0.0047831213776875674
sS'product'
p45
F0.0092758130394327357
sS'data mining'
p46
F0.0073171700989039228
sS'insight'
p47
F0.0063272184689982247
sS'analysis'
p48
F0.0011814438681176894
sS'statistical model'
p49
F0.012382290709030673
sS'model'
p50
F0.0053358994548332438
sS'recommendation'
p51
F0.0090075922235112807
sS'modeling'
p52
F0.0028005023759363878
sS'product decision'
p53
F0.020757648204922673
sS'prototype'
p54
F0.010873004874309268
sS'quantitative analysis'
p55
F0.026303464427727106
sS'implement'
p56
F0.0073029764659296812
ss.