(dp1
S'skills'
p2
(dp3
S'data scientist'
p4
F0.020771993434585849
sS'search'
p5
F0.060823328973524861
sS'data'
p6
F0.009302077480350817
ssS'working-year'
p7
(dp8
S'[0]'
p9
F0.043063033932242797
ssS'major'
p10
(dp11
VData Science
p12
F0.020142921227550247
sVBusiness
p13
F0.021210085238708123
ssS'education'
p14
(dp15
S'Bachelor'
p16
F0.017870173091566799
ssS'responsibility'
p17
(dp18
S'model'
p19
F0.030341389056894916
sS'insight'
p20
F0.035978301098225196
ss.