(dp1
S'skills'
p2
(dp3
S'programming'
p4
F0.0019796862295271642
sS'c'
F0.0044431001653929512
sS'organization'
p5
F0.0020408807689811402
sS'java'
p6
F0.0026845362565143128
sS'r d'
p7
F0.00078212326069462357
sS'asp.net'
p8
F0.010391483557111442
sS'agile'
p9
F0.0036352792591218502
sS'data science'
p10
F0.0035448144996333441
sS'documentation'
p11
F0.0042787124075910621
sS'r programming'
p12
F0.0061566254166592381
sS'hadoop'
p13
F0.00226628800399725
sS'machine learning'
p14
F0.0030191935143075955
sS'technical documentation'
p15
F0.0087775937217183346
sS'organizational leadership'
p16
F0.0094184877945228274
sS'computer science'
p17
F0.0031497007522097564
sS'innovation'
p18
F0.0023776764188476102
sS'go'
p19
F0.01069095359701483
sS'training'
p20
F0.0034159068789119387
sS'vb.net'
p21
F0.011804693284139328
sS'data scientist'
p22
F0.00035250913250815542
ssS'working-year'
p23
(dp24
V[0]
p25
F0.0027165151854522764
ssS'major'
p26
(dp27
S'information'
p28
F0.0023943107915932876
sS'business'
p29
F0.0045017787296936758
sS'data science'
p30
F0.0035448144996333441
sS'machine learning'
p31
F0.0030191935143075955
sS'information system'
p32
F0.0052700354713836901
sS'business management'
p33
F0.008628125528166445
sS'computer science'
p34
F0.0031497007522097564
sS'design'
p35
F0.0012977498212129613
sS'pharmacy'
p36
F0.016783674963095737
sS'general management'
p37
F0.014870286207502548
ssS'education'
p38
(dp39
VBachelor
p40
F0.0006475336520231328
ssS'responsibility'
p41
(dp42
S'development'
p43
F0.0017618581564695359
sS'information'
p44
F0.0023943107915932876
sS'product'
p45
F0.0010906012708681316
sS'documentation'
p46
F0.0042787124075910621
sS'design'
p47
F0.0012977498212129613
sS'model'
p48
F0.0014031515659412726
ss.