(dp1
S'skills'
p2
(dp3
S'insurance'
p4
F0.024711374714339245
sS'programming'
p5
F0.0017277668257599935
sS'probability'
p6
F0.0054621146366355513
sS'communication'
p7
F0.0024814566757223452
sS'energy'
p8
F0.0048361995392634544
sS'sql'
p9
F0.0010688775216818919
sS'd3'
p10
F0.0047338452855568867
sS'problem solving'
p11
F0.0038473540203029012
sS'hbase'
p12
F0.0052480534323512086
sS'd3.js'
p13
F0.0054290170361131597
sVpanda
p14
F0.006900669293251665
sS'visualization'
p15
F0.0088133006517271285
sS'statistics'
p16
F0.0014616188946749288
sS'nosql'
p17
F0.0042897286273769937
sS'critical thinking'
p18
F0.0061461530235282407
sS'hadoop'
p19
F0.0020138032937297252
sS'research'
p20
F0.0040117257444909323
sS'python'
p21
F0.00081700864067910019
sS'html'
p22
F0.0040126719329916837
sS'computer science'
p23
F0.0022037355222370228
sS'natural language processing'
p24
F0.0039278340626337036
sS'policy'
p25
F0.004278461172477664
sS'mathematics'
p26
F0.0028650364922818273
sS'numpy'
p27
F0.005623009876344026
sS'css'
p28
F0.0048170855701927424
sS'data analysis'
p29
F0.0023256457914822338
sS'apis'
p30
F0.0057671087243521147
sS'database design'
p31
F0.0058262613783518656
sS'processing'
p32
F0.0025596991954086518
sS'data scientist'
p33
F0.0016604571554292762
sS'matplotlib'
p34
F0.007091273885696389
sS'advanced analytics'
p35
F0.0046125557278026384
sS'scipy'
p36
F0.0063344634756818778
sS'facebook'
p37
F0.0066988710170622625
sS'algorithm development'
p38
F0.0065970575977298673
sS'spark'
p39
F0.0026428458045699979
sS'data'
p40
F0.00055768724705865008
sS'organization'
p41
F0.0055272220667137344
sVbayesian method
p42
F0.0076933724438162533
sS'machine learning'
p43
F0.0010274572442539802
sS'science'
p44
F0.0022038679880692553
sS'applied mathematics'
p45
F0.0047368506972471887
sS'scikit-learn'
p46
F0.005623009876344026
sS'analysis'
p47
F0.00053701994005349513
sS'django'
p48
F0.0068535265325302512
sS'flask'
p49
F0.0083792965855826341
sS'r'
F0.00086989389751401434
sS'electrical engineering'
p50
F0.0062141458987128775
sS'javascript'
p51
F0.0034756185172757741
sS'military'
p52
F0.011701124050256455
sS'physics'
p53
F0.0038136118768756478
ssS'working-year'
p54
(dp55
V(5, 10]
p56
F0.0018897245479261109
sV(10, 15]
p57
F0.0030680663890256406
ssS'major'
p58
(dp59
VStatistics
p60
F0.0028236751879123514
sVBusiness
p61
F0.0016954770331882667
sVData Science
p62
F0.0016101708191301922
sVElectrical and Electronics Engineering
p63
F0.0049320197419670557
sVEngineering
p64
F0.0035303744933647767
sVComputer Science
p65
F0.0014190528939689619
sVMathematics
p66
F0.0026869475385304887
sVPhysics
p67
F0.0041124327605017094
ssS'education'
p68
(dp69
VBachelor
p70
F0.0014284934602976594
sVMaster
p71
F0.0011399383780943211
sVDoctor
p72
F0.0017071814604646834
ssS'responsibility'
p73
(dp74
S'development'
p75
F0.0018980579975142924
sS'information'
p76
F0.0065224382423012288
sS'product'
p77
F0.0021081393271438036
sS'data analysis'
p78
F0.0023256457914822338
sS'develop ... system'
p79
F0.0073396575093729894
sS'presentation'
p80
F0.0077221139257354441
sS'processing'
p81
F0.0025596991954086518
sS'analysis'
p82
F0.00053701994005349513
sS'develop ... model'
p83
F0.0048587978482384601
sS'design'
p84
F0.0022890576959537267
sS'ownership'
p85
F0.0061760085424567204
sS'report'
p86
F0.0032527843576370358
sS'model'
p87
F0.0024254088431060199
sS'prototype'
p88
F0.0049422749428678489
sS'design ... experiment'
p89
F0.0070381372434109007
sS'decision making'
p90
F0.0051200361284161654
ss.