(dp1
S'skills'
p2
(dp3
S'.net'
p4
F0.011249095040669935
sS'data science'
p5
F0.0035905699273450723
sS'analytics'
p6
F0.0051924624596031439
sS'unix'
p7
F0.0077077277277165668
sS'linux'
p8
F0.0055106807098484461
sS'writing'
p9
F0.0067076427644253518
sS'java'
p10
F0.0036993043810993535
sS'big data'
p11
F0.0037991794816796048
sS'deep learning'
p12
F0.0092971393519207489
sS'research'
p13
F0.0025467472885425022
sS'r'
F0.0033133869051578577
sS'matlab'
p14
F0.0038101527989195965
sS'innovation'
p15
F0.011557162221699844
sS'data management'
p16
F0.0082087107600276737
sS'advertising'
p17
F0.019650133040777847
sS'python'
p18
F0.0015559746649351223
sS'marketing'
p19
F0.028436037648918638
sS'collaboration'
p20
F0.0076348340897715045
sS'data scientist'
p21
F0.003162303478101129
sS'weka'
p22
F0.011608241278153016
sS'spark'
p23
F0.005033240666613906
sS'data'
p24
F0.0014161371686504229
sS'customer experience'
p25
F0.011436108661152971
sS'software development'
p26
F0.0063289451285769328
sS'data cleaning'
p27
F0.014806958161750771
sS'science'
p28
F0.0020986086214749029
sS'marketing analytics'
p29
F0.011514323023999341
sS'analysis'
p30
F0.0010227424529974029
sS'machine learning'
p31
F0.0019567693189075802
sS'optimization'
p32
F0.017910527081091424
sS'algorithms'
p33
F0.0053557363533291167
sS'operations research'
p34
F0.0085998164643340588
ssS'working-year'
p35
(dp36
S'[0]'
p37
F0.0065558648672966648
ssS'major'
p38
(dp39
VData Science
p40
F0.0030665342764330228
sVEconomics
p41
F0.0048978255149983909
sVComputer Science
p42
F0.0027025544667229782
sVMathematics
p43
F0.005117231431589409
sVOperations Research
p44
F0.0096081459647377725
sVManagement Science and Engineering
p45
F0.0038493866819966937
ssS'education'
p46
(dp47
VDoctor
p48
F0.0032512888709745314
ssS'responsibility'
p49
(dp50
S'development'
p51
F0.0036148089624302047
sS'information'
p52
F0.0041406125359086405
sS'insight'
p53
F0.016431880800084942
sS'analysis'
p54
F0.0010227424529974029
sS'improvement'
p55
F0.0080185268547436055
sS'optimization'
p56
F0.017910527081091424
sS'understand'
p57
F0.018821013254724853
sS'prototype'
p58
F0.0094124519807453361
sS'transformation'
p59
F0.0093864392099488551
ss.