(dp1
S'skills'
p2
(dp3
S'customer insight'
p4
F0.0088670415743792221
sS'r d'
p5
F0.00082952467043369163
sS'data science'
p6
F0.0037596517420353647
sS'analytics'
p7
F0.0041029456314226548
sS'statistical analysis'
p8
F0.0037009674614565096
sS'problem solving'
p9
F0.0038117462212541434
sS'education'
p10
F0.0060091202429259681
sS'programming languages'
p11
F0.0083446772792530096
sS'predictive modeling'
p12
F0.0043703762607067995
sS'unstructured data'
p13
F0.0048526531019846926
sS'data modeling'
p14
F0.0054202105705821015
sS'python'
p15
F0.0014677084108088547
sS'marketing'
p16
F0.013782966657853819
sS'data scientist'
p17
F0.00037387332235713452
sS'mathematical analysis'
p18
F0.008677511201690833
sS'sql'
p19
F0.0019081431849468998
sS'modeling'
p20
F0.0019508387432366576
sS'data'
p21
F0.0046825047427831177
sS'performance metrics'
p22
F0.0097706935784107538
sS'data visualization'
p23
F0.0034570827165333762
sS'science'
p24
F0.0029649560885006442
sS'marketing analytics'
p25
F0.014739566913328856
sS'programming'
p26
F0.0041993344262697425
sS'analysis'
p27
F0.0020254949495970591
sS'machine learning'
p28
F0.0032021749394171464
sS'demand generation'
p29
F0.011840388992697265
sS'credit'
p30
F0.0054504969692915264
sS'healthcare'
p31
F0.0043139686430418572
sS'organization'
p32
F0.0043291410251115091
sS'security'
p33
F0.0032232304858013398
sS'validation'
p34
F0.0051191507863463763
ssS'working-year'
p35
(dp36
V(5, 10]
p37
F0.0024417968814734515
ssS'major'
p38
(dp39
S'information'
p40
F0.010157682146153342
sS'health services'
p41
F0.0081967940806856095
sS'business'
p42
F0.0015915379347401883
sS'marketing'
p43
F0.013782966657853819
sS'data science'
p44
F0.0037596517420353647
sS'marketing analytics'
p45
F0.014739566913328856
sS'machine learning'
p46
F0.0032021749394171464
sS'analytics'
p47
F0.0041029456314226548
sS'science'
p48
F0.0029649560885006442
ssS'education'
p49
(dp50
VMaster
p51
F0.0019486823816240526
ssS'responsibility'
p52
(dp53
S'development'
p54
F0.00093431871933990541
sS'large data set'
p55
F0.0044805841014530536
sS'product'
p56
F0.0011566983175874122
sS'business problem'
p57
F0.0037346113610185988
sS'pattern'
p58
F0.0036678748660765592
sVinsight
p59
F0.0021031540999495919
sS'communicate'
p60
F0.0024947640668568243
sS'analysis'
p61
F0.0020254949495970591
sS'statistical model'
p62
F0.0037582360255047288
sS'analytic'
p63
F0.0060383127402279741
sS'understand'
p64
F0.0054182494609135608
sS'report'
p65
F0.0025769150237060388
sS'modeling'
p66
F0.0019508387432366576
sS'information'
p67
F0.010157682146153342
sS'presentation'
p68
F0.0034187802063537077
sS'model'
p69
F0.0029763821095723968
ss.