(dp1
S'skills'
p2
(dp3
S'healthcare industry'
p4
F0.010346123948938106
sS'data science'
p5
F0.0025483917916538116
sS'testing'
p6
F0.0043376652858051123
sS'hadoop'
p7
F0.0027220476724567053
sS'analytics'
p8
F0.0036853282287437569
sS'statistical analysis'
p9
F0.0054548732063826443
sS'problem solving'
p10
F0.0052004488664263793
sS'sas'
p11
F0.0029348238488928319
sS'education'
p12
F0.0044462431140111633
sS'management'
p13
F0.0019195950576263816
sS'big data'
p14
F0.0026964515389039565
sS'programming languages'
p15
F0.010099493827968263
sS'predictive modeling'
p16
F0.0044046735353579867
sS'tableau'
p17
F0.0042564112015334573
sS'advanced analytics'
p18
F0.0062347681235976346
sS'unstructured data'
p19
F0.0067559500708753387
sS'python'
p20
F0.001104346425324716
sS'data scientist'
p21
F0.0022444314939912675
sS'mathematical analysis'
p22
F0.010244001644024727
sS'mentoring'
p23
F0.0072883764861842257
sS'sql'
p24
F0.0014447963110869643
sS'modeling'
p25
F0.0017206476462321026
sS'data'
p26
F0.001507646032302622
sS'science'
p27
F0.0014894785766823991
sS'programming'
p28
F0.0023354136331247373
sS'analysis'
p29
F0.0014517742447208897
sS'machine learning'
p30
F0.001388808732699236
sS'credit'
p31
F0.0067320653055882342
sS'organizational leadership'
p32
F0.011687745743289072
sS'r'
F0.0011758311580803839
sS'healthcare'
p33
F0.0057144922527757715
sS'organization'
p34
F0.0074711179630579713
sS'security'
p35
F0.0046299805417792201
ssS'working-year'
p36
(dp37
V(5, 10]
p38
F0.0025543310626628363
ssS'major'
p39
(dp40
VData Science
p41
F0.0021764597089090308
sVComputer Science
p42
F0.0019181265812546562
sVBusiness
p43
F0.00229176768469092
sVManagement Science and Engineering
p44
F0.0027320858865866366
ssS'education'
p45
(dp46
VMaster
p47
F0.001540848909373256
sVDoctor
p48
F0.0023075884995264152
ssS'responsibility'
p49
(dp50
S'information'
p51
F0.020571475416749498
sS'product'
p52
F0.0028495612091477681
sS'large data set'
p53
F0.0066619854562137001
sS'business problem'
p54
F0.0060342172926496707
sS'insight'
p55
F0.0038874859237489089
sS'communicate'
p56
F0.0042505145811050681
sS'drive ... decision'
p57
F0.0085510227515447328
sS'analysis'
p58
F0.0014517742447208897
sS'statistical model'
p59
F0.0076077633593620662
sS'analytic'
p60
F0.0047833177379229723
sS'statistical method'
p61
F0.0074487085361260828
sS'understand'
p62
F0.0044527114691616
sS'modeling'
p63
F0.0017206476462321026
sS'model'
p64
F0.0065568256012781389
sS'evaluation'
p65
F0.0071683118301412649
sS'decision making'
p66
F0.0069207268006981218
ss.