(dp1
S'skills'
p2
(dp3
S'microsoft excel'
p4
F0.0047722386429292583
sS'dashboards'
p5
F0.011508888594400251
sS'customer acquisition'
p6
F0.012799573064576431
sS'engineering'
p7
F0.0028418904340456021
sS'communication skills'
p8
F0.0085455356196290563
sS'sas'
p9
F0.0032140066280218482
sS'digital analytics'
p10
F0.012228501259845445
sS'education'
p11
F0.0048692035958544525
sS'quantitative analysis'
p12
F0.017698386737913831
sS'statistics'
p13
F0.0021636029113749526
sS'user experience'
p14
F0.0078311205686934001
sS'excel'
p15
F0.0037516339369050244
sS'tableau'
p16
F0.0046613134272013726
sS'research'
p17
F0.0019794903518833835
sS'matlab'
p18
F0.0029614876743342569
sS'advanced analytics'
p19
F0.0068278667154015853
sS'mathematics'
p20
F0.0042410516985517538
sS'data management'
p21
F0.0063803204283277735
sS'computer science'
p22
F0.0032621421419657091
sS'segmentation'
p23
F0.0067193765942692362
sS'data analysis'
p24
F0.0034426032829829819
sS'marketing'
p25
F0.0088409026565083471
sS'spotfire'
p26
F0.009963385412298062
sS'management'
p27
F0.0021022015480270349
sS'sql'
p28
F0.0015822363313991812
sS'data'
p29
F0.0027517746606606245
sS'a'
F0.0043388443007285997
sS'data visualization'
p30
F0.004563187066309979
sS'science'
p31
F0.0016311691141394254
sS'analysis'
p32
F0.00079493902959194883
sS'machine learning'
p33
F0.0015209227884780494
sS'r'
F0.001287685166157636
sS'organization'
p34
F0.0040909137802359191
sS'predictive analytics'
p35
F0.0053422231399739917
ssS'working-year'
p36
(dp37
V(5, 10]
p38
F0.0027973184723360991
ssS'major'
p39
(dp40
VStatistics
p41
F0.00417982545217652
sVBusiness
p42
F0.00250977806768936
sVData Science
p43
F0.0023835011197333241
sVEconomics
p44
F0.0038068945418200948
sVEngineering
p45
F0.0028418904340456021
sVComputer Science
p46
F0.0021005933790074192
sVMathematics
p47
F0.0039774304630683334
sVManagement Science and Engineering
p48
F0.0029919826878628594
ssS'education'
p49
(dp50
VBachelor
p51
F0.0021145680456378345
sVMaster
p52
F0.0016874261838147955
ssS'responsibility'
p53
(dp54
S'development'
p55
F0.0084289628938337725
sS'product'
p56
F0.0031206331571177414
sS'data analysis'
p57
F0.0034426032829829819
sS'formulate'
p58
F0.010457397894811564
sS'develop ... system'
p59
F0.010864736638004564
sS'extract'
p60
F0.0071779780294729222
sS'insight'
p61
F0.012771879508186671
sS'communicate'
p62
F0.0046548558753633229
sS'analysis'
p63
F0.00079493902959194883
sS'analytic'
p64
F0.010476686646402054
sS'design'
p65
F0.0033884427146600405
sS'quantitative analysis'
p66
F0.017698386737913831
ss.