(dp1
S'skills'
p2
(dp3
S'communication'
p4
I1
sS'analytics'
p5
I1
sS'problem solving'
p6
I1
sS'user experience design'
p7
I1
sS'management'
p8
I1
sS'user experience'
p9
I1
sS'excel'
p10
I1
sS'coaching'
p11
I1
sS'innovation'
p12
I1
sS'leadership development'
p13
I1
sS'customer support'
p14
I1
sS'design thinking'
p15
I1
sS'data scientist'
p16
I1
sS'leadership'
p17
I1
sS'sql'
p18
I1
sS'data'
p19
I1
sS'project management'
p20
I1
sS'training'
p21
I1
sS'word'
p22
I1
sS'analysis'
p23
I1
sS'go-to-market strategy'
p24
I1
sS'organization'
p25
I1
sS'microsoft office'
p26
I1
sS'powerpoint'
p27
I1
ssS'working-year'
p28
(dp29
V(2, 5]
p30
I1
ssS'major'
p31
(dp32
S'management'
p33
I1
sS'business'
p34
I1
sS'communication'
p35
I1
sS'general'
p36
I1
sS'analytics'
p37
I1
sS'design'
p38
I1
sS'project management'
p39
I1
ssS'education'
p40
(dp41
S'Bachelor'
p42
I1
ssS'responsibility'
p43
(dp44
S'development'
p45
I1
sS'product'
p46
I1
sVinsight
p47
I1
sS'analysis'
p48
I1
sS'improvement'
p49
I1
sS'analytic'
p50
I1
sS'design'
p51
I1
sS'go-to-market strategy'
p52
I1
sS'recommendation'
p53
I1
sS'implement'
p54
I1
sS'transformation'
p55
I1
ss.