(dp1
S'skills'
p2
(dp3
S'social networking'
p4
I1
sS'photoshop'
p5
I1
sS'illustrator'
p6
I1
sS'editorial'
p7
I1
sS'healthcare industry'
p8
I1
sS'indesign'
p9
I1
sS'drupal'
p10
I1
sS'microsoft office'
p11
I1
sS'data scientist'
p12
I1
sS'graphic design'
p13
I1
sS'leadership'
p14
I1
sS'html5'
p15
I1
sS'information design'
p16
I1
sS'healthcare'
p17
I1
sS'policy'
p18
I1
sS'data'
p19
I1
sS'd3'
p20
I1
ssS'working-year'
p21
(dp22
V[0]
p23
I1
ssS'major'
p24
(dp25
S'information'
p26
I1
sS'design'
p27
I1
sS'business'
p28
I1
ssS'education'
p29
(dp30
S'Bachelor'
p31
I1
ssS'responsibility'
p32
(dp33
S'development'
p34
I1
sS'presentation'
p35
I1
sS'product'
p36
I1
sS'design'
p37
I1
sS'information'
p38
I1
ss.