(dp1
S'skills'
p2
(dp3
S'classification'
p4
F0.0072782816612940648
sS'communication'
p5
F0.0021480627208893661
sS'data science'
p6
F0.0050987057871438512
sS'radar'
p7
F0.017590704434439736
sS'defense'
p8
F0.015680819361840848
sS'c++'
p9
F0.0073752665536603815
sS'data mining'
p10
F0.012157733557712607
sS'education'
p11
F0.0040746774249977458
sS'open source'
p12
F0.0069144555694178348
sS'big data'
p13
F0.0060361268689865175
sS'deep learning'
p14
F0.0077635044995432584
sS'writing'
p15
F0.0057486370246163472
sS'big data analytics'
p16
F0.018060697941481768
sS'computer vision'
p17
F0.01128229225884627
sS'intelligence'
p18
F0.026162932759209532
sS'signal processing'
p19
F0.011648126116565646
sS'python'
p20
F0.0019904538721928302
sS'processing'
p21
F0.0043657410647121612
sS'electrical engineering'
p22
F0.018940566856321669
sS'business development'
p23
F0.010385039492988149
sS'software development'
p24
F0.0060357484511595928
sS'c'
F0.006390760511866574
sS'dod'
p25
F0.010059612951521968
sS'machine learning'
p26
F0.0043426756027711991
sS'r'
F0.0021836678022055947
sS'cuda'
p27
F0.016479843354235291
sS'military'
p28
F0.0085866152240950191
sS'data analytics'
p29
F0.0083810061073249474
sS'security clearance'
p30
F0.008138819768145197
ssS'working-year'
p31
(dp32
V(5, 10]
p33
F0.0033114779625461875
sV(2, 5]
p34
F0.0021505034302708595
ssS'major'
p35
(dp36
S'information'
p37
F0.012053550902884017
sS'business'
p38
F0.0010791935310909496
sS'big data'
p39
F0.0060361268689865175
sS'communication'
p40
F0.0021480627208893661
sS'data science'
p41
F0.0050987057871438512
sS'data mining'
p42
F0.012157733557712607
sS'machine learning'
p43
F0.0043426756027711991
sS'big data analytics'
p44
F0.018060697941481768
sS'data analytics'
p45
F0.0083810061073249474
sS'statistic'
p46
F0.0024345642249162846
sS'electrical engineering'
p47
F0.018940566856321669
sS'phd'
p48
F0.0046153221362166342
sVphysic
p49
F0.0062453676630722342
ssS'education'
p50
(dp51
VDoctor
p52
F0.0034867524859764172
ssS'responsibility'
p53
(dp54
S'development'
p55
F0.0038012693101911218
sS'information'
p56
F0.012053550902884017
sS'processing'
p57
F0.0043657410647121612
sS'extract'
p58
F0.0064723676040618324
sS'data mining'
p59
F0.012157733557712607
ss.