(dp1
S'skills'
p2
(dp3
S'r d'
p4
F0.00093321525423790302
sS'communication'
p5
F0.0035638313323846297
sS'hadoop'
p6
F0.0027040936411330822
sS'business intelligence'
p7
F0.0052919179254244421
sS'analysis'
p8
F0.0011393409091483458
sS'problem solving'
p9
F0.0042882144989109111
sS'education'
p10
F0.0067602602732917136
sS'visualization'
p11
F0.0037671690297009027
sS'management'
p12
F0.0019357591116118762
sS'credit'
p13
F0.012263618180905935
sS'critical thinking'
p14
F0.0076865618118336764
sS'tableau'
p15
F0.0045191786848520765
sS'unstructured data'
p16
F0.0054592347397327788
sS'data management'
p17
F0.0053109746972881946
sS'segmentation'
p18
F0.006401197909865243
sS'data modeling'
p19
F0.0060977368919048636
sS'python'
p20
F0.0016511719621599614
sS'collaboration'
p21
F0.0041178538243316866
sS'processing'
p22
F0.0036215806559544064
sS'data scientist'
p23
F0.00042060748765177631
sS'sql'
p24
F0.0021466610830652619
sS'modeling'
p25
F0.0021946935861412399
sS'data'
p26
F0.0093650094855662353
sS'business intelligence tools'
p27
F0.01166535705200585
sS'data visualization'
p28
F0.0038892180561000481
sS'programming'
p29
F0.00236212561477673
sS'engineering'
p30
F0.0023686672967746561
sS'hive'
p31
F0.0044889911909386394
sS'machine learning'
p32
F0.0036024468068442898
sS'data engineering'
p33
F0.0076327687884730194
sS'r'
F0.0018114516995569136
sS'healthcare'
p34
F0.0048532147234220894
sS'netezza'
p35
F0.011513786671134131
sS'security'
p36
F0.0072522685930530148
sS'statistical analysis'
p37
F0.0041635883941385727
ssS'working-year'
p38
(dp39
V(5, 10]
p40
F0.0027470214916576327
ssS'major'
p41
(dp42
S'information'
p43
F0.014284240518028138
sS'management'
p44
F0.0019357591116118762
sS'business'
p45
F0.00089524008829135594
sS'communication'
p46
F0.0035638313323846297
sS'machine learning'
p47
F0.0036024468068442898
sS'engineering'
p48
F0.0023686672967746561
ssS'education'
p49
(dp50
VMaster
p51
F0.0021922676793270594
ssS'responsibility'
p52
(dp53
S'large data set'
p54
F0.0050406571141346848
sS'processing'
p55
F0.0036215806559544064
sS'business problem'
p56
F0.0042014377811459237
sS'information'
p57
F0.014284240518028138
sS'pattern'
p58
F0.0041263592243361291
sVinsight
p59
F0.0070981450873298726
sS'communicate'
p60
F0.0056132191504278542
sS'analysis'
p61
F0.0011393409091483458
sS'statistical model'
p62
F0.0042280155286928195
sS'analytic'
p63
F0.0033965509163782354
sS'statistical method'
p64
F0.0056901743887614242
sS'solve problem'
p65
F0.0068814199566630228
sS'modeling'
p66
F0.0021946935861412399
sS'model'
p67
F0.0016742149366344731
sS'data gathering'
p68
F0.0090415390308331931
ss.