(dp1
S'skills'
p2
(dp3
S'jira'
p4
F0.012091357962955842
sS'debugging'
p5
F0.011878439197793541
sS'data acquisition'
p6
F0.01244592771472643
sS'software design'
p7
F0.010865769357249269
sS'engineering'
p8
F0.0066208366328305663
sS'amazon web services'
p9
F0.0089574840668877852
sS'technical leadership'
p10
F0.012158647885114324
sS'git'
p11
F0.0078180354526456788
sS'agile'
p12
F0.0059018645208094847
sS'firmware'
p13
F0.032971678379193063
sS'devops'
p14
F0.01116306402140552
sS'computer science'
p15
F0.0037999547653708669
sS'web services'
p16
F0.0079487545085410415
sS'policy'
p17
F0.0073774546703804043
sS'amazon web services aws'
p18
F0.009410229970985947
sS'customer service'
p19
F0.0092662695745611943
sS'scrum'
p20
F0.0091819258495391826
sS'data scientist'
p21
F0.0028631666626050766
sS'leadership'
p22
F0.0044659692464968162
sS'mentoring'
p23
F0.0092976045985917691
sS'modeling'
p24
F0.0021949883487068986
sS'data'
p25
F0.00096163368546869942
sS'project management'
p26
F0.005139063036012287
sS'hardware'
p27
F0.020071978792186296
sS'c'
F0.0033800592537786417
sS'science'
p28
F0.0019000915897137633
sS'aws'
p29
F0.0070634495913019192
sS'programming'
p30
F0.0029792303644185837
sS'test automation'
p31
F0.014244551467549696
sS'system architecture'
p32
F0.012091357962955842
sS'architecture'
p33
F0.0059108500613098873
sS'product management'
p34
F0.0084405351865582193
sS'organization'
p35
F0.0047653617277883279
sS'data analytics'
p36
F0.0055197910310426949
ssS'working-year'
p37
(dp38
V(5, 10]
p39
F0.0032584980042617805
ssS'major'
p40
(dp41
VData Science
p42
F0.0027764567097434125
sVManagement Science and Engineering
p43
F0.0034852555093753852
sVEngineering
p44
F0.0066208366328305663
sVBusiness
p45
F0.0029235522896597682
sVComputer Science
p46
F0.0024469074225735073
ssS'education'
p47
(dp48
VBachelor
p49
F0.0024631860207294776
sVMaster
p50
F0.0019656234735788564
ssS'responsibility'
p51
(dp52
S'development'
p53
F0.01309147029636885
sS'product'
p54
F0.0072702318417175501
sS'design'
p55
F0.019735389324574023
sS'understand'
p56
F0.0056802157120115554
sS'modeling'
p57
F0.0021949883487068986
sS'implement'
p58
F0.0057239545273502909
sS'model'
p59
F0.0041821914645990294
ss.