(dp1
S'skills'
p2
(dp3
S'healthcare industry'
p4
I1
sS'data science'
p5
I1
sS'analytics'
p6
I1
sS'statistical analysis'
p7
I1
sS'problem solving'
p8
I1
sS'education'
p9
I1
sS'management'
p10
I1
sS'big data'
p11
I1
sS'programming languages'
p12
I1
sS'predictive modeling'
p13
I1
sS'hadoop'
p14
I1
sS'advanced analytics'
p15
I1
sS'unstructured data'
p16
I1
sS'python'
p17
I1
sS'data scientist'
p18
I1
sS'mathematical analysis'
p19
I1
sS'mentoring'
p20
I1
sS'sql'
p21
I1
sS'modeling'
p22
I1
sS'data'
p23
I1
sS'programming'
p24
I1
sS'analysis'
p25
I1
sS'machine learning'
p26
I1
sS'credit'
p27
I1
sS'organizational leadership'
p28
I1
sS'r'
I1
sS'healthcare'
p29
I1
sS'organization'
p30
I1
sS'security'
p31
I1
ssS'working-year'
p32
(dp33
V(5, 10]
p34
I1
ssS'major'
p35
(dp36
S'information'
p37
I1
sS'management'
p38
I1
sS'health services'
p39
I1
sS'big data'
p40
I1
sS'data science'
p41
I1
sS'machine learning'
p42
I1
sS'business'
p43
I1
sS'analytics'
p44
I1
sS'advanced analytics'
p45
I1
ssS'education'
p46
(dp47
VMaster
p48
I1
sVDoctor
p49
I1
ssS'responsibility'
p50
(dp51
S'large data set'
p52
I1
sS'product'
p53
I1
sS'business problem'
p54
I1
sVinsight
p55
I1
sS'communicate'
p56
I1
sS'analysis'
p57
I1
sS'statistical model'
p58
I1
sS'analytic'
p59
I1
sS'statistical method'
p60
I1
sS'understand'
p61
I1
sS'modeling'
p62
I1
sS'information'
p63
I1
sS'evaluation'
p64
I1
sS'model'
p65
I1
ss.