(dp1
S'skills'
p2
(dp3
S'jira'
p4
F0.0088590147451359635
sS'communication'
p5
F0.0031349888299224879
sS'engineering'
p6
F0.002425455004106247
sS'enterprise software'
p7
F0.0080239263359489534
sS'troubleshooting'
p8
F0.0074463019123449416
sS'problem solving'
p9
F0.0048606175543628736
sS'management'
p10
F0.0035883123453451572
sS'genetics'
p11
F0.0076914952576611836
sS'writing'
p12
F0.0044496244080841447
sS'policy'
p13
F0.0054052638179024745
sS'professional services'
p14
F0.011448133881799376
sS'python'
p15
F0.0010321812133728039
sS'customer service'
p16
F0.0067891480051240427
sS'spotfire'
p17
F0.034013616734261107
sS'training'
p18
F0.0093199792119696215
sS'informatics'
p19
F0.0087030148577893277
sS'data'
p20
F0.0004697088628691997
sS'life sciences'
p21
F0.0083849533836761643
sS'itil'
p22
F0.0095059079176549738
sS'analysis'
p23
F0.00067845291436461372
sS'r'
F0.0010989946665622597
sS'dashboard'
p24
F0.006943368255682268
sS'english'
p25
F0.0066890076266406095
sS'microsoft office'
p26
F0.0038027771185996507
sS'data analytics'
p27
F0.0040442033296748461
sS'crm'
p28
F0.0065126494380134611
ssS'working-year'
p29
(dp30
S'[0]'
p31
F0.004348940060483926
ssS'major'
p32
(dp33
VBiological Engineering
p34
F0.0052083084761914665
sVData Science
p35
F0.002034235609118936
sVInformation Science
p36
F0.0050151587892160272
sVEngineering
p37
F0.002425455004106247
sVManagement Science and Engineering
p38
F0.0025535535415225591
ssS'education'
p39
(dp40
VBachelor
p41
F0.0018047105498413996
ssS'responsibility'
p42
(dp43
S'product'
p44
F0.01598011355308214
sS'construct'
p45
F0.010509950747968014
sS'improvement'
p46
F0.0053192207848299167
sS'understand'
p47
F0.0041617422048401496
sS'solve problem'
p48
F0.0081446385568944187
sS'report'
p49
F0.0041094582577671859
sS'analysis'
p50
F0.00067845291436461372
sS'implement'
p51
F0.0041937884655833813
ss.