(dp1
S'skills'
p2
(dp3
S'search'
p4
I1
sS'management'
p5
I1
sS'java'
p6
I1
sS'excel'
p7
I1
sS'data scientist'
p8
I1
sS'strategy'
p9
I1
sS'analytics'
p10
I1
sS'engineering'
p11
I1
sS'customer support'
p12
I1
sS'sql'
p13
I1
sS'data'
p14
I1
ssS'working-year'
p15
(dp16
V(2, 5]
p17
I1
ssS'major'
p18
(dp19
S'management'
p20
I1
sS'business'
p21
I1
sS'statistic'
p22
I1
sS'analytics'
p23
I1
sS'engineering'
p24
I1
sS'design'
p25
I1
sS'applied math'
p26
I1
ssS'education'
p27
(dp28
VMaster
p29
I1
ssS'responsibility'
p30
(dp31
Vinsight
p32
I1
sS'communicate'
p33
I1
sS'design'
p34
I1
sS'recommendation'
p35
I1
sS'report'
p36
I1
sS'implement'
p37
I1
sS'model'
p38
I1
ss.