(dp1
S'skills'
p2
(dp3
S'data analysis'
p4
F0.012677353532961337
sS'big data'
p5
F0.010014483214454903
sS'documentation'
p6
F0.020421127399866432
sS'data scientist'
p7
F0.00084121497530355261
sS'analysis'
p8
F0.0022786818182966915
sS'data mining'
p9
F0.020170785220750463
sS'validation'
p10
F0.023036178538558692
sS'data'
p11
F0.0070237571141746769
sS'unstructured data'
p12
F0.010918469479465558
sS'data analytics'
p13
F0.013904851041698208
ssS'working-year'
p14
(dp15
V[0]
p16
F0.0064825930561929323
ssS'major'
p17
(dp18
S'business'
p19
F0.0071619207063308475
sS'big data'
p20
F0.010014483214454903
sS'data mining'
p21
F0.020170785220750463
sS'design'
p22
F0.0030969029824400212
sS'statistic'
p23
F0.0040391633731565631
sS'data analytics'
p24
F0.013904851041698208
ssS'education'
p25
(dp26
S'Bachelor'
p27
F0.0015452507605097487
ssS'responsibility'
p28
(dp29
S'development'
p30
F0.0063066513555443612
sS'product'
p31
F0.0026025712145716774
sS'data analysis'
p32
F0.012677353532961337
sS'extract'
p33
F0.010738246252193493
sVinsight
p34
F0.0047320967248865812
sS'analysis'
p35
F0.0022786818182966915
sS'design'
p36
F0.0030969029824400212
sS'data mining'
p37
F0.020170785220750463
sS'report'
p38
F0.011596117606677175
sS'model'
p39
F0.020090579239613677
sS'presentation'
p40
F0.015384510928591685
sS'transformation'
p41
F0.011021770464336849
sS'documentation'
p42
F0.020421127399866432
ss.