(dp1
S'skills'
p2
(dp3
S'forecasting'
p4
I1
sS'management'
p5
I1
sS'python'
p6
I1
sS'data science'
p7
I1
sS'excel'
p8
I1
sS'architecture'
p9
I1
sS'analysis'
p10
I1
sS'research'
p11
I1
sS'r'
I1
sS'analytics'
p12
I1
sS'business intelligence'
p13
I1
sS'entrepreneurship'
p14
I1
sS'matlab'
p15
I1
sS'stata'
p16
I1
sS'data analytics'
p17
I1
sS'accounting'
p18
I1
sS'data quality'
p19
I1
sS'data'
p20
I1
sS'collaboration'
p21
I1
sS'data management'
p22
I1
sS'spss'
p23
I1
ssS'working-year'
p24
(dp25
V(0, 2]
p26
I1
ssS'major'
p27
(dp28
S'information'
p29
I1
sS'management'
p30
I1
sS'business'
p31
I1
sS'data science'
p32
I1
sS'entrepreneurship'
p33
I1
sS'analytics'
p34
I1
sS'statistic'
p35
I1
sS'analytics data science'
p36
I1
sS'accounting'
p37
I1
sS'data analytics'
p38
I1
ssS'education'
p39
(dp40
VBachelor
p41
I1
sVMaster
p42
I1
ssS'responsibility'
p43
(dp44
S'development'
p45
I1
sS'information'
p46
I1
sS'forecasting'
p47
I1
sVinsight
p48
I1
sS'analysis'
p49
I1
sS'report'
p50
I1
ss.