(dp1
S'skills'
p2
(dp3
S'visualization'
p4
F0.0065002132277192049
sS'vba'
p5
F0.018770522775109606
sS'investment banking'
p6
F0.018493593532588695
sS'r d'
p7
F0.0016102537720183426
sS'business analysis'
p8
F0.030165553297015774
sS'classification'
p9
F0.010417932574009151
sS'data scientist'
p10
F0.00072575409634031995
sS'testing'
p11
F0.013093028886571944
sS'excel'
p12
F0.0076435651315946941
sS'analysis'
p13
F0.0098296078436327875
sS'data'
p14
F0.0010099520033453784
sS'banking'
p15
F0.011649683197541163
sS'management'
p16
F0.0033401333690557867
sS'matlab'
p17
F0.0086756781461304455
sS'programming'
p18
F0.0081516491804059718
sS'education'
p19
F0.01166476282450335
sS'microsoft office'
p20
F0.013455588940340872
sS'powerpoint'
p21
F0.01112605939946242
sS'data management'
p22
F0.0091640347717913944
sS'finance'
p23
F0.011005393408691737
ssS'working-year'
p24
(dp25
V(5, 10]
p26
F0.0047399586522719941
ssS'major'
p27
(dp28
S'information'
p29
F0.0073941950916851526
sS'management'
p30
F0.0033401333690557867
sS'finance'
p31
F0.011005393408691737
sS'business'
p32
F0.010813095968381868
sS'business analysis'
p33
F0.030165553297015774
ssS'education'
p34
(dp35
VBachelor
p36
F0.0013331575188711556
ssS'responsibility'
p37
(dp38
S'development'
p39
F0.0018136775140127576
sS'information'
p40
F0.0073941950916851526
sS'product'
p41
F0.0044907111153393653
sS'business problem'
p42
F0.007249539700800809
sS'communicate'
p43
F0.004842777306251482
sS'analysis'
p44
F0.0098296078436327875
ss.