(dp1
S'skills'
p2
(dp3
S'project planning'
p4
F0.01139333200950342
sS'testing'
p5
F0.011539363016391174
sS'information technology'
p6
F0.011689155904626842
sS'engineering'
p7
F0.0024014138492646285
sS'angularjs'
p8
F0.020620768366239571
sS'it strategy'
p9
F0.026114456900086
sS'java'
p10
F0.016237114454723669
sS'agile'
p11
F0.0087950304656173785
sS'saas'
p12
F0.0060166878345111075
sS'integration'
p13
F0.0088779379332319767
sS'research'
p14
F0.004393817489322399
sS'mvc'
p15
F0.010229529545105065
sS'business planning'
p16
F0.012360731558049674
sS'computer science'
p17
F0.0038101218776730927
sS'sdlc'
p18
F0.019527104152121597
sS'innovation'
p19
F0.0057524429488248633
sS'junit'
p20
F0.011991280322464144
sS'quality assurance'
p21
F0.0080248799944082072
sS'software development'
p22
F0.0050761478909521918
sS'software development life cycle sdlc'
p23
F0.013196916049946961
sS'product development'
p24
F0.0047669177202329721
sS'apis'
p25
F0.0070957557924897783
sS'scrum'
p26
F0.0080401895318876968
sS'data scientist'
p27
F0.00042642233771147833
sS'business process'
p28
F0.0060945763017949571
sS'construction'
p29
F0.010525879668667939
sS'data'
p30
F0.0011868099578482558
sS'b2b'
p31
F0.0064354792789306659
sS'project management'
p32
F0.010691837072353265
sS'jquery'
p33
F0.020459059090210129
sS'training'
p34
F0.0041321454180386361
sS'unit testing'
p35
F0.010038997981594378
sS'machine learning'
p36
F0.0036522502189204782
sS'procurement'
p37
F0.010714076021633798
sS'product design'
p38
F0.009044598593056917
sS'security'
p39
F0.0036762651854185791
ssS'working-year'
p40
(dp41
V(0, 2]
p42
F0.0042535769215764074
sV(2, 5]
p43
F0.0018086031153199626
ssS'major'
p44
(dp45
S'information'
p46
F0.0014481718497540046
sS'information systems'
p47
F0.0072539903870747846
sS'it strategy'
p48
F0.026114456900086
sS'business'
p49
F0.0018152333587474498
sS'machine learning'
p50
F0.0036522502189204782
sS'engineering'
p51
F0.0024014138492646285
sS'information system'
p52
F0.0063750429089318838
sS'design'
p53
F0.0078492932734654918
sS'information technology'
p54
F0.011689155904626842
sS'ee computer science'
p55
F0.0052070865353181194
sS'project management'
p56
F0.010691837072353265
sS'computer science'
p57
F0.0038101218776730927
ssS'education'
p58
(dp59
VBachelor
p60
F0.00078330683712475742
ssS'responsibility'
p61
(dp62
S'development'
p63
F0.0053282000699683548
sS'information'
p64
F0.0014481718497540046
sS'implement'
p65
F0.0030667310460186672
sS'design'
p66
F0.0078492932734654918
sS'product'
p67
F0.0026385514617777378
ss.