(dp1
S'skills'
p2
(dp3
S'data scientist'
p4
F0.0039376020120591828
sS'data'
p5
F0.016438580479983287
sS'automotive'
p6
F0.15172771829037551
ssS'working-year'
p7
(dp8
V[0]
p9
F0.030344052603456278
ssS'major'
p10
(dp11
S'business'
p12
F0.008380971039323332
ssS'education'
p13
(dp14
S'Bachelor'
p15
F0.0072330886662158441
ssS'responsibility'
p16
(dp17
S'report'
p18
F0.027139849717755089
sS'business problem'
p19
F0.03933260901498311
ss.