(dp1
S'skills'
p2
(dp3
S'data science'
p4
I1
sS'hadoop'
p5
I1
sS'd3'
p6
I1
sS'big data'
p7
I1
sS'tableau'
p8
I1
sS'research'
p9
I1
sS'statistical software'
p10
I1
sS'unstructured data'
p11
I1
sS'python'
p12
I1
sS'aws'
p13
I1
sS'processing'
p14
I1
sS'data scientist'
p15
I1
sS'experimental design'
p16
I1
sS'modeling'
p17
I1
sS'spark'
p18
I1
sS'data'
p19
I1
sS'programming'
p20
I1
sS'analysis'
p21
I1
sS'machine learning'
p22
I1
sS'data engineering'
p23
I1
sS'r'
I1
sS'scripting'
p24
I1
sS'data analytics'
p25
I1
ssS'working-year'
p26
(dp27
V[0]
p28
I1
ssS'major'
p29
(dp30
S'information'
p31
I1
sS'big data'
p32
I1
sS'data science'
p33
I1
sS'machine learning'
p34
I1
sS'design'
p35
I1
sS'law'
p36
I1
sS'data analytics'
p37
I1
ssS'education'
p38
(dp39
VBachelor
p40
I1
sVMaster
p41
I1
ssS'responsibility'
p42
(dp43
S'development'
p44
I1
sS'information'
p45
I1
sS'product'
p46
I1
sVtest hypothesis
p47
I1
sS'business problem'
p48
I1
sS'predict'
p49
I1
sS'processing'
p50
I1
sS'analysis'
p51
I1
sS'statistical model'
p52
I1
sS'statistical method'
p53
I1
sS'design'
p54
I1
sS'modeling'
p55
I1
sS'model'
p56
I1
ss.