(dp1
S'skills'
p2
(dp3
S'oncology'
p4
I1
sS'nosql'
p5
I1
sS'communication'
p6
I1
sS'data science'
p7
I1
sS'hadoop'
p8
I1
sS'analytics'
p9
I1
sS'engineering'
p10
I1
sS'sap'
p11
I1
sS'management'
p12
I1
sS'java'
p13
I1
sS'big data'
p14
I1
sS'agile'
p15
I1
sS'excel'
p16
I1
sS'integration'
p17
I1
sS'writing'
p18
I1
sS'teamwork'
p19
I1
sS'computer science'
p20
I1
sS'policy'
p21
I1
sS'architecture'
p22
I1
sS'international business'
p23
I1
sS'python'
p24
I1
sS'data scientist'
p25
I1
sS'collaboration'
p26
I1
sS'processing'
p27
I1
sS'aws'
p28
I1
sS'leadership'
p29
I1
sS'informatics'
p30
I1
sS'data'
p31
I1
sS'software development'
p32
I1
sS'c'
I1
sS'erp'
p33
I1
sS'data visualization'
p34
I1
sS'microsoft word'
p35
I1
sS'education'
p36
I1
sS'semantic web'
p37
I1
sS'c++'
p38
I1
sS'optimization'
p39
I1
sS'dashboard'
p40
I1
sS'organization'
p41
I1
sS'security'
p42
I1
sS'high availability'
p43
I1
sS'data integration'
p44
I1
ssS'working-year'
p45
(dp46
V(5, 10]
p47
I1
ssS'major'
p48
(dp49
S'management'
p50
I1
sS'international business'
p51
I1
sS'business'
p52
I1
sS'big data'
p53
I1
sS'communication'
p54
I1
sS'data science'
p55
I1
sS'analytics'
p56
I1
sS'engineering'
p57
I1
sS'design'
p58
I1
sS'computer science'
p59
I1
sS'informatics'
p60
I1
sS'ee computer science'
p61
I1
sS'ee cs'
p62
I1
ssS'education'
p63
(dp64
VBachelor
p65
I1
sVMaster
p66
I1
ssS'responsibility'
p67
(dp68
S'development'
p69
I1
sS'product'
p70
I1
sVinsight
p71
I1
sS'processing'
p72
I1
sS'optimization'
p73
I1
sS'understand'
p74
I1
sS'design'
p75
I1
sS'presentation'
p76
I1
sS'data aggregation'
p77
I1
ss.