(dp1
S'skills'
p2
(dp3
S'programming'
p4
F0.0044992868852890104
sS'data acquisition'
p5
F0.017083071296016852
sS'pig'
p6
F0.011048008506861003
sS'analytics'
p7
F0.0043960131765242733
sS'engineering'
p8
F0.0045117472319517269
sS'analysis'
p9
F0.0021701731602825633
sS'visualization'
p10
F0.014351120113146296
sS'java'
p11
F0.0061012187648052567
sS'big data'
p12
F0.0095376030613856227
sS'integration'
p13
F0.0083398810887936759
sS'strategy'
p14
F0.0060796508922350478
sS'computer science'
p15
F0.0071584108004767192
sS'data analysis'
p16
F0.01207367003139175
sS'python'
p17
F0.00314508945173326
sS'data scientist'
p18
F0.00080115711933671687
sS'training'
p19
F0.0077634247247998613
sS'spark'
p20
F0.0068594313826518946
sS'data'
p21
F0.0011148820816150281
sS'statistical programming'
p22
F0.017365492513066436
sS'c'
F0.010097954921347617
sS'erp'
p23
F0.021793582859055988
sS'sql server'
p24
F0.014151413254538716
sS'business strategy'
p25
F0.014746017294410961
sS'hive'
p26
F0.0085504594113116946
sS'machine learning'
p27
F0.0068618034416081716
sS'r'
F0.0034503841896322165
sS'data integration'
p28
F0.015134766413582017
sS'data analytics'
p29
F0.013242715277807819
ssS'working-year'
p30
(dp31
V(5, 10]
p32
F0.0052324218888716812
ssS'major'
p33
(dp34
S'information'
p35
F0.002720807717719645
sS'information system management'
p36
F0.025073592568642399
sS'business'
p37
F0.001705219215793059
sS'big data'
p38
F0.0095376030613856227
sS'machine learning'
p39
F0.0068618034416081716
sS'analytics'
p40
F0.0043960131765242733
sS'engineering'
p41
F0.0045117472319517269
sS'information system'
p42
F0.011977353344053842
sS'design'
p43
F0.0029494314118476391
sS'computer science'
p44
F0.0071584108004767192
sS'law'
p45
F0.0077370487639768252
sS'data analytics'
p46
F0.013242715277807819
sS'history'
p47
F0.010784920569011843
ssS'education'
p48
(dp49
VMaster
p50
F0.0041757479606229697
ssS'responsibility'
p51
(dp52
S'development'
p53
F0.0040042230828853092
sS'information'
p54
F0.002720807717719645
sS'data analysis'
p55
F0.01207367003139175
sS'communicate'
p56
F0.0053459230004074803
sS'analysis'
p57
F0.0021701731602825633
sS'design'
p58
F0.0029494314118476391
sS'report'
p59
F0.0055219607650843694
sS'presentation'
p60
F0.0073259575850436595
sS'transformation'
p61
F0.01049692425174938
ss.