(dp1
S'skills'
p2
(dp3
S'r d'
p4
F0.0010039479507693823
sS'communication'
p5
F0.0019169752888132485
sS'testing'
p6
F0.0040815676846892978
sS'hardware'
p7
F0.015730481097425728
sS'engineering'
p8
F0.002548199536872491
sS'troubleshooting'
p9
F0.031119496757660969
sS'problem solving'
p10
F0.0046132380917378998
sS'distributed systems'
p11
F0.027431192845656666
sS'management'
p12
F0.0041649584797517148
sS'saas'
p13
F0.0063844560395545733
sS'research'
p14
F0.0023311941202517374
sS'innovation'
p15
F0.0091560888989852957
sS'operating systems'
p16
F0.011267082405628669
sS'product development'
p17
F0.0050582941090002685
sS'customer service'
p18
F0.008581037539850421
sS'mac os'
p19
F0.013116277496805768
sS'data scientist'
p20
F0.00045248727277941706
sS'data'
p21
F0.00062967667690237532
sS'b2b'
p22
F0.0068288459830217821
sS'disaster recovery'
p23
F0.010326150519539086
sS'itil'
p24
F0.011368970643983053
sS'documentation'
p25
F0.0054922347530203123
sS'analysis'
p26
F0.0049027872863107299
sS'data center'
p27
F0.0089774052012359853
sS'organization'
p28
F0.0026197124785210233
sS'security'
p29
F0.00390097577132436
ssS'working-year'
p30
(dp31
V[0]
p32
F0.0034869693700793278
ssS'major'
p33
(dp34
S'management'
p35
F0.0041649584797517148
sS'business'
p36
F0.0038523778860459329
sS'computing'
p37
F0.0052084715467811066
sS'communication'
p38
F0.0019169752888132485
sS'engineering'
p39
F0.002548199536872491
sS'design'
p40
F0.0033316315703511229
sS'distributed systems'
p41
F0.027431192845656666
ssS'education'
p42
(dp43
VBachelor
p44
F0.00083118622814705304
sVMaster
p45
F0.0023584297772711641
ssS'responsibility'
p46
(dp47
S'development'
p48
F0.0011307769341644333
sS'product'
p49
F0.0013999160567378217
sS'documentation'
p50
F0.0054922347530203123
sS'analysis'
p51
F0.0049027872863107299
sS'design'
p52
F0.0033316315703511229
sS'implement'
p53
F0.0032541840439415685
sS'model'
p54
F0.0036022228465484997
ss.