(dp1
S'skills'
p2
(dp3
S'debugging'
p4
I1
sS'communication'
p5
I1
sS'data science'
p6
I1
sS'information retrieval'
p7
I1
sS'analytics'
p8
I1
sS'unix'
p9
I1
sS'java'
p10
I1
sS'big data'
p11
I1
sS'storage'
p12
I1
sS'hadoop'
p13
I1
sS'research'
p14
I1
sS'computer science'
p15
I1
sS'operating systems'
p16
I1
sS'python'
p17
I1
sS'data scientist'
p18
I1
sS'mpi'
p19
I1
sS'mentoring'
p20
I1
sS'data wrangling'
p21
I1
sS'spark'
p22
I1
sS'data'
p23
I1
sS'software engineering'
p24
I1
sS'scikit-learn'
p25
I1
sS'engineering'
p26
I1
sS'machine learning'
p27
I1
sS'oracle'
p28
I1
ssS'working-year'
p29
(dp30
V(5, 10]
p31
I1
sV(2, 5]
p32
I1
ssS'major'
p33
(dp34
S'information'
p35
I1
sS'software engineering'
p36
I1
sS'big data'
p37
I1
sS'communication'
p38
I1
sS'machine learning data science'
p39
I1
sS'machine learning'
p40
I1
sS'analytics'
p41
I1
sS'engineering'
p42
I1
sS'design'
p43
I1
sS'computer science'
p44
I1
sS'information retrieval'
p45
I1
sS'data science'
p46
I1
ssS'education'
p47
(dp48
S'Bachelor'
p49
I1
ssS'responsibility'
p50
(dp51
S'development'
p52
I1
sS'information'
p53
I1
sS'product'
p54
I1
sS'design'
p55
I1
sS'data wrangling'
p56
I1
sS'interface'
p57
I1
sS'prototype'
p58
I1
ss.