(dp1
S'skills'
p2
(dp3
S'supply chain'
p4
I1
sS'aerospace'
p5
I1
sS'testing'
p6
I1
sS'forecasting'
p7
I1
sS'statistical analysis'
p8
I1
sS'data mining'
p9
I1
sS'visualization'
p10
I1
sS'management'
p11
I1
sS'anomaly detection'
p12
I1
sS'integration'
p13
I1
sS'demand forecasting'
p14
I1
sS'research'
p15
I1
sS'optimization'
p16
I1
sS'statistical software'
p17
I1
sS'advanced analytics'
p18
I1
sS'mathematics'
p19
I1
sS'python'
p20
I1
sS'quality management'
p21
I1
sS'mathematical programming'
p22
I1
sS'data scientist'
p23
I1
sS'statistical modeling'
p24
I1
sS'sql'
p25
I1
sS'modeling'
p26
I1
sS'manufacturing'
p27
I1
sS'data'
p28
I1
sS'information technology'
p29
I1
sS'inventory management'
p30
I1
sS'programming'
p31
I1
sS'analysis'
p32
I1
sS'machine learning'
p33
I1
sS'r'
I1
sS'organization'
p34
I1
sS'data analytics'
p35
I1
ssS'working-year'
p36
(dp37
V(2, 5]
p38
I1
ssS'major'
p39
(dp40
S'information'
p41
I1
sS'management'
p42
I1
sS'business'
p43
I1
sS'data mining'
p44
I1
sS'machine learning'
p45
I1
sS'data analytics'
p46
I1
sS'statistic'
p47
I1
sS'advanced analytics'
p48
I1
sS'mathematics'
p49
I1
sS'information technology'
p50
I1
ssS'education'
p51
(dp52
S'Bachelor'
p53
I1
ssS'responsibility'
p54
(dp55
S'development'
p56
I1
sS'information'
p57
I1
sS'forecasting'
p58
I1
sS'business problem'
p59
I1
sVinsight
p60
I1
sS'analysis'
p61
I1
sS'statistical model'
p62
I1
sS'statistical method'
p63
I1
sS'optimization'
p64
I1
sS'data mining'
p65
I1
sS'modeling'
p66
I1
sS'model'
p67
I1
sS'extract'
p68
I1
ss.