(dp1
S'skills'
p2
(dp3
S'consulting'
p4
F0.00869737793933998
sS'r d'
p5
F0.00086445202497826808
sS'communication'
p6
F0.0099036997026267608
sS'data science'
p7
F0.0039179528680158013
sS'analytics'
p8
F0.00213785061847812
sS'engineering'
p9
F0.0043882678340246267
sS'process improvement'
p10
F0.0069391102617272051
sS'marketing research'
p11
F0.017961913964390057
sS'system design'
p12
F0.008643398648285892
sS'data mining'
p13
F0.0093422584180317941
sS'research'
p14
F0.0080291233278565102
sS'visualization'
p15
F0.0034895881538282046
sS'management'
p16
F0.0017931242297036327
sS'user experience'
p17
F0.0059223825153393228
sS'predictive modeling'
p18
F0.0045543921032628748
sS'strategy'
p19
F0.011826520893526702
sS'market research'
p20
F0.0083753203654033798
sS'project coordination'
p21
F0.013517067618043164
sS'computer science'
p22
F0.0034812481998107835
sS'customer service'
p23
F0.007388724955365941
sS'mathematics'
p24
F0.0068247956653545898
sS'segmentation'
p25
F0.01185906139090824
sS'finance'
p26
F0.0059081585667713531
sS'marketing'
p27
F0.014363302096079243
sS'statistical modeling'
p28
F0.0049240760962257065
sS'sql'
p29
F0.0019884860558920321
sS'modeling'
p30
F0.0020329793218992536
sS'data'
p31
F0.0010843695193813536
sS'customer experience'
p32
F0.0065208733000893908
sS'statistical analysis'
p33
F0.0038567976703599415
sS'quantitative research'
p34
F0.0093105717740477375
sS'economics'
p35
F0.0051736838976531264
sS'programming'
p36
F0.0087522970147516747
sS'analysis'
p37
F0.0010553894737374151
sS'science'
p38
F0.0030897963448585659
sS'organization'
p39
F0.0022557103236107339
sS'system administration'
p40
F0.0091393199378947201
sS'crm'
p41
F0.023940248936467418
ssS'working-year'
p42
(dp43
V(2, 5]
p44
F0.0016524921095765553
ssS'major'
p45
(dp46
S'computing'
p47
F0.0044847681318599423
sS'communication'
p48
F0.0099036997026267608
sS'data science'
p49
F0.0039179528680158013
sS'statistic'
p50
F0.0056123112132280663
sS'analytics'
p51
F0.00213785061847812
sS'engineering'
p52
F0.0043882678340246267
sS'design'
p53
F0.0057374202622046703
sS'economics finance'
p54
F0.010734433167714677
sS'data mining'
p55
F0.0093422584180317941
sS'information'
p56
F0.0013231717532489222
sS'management'
p57
F0.0017931242297036327
sS'computer science'
p58
F0.0034812481998107835
sS'mathematics'
p59
F0.0068247956653545898
sS'finance'
p60
F0.0059081585667713531
sS'business'
p61
F0.0016585500583081963
sS'marketing'
p62
F0.014363302096079243
sS'information system'
p63
F0.0058247760473188158
sVphysic
p64
F0.0095981439874583806
sS'information systems'
p65
F0.0066278564799799088
sS'science'
p66
F0.0030897963448585659
sS'economics'
p67
F0.0051736838976531264
sS'business management'
p68
F0.0095363492679734398
sS'management information systems'
p69
F0.010350600881294985
sS'marketing research'
p70
F0.017961913964390057
ssS'education'
p71
(dp72
VMaster
p73
F0.0020307321661134866
ssS'responsibility'
p74
(dp75
S'development'
p76
F0.0019473169097821187
sS'information'
p77
F0.0013231717532489222
sS'product'
p78
F0.0024108028092874488
sVinsight
p79
F0.0021917079567895749
sS'analysis'
p80
F0.0010553894737374151
sS'improvement'
p81
F0.008188771208752341
sS'analytic'
p82
F0.0031462787435924708
sS'design'
p83
F0.0057374202622046703
sS'data mining'
p84
F0.0093422584180317941
sS'report'
p85
F0.0053708334178294284
sS'modeling'
p86
F0.0020329793218992536
sS'implement'
p87
F0.0056040474693562171
sS'statistical model'
p88
F0.003916477542368086
sS'model'
p89
F0.0015508517307771961
ss.