(dp1
S'skills'
p2
(dp3
S'consulting'
p4
I1
sS'data scientist'
p5
I1
sS'life sciences'
p6
I1
sS'analysis'
p7
I1
sS'information retrieval'
p8
I1
sS'business analytics'
p9
I1
sS'analytics'
p10
I1
sS'application development'
p11
I1
sS'computer science'
p12
I1
sS'problem solving'
p13
I1
sS'data mining'
p14
I1
sS'information security'
p15
I1
sS'mathematics'
p16
I1
sS'security'
p17
I1
sS'data'
p18
I1
sS'insurance'
p19
I1
sS'statistical learning'
p20
I1
ssS'working-year'
p21
(dp22
V(2, 5]
p23
I1
ssS'major'
p24
(dp25
S'information'
p26
I1
sS'mathematics physics'
p27
I1
sS'data mining'
p28
I1
sS'life sciences'
p29
I1
sS'phd'
p30
I1
sS'business analytics'
p31
I1
sS'analytics'
p32
I1
sS'physics computer science'
p33
I1
sS'computer science'
p34
I1
sS'statistic'
p35
I1
sS'mathematics'
p36
I1
sS'information retrieval'
p37
I1
sVphysic
p38
I1
ssS'education'
p39
(dp40
VMaster
p41
I1
sVDoctor
p42
I1
ssS'responsibility'
p43
(dp44
S'development'
p45
I1
sS'information'
p46
I1
sS'business problem'
p47
I1
sS'communicate'
p48
I1
sS'analysis'
p49
I1
sS'statistical method'
p50
I1
sS'data mining'
p51
I1
ss.