(dp1
S'skills'
p2
(dp3
S'digital marketing'
p4
I1
sS'programming'
p5
I1
sS'data science'
p6
I1
sS'testing'
p7
I1
sS'go'
p8
I1
sS'engineering'
p9
I1
sS'data mining'
p10
I1
sS'sas'
p11
I1
sVpanda
p12
I1
sS'training'
p13
I1
sS'visualization'
p14
I1
sS'management'
p15
I1
sS'java'
p16
I1
sS'big data'
p17
I1
sS'scala'
p18
I1
sS'statistical computing'
p19
I1
sS'redis'
p20
I1
sS'hadoop'
p21
I1
sS'matlab'
p22
I1
sS'innovation'
p23
I1
sS'application development'
p24
I1
sS'python'
p25
I1
sS'marketing'
p26
I1
sS'collaboration'
p27
I1
sS'data scientist'
p28
I1
sS'apache spark'
p29
I1
sS'strategic thinking'
p30
I1
sS'statistical modeling'
p31
I1
sS'sql'
p32
I1
sS'apache'
p33
I1
sS'modeling'
p34
I1
sS'spark'
p35
I1
sS'data'
p36
I1
sS'c'
I1
sS'science'
p37
I1
sS'scikit-learn'
p38
I1
sS'machine learning'
p39
I1
sS'r'
I1
sS'architecture'
p40
I1
sS'data analytics'
p41
I1
ssS'working-year'
p42
(dp43
V(2, 5]
p44
I1
ssS'major'
p45
(dp46
S'management'
p47
I1
sS'business'
p48
I1
sS'big data'
p49
I1
sS'marketing'
p50
I1
sS'statistical computing'
p51
I1
sS'machine learning'
p52
I1
sS'engineering'
p53
I1
sS'data mining'
p54
I1
sS'data science'
p55
I1
sS'data analytics'
p56
I1
sS'science'
p57
I1
ssS'education'
p58
(dp59
S'Bachelor'
p60
I1
ssS'responsibility'
p61
(dp62
S'development'
p63
I1
sS'product'
p64
I1
sS'business problem'
p65
I1
sVinsight
p66
I1
sS'statistical model'
p67
I1
sS'understand'
p68
I1
sS'data mining'
p69
I1
sS'modeling'
p70
I1
sS'implement'
p71
I1
ss.