(dp1
S'skills'
p2
(dp3
S'software development'
p4
F0.0064605518612118806
sS'management'
p5
F0.0024977536924024211
sS'data scientist'
p6
F0.0005427193389055179
sS'agile'
p7
F0.0055968375690292416
sS'marketing'
p8
F0.010003766122635836
sS'data science'
p9
F0.005457558980373917
sS'saas'
p10
F0.0076576026984686825
sS'scalability'
p11
F0.034091744620638284
sS'writing'
p12
F0.0061532331788415441
sS'insurance'
p13
F0.0074085553572541662
sS'analytics'
p14
F0.0029779444099035397
sS'engineering'
p15
F0.0091690346971922201
sS'dashboard'
p16
F0.0082896861295243991
sS'science'
p17
F0.0043039685155654506
sS'intelligence'
p18
F0.0056008624381885513
sS'retail'
p19
F0.008361086730351356
sS'consumer insights'
p20
F0.017404986275896268
sS'computer science'
p21
F0.004849246026129391
ssS'working-year'
p22
(dp23
V(5, 10]
p24
F0.0035445438602033971
ssS'major'
p25
(dp26
S'information'
p27
F0.0036862556175556479
sS'management'
p28
F0.0024977536924024211
sS'business'
p29
F0.0034654455030633138
sS'marketing'
p30
F0.010003766122635836
sS'data science'
p31
F0.005457558980373917
sS'analytics'
p32
F0.0029779444099035397
sS'engineering'
p33
F0.0091690346971922201
sS'computer science'
p34
F0.004849246026129391
sS'science'
p35
F0.0043039685155654506
ssS'education'
p36
(dp37
VBachelor
p38
F0.0009969359745224185
sVMaster
p39
F0.0028287324894542701
ssS'responsibility'
p40
(dp41
S'development'
p42
F0.0040688073261576536
sS'information'
p43
F0.0036862556175556479
sS'product'
p44
F0.016790782029494696
sS'communicate'
p45
F0.0072428634199069091
sS'model'
p46
F0.0021602773375928685
sS'implement'
p47
F0.0039031122403873943
ss.