(dp1
S'skills'
p2
(dp3
S'communication'
p4
F0.005173756075525675
sS'data science'
p5
F0.0039308526982372522
sS'decision support'
p6
F0.014514842999911015
sS'analytics'
p7
F0.0085268378625835937
sS'business intelligence'
p8
F0.006676612120177847
sS'data governance'
p9
F0.014289378848870262
sS'management'
p10
F0.0029609440104563798
sS'user experience'
p11
F0.011030107729107372
sS'governance'
p12
F0.011779464120574505
sS'strategy'
p13
F0.0051470961804798527
sS'intelligence'
p14
F0.0051309104898260753
sS'policy'
p15
F0.0089204517256233646
sS'master data management'
p16
F0.01638934263654376
sS'data management'
p17
F0.0089866604725793164
sS'advanced analytics'
p18
F0.0096170279553532152
sS'leadership'
p19
F0.016200084521606099
sS'data'
p20
F0.005038625301856693
sS'project management'
p21
F0.0062138997494266216
sS'a'
F0.0061112480183464924
sS'science'
p22
F0.0022974963666473609
sS'dashboard'
p23
F0.011458826696469103
sS'healthcare'
p24
F0.01762902185170042
sS'organization'
p25
F0.0057620386904630103
sS'powerpoint'
p26
F0.0079968117873668379
ssS'working-year'
p27
(dp28
V(2, 5]
p29
F0.0040488380014089397
ssS'major'
p30
(dp31
VData Science
p32
F0.0033571535379250412
sVBusiness
p33
F0.0035350142064513538
sVManagement Science and Engineering
p34
F0.0042141978381336357
ssS'education'
p35
(dp36
VBachelor
p37
F0.0029783621819278001
sVMaster
p38
F0.0023767342654384864
ssS'responsibility'
p39
(dp40
S'development'
p41
F0.0079147777935563313
sS'information'
p42
F0.004533023527873839
sS'insight'
p43
F0.0059963835163708663
sS'decision-making'
p44
F0.012000115835899095
sS'collect data'
p45
F0.017344853358574667
sS'report'
p46
F0.006781949085530814
sS'decision making'
p47
F0.010675108006305601
ss.