(dp1
S'skills'
p2
(dp3
S'r d'
p4
F0.0014931444067806448
sS'communication'
p5
F0.0028510650659077041
sS'human resources'
p6
F0.016020780646591383
sS'analytics'
p7
F0.011077953204841168
sS'communication skills'
p8
F0.010716872504190067
sS'data mining'
p9
F0.016136628176600373
sS'econometrics'
p10
F0.01227678994062611
sS'management'
p11
F0.003097214578579002
sS'critical thinking'
p12
F0.012298498898933884
sS'excel'
p13
F0.0070876694856605348
sS'strategy'
p14
F0.0051069067494774398
sS'r'
F0.0028983227192910621
sS'operations research'
p15
F0.019257566210637019
sS'python'
p16
F0.0026418751394559387
sS'data scientist'
p17
F0.00067297198024284216
sS'sql'
p18
F0.0034346577329044197
sS'modeling'
p19
F0.0035115097378259838
sS'data'
p20
F0.00093650094855662371
sS'data visualization'
p21
F0.0062227488897600774
sS'cluster'
p22
F0.012066544353817229
sS'analysis'
p23
F0.0036458909092747065
sS'machine learning'
p24
F0.0057639148909508636
sS'optimization'
p25
F0.0070004256774600301
sS'retail'
p26
F0.010367747545635683
ssS'working-year'
p27
(dp28
V(5, 10]
p29
F0.0043952343866522125
ssS'major'
p30
(dp31
S'management'
p32
F0.003097214578579002
sS'business'
p33
F0.0014323841412661696
sS'communication'
p34
F0.0028510650659077041
sS'data mining'
p35
F0.016136628176600373
sS'machine learning'
p36
F0.0057639148909508636
sS'analytics'
p37
F0.011077953204841168
sS'operations research'
p38
F0.019257566210637019
sS'statistic'
p39
F0.0032313306985252504
sS'econometrics'
p40
F0.01227678994062611
sS'statistics operations research'
p41
F0.016144057536638536
ssS'education'
p42
(dp43
S'Bachelor'
p44
F0.001236200608407799
ssS'responsibility'
p45
(dp46
S'mine data'
p47
F0.015307645250236177
sS'business problem'
p48
F0.0067223004498334774
sS'communicate'
p49
F0.0089811506406845681
sS'product'
p50
F0.0020820569716573419
sS'analysis'
p51
F0.0036458909092747065
sS'analytic'
p52
F0.0054344814662051766
sS'statistical method'
p53
F0.0091042790220182794
sS'optimization'
p54
F0.0070004256774600301
sS'solve problem'
p55
F0.011010271930660837
sS'data mining'
p56
F0.016136628176600373
sS'report'
p57
F0.0092768940853417397
sS'modeling'
p58
F0.0035115097378259838
sS'model'
p59
F0.0053574877972303141
sS'extract'
p60
F0.0085905970017547961
ss.