(dp1
S'skills'
p2
(dp3
S'r d'
p4
F0.0021611300624456704
sS'data science'
p5
F0.0097948821700395029
sS'presentation skills'
p6
F0.022607200235984011
sS'written oral presentation skills'
p7
F0.038954922917312472
sS'engineering'
p8
F0.0054853347925307829
sS'pricing'
p9
F0.017895863007597514
sS'problem solving'
p10
F0.0099306019974778996
sS'quantitative analysis'
p11
F0.034132533935579218
sS'visualization'
p12
F0.0087239703845705119
sS'management'
p13
F0.0044828105742590815
sS'research'
p14
F0.0050182020799103191
sS'r'
F0.0041949407779212737
sS'computer science'
p15
F0.0087031204995269579
sS'unstructured data'
p16
F0.012642438344644329
sS'teradata'
p17
F0.018471812388414853
sS'python'
p18
F0.0038237666492125424
sS'data scientist'
p19
F0.00097403839245674515
sS'sql'
p20
F0.004971215139730081
sS'pivot tables'
p21
F0.038954922917312472
sS'vba'
p22
F0.025192017408699734
sS'sql server'
p23
F0.017205139272623387
sS'programming'
p24
F0.0054701856342197963
sS'optimization'
p25
F0.010132195059481623
sS'oracle'
p26
F0.013846432322467971
sS'microsoft office'
p27
F0.018058816735720642
sS'data analytics'
p28
F0.016100353837755821
ssS'working-year'
p29
(dp30
V(0, 2]
p31
F0.0097160651787587416
sV(2, 5]
p32
F0.0041312302739413883
ssS'major'
p33
(dp34
S'management'
p35
F0.0044828105742590815
sS'business'
p36
F0.0020731875728852455
sS'data science'
p37
F0.0097948821700395029
sS'computer science statistics'
p38
F0.017435250764223573
sS'engineering'
p39
F0.0054853347925307829
sS'computer science'
p40
F0.0087031204995269579
sS'statistic'
p41
F0.0046769260110233885
sS'data analytics'
p42
F0.016100353837755821
ssS'education'
p43
(dp44
VBachelor
p45
F0.0017892377226954984
sVMaster
p46
F0.0050768304152837163
ssS'responsibility'
p47
(dp48
S'report'
p49
F0.013427083544573571
sS'large data set'
p50
F0.011673100685364535
sS'optimization'
p51
F0.010132195059481623
sS'presentation'
p52
F0.0089068221165530814
sS'quantitative analysis'
p53
F0.034132533935579218
ss.