(dp1
S'skills'
p2
(dp3
S'communication'
p4
F0.0019359083780854779
sS'data science'
p5
F0.0045951299069321126
sS'engineering'
p6
F0.0025733669397057994
sS'statistical analysis'
p7
F0.0045234046751135119
sS'problem solving'
p8
F0.0046588009370883976
sS'modeling'
p9
F0.002384358463955915
sS'analysis'
p10
F0.0012378024691982027
sS'visualization'
p11
F0.004092726847082462
sS'management'
p12
F0.0063091408082164863
sS'genetics'
p13
F0.0093372122183014768
sS'big data'
p14
F0.0054399661905680961
sS'scala'
p15
F0.005513465928590958
sS'predictive modeling'
p16
F0.0053415709853083101
sS'hadoop'
p17
F0.011751122983689443
sS'research'
p18
F0.0023542182597110139
sS'python'
p19
F0.0017938658354330445
sS'processing'
p20
F0.011803670286073622
sS'sql'
p21
F0.0023321750038239886
sS'java'
p22
F0.0034799544065926276
sS'spark'
p23
F0.0078248328365066056
sS'data'
p24
F0.0019076871174301595
sS'analytical skills'
p25
F0.012071942340455043
sS'data visualization'
p26
F0.00422532332020746
sS'programming'
p27
F0.0025662599271648427
sS'mapreduce'
p28
F0.013711230553499201
sS'hive'
p29
F0.0097538574025333412
sS'machine learning'
p30
F0.0039137693703987344
sS'data engineering'
p31
F0.0082923907825385897
sS'optimization'
p32
F0.0047533754600037241
sS'organization'
p33
F0.0026455861820125891
sS'application development'
p34
F0.0079056058196673128
sS'predictive analytics'
p35
F0.012590037556151784
ssS'working-year'
p36
(dp37
V(2, 5]
p38
F0.0019381080297502808
ssS'major'
p39
(dp40
S'information'
p41
F0.0046556043169869487
sS'management'
p42
F0.0063091408082164863
sS'genetics'
p43
F0.0093372122183014768
sS'business'
p44
F0.00097260651567455958
sS'big data'
p45
F0.0054399661905680961
sS'communication'
p46
F0.0019359083780854779
sS'data science'
p47
F0.0045951299069321126
sS'machine learning'
p48
F0.0039137693703987344
sS'engineering'
p49
F0.0025733669397057994
sS'predictive analytics'
p50
F0.012590037556151784
ssS'education'
p51
(dp52
VMaster
p53
F0.0023817229108738422
ssS'responsibility'
p54
(dp55
S'development'
p56
F0.0022838902028308799
sS'large data set'
p57
F0.0054762694573315101
sS'information'
p58
F0.0046556043169869487
sS'processing'
p59
F0.011803670286073622
sS'communicate'
p60
F0.0030491560817138964
sS'analysis'
p61
F0.0012378024691982027
sS'optimization'
p62
F0.0047533754600037241
sS'solve problem'
p63
F0.0074761105702018027
sS'modeling'
p64
F0.002384358463955915
sS'implement'
p65
F0.0032863241332644483
sS'presentation'
p66
F0.0083570182821979516
ss.