(dp1
S'skills'
p2
(dp3
S'consulting'
p4
F0.0054936895228543756
sS'web applications'
p5
F0.013840999095610209
sS'r d'
p6
F0.0010920604038954184
sS'communication'
p7
F0.004170440920875631
sS'data science'
p8
F0.0049495415220944293
sS'testing'
p9
F0.022198951902100039
sS'strategy'
p10
F0.0037351046704954677
sS'amazon web services'
p11
F0.010919187122169676
sS'git'
p12
F0.0090757544072639293
sS'agile'
p13
F0.010151710697015804
sS'recruiting'
p14
F0.014751392260079174
sS'integration'
p15
F0.0051237035412535605
sS'continuous improvement'
p16
F0.0089475616567254914
sS'quality assurance'
p17
F0.0092627604190775575
sS'web services'
p18
F0.0097441243646541106
sS'innovation'
p19
F0.003319893935890945
sS'jenkins'
p20
F0.01020380187465266
sS'amazon web services aws'
p21
F0.013560786581554445
sS'computer science'
p22
F0.0043978534439098995
sS'javascript'
p23
F0.0072488324431499909
sS'data scientist'
p24
F0.00049220025150739785
sS'scrum'
p25
F0.0092804315341469684
sS'aws'
p26
F0.0063469596061119142
sS'ruby'
p27
F0.0085420752285043575
sS'android'
p28
F0.012730008796949334
sS'programming'
p29
F0.0027641895492068122
sS'financial services'
p30
F0.0097866773817796189
sS'healthcare'
p31
F0.0056792938252811682
sS'retail'
p32
F0.0075827940825792884
ssS'working-year'
p33
(dp34
V(2, 5]
p35
F0.0020875897660874035
ssS'major'
p36
(dp37
S'communication'
p38
F0.004170440920875631
sS'data science'
p39
F0.0049495415220944293
sS'design'
p40
F0.0018120177024915016
sS'computer science'
p41
F0.0043978534439098995
sS'data science engineering'
p42
F0.011088641369798289
ssS'education'
p43
(dp44
S'Bachelor'
p45
F0.00090413608327698052
ssS'responsibility'
p46
(dp47
S'report'
p48
F0.010177443644158159
sS'development'
p49
F0.0012300206544501415
sS'product'
p50
F0.0015227810298025773
sS'design'
p51
F0.0018120177024915016
sS'improvement'
p52
F0.0051724286225496834
ss.