(dp1
S'skills'
p2
(dp3
S'software development'
p4
I1
sS'management'
p5
I1
sS'java'
p6
I1
sS'big data'
p7
I1
sS'collaboration'
p8
I1
sS'data scientist'
p9
I1
sS'hadoop'
p10
I1
sS'research'
p11
I1
sS'market research'
p12
I1
sS'engineering'
p13
I1
sS'product innovation'
p14
I1
sS'computer science'
p15
I1
sS'innovation'
p16
I1
sS'organization'
p17
I1
sS'spark'
p18
I1
sS'strategy'
p19
I1
sS'data'
p20
I1
sS'application development'
p21
I1
sS'advertising'
p22
I1
ssS'working-year'
p23
(dp24
V(0, 2]
p25
I1
ssS'major'
p26
(dp27
S'management'
p28
I1
sS'big data'
p29
I1
sS'business'
p30
I1
sS'engineering'
p31
I1
sS'design'
p32
I1
sS'computer science'
p33
I1
sS'ee computer science'
p34
I1
ssS'education'
p35
(dp36
VBachelor
p37
I1
ssS'responsibility'
p38
(dp39
S'development'
p40
I1
sS'implement'
p41
I1
sS'design'
p42
I1
sS'product'
p43
I1
sS'recommendation'
p44
I1
ss.