(dp1
S'skills'
p2
(dp3
S'training'
p4
F0.0076405673734491215
sS'management'
p5
F0.0088251513038927164
sS'performance management'
p6
F0.015406562620499477
sS'design thinking'
p7
F0.014745533424796571
sS'analytics'
p8
F0.0056476458570358873
sS'marketing'
p9
F0.006185761436615418
sS'excel'
p10
F0.0052498513857339793
sS'data scientist'
p11
F0.0034395183933892152
sS'business process'
p12
F0.0099197497711680412
sS'communication'
p13
F0.0051401602568534304
sS'pricing'
p14
F0.024549783568437605
sS'problem solving'
p15
F0.007969519042056011
sS'innovation'
p16
F0.0062851450393984539
sS'advanced analytics'
p17
F0.0095545797218768956
sS'organization'
p18
F0.011449245709621308
sS'customer service'
p19
F0.011131557605804032
sS'data'
p20
F0.0011552092974786324
sS'project management'
p21
F0.0061735497510537213
ssS'working-year'
p22
(dp23
V(2, 5]
p24
F0.0040225468455556352
ssS'major'
p25
(dp26
VData Science
p27
F0.0033353538396268269
sVEconomics
p28
F0.005327180349105393
sVBusiness
p29
F0.0035120595687471242
sVManagement Science and Engineering
p30
F0.0041868329171067939
ssS'education'
p31
(dp32
VBachelor
p33
F0.0029590221677594378
ssS'responsibility'
p34
(dp35
S'development'
p36
F0.0039316915662796059
sS'information'
p37
F0.0045035883101603724
sS'product'
p38
F0.0043668600347978792
sS'insight'
p39
F0.0059574459610697572
sS'communicate'
p40
F0.006513775591823351
sS'design'
p41
F0.0047416195130470058
sS'ownership'
p42
F0.012793160552231779
sS'interface'
p43
F0.010251809086201555
sS'implement'
p44
F0.0068761791399987258
ss.