(dp1
S'skills'
p2
(dp3
S'training'
p4
F0.011915954228762578
sS'management'
p5
F0.0028296810933861314
sS'corporate finance'
p6
F0.035644900306933944
sS'healthcare'
p7
F0.0070944002601518921
sS'collaboration'
p8
F0.0060194540953685781
sS'testing'
p9
F0.0055460504419864547
sS'data scientist'
p10
F0.00061484151018864315
sS'writing'
p11
F0.0069709385846676635
sS'analytics'
p12
F0.0033736845308209537
sS'coaching'
p13
F0.011080719811673849
sS'leadership'
p14
F0.0050628466537215033
sS'mentoring'
p15
F0.009301210270835001
sS'english'
p16
F0.011483898509231576
sS'organization'
p17
F0.0071193515197016518
sS'data'
p18
F0.00085560717891385886
sS'geography'
p19
F0.015049056153778684
ssS'working-year'
p20
(dp21
V(0, 2]
p22
F0.0061330643985520296
sV(2, 5]
p23
F0.0026077533290659923
ssS'major'
p24
(dp25
S'information'
p26
F0.0020880617368546112
sS'management'
p27
F0.0028296810933861314
sS'corporate finance'
p28
F0.035644900306933944
sS'business'
p29
F0.0065432830373454596
sS'analytics'
p30
F0.0033736845308209537
sS'english'
p31
F0.011483898509231576
sS'geography'
p32
F0.015049056153778684
ssS'education'
p33
(dp34
VBachelor
p35
F0.0011294191605054642
sVMaster
p36
F0.0032046437837339073
ssS'responsibility'
p37
(dp38
S'information'
p39
F0.0020880617368546112
sS'implement'
p40
F0.0044217982523990082
sS'communicate'
p41
F0.0041026850933359735
sS'recommendation'
p42
F0.0060863086160165194
ss.