(dp1
S'skills'
p2
(dp3
S'jira'
p4
I1
sS'shell scripting'
p5
I1
sS'communication'
p6
I1
sS'testing'
p7
I1
sS'analytics'
p8
I1
sS'unix'
p9
I1
sS'data'
p10
I1
sS'insurance'
p11
I1
sS'networking'
p12
I1
sS'agile'
p13
I1
sS'innovation'
p14
I1
sS'computer vision'
p15
I1
sS'teamwork'
p16
I1
sS'computer science'
p17
I1
sS'natural language processing'
p18
I1
sS'policy'
p19
I1
sS'mathematics'
p20
I1
sS'data analysis'
p21
I1
sS'python'
p22
I1
sS'processing'
p23
I1
sS'data scientist'
p24
I1
sS'sql'
p25
I1
sS'apache'
p26
I1
sS'spark'
p27
I1
sS'social networking'
p28
I1
sS'statistical programming'
p29
I1
sS'software development'
p30
I1
sS'data visualization'
p31
I1
sS'science'
p32
I1
sS'economics'
p33
I1
sS'programming'
p34
I1
sS'engineering'
p35
I1
sS'analysis'
p36
I1
sS'machine learning'
p37
I1
sS'r'
I1
sS'command'
p38
I1
sS'dashboard'
p39
I1
sS'deep learning'
p40
I1
sS'organization'
p41
I1
sS'scripting'
p42
I1
ssS'working-year'
p43
(dp44
V(2, 5]
p45
I1
ssS'major'
p46
(dp47
S'mathematics physics'
p48
I1
sS'business'
p49
I1
sS'communication'
p50
I1
sS'economics'
p51
I1
sS'machine learning'
p52
I1
sS'analytics'
p53
I1
sS'engineering'
p54
I1
sS'marketing finance'
p55
I1
sS'design'
p56
I1
sS'computer science'
p57
I1
sS'phd'
p58
I1
sS'statistic'
p59
I1
sS'mathematics'
p60
I1
sS'natural language processing'
p61
I1
sS'computer science mathematics'
p62
I1
sVphysic
p63
I1
sS'science'
p64
I1
ssS'education'
p65
(dp66
VMaster
p67
I1
sVDoctor
p68
I1
ssS'responsibility'
p69
(dp70
S'development'
p71
I1
sS'product'
p72
I1
sS'data analysis'
p73
I1
sVtest hypothesis
p74
I1
sS'business problem'
p75
I1
sS'processing'
p76
I1
sS'communicate'
p77
I1
sS'analysis'
p78
I1
sS'cross-functionally'
p79
I1
sS'design'
p80
I1
sS'report'
p81
I1
sS'model'
p82
I1
sVinsight
p83
I1
ss.