(dp1
S'skills'
p2
(dp3
S'business analysis'
p4
F0.03418762706995121
sS'python'
p5
F0.0032289585037794805
sS'storage'
p6
F0.013551359927965544
sS'data science'
p7
F0.0082712338324778031
sS'programming'
p8
F0.0046192678688967174
sS'mapreduce'
p9
F0.012340107498149282
sS'julia'
p10
F0.020303252338675047
sS'machine learning'
p11
F0.0070447848667177229
sS'credit'
p12
F0.047964373329765435
sS'r'
F0.0035423944346890755
sS'analysis'
p13
F0.0022280444445567653
sS'science'
p14
F0.0065229033947014166
sS'product management'
p15
F0.0131678419678335
sS'modeling'
p16
F0.012875535705361941
sS'spark'
p17
F0.0070423495528559449
sS'credit risk'
p18
F0.019731625878113768
sS'data'
p19
F0.002289224540916191
ssS'working-year'
p20
(dp21
V[0]
p22
F0.0063385354327219782
ssS'major'
p23
(dp24
S'business analysis'
p25
F0.03418762706995121
sS'business'
p26
F0.0017506917282142072
sS'science'
p27
F0.0065229033947014166
sS'data science'
p28
F0.0082712338324778031
sS'management marketing'
p29
F0.024246794966593366
sS'machine learning'
p30
F0.0070447848667177229
sS'design'
p31
F0.0030280829161635761
ssS'education'
p32
(dp33
VBachelor
p34
F0.0015109118547206432
ssS'responsibility'
p35
(dp36
S'development'
p37
F0.0020555011825477919
sS'product'
p38
F0.0025447362986923071
sS'develop model'
p39
F0.019887585490995497
sS'predict'
p40
F0.015166594031694389
sS'analysis'
p41
F0.0022280444445567653
sS'design'
p42
F0.0030280829161635761
sS'modeling'
p43
F0.012875535705361941
sS'implement'
p44
F0.0059153834398760069
sS'model'
p45
F0.0065480406410592731
ss.