(dp1
S'skills'
p2
(dp3
S'b testing'
p4
I1
sS'classification'
p5
I1
sS'user experience'
p6
I1
sS'data scientist'
p7
I1
sS'data science'
p8
I1
sS'testing'
p9
I1
sS'programming'
p10
I1
sS'machine learning'
p11
I1
sS'experimentation'
p12
I1
sS'python'
p13
I1
sS'engineering'
p14
I1
sS'dashboard'
p15
I1
sS'editorial'
p16
I1
sS'innovation'
p17
I1
sS'strategy'
p18
I1
sS'data'
p19
I1
sS'collaboration'
p20
I1
sS'predictive analytics'
p21
I1
ssS'working-year'
p22
(dp23
V(5, 10]
p24
I1
ssS'major'
p25
(dp26
S'data science'
p27
I1
sS'predictive analytics'
p28
I1
sS'engineering'
p29
I1
sS'machine learning'
p30
I1
ssS'education'
p31
(dp32
S'Bachelor'
p33
I1
ssS'responsibility'
p34
(dp35
S'development'
p36
I1
sS'product'
p37
I1
sS'business problem'
p38
I1
sVinsight
p39
I1
sS'communicate'
p40
I1
sS'identify opportunity'
p41
I1
ss.