(dp1
S'skills'
p2
(dp3
S'negotiation'
p4
F0.0086466595587340045
sS'r d'
p5
F0.00086994642344211299
sS'excel'
p6
F0.0041294684503318793
sS'analytics'
p7
F0.0021514386520701421
sS'technical leadership'
p8
F0.0084987897680473441
sS'big data'
p9
F0.0046677675999577941
sS'saas'
p10
F0.01106458694990602
sS'integration'
p11
F0.028571160424956298
sS'strategy'
p12
F0.0029754223646319832
sS'communication'
p13
F0.001661107824416565
sS'innovation'
p14
F0.002644661270963973
sS'private equity'
p15
F0.013885886245204527
sS'processing'
p16
F0.0033760497640252943
sS'data scientist'
p17
F0.00039209172577707961
sS'business process'
p18
F0.0056039112605487532
sS'salesforce.com'
p19
F0.024834714200784518
sS'leadership'
p20
F0.0032286373787503652
sS'business development'
p21
F0.008030803845213293
sS'data'
p22
F0.0032737850955898923
sS'customer experience'
p23
F0.0065623195286916534
sS'training'
p24
F0.0037994726937050165
sS'microsoft word'
p25
F0.0098970656676973662
sS'architecture'
p26
F0.0038020638765816689
sS'organization'
p27
F0.0022700474654980905
sS'powerpoint'
p28
F0.0060109007348790626
ssS'working-year'
p29
(dp30
V(2, 5]
p31
F0.0016629952373916604
ssS'major'
p32
(dp33
S'analytics'
p34
F0.0021514386520701421
sS'big data'
p35
F0.0046677675999577941
sS'business'
p36
F0.00083454584501736577
sS'communication'
p37
F0.001661107824416565
ssS'education'
p38
(dp39
VBachelor
p40
F0.0007202439985426795
ssS'responsibility'
p41
(dp42
S'development'
p43
F0.00097984696201960431
sS'product'
p44
F0.004852251416998043
sS'processing'
p45
F0.0033760497640252943
sS'presentation'
p46
F0.0035853733096294182
ss.