(dp1
S'skills'
p2
(dp3
S'consulting'
p4
F0.0038900701706087479
sS'r d'
p5
F0.00077328570972632271
sS'communication'
p6
F0.0029530805767405597
sS'data science'
p7
F0.0035047600985075433
sS'hadoop'
p8
F0.002240680229940784
sS'analytics'
p9
F0.0038247798259024748
sS'data mining'
p10
F0.0083570108259229791
sS'mathematical modeling'
p11
F0.0085665045081006631
sS'writing'
p12
F0.0039515113257720651
sS'management'
p13
F0.0032080376990931284
sS'java'
p14
F0.0026542025135028514
sS'big data'
p15
F0.0041491267555180391
sS'critical thinking'
p16
F0.0063692790907849675
sS'education'
p17
F0.002800861130177358
sS'tableau'
p18
F0.0074894110031446838
sS'research'
p19
F0.0017955901980846714
sS'advanced analytics'
p20
F0.0082154117969629546
sS'data analysis'
p21
F0.0052523875277805917
sS'python'
p22
F0.0027364055116775258
sS'data scientist'
p23
F0.00034852597846851522
sS'business analytics'
p24
F0.011549422297577241
sS'sql'
p25
F0.0017787775452894827
sS'modeling'
p26
F0.0018185784894579012
sS'data'
p27
F0.0043650467941198558
sS'bash'
p28
F0.0078272265102305762
sS'training'
p29
F0.0067546181221422516
sS'data collection'
p30
F0.011436019746439232
sS'science'
p31
F0.0027639421163989054
sS'programming'
p32
F0.007829267574401215
sS'analysis'
p33
F0.00094408662904947669
sS'machine learning'
p34
F0.0029850783333549668
sS'data architecture'
p35
F0.0062919531724505403
sS'exploratory data analysis'
p36
F0.0076190531706806881
sS'r'
F0.0015010145909699472
sS'architecture'
p37
F0.0033796123347392612
sS'military'
p38
F0.0059022873009316043
sS'etl'
p39
F0.0049758664522454085
sS'predictive analytics'
p40
F0.0096025710174039037
ssS'working-year'
p41
(dp42
V(5, 10]
p43
F0.0022762513301871155
sV(2, 5]
p44
F0.0014782179887925871
ssS'major'
p45
(dp46
S'management'
p47
F0.0032080376990931284
sS'business'
p48
F0.010385459404660551
sS'big data'
p49
F0.0041491267555180391
sS'science'
p50
F0.0027639421163989054
sS'data science'
p51
F0.0035047600985075433
sS'data mining'
p52
F0.0083570108259229791
sS'machine learning'
p53
F0.0029850783333549668
sS'business analytics'
p54
F0.011549422297577241
sS'analytics'
p55
F0.0038247798259024748
sS'communication'
p56
F0.0029530805767405597
sS'advanced analytics'
p57
F0.0082154117969629546
sS'data mining predictive analytics'
p58
F0.0098718564679370676
sS'machine learning data mining'
p59
F0.0060203070035870481
sS'predictive analytics'
p60
F0.0096025710174039037
ssS'education'
p61
(dp62
S'Bachelor'
p63
F0.00064021688759349283
ssS'responsibility'
p64
(dp65
S'development'
p66
F0.0017419501547015187
sS'data analysis'
p67
F0.0052523875277805917
sVinsight
p68
F0.0058817021439268253
sS'communicate'
p69
F0.0069768825598538302
sS'analysis'
p70
F0.00094408662904947669
sS'analytic'
p71
F0.0028144678026486322
sS'data collection'
p72
F0.011436019746439232
sS'data mining'
p73
F0.0083570108259229791
sS'modeling'
p74
F0.0018185784894579012
sS'model'
p75
F0.0027745934919742679
sS'presentation'
p76
F0.0063739969948967429
ss.