(dp1
S'skills'
p2
(dp3
S'nosql'
p4
F0.022160703354384796
sS'data science'
p5
F0.0048698013184639644
sS'analytics'
p6
F0.0035212042995284481
sS'engineering'
p7
F0.0049589262229702618
sS'hdfs'
p8
F0.016152079207926107
sS'java'
p9
F0.0050172751727460873
sS'big data'
p10
F0.0051527333051120143
sS'storage'
p11
F0.0151437310224553
sS'access'
p12
F0.0093905345145605459
sS'computer science'
p13
F0.005692239931932068
sS'mathematics'
p14
F0.0074003776602259343
sS'data management'
p15
F0.011133271678580043
sS'python'
p16
F0.0021103300111468258
sS'processing'
p17
F0.0066116926585859112
sS'data scientist'
p18
F0.0042889541099752158
sS'apache spark'
p19
F0.010638078106841862
sS'sql'
p20
F0.0027609063110649681
sS'apache'
p21
F0.0091623553382268359
sS'spark'
p22
F0.0068264600134237191
sS'data'
p23
F0.0057620156052375507
sS'data collection'
p24
F0.029355057060414927
sS'science'
p25
F0.0028462910453202124
sS'programming'
p26
F0.0044628147159306722
sS'mapreduce'
p27
F0.010674904926947048
sS'machine learning'
p28
F0.0026539179021621024
sS'r'
F0.0022469324154410575
ssS'working-year'
p29
(dp30
V(0, 2]
p31
F0.0092209723242516334
sV(2, 5]
p32
F0.0050159693458750425
ssS'major'
p33
(dp34
VMathematics
p35
F0.0069403746136941372
sVData Science
p36
F0.0041590647069030878
sVManagement Science and Engineering
p37
F0.0052208280909671759
sVEngineering
p38
F0.0049589262229702618
sVComputer Science
p39
F0.0036654078799684118
ssS'education'
p40
(dp41
VBachelor
p42
F0.0036897928245745214
ssS'responsibility'
p43
(dp44
S'insight'
p45
F0.022286154121572695
sS'processing'
p46
F0.0066116926585859112
sS'data collection'
p47
F0.029355057060414927
sS'design'
p48
F0.0059126267612084112
sS'data infrastructure'
p49
F0.017526580472306975
ss.