(dp1
S'skills'
p2
(dp3
S'genetics'
p4
F0.017034103371225667
sS'product development'
p5
F0.009319109417032026
sS'computational biology'
p6
F0.045354212976954349
sS'spring'
p7
F0.017823294483133072
sS'communication'
p8
F0.0035317247438045882
sS'research'
p9
F0.021474288179796408
sS'epidemiology'
p10
F0.021452189006896268
sS'r'
F0.0035902646297524417
sS'data'
p11
F0.0011600800038426644
sS'problem solving'
p12
F0.0084991638717153203
sS'innovation'
p13
F0.0056228834229504294
sS'organization'
p14
F0.0048264072239418854
sS'data scientist'
p15
F0.0008336364620125297
sS'science'
p16
F0.0066110507378730572
ssS'working-year'
p17
(dp18
V[0]
p19
F0.0064241913169479506
ssS'major'
p20
(dp21
S'genetics'
p22
F0.017034103371225667
sS'computational biology'
p23
F0.045354212976954349
sS'communication'
p24
F0.0035317247438045882
sS'phd'
p25
F0.0075882548635994211
sS'epidemiology'
p26
F0.021452189006896268
sS'science'
p27
F0.0066110507378730572
sS'computational biolog'
p28
F0.022146555939707741
ssS'education'
p29
(dp30
VDoctor
p31
F0.0057327236818981633
ssS'responsibility'
p32
(dp33
S'report'
p34
F0.0057458240393445459
sS'product'
p35
F0.0025791246270530136
sS'communicate'
p36
F0.0055626496085321078
sS'model'
p37
F0.0033182638383746316
ss.