(dp1
S'skills'
p2
(dp3
S'intelligence'
p4
F0.0091548606990482749
sS'linear programming'
p5
F0.013681789413905044
sS'engineering'
p6
F0.0035710051809727541
sS'defense'
p7
F0.010296321148478829
sS'ic'
p8
F0.012383056756079107
sS'writing'
p9
F0.0065511962859547898
sS'education'
p10
F0.006118445334732563
sS'integration'
p11
F0.0067237408810338559
sS'research'
p12
F0.0024873479348738723
sS'access'
p13
F0.0067622799565494312
sS'mathematics'
p14
F0.010658269866331229
sS'unstructured data'
p15
F0.0092968175902424493
sS'government'
p16
F0.015201863064891925
sS'data scientist'
p17
F0.0030885471287576626
sS'modeling'
p18
F0.0023677716881094824
sS'data'
p19
F0.0013831077303145529
sS'probability theory'
p20
F0.014201459197614213
sS'information technology'
p21
F0.0090864404424540676
sS'data collection'
p22
F0.021139064413768182
sS'data visualization'
p23
F0.0057339172757422761
sS'science'
p24
F0.0040993229632308595
sS'documentation'
p25
F0.016906361276641579
sS'programming'
p26
F0.003213747040334915
sS'communication skills'
p27
F0.010737976245073246
sS'data science'
p28
F0.0035068248561533504
sS'security'
p29
F0.006371285177025632
sS'validation'
p30
F0.0092185489943880372
sS'game theory'
p31
F0.014834295960417472
ssS'working-year'
p32
(dp33
V(5, 10]
p34
F0.0035149978471628535
ssS'major'
p35
(dp36
VMathematics
p37
F0.0049978790949925713
sVData Science
p38
F0.0029950116110934772
sVInformation Science
p39
F0.0073838343689623725
sVEngineering
p40
F0.0065667024103986229
sVBusiness
p41
F0.0031536861433647642
ssS'education'
p42
(dp43
VBachelor
p44
F0.0026570811302329641
ssS'responsibility'
p45
(dp46
S'information'
p47
F0.0080880769651859741
sS'data collection'
p48
F0.021139064413768182
sS'documentation'
p49
F0.016906361276641579
sS'statistical method'
p50
F0.010250117868954843
sS'modeling'
p51
F0.0023677716881094824
sS'model'
p52
F0.013534205614300066
sS'presentation'
p53
F0.0071817910854507479
sS'decision making'
p54
F0.0095235657432347336
ss.