(dp1
S'skills'
p2
(dp3
S'research design'
p4
F0.010551234755468063
sS'r d'
p5
F0.001207690329013757
sS'communication'
p6
F0.0023060085091900547
sS'linear programming'
p7
F0.015096344420242866
sS'engineering'
p8
F0.0030653341487672024
sS'defense'
p9
F0.0084169103927528074
sS'ic'
p10
F0.021059376354236575
sS'research'
p11
F0.002804289397596943
sS'education'
p12
F0.0043742860591887561
sS'r programming'
p13
F0.0095065539521944128
sS'integration'
p14
F0.0056662133279745258
sS'strategy'
p15
F0.0041305863414891055
sS'access'
p16
F0.0053621326605112112
sS'intelligence'
p17
F0.011234671126013505
sS'mathematics'
p18
F0.0095346410030689114
sS'unstructured data'
p19
F0.0070648920161247722
sS'government'
p20
F0.011507509299327104
sS'data scientist'
p21
F0.00054431557225523991
sS'algorithm design'
p22
F0.012504605978077826
sS'modeling'
p23
F0.0028401916997121929
sS'data'
p24
F0.00075746400250903379
sS'probability theory'
p25
F0.015778110282922232
sS'information technology'
p26
F0.014920863713553086
sS'data collection'
p27
F0.01786037201576245
sS'science'
p28
F0.0086332544929871701
sS'documentation'
p29
F0.013213670670501809
sS'programming'
p30
F0.003056868442652239
sS'communication skills'
p31
F0.0086680586430949065
sS'data science'
p32
F0.00547361062443384
sS'security'
p33
F0.0046926443837401856
sS'game theory'
p34
F0.015908850162666251
ssS'working-year'
p35
(dp36
V(15, 20]
p37
F0.012909369350934456
sV(2, 5]
p38
F0.0023086286824966582
ssS'major'
p39
(dp40
S'information'
p41
F0.0018485487729212882
sS'information systems'
p42
F0.009259505376442519
sS'business'
p43
F0.001158545996612343
sS'science'
p44
F0.0086332544929871701
sS'data science'
p45
F0.00547361062443384
sS'engineering'
p46
F0.0030653341487672024
sS'information system'
p47
F0.0081375547719895209
sS'design'
p48
F0.0020038784004023664
sS'communication'
p49
F0.0023060085091900547
sS'mathematics'
p50
F0.0095346410030689114
sS'law'
p51
F0.0052566419543489604
sS'information technology'
p52
F0.014920863713553086
ssS'education'
p53
(dp54
VBachelor
p55
F0.00099986813915336667
ssS'responsibility'
p56
(dp57
S'information'
p58
F0.0018485487729212882
sS'data collection'
p59
F0.01786037201576245
sS'documentation'
p60
F0.013213670670501809
sS'statistical method'
p61
F0.0073637550913383141
sS'design'
p62
F0.0020038784004023664
sS'modeling'
p63
F0.0028401916997121929
sS'model'
p64
F0.0064998932834044254
sS'presentation'
p65
F0.0049773417710149565
ss.