(dp1
S'skills'
p2
(dp3
S'r d'
p4
F0.0014357157757506202
sS'communication'
p5
F0.002741408717218946
sS'linear programming'
p6
F0.017946703156932076
sS'engineering'
p7
F0.0036441035334994713
sS'defense'
p8
F0.010006117250125715
sS'education'
p9
F0.0052002002102243955
sS'visualization'
p10
F0.0057956446610783119
sS'r programming'
p11
F0.011301497705405944
sS'integration'
p12
F0.0067360578024871992
sS'research'
p13
F0.0033337706125278342
sS'access'
p14
F0.0063745633027056364
sS'intelligence'
p15
F0.02003385410582828
sS'mathematics'
p16
F0.011334887905746259
sS'data science'
p17
F0.0065070895535227465
sS'government'
p18
F0.013680255810388866
sS'data scientist'
p19
F0.00064708844254119432
sS'modeling'
p20
F0.0033764516709865228
sS'data'
p21
F0.0018009633626088917
sS'security'
p22
F0.0055786681485023191
sS'information technology'
p23
F0.017738089729398773
sS'data collection'
p24
F0.021232610088668644
sS'science'
p25
F0.010263309537117614
sS'documentation'
p26
F0.0078542797691793977
sS'programming'
p27
F0.0036340394073488156
sS'communication skills'
p28
F0.010304685100182757
sS'probability theory'
p29
F0.018757194042634821
sS'game theory'
p30
F0.01891261907449834
ssS'working-year'
p31
(dp32
V(2, 5]
p33
F0.0027445236085624604
ssS'major'
p34
(dp35
S'information'
p36
F0.0021975754643120209
sS'information systems'
p37
F0.011007803594372227
sS'business'
p38
F0.001377292443525163
sS'science'
p39
F0.010263309537117614
sS'data science'
p40
F0.0065070895535227465
sS'engineering'
p41
F0.0036441035334994713
sS'information system'
p42
F0.0096740161625050256
sS'design'
p43
F0.0023822330634154011
sS'communication'
p44
F0.002741408717218946
sS'mathematics'
p45
F0.011334887905746259
sS'law'
p46
F0.0062491547709043584
sS'information technology'
p47
F0.017738089729398773
ssS'education'
p48
(dp49
VBachelor
p50
F0.0011886544311613451
ssS'responsibility'
p51
(dp52
S'information'
p53
F0.0021975754643120209
sS'product'
p54
F0.002001977857362829
sS'data collection'
p55
F0.021232610088668644
sS'documentation'
p56
F0.0078542797691793977
sS'communicate'
p57
F0.0043178608849445037
sS'statistical method'
p58
F0.008754114444248345
sS'design'
p59
F0.0023822330634154011
sS'report'
p60
F0.0044600452333373748
sS'modeling'
p61
F0.0033764516709865228
sS'model'
p62
F0.0051514305742599176
ss.