(dp1
S'skills'
p2
(dp3
S'management'
p4
F0.0048950230408576186
sS'biostatistics'
p5
F0.024600880244297855
sS'operational excellence'
p6
F0.030830790208008958
sS'data science'
p7
F0.01069556099027302
sS'private equity'
p8
F0.037667461538715731
sS'research'
p9
F0.01095929189865472
sS'strategy'
p10
F0.0080712606672775633
sS'process improvement'
p11
F0.018942973415634612
sS'organization'
p12
F0.0061578299064086123
sS'continuous improvement'
p13
F0.019334960821429797
sS'data'
p14
F0.0029602041477364538
sS'cro'
p15
F0.035617609046972108
sS'data management'
p16
F0.013430050958659802
ssS'working-year'
p17
(dp18
V[0]
p19
F0.0081963820250715233
ssS'major'
p20
(dp21
S'data science'
p22
F0.01069556099027302
sS'management'
p23
F0.0048950230408576186
sS'biostatistics'
p24
F0.024600880244297855
ssS'education'
p25
(dp26
VMaster
p27
F0.0055436653959994604
ssS'responsibility'
p28
(dp29
S'report'
p30
F0.0073308789467499379
sS'improvement'
p31
F0.01117720208091196
ss.