(dp1
S'skills'
p2
(dp3
S'communication'
p4
F0.0079158467955542829
sS'engineering'
p5
F0.006124273885368273
sS'defense'
p6
F0.017658190769641192
sS'process improvement'
p7
F0.016128813222147331
sS'troubleshooting'
p8
F0.01880191232867098
sS'management'
p9
F0.013590733007994783
sS'asset management'
p10
F0.023726106435569192
sS'integration'
p11
F0.011531215610973063
sS'governance'
p12
F0.018022580104478995
sS'application architecture'
p13
F0.02820114739712154
sS'access'
p14
F0.011597310125482275
sS'risk management'
p15
F0.015798786629941181
sS'information security'
p16
F0.023515550878310278
sS'automation'
p17
F0.016675241627319048
sS'policy'
p18
F0.013648291140203748
sS'technical writing'
p19
F0.021269728872036046
sS'project management'
p20
F0.0095072666166227306
sS'training'
p21
F0.011766473755111646
sS'science'
p22
F0.0035151694409704622
sS'documentation'
p23
F0.014497204794720154
sS'information assurance'
p24
F0.032848816440596215
sS'architecture'
p25
F0.021870145226846584
sS'security'
p26
F0.087414032628791674
ssS'working-year'
p27
(dp28
V(0, 2]
p29
F0.011387900820450768
sV(2, 5]
p30
F0.0061947221421556776
ssS'major'
p31
(dp32
VEngineering
p33
F0.006124273885368273
sVElectrical and Electronics Engineering
p34
F0.015733142976874909
sVManagement Science and Engineering
p35
F0.0064477226923444625
ssS'education'
p36
(dp37
VBachelor
p38
F0.0045568941383495338
ssS'responsibility'
p39
(dp40
S'information'
p41
F0.013871051995293947
sS'product'
p42
F0.0067249644535887334
sS'documentation'
p43
F0.014497204794720154
sS'evaluation'
p44
F0.016917215919133387
sS'improvement'
p45
F0.01343103248169554
ss.