(dp1
S'skills'
p2
(dp3
S'communication'
p4
F0.0086987327423673436
sS'data science'
p5
F0.0066090160750582379
sS'hadoop'
p6
F0.0070593763813162911
sS'engineering'
p7
F0.0067299713026024981
sS'statistical analysis'
p8
F0.014146704139629715
sS'problem solving'
p9
F0.013486878378864019
sS'sas'
p10
F0.0076111915202055867
sS'machine learning'
p11
F0.0036017457243628539
sS'statistics'
p12
F0.005123697004409916
sS'big data'
p13
F0.0069929951997948769
sS'tableau'
p14
F0.01103860487430655
sS'teamwork'
p15
F0.015738517298362634
sS'computer science'
p16
F0.007725182764764949
sS'natural language processing'
p17
F0.01376900072505661
sS'statistical software'
p18
F0.021623611930205986
sS'teradata'
p19
F0.020115751070514439
sS'finance'
p20
F0.01458871458342686
sS'python'
p21
F0.0028640193008421209
sS'marketing'
p22
F0.010468211661964554
sS'collaboration'
p23
F0.014053128681722276
sS'processing'
p24
F0.0089730114652237375
sS'business analytics'
p25
F0.016690023042083044
sS'management'
p26
F0.0099565809582379365
sS'sql'
p27
F0.0037469442793024569
sS'data'
p28
F0.00065165652678281824
sS'science'
p29
F0.0038628235615060023
sS'economics'
p30
F0.013167537496480558
sS'analysis'
p31
F0.0018825204491985162
sS'spss'
p32
F0.012122795773942667
sS'r'
F0.003049408278098578
sS'organization'
p33
F0.0096878232927564908
ssS'working-year'
p34
(dp35
S'[0]'
p36
F0.012067113904090015
ssS'major'
p37
(dp38
VStatistics
p39
F0.0098983778565279144
sVBusiness
p40
F0.0059434854240335948
sVData Science
p41
F0.0056444449593684764
sVEconomics
p42
F0.0090152282831014348
sVEngineering
p43
F0.0067299713026024981
sVComputer Science
p44
F0.0049744821228142741
sVManagement Science and Engineering
p45
F0.0070854095520268816
ssS'education'
p46
(dp47
VBachelor
p48
F0.0050075759762082794
sVMaster
p49
F0.003996047721011961
ssS'responsibility'
p50
(dp51
S'predict'
p52
F0.022922428772062138
sS'model'
p53
F0.0085022573730859398
sS'processing'
p54
F0.0089730114652237375
sS'analysis'
p55
F0.0018825204491985162
ss.