(dp1
S'skills'
p2
(dp3
S'management'
p4
F0.0047057127575095333
sS'biostatistics'
p5
F0.094597859944924353
sS'operational excellence'
p6
F0.029638439205489274
sS'communication'
p7
F0.0043317286912962355
sS'data science'
p8
F0.010281920509986218
sS'private equity'
p9
F0.036210708882522299
sS'integration'
p10
F0.010643715643709055
sS'analysis'
p11
F0.0027696685084269181
sS'research'
p12
F0.010535451880474703
sS'leadership'
p13
F0.016838860141106877
sS'process improvement'
p14
F0.018210372233814488
sS'statistical analysis'
p15
F0.010121430350392112
sS'organization'
p16
F0.0059196817884812078
sS'cro'
p17
F0.034240132453995285
ssS'working-year'
p18
(dp19
V(5, 10]
p20
F0.0066778423001622013
ssS'major'
p21
(dp22
S'communication'
p23
F0.0043317286912962355
sS'data science'
p24
F0.010281920509986218
sS'management'
p25
F0.0047057127575095333
sS'biostatistics'
p26
F0.094597859944924353
sS'phd'
p27
F0.0093071413244147586
ssS'education'
p28
(dp29
VDoctor
p30
F0.007031296449620951
ssS'responsibility'
p31
(dp32
S'report'
p33
F0.0070473642913507686
sS'analysis'
p34
F0.0027696685084269181
ss.