(dp1
S'skills'
p2
(dp3
S'problem solving'
p4
I1
sS'nosql'
p5
I1
sS'data science'
p6
I1
sS'testing'
p7
I1
sS'due diligence'
p8
I1
sS'rest'
p9
I1
sS'software design'
p10
I1
sS'analytics'
p11
I1
sS'engineering'
p12
I1
sS'data warehousing'
p13
I1
sS'analysis'
p14
I1
sS'system design'
p15
I1
sS'mysql'
p16
I1
sS'cassandra'
p17
I1
sS'technical leadership'
p18
I1
sS'open source'
p19
I1
sS'big data'
p20
I1
sS'scala'
p21
I1
sS'agile'
p22
I1
sS'hadoop'
p23
I1
sS'computer science'
p24
I1
sS'soap'
p25
I1
sS'python'
p26
I1
sS'data scientist'
p27
I1
sS'leadership development'
p28
I1
sS'scalability'
p29
I1
sS'automation'
p30
I1
sS'leadership'
p31
I1
sS'sql'
p32
I1
sS'postgresql'
p33
I1
sS'data'
p34
I1
sS'software development'
p35
I1
sS'design patterns'
p36
I1
sS'java'
p37
I1
sS'aws'
p38
I1
sS'unit testing'
p39
I1
sS'emr'
p40
I1
sS'oracle'
p41
I1
sS'application development'
p42
I1
ssS'working-year'
p43
(dp44
V(0, 2]
p45
I1
ssS'major'
p46
(dp47
S'information'
p48
I1
sS'business'
p49
I1
sS'big data'
p50
I1
sS'data science'
p51
I1
sS'automation'
p52
I1
sS'analytics'
p53
I1
sS'engineering'
p54
I1
sS'design'
p55
I1
sS'computer science'
p56
I1
sS'ee computer science'
p57
I1
ssS'education'
p58
(dp59
VBachelor
p60
I1
sVMaster
p61
I1
ssS'responsibility'
p62
(dp63
S'development'
p64
I1
sS'information'
p65
I1
sS'product'
p66
I1
sS'pattern'
p67
I1
sS'due diligence'
p68
I1
sS'analysis'
p69
I1
sS'understand'
p70
I1
sS'interface'
p71
I1
sS'design'
p72
I1
sS'implement'
p73
I1
ss.