(dp1
S'skills'
p2
(dp3
S'jira'
p4
I1
sS'communication'
p5
I1
sS'linux'
p6
I1
sS'hadoop'
p7
I1
sS'engineering'
p8
I1
sS'defense'
p9
I1
sS'data warehousing'
p10
I1
sS'dod'
p11
I1
sS'system design'
p12
I1
sS'data mining'
p13
I1
sS'management'
p14
I1
sS'java'
p15
I1
sS'scala'
p16
I1
sS'integration'
p17
I1
sS'research'
p18
I1
sS'etl'
p19
I1
sS'computer science'
p20
I1
sS'microstrategy'
p21
I1
sS'strategic communications'
p22
I1
sS'python'
p23
I1
sS'data scientist'
p24
I1
sS'sql'
p25
I1
sS'modeling'
p26
I1
sS'data'
p27
I1
sS'information technology'
p28
I1
sS'c'
I1
sS'itil'
p29
I1
sS'data visualization'
p30
I1
sS'analysis'
p31
I1
sS'system architecture'
p32
I1
sS'architecture'
p33
I1
sS'security'
p34
I1
sS'data analytics'
p35
I1
ssS'working-year'
p36
(dp37
V(15, 20]
p38
I1
sV(20, 30)
p39
I1
ssS'major'
p40
(dp41
S'information'
p42
I1
sS'management'
p43
I1
sS'business'
p44
I1
sS'communication'
p45
I1
sS'data analyst'
p46
I1
sS'engineering'
p47
I1
sS'design'
p48
I1
sS'data analytics'
p49
I1
sS'data mining'
p50
I1
sS'information technology'
p51
I1
sS'computer science'
p52
I1
ssS'education'
p53
(dp54
VBachelor
p55
I1
sVMaster
p56
I1
ssS'responsibility'
p57
(dp58
S'development'
p59
I1
sS'information'
p60
I1
sS'product'
p61
I1
sS'analysis'
p62
I1
sS'design'
p63
I1
sS'data mining'
p64
I1
sS'modeling'
p65
I1
sS'model'
p66
I1
ss.