(dp1
S'skills'
p2
(dp3
S'r d'
p4
F0.00087364832311633478
sS'intelligence'
p5
F0.020318022249173361
sS'data science'
p6
F0.003959633217675544
sS'sql'
p7
F0.0040192803257392143
sS'analytics'
p8
F0.0064817811304921725
sS'business intelligence'
p9
F0.0049541359301845849
sS'data governance'
p10
F0.0079896559610771207
sS'data warehousing'
p11
F0.0070012725787383873
sS'troubleshooting'
p12
F0.0067701458371719871
sS'data mining'
p13
F0.0094416441458831952
sS'management'
p14
F0.0018122000193813311
sS'tableau'
p15
F0.02961504329647744
sS'governance'
p16
F0.0064782415435093218
sS'writing'
p17
F0.004464367051031844
sS'etl'
p18
F0.011243340792094944
sS'computer science'
p19
F0.0035182827551279196
sS'policy'
p20
F0.0050081123099108846
sS'customer satisfaction'
p21
F0.0082870153026939584
sS'data modeling'
p22
F0.0057085196434854052
sS'business analysis'
p23
F0.016366417214338347
sS'automation'
p24
F0.0059354924635664575
sS'statistical modeling'
p25
F0.0049764598844834274
sS'performance tuning'
p26
F0.0092365467457446639
sS'modeling'
p27
F0.0020546067614939266
sS'data'
p28
F0.0038356687786627675
sS'training'
p29
F0.0038156406626143999
sS'data visualization'
p30
F0.0036409700950723856
sS'engineering'
p31
F0.0022174757671932954
sS'analysis'
p32
F0.0010666170213303662
sS'spss'
p33
F0.0051738496482470466
sS'r'
F0.0016958271229894511
sS'dashboard'
p34
F0.0060144318514208936
sS'data analytics'
p35
F0.0065086536790927791
ssS'working-year'
p36
(dp37
V(5, 10]
p38
F0.0025716796943177837
ssS'major'
p39
(dp40
S'management'
p41
F0.0018122000193813311
sS'business analysis'
p42
F0.016366417214338347
sS'business'
p43
F0.0092190681432556647
sS'finance statistics'
p44
F0.013186093562070527
sS'data science'
p45
F0.003959633217675544
sS'data mining'
p46
F0.0094416441458831952
sS'automation'
p47
F0.0059354924635664575
sS'analytics'
p48
F0.0064817811304921725
sS'engineering'
p49
F0.0022174757671932954
sS'computer science engineering'
p50
F0.0064421803849611286
sS'computer science'
p51
F0.0035182827551279196
sS'statistic'
p52
F0.001890672217222221
sS'design'
p53
F0.0014496141619932013
sS'ee computer science'
p54
F0.0048082458645277949
sS'data analytics'
p55
F0.0065086536790927791
sS'accounting finance'
p56
F0.012323404007141265
ssS'education'
p57
(dp58
VBachelor
p59
F0.00072330886662158448
ssS'responsibility'
p60
(dp61
S'development'
p62
F0.00098401652356011312
sVinsight
p63
F0.013290143993298484
sS'mapping'
p64
F0.0074385766841222256
sS'analysis'
p65
F0.0010666170213303662
sS'statistical model'
p66
F0.0039581421970741291
sS'design'
p67
F0.0014496141619932013
sS'solve problem'
p68
F0.0064421803849611286
sS'data mining'
p69
F0.0094416441458831952
sS'report'
p70
F0.0081419549153265262
sS'modeling'
p71
F0.0020546067614939266
sS'prototype'
p72
F0.0050728661057177589
sS'extract'
p73
F0.0050264131393246148
ss.