(dp1
S'skills'
p2
(dp3
S'finance'
p4
I1
sS'intelligence'
p5
I1
sS'human resources'
p6
I1
sS'data scientist'
p7
I1
sS'analysis'
p8
I1
sS'spss'
p9
I1
sS'engineering management'
p10
I1
sS'e-commerce'
p11
I1
sS'defense'
p12
I1
sS'statistical software'
p13
I1
sS'computer science'
p14
I1
sS'military'
p15
I1
sS'education'
p16
I1
sS'data'
p17
I1
sS'insurance'
p18
I1
sS'information technology'
p19
I1
ssS'working-year'
p20
(dp21
V[0]
p22
I1
ssS'major'
p23
(dp24
S'information'
p25
I1
sS'finance'
p26
I1
sS'engineering management'
p27
I1
sS'computer science engineering'
p28
I1
sS'computer science'
p29
I1
sS'statistic'
p30
I1
sS'information technology'
p31
I1
ssS'education'
p32
(dp33
VBachelor
p34
I1
ssS'responsibility'
p35
(dp36
S'development'
p37
I1
sS'information'
p38
I1
sS'analysis'
p39
I1
ss.