(dp1
S'skills'
p2
(dp3
S'biostatistics'
p4
F0.018219895237488373
sS'communication'
p5
F0.014658975547322744
sS'energy'
p6
F0.014284700490972612
sS'engineering'
p7
F0.0056706239679335862
sS'statistical analysis'
p8
F0.011919908117650962
sS'problem solving'
p9
F0.011363943819228013
sS'strategy'
p10
F0.0072917195890131242
sS'genomics'
p11
F0.058991506490765747
sS'dna'
p12
F0.021821633653810318
sS'research'
p13
F0.0039498163965821214
sS'genetics'
p14
F0.017982431042217119
sS'computer science'
p15
F0.0065091817740149105
sS'mathematics'
p16
F0.0084624688984991005
sS'biology'
p17
F0.031456597817865715
sS'product development'
p18
F0.012099427540656064
sS'python'
p19
F0.0024132014479317869
sS'data scientist'
p20
F0.0049044984498327693
sS'bioinformatics'
p21
F0.030178308243082919
sS'java'
p22
F0.0057373470725383489
sS'editing'
p23
F0.019944501147613439
sS'c'
F0.0057899163143430429
sS'science'
p24
F0.0032547865194170944
sS'analysis'
p25
F0.0047585933576962487
sS'machine learning'
p26
F0.0030348042677501822
ssS'working-year'
p27
(dp28
S'[0]'
p29
F0.010167660789557326
ssS'major'
p30
(dp31
VBiological Engineering
p32
F0.012176832317021715
sVMathematics
p33
F0.0079364468962150551
sVEngineering
p34
F0.010427680216512627
sVComputer Science
p35
F0.0041914617886675823
ssS'education'
p36
(dp37
VDoctor
p38
F0.0050425082026688333
ssS'responsibility'
p39
(dp40
S'development'
p41
F0.0056063009371024007
sS'large data set'
p42
F0.014557671922837342
sS'product'
p43
F0.0062268189385080858
sS'analysis'
p44
F0.0047585933576962487
sS'design'
p45
F0.013522396389059978
sS'presentation'
p46
F0.011404418251433363
ss.