(dp1
S'skills'
p2
(dp3
S'digital marketing'
p4
F0.006481663194532309
sS'economics'
p5
F0.0044763203121771129
sS'r d'
p6
F0.00074793207989923012
sS'communication'
p7
F0.001428129131374533
sS'data science'
p8
F0.0033898499313433617
sS'analytics'
p9
F0.0036993772086597707
sS'engineering'
p10
F0.0018983854473239505
sS'troubleshooting'
p11
F0.0057959354161581673
sS'problem solving'
p12
F0.0034368203634258668
sS'account management'
p13
F0.0087635258957854244
sS'management'
p14
F0.0015514280675942179
sS'big data'
p15
F0.0040130898127141686
sS'digital media'
p16
F0.023390189867287806
sS'marketing'
p17
F0.0062136325096881972
sS'policy'
p18
F0.004287454982983818
sS'mathematics'
p19
F0.0029524389262690623
sS'energy'
p20
F0.004964591982922398
sS'financial services'
p21
F0.0067027152924392288
sS'data analysis'
p22
F0.0050801781006402447
sS'python'
p23
F0.0013233436490899509
sS'automotive'
p24
F0.006494720181828461
sS'data scientist'
p25
F0.00033709889720725243
sS'product management'
p26
F0.0053966565441940575
sS'leadership'
p27
F0.0027758048137890208
sS'sql'
p28
F0.0017204569700340899
sS'data'
p29
F0.0023455169476600322
sS'science'
p30
F0.0026733210634022199
sS'cloud computing'
p31
F0.0064430446202303491
sS'marketing analytics'
p32
F0.01328977344644405
sS'programming'
p33
F0.0018931425692199661
sS'analysis'
p34
F0.0036525318763225658
sS'r'
F0.0014518009978233917
sS'advertising'
p35
F0.0053823709876102003
sS'oracle'
p36
F0.023960128791155874
sS'organization'
p37
F0.0058549858126508121
sS'retail'
p38
F0.010386632331693306
sS'statistical analysis'
p39
F0.003336937875083738
ssS'working-year'
p40
(dp41
V(0, 2]
p42
F0.0033625726483864499
ssS'major'
p43
(dp44
S'mathematics'
p45
F0.0029524389262690623
sS'management'
p46
F0.0015514280675942179
sS'economics math'
p47
F0.0083570750456126702
sS'big data'
p48
F0.0040130898127141686
sS'analytics'
p49
F0.0036993772086597707
sS'mathematics statistics'
p50
F0.0060648430704020508
sS'economics mathematics'
p51
F0.0084314313071913831
sS'data science'
p52
F0.0033898499313433617
sS'economics'
p53
F0.0044763203121771129
sS'communication'
p54
F0.001428129131374533
sS'marketing analytics'
p55
F0.01328977344644405
sS'business'
p56
F0.0021524898297715662
sS'digital media'
p57
F0.023390189867287806
sS'engineering'
p58
F0.0018983854473239505
sS'computing'
p59
F0.003880263866363338
sS'statistic'
p60
F0.0016186082733960726
sS'design'
p61
F0.0012410175885916295
sS'marketing'
p62
F0.0062136325096881972
sS'science'
p63
F0.0026733210634022199
ssS'education'
p64
(dp65
VBachelor
p66
F0.00061922616996747668
ssS'responsibility'
p67
(dp68
S'development'
p69
F0.00084241851743761971
sS'product'
p70
F0.0093863224132093286
sS'data analysis'
p71
F0.0050801781006402447
sS'business problem'
p72
F0.0033672725386233266
sS'presentation'
p73
F0.003082506743433671
sVinsight
p74
F0.0056888594506833224
sS'communicate'
p75
F0.0022493774373299235
sS'analysis'
p76
F0.0036525318763225658
sS'analytic'
p77
F0.0054443803395498131
sS'design'
p78
F0.0012410175885916295
sS'recommendation'
p79
F0.003336937875083738
sS'interface'
p80
F0.0042412456961507371
sS'model'
p81
F0.0013418116067744411
sS'evaluation'
p82
F0.0047971781311934884
ss.