(dp1
S'skills'
p2
(dp3
S'management'
p4
F0.0083893413629597419
sS'data visualization'
p5
F0.018210496533144452
sS'agile'
p6
F0.020219350673143604
sS'data scientist'
p7
F0.0098089968996655386
sS'presentations'
p8
F0.039267350738777913
sS'architecture'
p9
F0.020250134469302392
sS'communication'
p10
F0.014658975547322744
sS'organization'
p11
F0.016325776289645197
sS'powerpoint'
p12
F0.022657633397539373
sS'data analytics'
p13
F0.018910395198942564
sS'ms office suite'
p14
F0.056479263890284404
ssS'working-year'
p15
(dp16
S'[0]'
p17
F0.020335321579114652
ssS'major'
p18
(dp19
VData Science
p20
F0.0095119350241209492
sVBusiness
p21
F0.010015873584945502
sVManagement Science and Engineering
p22
F0.011940227208045299
ssS'education'
p23
(dp24
VBachelor
p25
F0.0084386928487954326
sVMaster
p26
F0.0067340804187423784
ssS'responsibility'
p27
(dp28
S'interface'
p29
F0.029236640727315542
sS'manage data'
p30
F0.048970676742468924
sS'presentation'
p31
F0.045617673005733453
sS'information'
p32
F0.012843566662309208
ss.