(dp1
S'skills'
p2
(dp3
S'negotiation'
p4
F0.015636870926139655
sS'nosql'
p5
F0.01802049004481851
sS'data science'
p6
F0.007130373993515347
sS'hadoop'
p7
F0.0091172505907935342
sS'analytics'
p8
F0.0077814486113188279
sS'business intelligence'
p9
F0.0089212409470756891
sS'd3.js'
p10
F0.014884854654665254
sS'qlikview'
p11
F0.015326650089560596
sS'visualization'
p12
F0.0063507830385762347
sS'tableau'
p13
F0.0076185387790609713
sS'strategy'
p14
F0.010761680889703416
sS'computer science'
p15
F0.0063356049613414638
sS'energy'
p16
F0.010442762446836769
sS'data analysis'
p17
F0.010685891866863962
sS'data modeling'
p18
F0.010279709702828124
sS'python'
p19
F0.002783584917051276
sS'data scientist'
p20
F0.00070907009412559991
sS'collaboration'
p21
F0.0069419757958082062
sS'spotfire'
p22
F0.015000381197985734
sS'business process'
p23
F0.010134276302601575
sS'machine learning'
p24
F0.0060730904023428636
sS'modeling'
p25
F0.0036998665820005576
sS'data'
p26
F0.0029602041477364538
sS'data visualization'
p27
F0.0065565361865288167
sS'applied mathematics'
p28
F0.021714016416347043
sS'analysis'
p29
F0.0019207279694454871
sS'spss'
p30
F0.0093168940025904669
sS'r'
F0.0030537883057664443
sS'unstructured data'
p31
F0.0092033076072123472
ssS'working-year'
p32
(dp33
V(2, 5]
p34
F0.00300740901168147
ssS'major'
p35
(dp36
S'business intelligence analytics'
p37
F0.01742840572337721
sS'information'
p38
F0.0024080711984415248
sS'business'
p39
F0.0090553020424872788
sS'applied mathematics'
p40
F0.021714016416347043
sS'machine learning'
p41
F0.0060730904023428636
sS'analytics'
p42
F0.0077814486113188279
sS'design'
p43
F0.0026104163070375655
sS'computer science'
p44
F0.0063356049613414638
sS'applied math'
p45
F0.0095358730495099641
sS'computer science engineering'
p46
F0.011600861229623487
sS'ee computer science'
p47
F0.0086585270357397073
sS'data science'
p48
F0.007130373993515347
ssS'education'
p49
(dp50
VMaster
p51
F0.0036957769306663066
ssS'responsibility'
p52
(dp53
S'development'
p54
F0.0017719837780584412
sS'information'
p55
F0.0024080711984415248
sS'product'
p56
F0.0021937381885278506
sS'data analysis'
p57
F0.010685891866863962
sS'pattern'
p58
F0.0069563144011796805
sS'communicate'
p59
F0.0047314490923146667
sS'analysis'
p60
F0.0019207279694454871
sS'design'
p61
F0.0026104163070375655
sS'identify opportunity'
p62
F0.012889973880953198
sS'report'
p63
F0.004887252631166625
sS'modeling'
p64
F0.0036998665820005576
sS'model'
p65
F0.0028224313108014105
sS'prototype'
p66
F0.0091350462440128229
ss.