(dp1
S'skills'
p2
(dp3
S'shell scripting'
p4
F0.0097219455977250544
sS'communication'
p5
F0.0018107226169159782
sS'engineering'
p6
F0.0024069598396786345
sS'problem solving'
p7
F0.0043575389827270232
sS'linux'
p8
F0.0058052563524726075
sS'management'
p9
F0.0039341062776407651
sS'java'
p10
F0.013019690851455096
sS'excel'
p11
F0.0045014067172208932
sS'research'
p12
F0.0022019824369121492
sS'quality assurance'
p13
F0.0080434132045569557
sS'visio'
p14
F0.010839246416662854
sS'systems engineering'
p15
F0.020922706246131101
sS'product development'
p16
F0.0047779267680857045
sS'innovation'
p17
F0.0057657280364664908
sS'data scientist'
p18
F0.00042740714680550019
sS'performance tuning'
p19
F0.010025812864896056
sS'data'
p20
F0.00059477542922187416
sS'b2b'
p21
F0.0064503418176810835
sS'saas'
p22
F0.0060305831874776453
sS'tomcat'
p23
F0.022339461068421818
sS'documentation'
p24
F0.0051878152747928579
sS'organization'
p25
F0.002474509015508311
sS'docker'
p26
F0.018178837750426991
sS'microsoft office'
p27
F0.0079241921011245324
sS'powerpoint'
p28
F0.0065522982606533884
sS'scripting'
p29
F0.0049000939468423384
ssS'working-year'
p30
(dp31
V(5, 10]
p32
F0.0027914306150793496
ssS'major'
p33
(dp34
S'systems engineering'
p35
F0.020922706246131101
sS'information'
p36
F0.0029030327149803139
sS'management'
p37
F0.0039341062776407651
sS'business'
p38
F0.0018194255835944416
sS'communication'
p39
F0.0018107226169159782
sS'engineering'
p40
F0.0024069598396786345
sS'design'
p41
F0.003146968388622654
ssS'education'
p42
(dp43
S'Bachelor'
p44
F0.00078511585984329028
ssS'responsibility'
p45
(dp46
S'development'
p47
F0.004272404305526588
sS'information'
p48
F0.0029030327149803139
sS'product'
p49
F0.0026446451141144069
sVinsight
p50
F0.00240429856691697
sS'documentation'
p51
F0.0051878152747928579
sS'design'
p52
F0.003146968388622654
sS'develop system'
p53
F0.012106133451442454
ss.