(dp1
S'skills'
p2
(dp3
S'excel'
p4
F0.003253429027778804
sS'communication'
p5
F0.0031854514267824078
sS'business intelligence'
p6
F0.0041107511242946104
sS'management'
p7
F0.0036460719001998078
sS'user experience'
p8
F0.0067911729680218431
sS'agile'
p9
F0.0087874843971811247
sS'saas'
p10
F0.0062123587448705466
sS'integration'
p11
F0.0046403282136712526
sS'research'
p12
F0.0085831020287901235
sS'quality assurance'
p13
F0.0078522210661831991
sS'innovation'
p14
F0.0077900389220713229
sS'product development'
p15
F0.0052585037198827171
sS'data scientist'
p16
F0.0021315325254806406
sS'user research'
p17
F0.011296285888322188
sS'data'
p18
F0.00023863478445567993
sS'b2b'
p19
F0.0069934097617669506
sS'disaster recovery'
p20
F0.0096361851843792187
sS'data visualization'
p21
F0.0039572105142446704
sS'team building'
p22
F0.0080580095695521915
sS'r'
F0.0011166847215572258
sS'financial services'
p23
F0.0085069832231392979
sS'product management'
p24
F0.0062836982274175881
ssS'working-year'
p25
(dp26
V(5, 10]
p27
F0.002425843584661688
ssS'major'
p28
(dp29
VBusiness
p30
F0.0021764876200686405
sVManagement Science and Engineering
p31
F0.0025946570190520978
ssS'education'
p32
(dp33
S'Bachelor'
p34
F0.0018337602166396516
ssS'responsibility'
p35
(dp36
S'development'
p37
F0.0097461650093691645
sS'information'
p38
F0.0055819122717480673
sS'product'
p39
F0.010824892480625728
sS'pattern'
p40
F0.005268794920672326
sS'design'
p41
F0.035261621167448153
sS'interface'
p42
F0.0063532337998995552
sS'complex data set'
p43
F0.01006268148547775
ss.