(dp1
S'skills'
p2
(dp3
S'r d'
p4
F0.0010421693194534957
sS'communication'
p5
F0.0019899565815345651
sS'business intelligence'
p6
F0.0059097560588496313
sS'management'
p7
F0.0021617614444396586
sS'user experience'
p8
F0.0071399281593557814
sS'agile'
p9
F0.0096879269595886858
sS'saas'
p10
F0.0066275190867457374
sS'integration'
p11
F0.0048896257144957836
sS'research'
p12
F0.0096797806617559441
sS'quality assurance'
p13
F0.0088395886232821349
sS'innovation'
p14
F0.0063364473091116506
sS'product development'
p15
F0.0052508687578200755
sS'data scientist'
p16
F0.00046971394560096848
sS'user research'
p17
F0.012478516290901314
sS'data'
p18
F0.00065364913922099364
sS'b2b'
p19
F0.0070888274290759109
sS'disaster recovery'
p20
F0.010719278077389559
sS'data visualization'
p21
F0.0043432891997056376
sS'team building'
p22
F0.009860271738242719
sS'financial services'
p23
F0.0093395702932719191
sS'product management'
p24
F0.0075197067075191302
sS'research development r d'
p25
F0.01126806046338984
ssS'working-year'
p26
(dp27
V(5, 10]
p28
F0.003067739736876544
ssS'major'
p29
(dp30
S'information'
p31
F0.00159519437257167
sS'management'
p32
F0.0021617614444396586
sS'design'
p33
F0.020750822014318923
sS'business'
p34
F0.0019995210093817087
sS'communication'
p35
F0.0019899565815345651
ssS'education'
p36
(dp37
S'Bachelor'
p38
F0.00086283037388869212
ssS'responsibility'
p39
(dp40
S'development'
p41
F0.0035214804523344156
sS'information'
p42
F0.00159519437257167
sS'product'
p43
F0.0058128494132565385
sS'pattern'
p44
F0.0046081169002738492
sS'complex data set'
p45
F0.0099110338189466497
sS'interface'
p46
F0.0059097560588496313
sS'design'
p47
F0.020750822014318923
ss.