(dp1
S'skills'
p2
(dp3
S'negotiation'
p4
F0.0094472761845427085
sS'r d'
p5
F0.00095049701820527162
sS'nosql'
p6
F0.0054436897010389246
sS'data science'
p7
F0.0043079342877488554
sS'hadoop'
p8
F0.0027541694493022134
sS'analytics'
p9
F0.014103875608015376
sS'business intelligence'
p10
F0.0053899164055248947
sS'd3.js'
p11
F0.0089929330205269237
sS'change management'
p12
F0.010013131915324436
sS'visualization'
p13
F0.0038369314191398084
sS'management'
p14
F0.0019716065025676519
sS'program management'
p15
F0.0099086878761755256
sS'tableau'
p16
F0.0046028671790160035
sS'governance'
p17
F0.0070480868644661595
sS'strategy'
p18
F0.0032509244354312406
sS'computer science'
p19
F0.0038277613308104678
sS'advanced analytics'
p20
F0.010098110333766966
sS'mathematics'
p21
F0.0037520578021335996
sS'energy'
p22
F0.012618337956594429
sS'artificial intelligence'
p23
F0.015467718215607579
sS'qlikview'
p24
F0.0092598510957761938
sS'python'
p25
F0.0016817492207184793
sS'spotfire'
p26
F0.0090627303071163807
sS'collaboration'
p27
F0.004194110376634125
sS'data scientist'
p28
F0.00042839651520088325
sS'business process'
p29
F0.0061227919328217858
sS'leadership'
p30
F0.0035275852841902136
sS'energy efficiency'
p31
F0.014589871033269832
sS'modeling'
p32
F0.0067060081798760102
sS'data'
p33
F0.0017884566725907742
sS'engineering'
p34
F0.0048250630119483738
sS'training'
p35
F0.0041512757208999251
sS'pattern recognition'
p36
F0.008881086816827314
sS'science'
p37
F0.0033973455180736543
sS'machine learning'
p38
F0.0036691587847488137
sS'statistical modeling'
p39
F0.0054142040409889134
sS'spss'
p40
F0.0056289567932317399
sS'r'
F0.0018449971014005602
sS'organization'
p41
F0.0049604740912736044
sS'security'
p42
F0.0036932849316473684
sS'data analytics'
p43
F0.0070811741416055693
ssS'working-year'
p44
(dp45
V(2, 5]
p46
F0.0018169762778908881
ssS'major'
p47
(dp48
S'business intelligence analytics'
p49
F0.010529661791207064
sS'information'
p50
F0.0014548763490584212
sS'management'
p51
F0.0019716065025676519
sS'business'
p52
F0.0045590930422244975
sS'science'
p53
F0.0033973455180736543
sS'data science'
p54
F0.0043079342877488554
sS'machine learning'
p55
F0.0036691587847488137
sS'business leadership'
p56
F0.011317445944176602
sS'analytics'
p57
F0.014103875608015376
sS'engineering'
p58
F0.0048250630119483738
sS'design'
p59
F0.0031542530376703916
sS'data analytics'
p60
F0.0070811741416055693
sS'advanced analytics'
p61
F0.010098110333766966
sS'mathematics'
p62
F0.0037520578021335996
sS'mathematics computer science'
p63
F0.0082042797817412205
sS'artificial intelligence'
p64
F0.015467718215607579
sS'computer science'
p65
F0.0038277613308104678
ssS'education'
p66
(dp67
VBachelor
p68
F0.00078693325766700153
sVMaster
p69
F0.002232865228944227
sVDoctor
p70
F0.0029459830031976671
ssS'responsibility'
p71
(dp72
S'development'
p73
F0.0096351617931927751
sS'information'
p74
F0.0014548763490584212
sS'business problem'
p75
F0.0042792421845004773
sS'pattern'
p76
F0.0042027732840460574
sVinsight
p77
F0.0048197281457178142
sS'statistical model'
p78
F0.0043063121125575012
sS'analytic'
p79
F0.031135050066800493
sS'design'
p80
F0.0031542530376703916
sS'modeling'
p81
F0.0067060081798760102
sS'model'
p82
F0.0034104378338850375
ss.