(dp1
S'skills'
p2
(dp3
S'clustering'
p4
F0.011721500220204401
sS'training'
p5
F0.0085574354582630147
sS'data analysis'
p6
F0.0053954982362387823
sS'theory'
p7
F0.010656277274448492
sS'classification'
p8
F0.011474043278029379
sS'python'
p9
F0.0037909200927510253
sS'communication'
p10
F0.0057569794876758413
sS'data science'
p11
F0.0043739670024021786
sS'testing'
p12
F0.014890021926545548
sS'data scientist'
p13
F0.0038522606005959208
sS'analysis'
p14
F0.0012458862609241088
sS'machine learning'
p15
F0.0023837008066692339
sS'r'
F0.0040363076844650266
sS'algorithms'
p16
F0.0065242606486009234
sS'science'
p17
F0.0051129737323206718
sS'go'
p18
F0.011923320709191373
sS'organization'
p19
F0.0064115775973879316
sS'data'
p20
F0.0047440595149789164
sS'regression'
p21
F0.0086406101479338197
sS'unsupervised learning'
p22
F0.018236868533754145
ssS'working-year'
p23
(dp24
sS'major'
p25
(dp26
VData Science
p27
F0.0037355963003820459
sVComputer Science
p28
F0.0032922027140079918
ssS'education'
p29
(dp30
VMaster
p31
F0.002644657037178825
sVDoctor
p32
F0.0039606609882780657
ssS'responsibility'
p33
(dp34
S'analytic'
p35
F0.0082099126265441549
sS'model'
p36
F0.0056269485160059668
sS'data analysis'
p37
F0.0053954982362387823
sS'analysis'
p38
F0.0012458862609241088
ss.