(dp1
S'skills'
p2
(dp3
S'negotiation'
p4
F0.02400719595130853
sS'visualization'
p5
F0.009750319841578807
sS'nosql'
p6
F0.013833376181463622
sS'python'
p7
F0.0085472430982398012
sS'data science'
p8
F0.01094722124886768
sS'spotfire'
p9
F0.023029997015731038
sS'tableau'
p10
F0.011696697772558315
sS'hadoop'
p11
F0.0069988306005797423
sS'applied mathematics'
p12
F0.033337401674509284
sS'business process'
p13
F0.015559094793994185
sS'qlikview'
p14
F0.02353091572573715
sS'r'
F0.0093769264447651993
sS'computer science'
p15
F0.0097270170288830723
sS'modeling'
p16
F0.011360766798848771
sS'mathematics'
p17
F0.0095346410030689114
sS'd3.js'
p18
F0.022852629793339008
sS'collaboration'
p19
F0.0106579746041526
sS'engineering'
p20
F0.01226133659506881
sS'spss'
p21
F0.028608345113836611
ssS'working-year'
p22
(dp23
V(2, 5]
p24
F0.0046172573649933164
ssS'major'
p25
(dp26
S'design'
p27
F0.0040077568008047328
sS'business'
p28
F0.0023170919932246859
sS'applied mathematics'
p29
F0.033337401674509284
sS'engineering'
p30
F0.01226133659506881
sS'computer science engineering'
p31
F0.017810734005480767
sS'computer science'
p32
F0.0097270170288830723
sS'applied math'
p33
F0.01464036979954177
sS'mathematics'
p34
F0.0095346410030689114
sS'ee computer science'
p35
F0.013293385625459198
sS'data science'
p36
F0.01094722124886768
ssS'education'
p37
(dp38
VBachelor
p39
F0.0019997362783067333
sVMaster
p40
F0.0056741045817876824
ssS'responsibility'
p41
(dp42
S'development'
p43
F0.0027205162710191365
sS'modeling'
p44
F0.011360766798848771
sS'model'
p45
F0.0043332621889362833
sS'prototype'
p46
F0.014024982762866746
sS'design'
p47
F0.0040077568008047328
ss.