(dp1
S'skills'
p2
(dp3
S'logistics'
p4
F0.010499206280146009
sS'supply chain'
p5
F0.0091785702631361592
sS'r d'
p6
F0.00099663765015698368
sS'communication'
p7
F0.0019030167308849964
sS'operational planning'
p8
F0.013484494949331424
sS'analytics'
p9
F0.009859019842496184
sS'data mining'
p10
F0.010770807642148307
sS'qlikview'
p11
F0.0097093584305226101
sS'visualization'
p12
F0.0080463804517883347
sS'java'
p13
F0.0034208289676456653
sS'industrial engineering'
p14
F0.021150121961223105
sS'predictive modeling'
p15
F0.0052508161384705477
sS'excel'
p16
F0.004730847350865648
sS'tableau'
p17
F0.0048263073333371688
sS'supply chain management'
p18
F0.027508918190867291
sS'r'
F0.0019345600674879658
sS'statistical software'
p19
F0.008137348422497661
sS'advanced analytics'
p20
F0.010588309864532353
sS'operations research'
p21
F0.012853958028944611
sS'data analysis'
p22
F0.00676946062439683
sS'python'
p23
F0.0017633875324038423
sS'marketing'
p24
F0.0041399080677412868
sS'data scientist'
p25
F0.00044919246254073196
sS'wireless'
p26
F0.011617677931196479
sS'sql'
p27
F0.0022925506712347457
sS'modeling'
p28
F0.011719237595899825
sS'data'
p29
F0.002500366610223995
sS'training'
p30
F0.0043527939597785628
sS'data visualization'
p31
F0.0041535338463204391
sS'economics'
p32
F0.0059648054645272692
sS'programming'
p33
F0.0025226584235479642
sS'analysis'
p34
F0.0012167718447215342
sS'spss'
p35
F0.005902207123000271
sS'optimization'
p36
F0.0046726142264599708
sS'organization'
p37
F0.0052012738044422257
sS'validation'
p38
F0.0061504360175763497
sS'root'
p39
F0.0083899355613560773
ssS'working-year'
p40
(dp41
V(5, 10]
p42
F0.0029337122726440738
sV(2, 5]
p43
F0.0019051790098273389
ssS'major'
p44
(dp45
S'data mining'
p46
F0.010770807642148307
sS'information'
p47
F0.0015255014145466941
sS'business'
p48
F0.0047804082384489879
sS'statistics economics'
p49
F0.011040810421848185
sS'marketing'
p50
F0.0041399080677412868
sS'industrial engineering'
p51
F0.021150121961223105
sS'economics'
p52
F0.0059648054645272692
sS'statistic'
p53
F0.0021568348109088442
sS'phd'
p54
F0.0040888169410657075
sS'supply chain management'
p55
F0.027508918190867291
sS'analytics'
p56
F0.009859019842496184
sS'design'
p57
F0.0033073721171689545
sS'communication'
p58
F0.0019030167308849964
sS'advanced analytics'
p59
F0.010588309864532353
sS'industrial engineering statistics'
p60
F0.016282254330352582
sS'operations research industrial engineering'
p61
F0.015583997860608016
sS'operations research'
p62
F0.012853958028944611
ssS'education'
p63
(dp64
VMaster
p65
F0.0023412567449123934
sVDoctor
p66
F0.0030889918868480391
ssS'responsibility'
p67
(dp68
S'development'
p69
F0.0011225431215370221
sS'information'
p70
F0.0015255014145466941
sS'product'
p71
F0.0027794449864357719
sS'data analysis'
p72
F0.00676946062439683
sS'analysis'
p73
F0.0012167718447215342
sS'optimization'
p74
F0.0046726142264599708
sS'design'
p75
F0.0033073721171689545
sS'data mining'
p76
F0.010770807642148307
sS'report'
p77
F0.0030960508173167212
sS'modeling'
p78
F0.011719237595899825
sS'implement'
p79
F0.0032304885290584985
sS'prototype'
p80
F0.0057870074506974432
sS'model'
p81
F0.010727979205618954
ss.