(dp1
S'skills'
p2
(dp3
S'negotiation'
p4
I1
sS'data science'
p5
I1
sS'engineering'
p6
I1
sS'machine learning'
p7
I1
sS'qlikview'
p8
I1
sS'visualization'
p9
I1
sS'management'
p10
I1
sS'program management'
p11
I1
sS'tableau'
p12
I1
sS'd3.js'
p13
I1
sS'computer science'
p14
I1
sS'advanced analytics'
p15
I1
sS'mathematics'
p16
I1
sS'change management'
p17
I1
sS'python'
p18
I1
sS'data scientist'
p19
I1
sS'collaboration'
p20
I1
sS'spotfire'
p21
I1
sS'business process'
p22
I1
sS'modeling'
p23
I1
sS'training'
p24
I1
sS'spss'
p25
I1
sS'r'
I1
ssS'working-year'
p26
(dp27
V(2, 5]
p28
I1
ssS'major'
p29
(dp30
S'management'
p31
I1
sS'business'
p32
I1
sS'data science'
p33
I1
sS'machine learning'
p34
I1
sS'business leadership'
p35
I1
sS'engineering'
p36
I1
sS'design'
p37
I1
sS'computer science'
p38
I1
sS'advanced analytics'
p39
I1
sS'mathematics'
p40
I1
sS'mathematics computer science'
p41
I1
ssS'education'
p42
(dp43
VBachelor
p44
I1
sVMaster
p45
I1
sVDoctor
p46
I1
ssS'responsibility'
p47
(dp48
S'development'
p49
I1
sS'analytic'
p50
I1
sS'model'
p51
I1
sS'design'
p52
I1
sS'modeling'
p53
I1
ss.