(dp1
S'skills'
p2
(dp3
S'communication'
p4
F0.0039678430052903666
sS'data governance'
p5
F0.010958771748757644
sS'problem solving'
p6
F0.0061519094359730603
sS'research'
p7
F0.002138246470330171
sS'hdfs'
p8
F0.009998906176335207
sS'management'
p9
F0.0068123974977417449
sS'big data'
p10
F0.0031897872841169612
sS'data migration'
p11
F0.013550414944845126
sS'saas'
p12
F0.0077382012436106795
sS'integration'
p13
F0.0057800579503624371
sS'governance'
p14
F0.018067749478174428
sS'strategy'
p15
F0.0039473970707439463
sS'enterprise architecture'
p16
F0.010661518231597016
sS'innovation'
p17
F0.009703381815211647
sS'policy'
p18
F0.0068412486918314518
sS'master data management'
p19
F0.012569270292687694
sS'collaboration'
p20
F0.0064101990478031426
sS'data management'
p21
F0.0068920253248352641
sS'data modeling'
p22
F0.0065468715408979229
sS'product development'
p23
F0.0065500660370468918
sS'informatica'
p24
F0.011974964484994938
sS'data scientist'
p25
F0.0026550668299846572
sS'data quality'
p26
F0.0088592432661308857
sS'performance tuning'
p27
F0.012031286963448023
sS'modeling'
p28
F0.0020354528546906074
sS'spark'
p29
F0.0042259038178337309
sS'data'
p30
F0.0047559493884500419
sS'b2b'
p31
F0.0087110893523763763
sS'risk assessment'
p32
F0.012677470521862588
sS'data integration'
p33
F0.0097009051639889276
sS'data architecture'
p34
F0.010169106653672438
sS'erwin'
p35
F0.017242901860957071
sS'architecture'
p36
F0.01644371821567412
sS'oracle'
p37
F0.0065790012495271222
sS'security'
p38
F0.0054770697135834382
sS'etl'
p39
F0.0071422673534215098
ssS'working-year'
p40
(dp41
V(15, 20]
p42
F0.0070044257310463588
ssS'major'
p43
(dp44
VBusiness
p45
F0.0027110635267521659
sVManagement Science and Engineering
p46
F0.0032319411991701564
ssS'education'
p47
(dp48
VBachelor
p49
F0.0022841574628318464
sVMaster
p50
F0.0018227586095844032
ssS'responsibility'
p51
(dp52
S'development'
p53
F0.0030349899809877659
sS'product'
p54
F0.0033709095005457308
sS'communicate'
p55
F0.0050281776498285512
sS'recommendation'
p56
F0.0065468715408979229
sS'modeling'
p57
F0.0020354528546906074
sS'model'
p58
F0.0038782226614076207
sS'presentation'
p59
F0.0061738204067909941
sS'decision making'
p60
F0.0081869249371667001
ss.