(dp1
S'skills'
p2
(dp3
S'documentation'
p4
F0.0049369758549127635
sS'communication'
p5
F0.0017231711936804804
sS'engineering'
p6
F0.0022905793639139533
sS'linux'
p7
F0.038671938471086756
sS'perl'
p8
F0.0064943333454901102
sS'vmware'
p9
F0.01057401256436527
sS'management'
p10
F0.0056158286314893996
sS'networking'
p11
F0.0081231885923373649
sS'storage'
p12
F0.026804887769602173
sS'saas'
p13
F0.0057389945498413641
sS'research'
p14
F0.0020955129564460672
sS'access'
p15
F0.0040068683617006853
sS'computer science'
p16
F0.0036342700987035651
sS'innovation'
p17
F0.0054869455819560233
sS'systems engineering'
p18
F0.019911058911153336
sS'product development'
p19
F0.0045469061331452967
sS'python'
p20
F0.0015967377216491935
sS'data scientist'
p21
F0.00040674130674017933
sS'technical documentation'
p22
F0.010127992755828848
sS'data'
p23
F0.00056601705681993736
sS'b2b'
p24
F0.0061384571583646356
sS'bash'
p25
F0.0091346313778734867
sS'itil'
p26
F0.010219580205250701
sS'excel'
p27
F0.0042837562825420814
sS'architecture'
p28
F0.0039441190104319733
sS'scripting'
p29
F0.0046631663274345776
ssS'working-year'
p30
(dp31
V(15, 20]
p32
F0.0096465617127861874
ssS'major'
p33
(dp34
S'systems engineering'
p35
F0.019911058911153336
sS'information'
p36
F0.0013813331489961275
sS'management'
p37
F0.0056158286314893996
sS'business'
p38
F0.0034629067151489812
sS'communication'
p39
F0.0017231711936804804
sS'engineering'
p40
F0.0022905793639139533
sS'design'
p41
F0.004492210919583327
sS'computer science'
p42
F0.0036342700987035651
sS'ee computer science'
p43
F0.0049667594644572828
ssS'education'
p44
(dp45
VBachelor
p46
F0.00074715421387284552
ssS'responsibility'
p47
(dp48
S'development'
p49
F0.0010164566287324246
sS'information'
p50
F0.0013813331489961275
sS'product'
p51
F0.001258386081770921
sS'documentation'
p52
F0.0049369758549127635
sS'design'
p53
F0.004492210919583327
sS'interface'
p54
F0.0051174590927181426
sS'presentation'
p55
F0.0037193323124067811
ss.