(dp1
S'skills'
p2
(dp3
S'software development'
p4
F0.0098157250836725576
sS'system design'
p5
F0.021495799661032662
sS'data'
p6
F0.00054908096238181906
sS'finance'
p7
F0.012292342843443001
sS'analysis'
p8
F0.0015861977858987496
ssS'working-year'
p9
(dp10
sS'major'
p11
(dp12
VEconomics
p13
F0.0075961645718725032
sVBusiness
p14
F0.0050079367924727508
ssS'education'
p15
(dp16
S'Bachelor'
p17
F0.0042193464243977163
ssS'responsibility'
p18
(dp19
S'development'
p20
F0.011212601874204801
sS'implement'
p21
F0.0098049221070352199
sS'design'
p22
F0.0067611981945299889
sS'analysis'
p23
F0.0015861977858987496
ss.