(dp1
S'skills'
p2
(dp3
S'clustering'
p4
F0.03087455343868669
sS'training'
p5
F0.021606639896732144
sS'data analysis'
p6
F0.033602623822307158
sS'theory'
p7
F0.035414678306680908
sS'classification'
p8
F0.032006901281594384
sS'python'
p9
F0.017506401526515256
sS'science'
p10
F0.017682569443467699
sS'data science'
p11
F0.022422019425391633
sS'testing'
p12
F0.040225570675612603
sS'data scientist'
p13
F0.0022297264405636338
sS'machine learning'
p14
F0.019097308373632382
sS'r'
F0.0096028764795788209
sS'data'
p15
F0.0062057291771824459
sS'regression'
p16
F0.028859577657284724
sS'unsupervised learning'
p17
F0.06103694138914479
sS'r d'
p18
F0.004947165203188884
ssS'working-year'
p19
(dp20
V[0]
p21
F0.017182776775451148
ssS'major'
p22
(dp23
S'machine learning'
p24
F0.019097308373632382
sS'science'
p25
F0.017682569443467699
sS'data science'
p26
F0.022422019425391633
sS'machine learning engineer'
p27
F0.054804986672306662
sS'phd'
p28
F0.020296296141193635
ssS'education'
p29
(dp30
VDoctor
p31
F0.015333309125077016
ssS'responsibility'
p32
(dp33
S'model'
p34
F0.017750712581184776
sS'data analysis'
p35
F0.033602623822307158
ss.