(dp1
S'skills'
p2
(dp3
S'nosql'
p4
F0.0056663496154586383
sS'knowledge management'
p5
F0.010566109509480618
sS'engineering'
p6
F0.0025359312154734051
sS'api development'
p7
F0.012166909957945315
sS'education'
p8
F0.0043449829188680527
sS'research'
p9
F0.0017663775189684023
sS'content management'
p10
F0.011028101923850073
sS'management'
p11
F0.0056276327155257893
sS'business process management'
p12
F0.013112577399494993
sS'agile'
p13
F0.0045210970449265208
sS'sharepoint'
p14
F0.0095930246570307045
sS'excel'
p15
F0.003347731318439059
sS'integration'
p16
F0.0095496609614683751
sS'strategy'
p17
F0.0032608932323536957
sS'enterprise architecture'
p18
F0.0088073411478410135
sS'sdlc'
p19
F0.0075873904609505419
sS'innovation'
p20
F0.0080158371516965785
sS'web development'
p21
F0.0075723333752713423
sS'javascript'
p22
F0.0045909826377265924
sS'product development'
p23
F0.0054109241175604771
sS'database design'
p24
F0.0076959725867256539
sS'mongodb'
p25
F0.0061223514778910469
sS'scrum'
p26
F0.0070337734251128313
sS'data scientist'
p27
F0.0021933160769438474
sS'automation'
p28
F0.0069048619574820069
sS'business process'
p29
F0.0063256375352375915
sS'process automation'
p30
F0.011520173608429812
sS'data'
p31
F0.00024555173472975761
sS'b2b'
p32
F0.0071961172910935288
sS'saas'
p33
F0.0063924271142870841
sS'programming'
p34
F0.002282226159078418
sS'business strategy'
p35
F0.0062930337894812364
sS'architecture'
p36
F0.004527980378229106
sS'organization'
p37
F0.0036504841392995474
sS'application development'
p38
F0.0079318766076319786
ssS'working-year'
p39
(dp40
sS'major'
p41
(dp42
VEngineering
p43
F0.0025359312154734051
sVBusiness
p44
F0.0022395742177517895
sVManagement Science and Engineering
p45
F0.0026698644688796947
ssS'education'
p46
(dp47
VBachelor
p48
F0.0018869126866871777
ssS'responsibility'
p49
(dp50
S'development'
p51
F0.017550159455277083
sS'information'
p52
F0.0028718534151747303
sS'product'
p53
F0.0055693287400320774
sS'pattern'
p54
F0.0054215136140251469
sS'provide leadership'
p55
F0.010766625586376418
sS'construct'
p56
F0.0109886648607119
sS'design'
p57
F0.012094565714438739
sS'interface'
p58
F0.0065373855042444697
ss.