(dp1
S'skills'
p2
(dp3
S'security'
p4
F0.0040695545916569677
sS'intelligence'
p5
F0.0029237590500684899
sS'information technology'
p6
F0.005803815776092635
sS'cluster'
p7
F0.006541249166702936
sS'business intelligence'
p8
F0.0038045499232298345
sS'virtualization'
p9
F0.0094195730693168948
sS'system administration'
p10
F0.0085754064328655098
sS'education'
p11
F0.0039080572622221029
sS'vmware'
p12
F0.0094751648313281048
sS'product development'
p13
F0.0048668088431689203
sS'management'
p14
F0.0016872418383606185
sS'java'
p15
F0.0023077597163282744
sS'user experience'
p16
F0.0062853127841840887
sS'unix'
p17
F0.004808359010772905
sS'excel'
p18
F0.0030110879456351314
sS'research'
p19
F0.0047662588919650181
sS'quality assurance'
p20
F0.0072673256422589377
sS'innovation'
p21
F0.0072097753152131237
sS'computer science'
p22
F0.0026182183672015281
sS'software development life cycle sdlc'
p23
F0.0097157811882759883
sS'performance management'
p24
F0.0088365387097091956
sS'data scientist'
p25
F0.0019727591530053598
sS'aws'
p26
F0.0048668088431689203
sS'business process'
p27
F0.0056895399059958222
sS'splunk'
p28
F0.0088365387097091956
sS'apache'
p29
F0.0042143422132998667
sS'data'
p30
F0.00066257814455012809
sS'b2b'
p31
F0.0064724853847265814
sS'project management'
p32
F0.0035408814214609795
sS'software development'
p33
F0.0039482246146615874
sS'training'
p34
F0.0043822993501346913
sS'disaster recovery'
p35
F0.0089184060272559981
sS'saas'
p36
F0.0057496132145263713
sS'science'
p37
F0.0013091878737320156
sS'programming'
p38
F0.002052728556489527
sS'engineering'
p39
F0.0045618427451532759
sS'analysis'
p40
F0.00063802369041737414
sS'procurement'
p41
F0.0097811278044052877
sS'r'
F0.0020670104529383285
sS'dashboard'
p42
F0.0065296107432393762
sS'docker'
p43
F0.0079713475746609856
ssS'working-year'
p44
(dp45
V(0, 2]
p46
F0.0042413038437433027
ssS'major'
p47
(dp48
VEngineering
p49
F0.0045618427451532759
sVInformation Science
p50
F0.0047163038892999885
sVComputer Science
p51
F0.0016859511105255078
sVBusiness
p52
F0.0020143656371957434
sVManagement Science and Engineering
p53
F0.0024013864775957027
ssS'education'
p54
(dp55
VBachelor
p56
F0.0016971672768527127
sVMaster
p57
F0.0013543401959481879
ssS'responsibility'
p58
(dp59
S'development'
p60
F0.0022550484216277812
sS'information'
p61
F0.0077491910588234339
sS'product'
p62
F0.0075139267637862944
sS'analysis'
p63
F0.00063802369041737414
sS'design'
p64
F0.016317528603558409
sS'interface'
p65
F0.01175998956629452
sS'implement'
p66
F0.01183163784983021
ss.