(dp1
S'skills'
p2
(dp3
S'soa'
p4
F0.010472768003128533
sS'spring'
p5
F0.017823294483133072
sS'rest'
p6
F0.01431116559291431
sS'information technology'
p7
F0.011425886627495607
sS'engineering'
p8
F0.0023473279517586686
sS'communication skills'
p9
F0.006637702564532136
sS'linux'
p10
F0.0056614324338302678
sS'java'
p11
F0.0095228482072298257
sS'agile'
p12
F0.0042984720969346203
sS'excel'
p13
F0.0043898853796320875
sS'innovation'
p14
F0.0056228834229504294
sS'research'
p15
F0.0021474288179796409
sS'quality assurance'
p16
F0.0078441394539936066
sS'communication'
p17
F0.0017658623719022941
sS'jenkins'
p18
F0.0086410574433995486
sS'junit'
p19
F0.011721206441327564
sS'product management'
p20
F0.0066728928891048147
sS'software development life cycle sdlc'
p21
F0.012899688210984191
sS'hibernate'
p22
F0.011639297791072579
sS'distributed computing'
p23
F0.006366628311188784
sS'product development'
p24
F0.004659554708516013
sS'apis'
p25
F0.0069359414728391074
sS'scrum'
p26
F0.023577312546211222
sS'data scientist'
p27
F0.00041681823100626485
sS'business process'
p28
F0.0059573110697725478
sS'sql'
p29
F0.0021273217940286381
sS'data'
p30
F0.00058004000192133222
sS'b2b'
p31
F0.0062905360519277228
sS'project management'
p32
F0.010451029931084047
sS'software development'
p33
F0.0049618202357505662
sS'training'
p34
F0.0040390790797945227
sS'saas'
p35
F0.0058811768472473436
sS'software engineering'
p36
F0.012362023017605049
sS'tomcat'
p37
F0.010893002975930908
sS'documentation'
p38
F0.0050592883197867287
sS'analysis'
p39
F0.0011290765766334959
sS'procurement'
p40
F0.010472768003128533
sS'architecture'
p41
F0.004041833670600333
sS'javascript'
p42
F0.0061386508978026949
sS'oracle'
p43
F0.0059252750929480059
sS'security'
p44
F0.0035934664199812234
ssS'working-year'
p45
(dp46
V(2, 5]
p47
F0.0017678688109208642
ssS'major'
p48
(dp49
S'information'
p50
F0.0014155553666514371
sS'software engineering'
p51
F0.012362023017605049
sS'business'
p52
F0.0026615245868121394
sS'computing'
p53
F0.0047978938347600737
sS'communication'
p54
F0.0017658623719022941
sS'engineering'
p55
F0.0023473279517586686
sS'design'
p56
F0.010741510344499171
sS'information technology'
p57
F0.011425886627495607
sS'project management'
p58
F0.010451029931084047
ssS'education'
p59
(dp60
S'Bachelor'
p61
F0.00076566479124356914
ssS'responsibility'
p62
(dp63
S'development'
p64
F0.0020832782255551948
sS'information'
p65
F0.0014155553666514371
sS'product'
p66
F0.0012895623135265068
sS'documentation'
p67
F0.0050592883197867287
sS'analysis'
p68
F0.0011290765766334959
sS'design'
p69
F0.010741510344499171
sS'implement'
p70
F0.0029976605269641924
ss.