(dp1
S'skills'
p2
(dp3
S'market analysis'
p4
F0.010762176363010911
sS'r d'
p5
F0.00072418820434687358
sS'communication'
p6
F0.0013827916986324843
sS'business intelligence'
p7
F0.0041066029756380148
sS'product strategy'
p8
F0.0071979247120325393
sS'strategy'
p9
F0.0024768948079476119
sS'management'
p10
F0.001502176382908687
sS'user experience'
p11
F0.00496143156046945
sS'agile'
p12
F0.0067319986280034256
sS'excel'
p13
F0.0034375822020399414
sS'integration'
p14
F0.0033977293324714969
sS'research'
p15
F0.0016815844712221527
sS'risk management'
p16
F0.0055357992992189535
sS'quality assurance'
p17
F0.0061425007364606021
sS'innovation'
p18
F0.004403104479347426
sS'product development'
p19
F0.0036487518352400525
sS'marketing'
p20
F0.0060163743347774606
sS'scrum'
p21
F0.012308438295729314
sS'data scientist'
p22
F0.00032639734491495871
sS'training'
p23
F0.0031628767397332766
sS'manufacturing'
p24
F0.0060625822672450581
sS'data'
p25
F0.00090842243687150434
sS'b2b'
p26
F0.004925922411033349
sS'search'
p27
F0.0044466342692712386
sS'disaster recovery'
p28
F0.0074486694223835732
sS'saas'
p29
F0.0046053659967862795
sS'education'
p30
F0.0026230286774676843
sS'engineering'
p31
F0.0018381192426469995
sS'analysis'
p32
F0.00088414462085585914
sS'product launch'
p33
F0.017543892153581535
sS'product management'
p34
F0.0052253341142196432
sS'research development r d'
p35
F0.0078300102690927638
ssS'working-year'
p36
(dp37
V(2, 5]
p38
F0.0013843628783930576
ssS'major'
p39
(dp40
S'information'
p41
F0.0022169544366604514
sS'management'
p42
F0.001502176382908687
sS'business'
p43
F0.0048630325783727973
sS'marketing'
p44
F0.0060163743347774606
sS'engineering'
p45
F0.0018381192426469995
sS'design'
p46
F0.0048064808193072637
sS'communication'
p47
F0.0013827916986324843
ssS'education'
p48
(dp49
VBachelor
p50
F0.00059956819631771553
ssS'responsibility'
p51
(dp52
S'development'
p53
F0.0032627002897583999
sS'information'
p54
F0.0022169544366604514
sS'product'
p55
F0.017166871856257624
sS'communicate'
p56
F0.0021779686297956403
sS'analysis'
p57
F0.00088414462085585914
sS'design'
p58
F0.0048064808193072637
sS'interface'
p59
F0.0041066029756380148
sS'product launch'
p60
F0.017543892153581535
sS'presentation'
p61
F0.0029846493864992686
ss.