(dp1
S'skills'
p2
(dp3
S'training'
p4
I1
sS'management'
p5
I1
sS'government'
p6
I1
sS'communication'
p7
I1
sS'collaboration'
p8
I1
sS'data scientist'
p9
I1
sS'analysis'
p10
I1
sS'sustainability'
p11
I1
sS'policy'
p12
I1
sS'ic'
p13
I1
sS'data'
p14
I1
sS'project management'
p15
I1
sS'process development'
p16
I1
ssS'working-year'
p17
(dp18
V(5, 10]
p19
I1
ssS'major'
p20
(dp21
S'management'
p22
I1
sS'business'
p23
I1
sS'communication'
p24
I1
sS'data analyst'
p25
I1
sS'sustainability'
p26
I1
sS'project management'
p27
I1
ssS'education'
p28
(dp29
VBachelor
p30
I1
ssS'responsibility'
p31
(dp32
S'pattern'
p33
I1
sS'analysis'
p34
I1
sS'improvement'
p35
I1
sS'analytic'
p36
I1
sS'recommendation'
p37
I1
sS'report'
p38
I1
sS'implement'
p39
I1
ss.