(dp1
S'skills'
p2
(dp3
S'nlp'
p4
F0.02412848870670967
sS'r d'
p5
F0.0016039637182213959
sS'nosql'
p6
F0.0091862263705031859
sS'data science'
p7
F0.0072696391105761936
sS'rest'
p8
F0.012410463912605378
sS'software design'
p9
F0.016552271878946822
sS'sentiment analysis'
p10
F0.015373899894404077
sS'social media'
p11
F0.02047638978310384
sS'java'
p12
F0.0055053966198047432
sS'big data'
p13
F0.0086061965124221828
sS'deep learning'
p14
F0.011069059149739411
sS'computer science'
p15
F0.0064593472457426648
sS'natural language processing'
p16
F0.019917832852505753
sS'tensorflow'
p17
F0.029543523034469516
sS'unstructured data'
p18
F0.0093830597089157135
sS'artificial intelligence'
p19
F0.026101774488837791
sS'python'
p20
F0.0028379518099624339
sS'processing'
p21
F0.0062245917524216361
sS'data scientist'
p22
F0.00072291911940149057
sS'automation'
p23
F0.010897193194829043
sS'data'
p24
F0.0020120137566646211
sS'programming'
p25
F0.0040599034003975052
sS'analysis'
p26
F0.0019582421875987193
sS'machine learning'
p27
F0.0061917054492636233
sS'elasticsearch'
p28
F0.015942278561415821
sS'clojure'
p29
F0.019665303282976301
ssS'working-year'
p30
(dp31
V[0]
p32
F0.0055709784076658012
ssS'major'
p33
(dp34
S'computer science/artificial intelligence'
p35
F0.02778809955193845
sS'big data'
p36
F0.0086061965124221828
sS'data science'
p37
F0.0072696391105761936
sS'automation'
p38
F0.010897193194829043
sS'machine learning'
p39
F0.0061917054492636233
sS'design'
p40
F0.0026614010005343931
sS'computer science'
p41
F0.0064593472457426648
sS'phd'
p42
F0.0065804397645276231
sS'natural language processing'
p43
F0.019917832852505753
sS'general'
p44
F0.0090549241995132278
sS'artificial intelligence'
p45
F0.026101774488837791
ssS'education'
p46
(dp47
VDoctor
p48
F0.0049713463178960634
ssS'responsibility'
p49
(dp50
S'processing'
p51
F0.0062245917524216361
sS'product'
p52
F0.0067097539125676063
sVinsight
p53
F0.0040666456229494063
sS'design'
p54
F0.0026614010005343931
sS'analysis'
p55
F0.0019582421875987193
ss.