(dp1
S'skills'
p2
(dp3
S'visualization'
p4
I1
sS'consulting'
p5
I1
sS'management'
p6
I1
sS'big data'
p7
I1
sS'government'
p8
I1
sS'python'
p9
I1
sS'programming'
p10
I1
sS'public health'
p11
I1
sS'processing'
p12
I1
sS'data scientist'
p13
I1
sS'data acquisition'
p14
I1
sS'organizational development'
p15
I1
sS'data engineering'
p16
I1
sS'engineering'
p17
I1
sS'r'
I1
sS'customer support'
p18
I1
sS'training'
p19
I1
sS'security'
p20
I1
sS'statistical programming'
p21
I1
sS'data analytics'
p22
I1
ssS'working-year'
p23
(dp24
V(2, 5]
p25
I1
ssS'major'
p26
(dp27
S'management'
p28
I1
sS'business'
p29
I1
sS'big data'
p30
I1
sS'public health'
p31
I1
sS'engineering'
p32
I1
sS'design'
p33
I1
sS'data analytics'
p34
I1
ssS'education'
p35
(dp36
S'Bachelor'
p37
I1
ssS'responsibility'
p38
(dp39
S'development'
p40
I1
sS'large data set'
p41
I1
sS'product'
p42
I1
sS'processing'
p43
I1
sS'design'
p44
I1
sS'model'
p45
I1
ss.