(dp1
S'skills'
p2
(dp3
S'data scientist'
p4
F0.003776883562587379
sS'data'
p5
F0.010511745340941693
sS'programming'
p6
F0.021210923887791045
ssS'working-year'
p7
(dp8
V[0]
p9
F0.029105519844131532
ssS'major'
p10
(dp11
S'statistic'
p12
F0.018135019226417221
sS'general'
p13
F0.047307359083171144
ssS'education'
p14
(dp15
S'Bachelor'
p16
F0.0069378605573907079
ssS'responsibility'
p17
(dp18
S'solve problem'
p19
F0.06179234246799449
ss.