(dp1
S'skills'
p2
(dp3
S'data scientist'
p4
F0.044140486048494923
sS'cancer'
p5
F0.38374943787073157
sS'data wrangling'
p6
F0.41676272485687016
ssS'working-year'
p7
(dp8
S'[0]'
p9
F0.091508947106015939
ssS'major'
p10
(dp11
sS'education'
p12
(dp13
S'Bachelor'
p14
F0.037974117819579448
ssS'responsibility'
p15
(dp16
S'data wrangling'
p17
F0.41676272485687016
ss.