(dp1
S'skills'
p2
(dp3
S'regression analysis'
p4
F0.013294375374488845
sS'communication'
p5
F0.005554980207406514
sS'data science'
p6
F0.0042204944760021023
sS'dashboards'
p7
F0.017404670119952659
sS'integration'
p8
F0.0080920811305074131
sS'analytics'
p9
F0.015258551964623274
sS'data governance'
p10
F0.015342280448260703
sS'problem solving'
p11
F0.0086126732103622844
sS'data mining'
p12
F0.007445541504147851
sS'regression'
p13
F0.0083374308444975464
sS'visualization'
p14
F0.019729423915094413
sS'management'
p15
F0.0031791188322794813
sS'predictive modeling'
p16
F0.0072947575743472631
sS'excel'
p17
F0.0056735236028283001
sS'tableau'
p18
F0.0070492143407852341
sS'governance'
p19
F0.0126474246347221
sS'access'
p20
F0.008138463245952474
sS'computer science'
p21
F0.0049332746076744581
sS'advanced analytics'
p22
F0.010325651067852925
sS'unstructured data'
p23
F0.01118880152088828
sS'data analysis'
p24
F0.0052061825086514571
sS'python'
p25
F0.001828952676327249
sS'data scientist'
p26
F0.0037170935619785204
sS'data quality'
p27
F0.012402940572583241
sS'metrics'
p28
F0.015316385662915473
sS'modeling'
p29
F0.0085489019897005518
sS'data'
p30
F0.001248436714468136
sS'statistical programming'
p31
F0.014768149990707564
sS'a'
F0.0065615505039088654
sS'word'
p32
F0.009784802318239005
sS'data visualization'
p33
F0.0069008197388757929
sS'sql server'
p34
F0.009816941997468848
sS'science'
p35
F0.0024667855726108506
sS'programming'
p36
F0.003867772753806582
sS'analysis'
p37
F0.001202170953523263
sS'spss'
p38
F0.0077415748451142635
sS'r'
F0.001947341426715583
sS'dashboard'
p39
F0.012303161295156299
sS'organization'
p40
F0.0061866099623918641
sS'microsoft office'
p41
F0.0067382541926063987
sS'powerpoint'
p42
F0.0085860505506465002
sS'data analytics'
p43
F0.0071660444964413931
ssS'working-year'
p44
(dp45
sS'major'
p46
(dp47
VData Science
p48
F0.003604522745982676
sVComputer Science
p49
F0.003176686829305957
sVManagement Science and Engineering
p50
F0.0045247176788382193
ssS'education'
p51
(dp52
VBachelor
p53
F0.0031978204479645852
sVMaster
p54
F0.0025518620534181647
ssS'responsibility'
p55
(dp56
S'information'
p57
F0.0048670357878224371
sS'product'
p58
F0.0047192733007640235
sS'data analysis'
p59
F0.0052061825086514571
sS'insight'
p60
F0.012876444603575335
sS'communicate'
p61
F0.0070394487097599724
sS'analysis'
p62
F0.001202170953523263
sS'design'
p63
F0.0051242765263806236
sS'data mining'
p64
F0.007445541504147851
sS'report'
p65
F0.007281671649727821
sS'understand'
p66
F0.007374315134892194
sS'modeling'
p67
F0.0085489019897005518
sS'presentation'
p68
F0.017286697139014782
sS'data gathering'
p69
F0.016687831964012093
ss.