(dp1
S'skills'
p2
(dp3
S'visualization'
p4
I1
sS'data collection'
p5
I1
sS'national security'
p6
I1
sS'science'
p7
I1
sS'data science'
p8
I1
sS'data scientist'
p9
I1
sS'analysis'
p10
I1
sS'research'
p11
I1
sS'geospatial data'
p12
I1
sS'intelligence'
p13
I1
sS'security'
p14
I1
sS'education'
p15
I1
sS'data'
p16
I1
ssS'working-year'
p17
(dp18
V(5, 10]
p19
I1
ssS'major'
p20
(dp21
S'science'
p22
I1
sS'data science'
p23
I1
sS'design'
p24
I1
ssS'education'
p25
(dp26
S'Bachelor'
p27
I1
ssS'responsibility'
p28
(dp29
S'product'
p30
I1
sS'data collection'
p31
I1
sS'analysis'
p32
I1
sS'design'
p33
I1
sS'report'
p34
I1
sS'model'
p35
I1
ss.