(dp1
S'skills'
p2
(dp3
S'analytics'
p4
F0.0029990946964949194
sS'engineering'
p5
F0.0042236371623229473
sS'research'
p6
F0.0029419322126266836
sS'amazon web services'
p7
F0.011428514154305104
sS'statistics'
p8
F0.0064311231365696865
sS'java'
p9
F0.0042733343712699429
sS'big data'
p10
F0.0043887073322850601
sS'scala'
p11
F0.0084157461644780579
sS'user experience'
p12
F0.011638665396920192
sS'deep learning'
p13
F0.01073979890652914
sS'hadoop'
p14
F0.0044303672462053956
sS'writing'
p15
F0.0077484838830430783
sS'big data analytics'
p16
F0.011428514154305104
sS'large-scale data analysis'
p17
F0.017932000545585552
sS'computer science'
p18
F0.0048482181489214503
sS'web services'
p19
F0.010141514372966155
sS'natural language processing'
p20
F0.0086412349377941473
sS'amazon web services aws'
p21
F0.012006155480223447
sS'data analysis'
p22
F0.0051164207412609146
sS'python'
p23
F0.0017974190094940206
sS'data scientist'
p24
F0.0036530057419444078
sS'processing'
p25
F0.0056313382298990343
sS'gas'
p26
F0.016182254375756655
sS'construction'
p27
F0.034987074003679224
sS'data processing'
p28
F0.012674891716304744
sS'sql'
p29
F0.0023515305477001622
sS'data'
p30
F0.0016358825913720403
sS'project management'
p31
F0.0065567355976708487
sS'a'
F0.0064484203228069885
sS'data visualization'
p32
F0.0067818400882055201
sS'science'
p33
F0.0024242547868761808
sS'aws'
p34
F0.0090119874095921041
sS'programming'
p35
F0.0038010870166719857
sS'machine learning'
p36
F0.0022604059373587562
sS'r'
F0.0019137665745308317
sS'organization'
p37
F0.0060799442733851074
sS'security'
p38
F0.0075356924679992818
sS'data analytics'
p39
F0.0070424920051234382
ssS'working-year'
p40
(dp41
V(5, 10]
p42
F0.0041573940054374439
sV(10, 15]
p43
F0.0067497460558564098
ssS'major'
p44
(dp45
VStatistics
p46
F0.0062120854134071731
sVBusiness
p47
F0.0037300494730141869
sVData Science
p48
F0.0035423758020864228
sVEngineering
p49
F0.0042236371623229473
sVInformation Science
p50
F0.0087332937536348052
sVComputer Science
p51
F0.0031219163667317164
sVManagement Science and Engineering
p52
F0.0044467053050651463
ssS'education'
p53
(dp54
VDoctor
p55
F0.0037557992130223036
ssS'responsibility'
p56
(dp57
S'information'
p58
F0.0095662427553751348
sS'insight'
p59
F0.0063272184689982247
sS'business problem'
p60
F0.0098212088349332576
sS'predict'
p61
F0.014385800125914859
sS'processing'
p62
F0.0056313382298990343
sS'data analysis'
p63
F0.0051164207412609146
sS'report'
p64
F0.0071561255868014791
sS'implement'
p65
F0.0073029764659296812
ss.