(dp1
S'skills'
p2
(dp3
S'intelligence'
p4
F0.0064611465427439471
sS'pig'
p5
F0.01110546574121766
sS'visual studio'
p6
F0.018213143160301416
sS'analysis'
p7
F0.0014099535874655554
sS'hbase'
p8
F0.013778839875885069
sS'strategy'
p9
F0.006481528523567222
sS'xml'
p10
F0.013555197182944833
sS'management'
p11
F0.0037285961613154413
sS'big data'
p12
F0.0052375519603401963
sS'tableau'
p13
F0.0082675970663530531
sS'continuous improvement'
p14
F0.016501942642362724
sS'json'
p15
F0.01615627027462303
sS'innovation'
p16
F0.0079663566754515375
sS'mathematics'
p17
F0.0075221945764436457
sS'data analysis'
p18
F0.00610601652249245
sS'data modeling'
p19
F0.010749801419005233
sS'theory'
p20
F0.012059573047215373
sS'government'
p21
F0.010728886895592451
sS'machine learning'
p22
F0.0026976037935557175
sS'modeling'
p23
F0.0033421633293068006
sS'data'
p24
F0.0014642158996848508
sS'a'
F0.0076956456527326206
sS'national security'
p25
F0.017294869250255484
sS'programming'
p26
F0.0045362766865632755
sS'hive'
p27
F0.0085833508209465295
sS'simulation'
p28
F0.011048706945162023
sS'exploratory data analysis'
p29
F0.018377116169254512
sS'defense'
p30
F0.014533490345383697
sS'hadoop'
p31
F0.0052872695530846291
sS'security'
p32
F0.0089932132334147822
ssS'working-year'
p33
(dp34
V(5, 10]
p35
F0.0049614990188348099
ssS'major'
p36
(dp37
VMathematics
p38
F0.0070546194633022722
sVComputer Science
p39
F0.0037257438121489623
sVBusiness
p40
F0.0044514993710868898
sVManagement Science and Engineering
p41
F0.0053067676480201336
ssS'education'
p42
(dp43
VBachelor
p44
F0.0037505301550201926
ssS'responsibility'
p45
(dp46
S'development'
p47
F0.0049833786107576902
sS'information'
p48
F0.011416503699830409
sS'product'
p49
F0.022139800670250974
sS'data analysis'
p50
F0.00610601652249245
sVtest hypothesis
p51
F0.019849682426712551
sS'large data set'
p52
F0.012940152820299863
sS'pattern'
p53
F0.010776094961210477
sS'modeling'
p54
F0.0033421633293068006
sS'analysis'
p55
F0.0014099535874655554
sS'improvement'
p56
F0.011054347721560116
sS'analytic'
p57
F0.0092910533839491473
sS'design'
p58
F0.0060099539506933237
sS'identify opportunity'
p59
F0.017045389056524238
sS'prototype'
p60
F0.02595202809505916
sS'model'
p61
F0.006367945851447082
sS'develop ... model'
p62
F0.012756843733235136
sS'transformation'
p63
F0.012940152820299863
sS'simulation'
p64
F0.011048706945162023
ss.