(dp1
S'skills'
p2
(dp3
S'visualization'
p4
I1
sS'data collection'
p5
I1
sS'national security'
p6
I1
sS'government'
p7
I1
sS'data scientist'
p8
I1
sS'data science'
p9
I1
sS'programming'
p10
I1
sS'analysis'
p11
I1
sS'research'
p12
I1
sS'defense'
p13
I1
sS'geospatial data'
p14
I1
sS'data'
p15
I1
sS'communication'
p16
I1
sS'intelligence'
p17
I1
sS'security'
p18
I1
sS'education'
p19
I1
sS'microsoft office'
p20
I1
sS'customer relations'
p21
I1
sS'validation'
p22
I1
sS'science'
p23
I1
ssS'working-year'
p24
(dp25
V(10, 15]
p26
I1
ssS'major'
p27
(dp28
S'information'
p29
I1
sS'information systems'
p30
I1
sS'business'
p31
I1
sS'science'
p32
I1
sS'data science'
p33
I1
sS'information system'
p34
I1
sS'design'
p35
I1
sS'communication'
p36
I1
ssS'education'
p37
(dp38
S'Bachelor'
p39
I1
ssS'responsibility'
p40
(dp41
S'information'
p42
I1
sS'product'
p43
I1
sS'data collection'
p44
I1
sS'analysis'
p45
I1
sS'understand'
p46
I1
sS'report'
p47
I1
sS'design'
p48
I1
sS'model'
p49
I1
ss.