(dp1
S'skills'
p2
(dp3
S'logistics'
p4
I1
sS'supply chain'
p5
I1
sS'r d'
p6
I1
sS'classification'
p7
I1
sS'intelligence'
p8
I1
sS'linux'
p9
I1
sS'information retrieval'
p10
I1
sS'analytics'
p11
I1
sS'engineering'
p12
I1
sS'defense'
p13
I1
sS'marketing research'
p14
I1
sS'data mining'
p15
I1
sS'public policy'
p16
I1
sS'd3.js'
p17
I1
sS'econometrics'
p18
I1
sS'clustering'
p19
I1
sS'visualization'
p20
I1
sS'management'
p21
I1
sS'java'
p22
I1
sS'big data'
p23
I1
sS'scala'
p24
I1
sS'data'
p25
I1
sS'hadoop'
p26
I1
sS'research'
p27
I1
sS'access'
p28
I1
sS'risk management'
p29
I1
sS'computer science'
p30
I1
sS'natural language processing'
p31
I1
sS'mathematics'
p32
I1
sS'numpy'
p33
I1
sS'unstructured data'
p34
I1
sS'matlab'
p35
I1
sS'data analysis'
p36
I1
sS'product development'
p37
I1
sS'social media'
p38
I1
sS'python'
p39
I1
sS'marketing'
p40
I1
sS'processing'
p41
I1
sS'data scientist'
p42
I1
sS'business analytics'
p43
I1
sS'construction'
p44
I1
sS'computational linguistics'
p45
I1
sS'modeling'
p46
I1
sS'spark'
p47
I1
sS'ruby'
p48
I1
sS'information technology'
p49
I1
sS'training'
p50
I1
sS'sentiment analysis'
p51
I1
sS'science'
p52
I1
sS'programming'
p53
I1
sS'analysis'
p54
I1
sS'machine learning'
p55
I1
sS'exploratory data analysis'
p56
I1
sS'r'
I1
sS'elasticsearch'
p57
I1
sS'dashboard'
p58
I1
sS'shiny'
p59
I1
sS'scripting'
p60
I1
sS'predictive analytics'
p61
I1
ssS'working-year'
p62
(dp63
V(0, 2]
p64
I1
sV(20, 30)
p65
I1
ssS'major'
p66
(dp67
S'statistic'
p68
I1
sS'information retrieval'
p69
I1
sS'analytics'
p70
I1
sS'engineering'
p71
I1
sS'design'
p72
I1
sS'marketing research'
p73
I1
sS'data mining'
p74
I1
sS'public policy'
p75
I1
sS'econometrics'
p76
I1
sS'information'
p77
I1
sS'management'
p78
I1
sS'big data'
p79
I1
sS'computer science statistics'
p80
I1
sS'computer science'
p81
I1
sS'natural language processing'
p82
I1
sS'mathematics'
p83
I1
sS'law'
p84
I1
sS'data mining machine learning'
p85
I1
sS'marketing'
p86
I1
sS'phd'
p87
I1
sS'business analytics'
p88
I1
sS'computational linguistics'
p89
I1
sS'machine learning data mining'
p90
I1
sS'information technology'
p91
I1
sS'science'
p92
I1
sS'machine learning'
p93
I1
sS'predictive analytics'
p94
I1
ssS'education'
p95
(dp96
VMaster
p97
I1
sVDoctor
p98
I1
ssS'responsibility'
p99
(dp100
S'development'
p101
I1
sS'information'
p102
I1
sS'product'
p103
I1
sS'data analysis'
p104
I1
sVinsight
p105
I1
sS'processing'
p106
I1
sS'communicate'
p107
I1
sS'analysis'
p108
I1
sS'analytic'
p109
I1
sS'design'
p110
I1
sS'ownership'
p111
I1
sS'data mining'
p112
I1
sS'report'
p113
I1
sS'modeling'
p114
I1
sS'implement'
p115
I1
sS'presentation'
p116
I1
sS'model'
p117
I1
ss.