(dp1
S'skills'
p2
(dp3
S'negotiation'
p4
F0.014523926376236477
sS'photoshop'
p5
F0.018145394144713421
sS'consulting'
p6
F0.029403946770010608
sS'indesign'
p7
F0.0217158505260754
sS'analytics'
p8
F0.0072276088525060995
sS'engineering'
p9
F0.0074178904667676071
sS'research'
p10
F0.0067861807486331712
sS'business modeling'
p11
F0.02242997966680629
sS'sociology'
p12
F0.019249142545574822
sS'autocad'
p13
F0.023872913822438661
sS'user experience'
p14
F0.010011144821303124
sS'strategy'
p15
F0.0049978624772466047
sS'access'
p16
F0.0064879896959922131
sS'innovation'
p17
F0.0044422780067437558
sS'finance'
p18
F0.0099871007801295118
sS'government'
p19
F0.0069618383661409523
sS'design thinking'
p20
F0.01393273840809351
sS'data scientist'
p21
F0.00065860247176790598
sS'user research'
p22
F0.017496567326032449
sS'modeling'
p23
F0.0034365308822140411
sS'data'
p24
F0.0009165044870216067
sS'training'
p25
F0.0063820324250134083
sS'illustrator'
p26
F0.03882938695717799
sS'security clearance'
p27
F0.010571776567163689
sS'security'
p28
F0.0056779327063048515
ssS'working-year'
p29
(dp30
V(2, 5]
p31
F0.0027933585482165968
ssS'major'
p32
(dp33
S'sociology'
p34
F0.019249142545574822
sS'finance'
p35
F0.0099871007801295118
sS'business'
p36
F0.0028035988530120755
sS'anthropology'
p37
F0.024521744261354613
sS'analytics'
p38
F0.0072276088525060995
sS'engineering'
p39
F0.0074178904667676071
sS'management technology'
p40
F0.013302124207045324
sS'design'
p41
F0.0096984862083530909
ssS'education'
p42
(dp43
VBachelor
p44
F0.0012098048658795183
ssS'responsibility'
p45
(dp46
S'development'
p47
F0.001645863936203748
sVinsight
p48
F0.0037048444109432309
sS'improvement'
p49
F0.006921114455796018
sS'design'
p50
F0.0096984862083530909
sS'report'
p51
F0.0045394054688060112
sS'modeling'
p52
F0.0034365308822140411
ss.