(dp1
S'skills'
p2
(dp3
S'customer service'
p4
F0.031058799591140017
sS'training'
p5
F0.031740727635907399
sS'press releases'
p6
F0.062953570666338429
sS'search'
p7
F0.022311872837847722
sS'insurance'
p8
F0.022356790945342219
ssS'working-year'
p9
(dp10
V[0]
p11
F0.012620977631526063
ssS'major'
p12
(dp13
S'history'
p14
F0.04409410002551744
ssS'education'
p15
(dp16
S'Bachelor'
p17
F0.0030084528080720771
ssS'responsibility'
p18
(dp19
s.