(dp1
S'skills'
p2
(dp3
S'data acquisition'
p4
F0.011069695323194181
sS'rest'
p5
F0.0085995107270656554
sS'analytics'
p6
F0.0020907150528450161
sS'engineering'
p7
F0.017666174669331559
sS'communication skills'
p8
F0.0088536679136060666
sS'insurance'
p9
F0.0075797389748790576
sS'management'
p10
F0.0021780020846145485
sS'data'
p11
F0.0019956981132723808
sS'strategy'
p12
F0.0037860851712183531
sS'computer science'
p13
F0.0033797674595846651
sS'natural language processing'
p14
F0.0060239378172122666
sS'policy'
p15
F0.013123356865580527
sS'javascript'
p16
F0.0053303957067835197
sS'government'
p17
F0.025068456881047745
sS'python'
p18
F0.0012530084441184279
sS'mongodb'
p19
F0.0071084032784167681
sS'processing'
p20
F0.0039256925160353852
sS'data scientist'
p21
F0.0025465665027977844
sS'data quality'
p22
F0.0084972068826591925
sS'data structures'
p23
F0.01073470968540588
sS'ruby'
p24
F0.0081666167411766771
sS'software development'
p25
F0.0050966264857530592
sS'c'
F0.0030063027016781186
sS'data collection'
p26
F0.017429565129621363
sS'postgresql'
p27
F0.0081800832522441677
sS'database management'
p28
F0.011651449856134607
sS'science'
p29
F0.001689985308158876
sS'programming'
p30
F0.0026497962375838366
sS'analysis'
p31
F0.00082360269652435088
sS'machine learning'
p32
F0.0015757637544087486
sS'r'
F0.0026682322433362556
sS'organization'
p33
F0.0042384226905809643
sS'validation'
p34
F0.015201741851322581
ssS'working-year'
p35
(dp36
V(2, 5]
p37
F0.0029782317991133068
ssS'major'
p38
(dp39
VData Science
p40
F0.0024694446697237082
sVManagement Science and Engineering
p41
F0.0030998666790117606
sVEngineering
p42
F0.017666174669331559
sVBusiness
p43
F0.0026002748730146975
sVComputer Science
p44
F0.0021763359287312448
ssS'education'
p45
(dp46
S'Bachelor'
p47
F0.0021908144895911221
ssS'responsibility'
p48
(dp49
S'development'
p50
F0.0029109639481108623
sS'information'
p51
F0.0033343874988687374
sS'data collection'
p52
F0.017429565129621363
sS'formulate'
p53
F0.010834467530441788
sS'processing'
p54
F0.0039256925160353852
sS'analysis'
p55
F0.00082360269652435088
sS'implement'
p56
F0.010182034495767345
ss.