(dp1
S'skills'
p2
(dp3
S'government'
p4
F0.01650866312983635
sS'user experience'
p5
F0.011869753986439569
sS'adobe creative suite'
p6
F0.023019109145500028
sS'visio'
p7
F0.019803348938459982
sS'data scientist'
p8
F0.00078087466061933157
sS'html'
p9
F0.015014485627840664
sS'django'
p10
F0.01927523956203327
sS'user interface'
p11
F0.017070536850765591
sS'defense'
p12
F0.012074892546565208
sS'computer science'
p13
F0.0069771852105912323
sS'intelligence'
p14
F0.0080586248583219226
sS'interaction design'
p15
F0.019619869170418011
sS'user experience design'
p16
F0.019898170256582772
sS'security'
p17
F0.0067320636728762156
sS'data'
p18
F0.0010866572187893313
sS'd3'
p19
F0.014424790818257569
sS'information architecture'
p20
F0.021805266747832171
ssS'working-year'
p21
(dp22
V(5, 10]
p23
F0.0050999555119382207
sV(2, 5]
p24
F0.0033119567596998469
ssS'major'
p25
(dp26
S'information'
p27
F0.0026519265096761097
sS'information systems'
p28
F0.013283678599115849
sS'business'
p29
F0.0033240982181282413
sS'information system'
p30
F0.011674129208761338
sS'design'
p31
F0.01149904904872244
sS'computer science'
p32
F0.0069771852105912323
sS'ee computer science'
p33
F0.0095353399001184107
ssS'education'
p34
(dp35
VBachelor
p36
F0.0014344099886588384
ssS'responsibility'
p37
(dp38
S'development'
p39
F0.0019514251733048656
sS'information'
p40
F0.0026519265096761097
sS'product'
p41
F0.0048317777823271646
sS'analytic'
p42
F0.012611665849843237
sS'design'
p43
F0.01149904904872244
sS'interface'
p44
F0.019649315503685691
sS'model'
p45
F0.0031082471397433256
sS'prototype'
p46
F0.010060114218090071
ss.