(dp1
S'skills'
p2
(dp3
S'management'
p4
F0.0031900150153903579
sS'r d'
p5
F0.0015378828159725744
sS'big data'
p6
F0.0082516341092886848
sS'programming languages'
p7
F0.015470469113221873
sS'marketing'
p8
F0.006388172748724383
sS'testing'
p9
F0.0125045781500968
sS'data scientist'
p10
F0.00069313593470704711
sS'integration'
p11
F0.0072154027397428426
sS'machine learning'
p12
F0.0059366164607171819
sS'business process'
p13
F0.0099065397564756987
sS'product design'
p14
F0.01470170707635469
sS'etl'
p15
F0.0098958242926678354
sS'healthcare'
p16
F0.0079978070348528819
sS'product management'
p17
F0.01109649604030913
sS'validation'
p18
F0.0094905604465972144
sS'data'
p19
F0.0028936827062142866
sS'b2b'
p20
F0.010460666693093293
sS'data analytics'
p21
F0.011457180633609012
ssS'working-year'
p22
(dp23
V[0]
p24
F0.0053414624433050376
ssS'major'
p25
(dp26
S'management'
p27
F0.0031900150153903579
sS'business'
p28
F0.0029506040363160798
sS'big data'
p29
F0.0082516341092886848
sS'marketing'
p30
F0.006388172748724383
sS'machine learning'
p31
F0.0059366164607171819
sS'design'
p32
F0.0025517552664299798
sS'data analytics'
p33
F0.011457180633609012
ssS'education'
p34
(dp35
S'Bachelor'
p36
F0.0012732403270117778
ssS'responsibility'
p37
(dp38
S'development'
p39
F0.0017321639178773528
sS'product'
p40
F0.010722203505726013
sVinsight
p41
F0.003899105915636884
sS'design'
p42
F0.0025517552664299798
sS'report'
p43
F0.0047774267293426561
sS'understand'
p44
F0.0050225346126445925
sS'prototype'
p45
F0.0089297643059451197
ss.