(dp1
S'skills'
p2
(dp3
S'communication'
p4
I1
sS'engineering'
p5
I1
sS'data governance'
p6
I1
sS'problem solving'
p7
I1
sS'education'
p8
I1
sS'econometrics'
p9
I1
sS'open source'
p10
I1
sS'banking'
p11
I1
sS'industrial engineering'
p12
I1
sS'governance'
p13
I1
sS'coaching'
p14
I1
sS'teamwork'
p15
I1
sS'innovation'
p16
I1
sS'mathematics'
p17
I1
sS'risk analytics'
p18
I1
sS'operations research'
p19
I1
sS'data analysis'
p20
I1
sS'collaboration'
p21
I1
sS'data scientist'
p22
I1
sS'leadership'
p23
I1
sS'mentoring'
p24
I1
sS'statistical modeling'
p25
I1
sS'modeling'
p26
I1
sS'data'
p27
I1
sS'training'
p28
I1
sS'economics'
p29
I1
sS'analysis'
p30
I1
sS'data center'
p31
I1
sS'credit'
p32
I1
sS'validation'
p33
I1
sS'data analytics'
p34
I1
sS'predictive analytics'
p35
I1
ssS'working-year'
p36
(dp37
V(5, 10]
p38
I1
sV(0, 2]
p39
I1
sV(2, 5]
p40
I1
ssS'major'
p41
(dp42
S'economics statistics'
p43
I1
sS'economics'
p44
I1
sS'business'
p45
I1
sS'communication'
p46
I1
sS'industrial engineering'
p47
I1
sS'industrial engineering operations research'
p48
I1
sS'data analyst'
p49
I1
sS'engineering'
p50
I1
sS'finance economics'
p51
I1
sS'statistic'
p52
I1
sS'data analytics'
p53
I1
sS'mathematics'
p54
I1
sS'econometrics'
p55
I1
sS'operations research'
p56
I1
sS'predictive analytics'
p57
I1
ssS'education'
p58
(dp59
VBachelor
p60
I1
sVMaster
p61
I1
sVDoctor
p62
I1
ssS'responsibility'
p63
(dp64
S'large data set'
p65
I1
sS'data analysis'
p66
I1
sS'business problem'
p67
I1
sS'analysis'
p68
I1
sS'statistical model'
p69
I1
sS'cross-functionally'
p70
I1
sS'report'
p71
I1
sS'modeling'
p72
I1
sS'model'
p73
I1
sS'presentation'
p74
I1
ss.