(dp1
S'skills'
p2
(dp3
S'clustering'
p4
I1
sS'r'
I1
sS'data analysis'
p5
I1
sS'word'
p6
I1
sS'programming'
p7
I1
sS'linear regression'
p8
I1
sS'data scientist'
p9
I1
sS'excel'
p10
I1
sS'data'
p11
I1
sS'research'
p12
I1
sS'coaching'
p13
I1
sS'machine learning'
p14
I1
sS'mentoring'
p15
I1
sS'statistical analysis'
p16
I1
sS'sql'
p17
I1
sS'root'
p18
I1
sS'education'
p19
I1
sS'quantitative analysis'
p20
I1
sS'scripting'
p21
I1
sS'matlab'
p22
I1
ssS'working-year'
p23
(dp24
V(2, 5]
p25
I1
ssS'major'
p26
(dp27
S'machine learning'
p28
I1
sS'general'
p29
I1
sS'business'
p30
I1
sS'phd'
p31
I1
ssS'education'
p32
(dp33
VMaster
p34
I1
sVDoctor
p35
I1
ssS'responsibility'
p36
(dp37
S'data analysis'
p38
I1
sS'develop model'
p39
I1
sS'business problem'
p40
I1
sS'communicate'
p41
I1
sS'understand'
p42
I1
sS'model'
p43
I1
sS'quantitative analysis'
p44
I1
ss.