(dp1
S'skills'
p2
(dp3
S'automotive'
p4
I1
sS'data scientist'
p5
I1
sS'new business development'
p6
I1
sS'communication'
p7
I1
sS'business development'
p8
I1
sS'data'
p9
I1
sS'b2b'
p10
I1
ssS'working-year'
p11
(dp12
V(5, 10]
p13
I1
sV(2, 5]
p14
I1
ssS'major'
p15
(dp16
S'communication'
p17
I1
sS'business'
p18
I1
ssS'education'
p19
(dp20
S'Bachelor'
p21
I1
ssS'responsibility'
p22
(dp23
S'development'
p24
I1
sS'product'
p25
I1
sS'presentation'
p26
I1
sS'formulate'
p27
I1
ss.