(dp1
S'skills'
p2
(dp3
S'healthcare industry'
p4
F0.019378454380550737
sS'strategic leadership'
p5
F0.023887769759633234
sS'analytics'
p6
F0.0034513391348552644
sS'strategy'
p7
F0.025000181448044997
sS'management'
p8
F0.014381728050788129
sS'big data'
p9
F0.0050504965331851885
sS'executive management'
p10
F0.021538368566333479
sS'big data analytics'
p11
F0.013151861526779683
sS'corporate development'
p12
F0.027301261279848697
sS'natural language processing'
p13
F0.0099442783014297726
sS'policy'
p14
F0.010831977095399799
sS'product development'
p15
F0.010370937891990912
sS'government'
p16
F0.010345712363607004
sS'processing'
p17
F0.0064805082804393647
sS'data scientist'
p18
F0.0042038558141423736
sS'leadership'
p19
F0.0065571770682691351
sS'national security'
p20
F0.016677195348460641
sS'business strategy'
p21
F0.012061648096505702
sS'machine learning'
p22
F0.0026012608009287272
sS'healthcare'
p23
F0.042813338782701015
sS'organization'
p24
F0.0069967612669907982
sS'security'
p25
F0.0086720270465071095
sS'data analytics'
p26
F0.0081044550852610985
ssS'working-year'
p27
(dp28
S'[0]'
p29
F0.0087151378196205654
ssS'major'
p30
(dp31
VData Science
p32
F0.0040765435817661216
sVComputer Science
p33
F0.0035926815331436416
sVBusiness
p34
F0.004292517250690929
sVManagement Science and Engineering
p35
F0.0051172402320194136
ssS'education'
p36
(dp37
S'Bachelor'
p38
F0.0036165826494837568
ssS'responsibility'
p39
(dp40
S'development'
p41
F0.014416202409691888
sS'information'
p42
F0.0055043857124182326
sS'product'
p43
F0.021349093503456294
sS'processing'
p44
F0.0064805082804393647
sS'communicate'
p45
F0.0079612812788952061
sS'implement'
p46
F0.0084042189488873313
sS'evaluation'
p47
F0.013426361840582051
ss.