(dp1
S'skills'
p2
(dp3
S'social media'
p4
F0.020884285993922641
sS'consulting'
p5
F0.0082295906796543642
sS'r d'
p6
F0.0016359151867118618
sS'content strategy'
p7
F0.023964712447393947
sS'user experience'
p8
F0.011207695995164057
sS'marketing'
p9
F0.006795386947846256
sS'data scientist'
p10
F0.00073731989867243655
sS'research'
p11
F0.0037986390246333092
sS'analytics'
p12
F0.0040457332421398691
sS'marketing strategy'
p13
F0.03551400288311591
sS'copywriting'
p14
F0.067729460048127854
sS'communication'
p15
F0.0031236768650383211
sS'seo'
p16
F0.097393160316420174
sS'strategy'
p17
F0.0055952165581924142
sS'data'
p18
F0.0041041874239533304
ssS'working-year'
p19
(dp20
V[0]
p21
F0.0056819540731571517
ssS'major'
p22
(dp23
S'information'
p24
F0.0025040102900129005
sS'communication'
p25
F0.0031236768650383211
sS'analytics'
p26
F0.0040457332421398691
sS'marketing strategy'
p27
F0.03551400288311591
sS'marketing'
p28
F0.006795386947846256
sS'history'
p29
F0.0099255643483734477
ssS'education'
p30
(dp31
S'Bachelor'
p32
F0.0013544030570204967
ssS'responsibility'
p33
(dp34
S'presentation'
p35
F0.0067422159448011368
sS'communicate'
p36
F0.0049199530402156497
sS'information'
p37
F0.0025040102900129005
ss.