(dp1
S'skills'
p2
(dp3
S'r d'
p4
F0.0010163730491699935
sS'probability'
p5
F0.0084930078707597095
sS'communication'
p6
F0.0019407002305064818
sS'data science'
p7
F0.0046065039908601627
sS'engineering'
p8
F0.0025797366598535863
sS'c++'
p9
F0.0066632977526882159
sS'data mining'
p10
F0.010984090961794807
sS'econometrics'
p11
F0.0083567258259212383
sS'java'
p12
F0.0034885681551237975
sS'programming languages'
p13
F0.010224295181262971
sS'perl'
p14
F0.01462832510989109
sS'computer science'
p15
F0.0040930517200745602
sS'mathematics'
p16
F0.0040121014121824632
sS'distributed computing'
p17
F0.0069969875499203468
sS'python'
p18
F0.0035966121948038769
sS'data scientist'
p19
F0.00045808736278906336
sS'statistical modeling'
p20
F0.0057894459052158682
sS'sql'
p21
F0.0046758954284589873
sS'spark'
p22
F0.0039221006173083854
sS'php'
p23
F0.010102037900303094
sS'data'
p24
F0.0038248182304911607
sS'programming'
p25
F0.002572612055697429
sS'analysis'
p26
F0.0012408663366962182
sS'machine learning'
p27
F0.0039234569183452667
sS'h2o'
p28
F0.019281669268644358
sS'r'
F0.0019728681876362425
sS'healthcare'
p29
F0.031714076410480976
sS'shiny'
p30
F0.011908850784124252
sS'scripting'
p31
F0.0052518333638186454
sS'predictive analytics'
p32
F0.012621201015449191
ssS'working-year'
p33
(dp34
V(2, 5]
p35
F0.0019429053268536231
ssS'major'
p36
(dp37
S'business'
p38
F0.0019500279150900823
sS'computing'
p39
F0.0052729328283006747
sS'communication'
p40
F0.0019407002305064818
sS'data science'
p41
F0.0046065039908601627
sS'statistic'
p42
F0.0043990888222497221
sS'machine learning'
p43
F0.0039234569183452667
sS'engineering'
p44
F0.0025797366598535863
sS'computer science'
p45
F0.0040930517200745602
sS'phd'
p46
F0.0041697836131660187
sS'data mining'
p47
F0.010984090961794807
sS'mathematics'
p48
F0.0040121014121824632
sS'applied math'
p49
F0.0061605516483220317
sS'econometrics'
p50
F0.0083567258259212383
sVphysic
p51
F0.0056424732599538747
sS'predictive analytics'
p52
F0.012621201015449191
ssS'education'
p53
(dp54
VDoctor
p55
F0.0031501600430232481
ssS'responsibility'
p56
(dp57
S'development'
p58
F0.0011447716982011219
sS'large data set'
p59
F0.0054898245797506476
sS'product'
p60
F0.0056689670020373178
sS'engineering design'
p61
F0.012539767661631231
sVtest hypothesis
p62
F0.010014151568394667
sS'business problem'
p63
F0.004575823326000511
sVinsight
p64
F0.0025768843551362574
sS'communicate'
p65
F0.0030567034977577426
sS'analysis'
p66
F0.0012408663366962182
sS'statistical model'
p67
F0.0046047693876852492
sS'understand'
p68
F0.003319348370237887
sS'solve problem'
p69
F0.0074946157943854711
sS'data mining'
p70
F0.010984090961794807
sS'product decision'
p71
F0.012239371515159614
sS'model'
p72
F0.0036468048124711295
sS'prototype'
p73
F0.0059016016576419472
ss.