(dp1
S'skills'
p2
(dp3
S'supply chain'
p4
F0.018720648259465834
sS'management'
p5
F0.004216504995590226
sS'data scientist'
p6
F0.00091617472557812673
sS'python'
p7
F0.0035966121948038769
sS'communication'
p8
F0.0077628009220259272
sS'data science'
p9
F0.0092130079817203253
sS'sql'
p10
F0.0046758954284589873
sS'excel'
p11
F0.019298109985709376
sS'consulting'
p12
F0.020451755055378665
sS'access'
p13
F0.018050743609641703
sS'engineering'
p14
F0.0051594733197071726
sS'data analysis'
p15
F0.013807018699264822
sS'statistical analysis'
p16
F0.0090692024426780801
sS'asset management'
p17
F0.021118586963082369
sS'financial analysis'
p18
F0.028053649244151792
sS'r'
F0.003945736375272485
sS'data collection'
p19
F0.030062012303758576
sS'data'
p20
F0.0012749394101637204
sS'data analytics'
p21
F0.015143897174126763
ssS'working-year'
p22
(dp23
V(2, 5]
p24
F0.0038858106537072463
ssS'major'
p25
(dp26
S'management'
p27
F0.004216504995590226
sS'business'
p28
F0.0039000558301801646
sS'communication'
p29
F0.0077628009220259272
sS'data science'
p30
F0.0092130079817203253
sVapplied statistic
p31
F0.018177023402502566
sS'operations supply chain'
p32
F0.038648021083855635
sS'engineering'
p33
F0.0051594733197071726
sS'applied statistics'
p34
F0.023695461919074009
sS'statistic'
p35
F0.0043990888222497221
sS'data analytics'
p36
F0.015143897174126763
ssS'education'
p37
(dp38
VMaster
p39
F0.0047752365292272579
ssS'responsibility'
p40
(dp41
S'development'
p42
F0.0045790867928044874
sS'product'
p43
F0.0028344835010186589
sS'data collection'
p44
F0.030062012303758576
sVinsight
p45
F0.015461306130817544
sS'analytic'
p46
F0.022195283215936983
sS'data analysis'
p47
F0.013807018699264822
sS'understand'
p48
F0.013277393480951548
sS'presentation'
p49
F0.016755407942030547
ss.