(dp1
S'skills'
p2
(dp3
S'text mining'
p4
F0.020799904616775979
sS'nlp'
p5
F0.021736075433913642
sS'management'
p6
F0.0057344865012636213
sS'pattern recognition'
p7
F0.020211099423301841
sS'classification'
p8
F0.01997064494593721
sS'collaborative filtering'
p9
F0.029028318947028394
sS'python'
p10
F0.0032990602072991517
sS'communication'
p11
F0.010020059234878838
sS'logistics'
p12
F0.029145526926891006
sS'processing'
p13
F0.010336000548548861
sS'software development'
p14
F0.01341896593717261
sS'machine learning'
p15
F0.0041488463407217679
sS'r'
F0.0035126095355312733
sS'neural networks'
p16
F0.020597487966656895
sS'logistic regression'
p17
F0.02072128403045281
sS'natural language processing'
p18
F0.015860494506077866
sS'random forest'
p19
F0.028744457562261669
sS'spss'
p20
F0.01396423310669345
sS'regression'
p21
F0.015039036649884813
sS'information technology'
p22
F0.019725627036466742
sS'clustering'
p23
F0.020401345319976012
ssS'working-year'
p24
(dp25
V(10, 15]
p26
F0.012388774406318727
ssS'major'
p27
(dp28
VInformation Science
p29
F0.016029463218696794
sVComputer Science
p30
F0.0057300996604569476
sVManagement Science and Engineering
p31
F0.0081616742941069131
ssS'education'
p32
(dp33
VMaster
p34
F0.004603042311545423
sVDoctor
p35
F0.006893555517572582
ssS'responsibility'
p36
(dp37
S'development'
p38
F0.0076643101418615101
sS'information'
p39
F0.017558293664929045
sS'pattern'
p40
F0.01657336123781105
sS'processing'
p41
F0.010336000548548861
sS'statistical model'
p42
F0.022726989276068959
sS'recommendation'
p43
F0.016532922435558678
sS'model'
p44
F0.0097937395057065869
ss.