(dp1
S'skills'
p2
(dp3
S'testing'
p4
F0.020867014787974036
sS'r d'
p5
F0.0012831709745771169
sS'marketing'
p6
F0.015990394911650718
sS'documentation'
p7
F0.0070197625437040867
sS'data scientist'
p8
F0.0005783352955211925
sS'writing'
p9
F0.006557039106203021
sS'strategy'
p10
F0.0043887479878321747
sS'proofreading'
p11
F0.024396563309183869
sS'troubleshooting'
p12
F0.0099436516983463577
sS'english'
p13
F0.010802042035245952
sS'editing'
p14
F0.015933924233326475
sS'data'
p15
F0.001609611005331697
sS'quality assurance'
p16
F0.01088374349241613
ssS'working-year'
p17
(dp18
sS'major'
p19
(dp20
S'information'
p21
F0.0019640830712288689
sS'business'
p22
F0.0012309551214006145
sS'marketing'
p23
F0.015990394911650718
sS'journalism'
p24
F0.020064397245532824
sS'design'
p25
F0.0021291208004275146
sS'english'
p26
F0.010802042035245952
ssS'education'
p27
(dp28
S'Bachelor'
p29
F0.0010623598978504523
ssS'responsibility'
p30
(dp31
S'presentation'
p32
F0.0052884256317033921
sS'documentation'
p33
F0.0070197625437040867
sS'design'
p34
F0.0021291208004275146
sS'information'
p35
F0.0019640830712288689
ss.