(dp1
S'skills'
p2
(dp3
S'communication'
p4
I1
sS'data science'
p5
I1
sS'competitive analysis'
p6
I1
sS'engineering'
p7
I1
sS'statistical analysis'
p8
I1
sS'management'
p9
I1
sS'agile'
p10
I1
sS'strategy'
p11
I1
sS'computer science'
p12
I1
sS'data analysis'
p13
I1
sS'collaboration'
p14
I1
sS'data scientist'
p15
I1
sS'leadership'
p16
I1
sS'sql'
p17
I1
sS'search'
p18
I1
sS'b testing'
p19
I1
sS'software engineering'
p20
I1
sS'economics'
p21
I1
sS'health insurance'
p22
I1
sS'analysis'
p23
I1
sS'e-commerce'
p24
I1
sS'architecture'
p25
I1
sS'product management'
p26
I1
ssS'working-year'
p27
(dp28
V(5, 10]
p29
I1
ssS'major'
p30
(dp31
S'management'
p32
I1
sS'software engineering'
p33
I1
sS'business'
p34
I1
sS'communication'
p35
I1
sS'data science'
p36
I1
sS'economics'
p37
I1
sS'engineering'
p38
I1
sS'design'
p39
I1
sS'computer science'
p40
I1
sS'statistic'
p41
I1
ssS'education'
p42
(dp43
S'Bachelor'
p44
I1
ssS'responsibility'
p45
(dp46
S'development'
p47
I1
sS'product'
p48
I1
sS'data analysis'
p49
I1
sS'analysis'
p50
I1
sS'understand'
p51
I1
sS'ownership'
p52
I1
sS'report'
p53
I1
sS'design'
p54
I1
sS'implement'
p55
I1
sS'model'
p56
I1
ss.