(dp1
S'skills'
p2
(dp3
S'debugging'
p4
F0.015234046804795875
sS'classification'
p5
F0.010937129641102526
sS'communication'
p6
F0.0054875887664154466
sS'testing'
p7
F0.0070966309008665953
sS'analytics'
p8
F0.006029375819643165
sS'engineering'
p9
F0.0021227985737844969
sS'visualization'
p10
F0.012993381434550914
sS'management'
p11
F0.0031405506662033002
sS'java'
p12
F0.004295552747550376
sS'big data'
p13
F0.0022057627839907582
sS'scala'
p14
F0.008459502210393887
sS'deep learning'
p15
F0.005397819207787609
sS'scientific computing'
p16
F0.0055946590375220403
sS'research'
p17
F0.0029572282206646039
sS'computer science'
p18
F0.0024367127611563616
sS'distributed computing'
p19
F0.0061999938690802635
sS'marketing'
p20
F0.0066038631628337905
sS'collaboration'
p21
F0.0088654052688854554
sS'data scientist'
p22
F0.0018359994196947629
sS'performance tuning'
p23
F0.0083197287667517526
sS'spark'
p24
F0.0058444908953748992
sS'data'
p25
F0.0039054216111178257
sS'pattern recognition'
p26
F0.0055344085075939185
sS'science'
p27
F0.0036552888467630456
sS'documentation'
p28
F0.010050055316963711
sS'programming'
p29
F0.0076417000681793818
sS'analysis'
p30
F0.0011875865572066894
sS'machine learning'
p31
F0.0011360792406135863
sS'advertising'
p32
F0.034225968294595732
sS'etl'
p33
F0.0049389335771493634
ssS'working-year'
p34
(dp35
V(5, 10]
p36
F0.0020895047860950756
ssS'major'
p37
(dp38
VBusiness
p39
F0.0018747215722255011
sVData Science
p40
F0.0017803968502687394
sVEconomics
p41
F0.0028436248657269683
sVEngineering
p42
F0.0021227985737844969
sVComputer Science
p43
F0.0015690740837993027
sVManagement Science and Engineering
p44
F0.0022349125450067458
ssS'education'
p45
(dp46
VBachelor
p47
F0.0015795126996012248
ssS'responsibility'
p48
(dp49
S'development'
p50
F0.004197438483237846
sS'product'
p51
F0.0046620204184323975
sS'documentation'
p52
F0.010050055316963711
sS'evaluation'
p53
F0.011727706009797841
sS'insight'
p54
F0.0063601156187503812
sS'communicate'
p55
F0.006954048118827009
sS'analysis'
p56
F0.0011875865572066894
sS'design'
p57
F0.0050621102600293851
sS'pattern'
p58
F0.0045382860928494728
sS'interface'
p59
F0.021889477979549939
sS'understand'
p60
F0.0072848520396681981
sS'extract'
p61
F0.010723426449576532
sS'presentation'
p62
F0.0085384899213504558
ss.