(dp1
S'skills'
p2
(dp3
S'communication'
p4
I1
sS'data science'
p5
I1
sS'analytics'
p6
I1
sS'engineering'
p7
I1
sS'analysis'
p8
I1
sS'data mining'
p9
I1
sS'education'
p10
I1
sS'management'
p11
I1
sS'big data'
p12
I1
sS'hadoop'
p13
I1
sS'research'
p14
I1
sS'access'
p15
I1
sS'matlab'
p16
I1
sS'natural language processing'
p17
I1
sS'intelligence'
p18
I1
sS'computer science'
p19
I1
sS'government'
p20
I1
sS'python'
p21
I1
sS'processing'
p22
I1
sS'data scientist'
p23
I1
sS'automation'
p24
I1
sS'sql'
p25
I1
sS'ruby'
p26
I1
sS'training'
p27
I1
sS'data collection'
p28
I1
sS'national security'
p29
I1
sS'science'
p30
I1
sS'hive'
p31
I1
sS'machine learning'
p32
I1
sS'credit'
p33
I1
sS'r'
I1
sS'organization'
p34
I1
sS'security'
p35
I1
sS'statistical analysis'
p36
I1
ssS'working-year'
p37
(dp38
V[0]
p39
I1
ssS'major'
p40
(dp41
S'information'
p42
I1
sS'natural language processing'
p43
I1
sS'management'
p44
I1
sS'business'
p45
I1
sS'big data'
p46
I1
sS'mathematics statistics'
p47
I1
sS'communication'
p48
I1
sS'data science'
p49
I1
sS'data mining'
p50
I1
sS'general'
p51
I1
sS'informatics data mining'
p52
I1
sS'analytics'
p53
I1
sS'engineering'
p54
I1
sS'machine learning'
p55
I1
sS'computer science'
p56
I1
sS'automation'
p57
I1
sS'statistic'
p58
I1
sS'computer science mathematics'
p59
I1
sS'ee computer science'
p60
I1
sS'science'
p61
I1
ssS'education'
p62
(dp63
VBachelor
p64
I1
ssS'responsibility'
p65
(dp66
S'development'
p67
I1
sS'information'
p68
I1
sS'data collection'
p69
I1
sVinsight
p70
I1
sS'processing'
p71
I1
sS'analysis'
p72
I1
sS'analytic'
p73
I1
sS'understand'
p74
I1
sS'data mining'
p75
I1
ss.