(dp1
S'skills'
p2
(dp3
S'logistics'
p4
I1
sS'communication'
p5
I1
sS'data science'
p6
I1
sS'analytics'
p7
I1
sS'engineering'
p8
I1
sS'problem solving'
p9
I1
sS'relational databases'
p10
I1
sS'machine learning'
p11
I1
sS'quantitative analysis'
p12
I1
sS'random forest'
p13
I1
sS'xml'
p14
I1
sS'java'
p15
I1
sS'big data'
p16
I1
sS'programming languages'
p17
I1
sS'critical thinking'
p18
I1
sS'vbscript'
p19
I1
sS'servlets'
p20
I1
sS'strategy'
p21
I1
sS'html'
p22
I1
sS'oracle sql'
p23
I1
sS'matlab'
p24
I1
sS'innovation'
p25
I1
sS'mathematics'
p26
I1
sS'operations research'
p27
I1
sS'computer science'
p28
I1
sS'processing'
p29
I1
sS'government'
p30
I1
sS'python'
p31
I1
sS'collaboration'
p32
I1
sS'natural language processing'
p33
I1
sS'data scientist'
p34
I1
sS'random forests'
p35
I1
sS'jsp'
p36
I1
sS'sql'
p37
I1
sS'jquery'
p38
I1
sS'c'
I1
sS'decision trees'
p39
I1
sS'data visualization'
p40
I1
sS'sql server'
p41
I1
sS'vb.net'
p42
I1
sS'economics'
p43
I1
sS'programming'
p44
I1
sS'analysis'
p45
I1
sS'spss'
p46
I1
sS'engineering management'
p47
I1
sS'asp.net'
p48
I1
sS'xquery'
p49
I1
sS'r'
I1
sS'javascript'
p50
I1
sS'oracle'
p51
I1
sS'security'
p52
I1
sS'powershell'
p53
I1
ssS'working-year'
p54
(dp55
V[0]
p56
I1
ssS'major'
p57
(dp58
S'mathematics physics'
p59
I1
sS'big data'
p60
I1
sS'management science'
p61
I1
sS'communication'
p62
I1
sS'data science'
p63
I1
sS'economics'
p64
I1
sS'machine learning'
p65
I1
sS'engineering management'
p66
I1
sS'analytics'
p67
I1
sS'engineering'
p68
I1
sS'natural language processing'
p69
I1
sS'statistic'
p70
I1
sVphysic
p71
I1
sS'mathematics'
p72
I1
sS'operations research'
p73
I1
sS'computer science'
p74
I1
ssS'education'
p75
(dp76
VBachelor
p77
I1
sVMaster
p78
I1
ssS'responsibility'
p79
(dp80
S'product'
p81
I1
sS'processing'
p82
I1
sS'quantitative analysis'
p83
I1
sS'analysis'
p84
I1
ss.