(dp1
S'skills'
p2
(dp3
S'cognos'
p4
F0.027245779875224564
sS'data scientist'
p5
F0.0030885471287576626
sS'nosql'
p6
F0.0079791453768703266
sS'hadoop'
p7
F0.0037457915492698684
sS'analytics'
p8
F0.0076070331951911957
sS'problem solving'
p9
F0.0071563028132747841
sS'qlikview'
p10
F0.01175162033557443
sS'visualization'
p11
F0.016393253107294194
sS'management'
p12
F0.0052830837737589051
sS'big data'
p13
F0.0037105688815238119
sS'credit'
p14
F0.0092639499248910982
sS'agile'
p15
F0.0063664427775495898
sS'tableau'
p16
F0.011714437825794703
sS'quality assurance'
p17
F0.011377708075489941
sS'risk analytics'
p18
F0.015112166569616106
sS'unstructured data'
p19
F0.0092968175902424493
sS'data management'
p20
F0.0080172539492981646
sS'architecture'
p21
F0.006376135634649149
sS'data analysis'
p22
F0.0043258367783255546
sS'hdfs'
p23
F0.011631380654104222
sS'customer service'
p24
F0.0099956843807219881
sS'scrum'
p25
F0.0099047013537303125
sS'alteryx'
p26
F0.014310121338643645
sS'business analytics'
p27
F0.0088559305937583477
sS'data wrangling'
p28
F0.029161240223221235
sS'modeling'
p29
F0.0047355433762189649
sS'data'
p30
F0.00069155386515727646
sS'cloudera'
p31
F0.013266573851443364
sS'data visualization'
p32
F0.0057339172757422761
sS'analysis'
p33
F0.0049944420080776956
sS'data architecture'
p34
F0.011829368964476101
sS'banking'
p35
F0.02002507241141898
sS'dashboard'
p36
F0.02044548670040551
ssS'working-year'
p37
(dp38
S'[0]'
p39
F0.0064029583980885789
ssS'major'
p40
(dp41
VData Science
p42
F0.0029950116110934772
sVBusiness
p43
F0.0031536861433647642
sVManagement Science and Engineering
p44
F0.0037596050684224266
ssS'education'
p45
(dp46
S'Bachelor'
p47
F0.0026570811302329641
ssS'responsibility'
p48
(dp49
S'development'
p50
F0.0070609970986245984
sS'information'
p51
F0.0040440384825929871
sS'data analysis'
p52
F0.0043258367783255546
sS'extract'
p53
F0.0090195583985505229
sS'insight'
p54
F0.016048629935943019
sS'analysis'
p55
F0.0049944420080776956
sS'data gathering'
p56
F0.013865982827240369
sS'design'
p57
F0.0085155615744517636
sS'data wrangling'
p58
F0.029161240223221235
sS'report'
p59
F0.018151105715793842
sS'modeling'
p60
F0.0047355433762189649
sS'model'
p61
F0.0045114018714333551
sS'presentation'
p62
F0.0071817910854507479
sS'implement'
p63
F0.0061745282073457945
ss.