(dp1
S'skills'
p2
(dp3
S'training'
p4
F0.073540460969447788
sS'python'
p5
F0.022804753682955384
sS'communication'
p6
F0.0098948084944428527
sS'data science'
p7
F0.0075177557853787456
sS'data scientist'
p8
F0.0066210729072742397
sS'scientific computing'
p9
F0.02017573915406386
sS'analysis'
p10
F0.0021413670109633122
sS'engineering'
p11
F0.015310684713420683
sS'computer science'
p12
F0.0087873953949201295
sS'modeling'
p13
F0.0050759105563847034
sS'mathematics'
p14
F0.011424333012973787
sS'teaching'
p15
F0.053955204607491834
sS'data'
p16
F0.0014825185984309115
sS'project management'
p17
F0.011884083270778414
sS'science'
p18
F0.017575847204852311
ssS'working-year'
p19
(dp20
V(2, 5]
p21
F0.0077434026776945974
ssS'major'
p22
(dp23
VData Science
p24
F0.0064205561412816418
sVElectrical and Electronics Engineering
p25
F0.019666428721093636
sVEngineering
p26
F0.015310684713420683
sVComputer Science
p27
F0.0056584734147012358
sVMathematics
p28
F0.010714203309890325
sVManagement Science and Engineering
p29
F0.0080596533654305781
ssS'education'
p30
(dp31
VBachelor
p32
F0.0056961176729369177
ssS'responsibility'
p33
(dp34
S'modeling'
p35
F0.0050759105563847034
sS'analysis'
p36
F0.0021413670109633122
ss.