(dp1
S'skills'
p2
(dp3
S'classification'
p4
I1
sS'communication'
p5
I1
sS'integration'
p6
I1
sS'analytics'
p7
I1
sS'business intelligence'
p8
I1
sS'sap'
p9
I1
sS'regression'
p10
I1
sS'clustering'
p11
I1
sS'open source'
p12
I1
sS'big data'
p13
I1
sS'agile'
p14
I1
sS'information management'
p15
I1
sS'research'
p16
I1
sS'big data analytics'
p17
I1
sS'teamwork'
p18
I1
sS'intelligence'
p19
I1
sS'advanced analytics'
p20
I1
sS'statistical learning'
p21
I1
sS'data analysis'
p22
I1
sS'python'
p23
I1
sS'data scientist'
p24
I1
sS'gas'
p25
I1
sS'data quality'
p26
I1
sS'organization'
p27
I1
sS'spark'
p28
I1
sS'data'
p29
I1
sS'project management'
p30
I1
sS'software development'
p31
I1
sS'engineering'
p32
I1
sS'analysis'
p33
I1
sS'machine learning'
p34
I1
sS'r'
I1
sS'hadoop'
p35
I1
sS'data analytics'
p36
I1
ssS'working-year'
p37
(dp38
V(5, 10]
p39
I1
sV(2, 5]
p40
I1
ssS'major'
p41
(dp42
S'information'
p43
I1
sS'business'
p44
I1
sS'big data'
p45
I1
sS'communication'
p46
I1
sS'information management'
p47
I1
sS'machine learning'
p48
I1
sS'big data analytics'
p49
I1
sS'analytics'
p50
I1
sS'engineering'
p51
I1
sS'information science'
p52
I1
sS'data analytics'
p53
I1
sS'statistic'
p54
I1
sS'advanced analytics'
p55
I1
sS'phd'
p56
I1
sS'project management'
p57
I1
ssS'education'
p58
(dp59
VMaster
p60
I1
sVDoctor
p61
I1
ssS'responsibility'
p62
(dp63
S'development'
p64
I1
sS'information'
p65
I1
sS'data analysis'
p66
I1
sS'business problem'
p67
I1
sS'pattern'
p68
I1
sS'communicate'
p69
I1
sS'analysis'
p70
I1
sS'analytic'
p71
I1
sS'problem statement'
p72
I1
sS'understand'
p73
I1
sS'report'
p74
I1
sS'model'
p75
I1
sS'transformation'
p76
I1
ss.