(dp1
S'skills'
p2
(dp3
S'negotiation'
p4
F0.039242531843485098
sS'r d'
p5
F0.0039482183833142058
sS'big data'
p6
F0.021184483722885374
sS'data scientist'
p7
F0.0017794932169882846
sS'product marketing'
p8
F0.042524246083391108
sS'strategy'
p9
F0.013503839962560538
sS'advertising'
p10
F0.028412708386519232
sS'account management'
p11
F0.046261304969098062
ssS'working-year'
p12
(dp13
V(2, 5]
p14
F0.0075474399235467672
ssS'major'
p15
(dp16
S'big data'
p17
F0.021184483722885374
sS'management marketing'
p18
F0.052457008341187571
sS'business'
p19
F0.0075751084393883969
ssS'education'
p20
(dp21
S'Bachelor'
p22
F0.0032687996856936991
ssS'responsibility'
p23
(dp24
S'product'
p25
F0.0055054391077477794
ss.