(dp1
S'skills'
p2
(dp3
S'digital marketing'
p4
F0.011016820723833554
sS'communication'
p5
F0.0024273773780947947
sS'data acquisition'
p6
F0.012217304858761279
sS'rest'
p7
F0.0098361571567398675
sS'engineering'
p8
F0.0032266675250181079
sS'oracle pl'
p9
F0.018622733202154431
sS'xml'
p10
F0.011707649995083896
sS'management'
p11
F0.0026369473966229894
sS'java'
p12
F0.0043634103240557717
sS'big data'
p13
F0.0068210102389476132
sS'storage'
p14
F0.0094398018074063391
sS'hadoop'
p15
F0.0073671901058734134
sS'sybase'
p16
F0.01889211764033185
sS'json'
p17
F0.01119898441546691
sS'computer science'
p18
F0.0051194826467805647
sS'policy'
p19
F0.0072873460856288427
sS'mathematics'
p20
F0.0050182321068783751
sS'soap'
p21
F0.014671379769590766
sS'data management'
p22
F0.0072347642935195224
sS'data modeling'
p23
F0.0083065146515112712
sS'product development'
p24
F0.0064050844909631886
sS'cloudera impala'
p25
F0.026315935715294263
sS'marketing'
p26
F0.0052806257706173691
sS'data scientist'
p27
F0.00057296376026867366
sS'sql'
p28
F0.0058484883996824484
sS'modeling'
p29
F0.0029896754733812559
sS'extract transform load etl'
p30
F0.01446258512431318
sS'data'
p31
F0.009567966347482533
sS'software development'
p32
F0.0068205826150874657
sS'cloudera'
p33
F0.012990702771563244
sS'science'
p34
F0.0045438181542037737
sS'documentation'
p35
F0.006954563510790426
sS'english'
p36
F0.010701713471451098
sS'oracle'
p37
F0.0081449601896870418
sS'impala'
p38
F0.013207289679698572
sS'etl'
p39
F0.0081801395855799139
ssS'working-year'
p40
(dp41
V(5, 10]
p42
F0.0037420726202147324
ssS'major'
p43
(dp44
S'information'
p45
F0.0019458408136013561
sS'management'
p46
F0.0026369473966229894
sS'big data'
p47
F0.0068210102389476132
sS'communication'
p48
F0.0024273773780947947
sS'marketing'
p49
F0.0052806257706173691
sS'english'
p50
F0.010701713471451098
sS'general'
p51
F0.0071766581890878841
sS'engineering'
p52
F0.0032266675250181079
sS'information systems'
p53
F0.0097468477646763373
sS'design'
p54
F0.0042186913692681405
sS'computer science'
p55
F0.0051194826467805647
sS'management information systems'
p56
F0.015221471884257333
sS'mathematics'
p57
F0.0050182321068783751
sS'ee computer science'
p58
F0.0069965187502416841
sS'information system'
p59
F0.0085658471284100236
sS'science'
p60
F0.0045438181542037737
ssS'education'
p61
(dp62
VBachelor
p63
F0.0010524927780561756
ssS'responsibility'
p64
(dp65
S'development'
p66
F0.0042955520068723206
sS'information'
p67
F0.0019458408136013561
sS'product'
p68
F0.0053179473734281954
sS'documentation'
p69
F0.006954563510790426
sS'design'
p70
F0.0042186913692681405
sS'modeling'
p71
F0.0029896754733812559
sS'extract'
p72
F0.0073139757754878297
sS'transformation'
p73
F0.01501417648392636
ss.