(dp1
S'skills'
p2
(dp3
S'data science'
p4
F0.0054674587530027232
sS'engineering'
p5
F0.033405130283826946
sS'statistical analysis'
p6
F0.011703182515511853
sS'problem solving'
p7
F0.011157326658878414
sS'research'
p8
F0.011634004659023704
sS'optimization'
p9
F0.0090909493517660998
sS'matlab'
p10
F0.005801823580173021
sS'innovation'
p11
F0.0087992030551578351
sS'algorithm development'
p12
F0.019131467033416616
sS'data management'
p13
F0.012499627748223958
sS'data analysis'
p14
F0.0067443727952984775
sS'signal processing'
p15
F0.014243954598003181
sS'python'
p16
F0.0023693250579693908
sS'collaboration'
p17
F0.023251540182485944
sS'processing'
p18
F0.0074231276666850907
sS'data scientist'
p19
F0.0048153257507449008
sS'sql'
p20
F0.0030997448128774864
sS'translation'
p21
F0.023128015974650876
sS'manufacturing'
p22
F0.016966629872871859
sS'data'
p23
F0.0032345860329401704
sS'science'
p24
F0.00958682574810126
sS'analysis'
p25
F0.0015573578261551359
sS'machine learning'
p26
F0.0029796260083365424
sS'exploratory data analysis'
p27
F0.020298360132403846
sS'r'
F0.0025226923027906415
sS'algorithms'
p28
F0.0081553258107511534
ssS'working-year'
p29
(dp30
V(2, 5]
p31
F0.0056315655837778887
ssS'major'
p32
(dp33
VData Science
p34
F0.0046694953754775571
sVManagement Science and Engineering
p35
F0.0058615660839495109
sVEngineering
p36
F0.033405130283826946
sVBusiness
p37
F0.004916883396245973
sVComputer Science
p38
F0.0041152533925099891
ssS'education'
p39
(dp40
VBachelor
p41
F0.0041426310348632121
ssS'responsibility'
p42
(dp43
S'development'
p44
F0.0055043681927914477
sS'data analysis'
p45
F0.0067443727952984775
sS'pattern'
p46
F0.011902686707155209
sS'processing'
p47
F0.0074231276666850907
sS'analysis'
p48
F0.0015573578261551359
sS'analytic'
p49
F0.010262390783180194
sS'drive ... decision'
p50
F0.018345830630586882
sS'optimization'
p51
F0.0090909493517660998
sS'report'
p52
F0.0094330746371474039
sS'model'
p53
F0.0070336856450074576
sS'extract'
p54
F0.01406231150319468
ss.