(dp1
S'skills'
p2
(dp3
S'customer insight'
p4
F0.013089116912925971
sS'communication'
p5
F0.0048863251824409143
sS'testing'
p6
F0.012638135894444524
sS'analytics'
p7
F0.016106249295991235
sS'marketing strategy'
p8
F0.011508518595954711
sS'personalization'
p9
F0.013659857370226059
sS'digital analytics'
p10
F0.016266926058621563
sS'web analytics'
p11
F0.011784717714285565
sS'excel'
p12
F0.0049905994654508195
sS'strategy'
p13
F0.0048611463926754158
sS'html'
p14
F0.0079014959668169578
sS'intelligence'
p15
F0.0048458599070579601
sS'mathematics'
p16
F0.0056416459323327334
sS'css'
p17
F0.0094854956598239802
sS'marketing'
p18
F0.023521166944167268
sS'javascript'
p19
F0.013687929716184839
sS'data scientist'
p20
F0.0032696656332218462
sS'performance measurement'
p21
F0.016687085070966681
sS'management'
p22
F0.0027964471209865806
sS'sql'
p23
F0.0021047649963982932
sS'data'
p24
F0.00073210794984242538
sS'a'
F0.0057717342395494642
sS'data collection'
p25
F0.022378700907168168
sS'data visualization'
p26
F0.0060701655110481506
sS'economics'
p27
F0.0073965797048131518
sS'google analytics'
p28
F0.011905241398270922
sS'mobile applications'
p29
F0.014515772147105107
sS'dashboard'
p30
F0.01082222521333193
sS'google adwords'
p31
F0.01584778780751089
ssS'working-year'
p32
(dp33
V(5, 10]
p34
F0.003721124264126107
ssS'major'
p35
(dp36
VMathematics
p37
F0.0052909645974767031
sVData Science
p38
F0.0031706450080403164
sVEconomics
p39
F0.0050641097145816688
sVBusiness
p40
F0.0033386245283151669
sVManagement Science and Engineering
p41
F0.0039800757360151
ssS'education'
p42
(dp43
VBachelor
p44
F0.0028128976162651439
sVMaster
p45
F0.0022446934729141261
ssS'responsibility'
p46
(dp47
S'development'
p48
F0.007475067916136534
sS'information'
p49
F0.008562377774872806
sS'product'
p50
F0.0041512126256720572
sS'data collection'
p51
F0.022378700907168168
sS'insight'
p52
F0.005663251098794707
sS'complex data set'
p53
F0.015435656476180375
sS'recommendation'
p54
F0.016124702128507848
sS'report'
p55
F0.012810348272669313
sS'design'
p56
F0.0090149309260399851
ss.