(dp1
S'skills'
p2
(dp3
S'data collection'
p4
I1
sS'program evaluation'
p5
I1
sS'data science'
p6
I1
sS'analysis'
p7
I1
sS'research'
p8
I1
sS'leadership'
p9
I1
sS'dashboard'
p10
I1
sS'policy'
p11
I1
sS'data'
p12
I1
sS'trend analysis'
p13
I1
ssS'working-year'
p14
(dp15
V(2, 5]
p16
I1
ssS'major'
p17
(dp18
S'data science'
p19
I1
sS'statistic'
p20
I1
sS'design'
p21
I1
sS'data analyst'
p22
I1
sS'general'
p23
I1
ssS'education'
p24
(dp25
VBachelor
p26
I1
ssS'responsibility'
p27
(dp28
S'development'
p29
I1
sS'data collection'
p30
I1
sS'analysis'
p31
I1
sS'design'
p32
I1
sS'recommendation'
p33
I1
sS'implement'
p34
I1
sS'evaluation'
p35
I1
ss.