(dp1
S'skills'
p2
(dp3
S'probability'
p4
F0.012626192529614066
sS'hive'
p5
F0.0075570806140942267
sS'sas'
p6
F0.0050189741183964375
sS'machine learning'
p7
F0.0023750642095436208
sS'statistics'
p8
F0.0033786697637775529
sS'scala'
p9
F0.0088426318394878144
sS'team building'
p10
F0.014510256362563185
sS'predictive modeling'
p11
F0.0075326301039455434
sS'excel'
p12
F0.0058585298072683532
sS'hadoop'
p13
F0.0046550960195636407
sS'access'
p14
F0.0084038479170161409
sS'computer science'
p15
F0.0050941422579247123
sS'mathematics'
p16
F0.00662280174665147
sS'unstructured data'
p17
F0.011553653744395508
sS'operations research'
p18
F0.010438183027361991
sS'data analysis'
p19
F0.0053759493295857438
sS'distributed computing'
p20
F0.012961581385722147
sS'theory'
p21
F0.010617667574178752
sS'python'
p22
F0.0018885924375118333
sS'processing'
p23
F0.0059169858212707246
sS'data scientist'
p24
F0.0038383031346517328
sS'management'
p25
F0.0065655715014467549
sS'mentoring'
p26
F0.012464180077822299
sS'data processing'
p27
F0.013317821006262231
sS'sql'
p28
F0.0024708110827284316
sS'modeling'
p29
F0.0029425568442809874
sS'data'
p30
F0.0021485776788853789
sS'project management'
p31
F0.0068893236352338631
sS'word'
p32
F0.010103871959051148
sS'science'
p33
F0.0025472242325872913
sS'analysis'
p34
F0.0012413721802685867
sS'spss'
p35
F0.007994017503107121
sS'r'
F0.0020108416906302216
sS'artificial intelligence'
p36
F0.010027596232154946
sS'healthcare'
p37
F0.019545219879059161
sS'organization'
p38
F0.0063883472437742074
sS'communication skills'
p39
F0.013344658884275811
sS'statistical analysis'
p40
F0.0093286237442485789
ssS'working-year'
p41
(dp42
V(2, 5]
p43
F0.0044889290885186065
ssS'major'
p44
(dp45
VStatistics
p46
F0.0065271911952466677
sVBusiness
p47
F0.0039192548810656315
sVComputer Science
p48
F0.0032802744433050642
sVMathematics
p49
F0.0062111323535596081
sVOperations Research
p50
F0.011662061225315776
sVManagement Science and Engineering
p51
F0.0046722628205394653
ssS'education'
p52
(dp53
VBachelor
p54
F0.0033020972017025608
sVMaster
p55
F0.0026350749464644089
ssS'responsibility'
p56
(dp57
S'product'
p58
F0.004873162647528068
sS'processing'
p59
F0.0059169858212707246
sS'business problem'
p60
F0.010319386094676249
sS'pattern'
p61
F0.018975297649088015
sS'insight'
p62
F0.0066481643333676996
sS'construct'
p63
F0.019230163506245825
sS'data analysis'
p64
F0.0053759493295857438
sS'collect data'
p65
F0.019230163506245825
sS'report'
p66
F0.0075191174643928589
sS'modeling'
p67
F0.0029425568442809874
sS'model'
p68
F0.011213122042765512
sS'analysis'
p69
F0.0012413721802685867
sS'decision making'
p70
F0.011835445833077949
ss.