(dp1
S'skills'
p2
(dp3
S'science'
p4
F0.0065520234991420477
sS'data quality'
p5
F0.013174210871564843
sS'big data'
p6
F0.0098356531570539234
sS'marketing'
p7
F0.0076144737674527238
sS'data scientist'
p8
F0.0008261932793159892
sS'scientific computing'
p9
F0.036657271052998201
sS'analysis'
p10
F0.0022379910715413934
sS'machine learning'
p11
F0.0070762347991584259
sS'hardware'
p12
F0.014361086537605183
sS'engineering'
p13
F0.0046527393329502181
sS'statistical analysis'
p14
F0.0081784772027721966
sS'data mining'
p15
F0.019810592627522775
sS'organization'
p16
F0.0047833143022995468
sS'modeling'
p17
F0.0043110052584917208
sS'education'
p18
F0.0066395413398400759
sS'data'
p19
F0.0091977771733239826
sS'research'
p20
F0.0085130213855621473
sS'data analytics'
p21
F0.013656550130239312
sS'computer science'
p22
F0.0073821111379916166
ssS'working-year'
p23
(dp24
V(5, 10]
p25
F0.0053959350728989214
ssS'major'
p26
(dp27
S'business'
p28
F0.0017585073162865921
sS'big data'
p29
F0.0098356531570539234
sS'marketing'
p30
F0.0076144737674527238
sS'scientific computing'
p31
F0.036657271052998201
sS'machine learning'
p32
F0.0070762347991584259
sS'engineering'
p33
F0.0046527393329502181
sS'design'
p34
F0.0060832022869357558
sS'computer science'
p35
F0.0073821111379916166
sS'data mining'
p36
F0.019810592627522775
sS'phd'
p37
F0.0075205025880315688
sS'data analytics'
p38
F0.013656550130239312
sS'science'
p39
F0.0065520234991420477
ssS'education'
p40
(dp41
VBachelor
p42
F0.0015176569969292174
sVMaster
p43
F0.0043062400843924377
sVDoctor
p44
F0.0056815386490240722
ssS'responsibility'
p45
(dp46
S'formulate'
p47
F0.016649046499847157
sS'complex data set'
p48
F0.01743280055654009
sVinsight
p49
F0.013942784992969392
sS'analysis'
p50
F0.0022379910715413934
sS'design'
p51
F0.0060832022869357558
sS'data mining'
p52
F0.019810592627522775
sS'report'
p53
F0.0056945220389932553
sS'modeling'
p54
F0.0043110052584917208
sS'implement'
p55
F0.023767165606644668
ss.