(dp1
S'skills'
p2
(dp3
S'supply chain optimization'
p4
I1
sS'supply chain'
p5
I1
sS'communication'
p6
I1
sS'forecasting'
p7
I1
sS'troubleshooting'
p8
I1
sS'problem solving'
p9
I1
sS'data mining'
p10
I1
sS'modeling'
p11
I1
sS'machine learning'
p12
I1
sS'regression'
p13
I1
sS'clustering'
p14
I1
sS'management'
p15
I1
sS'big data'
p16
I1
sS'critical thinking'
p17
I1
sS'deep learning'
p18
I1
sS'predictive modeling'
p19
I1
sS'hadoop'
p20
I1
sS'demand forecasting'
p21
I1
sS'econometrics'
p22
I1
sS'pricing'
p23
I1
sS'r'
I1
sS'advanced analytics'
p24
I1
sS'unstructured data'
p25
I1
sS'operations research'
p26
I1
sS'data analysis'
p27
I1
sS'python'
p28
I1
sS'data scientist'
p29
I1
sS'data quality'
p30
I1
sS'leadership'
p31
I1
sS'sql'
p32
I1
sS'performance improvement'
p33
I1
sS'spark'
p34
I1
sS'mathematical analysis'
p35
I1
sS'data'
p36
I1
sS'data visualization'
p37
I1
sS'analysis'
p38
I1
sS'simulation'
p39
I1
sS'organizational leadership'
p40
I1
sS'optimization'
p41
I1
sS'predictive analytics'
p42
I1
sS'communication skills'
p43
I1
sS'data analytics'
p44
I1
sS'statistical analysis'
p45
I1
ssS'working-year'
p46
(dp47
V(2, 5]
p48
I1
ssS'major'
p49
(dp50
S'econometrics'
p51
I1
sS'management'
p52
I1
sS'business'
p53
I1
sS'big data'
p54
I1
sS'predictive analytics'
p55
I1
sS'communication'
p56
I1
sS'data mining'
p57
I1
sS'machine learning'
p58
I1
sS'operations research'
p59
I1
sS'statistic'
p60
I1
sS'advanced analytics'
p61
I1
sS'phd'
p62
I1
sVphysic
p63
I1
sS'data analytics'
p64
I1
sS'statistics operations research'
p65
I1
sS'data mining machine learning'
p66
I1
ssS'education'
p67
(dp68
VDoctor
p69
I1
ssS'responsibility'
p70
(dp71
S'development'
p72
I1
sS'large data set'
p73
I1
sS'forecasting'
p74
I1
sS'data analysis'
p75
I1
sS'business problem'
p76
I1
sS'predict'
p77
I1
sS'pattern'
p78
I1
sVinsight
p79
I1
sS'communicate'
p80
I1
sS'analysis'
p81
I1
sS'improvement'
p82
I1
sS'analytic'
p83
I1
sS'optimization'
p84
I1
sS'understand'
p85
I1
sS'data mining'
p86
I1
sS'report'
p87
I1
sS'analytical method'
p88
I1
sS'modeling'
p89
I1
sS'simulation'
p90
I1
sS'presentation'
p91
I1
sS'model'
p92
I1
ss.