(dp1
S'skills'
p2
(dp3
S'debugging'
p4
F0.013908299060707627
sS'nosql'
p5
F0.0086609077983117785
sS'scalding'
p6
F0.018596890853441728
sS'communication'
p7
F0.0050100296174394191
sS'testing'
p8
F0.0064790443509494082
sS'hadoop'
p9
F0.0081316867177187654
sS'analytics'
p10
F0.002752333740454198
sS'engineering'
p11
F0.0038761227122584008
sS'analysis'
p12
F0.0010842364612472467
sS'visualization'
p13
F0.011862628303379552
sS'java'
p14
F0.0039217309103426693
sS'classification'
p15
F0.0099853224729686049
sS'big data'
p16
F0.0040276111593755305
sS'scala'
p17
F0.015446622706953397
sS'deep learning'
p18
F0.0098561445661185139
sS'scientific computing'
p19
F0.010215564128639928
sS'computer science'
p20
F0.0044493141240101921
sS'text mining'
p21
F0.010399952308387989
sS'distributed computing'
p22
F0.011320874881200356
sS'hdfs'
p23
F0.012625201153030848
sS'data scientist'
p24
F0.0033524419783667035
sS'performance tuning'
p25
F0.015191403475999246
sS'spark'
p26
F0.010671744451364927
sS'pig'
p27
F0.0085399625794806682
sS'data'
p28
F0.0037532116415972443
sS'pattern recognition'
p29
F0.010105549711650921
sS'science'
p30
F0.0022247907854243431
sS'documentation'
p31
F0.009175446072607691
sS'programming'
p32
F0.0069766787014865564
sS'hive'
p33
F0.0066004881312974892
sS'machine learning'
p34
F0.002074423170360884
sS'data architecture'
p35
F0.012840106186124377
sS'architecture'
p36
F0.0069209320338122094
sS'clojure'
p37
F0.016565715656142916
ssS'working-year'
p38
(dp39
V(5, 10]
p40
F0.0038153299416989199
ssS'major'
p41
(dp42
VData Science
p43
F0.0032509145019147551
sVEngineering
p44
F0.0071277814138187576
sVBusiness
p45
F0.003423146668272513
sVComputer Science
p46
F0.0028650498302284738
ssS'education'
p47
(dp48
VMaster
p49
F0.0023015211557727115
ssS'responsibility'
p50
(dp51
S'development'
p52
F0.003832155070930755
sS'product'
p53
F0.0042563066161954008
sS'insight'
p54
F0.011613249088667628
sS'pattern'
p55
F0.0082866806189055252
sS'documentation'
p56
F0.009175446072607691
sS'communicate'
p57
F0.0063488698806379498
sS'analysis'
p58
F0.0010842364612472467
sS'drive ... decision'
p59
F0.012772413730155424
sS'design'
p60
F0.009243157025433402
sS'understand'
p61
F0.0066508854855831497
sS'presentation'
p62
F0.0077954251338911602
ss.