(dp1
S'skills'
p2
(dp3
S'r d'
p4
F0.0036337585120767906
sS'communication'
p5
F0.0069384326825187486
sS'integration'
p6
F0.017048783464702115
sS'engineering'
p7
F0.0092231292971756539
sS'education'
p8
F0.026323137347330567
sS'data analytics'
p9
F0.027071391408615982
sS'big data'
p10
F0.019497223957345829
sS'hadoop'
p11
F0.021058428355726657
sS'information management'
p12
F0.079842017216492325
sS'oracle sql'
p13
F0.040254990210632322
sS'computer science'
p14
F0.014633565441682497
sS'toad'
p15
F0.053231352427397176
sS'informatica'
p16
F0.085153552509490221
sS'data scientist'
p17
F0.0016377636687325804
sS'etl tools'
p18
F0.056819532022747817
sS'sql'
p19
F0.016717360646879918
sS'software engineering'
p20
F0.048572904600147272
sS'sql server'
p21
F0.028928995237154365
sS'communication skills'
p22
F0.026080884412851932
sS'etl'
p23
F0.023382168903914265
sS'oracle'
p24
F0.023281611869636412
sS'data integration'
p25
F0.030939212756968548
ssS'working-year'
p26
(dp27
V(5, 10]
p28
F0.010696366870171314
ssS'major'
p29
(dp30
S'information'
p31
F0.0055620051574622829
sS'software engineering'
p32
F0.048572904600147272
sS'big data'
p33
F0.019497223957345829
sS'communication'
p34
F0.0069384326825187486
sS'information management'
p35
F0.079842017216492325
sS'engineering'
p36
F0.0092231292971756539
sS'computer science'
p37
F0.014633565441682497
sS'computer science mathematics'
p38
F0.029072112483988329
sS'ee computer science'
p39
F0.019998898728566934
sS'data analytics'
p40
F0.027071391408615982
ssS'education'
p41
(dp42
VBachelor
p43
F0.0030084528080720771
ssS'responsibility'
p44
(dp45
S'report'
p46
F0.011288256077296365
sS'information'
p47
F0.0055620051574622829
ss.