(dp1
S'skills'
p2
(dp3
S'probability'
p4
F0.013835383789463395
sS'knowledge management'
p5
F0.04085537205886304
sS'hadoop'
p6
F0.004797585492332888
sS'hardware'
p7
F0.012971303969449843
sS'thought leadership'
p8
F0.01368602874523845
sS'troubleshooting'
p9
F0.012830518320446911
sS'data mining'
p10
F0.017893438502278636
sS'visualization'
p11
F0.0066836869881790207
sS'open source'
p12
F0.010176517269506087
sS'publishing'
p13
F0.01834199150726392
sS'big data'
p14
F0.0088838157547583823
sS'time series analysis'
p15
F0.018189814406176678
sS'r programming'
p16
F0.013033178805427823
sS'integration'
p17
F0.015536391383155958
sS'computer science'
p18
F0.006667713285927912
sS'natural language processing'
p19
F0.020560343589683359
sS'mathematics'
p20
F0.0065358426230714313
sS'data modeling'
p21
F0.010818565453379598
sS'theory'
p22
F0.011852493142961754
sS'python'
p23
F0.0058589972850837347
sS'data scientist'
p24
F0.000746239090995087
sS'business process'
p25
F0.010665508528141176
sS'leadership'
p26
F0.0061448259789119849
sS'modeling'
p27
F0.003893811201218329
sS'data'
p28
F0.0041538348524688953
sS'business insights'
p29
F0.022619673132809631
sS'data visualization'
p30
F0.0069002255834033112
sS'programming'
p31
F0.0083817360524335582
sS'analysis'
p32
F0.0020214112904244842
sS'machine learning'
p33
F0.0063914378831108369
sS'r'
F0.0032138659185687178
sS'sas enterprise miner'
p34
F0.020299667905007795
sS'predictive analytics'
p35
F0.020560343589683359
ssS'working-year'
p36
(dp37
V[0]
p38
F0.0057506873885582463
ssS'major'
p39
(dp40
S'information'
p41
F0.0050686014741390161
sS'natural language processing'
p42
F0.020560343589683359
sS'business'
p43
F0.0015883291889040186
sS'big data'
p44
F0.0088838157547583823
sS'knowledge management'
p45
F0.04085537205886304
sS'statistic'
p46
F0.0071662575975358373
sS'machine learning'
p47
F0.0063914378831108369
sS'design'
p48
F0.0082417579371387665
sS'computer science'
p49
F0.006667713285927912
sS'data mining'
p50
F0.017893438502278636
sS'mathematics'
p51
F0.0065358426230714313
sS'predictive analytics'
p52
F0.020560343589683359
ssS'education'
p53
(dp54
VMaster
p55
F0.0038895071729996211
ssS'responsibility'
p56
(dp57
S'development'
p58
F0.0055946100734667725
sS'information'
p59
F0.0050686014741390161
sS'product'
p60
F0.0023087325290555203
sS'business problem'
p61
F0.0074541638052588967
sS'communicate'
p62
F0.0049794686011860002
sS'analysis'
p63
F0.0020214112904244842
sS'design'
p64
F0.0082417579371387665
sS'data mining'
p65
F0.017893438502278636
sS'modeling'
p66
F0.003893811201218329
sS'extract'
p67
F0.0095258636108168093
ss.