(dp1
S'skills'
p2
(dp3
S'consulting'
p4
F0.0089421093532175127
sS'data science'
p5
F0.008056396590075782
sS'testing'
p6
F0.007226671788042956
sS'data mining'
p7
F0.019210271638809968
sS'visualization'
p8
F0.0071755600565731482
sS'big data'
p9
F0.0095376030613856227
sS'hadoop'
p10
F0.0051506545545392047
sS'big data analytics'
p11
F0.028537466444332662
sS'r'
F0.0034503841896322165
sS'statistical software'
p12
F0.014513366017614876
sS'computer science'
p13
F0.0071584108004767192
sS'advanced analytics'
p14
F0.018884777767044718
sS'artificial intelligence'
p15
F0.02892664185775963
sS'signal processing'
p16
F0.018405047759941388
sS'python'
p17
F0.00314508945173326
sS'processing'
p18
F0.0068982488684845838
sS'data scientist'
p19
F0.00080115711933671687
sS'business analytics'
p20
F0.026548672034690541
sS'scripting'
p21
F0.0091850245843408344
sS'information technology'
p22
F0.021961444426874671
sS'analysis'
p23
F0.0021701731602825633
sS'machine learning'
p24
F0.0068618034416081716
sS'optimization'
p25
F0.0083338400922143216
sS'operations research'
p26
F0.022925674060282165
sS'data analytics'
p27
F0.013242715277807819
ssS'working-year'
p28
(dp29
V(5, 10]
p30
F0.0052324218888716812
ssS'major'
p31
(dp32
S'computer science operations research'
p33
F0.024050268048158213
sS'information'
p34
F0.002720807717719645
sS'business'
p35
F0.003410438431586118
sS'big data'
p36
F0.0095376030613856227
sS'statistics computer science'
p37
F0.015435503808761146
sS'engineering science'
p38
F0.0197758951350731
sS'data science'
p39
F0.008056396590075782
sS'data mining'
p40
F0.019210271638809968
sS'machine learning'
p41
F0.0068618034416081716
sS'big data analytics'
p42
F0.028537466444332662
sS'mathematics statistics'
p43
F0.014413847816669809
sS'operations research'
p44
F0.022925674060282165
sS'computer science'
p45
F0.0071584108004767192
sS'statistic'
p46
F0.0038468222601491073
sS'advanced analytics'
p47
F0.018884777767044718
sS'information technology'
p48
F0.021961444426874671
sS'business analytics'
p49
F0.026548672034690541
sS'data analytics'
p50
F0.013242715277807819
sS'artificial intelligence'
p51
F0.02892664185775963
ssS'education'
p52
(dp53
VMaster
p54
F0.0041757479606229697
sVDoctor
p55
F0.0055093708111748577
ssS'responsibility'
p56
(dp57
S'information'
p58
F0.002720807717719645
sS'processing'
p59
F0.0068982488684845838
sS'business problem'
p60
F0.0080027386307541405
sVinsight
p61
F0.009013517571212536
sS'analysis'
p62
F0.0021701731602825633
sS'statistical method'
p63
F0.010838427407164617
sS'optimization'
p64
F0.0083338400922143216
sS'data mining'
p65
F0.019210271638809968
ss.