(dp1
S'skills'
p2
(dp3
S'science'
p4
I1
sS'data quality'
p5
I1
sS'marketing'
p6
I1
sS'data scientist'
p7
I1
sS'scientific computing'
p8
I1
sS'analysis'
p9
I1
sS'machine learning'
p10
I1
sS'hardware'
p11
I1
sS'statistical analysis'
p12
I1
sS'data mining'
p13
I1
sS'organization'
p14
I1
sS'modeling'
p15
I1
sS'education'
p16
I1
sS'data'
p17
I1
sS'research'
p18
I1
sS'data analytics'
p19
I1
sS'computer science'
p20
I1
ssS'working-year'
p21
(dp22
V(5, 10]
p23
I1
sV(0, 2]
p24
I1
ssS'major'
p25
(dp26
S'business'
p27
I1
sS'marketing'
p28
I1
sS'scientific computing'
p29
I1
sS'machine learning'
p30
I1
sS'design'
p31
I1
sS'computer science'
p32
I1
sS'data mining'
p33
I1
sS'phd'
p34
I1
sS'data analytics'
p35
I1
sS'science'
p36
I1
ssS'education'
p37
(dp38
VBachelor
p39
I1
sVMaster
p40
I1
sVDoctor
p41
I1
ssS'responsibility'
p42
(dp43
S'formulate'
p44
I1
sS'complex data set'
p45
I1
sVinsight
p46
I1
sS'analysis'
p47
I1
sS'design'
p48
I1
sS'data mining'
p49
I1
sS'report'
p50
I1
sS'modeling'
p51
I1
sS'implement'
p52
I1
ss.