(dp1
S'skills'
p2
(dp3
S'ip'
p4
I1
sS'database administration'
p5
I1
sS'engineering'
p6
I1
sS'writing'
p7
I1
sS'strategy'
p8
I1
sS'microsoft sql server'
p9
I1
sS'education'
p10
I1
sS'research'
p11
I1
sS'computer science'
p12
I1
sS'communication'
p13
I1
sS'gps'
p14
I1
sS'collaboration'
p15
I1
sS'javascript'
p16
I1
sS'automation'
p17
I1
sS'process automation'
p18
I1
sS'construction'
p19
I1
sS'sql'
p20
I1
sS'data'
p21
I1
sS'hardware'
p22
I1
sS'postgresql'
p23
I1
sS'sql server'
p24
I1
sS'science'
p25
I1
sS'arcgis'
p26
I1
sS'security'
p27
I1
sS'scripting'
p28
I1
ssS'working-year'
p29
(dp30
V(5, 10]
p31
I1
sV(0, 2]
p32
I1
sV(2, 5]
p33
I1
ssS'major'
p34
(dp35
S'information'
p36
I1
sS'computational science engineering'
p37
I1
sS'computing'
p38
I1
sS'communication'
p39
I1
sS'general'
p40
I1
sS'engineering'
p41
I1
sS'information science'
p42
I1
sS'design'
p43
I1
sS'computer science'
p44
I1
sS'phd'
p45
I1
sS'computational science'
p46
I1
sS'automation'
p47
I1
sS'science'
p48
I1
ssS'education'
p49
(dp50
VBachelor
p51
I1
sVMaster
p52
I1
sVDoctor
p53
I1
ssS'responsibility'
p54
(dp55
S'development'
p56
I1
sS'information'
p57
I1
sS'report'
p58
I1
sS'design'
p59
I1
sS'interface'
p60
I1
sS'implement'
p61
I1
ss.