(dp1
S'skills'
p2
(dp3
S'search'
p4
F0.0059323332486512755
sS'management'
p5
F0.0020040800214334718
sS'r d'
p6
F0.00096615226321100547
sS'big data'
p7
F0.005183967781600185
sS'user experience'
p8
F0.0066191333994968897
sS'recruiting'
p9
F0.032626608763469234
sS'energy'
p10
F0.006413084702645639
sS'lead generation'
p11
F0.012836538511725899
sS'data scientist'
p12
F0.00043545245780419193
sS'time management'
p13
F0.0097794288868998484
sS'data architecture'
p14
F0.0078612403166382037
sS'data engineering'
p15
F0.0079021606280661842
sS'engineering'
p16
F0.0024522673190137617
sS'architecture'
p17
F0.004222527411168347
sS'innovation'
p18
F0.002937129693870577
sS'communication'
p19
F0.0018448068073520436
sS'internet things'
p20
F0.011320413451261641
sS'strategy'
p21
F0.0066089381463825684
sS'software engineering'
p22
F0.012914678164274451
sS'account management'
p23
F0.011320413451261641
ssS'working-year'
p24
(dp25
V(5, 10]
p26
F0.002843975191363196
ssS'major'
p27
(dp28
S'information'
p29
F0.002957678036674061
sS'management'
p30
F0.0020040800214334718
sS'business'
p31
F0.0064878575810291212
sS'software engineering'
p32
F0.012914678164274451
sS'communication'
p33
F0.0018448068073520436
sS'engineering'
p34
F0.0024522673190137617
sS'big data'
p35
F0.005183967781600185
ssS'education'
p36
(dp37
VBachelor
p38
F0.00079989451132269338
ssS'responsibility'
p39
(dp40
S'report'
p41
F0.0030013480864340921
sS'information'
p42
F0.002957678036674061
sS'product'
p43
F0.0026944266692036189
sS'decision-making'
p44
F0.0069898099185246977
ss.