(dp1
S'operations'
p2
F0.0077229999999999998
sS''
F0.0055830000000000003
sS'concept'
p3
F0.0053249999999999999
sS'brown university'
p4
F0.060668
sS'help'
p5
F0.002712
sS'office'
p6
F0.0052909999999999997
sS'certification'
p7
F0.0090969999999999992
sS'institutional'
p8
F0.028240000000000001
sS'global'
p9
F0.0047099999999999998
sS'research assistant'
p10
F0.020223000000000001
sS'develop long-term'
p11
F0.023224000000000002
sS'exceptional communication skill'
p12
F0.014024
sS'eeo statement'
p13
F0.012083
sS'including'
p14
F0.0069350000000000002
sS'scheduled weekly'
p15
F0.020223000000000001
sS'questions'
p16
F0.019435999999999998
sS'day-to-day'
p17
F0.010991000000000001
sS'responsive'
p18
F0.011736
sS'fostering growth'
p19
F0.019435999999999998
sS'biomedical data scientist'
p20
F0.020223000000000001
sS'still'
p21
F0.012763
sS'coordination'
p22
F0.011251000000000001
sS'staff'
p23
F0.039267999999999997
sS'best practice'
p24
F0.0056969999999999998
sS'eg advance-ri'
p25
F0.023224000000000002
sS'position'
p26
F0.010742
sS'title'
p27
F0.011464
sS'implementation'
p28
F0.0093200000000000002
sS'please note'
p29
F0.011428000000000001
sS'operational'
p30
F0.011735000000000001
sS'environment'
p31
F0.006326
sS'grade'
p32
F0.031297999999999999
sS'foster'
p33
F0.0093240000000000007
sS'biomedical'
p34
F0.015824999999999999
sS'policy'
p35
F0.014315
sS'suite'
p36
F0.0096460000000000001
sS'include'
p37
F0.005104
sS'fostering'
p38
F0.013842
sS'achieve'
p39
F0.0064720000000000003
sS'brown'
p40
F0.020223000000000001
sS'within'
p41
F0.0098410000000000008
sS'government'
p42
F0.0070530000000000002
sS'public health'
p43
F0.029557
sS'practice'
p44
F0.005437
sS'expectation'
p45
F0.0098829999999999994
sS'joint'
p46
F0.016014
sS'appropriation'
p47
F0.023224000000000002
sS'bcbi research'
p48
F0.023224000000000002
sS'community'
p49
F0.0049370000000000004
sS'support precollege undergraduate'
p50
F0.023224000000000002
sS'leadership skill'
p51
F0.0094800000000000006
sS'formal'
p52
F0.011539000000000001
sS'must submit'
p53
F0.016435000000000002
sS'resource'
p54
F0.0058580000000000004
sS'gender'
p55
F0.010381
sS'cover letter'
p56
F0.011022000000000001
sS'summary'
p57
F0.0085129999999999997
sS'affiliate'
p58
F0.035084999999999998
sS'exceptionally strong problem-solving skill'
p59
F0.023224000000000002
sS'guiding'
p60
F0.013589
sS'activity'
p61
F0.011323
sS'biological'
p62
F0.028858999999999999
sS'375'
p63
F0.018827
sS'vision'
p64
F0.0059500000000000004
sS'status'
p65
F0.0061749999999999999
sS'dean'
p66
F0.023224000000000002
sS'eg'
p67
F0.0054169999999999999
sS'committed'
p68
F0.0044400000000000004
sS'prioritization'
p69
F0.011904
sS'process improvement'
p70
F0.0096080000000000002
sS'legally protected'
p71
F0.011391999999999999
sS'extramurally funded research'
p72
F0.023224000000000002
sS'bcbi faculty'
p73
F0.092896999999999993
sS'skill'
p74
F0.0025209999999999998
sS'lead'
p75
F0.0033019999999999998
sS'federal'
p76
F0.010381
sS'please'
p77
F0.0082050000000000005
sS'adhere'
p78
F0.012763
sS'may'
p79
F0.010722000000000001
sS'state'
p80
F0.0070309999999999999
sS'investigation'
p81
F0.010406
sS'medicine'
p82
F0.014024
sS'international'
p83
F0.009946
sS'senior leadership'
p84
F0.010753
sS'across'
p85
F0.0030539999999999999
sS'minimal'
p86
F0.011904
sS'programming language'
p87
F0.0059350000000000002
sS'sciences'
p88
F0.013145
sS'discipline'
p89
F0.0067080000000000004
sS'worker sub-type'
p90
F0.020223000000000001
sS'stakeholder'
p91
F0.0056259999999999999
sS'ability'
p92
F0.0062059999999999997
sS'business'
p93
F0.001877
sS'resume'
p94
F0.0079179999999999997
sS'team'
p95
F0.0041770000000000002
sS'sex sexual orientation gender identity national origin age race'
p96
F0.020223000000000001
sS'standard'
p97
F0.005012
sS'hours'
p98
F0.012947999999999999
sS'implementing'
p99
F0.0066189999999999999
sS'task'
p100
F0.017024000000000001
sS'statewide healthcare'
p101
F0.023224000000000002
sS'major statewide initiative'
p102
F0.046448000000000003
sS'submission guidelines'
p103
F0.018827
sS'strong'
p104
F0.002771
sS'advance'
p105
F0.0079179999999999997
sS'training'
p106
F0.005437
sS'working'
p107
F0.0029629999999999999
sS'oversee'
p108
F0.020663999999999998
sS'new england'
p109
F0.021329999999999998
sS'basis'
p110
F0.0083429999999999997
sS'experience'
p111
F0.001021
sS'range'
p112
F0.015542
sS'bachelors degree'
p113
F0.0062009999999999999
sS'ensure'
p114
F0.0091640000000000003
sS'worker type'
p115
F0.020223000000000001
sS'context'
p116
F0.027623999999999999
sS'improvement'
p117
F0.0063449999999999999
sS'department'
p118
F0.0062890000000000003
sS'bcbi resource'
p119
F0.023224000000000002
sS'major'
p120
F0.0070229999999999997
sS'graduate'
p121
F0.023390999999999999
sS'researcher'
p122
F0.0088170000000000002
sS'overall project timeline'
p123
F0.018329000000000002
sS'data science'
p124
F0.0032399999999999998
sS'manage'
p125
F0.0045909999999999996
sS'demonstrable'
p126
F0.013842
sS'qualified'
p127
F0.011656
sS'initiative'
p128
F0.0051700000000000001
sS'e-verify employer brown university'
p129
F0.020223000000000001
sS'auditing'
p130
F0.018329000000000002
sS'research'
p131
F0.016126999999999999
sS'use'
p132
F0.0029550000000000002
sS'done'
p133
F0.011320999999999999
sS'additional'
p134
F0.0074219999999999998
sS'service'
p135
F0.005836
sS'affiliate lifespan care'
p136
F0.023224000000000002
sS'leading'
p137
F0.0078300000000000002
sS'support'
p138
F0.0056109999999999997
sS'eeo aa employer brown considers applicant'
p139
F0.020223000000000001
sS'question'
p140
F0.0061060000000000003
sS'bcbi senior leadership'
p141
F0.023224000000000002
sS'guideline'
p142
F0.010534999999999999
sS'process'
p143
F0.0027650000000000001
sS'approach'
p144
F0.0044879999999999998
sS'leadership'
p145
F0.0046629999999999996
sS'affiliated hospital'
p146
F0.023224000000000002
sS'clinical'
p147
F0.017308
sS'start date'
p148
F0.015649
sS'type'
p149
F0.014548999999999999
sS'national'
p150
F0.0097219999999999997
sS'define'
p151
F0.0055319999999999996
sS'function'
p152
F0.011511
sS'accountability'
p153
F0.010331999999999999
sS'bcbi partner'
p154
F0.023224000000000002
sS'relationship'
p155
F0.0057010000000000003
sS'recruiting'
p156
F0.01001
sS'serve'
p157
F0.013339
sS'eg rhode island quality'
p158
F0.023224000000000002
sS'job description'
p159
F0.0055279999999999999
sS'employee'
p160
F0.0048970000000000003
sS'ensuring'
p161
F0.0075680000000000001
sS'proficiency'
p162
F0.0052830000000000004
sS'believe'
p163
F0.0056569999999999997
sS'analyst'
p164
F0.0055570000000000003
sS'project management'
p165
F0.012862
sS'especially'
p166
F0.0094269999999999996
sS'job posting'
p167
F0.011819
sS'10 year'
p168
F0.0088880000000000001
sS'12'
p169
F0.013931000000000001
sS'operating system'
p170
F0.0097619999999999998
sS'employment without regard'
p171
F0.0056129999999999999
sS'developing'
p172
F0.0073920000000000001
sS'bcbi'
p173
F0.069672999999999999
sS'work'
p174
F0.001903
sS'project involving'
p175
F0.015327
sS'project'
p176
F0.0066369999999999997
sS'institute'
p177
F0.013214
sS'proven track-record'
p178
F0.020223000000000001
sS'full time'
p179
F0.0085889999999999994
sS'least 10 year'
p180
F0.014657
sS'fixed term fixed term'
p181
F0.020223000000000001
sS'meet'
p182
F0.020723999999999999
sS'bcbi commitment'
p183
F0.023224000000000002
sS'medical'
p184
F0.026409999999999999
sS'procedure'
p185
F0.013468000000000001
sS'2017-03-08-08 00'
p186
F0.023224000000000002
sS'applicant'
p187
F0.0069030000000000003
sS'inclusive'
p188
F0.011428000000000001
sS'resident'
p189
F0.016933
sS'dissemination'
p190
F0.014024
sS'fellow'
p191
F0.016673
sS'health care'
p192
F0.0079690000000000004
sS'diverse'
p193
F0.0053369999999999997
sS'file'
p194
F0.010959999999999999
sS'appropriately prioritized relative'
p195
F0.023224000000000002
sS'need'
p196
F0.0088170000000000002
sS'partner'
p197
F0.017328
sS'education'
p198
F0.0044650000000000002
sS'biomedical research'
p199
F0.063300999999999996
sS'operation'
p200
F0.0050369999999999998
sS'criminal background'
p201
F0.023224000000000002
sS'bcbi initiative'
p202
F0.023224000000000002
sS'information'
p203
F0.003156
sS'educational'
p204
F0.011464
sS'develop'
p205
F0.0063940000000000004
sS'goal'
p206
F0.0048929999999999998
sS'academic'
p207
F0.008149
sS'general'
p208
F0.007809
sS'assistant director'
p209
F0.042660999999999998
sS'comfort'
p210
F0.011086
sS'liaison'
p211
F0.024167000000000001
sS'multi-stakeholder group'
p212
F0.023224000000000002
sS'check'
p213
F0.01026
sS'application'
p214
F0.0089449999999999998
sS'recommended'
p215
F0.015327
sS'technical'
p216
F0.018185
sS'role'
p217
F0.0028410000000000002
sS'objective'
p218
F0.006391
sS'across multiple'
p219
F0.0088880000000000001
sS'development'
p220
F0.001833
sS'ideally'
p221
F0.040216000000000002
sS'complex multi-stakeholder project'
p222
F0.023224000000000002
sS'regional'
p223
F0.012274999999999999
sS'track'
p224
F0.0088599999999999998
sS'time'
p225
F0.0041460000000000004
sS'qualifications'
p226
F0.0032929999999999999
sS'outreach'
p227
F0.015649
sS'allocation'
p228
F0.014657
sS'applications'
p229
F0.011539000000000001
sS'fast-paced environment'
p230
F0.010307999999999999
sS'plan'
p231
F0.0051960000000000001
sS'student'
p232
F0.040945000000000002
sS'organization'
p233
F0.0061349999999999998
sS'discriminate'
p234
F0.0099039999999999996
sS'appropriately resourced'
p235
F0.023224000000000002
sS'future'
p236
F0.0041609999999999998
sS'meaningful'
p237
F0.0079889999999999996
sS'doe'
p238
F0.0094269999999999996
sS'assigned project'
p239
F0.012763
sS'bcbi collaborator'
p240
F0.023224000000000002
sS'providence va'
p241
F0.023224000000000002
sS'kept'
p242
F0.015179
sS'center'
p243
F0.0072430000000000003
sS'work closely'
p244
F0.0055409999999999999
sS'multiple competing priority'
p245
F0.021329999999999998
sS'considered'
p246
F0.0068820000000000001
sS'prioritize'
p247
F0.0079179999999999997
sS'coursework'
p248
F0.011736
sS'required'
p249
F0.002647
sS'well'
p250
F0.0064580000000000002
sS'convey technical concept'
p251
F0.019435999999999998
sS'clinician'
p252
F0.013842
sS'provide'
p253
F0.0027780000000000001
sS'research opearations'
p254
F0.023224000000000002
sS'contact'
p255
F0.0094090000000000007
sS'protected veteran status disability'
p256
F0.019435999999999998
sS'employment brownedu'
p257
F0.020223000000000001
sS'form'
p258
F0.0088030000000000001
sS'healthcare'
p259
F0.025087999999999999
sS'biomedical informatics'
p260
F0.033345
sS'management'
p261
F0.0061789999999999996
sS'model'
p262
F0.0054429999999999999
sS'order'
p263
F0.006019
s.