(dp1
S''
F0.012236
sS'perform pre-employment drug testing'
p2
F0.020084999999999999
sS'communicate effectively'
p3
F0.012043999999999999
sS'help'
p4
F0.0059439999999999996
sS'intelligence ihs markit serf'
p5
F0.020084999999999999
sS'law poster supplement right'
p6
F0.020084999999999999
sS'global'
p7
F0.0051609999999999998
sS'bring'
p8
F0.0053509999999999999
sS'ihs markit endeavor'
p9
F0.020084999999999999
sS'including'
p10
F0.0025330000000000001
sS'committed'
p11
F0.0048650000000000004
sS'140 country'
p12
F0.019623000000000002
sS'redshift ec2 machine learning'
p13
F0.020084999999999999
sS'skill'
p14
F0.0055259999999999997
sS'tableau arcgis'
p15
F0.020084999999999999
sS'd3'
p16
F0.013561999999999999
sS'make'
p17
F0.0075859999999999999
sS'discipline'
p18
F0.0073509999999999999
sS'unparalleled information'
p19
F0.020084999999999999
sS'accepted'
p20
F0.014558
sS'group'
p21
F0.015945000000000001
sS'knowledge'
p22
F0.0027520000000000001
sS'trade aerospace'
p23
F0.020084999999999999
sS'application'
p24
F0.0065339999999999999
sS'share knowledge'
p25
F0.015266
sS'please refer'
p26
F0.018270000000000002
sS'need assistance completing'
p27
F0.020084999999999999
sS'technology maritime'
p28
F0.020084999999999999
sS'source'
p29
F0.0067660000000000003
sS'turn data'
p30
F0.013344
sS'ihs markit harness deep'
p31
F0.020084999999999999
sS'presentation'
p32
F0.0057260000000000002
sS'smart'
p33
F0.010038
sS'law supplement right'
p34
F0.020084999999999999
sS'colleague'
p35
F0.0086879999999999995
sS'insight'
p36
F0.0039760000000000004
sS'risk'
p37
F0.01371
sS'government'
p38
F0.0077279999999999996
sS'automotive'
p39
F0.012219000000000001
sS'preferred'
p40
F0.0043059999999999999
sS'decision maker apply higher-level thinking'
p41
F0.020084999999999999
sS'business line'
p42
F0.015368
sS'develop new'
p43
F0.0097870000000000006
sS'every'
p44
F0.016548
sS'contact information'
p45
F0.016334000000000001
sS'report'
p46
F0.0041700000000000001
sS'world'
p47
F0.004535
sS'unique'
p48
F0.0077770000000000001
sS'realize'
p49
F0.0094979999999999995
sS'unfortunately'
p50
F0.019623000000000002
sS'shoulder'
p51
F0.018554999999999999
sS'regarding'
p52
F0.010428
sS'fortune'
p53
F0.012563
sS'redshift ec2'
p54
F0.022159999999999999
sS'performing'
p55
F0.0091940000000000008
sS'solution'
p56
F0.0021289999999999998
sS'road every vessel'
p57
F0.020084999999999999
sS'email'
p58
F0.017600999999999999
sS'capability'
p59
F0.0052119999999999996
sS'eeo'
p60
F0.040032999999999999
sS'join u'
p61
F0.0085050000000000004
sS'team'
p62
F0.0011440000000000001
sS'analytical'
p63
F0.0040790000000000002
sS'forge solution'
p64
F0.020084999999999999
sS'passionate'
p65
F0.0061089999999999998
sS'process please contactaccommodation ihscom'
p66
F0.020084999999999999
sS'vision'
p67
F0.0065199999999999998
sS'global team'
p68
F0.011166000000000001
sS'system'
p69
F0.0027520000000000001
sS'status'
p70
F0.0067660000000000003
sS'requirement'
p71
F0.0037820000000000002
sS'analytics team'
p72
F0.0092339999999999992
sS'challenged'
p73
F0.014187999999999999
sS'f disability'
p74
F0.020084999999999999
sS'energy'
p75
F0.0095119999999999996
sS'would like'
p76
F0.013450999999999999
sS'one else'
p77
F0.018270000000000002
sS'analytics'
p78
F0.0082380000000000005
sS'see'
p79
F0.0079799999999999992
sS'individual'
p80
F0.0047619999999999997
sS'perspective'
p81
F0.0085679999999999992
sS'year'
p82
F0.012050999999999999
sS'happen'
p83
F0.014481000000000001
sS'novel analytic solution'
p84
F0.018270000000000002
sS'creative problem solving'
p85
F0.018870999999999999
sS'similarly quantitative discipline'
p86
F0.020084999999999999
sS'large'
p87
F0.0062129999999999998
sS'educate'
p88
F0.013797
sS'degree'
p89
F0.0067780000000000002
sS'expert'
p90
F0.0056860000000000001
sS'managing'
p91
F0.006731
sS'decision'
p92
F0.0051440000000000001
sS'participant'
p93
F0.015167999999999999
sS'four year'
p94
F0.022644000000000001
sS'forecast'
p95
F0.012078
sS'looking'
p96
F0.0081189999999999995
sS'li-rs1'
p97
F0.023373999999999999
sS'unable'
p98
F0.013450999999999999
sS'data mapping'
p99
F0.014805
sS'new'
p100
F0.00564
sS'issue'
p101
F0.005293
sS'across'
p102
F0.010038999999999999
sS'demonstrated'
p103
F0.006156
sS'data wrangling data munging statistical analysis'
p104
F0.023373999999999999
sS'data analysis'
p105
F0.011586000000000001
sS'ability'
p106
F0.0051009999999999996
sS'business'
p107
F0.0020569999999999998
sS'50 000'
p108
F0.018270000000000002
sS'leveraging'
p109
F0.007587
sS'data scientist'
p110
F0.0019780000000000002
sS'host'
p111
F0.012563
sS'advanced statistical'
p112
F0.012404999999999999
sS'key'
p113
F0.0095960000000000004
sS'address'
p114
F0.0071919999999999996
sS'existing product'
p115
F0.013561999999999999
sS'accommodation'
p116
F0.0095270000000000007
sS'change'
p117
F0.0054549999999999998
sS'ad-hoc analysis'
p118
F0.014981
sS'data visualization'
p119
F0.013993
sS'career'
p120
F0.0063070000000000001
sS'unrivaled insight'
p121
F0.020084999999999999
sS'industry'
p122
F0.023844000000000001
sS'subject matter expertise'
p123
F0.012729000000000001
sS'programming'
p124
F0.0055310000000000003
sS'experience'
p125
F0.0022369999999999998
sS'proud'
p126
F0.0080239999999999999
sS'etc'
p127
F0.012932000000000001
sS'stand'
p128
F0.014638
sS'even better'
p129
F0.013736999999999999
sS'macroeconomic industry trade price'
p130
F0.020084999999999999
sS'london ihs markit nasdaq info'
p131
F0.020084999999999999
sS'create'
p132
F0.0040220000000000004
sS'ihs'
p133
F0.019623000000000002
sS'strategic'
p134
F0.0052969999999999996
sS'appropriate'
p135
F0.0061989999999999996
sS'creative'
p136
F0.0067429999999999999
sS'ihs markit advanced analytics'
p137
F0.063895999999999994
sS'eeo aa employer'
p138
F0.017340999999999999
sS'market'
p139
F0.005633
sS'three 3'
p140
F0.021298999999999998
sS'use'
p141
F0.003238
sS'additional'
p142
F0.0081329999999999996
sS'working'
p143
F0.0064949999999999999
sS'platform'
p144
F0.0041139999999999996
sS'leading'
p145
F0.0085810000000000001
sS'support'
p146
F0.0020500000000000002
sS'complex datasets'
p147
F0.016795000000000001
sS'question'
p148
F0.0066909999999999999
sS'two'
p149
F0.0088350000000000008
sS'cutting edge'
p150
F0.0088009999999999998
sS'client around'
p151
F0.017340999999999999
sS'2'
F0.0083719999999999992
sS'call'
p152
F0.010945999999999999
sS'adaptability'
p153
F0.015694
sS'way'
p154
F0.013554999999999999
sS'washington dc'
p155
F0.010784999999999999
sS'translate'
p156
F0.0076410000000000002
sS'500'
p157
F0.01472
sS'website'
p158
F0.0089300000000000004
sS'including 80 percent'
p159
F0.020084999999999999
sS'online application'
p160
F0.013859
sS'company'
p161
F0.003052
sS'accept resume'
p162
F0.018870999999999999
sS'veterans'
p163
F0.014891
sS'ihs markit'
p164
F0.040169000000000003
sS'phone'
p165
F0.013292
sS'part'
p166
F0.0040949999999999997
sS'understand'
p167
F0.0042649999999999997
sS'ha'
p168
F0.0055620000000000001
sS'effort'
p169
F0.006012
sS'provide actionable'
p170
F0.016480000000000002
sS'site accessible'
p171
F0.020084999999999999
sS'cloud environment'
p172
F0.011911
sS'customer'
p173
F0.0026159999999999998
sS'made'
p174
F0.0090530000000000003
sS'well-informed confident decision'
p175
F0.020084999999999999
sS'one another'
p176
F0.013986
sS'car'
p177
F0.012444
sS'work'
p178
F0.0062560000000000003
sS'defense chemical'
p179
F0.020084999999999999
sS'call 303-858-6891'
p180
F0.020084999999999999
sS'r'
F0.0044990000000000004
sS'e-verify'
p181
F0.027012000000000001
sS'learn'
p182
F0.011403999999999999
sS'business context'
p183
F0.014805
sS'country'
p184
F0.0096159999999999995
sS'result'
p185
F0.0038670000000000002
sS'data manipulation'
p186
F0.011753
sS'economics'
p187
F0.0095270000000000007
sS'storytelling'
p188
F0.015473000000000001
sS'exposure'
p189
F0.0091160000000000008
sS'process'
p190
F0.0030300000000000001
sS'expanding'
p191
F0.011879000000000001
sS'accessibility'
p192
F0.018554999999999999
sS'drive'
p193
F0.011535999999999999
sS'cooperatively work'
p194
F0.018554999999999999
sS'engineering'
p195
F0.0080859999999999994
sS'minimum'
p196
F0.0055929999999999999
sS'expertise'
p197
F0.0040289999999999996
sS'analysis'
p198
F0.0024529999999999999
sS'follow-up'
p199
F0.014558
sS'request'
p200
F0.0075110000000000003
sS'partner'
p201
F0.0047470000000000004
sS'help u'
p202
F0.017933000000000001
sS'education'
p203
F0.0097870000000000006
sS'technology'
p204
F0.0065180000000000004
sS'finance'
p205
F0.015753
sS'brought together'
p206
F0.019623000000000002
sS'information'
p207
F0.0069160000000000003
sS'drug-free workplace'
p208
F0.014891
sS'develop'
p209
F0.0023349999999999998
sS'provide'
p210
F0.0060870000000000004
sS'qualified candidate'
p211
F0.012292000000000001
sS'machine learning technique'
p212
F0.0086879999999999995
sS'ihs markits unique'
p213
F0.021298999999999998
sS'field'
p214
F0.005927
sS'methodology'
p215
F0.0052579999999999997
sS'maintain'
p216
F0.0055430000000000002
sS'commercial'
p217
F0.0083420000000000005
sS'receive consideration'
p218
F0.0058529999999999997
sS'influence business decision'
p219
F0.017770000000000001
sS'answer'
p220
F0.008352
sS'consultant'
p221
F0.0095270000000000007
sS'tool'
p222
F0.0021610000000000002
sS'development'
p223
F0.0040179999999999999
sS'sustainable profitable growth'
p224
F0.020084999999999999
sS'product'
p225
F0.0067819999999999998
sS'oil'
p226
F0.015473000000000001
sS'intended'
p227
F0.013240999999999999
sS'established'
p228
F0.0090779999999999993
sS'pay transparency policy'
p229
F0.039246000000000003
sS'resumes'
p230
F0.019623000000000002
sS'headquartered'
p231
F0.0096469999999999993
sS'new data source'
p232
F0.013240999999999999
sS'proactively'
p233
F0.010741000000000001
sS'driven'
p234
F0.0060210000000000003
sS'expert possessing'
p235
F0.018554999999999999
sS'contact u'
p236
F0.017770000000000001
sS'global economy'
p237
F0.018870999999999999
sS'surface new'
p238
F0.019223000000000001
sS'user'
p239
F0.0056290000000000003
sS'curiosity'
p240
F0.011632
sS'sql'
p241
F0.0033289999999999999
sS'fundamentally change'
p242
F0.017548000000000001
sS'law'
p243
F0.0069899999999999997
sS'data'
p244
F0.0043829999999999997
sS'grow'
p245
F0.0067660000000000003
sS'critical reasoning ability'
p246
F0.020084999999999999
sS'statistic mathematics'
p247
F0.013859
sS'delivery'
p248
F0.0059309999999999996
sS'task'
p249
F0.012437
sS'lead'
p250
F0.0072379999999999996
sS'using'
p251
F0.0033240000000000001
sS'together'
p252
F0.0082260000000000007
sS'documentation'
p253
F0.0070280000000000004
sS'well'
p254
F0.0035379999999999999
sS'senior data analyst'
p255
F0.019623000000000002
sS'daily'
p256
F0.010055
sS'ocean'
p257
F0.019623000000000002
sS'client'
p258
F0.003826
sS'link'
p259
F0.011487000000000001
sS'process flow'
p260
F0.018270000000000002
sS'opportunity'
p261
F0.0030040000000000002
sS'order'
p262
F0.0065960000000000003
sS'random forest support vector machine neural network survival analysis bayesian statistic'
p263
F0.023373999999999999
sS'latest'
p264
F0.0081790000000000005
s.