(dp1
S'currently seeking'
p2
F0.020319
sS'modern technology'
p3
F0.030325000000000001
sS'intelligence community ic'
p4
F0.031768999999999999
sS'focus'
p5
F0.011971000000000001
sS'including'
p6
F0.0051269999999999996
sS'mysql'
p7
F0.024312
sS'assessment data engineering'
p8
F0.038198999999999997
sS'portfolio'
p9
F0.016315
sS'discipline'
p10
F0.014880000000000001
sS'current'
p11
F0.012818
sS'active current ts sci'
p12
F0.02947
sS'technique'
p13
F0.0082179999999999996
sS'data governance practice'
p14
F0.038198999999999997
sS'platform'
p15
F0.0083289999999999996
sS'program'
p16
F0.0094839999999999994
sS'oracle sql'
p17
F0.033998
sS'comprehending'
p18
F0.029631000000000001
sS'master data management'
p19
F0.030511
sS'include'
p20
F0.011322
sS'enterprise data architecture'
p21
F0.041761
sS'format'
p22
F0.019779999999999999
sS'framework'
p23
F0.011962
sS'using'
p24
F0.0067279999999999996
sS'execution'
p25
F0.013802999999999999
sS'solution'
p26
F0.0086189999999999999
sS'architecting new'
p27
F0.038198999999999997
sS'team'
p28
F0.002317
sS'security'
p29
F0.027487000000000001
sS'data analytics'
p30
F0.013453
sS'matrixed organization'
p31
F0.028181000000000001
sS'design implement'
p32
F0.023605000000000001
sS'requirement'
p33
F0.022969
sS'trend'
p34
F0.012952
sS'varied data'
p35
F0.036983000000000002
sS'analytics'
p36
F0.0055589999999999997
sS'design'
p37
F0.010026999999999999
sS'project'
p38
F0.0098150000000000008
sS'pattern'
p39
F0.014836999999999999
sS'access'
p40
F0.025373
sS'provides'
p41
F0.013318
sS'new'
p42
F0.011417
sS'sme'
p43
F0.031541
sS'across'
p44
F0.0067739999999999996
sS'demonstrated'
p45
F0.012461
sS'demonstrated experience'
p46
F0.045102000000000003
sS'mathematics engineering'
p47
F0.038913000000000003
sS'master mata maintenance'
p48
F0.044857000000000001
sS'10 year'
p49
F0.019716000000000001
sS'delivering'
p50
F0.014074
sS'velocity data processing'
p51
F0.039722
sS'bachelors degree'
p52
F0.013756000000000001
sS'focused'
p53
F0.013341
sS'modeling'
p54
F0.01023
sS'data quality'
p55
F0.018717999999999999
sS'processing large volume near-real time'
p56
F0.036983000000000002
sS'effort across'
p57
F0.026405999999999999
sS'compliance'
p58
F0.017979999999999999
sS'experience'
p59
F0.002264
sS'etc'
p60
F0.0087259999999999994
sS'extracting qualitative'
p61
F0.029797000000000001
sS'ci poly'
p62
F0.026907
sS'context'
p63
F0.020424999999999999
sS'large amount'
p64
F0.022157
sS'implement'
p65
F0.017153999999999999
sS'relevant'
p66
F0.011018999999999999
sS'transitioning existing'
p67
F0.038198999999999997
sS'communication'
p68
F0.012617
sS'functional'
p69
F0.015675999999999999
sS'strategic'
p70
F0.021444999999999999
sS'management'
p71
F0.0068529999999999997
sS'disparate data type'
p72
F0.038913000000000003
sS'data feed'
p73
F0.032007000000000001
sS'analytic'
p74
F0.010876
sS'support'
p75
F0.016594999999999999
sS'system'
p76
F0.055710999999999997
sS'demonstrated experience performing data'
p77
F0.037560000000000003
sS'data archiving capability'
p78
F0.038198999999999997
sS'recommend'
p79
F0.019684
sS'high volume'
p80
F0.026700999999999999
sS'help inform policy rational decision making'
p81
F0.029797000000000001
sS'work experience'
p82
F0.015792
sS'data management'
p83
F0.016462000000000001
sS'enable'
p84
F0.013696
sS'relationship'
p85
F0.012647
sS'data sme'
p86
F0.040655999999999998
sS'approximately 10 year'
p87
F0.041761
sS'automated'
p88
F0.017815000000000001
sS'end user'
p89
F0.021148
sS'demonstrated experience architecting'
p90
F0.039722
sS'project management'
p91
F0.014265999999999999
sS'must'
p92
F0.0084569999999999992
sS'customer'
p93
F0.0052960000000000004
sS'without negatively impacting operational'
p94
F0.038198999999999997
sS'work'
p95
F0.002111
sS'data architecture'
p96
F0.022758
sS'ms'
p97
F0.013986999999999999
sS'meet'
p98
F0.022984999999999998
sS'providing'
p99
F0.010495000000000001
sS'f disability vet sexual orientation gender identity'
p100
F0.029159000000000001
sS'guidance coordination'
p101
F0.038198999999999997
sS'provide guidance'
p102
F0.021832000000000001
sS'process'
p103
F0.024535999999999999
sS'equal opportunity employer'
p104
F0.011354
sS'expertise'
p105
F0.0081560000000000001
sS'technology'
p106
F0.004398
sS'information'
p107
F0.021000000000000001
sS'monitoring'
p108
F0.017028999999999999
sS'scalable data'
p109
F0.033360000000000001
sS'provide'
p110
F0.018484
sS'methodology'
p111
F0.010643
sS'client'
p112
F0.007744
sS'computer science'
p113
F0.0094310000000000001
sS'control mechanism'
p114
F0.036983000000000002
sS'across multiple'
p115
F0.019716000000000001
sS'resource allocation'
p116
F0.028312
sS'development'
p117
F0.0081320000000000003
sS'analyst data scientist'
p118
F0.027806000000000001
sS'tactical'
p119
F0.022973
sS'quantitative'
p120
F0.011251000000000001
sS'data'
p121
F0.01183
sS'lifecycle'
p122
F0.024379999999999999
sS'effective'
p123
F0.013429999999999999
sS'prioritize'
p124
F0.017564
sS'well'
p125
F0.0071630000000000001
sS'dod'
p126
F0.029312000000000001
sS'perform'
p127
F0.010788000000000001
sS'maintain'
p128
F0.011220000000000001
sS'best-practices'
p129
F0.033064000000000003
sS'model'
p130
F0.0060369999999999998
s.