(dp1
S'sector'
p2
I1
sS'gs'
p3
I1
sS'certification'
p4
I1
sS'mission'
p5
I1
sS'planning'
p6
I1
sS'identify'
p7
I1
sS'solutions'
p8
I1
sS'human'
p9
I1
sS'llc'
p10
I1
sS'17-0052'
p11
I1
sS'discipline'
p12
I1
sS'based'
p13
I1
sS'knowledge'
p14
I1
sS'title'
p15
I1
sS'methodology'
p16
I1
sS'source'
p17
I1
sS'modernization'
p18
I1
sS'homeland'
p19
I1
sS'citizen'
p20
I1
sS'employee'
p21
I1
sS'extensive'
p22
I1
sS'include'
p23
I1
sS'local'
p24
I1
sS'microsoft excel'
p25
I1
sS'scheduled'
p26
I1
sS'data modeling'
p27
I1
sS'7'
I1
sS'government'
p28
I1
sS'complies'
p29
I1
sS'provider'
p30
I1
sS'dc'
p31
I1
sS'preferred'
p32
I1
sS'foremost'
p33
I1
sS'department'
p34
I1
sS"world's"
p35
I1
sS'coordinating'
p36
I1
sS'report'
p37
I1
sS'using'
p38
I1
sS'execute'
p39
I1
sS'skills'
p40
I1
sS'performing'
p41
I1
sS'applicable'
p42
I1
sS'ad-hoc'
p43
I1
sS'eeo'
p44
I1
sS'analytical'
p45
I1
sS'security'
p46
I1
sS'data analytics'
p47
I1
sS'requirement'
p48
I1
sS'nondiscrimination'
p49
I1
sS'pmp'
p50
I1
sS'transform'
p51
I1
sS'supporting'
p52
I1
sS'cybersecurity'
p53
I1
sS'creation'
p54
I1
sS'directing'
p55
I1
sS'result'
p56
I1
sS'year'
p57
I1
sS'operation'
p58
I1
sS'employment'
p59
I1
sS'subject'
p60
I1
sS'and/or'
p61
I1
sS'expert'
p62
I1
sS'federal'
p63
I1
sS'outsourcing'
p64
I1
sS'/'
I1
sS'research'
p65
I1
sS'state'
p66
I1
sS'identification'
p67
I1
sS'provides'
p68
I1
sS'capital'
p69
I1
sS'experience'
p70
I1
sS'issue'
p71
I1
sS'public'
p72
I1
sS'demonstrated'
p73
I1
sS'specialist'
p74
I1
sS'data analysis'
p75
I1
sS'degree'
p76
I1
sS'upon'
p77
I1
sS'u.s.'
p78
I1
sS'stakeholder'
p79
I1
sS'governing'
p80
I1
sS'focused'
p81
I1
sS'modeling'
p82
I1
sS'post'
p83
I1
sS'providing'
p84
I1
sS'working'
p85
I1
sS'technical'
p86
I1
sS'equal'
p87
I1
sS'data analyst'
p88
I1
sS'spss'
p89
I1
sV(5, 10]
p90
I1
sS'range'
p91
I1
sS'microsoft access'
p92
I1
sS'software'
p93
I1
sS'consulting'
p94
I1
sS'relevant'
p95
I1
sS'overview'
p96
I1
sS'data science'
p97
I1
sS'within'
p98
I1
sS'washington'
p99
I1
sS'number'
p100
I1
sS'one'
p101
I1
sS'problem solving'
p102
I1
sS'apply'
p103
I1
sS'quality'
p104
I1
sS'city'
p105
I1
sS'service'
p106
I1
sS'addition'
p107
I1
sS'opportunity'
p108
I1
sS'support'
p109
I1
sS'system'
p110
I1
sS'least'
p111
I1
sS'extraction'
p112
I1
sVBachelor
p113
I1
sS'advanced analytics'
p114
I1
sS'scope'
p115
I1
sS'stata'
p116
I1
sS'memo'
p117
I1
sS'finished'
p118
I1
sS'subsidiary'
p119
I1
sS'technologies'
p120
I1
sS'effort'
p121
I1
sS'analyst'
p122
I1
sS'project management'
p123
I1
sS'national security'
p124
I1
sS'employment.'
p125
I1
sS'matter'
p126
I1
sS'r'
I1
sS'bachelors'
p127
I1
sS'evaluating'
p128
I1
sS'briefing'
p129
I1
sS'enables'
p130
I1
sS'similar'
p131
I1
sS'applicant'
p132
I1
sS'request'
p133
I1
sS'recommendation'
p134
I1
sS'it'
p135
I1
sS'high'
p136
I1
sS'at'
p137
I1
sS'in'
p138
I1
sS'sas'
p139
I1
sS'education'
p140
I1
sS'technology'
p141
I1
sS'develop'
p142
I1
sS'provide'
p143
I1
sS'client'
p144
I1
sS'responsibilities'
p145
I1
sS'complex'
p146
I1
sS'role'
p147
I1
sS'interview'
p148
I1
sS'company'
p149
I1
sS'development'
p150
I1
sS'description'
p151
I1
sS'tool'
p152
I1
sS'warehouse'
p153
I1
sS'sql'
p154
I1
sS'date'
p155
I1
sS'law'
p156
I1
sS'data'
p157
I1
sS'task'
p158
I1
sS'collaboratively'
p159
I1
sS'required'
p160
I1
sS'well'
p161
I1
sS'analysis'
p162
I1
sS'perform'
p163
I1
sS'2/22/2017'
p164
I1
sS'capgemini'
p165
I1
sS'enterprise'
p166
I1
sS'professional'
p167
I1
sS'model'
p168
I1
sS'requisition'
p169
I1
s.