(dp1
S'advertiser'
p2
F0.031281000000000003
sS'concept'
p3
F0.012259000000000001
sS'incorporate'
p4
F0.026922000000000001
sS'manager'
p5
F0.012478
sS'innovative'
p6
F0.010741000000000001
sS'content'
p7
F0.015136
sS'monitor'
p8
F0.018110999999999999
sS'big data'
p9
F0.0097929999999999996
sS'data exploration'
p10
F0.028256
sS'300 million'
p11
F0.037328
sS'technique'
p12
F0.0085280000000000009
sS'strong interpersonal'
p13
F0.029517999999999999
sS'permanent'
p14
F0.032502000000000003
sS'location'
p15
F0.012657
sS'coding skill'
p16
F0.029245
sS'dailymotion'
p17
F0.168762
sS'good'
p18
F0.013672999999999999
sS'around'
p19
F0.012715000000000001
sS'python'
p20
F0.0093939999999999996
sS'new york city'
p21
F0.027921999999999999
sS'hive pig spark'
p22
F0.046550000000000001
sS'job requirements'
p23
F0.023401999999999999
sS'applying'
p24
F0.016458
sS'discover new'
p25
F0.032067999999999999
sS'sas jmp'
p26
F0.042189999999999998
sS'using well-defined algorithm'
p27
F0.053459
sS'level'
p28
F0.0092809999999999993
sS'solution'
p29
F0.0044720000000000003
sS'content creator'
p30
F0.035639999999999998
sS'enforce'
p31
F0.033472000000000002
sS'view'
p32
F0.020011999999999999
sS'programmatic'
p33
F0.030922000000000002
sS'business impact'
p34
F0.028489
sS'plusproficiency'
p35
F0.053459
sS'formulate'
p36
F0.024688000000000002
sS'video'
p37
F0.045218000000000001
sS'perspective'
p38
F0.017998
sS'statistic'
p39
F0.023028
sS'senior bac'
p40
F0.046550000000000001
sS'best'
p41
F0.010862999999999999
sS'space'
p42
F0.017628999999999999
sS'familiarity'
p43
F0.011825
sS'looking'
p44
F0.0085280000000000009
sS'3'
F0.017401
sS'passion'
p45
F0.012259000000000001
sS'innovation'
p46
F0.0098180000000000003
sS'approach'
p47
F0.020663000000000001
sS'full'
p48
F0.016336
sS'mathematics engineering'
p49
F0.040381
sS'ability'
p50
F0.0035720000000000001
sS'degree'
p51
F0.014238000000000001
sS'experience using'
p52
F0.017888000000000001
sS'marketing'
p53
F0.010919999999999999
sS'stakeholder'
p54
F0.025902000000000001
sS'data scientist'
p55
F0.0041549999999999998
sS'understanding'
p56
F0.016164999999999999
sS'job'
p57
F0.0074869999999999997
sS'new monetization solution'
p58
F0.042189999999999998
sS'deliver'
p59
F0.0085769999999999996
sS'mobile'
p60
F0.017121999999999998
sS'peer'
p61
F0.038681
sS'delivering'
p62
F0.014605
sS'interpret'
p63
F0.018783999999999999
sS'limitation'
p64
F0.025978999999999999
sS'contract'
p65
F0.020905
sS'tv'
p66
F0.033472000000000002
sS'monetization product'
p67
F0.044741000000000003
sS'plus'
p68
F0.0096550000000000004
sS'context'
p69
F0.021196
sS'relevant'
p70
F0.011435000000000001
sS'data science'
p71
F0.0074580000000000002
sS'within'
p72
F0.0075510000000000004
sS'demonstrable'
p73
F0.031862000000000001
sS'one'
p74
F0.014527999999999999
sS'back end'
p75
F0.032280999999999997
sS'use'
p76
F0.006803
sS'area'
p77
F0.0085430000000000002
sS'interact'
p78
F0.017045000000000001
sS'question'
p79
F0.014056000000000001
sS'system'
p80
F0.0057809999999999997
sS'storm'
p81
F0.029659999999999999
sS'analyze'
p82
F0.011142000000000001
sS'type'
p83
F0.016744999999999999
sS'data scientist 29122016 nyc new york'
p84
F0.053459
sS'billion'
p85
F0.018609000000000001
sS'offering'
p86
F0.019341000000000001
sS'tool'
p87
F0.0045399999999999998
sS'job description'
p88
F0.012725
sS'english spoken written'
p89
F0.053459
sS'part'
p90
F0.0086029999999999995
sS'excellent'
p91
F0.012971
sS'customer'
p92
F0.005496
sS'r matlab simulink ampl'
p93
F0.053459
sS'data source'
p94
F0.018860999999999999
sS'ecosystem'
p95
F0.022159000000000002
sS'us'
p96
F0.010609
sS'machine learning'
p97
F0.0068180000000000003
sS'continuously improve'
p98
F0.031862000000000001
sS'r'
F0.0094509999999999993
sS'learn'
p99
F0.023955000000000001
sS'growing'
p100
F0.017221
sS'problem'
p101
F0.017408
sS'result'
p102
F0.0081239999999999993
sS'ad'
p103
F0.021347000000000001
sS'premium partner'
p104
F0.044741000000000003
sS'contribute'
p105
F0.014723999999999999
sS'experience performing data analysis'
p106
F0.034618000000000003
sS'solve problem'
p107
F0.021739999999999999
sS'fluency'
p108
F0.021739999999999999
sS'unique visitor'
p109
F0.038378000000000002
sS'information'
p110
F0.0072639999999999996
sS'worldwide leadi'
p111
F0.089481000000000005
sS'etc'
p112
F0.0090550000000000005
sS'provide'
p113
F0.012787
sS'excel'
p114
F0.017420999999999999
sS'hadoop'
p115
F0.012196
sS"world's leading video-sharing platform"
p116
F0.049099999999999998
sS'functionality'
p117
F0.024309999999999998
sS'computer science'
p118
F0.0097870000000000006
sS'online'
p119
F0.016458
sS'nyc'
p120
F0.062937999999999994
sS'worldwide'
p121
F0.020136999999999999
sS'independent'
p122
F0.021739999999999999
sS'product'
p123
F0.0094979999999999995
sS'activity dailymotion'
p124
F0.042189999999999998
sS'per month'
p125
F0.034618000000000003
sS'communication skill'
p126
F0.018065999999999999
sS'user'
p127
F0.011825
sS'sql'
p128
F0.013988
sS'iterate'
p129
F0.027709000000000001
sS'validate'
p130
F0.019595000000000001
sS'opportunity'
p131
F0.0063090000000000004
sS'stack'
p132
F0.021904
sS'building'
p133
F0.0081939999999999999
sS'e'
F0.035639999999999998
sS'using'
p134
F0.0069820000000000004
sS"world' par"
p135
F0.044741000000000003
sS'attracts'
p136
F0.038977999999999999
sS'drive'
p137
F0.0080780000000000001
sS'analysis'
p138
F0.0051529999999999996
sS'depth'
p139
F0.026738999999999999
sS'principle'
p140
F0.017239999999999998
s.