(dp1
S'selection'
p2
F0.010710000000000001
sS'help'
p3
F0.0056889999999999996
sS"worth publishers bedford st martin's picador roaring brook press"
p4
F0.024355000000000002
sS'nonlinear optimization'
p5
F0.018780000000000002
sS'valuable'
p6
F0.010096000000000001
sS'trade'
p7
F0.012926
sS'held'
p8
F0.015918999999999999
sS'manager'
p9
F0.0056849999999999999
sS'3 fundamentals'
p10
F0.024355000000000002
sS'wide range'
p11
F0.0080219999999999996
sS'statistical'
p12
F0.0043800000000000002
sS'educational background'
p13
F0.015632
sS'make'
p14
F0.00363
sS'access'
p15
F0.0059979999999999999
sS'hands-on experience'
p16
F0.0092610000000000001
sS'group'
p17
F0.010173
sS'scipy scikit mlib torch tensorflow'
p18
F0.024355000000000002
sS'big data'
p19
F0.0044619999999999998
sS'guidance'
p20
F0.0085229999999999993
sS"technical differentiation's"
p21
F0.024355000000000002
sS'responsible'
p22
F0.0035279999999999999
sS'including'
p23
F0.0024239999999999999
sS'work effectively'
p24
F0.010037000000000001
sS'platform'
p25
F0.011813000000000001
sS'technical concept'
p26
F0.013384999999999999
sS'4'
F0.019484999999999999
sS'developed'
p27
F0.010018000000000001
sS'8'
F0.011188999999999999
sS'smart'
p28
F0.009606
sS'finance'
p29
F0.0075380000000000004
sS'smarter'
p30
F0.014337000000000001
sS'practice'
p31
F0.0057019999999999996
sS'background'
p32
F0.010506
sS'- farrar straus giroux first'
p33
F0.024355000000000002
sS'framework'
p34
F0.0056550000000000003
sS'american macmillan 2007'
p35
F0.024355000000000002
sS'difference'
p36
F0.0070899999999999999
sS'bringing'
p37
F0.019556
sS'day'
p38
F0.008149
sS'advanced'
p39
F0.0044759999999999999
sS"second books henry holt macmillan audio picador st martin's"
p40
F0.024355000000000002
sS'workplacerequirementsour mission'
p41
F0.024355000000000002
sS'sql dbs'
p42
F0.024355000000000002
sS'resource'
p43
F0.006143
sS'skills'
p44
F0.0062290000000000002
sS'young readers priddy books square fish books tor starscape college'
p45
F0.024355000000000002
sS'stuttgart germany'
p46
F0.024355000000000002
sS'data extraction'
p47
F0.010913000000000001
sS'solution'
p48
F0.0020370000000000002
sS'natural language processing word2vec stanford nlp opennlp gate spacy'
p49
F0.024355000000000002
sS'method'
p50
F0.0040080000000000003
sS'giroux henry holt company wh freeman'
p51
F0.024355000000000002
sS'normalization'
p52
F0.017235
sS'science'
p53
F0.0064149999999999997
sS'business objective'
p54
F0.019556
sS'verlagsgruppe georg von holtzbrinck based'
p55
F0.024355000000000002
sS'pronoun'
p56
F0.024355000000000002
sS'map'
p57
F0.012873000000000001
sS'generation'
p58
F0.0097780000000000002
sS'eg'
p59
F0.0056810000000000003
sS'testing'
p60
F0.0054720000000000003
sS'startup'
p61
F0.0092759999999999995
sS'discover'
p62
F0.0097429999999999999
sS'macmillan'
p63
F0.024355000000000002
sS'past'
p64
F0.012394000000000001
sS'unstructured data point'
p65
F0.024355000000000002
sS'competitive advantage'
p66
F0.010475
sS'perspective'
p67
F0.0082000000000000007
sS'quantitative field'
p68
F0.0080610000000000005
sS'incorporate feedback'
p69
F0.019220999999999999
sS'regularization technique'
p70
F0.024355000000000002
sS'ability'
p71
F0.001627
sS'scale'
p72
F0.0064469999999999996
sS'lead'
p73
F0.0034629999999999999
sS'realistic'
p74
F0.019220999999999999
sS'broad'
p75
F0.017673000000000001
sS'decision'
p76
F0.0098449999999999996
sS'high dimensional data visualization technique'
p77
F0.024355000000000002
sS"macmillan we're"
p78
F0.024355000000000002
sS'research'
p79
F0.003382
sS'looking'
p80
F0.003885
sS'3'
F0.0079279999999999993
sS'optimization'
p81
F0.0059649999999999998
sS'various'
p82
F0.0049519999999999998
sS'contact'
p83
F0.009868
sS'7'
F0.031985
sS'reader'
p84
F0.017757999999999999
sS'new'
p85
F0.005398
sS"bachelor's degree"
p86
F0.0051390000000000003
sS'leader'
p87
F0.0045230000000000001
sS'notice'
p88
F0.017235
sS'optionally natural language processing'
p89
F0.024355000000000002
sS'terms'
p90
F0.01461
sS'creating'
p91
F0.0058100000000000001
sS'nature'
p92
F0.01059
sS'selecting'
p93
F0.015499000000000001
sS'million'
p94
F0.011809999999999999
sS'communicate'
p95
F0.0055929999999999999
sS'use'
p96
F0.0030990000000000002
sS'- feiwel friends farrar straus giroux books'
p97
F0.024355000000000002
sS'include farrar straus'
p98
F0.024355000000000002
sS'job'
p99
F0.003411
sS'hadoop spark'
p100
F0.010685999999999999
sS'online'
p101
F0.0074980000000000003
sS'traditional prestige publishing'
p102
F0.024355000000000002
sS'others'
p103
F0.0058190000000000004
sS'put'
p104
F0.020433
sS'software engineering'
p105
F0.0082199999999999999
sS'understanding'
p106
F0.0073639999999999999
sS'problem solver'
p107
F0.013034
sS'bash'
p108
F0.013715
sS'publishes'
p109
F0.021208000000000001
sS'publisher'
p110
F0.029219999999999999
sS'equal opportunity employer committed'
p111
F0.0099419999999999994
sS'con continually'
p112
F0.024355000000000002
sS'unique data set'
p113
F0.017006
sS'across'
p114
F0.003202
sS'massive data'
p115
F0.017757999999999999
sS'larger'
p116
F0.013578
sS'experience'
p117
F0.00053499999999999999
sS'advanced degree'
p118
F0.00809
sS'practical'
p119
F0.0092910000000000006
sS'apply on-linesend'
p120
F0.016596
sS'magazine'
p121
F0.01461
sS'supervised'
p122
F0.011835999999999999
sS'hypothesis'
p123
F0.011247
sS'expression'
p124
F0.012873000000000001
sS"macmillan publishers pronoun's mission"
p125
F0.024355000000000002
sS'first'
p126
F0.013599999999999999
sS'validation'
p127
F0.016482
sS'technique'
p128
F0.01554
sS'family'
p129
F0.0090069999999999994
sS"publisher's website"
p130
F0.024355000000000002
sS'including ab testing'
p131
F0.024355000000000002
sS'race ethnicity religion sex sexual orientation gender identity'
p132
F0.024355000000000002
sS'owned'
p133
F0.015499000000000001
sS'one'
p134
F0.0033089999999999999
sS'united states'
p135
F0.0078449999999999995
sS'design principle'
p136
F0.014515999999999999
sS'visualization'
p137
F0.005914
sS'linux'
p138
F0.0091310000000000002
sS'wrangling data'
p139
F0.017757999999999999
sS'market'
p140
F0.005391
sS'engineer'
p141
F0.0048780000000000004
sS'data mining'
p142
F0.0053680000000000004
sS'young readers henry holt books'
p143
F0.024355000000000002
sS'given'
p144
F0.0088749999999999992
sS'strong'
p145
F0.0029060000000000002
sS'publishing'
p146
F0.026896
sS'working'
p147
F0.0031080000000000001
sS'privacy'
p148
F0.012978999999999999
sS'support'
p149
F0.0019610000000000001
sS'structured'
p150
F0.0068890000000000002
sS'visit'
p151
F0.011526
sS'transform'
p152
F0.0082719999999999998
sS'priority'
p153
F0.0082719999999999998
sS'needed'
p154
F0.0059890000000000004
sS'linear'
p155
F0.012926
sS'2'
F0.016025000000000001
sS'complicated'
p156
F0.014425
sS'massive scale'
p157
F0.013263
sS'6'
F0.022151000000000001
sS'biggest'
p158
F0.013646
sS'toolset'
p159
F0.015772000000000001
sS'scientific'
p160
F0.0074120000000000002
sS'theoretical'
p161
F0.013089
sS'store'
p162
F0.011625999999999999
sS"we're"
p163
F0.0086759999999999997
sS'product management'
p164
F0.0085810000000000001
sS'direction'
p165
F0.006744
sS'medium'
p166
F0.0073879999999999996
sS'machine learning algorithm'
p167
F0.0079369999999999996
sS'definition'
p168
F0.01076
sS'tool'
p169
F0.0041370000000000001
sS'-'
F0.150058
sS'bedford freeman worth'
p170
F0.024355000000000002
sS'site'
p171
F0.0087609999999999997
sS'seasoned data scientist'
p172
F0.018397
sS"st martin's"
p173
F0.024355000000000002
sS'part'
p174
F0.0039189999999999997
sS'understand'
p175
F0.0040819999999999997
sS'adult'
p176
F0.019220999999999999
sS'bayesian'
p177
F0.014087000000000001
sS'required'
p178
F0.0027759999999999998
sS'must'
p179
F0.0079959999999999996
sS'programming language eg'
p180
F0.014425
sS"press tor forge children's -"
p181
F0.024355000000000002
sS'algorithm'
p182
F0.0035609999999999999
sS'integrating'
p183
F0.0078820000000000001
sS'ecosystem'
p184
F0.010096000000000001
sS'us'
p185
F0.0048329999999999996
sS'machine learning'
p186
F0.0062119999999999996
sS'technical'
p187
F0.0027239999999999999
sS'economic'
p188
F0.011429999999999999
sS'achieve'
p189
F0.0067879999999999998
sS'd3 ggplot2 tableau'
p190
F0.024355000000000002
sS'growing'
p191
F0.0078449999999999995
sS'demonstrate'
p192
F0.0076449999999999999
sS'problem'
p193
F0.0039649999999999998
sS'python java lua r'
p194
F0.024355000000000002
sS"- bedford st martin's palgrave macmillan wh freeman worth publishers magazines journals -"
p195
F0.024355000000000002
sS'age'
p196
F0.010155000000000001
sS'scripting'
p197
F0.0091310000000000002
sS'result'
p198
F0.0037009999999999999
sS'collecting'
p199
F0.013932999999999999
sS'k-fold validation'
p200
F0.024355000000000002
sS'statistic'
p201
F0.0052459999999999998
sS'mine'
p202
F0.012351000000000001
sS'effectively'
p203
F0.0060410000000000004
sS'engineering'
p204
F0.003869
sS'need'
p205
F0.0030820000000000001
sS'reflecting'
p206
F0.022369
sS'education'
p207
F0.0046829999999999997
sS'technology'
p208
F0.0062379999999999996
sS'help u'
p209
F0.0085810000000000001
sS'physical'
p210
F0.0088489999999999992
sS'information'
p211
F0.0033089999999999999
sS'unsupervised semi-supervised probabilistic model'
p212
F0.024355000000000002
sS'author'
p213
F0.057347000000000002
sS'five year'
p214
F0.020035000000000001
sS'apis'
p215
F0.0098130000000000005
sS'able'
p216
F0.0044339999999999996
sS'feature'
p217
F0.0073959999999999998
sS'clearly'
p218
F0.0093209999999999994
sS'1'
F0.015495999999999999
sS'also'
p219
F0.0094929999999999997
sS'status geographical background'
p220
F0.024355000000000002
sS'book'
p221
F0.041145000000000001
sS'5'
F0.017906999999999999
sS'build'
p222
F0.0055890000000000002
sS'digital'
p223
F0.012583
sS'plus'
p224
F0.0087980000000000003
sS'careers'
p225
F0.012624
sS'company'
p226
F0.005842
sS'status'
p227
F0.012951000000000001
sS'independent'
p228
F0.0099039999999999996
sS'product'
p229
F0.0064910000000000002
sS'experienced'
p230
F0.0076369999999999997
sS'communicating'
p231
F0.008914
sS'aws'
p232
F0.015727000000000001
sS'economics econometrics'
p233
F0.024355000000000002
sS'disparate source'
p234
F0.015132
sS'sql'
p235
F0.003186
sS'friend'
p236
F0.012101000000000001
sS'data'
p237
F0.0027959999999999999
sS'cross'
p238
F0.012182
sS'model selection'
p239
F0.020382999999999998
sS'purchase'
p240
F0.012926
sS'assisting'
p241
F0.012023000000000001
sS'organization'
p242
F0.0032169999999999998
sS'work closely'
p243
F0.0058100000000000001
sS'american'
p244
F0.017235
sS'variety'
p245
F0.0056759999999999996
sS'traditional'
p246
F0.009979
sS'academic'
p247
F0.0085459999999999998
sS"press tor books hayden mcneil macmillan children's group macmillan audio"
p248
F0.024355000000000002
sS'command'
p249
F0.012265
sS'experimental'
p250
F0.011306999999999999
sS'book publishing'
p251
F0.067108000000000001
sS'representation'
p252
F0.01806
sS'model'
p253
F0.0057080000000000004
sS'operate'
p254
F0.009188
sS'consumer'
p255
F0.0059930000000000001
sS'self-motivated'
p256
F0.0096229999999999996
s.