(dp1
S'incorporate'
p2
F0.018450999999999999
sS'help'
p3
F0.0042789999999999998
sS'office'
p4
F0.0083459999999999993
sS'among'
p5
F0.016378
sS'cross sectional'
p6
F0.036637999999999997
sS'insight'
p7
F0.0057239999999999999
sS'plated weekly'
p8
F0.036637999999999997
sS'mission'
p9
F0.0077559999999999999
sS'valuable'
p10
F0.015187000000000001
sS'bring'
p11
F0.0077039999999999999
sS'identify'
p12
F0.0059369999999999996
sS'using'
p13
F0.0047850000000000002
sS'integrity'
p14
F0.011476
sS'snack'
p15
F0.019952000000000001
sS'group'
p16
F0.0076519999999999999
sS'better'
p17
F0.019549
sS'feel'
p18
F0.018644999999999998
sS'experiment'
p19
F0.011232000000000001
sS'cohort study'
p20
F0.036637999999999997
sS'policy'
p21
F0.011291000000000001
sS'2012'
p22
F0.025582000000000001
sS'colleague'
p23
F0.012507000000000001
sS'data modeling'
p24
F0.012737
sS'competitive compensation'
p25
F0.018086000000000001
sS'get'
p26
F0.019498999999999999
sS'python'
p27
F0.0064380000000000001
sS'familiar'
p28
F0.013887999999999999
sS'practice'
p29
F0.0085769999999999996
sS'possible'
p30
F0.012604000000000001
sS'plated data science'
p31
F0.036637999999999997
sS'cultural'
p32
F0.024426
sS'preference'
p33
F0.018204000000000001
sS'energetic creative'
p34
F0.028915
sS'one'
p35
F0.0099570000000000006
sS"there's even"
p36
F0.036637999999999997
sS'predictive model belong'
p37
F0.036637999999999997
sS'execute'
p38
F0.020421999999999999
sS'internally'
p39
F0.017194999999999998
sS'401 k plan'
p40
F0.021312999999999999
sS'list'
p41
F0.018644999999999998
sS'investigate'
p42
F0.018325999999999999
sS'continue'
p43
F0.020943
sS'wonderful employee onto'
p44
F0.036637999999999997
sS'team'
p45
F0.0016479999999999999
sS'meal'
p46
F0.028915
sS'vision'
p47
F0.0093860000000000002
sS'test kitchen'
p48
F0.031903000000000001
sS'right'
p49
F0.010373
sS'people'
p50
F0.0055770000000000004
sS'startup'
p51
F0.013953999999999999
sS'culture'
p52
F0.0088210000000000007
sS'individual'
p53
F0.0068560000000000001
sS'design'
p54
F0.0071320000000000003
sS'result'
p55
F0.005568
sS"what's plated like"
p56
F0.036637999999999997
sS'home'
p57
F0.013887999999999999
sS'must eat better'
p58
F0.036637999999999997
sS'event'
p59
F0.012572
sS'best'
p60
F0.0074450000000000002
sS'even'
p61
F0.017339
sS'power'
p62
F0.011552
sS'expert'
p63
F0.0081849999999999996
sS'data engineering'
p64
F0.016001999999999999
sS'decision'
p65
F0.0074050000000000001
sS'benefit'
p66
F0.017989000000000002
sS'research'
p67
F0.0050879999999999996
sS'everything'
p68
F0.013469
sS'everything delicious combine'
p69
F0.036637999999999997
sS'run'
p70
F0.01337
sS'across'
p71
F0.0048170000000000001
sS'ass'
p72
F0.013390000000000001
sS'data analysis'
p73
F0.01668
sS'data science team'
p74
F0.012703000000000001
sS'belief'
p75
F0.019606999999999999
sS'business'
p76
F0.0059220000000000002
sS'dental'
p77
F0.019443999999999999
sS'free'
p78
F0.016537
sS'explore'
p79
F0.012024
sS'stipend'
p80
F0.033649999999999999
sS'b2c'
p81
F0.027675000000000002
sS'comewe'
p82
F0.036637999999999997
sS'improve'
p83
F0.012978
sS'box'
p84
F0.020042999999999998
sS'great'
p85
F0.010192
sS'cross functional team'
p86
F0.037560000000000003
sS'career'
p87
F0.0090799999999999995
sS'country'
p88
F0.013844
sS'annual'
p89
F0.016039000000000001
sS'healthy debate'
p90
F0.036637999999999997
sS'culinary team'
p91
F0.073275999999999994
sS'experience'
p92
F0.00080500000000000005
sS'monthly'
p93
F0.019606999999999999
sS'action'
p94
F0.011828999999999999
sS'promotion'
p95
F0.018849000000000001
sS'specialize'
p96
F0.022595000000000001
sS'think'
p97
F0.014326999999999999
sS'plan'
p98
F0.0081969999999999994
sS'hard problems'
p99
F0.036637999999999997
sS'curious explorer eager'
p100
F0.036637999999999997
sS'love'
p101
F0.034502999999999999
sS'test hypothesis'
p102
F0.019136
sS'simple'
p103
F0.014475999999999999
sS'stock option'
p104
F0.018780000000000002
sS'unlimited vacation day'
p105
F0.031903000000000001
sS'within'
p106
F0.0051749999999999999
sS'number'
p107
F0.01341
sS'great recipe'
p108
F0.036637999999999997
sS'become part'
p109
F0.019775999999999998
sS'problem solving'
p110
F0.012572
sS'redefining'
p111
F0.012199
sS'better place'
p112
F0.021700000000000001
sS'open'
p113
F0.023415999999999999
sS'decision making'
p114
F0.012944000000000001
sS'speak'
p115
F0.019063
sS'environment'
p116
F0.014969
sS'perk'
p117
F0.022595000000000001
sS'opportunity'
p118
F0.0043239999999999997
sS'grow'
p119
F0.029222999999999999
sS'sampling'
p120
F0.020327000000000001
sS'process'
p121
F0.0043629999999999997
sS'live'
p122
F0.028135
sS'growth'
p123
F0.0089589999999999999
sS'way'
p124
F0.0065050000000000004
sS'define'
p125
F0.0087270000000000004
sS'making decision'
p126
F0.021312999999999999
sS'offer'
p127
F0.0069340000000000001
sS'club'
p128
F0.031903000000000001
sS'company'
p129
F0.013181999999999999
sS'training'
p130
F0.0085769999999999996
sS'candid feedback'
p131
F0.036637999999999997
sS'acculturate data driven'
p132
F0.036637999999999997
sS'part'
p133
F0.011790999999999999
sS'work done'
p134
F0.028915
sS'producing'
p135
F0.018265
sS'potential'
p136
F0.010422000000000001
sS'automate process'
p137
F0.024965999999999999
sS'valued'
p138
F0.014552000000000001
sS'getting'
p139
F0.017489000000000001
sS'value'
p140
F0.014733
sS'people eat'
p141
F0.036637999999999997
sS'r'
F0.0064770000000000001
sS'learn'
p142
F0.0082089999999999993
sS'growing'
p143
F0.011802
sS'making'
p144
F0.0109
sS'dining experience'
p145
F0.036637999999999997
sS'launched'
p146
F0.018450999999999999
sS'career development'
p147
F0.020631
sS'data-driven'
p148
F0.012096000000000001
sS'taste'
p149
F0.030662999999999999
sS'expanding'
p150
F0.017101000000000002
sS'sample'
p151
F0.021312999999999999
sS'ready'
p152
F0.012839
sS'actionable insight'
p153
F0.014206999999999999
sS'expertise'
p154
F0.0057999999999999996
sS'daily'
p155
F0.014475999999999999
sS'want'
p156
F0.0083890000000000006
sS'need'
p157
F0.0046360000000000004
sS'motivated'
p158
F0.014899000000000001
sS'education'
p159
F0.007045
sS'technology'
p160
F0.0031280000000000001
sS'information'
p161
F0.0049779999999999998
sS'conversation'
p162
F0.021437999999999999
sS'make'
p163
F0.010921
sS"there's strong"
p164
F0.036637999999999997
sS'excel'
p165
F0.011939999999999999
sS'tableau'
p166
F0.011023
sS'plated'
p167
F0.14655299999999999
sS'extracting data'
p168
F0.026713000000000001
sS'food'
p169
F0.087345999999999993
sS'ideal'
p170
F0.019136
sS'interested'
p171
F0.012507000000000001
sS'role'
p172
F0.0044819999999999999
sS'digital'
p173
F0.0094640000000000002
sS'intelligent'
p174
F0.017242
sS'bonus point'
p175
F0.043133999999999999
sS'experienced'
p176
F0.011488
sS'practitioner'
p177
F0.020327000000000001
sS'collaborative'
p178
F0.011303000000000001
sS'communicating'
p179
F0.01341
sS'welcome'
p180
F0.017489000000000001
sS'helping'
p181
F0.0092870000000000001
sS'customizable medical'
p182
F0.036637999999999997
sS'sql'
p183
F0.0047930000000000004
sS'variable'
p184
F0.019443999999999999
sS'data'
p185
F0.0042069999999999998
sS'cook adventurous quality'
p186
F0.036637999999999997
sS'space'
p187
F0.012082000000000001
sS'analysis'
p188
F0.003532
sS"you'll enjoy"
p189
F0.056501000000000003
sS"you'll"
p190
F0.0099039999999999996
sS'tech'
p191
F0.014736000000000001
sS'time'
p192
F0.013081000000000001
sS'reward'
p193
F0.018204000000000001
sS'consumer'
p194
F0.0090159999999999997
sS'order'
p195
F0.0094959999999999992
sS'respect'
p196
F0.013273999999999999
sS'joining'
p197
F0.014817
s.