(dp1
S'pto'
p2
F0.032118375612826024
sS'rating'
p3
F0.034124000117190571
sS'help'
p4
F0.0088385315941959669
sS'visitor'
p5
F0.031334608219023938
sS'move'
p6
F0.021165411663245884
sS'mission'
p7
F0.013228945546566088
sS'feature'
p8
F0.016951792862475928
sS'based'
p9
F0.011076741473908528
sS'field'
p10
F0.0094921190754998618
sS'technique'
p11
F0.01013883883177602
sS'distributed'
p12
F0.017141640589167135
sS'team.'
p13
F0.017778947767739157
sS'best-practices'
p14
F0.03195252633685626
sVComputer Science
p15
F0.0050297541464010987
sS'discovering'
p16
F0.023894954991744901
sS'2+'
p17
F0.0201996187548498
sS'do'
p18
F0.015442177796471359
sS'read'
p19
F0.021380487612802715
sS'scientists'
p20
F0.016438310282527558
sS'unlimited'
p21
F0.02969995123112067
sS'every'
p22
F0.013371171659566396
sS'closely'
p23
F0.013245821638897818
sS'report'
p24
F0.011529313445402383
sS'trouble'
p25
F0.034124000117190571
sS'unique'
p26
F0.015913389712788883
sS'properties.'
p27
F0.041589184326197105
sS'solution'
p28
F0.0073715015117665613
sS'benefit'
p29
F0.012765759041962269
sS'hard-won'
p30
F0.043841767221516108
sS'uncover'
p31
F0.024129728594216186
sS'create/maintain'
p32
F0.051543401003147825
sS'set'
p33
F0.011950209157299996
sS'doing'
p34
F0.025635460562911848
sS'culture'
p35
F0.014554854755102389
sS'growth'
p36
F0.013858719010407746
sS'are'
p37
F0.019549666358232031
sS'year'
p38
F0.0059003877094583428
sS'extract'
p39
F0.01718726961501572
sV(2, 5]
p40
F0.0068830246023951977
sS'what'
p41
F0.02870361726504549
sS'100k'
p42
F0.047692583852678133
sS'lead'
p43
F0.010697315543697643
sS'midtown'
p44
F0.039336601950185367
sS'broad'
p45
F0.017141640589167135
sS'please'
p46
F0.012552859414505948
sS'month.'
p47
F0.037738369772264212
sS'designing'
p48
F0.015375647555970918
sS'new'
p49
F0.007211453292507687
sS'engineer'
p50
F0.021545197795231355
sS'across'
p51
F0.0091261204234736586
sS'be'
p52
F0.016929878466092351
sS'we'
p53
F0.0069334172671108264
sS'full'
p54
F0.014386291283814091
sS'power'
p55
F0.016270703123444284
sS'million'
p56
F0.014103080240784587
sS'data quality'
p57
F0.019637989239923465
sS'job'
p58
F0.0079287191019076879
sS'rapidly'
p59
F0.019709672745173899
sS'about'
p60
F0.013734299657848038
sS'funded'
p61
F0.062965529255904235
sS'experience'
p62
F0.023516826227203556
sS'plus'
p63
F0.01239595670404482
sS'etl'
p64
F0.047496077900253043
sS'redshift'
p65
F0.072875832129238344
sS'reasons'
p66
F0.031049646511038375
sS'65'
p67
F0.021890519167152154
sS'apply'
p68
F0.011366283464284617
sS'manipulate'
p69
F0.023633032080040053
sS'backend'
p70
F0.027339503063652609
sS'ever-increasing'
p71
F0.039336601950185367
sS'data'
p72
F0.0052711772388654632
sS'top'
p73
F0.014604998319355108
sS'system'
p74
F0.017595828171220199
sS'fast'
p75
F0.018327573579431947
sVBachelor
p76
F0.0050632157092772596
sS'today'
p77
F0.018271599812204435
sS'schema'
p78
F0.08118500841302792
sS'door'
p79
F0.032289328752779477
sS'company'
p80
F0.015554482242107733
sS'-'
F0.17680188721920689
sS'serve'
p81
F0.016694359007157371
sS'great'
p82
F0.029953938168571108
sS'glass'
p83
F0.040732792179797667
sS'part'
p84
F0.011439055362641741
sS'excellent'
p85
F0.011231373851631076
sS'scale.'
p86
F0.026862048755442618
sS'effort'
p87
F0.014780439034908881
sS'room'
p88
F0.029922202051474785
sS'avoiding'
p89
F0.038751266271393733
sS'work'
p90
F0.010794129345795597
sS'us'
p91
F0.013452438334439687
sS'machine learning'
p92
F0.0036417651213002185
sS'will'
p93
F0.021307866495318715
sS'data engineering'
p94
F0.022249059755930216
sVEngineering
p95
F0.012513216259815154
sS'warehouse/'
p96
F0.051543401003147825
sS'learn'
p97
F0.027780528461151359
sS'growing'
p98
F0.015977506969174181
sS'expanding'
p99
F0.02405036320366568
sS'start-up'
p100
F0.026015008283222042
sS'contribute'
p101
F0.017018059584915635
sS'engineering'
p102
F0.0068047487615203036
sS'want'
p103
F0.014802763919287972
sS'need'
p104
F0.0098808760683995328
sS'if'
p105
F0.013262749161425736
sS'pay'
p106
F0.021429434516887662
sS'administration'
p107
F0.021331968207125358
sS'tableau'
p108
F0.033483768118729863
sS'also'
p109
F0.01177887010040707
sS'build'
p110
F0.018881533974413858
sS'digital'
p111
F0.014379377607348484
sS'warehouse'
p112
F0.019930446117263828
sS'u'
F0.011646350306095888
sS'you'
p113
F0.020466031027550999
sS'manhattan'
p114
F0.03580333517842104
sS'on..'
p115
F0.040732792179797667
sS'experienced'
p116
F0.016789504138020592
sS'star'
p117
F0.064931419781552729
sS'helping'
p118
F0.015940777966664221
sS'value'
p119
F0.010348845711621217
sS'120k'
p120
F0.051543401003147825
sS'position'
p121
F0.0086481907376638294
sS'extremely'
p122
F0.024501609935365865
sS'well'
p123
F0.020900177013922445
sS'doe'
p124
F0.031334608219023938
sS"you'll"
p125
F0.045759033506962532
sS'so'
p126
F0.0253794014527567
sS'time'
p127
F0.010484250430701395
sS'professional'
p128
F0.01177022435807774
sS'model'
p129
F0.008596726899453561
sS'hadoop'
p130
F0.0071378138966642496
sS'spend'
p131
F0.025531616418116351
s.