(dp1
S'enjoy'
p2
F0.037211000000000001
sS'dedicated'
p3
F0.033016999999999998
sS'computational'
p4
F0.036976000000000002
sS'related field'
p5
F0.019139
sS'figure'
p6
F0.059818999999999997
sS'people'
p7
F0.014873000000000001
sS'improving'
p8
F0.032492
sS'dynamic'
p9
F0.026133
sS'help etsy buyer'
p10
F0.089733999999999994
sS'related'
p11
F0.015982
sS'machine learning data mining'
p12
F0.042296
sS'seller discover'
p13
F0.089733999999999994
sS'every day'
p14
F0.033225999999999999
sS'individual'
p15
F0.018282
sS'learning'
p16
F0.02528
sS'committed'
p17
F0.018678
sS'data science team'
p18
F0.033875000000000002
sS'technology'
p19
F0.0083409999999999995
sS'advancing'
p20
F0.048385999999999998
sS'conference'
p21
F0.041665000000000001
sS'community'
p22
F0.020768999999999999
sS'etsy'
p23
F0.089733999999999994
sS'based'
p24
F0.017033
sS'would'
p25
F0.031293000000000001
sS'area'
p26
F0.015611999999999999
sS'deep learning'
p27
F0.035448
sS'make'
p28
F0.014562
sS'constantly'
p29
F0.045602999999999998
sS'computer vision'
p30
F0.047923
sS'publish'
p31
F0.058230999999999998
sS'looking'
p32
F0.015585
sS'everything'
p33
F0.071834999999999996
sS'content etsy'
p34
F0.089733999999999994
sS'natural'
p35
F0.052968000000000001
sS'algorithmic'
p36
F0.053447000000000001
sS'real etsys mission'
p37
F0.089733999999999994
sS'natural language processing'
p38
F0.032853
sS'care'
p39
F0.028138
sS'apply'
p40
F0.016143000000000001
sS'marketplace'
p41
F0.043465999999999998
sS'etc'
p42
F0.016549999999999999
sS'real'
p43
F0.038205999999999997
sS'field'
p44
F0.022754
sS'motivated'
p45
F0.079463000000000006
sS'recommender systems'
p46
F0.075334999999999999
sS'seeking'
p47
F0.020698000000000001
sS'innovation'
p48
F0.017943000000000001
sS'data scientist'
p49
F0.022780999999999999
sS'mission'
p50
F0.020684000000000001
sS'brooklyn'
p51
F0.097701999999999997
sS'part'
p52
F0.015722
sS'idea'
p53
F0.025600999999999999
sS'curiosity'
p54
F0.044655
sS'humility'
p55
F0.040578000000000003
sS'information retrieval'
p56
F0.043163
sS'blameless environment'
p57
F0.089733999999999994
sS'core'
p58
F0.023928999999999999
sS'believe'
p59
F0.023798
sS'opportunity'
p60
F0.023061999999999999
sS'top tier'
p61
F0.058997000000000001
sS'building'
p62
F0.014976
sS'advance'
p63
F0.033309999999999999
sS'keeping'
p64
F0.050639999999999998
sS'join'
p65
F0.017167999999999999
sS'world'
p66
F0.034819000000000003
sS'brooklyn new york'
p67
F0.077106999999999995
sS'work'
p68
F0.0080059999999999992
sS'drive'
p69
F0.014763
sS'value'
p70
F0.019643999999999998
sS'e-commerce'
p71
F0.099796999999999997
sS'strengthening etsys global'
p72
F0.089733999999999994
sS'advertising'
p73
F0.038077
sS'affect'
p74
F0.058608
sS'team'
p75
F0.0043930000000000002
sS'position'
p76
F0.011298000000000001
sS'celebrate handmade good'
p77
F0.089733999999999994
sS'passionate'
p78
F0.023451
sS'kdd nips icml iclr cvpr iccv www wsdm sigir'
p79
F0.089733999999999994
sS'meet'
p80
F0.021795999999999999
s.