(dp1
S'externally'
p2
F0.010342
sS'next generation'
p3
F0.0072899999999999996
sS'help'
p4
F0.0025010000000000002
sS'leadership skill'
p5
F0.0087399999999999995
sS'move'
p6
F0.0081810000000000008
sS'compliance fccm application'
p7
F0.021410999999999999
sS'equal employment opportunity employer'
p8
F0.010021
sS'manager'
p9
F0.0049969999999999997
sS'directs'
p10
F0.013742000000000001
sS'financial crime'
p11
F0.15731800000000001
sS'skill'
p12
F0.0023240000000000001
sS'completion'
p13
F0.0080029999999999997
sS'25'
p14
F0.010673999999999999
sS'group'
p15
F0.017885999999999999
sS'knowledge'
p16
F0.0046309999999999997
sS'also'
p17
F0.0041729999999999996
sS'implementation'
p18
F0.0085929999999999999
sS'operational'
p19
F0.010819
sS'platform'
p20
F0.0034610000000000001
sS'foster'
p21
F0.0085959999999999995
sS'advanced'
p22
F0.003934
sS'excellent written'
p23
F0.0078480000000000008
sS'policy'
p24
F0.013197
sS'8'
F0.0098359999999999993
sS'latest'
p25
F0.006881
sS'awareness'
p26
F0.0094809999999999998
sS'division'
p27
F0.0076689999999999996
sS'global'
p28
F0.0043420000000000004
sS'vendor'
p29
F0.0078480000000000008
sS'risk'
p30
F0.011534000000000001
sS'design specification'
p31
F0.012681
sS'preferred'
p32
F0.0036219999999999998
sS'job requirements'
p33
F0.0093729999999999994
sS'domain expertise'
p34
F0.021277000000000001
sS'aml'
p35
F0.017919000000000001
sS'design construction'
p36
F0.017919000000000001
sS'software developer'
p37
F0.0090360000000000006
sS'inception'
p38
F0.011767
sS'world'
p39
F0.0038149999999999998
sS'organize interdepartmental activity'
p40
F0.017919000000000001
sS'race color religion sex national origin sexual orientation gender identity disability'
p41
F0.011183
sS'bank'
p42
F0.010104
sS'entire'
p43
F0.0091120000000000003
sS'oral communication skill'
p44
F0.0097610000000000006
sS'internally'
p45
F0.010048
sS'name'
p46
F0.010468999999999999
sS'success'
p47
F0.0044679999999999997
sS'covering'
p48
F0.013406
sS'brightest mind'
p49
F0.016173
sS'employment without regard'
p50
F0.0051749999999999999
sS'related experience'
p51
F0.0076800000000000002
sS'specific'
p52
F0.0054720000000000003
sS'financial institution'
p53
F0.026811000000000001
sS'join u'
p54
F0.0071549999999999999
sS'financial services'
p55
F0.021003999999999998
sS'team'
p56
F0.0048139999999999997
sS'analytical'
p57
F0.010293999999999999
sS'regulatory compliance'
p58
F0.012761
sS'essential'
p59
F0.0086269999999999993
sS'vision'
p60
F0.0054850000000000003
sS'focused exclusively'
p61
F0.021410999999999999
sS'requirement'
p62
F0.0031819999999999999
sS'set'
p63
F0.0053749999999999996
sS'financial'
p64
F0.009691
sS'envision'
p65
F0.013303000000000001
sS'people'
p66
F0.0032590000000000002
sS'product portfolio'
p67
F0.014763
sS'competition'
p68
F0.011363
sS'roadmap'
p69
F0.0077349999999999997
sS'engaging'
p70
F0.019328000000000001
sS'analytics'
p71
F0.0069309999999999997
sS'used'
p72
F0.010579
sS'design'
p73
F0.0020839999999999999
sS'year'
p74
F0.0050689999999999997
sS'customer expectation'
p75
F0.015151
sS'receive consideration'
p76
F0.0049240000000000004
sS'employ'
p77
F0.0079059999999999998
sS'oracle exadata'
p78
F0.019664999999999998
sS'degree'
p79
F0.0057019999999999996
sS'lead'
p80
F0.0091339999999999998
sS'underpins anti-money laundering operational'
p81
F0.021410999999999999
sS'close collaboration'
p82
F0.013625
sS'broad'
p83
F0.031073
sS'specification'
p84
F0.026783000000000001
sS'analyze'
p85
F0.0044619999999999998
sS'world-class team'
p86
F0.013865000000000001
sS'looking'
p87
F0.0034150000000000001
sS'state'
p88
F0.0064819999999999999
sS'various'
p89
F0.0043530000000000001
sS'driving force'
p90
F0.015370999999999999
sS'senior leadership'
p91
F0.019827000000000001
sS'leader'
p92
F0.0039760000000000004
sS'demonstrated'
p93
F0.0051789999999999996
sS'consultant'
p94
F0.0080149999999999996
sS'subordinate manager'
p95
F0.019664999999999998
sS"oracle's financial services"
p96
F0.042820999999999998
sS'detailed description'
p97
F0.011996
sS'product development'
p98
F0.016071999999999999
sS'oracle fsgbu oracle'
p99
F0.021410999999999999
sS'schedule'
p100
F0.0069940000000000002
sS'marketing'
p101
F0.013121000000000001
sS'leveraging'
p102
F0.0063829999999999998
sS'stakeholder'
p103
F0.0051869999999999998
sS'communicate'
p104
F0.0049170000000000004
sS'10 year'
p105
F0.016388
sS'applications'
p106
F0.021277000000000001
sS'leadership'
p107
F0.0085979999999999997
sS'doe business'
p108
F0.01495
sS'bs'
p109
F0.0076160000000000004
sS'based'
p110
F0.0037330000000000002
sS'manufacturing'
p111
F0.0093310000000000008
sS'business'
p112
F0.00173
sS'functionality'
p113
F0.0097359999999999999
sS'advance'
p114
F0.0073000000000000001
sS'intimate knowledge'
p115
F0.016508999999999999
sS'proven'
p116
F0.0070689999999999998
sS'equivalent experience'
p117
F0.007077
sS'pain point'
p118
F0.014589
sS'industry'
p119
F0.014329
sS'current'
p120
F0.010655
sS'disperse'
p121
F0.021410999999999999
sS'experience'
p122
F0.0023519999999999999
sS'qualified applicant'
p123
F0.0046309999999999997
sS'initiate'
p124
F0.011098
sS'amount'
p125
F0.010501999999999999
sS'ensure'
p126
F0.0042240000000000003
sS'mentor'
p127
F0.006881
sS'executive management'
p128
F0.012681
sS'prior experience'
p129
F0.019376000000000001
sS'department'
p130
F0.011594999999999999
sS'software'
p131
F0.015424
sS'negotiation'
p132
F0.013513000000000001
sS'relevant'
p133
F0.0091590000000000005
sS'transform'
p134
F0.0072719999999999998
sS'data science'
p135
F0.0029870000000000001
sS'within'
p136
F0.0030240000000000002
sS'characteristic protected'
p137
F0.0065700000000000003
sS'one'
p138
F0.0029090000000000001
sS'industry experience'
p139
F0.008234
sS'manage'
p140
F0.0042319999999999997
sS'crime'
p141
F0.017357000000000001
sS'quality'
p142
F0.0042129999999999997
sS'market'
p143
F0.014218
sS'engineer'
p144
F0.0042880000000000001
sS'ensures'
p145
F0.0090360000000000006
sS'management'
p146
F0.0085450000000000005
sS'area'
p147
F0.0068430000000000001
sS'leading'
p148
F0.010828000000000001
sS'job title'
p149
F0.010437
sS'system'
p150
F0.0023149999999999998
sS'specifically'
p151
F0.0090550000000000005
sS'strategy'
p152
F0.010663000000000001
sS'priority'
p153
F0.0072719999999999998
sS'risk management'
p154
F0.0082070000000000008
sS'product manager'
p155
F0.046995000000000002
sS'strong'
p156
F0.002555
sS'advanced analytics'
p157
F0.017707000000000001
sS'trend'
p158
F0.0053829999999999998
sS'hundred'
p159
F0.010104
sS'data scientist'
p160
F0.0033279999999999998
sS'extensive experience'
p161
F0.0088400000000000006
sS'define'
p162
F0.0051000000000000004
sS'thorough understanding'
p163
F0.01082
sS'direction'
p164
F0.0059290000000000002
sS'sizeable team'
p165
F0.021410999999999999
sS'pre-sales leadership'
p166
F0.021410999999999999
sS'posting'
p167
F0.011183
sS'relationship'
p168
F0.0052560000000000003
sS'customer facing'
p169
F0.012603
sS'successful'
p170
F0.0062880000000000002
sS'role requires'
p171
F0.010161999999999999
sS'company'
p172
F0.002568
sS'aml fraud fatca kyc cdd edd case'
p173
F0.021410999999999999
sS'apache spark'
p174
F0.010342
sS'required'
p175
F0.0048809999999999999
sS'expected'
p176
F0.0070949999999999997
sS'ensuring'
p177
F0.0069769999999999997
sS'related'
p178
F0.0035019999999999999
sS'suite'
p179
F0.017784999999999999
sS'financial institutions gsifs'
p180
F0.021410999999999999
sS'functional area'
p181
F0.0097859999999999996
sS'marketing sales'
p182
F0.013865000000000001
sS'customer'
p183
F0.0044019999999999997
sS'case'
p184
F0.0091889999999999993
sS'fraud'
p185
F0.02044
sS'conception'
p186
F0.014274
sS'within budget'
p187
F0.012843
sS'developing'
p188
F0.0068149999999999999
sS'wish'
p189
F0.015611
sS'work'
p190
F0.00087699999999999996
sS'functional'
p191
F0.006515
sS'project'
p192
F0.0020400000000000001
sS'matter'
p193
F0.0083730000000000002
sS'r'
F0.0037850000000000002
sS'product management'
p194
F0.022630000000000001
sS'global systemically important'
p195
F0.021410999999999999
sS'distribution'
p196
F0.0088400000000000006
sS'providing'
p197
F0.0043620000000000004
sS'strong communication skill'
p198
F0.0087229999999999999
sS'central resource'
p199
F0.014589
sS'protected veteran status'
p200
F0.0064549999999999998
sS'prospect'
p201
F0.011015
sS'powered'
p202
F0.0084740000000000006
sS'compliance'
p203
F0.067254999999999995
sS'meaningful way'
p204
F0.013513000000000001
sS'process'
p205
F0.0025490000000000001
sS'influence'
p206
F0.0065570000000000003
sS'profitability'
p207
F0.010534999999999999
sS'globally'
p208
F0.0097359999999999999
sS'engineering'
p209
F0.0034009999999999999
sS'expertise'
p210
F0.0033899999999999998
sS'fccm product'
p211
F0.021410999999999999
sS'interacts'
p212
F0.0092490000000000003
sS'documentation'
p213
F0.0059129999999999999
sS'work closely'
p214
F0.0051079999999999997
sS'information'
p215
F0.0029090000000000001
sS'person'
p216
F0.0068190000000000004
sS'travel'
p217
F0.0057419999999999997
sS'responsible'
p218
F0.012407
sS'life cycle'
p219
F0.018418
sS'broad knowledge'
p220
F0.011937
sS'power'
p221
F0.0067510000000000001
sS'application'
p222
F0.013743999999999999
sS'role'
p223
F0.013096999999999999
sS'largest'
p224
F0.007757
sS'test'
p225
F0.0049020000000000001
sS'defines'
p226
F0.011767
sS'senior management'
p227
F0.0090550000000000005
sS'product release'
p228
F0.015611
sS'realize'
p229
F0.0079900000000000006
sS'difficult'
p230
F0.012248
sS'development'
p231
F0.0050699999999999999
sS'product'
p232
F0.022824000000000001
sS'senior director'
p233
F0.013625
sS'mba'
p234
F0.010501999999999999
sS'description'
p235
F0.010422000000000001
sS'newest technology'
p236
F0.016508999999999999
sS'data science engineering'
p237
F0.01495
sS'act'
p238
F0.0072170000000000003
sS'qualifications'
p239
F0.0030360000000000001
sS'aml fraud'
p240
F0.021410999999999999
sS'director'
p241
F0.0076369999999999997
sS'brief'
p242
F0.013513000000000001
sS'important'
p243
F0.0068580000000000004
sS'release management'
p244
F0.014589
sS'70'
p245
F0.015370999999999999
sS'law'
p246
F0.0058809999999999999
sS'opportunity'
p247
F0.0025270000000000002
sS'lifecycle'
p248
F0.010133
sS'ms degree'
p249
F0.0098110000000000003
sS'building'
p250
F0.0098449999999999996
sS'organization'
p251
F0.0028279999999999998
sS'individual'
p252
F0.004006
sS'globally disperse team'
p253
F0.021410999999999999
sS'software engineering'
p254
F0.0072259999999999998
sS'analytical skill'
p255
F0.008659
sS'collateral'
p256
F0.015876000000000001
sS'gather'
p257
F0.0089280000000000002
sS'well'
p258
F0.002977
sS'cyber'
p259
F0.01082
sS'managing'
p260
F0.016989000000000001
sS'part'
p261
F0.0034450000000000001
sS'towards'
p262
F0.0093310000000000008
sS'enterprise'
p263
F0.004666
sS'oracle'
p264
F0.0081290000000000008
sS'professional'
p265
F0.0044349999999999997
sS'software engineer'
p266
F0.0069610000000000002
sS'corporate'
p267
F0.0064549999999999998
sS'review'
p268
F0.011211
sS'impactful'
p269
F0.01166
sS'maturity'
p270
F0.015151
s.