(dp1
S'advertiser'
p2
F0.032722000000000001
sS'externally'
p3
F0.027011
sS'dynamic environment'
p4
F0.025961999999999999
sS'month'
p5
F0.026172999999999998
sS'including'
p6
F0.0055659999999999998
sS'innovative'
p7
F0.011235999999999999
sS'yet'
p8
F0.030054000000000001
sS'strong background'
p9
F0.022657
sS'looking'
p10
F0.017840999999999999
sS'big data'
p11
F0.010244
sS'300 million'
p12
F0.039046999999999998
sS'working knowledge'
p13
F0.016636999999999999
sS'platform'
p14
F0.027123000000000001
sS"world'"
p15
F0.051360999999999997
sS'data structure'
p16
F0.021197000000000001
sS'dailymotion'
p17
F0.176534
sS'unique visitor'
p18
F0.040146000000000001
sS'job requirements'
p19
F0.024479999999999998
sS'computer scienceknowledge'
p20
F0.055920999999999998
sS'resolve'
p21
F0.022329999999999999
sS'building highly-scalable real-time'
p22
F0.051360999999999997
sS'internally'
p23
F0.026245000000000001
sS'fast-paced'
p24
F0.021333000000000001
sS'troubleshoot'
p25
F0.025892999999999999
sS'solution'
p26
F0.0093559999999999997
sS'c++'
p27
F0.073606000000000005
sS'content creator'
p28
F0.037282000000000003
sS'enhance'
p29
F0.017179
sS'view'
p30
F0.020934000000000001
sS'user'
p31
F0.012369
sS'development'
p32
F0.0044140000000000004
sS'programmatic'
p33
F0.032346
sS'java python'
p34
F0.028875999999999999
sS'hard'
p35
F0.028768999999999999
sS'level agreement'
p36
F0.038105
sS'elegant'
p37
F0.032722000000000001
sS'full time'
p38
F0.020681000000000001
sS'video'
p39
F0.047300000000000002
sS'senior bac'
p40
F0.048694000000000001
sS'best'
p41
F0.011363
sS'integrates seamlessly'
p42
F0.046801000000000002
sS'premium partner monetizing content'
p43
F0.051360999999999997
sS'shell script'
p44
F0.041466000000000003
sS'increase'
p45
F0.022657
sS'3'
F0.018201999999999999
sS'passion'
p46
F0.012822999999999999
sS'content'
p47
F0.031664999999999999
sS'issue'
p48
F0.011632
sS'core'
p49
F0.013696
sS'degree'
p50
F0.014893
sS'exchange'
p51
F0.028663999999999999
sS'marketing'
p52
F0.011423000000000001
sS'data scientist'
p53
F0.004346
sS'delivering'
p54
F0.015278
sS'job'
p55
F0.0078320000000000004
sS'new monetization solution'
p56
F0.044132999999999999
sS'key'
p57
F0.010543
sS'highly-experienced team'
p58
F0.051360999999999997
sS'piece'
p59
F0.035013000000000002
sS'language'
p60
F0.012926999999999999
sS'constraint'
p61
F0.026771
sS'brilliant'
p62
F0.032918000000000003
sS'experience'
p63
F0.0012290000000000001
sS'fast-paced environment'
p64
F0.024819999999999998
sS'ensure'
p65
F0.011032999999999999
sS'implement'
p66
F0.018620999999999999
sS'software'
p67
F0.0067140000000000003
sS'campaign'
p68
F0.023045
sS'powerful'
p69
F0.026317
sS'one'
p70
F0.015197
sS'back-end engineer'
p71
F0.036213000000000002
sS'experience designing'
p72
F0.027011
sS'linux'
p73
F0.020965999999999999
sS'back end'
p74
F0.033767999999999999
sS'engineer'
p75
F0.022398999999999999
sS'service'
p76
F0.014050999999999999
sS'leading'
p77
F0.0094269999999999996
sS'system'
p78
F0.0060480000000000004
sS'perl'
p79
F0.028162
sS'high performance'
p80
F0.024590999999999998
sS'function'
p81
F0.013859
sS'billion'
p82
F0.019466000000000001
sS'sharing'
p83
F0.024369999999999999
sS'offering'
p84
F0.020230999999999999
sS'juggling multiple project'
p85
F0.045332999999999998
sS'job description'
p86
F0.013311
sS'part'
p87
F0.0089990000000000001
sS'real-time'
p88
F0.042129
sS'customer'
p89
F0.0057489999999999998
sS'join'
p90
F0.0098259999999999997
sS'14'
p91
F0.040772999999999997
sS'f'
F0.028768999999999999
sS'require'
p92
F0.017308
sS'low latency distributed system'
p93
F0.051360999999999997
sS'optimization'
p94
F0.013696
sS'growing'
p95
F0.018013999999999999
sS'design'
p96
F0.0054429999999999999
sS'problem'
p97
F0.0091050000000000002
sS'providing'
p98
F0.011393
sS'location 156 5th avenue suite 704 new york ny 10010'
p99
F0.051360999999999997
sS'exchange 10042017 nyc new york'
p100
F0.051360999999999997
sS'ad'
p101
F0.044659999999999998
sS'manage multiple task'
p102
F0.039572999999999997
sS'problem-solving abilitiesthe ability'
p103
F0.055920999999999998
sS'technology'
p104
F0.0095479999999999992
sS'11'
p105
F0.035013000000000002
sS'algorithm'
p106
F0.008175
sS'worldwide leadi'
p107
F0.046801000000000002
sS'comfortable working'
p108
F0.026464999999999999
sS'-'
F0.0098440000000000003
sS'monetization'
p109
F0.036906000000000001
sS'tight'
p110
F0.036906000000000001
sS'object-oriented programming'
p111
F0.039046999999999998
sS'nyc'
p112
F0.065836000000000006
sS'effectiveness'
p113
F0.019389
sS'worldwide'
p114
F0.021063999999999999
sS'independent'
p115
F0.022741000000000001
sS'activity dailymotion'
p116
F0.044132999999999999
sS'information'
p117
F0.0075989999999999999
sS'work schedule'
p118
F0.035892
sS'support latency sensitive high-frequency traffic'
p119
F0.051360999999999997
sS'plus'
p120
F0.0101
sS'advertisement'
p121
F0.051360999999999997
sS'distributed multithreaded server-side application'
p122
F0.051360999999999997
sS'ad-exchange stack'
p123
F0.051360999999999997
sS'building'
p124
F0.017142999999999999
sS'e'
F0.037282000000000003
sS'work closely'
p125
F0.013341
sS"world' par"
p126
F0.046801000000000002
sS'attracts'
p127
F0.040772999999999997
sS'coordinate'
p128
F0.020031
sS'position'
p129
F0.0064660000000000004
s.