(dp1
S'help'
p2
F0.0030730000000000002
sS'already complex'
p3
F0.020768999999999999
sS'insight'
p4
F0.012333
sS'trade'
p5
F0.013965999999999999
sS'team spirit'
p6
F0.019186999999999999
sS'identify'
p7
F0.0042640000000000004
sS'business-critical project'
p8
F0.020768999999999999
sS'participate'
p9
F0.0071960000000000001
sS'yet'
p10
F0.014142999999999999
sS'feedback'
p11
F0.010702
sS'best practice'
p12
F0.0064549999999999998
sS'web'
p13
F0.0075209999999999999
sS'inspiring'
p14
F0.0087620000000000007
sS'group'
p15
F0.027480000000000001
sS'larger ecosystem'
p16
F0.020291
sS'technique'
p17
F0.0041980000000000003
sS'emphasis'
p18
F0.011176
sS'desktop'
p19
F0.014973999999999999
sS'environment'
p20
F0.0035839999999999999
sS'business goal'
p21
F0.012121
sS'willing'
p22
F0.0097179999999999992
sS'compelling'
p23
F0.011792
sS'equity'
p24
F0.012867999999999999
sS'digital'
p25
F0.0067980000000000002
sS'excited'
p26
F0.010489
sS'achieve'
p27
F0.0073340000000000002
sS'complex business'
p28
F0.018623000000000001
sS'visual design'
p29
F0.127996
sS'evaluate'
p30
F0.0071260000000000004
sS'appropriate solution'
p31
F0.016
sS'practice'
p32
F0.018481999999999998
sS'objective'
p33
F0.007241
sS"others can't"
p34
F0.022023999999999998
sS'know'
p35
F0.0077359999999999998
sS'keep everyone'
p36
F0.019186999999999999
sS'translate business'
p37
F0.018623000000000001
sS'maintaining'
p38
F0.0086370000000000006
sS'agreed upon'
p39
F0.019186999999999999
sS"'craft'"
p40
F0.022023999999999998
sS'necessary'
p41
F0.017031999999999999
sS'success'
p42
F0.0054920000000000004
sS'follows'
p43
F0.015684
sS'solution'
p44
F0.0022009999999999998
sS'critical client-facing application'
p45
F0.022023999999999998
sS'capability'
p46
F0.0053899999999999998
sS'benefit'
p47
F0.0064599999999999996
sS'team'
p48
F0.0035500000000000002
sS'experienced'
p49
F0.0082520000000000007
sS'domain'
p50
F0.0082249999999999997
sS'art'
p51
F0.01235
sS'co-owners'
p52
F0.021333000000000001
sS'idea'
p53
F0.0068960000000000002
sS'culture'
p54
F0.0063359999999999996
sS'individual'
p55
F0.0049240000000000004
sS'design'
p56
F0.035857
sS'sponsor'
p57
F0.0099439999999999997
sS'investment'
p58
F0.0098510000000000004
sS'best'
p59
F0.021388999999999998
sS'theory'
p60
F0.010742
sS'expert'
p61
F0.0058789999999999997
sS'managing'
p62
F0.0069610000000000002
sS"we'll take"
p63
F0.020768999999999999
sS'looking'
p64
F0.0083960000000000007
sS'always concerned'
p65
F0.021333000000000001
sS'various'
p66
F0.0053509999999999999
sS'provides'
p67
F0.0068040000000000002
sS'innovation'
p68
F0.0048329999999999996
sS'shared'
p69
F0.012153000000000001
sS'ideal candidate'
p70
F0.0076229999999999996
sS'approach'
p71
F0.0050860000000000002
sS'across'
p72
F0.00346
sS'proven track record'
p73
F0.010344000000000001
sS'discipline'
p74
F0.0076010000000000001
sS'ability'
p75
F0.001758
sS'deliver pixel-perfect specification'
p76
F0.022023999999999998
sS"bachelor's degree"
p77
F0.0055519999999999996
sS'leveraging'
p78
F0.0078449999999999995
sS'stakeholder'
p79
F0.019126000000000001
sS'data scientist'
p80
F0.0020449999999999999
sS'standard'
p81
F0.011358999999999999
sS'refinement'
p82
F0.013298000000000001
sS'step'
p83
F0.013252
sS'leadership'
p84
F0.0052839999999999996
sS'operating'
p85
F0.019068000000000002
sS'problem-space'
p86
F0.022023999999999998
sS'path'
p87
F0.012418999999999999
sS'strong'
p88
F0.00314
sS'nurture'
p89
F0.016608999999999999
sS'stage'
p90
F0.012217
sS'markets execution'
p91
F0.088095999999999994
sS'talent'
p92
F0.01409
sS'help craft'
p93
F0.019878
sS'data visualization'
p94
F0.0072350000000000001
sS'created'
p95
F0.013162999999999999
sS'taking'
p96
F0.011599
sS'experience'
p97
F0.001735
sS'keep'
p98
F0.0095340000000000008
sS'qualification'
p99
F0.018593999999999999
sS'leading'
p100
F0.0044359999999999998
sS'help strengthen'
p101
F0.022023999999999998
sS'maker'
p102
F0.019186999999999999
sS'visual designers'
p103
F0.022023999999999998
sS'among'
p104
F0.011762999999999999
sS"what's"
p105
F0.011468000000000001
sS'partnering'
p106
F0.011393
sS'communication'
p107
F0.0064450000000000002
sS'skilled'
p108
F0.011318999999999999
sS'candidates must'
p109
F0.013391999999999999
sS'one'
p110
F0.0071520000000000004
sS'graphic design'
p111
F0.016889999999999999
sS'appropriate'
p112
F0.0064099999999999999
sS'learning'
p113
F0.013618
sS'respect'
p114
F0.0095340000000000008
sS'complex'
p115
F0.0049059999999999998
sS'quality'
p116
F0.0051780000000000003
sS'synthesizing'
p117
F0.018891999999999999
sS'engineer'
p118
F0.0052700000000000004
sS'interactivity'
p119
F0.020768999999999999
sS'natural empathy'
p120
F0.022023999999999998
sS'service'
p121
F0.0033059999999999999
sS'positive'
p122
F0.010222
sS'create'
p123
F0.0041590000000000004
sS'support'
p124
F0.0021189999999999998
sS'ux team'
p125
F0.017932
sS'needed'
p126
F0.0064710000000000002
sS'vehicle'
p127
F0.012867999999999999
sS'active role'
p128
F0.012562
sS'apt design'
p129
F0.022023999999999998
sS'prioritize work'
p130
F0.017367
sS'firm'
p131
F0.0086470000000000002
sS'fixed income investment'
p132
F0.022023999999999998
sS'direction'
p133
F0.0072870000000000001
sS'company'
p134
F0.003156
sS"products' evolution"
p135
F0.024170000000000001
sS'serve'
p136
F0.0075570000000000003
sS'within'
p137
F0.022301000000000001
sS'satisfaction'
p138
F0.014819000000000001
sS'sync'
p139
F0.021333000000000001
sS'job description'
p140
F0.0062639999999999996
sS'language'
p141
F0.012167000000000001
sS'part'
p142
F0.004235
sS'elegant design'
p143
F0.020768999999999999
sS'effort'
p144
F0.0062170000000000003
sS'must'
p145
F0.012959999999999999
sS'join'
p146
F0.0046239999999999996
sS'ux'
p147
F0.039226999999999998
sS'retain top'
p148
F0.021333000000000001
sS'work'
p149
F0.0021559999999999999
sS'recruit'
p150
F0.014671
sS'glean meaning'
p151
F0.022023999999999998
sS'project'
p152
F0.0050140000000000002
sS'mobile'
p153
F0.0084290000000000007
sS'detail oriented'
p154
F0.013076000000000001
sS'actively'
p155
F0.010662
sS'awareness'
p156
F0.011653
sS'product management'
p157
F0.018543
sS'next-generation'
p158
F0.015054
sS"improve peoples' life"
p159
F0.022023999999999998
sS'providing'
p160
F0.0053610000000000003
sS'similar'
p161
F0.0070150000000000004
sS'guide'
p162
F0.017482000000000001
sS'usability'
p163
F0.014204
sS'part inventor part craftsman'
p164
F0.020768999999999999
sS'figure'
p165
F0.016112000000000001
sS'enforcement'
p166
F0.018374999999999999
sS'process'
p167
F0.0031329999999999999
sS'enjoys working collaboratively'
p168
F0.020291
sS'partnership'
p169
F0.010291
sS'influence'
p170
F0.0080590000000000002
sS'comfortable'
p171
F0.0086269999999999993
sS'visual designer'
p172
F0.018623000000000001
sS'critic'
p173
F0.020768999999999999
sS'good'
p174
F0.013461000000000001
sS'work stream'
p175
F0.016746
sS'refine'
p176
F0.012788000000000001
sS'fast-paced informationally overloaded job'
p177
F0.020768999999999999
sS'stakeholder teammate'
p178
F0.022023999999999998
sS'technology'
p179
F0.0022469999999999999
sS'information'
p180
F0.0071520000000000004
sS'interaction design motion design'
p181
F0.021333000000000001
sS'productive'
p182
F0.013440000000000001
sS'end'
p183
F0.028895000000000001
sS'variety'
p184
F0.0061330000000000004
sS'provide'
p185
F0.01259
sS'agency'
p186
F0.0093480000000000004
sS'also'
p187
F0.0051279999999999997
sS'well versed'
p188
F0.016112000000000001
sS'internal'
p189
F0.0049610000000000001
sS'role'
p190
F0.0064390000000000003
sS'take'
p191
F0.0063850000000000001
sS'proposed solution'
p192
F0.018145000000000001
sS'6+ year'
p193
F0.028924999999999999
sS'finding'
p194
F0.0067809999999999997
sS'tool'
p195
F0.002235
sS'portfolio emphasizing depth'
p196
F0.022023999999999998
sS'development'
p197
F0.0020769999999999999
sS'evolve'
p198
F0.022936999999999999
sS'product'
p199
F0.014026
sS'designer'
p200
F0.019982
sS'description'
p201
F0.0064050000000000001
sS'track'
p202
F0.010038999999999999
sS'envelope'
p203
F0.018145000000000001
sS'collaboration'
p204
F0.0060920000000000002
sS'assist'
p205
F0.00677
sS'methodology'
p206
F0.005437
sS'without adding'
p207
F0.020768999999999999
sS'helping'
p208
F0.0066699999999999997
sS'push'
p209
F0.0079909999999999998
sS'skillfully represent'
p210
F0.020768999999999999
sS'user'
p211
F0.023283000000000002
sS'delve'
p212
F0.022023999999999998
sS'larger business context'
p213
F0.022023999999999998
sS'hands-on'
p214
F0.0086569999999999998
sS'identity'
p215
F0.013391999999999999
sS'interaction-complex ux'
p216
F0.022023999999999998
sS'delivery'
p217
F0.0184
sS'collaborate'
p218
F0.010547000000000001
sS'lead'
p219
F0.011226
sS'following'
p220
F0.016863
sS'industry'
p221
F0.003522
sS'clear'
p222
F0.0085159999999999993
sS'steered stakeholder'
p223
F0.022023999999999998
sS'well'
p224
F0.0036589999999999999
sS'drive'
p225
F0.0039760000000000004
sS'help establish'
p226
F0.015786000000000001
sS'thought'
p227
F0.011967
sS'giving'
p228
F0.013639999999999999
sS'complexity'
p229
F0.011084
sS'craft'
p230
F0.012489999999999999
sS'responsibility'
p231
F0.0061289999999999999
sS'presenting'
p232
F0.010845
sS'agenda'
p233
F0.015221
sS'including concepting design standardization specification'
p234
F0.022023999999999998
sS'enjoys balancing'
p235
F0.022023999999999998
sS'order'
p236
F0.0068209999999999998
s.