(dp1
S'mathematical'
p2
I1
sS'nlp'
p3
I1
sS'code'
p4
I1
sVDoctor
p5
I1
sS'kdd'
p6
I1
sS'series'
p7
I1
sS'statistic'
p8
I1
sS'prediction'
p9
I1
sS'dnns'
p10
I1
sS'design'
p11
I1
sS'c++'
p12
I1
sS'year'
p13
I1
sS'design experiment'
p14
I1
sS'machine learning'
p15
I1
sS'finance'
p16
I1
sS'conference'
p17
I1
sS'java'
p18
I1
sS'publication'
p19
I1
sS'working'
p20
I1
sV(5, 10]
p21
I1
sS'system'
p22
I1
sS'computer vision'
p23
I1
sS'write'
p24
I1
sS'responsibilities'
p25
I1
sS'various'
p26
I1
sS'build'
p27
I1
sS'interest'
p28
I1
sS'natural language processing'
p29
I1
sS'test'
p30
I1
sS'analyze'
p31
I1
sS'nips'
p32
I1
sS'journal'
p33
I1
sS'top-tier'
p34
I1
sS'icml'
p35
I1
sS'python'
p36
I1
sS'propose'
p37
I1
sS'equivalent'
p38
I1
sS'processing'
p39
I1
sS'qualifications'
p40
I1
sS'problem'
p41
I1
sS'phd'
p42
I1
sS'desired'
p43
I1
sS'involving'
p44
I1
sS'background'
p45
I1
sS'maintainc++'
p46
I1
sS'probability statistics'
p47
I1
sS'spark'
p48
I1
sS'an'
p49
I1
sS'data'
p50
I1
sS'the'
p51
I1
sS'knowledge'
p52
I1
sS'a'
I1
sS'training'
p53
I1
sS'novel'
p54
I1
sS'skills'
p55
I1
sS'emnlp'
p56
I1
sS'study'
p57
I1
sS'team building'
p58
I1
sS'programming'
p59
I1
sS'solution'
p60
I1
sS'experience'
p61
I1
sS'acl'
p62
I1
sS'3+'
p63
I1
sS'cvpr'
p64
I1
sS'text'
p65
I1
sS'time'
p66
I1
sS'5+'
p67
I1
sS'ml'
p68
I1
sS'model'
p69
I1
sS'solve problem'
p70
I1
s.