(dp1
S'operations'
p2
F0.029600000000000001
sS'help'
p3
F0.010395
sS'office'
p4
F0.020275999999999999
sS'experience working'
p5
F0.0097739999999999997
sS'global'
p6
F0.009025
sS'demonstrated ability'
p7
F0.013671000000000001
sS'new hire'
p8
F0.028087000000000001
sS'including'
p9
F0.0088590000000000006
sS'aspect'
p10
F0.013306999999999999
sS'day-to-day'
p11
F0.021061
sS'self-starter'
p12
F0.017257000000000002
sS'administrative skill showing'
p13
F0.040874000000000001
sS'based'
p14
F0.0077580000000000001
sS'candidate'
p15
F0.0097879999999999998
sS'blog'
p16
F0.027057000000000001
sS'program'
p17
F0.0081930000000000006
sS"buzzfeed news's continued growth"
p18
F0.044503000000000001
sS'employee'
p19
F0.0093830000000000007
sS'breaking news team'
p20
F0.044503000000000001
sS'include'
p21
F0.0097809999999999998
sS'administrative'
p22
F0.025059999999999999
sS'good'
p23
F0.011382
sS'college graduate'
p24
F0.030686000000000001
sS'seeking'
p25
F0.0094280000000000006
sS'read'
p26
F0.018064
sS'new york city'
p27
F0.023244000000000001
sS'online'
p28
F0.027400999999999998
sS'world'
p29
F0.015859999999999999
sS'office event snack career development course'
p30
F0.024811
sS'immediately'
p31
F0.027864
sS'processing freelancer invoice subscription'
p32
F0.044503000000000001
sS"second-to-none you've"
p33
F0.044503000000000001
sS'audience'
p34
F0.012529
sS'team'
p35
F0.0020010000000000002
sS'managing editor'
p36
F0.040874000000000001
sS'noted'
p37
F0.037245
sS'experimentation teamwork equality'
p38
F0.025597999999999999
sS'right'
p39
F0.0126
sS"you'd"
p40
F0.033616
sS'concise'
p41
F0.022811000000000001
sS'twitter'
p42
F0.025059999999999999
sS'engineer brand strategist'
p43
F0.024811
sS'related'
p44
F0.00728
sS'culture'
p45
F0.021430000000000001
sS'see'
p46
F0.013953999999999999
sS'anticipate need'
p47
F0.036075999999999997
sS'operation'
p48
F0.028955000000000002
sS'scale'
p49
F0.011781
sS'managing'
p50
F0.011771
sS'resume'
p51
F0.015173000000000001
sS'fun though'
p52
F0.025458000000000001
sS'whole blurb'
p53
F0.044503000000000001
sS'content'
p54
F0.0126
sS'various'
p55
F0.0090489999999999998
sS'administrative task'
p56
F0.036075999999999997
sS'internet'
p57
F0.017059000000000001
sS'print'
p58
F0.032446999999999997
sS'enjoys'
p59
F0.028818
sS'available'
p60
F0.012588
sS'provide'
p61
F0.0053229999999999996
sS'run'
p62
F0.016240000000000001
sS'ability'
p63
F0.0029729999999999999
sS'reporter'
p64
F0.072152999999999995
sS'expense report greeting guest'
p65
F0.044503000000000001
sS'attention'
p66
F0.034457000000000002
sS'job'
p67
F0.012466
sS'news'
p68
F0.107477
sS'1300 employee'
p69
F0.025189
sS'great'
p70
F0.01238
sS'shift'
p71
F0.018977999999999998
sS'running'
p72
F0.019893000000000001
sS'experience'
p73
F0.00097799999999999992
sS'18 city around'
p74
F0.025597999999999999
sS'amount'
p75
F0.021829000000000001
sS'buzzfeed news team'
p76
F0.038751000000000001
sS'think'
p77
F0.017402999999999998
sS'duty'
p78
F0.014926999999999999
sS'up-to-date'
p79
F0.033616
sS'fast paced environment'
p80
F0.021898000000000001
sS'stock option'
p81
F0.022811000000000001
sS"we're looking"
p82
F0.017930999999999999
sS'within'
p83
F0.0062859999999999999
sS'troubleshooting logistical problem'
p84
F0.044503000000000001
sS'multitask'
p85
F0.026696000000000001
sS'ideal candidate'
p86
F0.012891
sS'confidence'
p87
F0.020445000000000001
sS'management'
p88
F0.0059199999999999999
sS'publishing'
p89
F0.073718000000000006
sS'create'
p90
F0.0070330000000000002
sS'support'
p91
F0.0071679999999999999
sS'start'
p92
F0.017739000000000001
sS"importantly you'll work"
p93
F0.025059999999999999
sS'editor'
p94
F0.059339000000000003
sS'account tumblr'
p95
F0.044503000000000001
sS'head'
p96
F0.062830999999999998
sS'medium'
p97
F0.0135
sS'extremely detail-oriented'
p98
F0.033616
sS'company'
p99
F0.010675
sS'train'
p100
F0.020187
sS"you'll enjoy perk like"
p101
F0.025059999999999999
sS'excellent'
p102
F0.010798
sS'including reporter video producer data scientist'
p103
F0.024811
sS'ha'
p104
F0.0097260000000000003
sS'keeping'
p105
F0.023067000000000001
sS'join'
p106
F0.0078200000000000006
sS'cover letter'
p107
F0.021121000000000001
sS'buzzfeed'
p108
F0.073718000000000006
sS'project'
p109
F0.0042399999999999998
sS'leading independent digital medium'
p110
F0.024811
sS'buzzfeed news'
p111
F0.035122
sS'learn'
p112
F0.0099710000000000007
sS'following'
p113
F0.0095060000000000006
sS'problem'
p114
F0.0072459999999999998
sS'proactive'
p115
F0.021121000000000001
sS'detailed'
p116
F0.018668000000000001
sS'addressed dear buzzfeed news'
p117
F0.044503000000000001
sS'social medium'
p118
F0.018556
sS'organized'
p119
F0.038364000000000002
sS'life'
p120
F0.0086560000000000005
sS'proven'
p121
F0.014692999999999999
sS'general'
p122
F0.014964
sS'onboarding'
p123
F0.031074000000000001
sS'organizational'
p124
F0.016077000000000001
sS'work'
p125
F0.001823
sS'calendar'
p126
F0.032999000000000001
sS'tech company delivering news'
p127
F0.024811
sS'autonomy'
p128
F0.023154999999999999
sS'entertainment content'
p129
F0.024811
sS'infuse hard work'
p130
F0.025322000000000001
sS'travel'
p131
F0.011934999999999999
sS'help connect people'
p132
F0.024811
sS'new york'
p133
F0.016736999999999998
sS'detail'
p134
F0.024080000000000001
sS'application'
p135
F0.0057130000000000002
sS'responsibilities'
p136
F0.006502
sS'interested'
p137
F0.015192000000000001
sS'build'
p138
F0.0051060000000000003
sS'ambitious'
p139
F0.024344999999999999
sS'assistant'
p140
F0.031947999999999997
sS'inspiring colleague'
p141
F0.024811
sS'booking travel'
p142
F0.040874000000000001
sS'humble confidence'
p143
F0.025322000000000001
sS'explains'
p144
F0.035122
sS'tool'
p145
F0.0037799999999999999
sS'obsessed'
p146
F0.031074000000000001
sS'assist'
p147
F0.011448
sS'outgoing enthusiastic'
p148
F0.044503000000000001
sS'fast-growing'
p149
F0.027057000000000001
sS'birthday'
p150
F0.024458000000000001
sS'letter'
p151
F0.029086999999999998
sS'requirements'
p152
F0.0093699999999999999
sS'opportunity'
p153
F0.0052519999999999997
sS'recent'
p154
F0.023816
sS'tracking'
p155
F0.036262999999999997
sS'offer competitive compensation'
p156
F0.028818
sS'us news'
p157
F0.13350899999999999
sS'person'
p158
F0.014173
sS'part'
p159
F0.0071609999999999998
sS'solve'
p160
F0.01038
sS'time'
p161
F0.0079450000000000007
sS'looking'
p162
F0.0070990000000000003
s.