(dp1
S''
F0.011517037826332748
sS'breadth'
p2
F0.014212982762712057
sS'responsible'
p3
F0.0056796985318449105
sS'help'
p4
F0.0091171099538984186
sS'nosql'
p5
F0.0078419680924542174
sS'roi'
p6
F0.014175031091436226
sS'learner'
p7
F0.013787713755772873
sS'global'
p8
F0.011931229507430367
sS'dynamic'
p9
F0.0077284823590549117
sS'focus'
p10
F0.0073285656735629055
sS'competitive'
p11
F0.0072771876293249403
sS'detail'
p12
F0.0084321219322008121
sS'course'
p13
F0.020938799273689798
sS'employer.'
p14
F0.0085093551927458641
sS'planning'
p15
F0.008351971913531148
sS'identify'
p16
F0.0058914161073352934
sS'innovative'
p17
F0.011609684930390171
sS'meritocracy.'
p18
F0.024597894250664939
sS'skill'
p19
F0.0071893692892251301
sS'optimization.'
p20
F0.018000234048836033
sS'impact'
p21
F0.0064234093674530902
sS'partners'
p22
F0.083555526386055068
sS'knowledge'
p23
F0.0079447417950849353
sS'candidate'
p24
F0.0056048819243758041
sS'microsoft powerpoint'
p25
F0.017036132361673961
sS'solving'
p26
F0.0084525147513608168
sS'responsibilities'
p27
F0.0048530977591519572
sS'environment'
p28
F0.0041661883595240793
sS'analytic'
p29
F0.077629546325489157
sS'willing'
p30
F0.011129527521830652
sS'statistical software'
p31
F0.011276496765895384
sS'client-focused'
p32
F0.019463915641855466
sS'employee'
p33
F0.012317665893764075
sVManagement Science and Engineering
p34
F0.0036949700242661673
sS'[0]'
p35
F0.0062928788840813255
sS'smart'
p36
F0.010469399636844899
sS'hardworking'
p37
F0.017599770834081093
sS'attribution'
p38
F0.044275216310932092
sS'python'
p39
F0.0014935573431325672
sS'scientists'
p40
F0.0084782116070342695
sS'possible'
p41
F0.010046994180858295
sS'choice'
p42
F0.011672843588525484
sS'working'
p43
F0.0037410232466697315
sS'deployment'
p44
F0.0086048702007545455
sS'world'
p45
F0.0059527577173628136
sS'strategic'
p46
F0.0069291869958190144
sS'applicants'
p47
F0.010672998906980216
sS'desire'
p48
F0.0099076236603377107
sS'masters'
p49
F0.0073285656735629055
sS'effectiveness'
p50
F0.01022181461001003
sS'fortune'
p51
F0.0079004424851742607
sS'd'
F0.010308501048699006
sS'technology.'
p52
F0.012445132226243305
sS'issue'
p53
F0.0070709295575488015
sS'solution'
p54
F0.007603841100962642
sS'marketer'
p55
F0.013013250128473763
sS'large'
p56
F0.0049857448674717154
sS'benefit'
p57
F0.0065840591047369862
sS'team'
p58
F0.014060044139626525
sS'analytical'
p59
F0.0052930162897986324
sS'including'
p60
F0.0039393644436991537
sS'vision'
p61
F0.007696866751687988
sS'application'
p62
F0.0051635274734229122
sS'r'
F0.0031804716711400639
sVStatistics
p63
F0.0051619047847795991
sS'directly'
p64
F0.0089851522826006908
sS'verbal'
p65
F0.0073703420020918078
sS'client'
p66
F0.02099679884626067
sS'we'
p67
F0.017879872608595256
sS'analytics'
p68
F0.009968337673163628
sS'growth'
p69
F0.021443290159370153
sVMaster
p70
F0.0020838988115305926
sS'result'
p71
F0.010644064604252747
sS'enhanced'
p72
F0.012963417590470764
sS'informed'
p73
F0.012842501008469405
sS'operation'
p74
F0.0065760747766305484
sS'rewarded'
p75
F0.032959626020825937
sS'best'
p76
F0.0052743966443591014
sS'scientific'
p77
F0.009276781188303284
sS'employ'
p78
F0.010260018498199961
sS'scale'
p79
F0.0071380457085253226
sS'business'
p80
F0.010104879914149717
sS'lead'
p81
F0.011034480216994703
sS'profit'
p82
F0.015432654353196164
sS'decision'
p83
F0.006489685224202125
sS'posse'
p84
F0.01066191471412989
sS'please'
p85
F0.0064742541392867354
sS'asia'
p86
F0.018465903530417729
sS'research'
p87
F0.0073337565185822772
sS'looking'
p88
F0.011198413865786525
sS'written'
p89
F0.0058956046507094208
sS'500'
p90
F0.010618001829930222
sS'highly-customized'
p91
F0.024597894250664939
sS'innovation'
p92
F0.011093551129711884
sS'new'
p93
F0.0037193741909781765
sS'approach'
p94
F0.006420890664099903
sS'across'
p95
F0.0094137631875372968
sS'europe'
p96
F0.012681357558605283
sS'profitable'
p97
F0.013690575442730602
sS'segmentation'
p98
F0.0082981412955015488
sS'attention'
p99
F0.01024085287870085
sS'ability'
p100
F0.0036362823396867455
sS'degree'
p101
F0.0035059704724275053
sS'evolving'
p102
F0.010928373472837909
sS'marketing'
p103
F0.03821347179754396
sVEconomics
p104
F0.00470135113903857
sS'data scientist'
p105
F0.0030354488973177028
sS'chart'
p106
F0.029246022309909098
sS'efficiency'
p107
F0.009423747754145553
sS'statistics'
p108
F0.0026719566040189244
sS'statistical modeling'
p109
F0.0051328524933822242
sS'address'
p110
F0.0087714980403816156
sS'modeling'
p111
F0.002327065011523073
sS'strong'
p112
F0.023680706001164602
sS'improve'
p113
F0.0060840010646207839
sS'helping'
p114
F0.0082216046819471606
sS'training'
p115
F0.0067429649026427771
sS'skills.'
p116
F0.0106398741448552
sS'improved'
p117
F0.012818918184222526
sS'talented'
p118
F0.0089789971677957017
sS'package'
p119
F0.0076733819196247903
sS'career'
p120
F0.013099239861069664
sS'many'
p121
F0.0088409607623211577
sS'industry'
p122
F0.0046875715415851428
sS'marketing analytics'
p123
F0.011052430409856099
sS'equal'
p124
F0.0047868733804089948
sS'experience'
p125
F0.0072774132737478056
sS'americas'
p126
F0.01466743549037321
sS'practical'
p127
F0.0096867972605358937
sS'etc'
p128
F0.0062356721724597759
sVOperations Research
p129
F0.009222718905980384
sS'aligning'
p130
F0.01814720597122086
sS'powerpoint'
p131
F0.0070115312519606083
sS'team-oriented'
p132
F0.01555205982440125
sS'consulting'
p133
F0.012948508278573471
sS'technique'
p134
F0.010458401087218816
sS'revenue'
p135
F0.0094891169132242034
sS'communication'
p136
F0.0045363018885697893
sS'data science'
p137
F0.003446535603612032
sS'lead/assist'
p138
F0.02261179971310286
sS'integral'
p139
F0.013013250128473763
sS'leverage'
p140
F0.0079948122638084582
sS'highly'
p141
F0.0055954298416928828
sS'company'
p142
F0.0080223690646973964
sS'drive ... model'
p143
F0.017860434419339773
sS'fast'
p144
F0.009452616745838827
sS'problem solving'
p145
F0.0070332718193502897
sS'apply'
p146
F0.0058622665431840434
sS'big data'
p147
F0.0036467768663686747
sS'market'
p148
F0.0078009195024038259
sS'question'
p149
F0.0078461054852991124
sS'management'
p150
F0.0025961285593113243
sS'marketing mix modeling'
p151
F0.017860434419339773
sS'service'
p152
F0.0046642973031884929
sS'leading'
p153
F0.010333551222201217
sS'support'
p154
F0.004035165558191332
sS'visit'
p155
F0.0083470362119807111
sS'consultancy'
p156
F0.015262387476273884
sS'optimal'
p157
F0.012284794387118055
sS'investment'
p158
F0.010684126146387756
sS'way'
p159
F0.006366032173624748
sS'recommend'
p160
F0.010137674055426297
sS'cost-effective'
p161
F0.016744492207277209
sVBusiness
p162
F0.003099468043478837
sS'strategies.'
p163
F0.01555205982440125
sS'operations research'
p164
F0.0082548381534438674
sS'firm'
p165
F0.0084270463271065472
sS'via'
p166
F0.0095112423163125886
sS'medium'
p167
F0.0084018023089693934
sS'offer'
p168
F0.0059958408350952322
sS'relevant'
p169
F0.0062808662452989508
sS'tool'
p170
F0.0039361903663379287
sS'sophisticated'
p171
F0.022471321656223599
sS'execution.'
p172
F0.016479813010412969
sS'part'
p173
F0.011799598654874002
sS'data processing'
p174
F0.010532144979164399
sS'pricing strategy'
p175
F0.017248475585752366
sS'quick'
p176
F0.012226907777103255
sS'with'
p177
F0.0083618688989963996
sS'wiser'
p178
F0.021450009108067273
sS'wide'
p179
F0.016596282591003098
sS'made'
p180
F0.0099161384939098641
sS'culture'
p181
F0.0075068018794224355
sS'science'
p182
F0.0020144237484071414
sS'clients'
p183
F0.023669534028195084
sS'need'
p184
F0.005096153846165948
sS'budget'
p185
F0.011801641984145487
sS'project'
p186
F0.0043095108013698757
sS'optimization'
p187
F0.0057306844051247625
sS'ongoing'
p188
F0.010184113433257961
sS'achieve'
p189
F0.0081747872087517427
sS'learn'
p190
F0.0071640331275175419
sS'growing'
p191
F0.0082405480070239321
sS'making'
p192
F0.0085940988082549175
sS'problem'
p193
F0.0051425038868119213
sS'toward'
p194
F0.011801641984145487
sS'guide'
p195
F0.0096789365371160677
sS'spss'
p196
F0.0063219164207953156
sS'website'
p197
F0.0094744609999784426
sS'economics'
p198
F0.0068667387517463074
sS'challenging'
p199
F0.0086758890083809721
sS'forecasting'
p200
F0.016803604617938787
sS'process'
p201
F0.0095481872604139453
sS'share'
p202
F0.0092631696816696946
sS'promotional'
p203
F0.01814720597122086
sS'centered'
p204
F0.017360855584829981
sS'ap'
p205
F0.043944840355496076
sS'as'
p206
F0.011799598654874002
sS'collaborate'
p207
F0.006956372945115692
sS'at'
p208
F0.0059314567321167811
sS'sas'
p209
F0.0039691600477862942
sS'data modeling'
p210
F0.0074848187530609494
sS'work'
p211
F0.0083507590927358478
sS'variety'
p212
F0.0072400874969671472
sS'provide'
p213
F0.004537606118652773
sS'make'
p214
F0.0054197481266562699
sS'predictive modeling'
p215
F0.0059570369876474774
sS'excel'
p216
F0.0046331066670660904
sS'cross'
p217
F0.010774734858837237
sS'econometrics'
p218
F0.0087887064749004023
sS'member'
p219
F0.0060023595555692864
sS'field'
p220
F0.0048956488068480665
sS'methodology'
p221
F0.03458593334685349
sS'results-oriented'
p222
F0.015207808388893546
sS'business planning'
p223
F0.013820839053556301
sS'build'
p224
F0.00486916348910386
sS'digital'
p225
F0.0074162979063688459
sS'performance'
p226
F0.011209763848751608
sS'careers'
p227
F0.011818156629540472
sVData Science
p228
F0.0029435214401291191
sS'simulation'
p229
F0.0076929392196973395
sS'development'
p230
F0.0034698022991808556
sS'description'
p231
F0.00583546214021853
sS'assist'
p232
F0.0083917666539254174
sS'processing'
p233
F0.0046793354918931804
sS'return'
p234
F0.013690575442730602
sS'hand'
p235
F0.010607127968911775
sS'allocation'
p236
F0.013957308036623711
sS'fast-growing'
p237
F0.014758405436977364
sS'sql'
p238
F0.0019539938648511375
sS'data'
p239
F0.00033983234347986508
sS'engineering'
p240
F0.0035096125417583227
sS'salary'
p241
F0.0090223632702755747
sS'individual'
p242
F0.0058705647667314726
sS'database'
p243
F0.005641087002634426
sS'corporate'
p244
F0.0090036973659574776
sS'people.'
p245
F0.013168168926249118
sS'well'
p246
F0.0053897304620430372
sS'spend'
p247
F0.013168168926249118
sS'data management'
p248
F0.0078794215031784253
sS'edge'
p249
F0.016763532058573189
sS'organization'
p250
F0.0050521026913515222
sS'the'
p251
F0.003510523783315836
sS'increase'
p252
F0.010289009471687378
sS'opportunity'
p253
F0.010874632372268307
sS'pacific.'
p254
F0.024597894250664939
sS'others'
p255
F0.0076078683500965284
s.