(dp1
S''
F0.0082059999999999998
sS'concept'
p2
F0.0078279999999999999
sS'help'
p3
F0.0079740000000000002
sS'nosql'
p4
F0.012315
sS'experience working'
p5
F0.014995
sS'insight'
p6
F0.0053330000000000001
sS'python scala'
p7
F0.01537
sS'bring'
p8
F0.0071780000000000004
sS'paper'
p9
F0.019032
sS'skill'
p10
F0.011117999999999999
sS'digital medium'
p11
F0.017434000000000002
sS'hands-on experience using'
p12
F0.031352999999999999
sS'note'
p13
F0.015642
sS'loading'
p14
F0.019858000000000001
sS'knowledge'
p15
F0.003692
sS'data store'
p16
F0.018192
sS'data mechanic'
p17
F0.034137000000000001
sS'short'
p18
F0.014944000000000001
sS'better'
p19
F0.0091070000000000005
sS'platform'
p20
F0.0055189999999999996
sS'excellent written'
p21
F0.012512000000000001
sS'include'
p22
F0.0075030000000000001
sS'exchanged'
p23
F0.034137000000000001
sS'also work'
p24
F0.015890999999999999
sS'global'
p25
F0.013845
sS'greater'
p26
F0.015563
sS'get'
p27
F0.0090840000000000001
sS'opaque world'
p28
F0.034137000000000001
sS'express'
p29
F0.019424
sS'masters'
p30
F0.011244000000000001
sS'preferred'
p31
F0.0057749999999999998
sS'amazon'
p32
F0.019321999999999999
sS'data collection'
p33
F0.013535
sS'background'
p34
F0.0073619999999999996
sS'treated additionally'
p35
F0.034137000000000001
sS'using'
p36
F0.0044590000000000003
sS'hands-on experience'
p37
F0.012980999999999999
sS'data collector comply'
p38
F0.034137000000000001
sS'regarding'
p39
F0.013986999999999999
sS'identifying'
p40
F0.010739
sS'--'
p41
F0.013908
sS'junior team member'
p42
F0.017627
sS'audience mezzobit'
p43
F0.034137000000000001
sS'audience'
p44
F0.0096109999999999998
sS'team'
p45
F0.0046049999999999997
sS'make sense'
p46
F0.020899999999999998
sS'mean'
p47
F0.012919
sS'j'
F0.028569000000000001
sS'recruiter'
p48
F0.015259
sS'eg'
p49
F0.0079620000000000003
sS'related'
p50
F0.0055840000000000004
sS'analytics'
p51
F0.0036840000000000002
sS'expect'
p52
F0.017311
sS'mezzobit'
p53
F0.034137000000000001
sS'statistic'
p54
F0.014704
sS'dream'
p55
F0.018506999999999999
sS'scale'
p56
F0.0090369999999999999
sS'expert'
p57
F0.015252999999999999
sS'systemize customer'
p58
F0.034137000000000001
sS'digital publisher'
p59
F0.028569000000000001
sS'please'
p60
F0.01206
sS'publish'
p61
F0.020346
sS'research'
p62
F0.0094820000000000008
sS'looking'
p63
F0.0054450000000000002
sS'collecting'
p64
F0.019528
sS'state'
p65
F0.010333999999999999
sS'r'
F0.0060350000000000004
sS'third-party data collector interact'
p66
F0.034137000000000001
sS'internet'
p67
F0.065428
sS'analytics platform'
p68
F0.015934
sS'apply'
p69
F0.00564
sS'marketer'
p70
F0.016743999999999998
sS'large datasets'
p71
F0.013934
sS'data science team'
p72
F0.011835999999999999
sS'business'
p73
F0.0055180000000000003
sS'resume'
p74
F0.011638000000000001
sS'300'
p75
F0.024507000000000001
sS'word'
p76
F0.018117000000000001
sS'empower'
p77
F0.01537
sS'never'
p78
F0.017971000000000001
sS'data scientist'
p79
F0.015918999999999999
sS'standard'
p80
F0.0073680000000000004
sS'mentoring'
p81
F0.012043999999999999
sS'modeling'
p82
F0.0067790000000000003
sS'along'
p83
F0.01206
sS'electrical engineering computer science'
p84
F0.026941
sS'spoken english'
p85
F0.031352999999999999
sS'good fit'
p86
F0.024157000000000001
sS'mezzobits drive'
p87
F0.034137000000000001
sS'monitor'
p88
F0.011565000000000001
sS'revolutionary'
p89
F0.021052000000000001
sS'agile scrum'
p90
F0.019032
sS'100+'
p91
F0.028569000000000001
sS'extension'
p92
F0.020754000000000002
sS'similar'
p93
F0.018199
sS'economics'
p94
F0.012779
sS'technical discipline'
p95
F0.015890999999999999
sS'experience'
p96
F0.0022499999999999998
sS'advertising'
p97
F0.013304
sS'prior experience'
p98
F0.015446
sS'analysis'
p99
F0.0032910000000000001
sS'support'
p100
F0.0027490000000000001
sS'5+ year'
p101
F0.020604000000000001
sS'among'
p102
F0.015259
sS'technique'
p103
F0.0054450000000000002
sS'mathematics physic'
p104
F0.029725000000000001
sS'utilizes'
p105
F0.023261
sS'redshift'
p106
F0.017434000000000002
sS'data science'
p107
F0.0047619999999999997
sS'data manipulation'
p108
F0.015764
sS'thought leader'
p109
F0.015187000000000001
sS'groundbreaking'
p110
F0.023836
sS'senior data scientist'
p111
F0.012403000000000001
sS'respect'
p112
F0.012368000000000001
sS'high-growth technology company'
p113
F0.034137000000000001
sS'data leakage'
p114
F0.034137000000000001
sS'environment'
p115
F0.0092980000000000007
sS'strong'
p116
F0.0040740000000000004
sS'privacy'
p117
F0.036384
sS'interact'
p118
F0.010884
sS'trillion'
p119
F0.023836
sS'recruiting'
p120
F0.014714
sS'system'
p121
F0.003692
sS'submit'
p122
F0.017760999999999999
sS'attach'
p123
F0.025786
sS'new york'
p124
F0.012838
sS'change'
p125
F0.0073169999999999997
sS'architecting'
p126
F0.016487999999999999
sS"year's end"
p127
F0.031352999999999999
sS'globally distributed'
p128
F0.02121
sS'anomaly'
p129
F0.019126000000000001
sS'on-line'
p130
F0.022529
sS'building'
p131
F0.0052319999999999997
sS'medium'
p132
F0.010356000000000001
sS'golang kafka'
p133
F0.034137000000000001
sS'brand'
p134
F0.0099760000000000005
sS'transaction'
p135
F0.016389999999999998
sS'understand'
p136
F0.0057210000000000004
sS'data processing'
p137
F0.013583
sS'data flow'
p138
F0.017694000000000001
sS'highest'
p139
F0.017829999999999999
sS'present'
p140
F0.009195
sS'customer'
p141
F0.0035100000000000001
sS'fraud'
p142
F0.016295
sS'detecting non-human web traffic'
p143
F0.034137000000000001
sS'language'
p144
F0.0078910000000000004
sS'developing'
p145
F0.010865
sS'work'
p146
F0.0041960000000000001
sS'machine learning'
p147
F0.0043530000000000001
sS'future'
p148
F0.0061159999999999999
sS'proven ability'
p149
F0.012819000000000001
sS'transparency'
p150
F0.018426000000000001
sS'problem'
p151
F0.0055579999999999996
sS'treated'
p152
F0.029725000000000001
sS'control'
p153
F0.023989
sS'gathering'
p154
F0.017434000000000002
sS'krakow'
p155
F0.034137000000000001
sS'enable mezzobit'
p156
F0.034137000000000001
sS'nodejs'
p157
F0.018426000000000001
sS'process'
p158
F0.004065
sS'cover'
p159
F0.018346000000000001
sS'metric'
p160
F0.010064999999999999
sS'site'
p161
F0.012279999999999999
sS'engineering'
p162
F0.010847000000000001
sS'data collector operate'
p163
F0.034137000000000001
sS'statistical analysis'
p164
F0.0079209999999999992
sS'angularjs'
p165
F0.019975
sS'seen'
p166
F0.021052000000000001
sS'technology'
p167
F0.005829
sS'information'
p168
F0.0046389999999999999
sS'develop'
p169
F0.0031329999999999999
sS'supported'
p170
F0.019223000000000001
sS'predictive modeling'
p171
F0.0094529999999999996
sS'hadoop'
p172
F0.0077879999999999998
sS'industry conference'
p173
F0.024889000000000001
sS'hadoop storm'
p174
F0.034137000000000001
sS'also'
p175
F0.013305000000000001
sS'build'
p176
F0.0039170000000000003
sS'huge plus'
p177
F0.020094999999999998
sS'youre'
p178
F0.016487999999999999
sS'area'
p179
F0.0054549999999999998
sS'product'
p180
F0.003032
sS'hand dirty'
p181
F0.023261
sS'transforming'
p182
F0.014811
sS'mongodb'
p183
F0.015764
sS'phd'
p184
F0.0064479999999999997
sS'public forum'
p185
F0.031352999999999999
sS'user'
p186
F0.0075510000000000004
sS'sql'
p187
F0.0044660000000000004
sS'tackle'
p188
F0.017434000000000002
sS'frequently'
p189
F0.018849000000000001
sS'data'
p190
F0.0039199999999999999
sS'stack'
p191
F0.027973999999999999
sS'billion'
p192
F0.011882999999999999
sS'collaborate'
p193
F0.0068409999999999999
sS'tracking'
p194
F0.013908
sS'new york city-based start-up'
p195
F0.034137000000000001
sS'lead'
p196
F0.0097079999999999996
sS"we're assembling"
p197
F0.034137000000000001
sS'required'
p198
F0.0038909999999999999
sS'well'
p199
F0.0047460000000000002
sS'tell u'
p200
F0.021373
sS'daily'
p201
F0.013488
sS'element'
p202
F0.017311
sS'e-commerce'
p203
F0.017434000000000002
sS'part'
p204
F0.0054929999999999996
sS'presenting'
p205
F0.014068000000000001
sS'enterprise'
p206
F0.0074400000000000004
sS'position'
p207
F0.003947
sS'consumer'
p208
F0.016799999999999999
sS"that's"
p209
F0.031612000000000001
s.