(dp1
S'all'
p2
F0.0046239465016786833
sS'existing'
p3
F0.0047429758216813991
sS'ct-hartford'
p4
F0.011956586887042278
sS'integrity'
p5
F0.010532542596992652
sVBusiness
p6
F0.0020068911821412138
sS'technique'
p7
F0.010157649293430519
sS'environment'
p8
F0.0026975876390981516
sS'0'
F0.009083103767017868
sS'position.'
p9
F0.0072926237217410331
sS'under'
p10
F0.0099550904553301033
sVPhysics
p11
F0.0048677775532469216
sS'woman'
p12
F0.0073373307425407472
sS'provider'
p13
F0.005351163691794174
sS'difference'
p14
F0.0058459846267182305
sS'level'
p15
F0.0072313944238685231
sS'fast-paced'
p16
F0.0060468595366474122
sS'problems.'
p17
F0.012433844578060928
sS'solution'
p18
F0.0098469036891872426
sS'roadblock'
p19
F0.010150563643238865
sS'excellence'
p20
F0.0050829997268089346
sS'team'
p21
F0.0054622880201072241
sS'quick'
p22
F0.0079168660745993248
sS'direct'
p23
F0.0057512301060781779
sS'design'
p24
F0.0027094968645982888
sS'click'
p25
F0.0071319322619259919
sS'what'
p26
F0.0047928117882265198
sS'section'
p27
F0.010234909073900634
sS'new'
p28
F0.0024082775373866117
sS'full'
p29
F0.0096086546608034756
sS'degree'
p30
F0.0068102988583146531
sS'eligibility'
p31
F0.006246845890323394
sS'empower'
p32
F0.0071482064718072329
sS'understanding'
p33
F0.0031451895492466521
sS'desired'
p34
F0.010330686577293911
sS'address'
p35
F0.005679504297018894
sS'consideration'
p36
F0.0047951091848550649
sS'discipline.'
p37
F0.0094121071067411639
sS'data gathering'
p38
F0.0088238072536984177
sS'skills.'
p39
F0.0068892691587281356
sS'receive'
p40
F0.0046749500218146228
sS'inspired'
p41
F0.0075786123592473283
sS'economics'
p42
F0.0044461814923181103
sS'experience'
p43
F0.0047120913405157405
sS'credit'
p44
F0.0058952408612943348
sS'healthier'
p45
F0.0076203052756788989
sS'social'
p46
F0.0046155806081066789
sS'action'
p47
F0.013865554465354384
sS'via'
p48
F0.0061584852845883
sS'regardless'
p49
F0.006051378945415597
sS'secure'
p50
F0.0071319322619259919
sS'partnering'
p51
F0.0081400285547727005
sS'requiring'
p52
F0.0080581653932447379
sS'analytically'
p53
F0.0097119965627850864
sS'flexibility'
p54
F0.0072489687494916863
sS'should'
p55
F0.0080185497271074383
sS'select'
p56
F0.0069324162854912099
sS'use'
p57
F0.0064822637160299032
sS'would'
p58
F0.0056906466785533226
sS'live'
p59
F0.0064653601821400408
sS'recommend'
p60
F0.0065640969301368791
sS'organization.'
p61
F0.014199611922301444
sS'posting'
p62
F0.0070682265294698685
sS'company'
p63
F0.002597223379943777
sS'identify ... trend'
p64
F0.00796701134081719
sS'customer'
p65
F0.0029431539044362581
sS'join'
p66
F0.0036513364327453615
sS'effectively'
p67
F0.0043917533405875122
sS'this'
p68
F0.011857801858666119
sS'science'
p69
F0.0013043300337552736
sS'work'
p70
F0.003604718519931739
sS'machine learning'
p71
F0.0012161738809536907
sS'meet'
p72
F0.0043696902943634926
sS'industry'
p73
F0.0060703616623866974
sS'claim'
p74
F0.0082700224719305451
sS'challenging'
p75
F0.0056175978922540998
sS'programming'
p76
F0.0020451117529404006
sS'validates'
p77
F0.010234909073900634
sS'heard'
p78
F0.0084754958469317361
sS'communities.'
p79
F0.0070066359513193789
sS'occur'
p80
F0.009882325100592922
sS'information'
p81
F0.015440874206264133
sS'needs'
p82
F0.0073738886222898441
sS'ma-wellesley'
p83
F0.01185054176577199
sS'travel'
p84
F0.0048582394723082484
sS'conducted'
p85
F0.0081681391634407467
sS'machine'
p86
F0.0037731269545603786
sS'unstructured data'
p87
F0.0059161566483361041
sS'product'
p88
F0.0049906971826261474
sS'explores'
p89
F0.021233644887703112
sS'description'
p90
F0.0075568693392811387
sS'may'
p91
F0.004283972297180162
sS'derived'
p92
F0.0085092289306688065
sS'data'
p93
F0.0030805581266096864
sS'applicant'
p94
F0.0040375688092550311
sS'deposit'
p95
F0.0088037500688568429
sS'fundamental'
p96
F0.0070526361327171655
sS'healthcare'
p97
F0.0050041564810949244
sS'help'
p98
F0.0029516432039986529
sS'insight'
p99
F0.0068085096697940084
sS'vary'
p100
F0.0083154598366527322
sS'tableau'
p101
F0.0037273211263892242
sS'executes'
p102
F0.009744834194741446
sS'statistical'
p103
F0.0077170815540314264
sS'committed'
p104
F0.0041755156109399413
sS'converting'
p105
F0.010278564739828555
sS'personal'
p106
F0.010297159136677028
sS'edge'
p107
F0.0054271546274972573
sS'better'
p108
F0.0050118917089786649
sS'platform'
p109
F0.0035277427148878407
sS'someone'
p110
F0.0065640969301368791
sS'python'
p111
F0.00096707145223240442
sS'primary'
p112
F0.0051485795683385138
sS'band'
p113
F0.0086142722203767265
sS'qualified'
p114
F0.0041558675073755649
sS'masters'
p115
F0.0047452122821399888
sS'communication skills'
p116
F0.0068332576105011571
sS'end-to-end'
p117
F0.0070760711354738975
sVStatistics
p118
F0.0033423094061003343
sS'financial'
p119
F0.0047609434617349611
sS'generation'
p120
F0.0054996579553108728
sS'related'
p121
F0.002774079863886243
sS'year'
p122
F0.0019704448751437877
sS'operation'
p123
F0.0042579779165938065
sS'extract'
p124
F0.0057397189808957878
sS'large'
p125
F0.006456493353423483
sS'req'
p126
F0.0079292758977471678
sS'looking'
p127
F0.0036254605187008323
sS'health'
p128
F0.024350848780717273
sS'performs'
p129
F0.0069179221244699942
sS'data scientist'
p130
F0.0019654390819366942
sS'business analytics'
p131
F0.0056355921960280402
sS'assures'
p132
F0.011478240612597248
sS'york'
p133
F0.0055507684371445499
sS'generate'
p134
F0.0058059137972381637
sS'card'
p135
F0.0070760711354738975
sS'care'
p136
F0.021429514878084911
sS'iterative'
p137
F0.008225671376511999
sS'creates'
p138
F0.013212663457542432
sS'outcomes.'
p139
F0.0092785764346613019
sS'place'
p140
F0.0057131342475807778
sS'recruiter'
p141
F0.0083620380197843864
sS'organize'
p142
F0.0072232604855939986
sS'number'
p143
F0.0054929483940325419
sS'improvements'
p144
F0.0099550904553301033
sS'notify'
p145
F0.0089489291831004632
sS'quality'
p146
F0.0040208357420064116
sS'decision making'
p147
F0.0060604509275130128
sS'service'
p148
F0.0030201108697825311
sS'privacy'
p149
F0.0077740832926930306
sS'leading'
p150
F0.0033454632435512294
sS'interact'
p151
F0.0064824068345272707
sS'engagement'
p152
F0.0054142713279216022
sS'moderately'
p153
F0.011098288951613937
sS'system'
p154
F0.0029380789154171017
sS'statement'
p155
F0.007091860565383328
sS'agility'
p156
F0.0092028404159304415
sS'tool'
p157
F0.0050973300105823264
sS'prediction'
p158
F0.0073738886222898441
sS'part'
p159
F0.0076401853999091413
sS'expanding'
p160
F0.0080316611811870539
sS'10'
p161
F0.0051964758467089719
sS'analytics'
p162
F0.0048408393060307602
sS'structured'
p163
F0.0052692372129559666
sS'recruit'
p164
F0.0078322466739805339
sS'project'
p165
F0.0083711647662973281
sS'data engineering'
p166
F0.0074301127199766955
sS'r'
F0.0010296703276696498
sS'outcome'
p167
F0.011740898542688078
sS'locations'
p168
F0.007762666275809205
sS'affirmative'
p169
F0.020356792320534646
sS'sas'
p170
F0.0025700127211083796
sS'any'
p171
F0.0075479462710660306
sS'documents'
p172
F0.0093045247621194628
sS'built'
p173
F0.0064540821503565543
sS'background/experience'
p174
F0.0085092289306688065
sS'responsible'
p175
F0.0036775784556843669
sS'-'
F0.0036902063658925373
sS'potential'
p176
F0.0047859366208994553
sS'take'
p177
F0.0088657934052124802
sS'objective'
p178
F0.0057131342475807778
sS'effectiveness'
p179
F0.0066185775489675334
sS"bachelor's"
p180
F0.0091120612364417684
sS'multiple'
p181
F0.0072313944238685231
sS"candidate's"
p182
F0.0090148037805640562
sS'business.'
p183
F0.0068963910192736374
sS'metrics'
p184
F0.0080986454803912977
sS'regular'
p185
F0.0060925568510648131
sS'plenty'
p186
F0.010513724736607385
sS'organization'
p187
F0.0032712130598918018
sS'services'
p188
F0.0052310453418989945
sS'america'
p189
F0.0061972380492836595
sS'model'
p190
F0.0028708921000030444
sS'achievement'
p191
F0.0074492392185136523
sS'request'
p192
F0.011908819589652973
sS'professional'
p193
F0.0039306871696734571
sS'consumer'
p194
F0.0099168209353973809
sS'recruiter.'
p195
F0.0092529860289886617
sS'employer.'
p196
F0.0055097680190506612
sS'solutions'
p197
F0.0047318337869513439
sS'big data'
p198
F0.0023612711064242443
sS'title'
p199
F0.0060110952367372393
sS'written'
p200
F0.0038173766662292908
sS'employer'
p201
F0.0040997213744350443
sS'analytic'
p202
F0.0083774618638205664
sS'employee'
p203
F0.0039878157670905955
sS'data modeling'
p204
F0.0048463854263789824
sS'exceptional'
p205
F0.0055891651970567226
sS'scalable'
p206
F0.0054663502207819258
sS'preferred'
p207
F0.0057926377571114428
sS'drivers.'
p208
F0.011655068057595131
sS'resolve'
p209
F0.0068751069362627971
sS'summary'
p210
F0.0053667404776974051
sS'investigate'
p211
F0.0075378358605024832
sS'characteristic'
p212
F0.0055097680190506612
sS'analytical'
p213
F0.0068544069949525886
sS'including'
p214
F0.0076521606169814727
sS'view'
p215
F0.0066938001328643677
sS'predictive'
p216
F0.0079637495641297663
sS'requirement'
p217
F0.0035417252799960675
sS'set'
p218
F0.0039907934106011116
sS'culture'
p219
F0.0048606193987354917
sS'individual'
p220
F0.0038011634574940333
sS'result'
p221
F0.0034459912308758894
sS'job.'
p222
F0.0079168660745993248
sV(2, 5]
p223
F0.002298598197460363
sS'creating'
p224
F0.0092103520424787599
sS'detect'
p225
F0.008650651226757667
sS'pattern'
p226
F0.0048582394723082484
sS'review'
p227
F0.0053667404776974051
sS'currently'
p228
F0.0054929483940325419
sS'please'
p229
F0.0041920495261800941
sS'3'
F0.0050352928245509434
sS'future'
p230
F0.004031466577731414
sS'various'
p231
F0.0084612926196138138
sS'across'
p232
F0.0030476840004179193
sS'we'
p233
F0.016207988416622712
sS'ability'
p234
F0.002354475949073607
sS'stakeholder'
p235
F0.0047974094303002432
sS'job'
p236
F0.007943429155900095
sS'seriously.'
p237
F0.0091300752346149712
sS'modeling'
p238
F0.0015067638015242161
sS'come'
p239
F0.0058178444278805955
sS'improve'
p240
F0.015757449881652345
sS'prescription'
p241
F0.010616822443851556
sS'data visualization'
p242
F0.0036488564481996304
sS'career'
p243
F0.004240848526450197
sS'equal'
p244
F0.0061989566224962492
sS'workplace'
p245
F0.0053173483196463237
sS'asked'
p246
F0.0078801270265957957
sS'relevant'
p247
F0.0040668317617983934
sS'color'
p248
F0.0037067522408873342
sS'data science'
p249
F0.0022316158175521321
sS'drive ... decision'
p250
F0.007488094134933421
sS'learning'
p251
F0.0067524601224022863
sS'forms'
p252
F0.010369084178083316
sS'utilizing'
p253
F0.0053021791302458052
sS'excellence.'
p254
F0.0080850537426958441
sVComputer Science
p255
F0.0016796952622489755
sS'website'
p256
F0.006134669552861737
sS'diversity'
p257
F0.0046792642991943471
sVData Science
p258
F0.0019059164797867582
sS'lives'
p259
F0.0076308765700031193
sVChemical Engineering
p260
F0.0069765908455179885
sS'present'
p261
F0.0051936239249109123
sS'developing'
p262
F0.010432070159187214
sS'value'
p263
F0.006912030530952947
sS'dashboard'
p264
F0.013010764263894416
sS'evaluates'
p265
F0.0084922857208565346
sS'voice'
p266
F0.0069840566281274153
sS'examines'
p267
F0.011750231695651356
sVEconomics
p268
F0.0030441030566316528
sS'need'
p269
F0.0065994719566304857
sS'good'
p270
F0.0046556589902557888
sS'audiences'
p271
F0.0086323725570573284
sS'statistical analysis'
p272
F0.0047768091900048382
sS'partner'
p273
F0.0038433409880180322
sS'technology'
p274
F0.0023520111437794295
sS're-shape'
p275
F0.0086691117784805441
sS'develop'
p276
F0.0084750914029847347
sS'prior'
p277
F0.0061536976164594283
sS'make'
p278
F0.007018523548063222
sS'hadoop'
p279
F0.0023836855313535527
sS'complex'
p280
F0.0030539673380554355
sS'several'
p281
F0.0065760662220405407
sS'reporting'
p282
F0.0050144773026325733
sS'mathematical analysis'
p283
F0.0089706285268639531
sS'proficiency'
p284
F0.0048558625953370954
sS'opportunity'
p285
F0.011735456703530116
sS'lower'
p286
F0.0095861668365528792
sS'scenario'
p287
F0.0074685649586078619
sS'ny-new'
p288
F0.01156454844591759
sS'analysis'
p289
F0.00063565625557352498
sS'cutting'
p290
F0.0057861983515651392
sS'solve'
p291
F0.0043085668452673455
sS'components'
p292
F0.0082551206570456916
sS'position'
p293
F0.017328471236877429
sS'the'
p294
F0.0045460957342383186
sS'veteran'
p295
F0.0036402025226819905
sS'able'
p296
F0.0042735307908972637
sS'assigned'
p297
F0.006134669552861737
sS'sources'
p298
F0.007488094134933421
sS'visualization'
p299
F0.0034773567197290711
sS'candidate'
p300
F0.0036291350493639252
sS'making.'
p301
F0.010150563643238865
sS'pharmacy'
p302
F0.028850499814721656
sS'source'
p303
F0.0076619935634564011
sS'location'
p304
F0.0040238669115095849
sS'interprets'
p305
F0.0083937527626610324
sS'remaining'
p306
F0.010670602487261829
sS'evaluate'
p307
F0.0052811485189356178
sS'background'
p308
F0.0039641651525465678
sS'telework'
p309
F0.010616822443851556
sS'supervisory'
p310
F0.008844083648981484
sS'immediately'
p311
F0.0085785928604901352
sS'unique'
p312
F0.0053143045423042655
sS'advanced'
p313
F0.0065830834281334003
sS'collect'
p314
F0.0072576179510357858
sS'benefit'
p315
F0.012789443196028987
sS'security'
p316
F0.0040544542035617663
sS'passionate'
p317
F0.0050829997268089346
sS'mathematical'
p318
F0.0054531927914172884
sS'verbal'
p319
F0.0047722622610946955
sS'people'
p320
F0.0067588843219697691
sS'growth'
p321
F0.0046281436398393216
sVMaster
p322
F0.0013493148148871557
sS'employment'
p323
F0.0069933242239073722
sS'provided'
p324
F0.0072489687494916863
sS'and/or'
p325
F0.0033751605963027952
sS'demonstrates'
p326
F0.014199611922301444
sS'eeo'
p327
F0.0070998059611507222
sS'manipulate'
p328
F0.0078922927168964922
sS'innovation'
p329
F0.0035915114510848304
sS'leader'
p330
F0.0039422632775516749
sS'business'
p331
F0.015266680043455634
sS'equivalent'
p332
F0.0087284305878550916
sS'processing'
p333
F0.0030298480272184045
sS'affordability'
p334
F0.008561007238078169
sS'analyses'
p335
F0.0088037500688568429
sS'40977br'
p336
F0.015927022436886946
sS'pipeline'
p337
F0.0064484687413695254
sS'disabilities'
p338
F0.0068471027575427914
sS'discussed'
p339
F0.0086691117784805441
sS'costs'
p340
F0.010564557539414468
sS'status.'
p341
F0.0061826107336846337
sS'within'
p342
F0.0033826598333991484
sS'healthcare.'
p343
F0.0081681391634407467
sS'statistics'
p344
F0.0017300795079825688
sS'additional'
p345
F0.0097451300959417158
sS'area'
p346
F0.0036662863810532761
sS'support'
p347
F0.0026127509829476344
sVBachelor
p348
F0.0016908698101482499
sS'clinical'
p349
F0.0069324162854912099
sS'recommends'
p350
F0.0090372922166635904
sS'volume'
p351
F0.0066874137678957302
sS'highest'
p352
F0.0070448897914608443
sS'analyst'
p353
F0.0041738702963709942
sS'applying'
p354
F0.0053604940591307024
sS'type'
p355
F0.005207927581825973
sS'aetnas'
p356
F0.010670602487261829
sS'us'
p357
F0.0044924654920206744
sS'problem'
p358
F0.00665949482930375
sS'etc.'
p359
F0.004911316425424998
sS'detailed'
p360
F0.0066874137678957302
sS'associated'
p361
F0.0063769992295805399
sS'pig'
p362
F0.0050067313081927486
sS'engineering'
p363
F0.0022724578424372071
sS'expertise'
p364
F0.0035023786225867131
sS'at'
p365
F0.0038405907226507548
sVMathematics
p366
F0.0031804685149952727
sS'education'
p367
F0.0077871122442050803
sS'globe.'
p368
F0.0069915525762976405
sS'large data set'
p369
F0.0058338722362390842
sS'no'
p370
F0.011206654145399978
sS'percent'
p371
F0.0087065932633941193
sS'application'
p372
F0.003343360089470494
sS'computer science'
p373
F0.0026085032712193333
sS'test'
p374
F0.0046114117676212905
sS'mathematics'
p375
F0.0033912676847417549
sS'you'
p376
F0.010252000700257457
sS'standardize'
p377
F0.010234909073900634
sS'collaborative'
p378
F0.0051402541767602899
sS'time'
p379
F0.010503701730201768
sS'e-mail.'
p380
F0.0092529860289886617
sS'develops'
p381
F0.011366421986214523
sS'bullets'
p382
F0.01185054176577199
sS'sql'
p383
F0.0012652019644397905
sS'structure'
p384
F0.0053951126018848463
sS'faster'
p385
F0.0080715608561376523
sS'algorithm'
p386
F0.0070139291015751592
sS'physics'
p387
F0.0045140712011997467
sS'required'
p388
F0.0030209939563807125
sS'together'
p389
F0.0049088706030048319
sS'aetna'
p390
F0.052014670670883258
sS'u'
F0.0077786384233664557
sS'behavioral'
p391
F0.0076308765700031193
sS'understand'
p392
F0.0038992204331062623
s.