(dp1
S'help'
p2
F0.0039870000000000001
sS'founder'
p3
F0.016851000000000001
sS'experience working'
p4
F0.0074980000000000003
sS'guided'
p5
F0.014234
sS'applicable federal state'
p6
F0.014234
sS'communicate complex idea'
p7
F0.014777999999999999
sS'mission'
p8
F0.0072269999999999999
sS'superior result'
p9
F0.014777999999999999
sS'elevate'
p10
F0.014714
sS'twenty-five year'
p11
F0.017694000000000001
sS'maternity protected veteran status'
p12
F0.015259
sS'senior associate data scientist'
p13
F0.034137000000000001
sS'skill'
p14
F0.0037060000000000001
sS'succeeding'
p15
F0.029492000000000001
sS'consider'
p16
F0.010959
sS'given day'
p17
F0.018589999999999999
sS'leading information-based technology company still founder-led'
p18
F0.014811
sS'big data'
p19
F0.006254
sS'manner consistent'
p20
F0.012297000000000001
sS'writing'
p21
F0.0098130000000000005
sS'environment'
p22
F0.0046490000000000004
sS'1-800-304-9102'
p23
F0.01537
sS'production'
p24
F0.0079799999999999992
sS'passion'
p25
F0.0078279999999999999
sS'abstract data'
p26
F0.018268
sS'transformation'
p27
F0.011867000000000001
sS'change banking'
p28
F0.014714
sS'good'
p29
F0.0087309999999999992
sS'customer transaction'
p30
F0.018426000000000001
sS'textual data'
p31
F0.020218
sS'114 5th ave 22114 united states'
p32
F0.025312999999999999
sS"explore you're"
p33
F0.017075
sS'conduct'
p34
F0.010442999999999999
sS'local law capital one promotes'
p35
F0.01537
sS'disrupted'
p36
F0.017371999999999999
sS'quest'
p37
F0.014041
sS'military experience'
p38
F0.014977000000000001
sS'know'
p39
F0.010035000000000001
sS'credit card industry'
p40
F0.017498
sS'world'
p41
F0.012166
sS'difference'
p42
F0.0099369999999999997
sS'customer first'
p43
F0.017371999999999999
sS'extent applicable article 23-a'
p44
F0.01537
sS'designing rich data visualization'
p45
F0.019424
sS'wrangler'
p46
F0.019635
sS'customer enjoy'
p47
F0.014777999999999999
sS'success'
p48
F0.0071240000000000001
sS'whole new'
p49
F0.018268
sS'future'
p50
F0.0061159999999999999
sS'data-driven decision-making'
p51
F0.016589
sS'love discovering new narrative'
p52
F0.018268
sS'banking'
p53
F0.012458
sS'preferred qualifications'
p54
F0.0086390000000000008
sS'thrive'
p55
F0.010588
sS'job please contact capital one recruiting'
p56
F0.016247999999999999
sS'least 1 year experience'
p57
F0.065169000000000005
sS'requirement'
p58
F0.0050730000000000003
sS'financial'
p59
F0.015452
sS'testing'
p60
F0.0076699999999999997
sS'startup'
p61
F0.013002
sS'programmatically extract data'
p62
F0.018268
sS'unlock'
p63
F0.010751
sS'perspective'
p64
F0.011493
sS'measure'
p65
F0.010921
sS'curious'
p66
F0.013606999999999999
sS"bachelor's degree"
p67
F0.0072020000000000001
sS'receive consideration'
p68
F0.0078510000000000003
sS'scale'
p69
F0.0090369999999999999
sS'bringing ingenuity simplicity'
p70
F0.014811
sS'lead'
p71
F0.0048539999999999998
sS'blurt'
p72
F0.016961
sS'creative'
p73
F0.0090449999999999992
sS'little innovation'
p74
F0.017562000000000001
sS'everything'
p75
F0.012548999999999999
sS'disruptive idea'
p76
F0.017829999999999999
sS'associate serve'
p77
F0.014811
sS'new technology'
p78
F0.011271
sS'innovation'
p79
F0.0062690000000000003
sS'external data source'
p80
F0.016201
sS'apply'
p81
F0.00564
sS'leader'
p82
F0.012678999999999999
sS"capital one we're building"
p83
F0.018346000000000001
sS'programming language'
p84
F0.0087240000000000009
sS'basic qualifications'
p85
F0.0090679999999999997
sS'impact'
p86
F0.0070429999999999998
sS'chief executive officer richard fairbank capital one'
p87
F0.014811
sS'fortune 200 company'
p88
F0.017017999999999998
sS'new qualified applicant'
p89
F0.016538000000000001
sS'digital banking'
p90
F0.018506999999999999
sS'operating across billion'
p91
F0.018426000000000001
sS'data scientist'
p92
F0.002653
sS'regulation regarding criminal background inquiry'
p93
F0.01537
sS'next wave'
p94
F0.017627
sS'job'
p95
F0.0047809999999999997
sS'statistical modeling'
p96
F0.0099270000000000001
sS'humility'
p97
F0.014178
sS'ask'
p98
F0.014378
sS"new york correction law san francisco california police code article 49 sections 4901-4920 new york city's fair chance act philadelphia's fair criminal records screening act"
p99
F0.019858000000000001
sS'respect'
p100
F0.012368000000000001
sS'help everyday people save money time'
p101
F0.018506999999999999
sS'equal opportunity employer committed'
p102
F0.013934
sS'ob'
p103
F0.014746
sS'consider sponsoring'
p104
F0.016538000000000001
sS'qualified applicant'
p105
F0.0073829999999999998
sS'ha skyrocketed u'
p106
F0.017562000000000001
sS'human-readable form roc curve map d3 visualization tableau etc'
p107
F0.018674
sS'investigate large messy data set'
p108
F0.018506999999999999
sS'software'
p109
F0.0040990000000000002
sS'shared value'
p110
F0.014651000000000001
sS'mental disability genetic information marital status sexual orientation gender identity assignment citizenship pregnancy'
p111
F0.017250000000000001
sS'community'
p112
F0.0072570000000000004
sS'two'
p113
F0.011851
sS'relational database'
p114
F0.010075000000000001
sS'distributed computing technology'
p115
F0.016906000000000001
sS'1 year'
p116
F0.039066999999999998
sS'customer transaction record'
p117
F0.018506999999999999
sS'tomorrow'
p118
F0.016295
sS'ideal candidate'
p119
F0.0098890000000000002
sS'use'
p120
F0.0043439999999999998
sS'open source'
p121
F0.01052
sS'employment authorization'
p122
F0.014319999999999999
sS'working'
p123
F0.0043559999999999996
sS'powered'
p124
F0.013511
sS'data'
p125
F0.0058789999999999997
sS'local law'
p126
F0.013805
sS'api bring'
p127
F0.018268
sS'accommodation'
p128
F0.012779
sS'new york'
p129
F0.025676999999999998
sS'teamwork'
p130
F0.012177
sS'unmined territory'
p131
F0.018268
sS'discover interesting trend'
p132
F0.018849000000000001
sS'drug-free workplace capital one'
p133
F0.01537
sS'1988 fast-forward'
p134
F0.017562000000000001
sS'building'
p135
F0.0052319999999999997
sS'life'
p136
F0.0066400000000000001
sS'diversity'
p137
F0.0092440000000000005
sS'apis'
p138
F0.013755
sS'deep respect'
p139
F0.014811
sS'probably know python scala'
p140
F0.018346000000000001
sS'tool'
p141
F0.0057980000000000002
sS'applicable national federal state'
p142
F0.015115999999999999
sS'customer achieve'
p143
F0.014619999999999999
sS'part'
p144
F0.0054929999999999996
sS'capital one'
p145
F0.042285000000000003
sS'applicable law regarding criminal background inquiry including'
p146
F0.01537
sS'believe'
p147
F0.0083149999999999995
sS'effort'
p148
F0.008064
sS'humanity'
p149
F0.014527
sS"smartest people you've ever met"
p150
F0.020346
sS'customer'
p151
F0.0035100000000000001
sS'valued'
p152
F0.013559
sS'join'
p153
F0.0059979999999999999
sS'employment without regard'
p154
F0.0082509999999999997
sS'integrating'
p155
F0.011047
sS'require'
p156
F0.010566000000000001
sS'see'
p157
F0.010704
sS'advocacy'
p158
F0.014496999999999999
sS'machine learning'
p159
F0.01306
sS'r'
F0.012070000000000001
sS'petabyte'
p160
F0.016389999999999998
sS'dream together'
p161
F0.014811
sS'investigating'
p162
F0.018589999999999999
sS"data don't frighten"
p163
F0.018426000000000001
sS'launched'
p164
F0.017191000000000001
sS'exhibit'
p165
F0.014291
sS'individually personalizing every credit card offer'
p166
F0.017498
sS'year'
p167
F0.0080820000000000006
sS'customer succeed'
p168
F0.014746
sS'disruption'
p169
F0.017250000000000001
sS"master's degree"
p170
F0.0089829999999999997
sS'collaboration'
p171
F0.0079030000000000003
sS'want'
p172
F0.007816
sS'ready'
p173
F0.011962
sS'sex race color age national origin religion physical'
p174
F0.017250000000000001
sS'openness'
p175
F0.014527
sS'status prohibited'
p176
F0.017250000000000001
sS'employment qualified applicant'
p177
F0.012439
sS'afraid'
p178
F0.015259
sS'goal'
p179
F0.0071919999999999996
sS'big undefined problem'
p180
F0.020346
sS'perform'
p181
F0.007149
sS'agony'
p182
F0.018506999999999999
sS'make'
p183
F0.0050879999999999996
sS'30+ million customer'
p184
F0.018506999999999999
sS'chairman'
p185
F0.014714
sS'big'
p186
F0.011653
sS"capital one wa started it's still led"
p187
F0.020094999999999998
sS'criminal history'
p188
F0.012439
sS'company'
p189
F0.0040940000000000004
sS'realize'
p190
F0.01274
sS'workplace'
p191
F0.0083280000000000003
sS'development'
p192
F0.0026940000000000002
sS'large scale data analysis'
p193
F0.015934
sS"you're constantly exploring new open source"
p194
F0.020754000000000002
sS"you're used"
p195
F0.020754000000000002
sS'relational database cutting edge technology'
p196
F0.017562000000000001
sS'numerical'
p197
F0.016639999999999999
sS'aws'
p198
F0.011022000000000001
sS'phd'
p199
F0.0064479999999999997
sS'helping'
p200
F0.0086529999999999992
sS"least 2 years' experience"
p201
F0.064119999999999996
sS'hadoop spark h2o aws'
p202
F0.018849000000000001
sS'right thing'
p203
F0.014262
sS'sql'
p204
F0.0044660000000000004
sS"team that's leading"
p205
F0.020899999999999998
sS'america'
p206
F0.013282
sS'agency please capital one'
p207
F0.01537
sS'python scala'
p208
F0.01537
sS'billion'
p209
F0.023765999999999999
sS'2 years'
p210
F0.054350000000000002
sS'center'
p211
F0.010645999999999999
sS'using'
p212
F0.013376000000000001
sS'database'
p213
F0.0059259999999999998
sS'analysis'
p214
F0.0032910000000000001
sS"you'll"
p215
F0.018454999999999999
sS'responsibility'
p216
F0.0079500000000000005
sS'clean'
p217
F0.013107000000000001
sS'position'
p218
F0.003947
sS'model'
p219
F0.0080000000000000002
sS'validation'
p220
F0.011551000000000001
sS'opportunity'
p221
F0.0040289999999999996
sS'five year'
p222
F0.014041
sS'latest'
p223
F0.010971
s.