(dp1
S'iconic brooklyn bridge'
p2
F0.021329999999999998
sS'supply chain'
p3
F0.011283
sS'related field'
p4
F0.0047980000000000002
sS'help'
p5
F0.0028609999999999998
sS'perl c c++'
p6
F0.021329999999999998
sS'control'
p7
F0.0086070000000000001
sS'insight'
p8
F0.0038270000000000001
sS'veteran status age'
p9
F0.024496
sS'focus'
p10
F0.005692
sS'people-moving product'
p11
F0.024496
sS'scalable solution'
p12
F0.014012999999999999
sS'advanced statistical analysis'
p13
F0.014419
sS'committed'
p14
F0.0046829999999999997
sS'go'
p15
F0.0087620000000000007
sS'1'
F0.0077929999999999996
sS'plus map reduce hadoop hive spark gurobi mysql'
p16
F0.021329999999999998
sS'monitor'
p17
F0.0082990000000000008
sS'big data'
p18
F0.0044869999999999997
sS'experience working'
p19
F0.0053800000000000002
sS'ranked among'
p20
F0.022498000000000001
sS'better'
p21
F0.006535
sS'source'
p22
F0.013025
sS'combine'
p23
F0.010359999999999999
sS'matlab'
p24
F0.010723
sS'rich'
p25
F0.011167
sS'identify trend'
p26
F0.012602
sS'verbal communication skill along'
p27
F0.020500999999999998
sS'real world'
p28
F0.010605
sS'achieve'
p29
F0.0068269999999999997
sS'innovation'
p30
F0.0089969999999999998
sS'highly motivated'
p31
F0.011110999999999999
sS'collaborate'
p32
F0.0049090000000000002
sS'approximately 57 billion'
p33
F0.024496
sS'seeking'
p34
F0.005189
sS'python'
p35
F0.0043039999999999997
sS'big'
p36
F0.0083619999999999996
sS'internet'
p37
F0.0093900000000000008
sS'title data scientist'
p38
F0.016166
sS'customer focus'
p39
F0.011978000000000001
sS'strong sense'
p40
F0.015107000000000001
sS'moving walkway utc climate controls security'
p41
F0.024496
sS'distributed computing tool'
p42
F0.014419
sS'technologically advanced aerospace'
p43
F0.024496
sS'aerospace'
p44
F0.031175999999999999
sS'world'
p45
F0.026189
sS'equal opportunity affirmative action employer'
p46
F0.0082780000000000006
sS'virtually every'
p47
F0.019331999999999998
sS'brooklyn ny'
p48
F0.022498000000000001
sS'level'
p49
F0.0042529999999999998
sS'identifying'
p50
F0.0077060000000000002
sS'include pratt whitney'
p51
F0.024496
sS'related experience'
p52
F0.0087869999999999997
sS'engine utc aerospace'
p53
F0.024496
sS'drive'
p54
F0.0037009999999999999
sS'strong enthusiasm'
p55
F0.021329999999999998
sS'refrigeration system'
p56
F0.024496
sS'team'
p57
F0.0011019999999999999
sS'sustainable'
p58
F0.012999999999999999
sS'business objective'
p59
F0.0098340000000000007
sS'security'
p60
F0.006535
sS'economy'
p61
F0.014168999999999999
sS'utc aerospace'
p62
F0.024496
sS'data derived'
p63
F0.016166
sS'learning'
p64
F0.0063379999999999999
sS'deal'
p65
F0.012378999999999999
sS'people'
p66
F0.0037290000000000001
sS'work experience'
p67
F0.007509
sS'whats possible'
p68
F0.042659999999999997
sS'related'
p69
F0.0040070000000000001
sS'vibrant urban oasis overlooking'
p70
F0.019858000000000001
sS'culture'
p71
F0.0058979999999999996
sS'thinker'
p72
F0.012336
sS'growth'
p73
F0.011979999999999999
sS'customer preference'
p74
F0.017860000000000001
sS'result'
p75
F0.0037230000000000002
sS'statistic'
p76
F0.010552000000000001
sS'home'
p77
F0.0092849999999999999
sS'operation'
p78
F0.005313
sS'investment'
p79
F0.0091699999999999993
sS'receive consideration'
p80
F0.0056340000000000001
sS'ability'
p81
F0.0032729999999999999
sS'scale'
p82
F0.0064850000000000003
sS'problem solver'
p83
F0.013109000000000001
sS'network'
p84
F0.0060369999999999998
sS'employment without regard'
p85
F0.005921
sS'develop'
p86
F0.002248
sS'best'
p87
F0.0099550000000000003
sS'looking'
p88
F0.0078150000000000008
sS'state'
p89
F0.0074159999999999998
sS'experiment'
p90
F0.007509
sS'passion'
p91
F0.0056169999999999996
sS'provides'
p92
F0.0063330000000000001
sS'conduct'
p93
F0.0074929999999999997
sS'supplier'
p94
F0.012649000000000001
sS'new'
p95
F0.0081429999999999992
sS'boundary'
p96
F0.024341999999999999
sS'leader'
p97
F0.013648
sS'cross-functional team'
p98
F0.0089259999999999999
sS'advanced aerospace aviation'
p99
F0.021329999999999998
sS'identify quantify'
p100
F0.018887999999999999
sS'high-performance'
p101
F0.014168999999999999
sS'degree'
p102
F0.0065240000000000003
sS'opening'
p103
F0.010605
sS'utcs engineering'
p104
F0.021329999999999998
sS'marketing'
p105
F0.0050039999999999998
sS'leveraging'
p106
F0.0073029999999999996
sS'pushing'
p107
F0.014893
sS'data scientist'
p108
F0.0019040000000000001
sS'operation research'
p109
F0.0091140000000000006
sS'delivering'
p110
F0.006692
sS'measure performance'
p111
F0.015722
sS'aircraft'
p112
F0.021329999999999998
sS'succeed'
p113
F0.010872
sS'corp'
p114
F0.016889999999999999
sS'business'
p115
F0.0098989999999999998
sS'change'
p116
F0.0052500000000000003
sS'technical discipline'
p117
F0.011403
sS'advance'
p118
F0.008352
sS'nyse utx'
p119
F0.024496
sS'r python perl'
p120
F0.018887999999999999
sS'defense'
p121
F0.010154
sS'strong communication'
p122
F0.011528
sS'language'
p123
F0.0056629999999999996
sS'constraint'
p124
F0.011727
sS'country'
p125
F0.018512000000000001
sS'industry'
p126
F0.0065570000000000003
sS'programming'
p127
F0.0053239999999999997
sS'experience'
p128
F0.0016149999999999999
sS'qualified applicant'
p129
F0.0052979999999999998
sS'etc'
p130
F0.0041489999999999999
sS'journey'
p131
F0.011761000000000001
sS'history uniquely position'
p132
F0.019858000000000001
sS'united technologies corporation utc ha'
p133
F0.019858000000000001
sS'implement'
p134
F0.004078
sS'employment type'
p135
F0.0146
sS'cross functional team'
p136
F0.012555999999999999
sS'software engineer'
p137
F0.0079640000000000006
sS'fortune 50 company'
p138
F0.044997000000000002
sS'transform cross-reference'
p139
F0.021329999999999998
sS'3+ year'
p140
F0.015195999999999999
sS'maintainer'
p141
F0.021329999999999998
sS'revenue'
p142
F0.0090589999999999993
sS'search'
p143
F0.016213999999999999
sS'data science'
p144
F0.0034169999999999999
sS'within'
p145
F0.00346
sS'000 employee'
p146
F0.01601
sS'solve'
p147
F0.0057130000000000002
sS'build'
p148
F0.0056210000000000001
sS'one'
p149
F0.0033289999999999999
sS'united states'
p150
F0.0078910000000000004
sS'city brooklyn'
p151
F0.021329999999999998
sS'thought'
p152
F0.011139
sS'problem solving'
p153
F0.0084049999999999993
sS'race color religion sex sexual orientation gender identity national origin disability'
p154
F0.01601
sS'leading provider'
p155
F0.01328
sS'throughout'
p156
F0.0075649999999999997
sS'aboututcdigital'
p157
F0.024496
sS'size'
p158
F0.010381
sS'management'
p159
F0.0032590000000000002
sS'java'
p160
F0.006535
sS'systems pratt whitney'
p161
F0.024496
sS'service'
p162
F0.0092329999999999999
sS'script'
p163
F0.010114
sS'start-up-like environment'
p164
F0.021329999999999998
sS'leading'
p165
F0.0082590000000000007
sS'system'
p166
F0.0079469999999999992
sS'grow'
p167
F0.0065129999999999997
sS'product manager'
p168
F0.015362000000000001
sS'include otis elevator'
p169
F0.024496
sS'researching best practice'
p170
F0.019331999999999998
sS'automate'
p171
F0.0097120000000000001
sS'uncovering digital'
p172
F0.021329999999999998
sS'see avideoonutcdigital'
p173
F0.024496
sS'manufacturer'
p174
F0.014419
sS'systems'
p175
F0.0092560000000000003
sS'manufacture'
p176
F0.017860000000000001
sS'full-time'
p177
F0.0094990000000000005
sS'united technologies corporation'
p178
F0.019331999999999998
sS'excellent written'
p179
F0.0089789999999999991
sS'fire'
p180
F0.022498000000000001
sS'company'
p181
F0.0029380000000000001
sS'conducting'
p182
F0.010924
sS'job description'
p183
F0.0058310000000000002
sS'analytical skill'
p184
F0.0099059999999999999
sS'urbanizing city'
p185
F0.019858000000000001
sS'climate controls security otis'
p186
F0.024496
sS'motivated self-starter'
p187
F0.015862999999999999
sS'come join u'
p188
F0.016166
sS'data flow'
p189
F0.012697
sS'comfortable'
p190
F0.0080300000000000007
sS'utilizing'
p191
F0.0086420000000000004
sS'including elevator escalator'
p192
F0.024496
sS'customer'
p193
F0.0050369999999999998
sS'utc'
p194
F0.019858000000000001
sS'join'
p195
F0.0043039999999999997
sS'largest'
p196
F0.017749999999999998
sS'challenge'
p197
F0.0054299999999999999
sS'work'
p198
F0.0020070000000000001
sS'united technologies corporation utc'
p199
F0.024496
sS'machine learning'
p200
F0.0062480000000000001
sS'aim'
p201
F0.0146
sS'r'
F0.0043299999999999996
sS'learn'
p202
F0.010976
sS'world greenest company'
p203
F0.024496
sS'global reach'
p204
F0.017860000000000001
sS'problem'
p205
F0.0039880000000000002
sS'brooklyn new york'
p206
F0.019331999999999998
sS'history'
p207
F0.010381
sS'insight inherent utcs best-in-class'
p208
F0.021329999999999998
sS'provide actionable insight'
p209
F0.014168999999999999
sS'stream'
p210
F0.013109000000000001
sS'auto req id 45843br'
p211
F0.024496
sS'eeo aap statement'
p212
F0.022498000000000001
sS'deep'
p213
F0.0072509999999999996
sS'digital era'
p214
F0.019331999999999998
sS'high'
p215
F0.00728
sS'people safer'
p216
F0.019858000000000001
sS'way'
p217
F0.0043489999999999996
sS'together'
p218
F0.0079179999999999997
sS'deep knowledge'
p219
F0.010255
sS'merge large'
p220
F0.021329999999999998
sS'education'
p221
F0.0047099999999999998
sS'technology'
p222
F0.0062740000000000001
sS'large data set'
p223
F0.0074159999999999998
sS'globally'
p224
F0.011139
sS'requirements'
p225
F0.0051580000000000003
sS'design'
p226
F0.0047679999999999997
sS'also work closely'
p227
F0.016506
sS'things'
p228
F0.013724
sS'make'
p229
F0.0036510000000000002
sS'new york'
p230
F0.0092130000000000007
sS'detail'
p231
F0.0066270000000000001
sS'breed digital'
p232
F0.022498000000000001
sS'member'
p233
F0.0056090000000000003
sS'undefined problem'
p234
F0.020500999999999998
sS'current pagejob'
p235
F0.024496
sS'results-oriented'
p236
F0.029995000000000001
sS'role'
p237
F0.0029970000000000001
sS'computer science'
p238
F0.0044850000000000003
sS'digital'
p239
F0.025311
sS'algorithm'
p240
F0.003581
sS'optimization'
p241
F0.005999
sS'10'
p242
F0.0081960000000000002
sS'business unit'
p243
F0.0090460000000000002
sS'200'
p244
F0.013526
sS'product'
p245
F0.0065279999999999999
sS'designer'
p246
F0.0092999999999999992
sS'united technologies'
p247
F0.044997000000000002
sS'deploy'
p248
F0.0085719999999999998
sS'large complex'
p249
F0.011625999999999999
sS'geared towards releasing'
p250
F0.021329999999999998
sS'provide thought leadership'
p251
F0.012999999999999999
sS'qualifications'
p252
F0.003473
sS'automation'
p253
F0.0089259999999999999
sS'react'
p254
F0.011283
sS'commercial'
p255
F0.016060000000000001
sS'connected'
p256
F0.011283
sS'ownership'
p257
F0.0098169999999999993
sS'job responsibilities include'
p258
F0.018887999999999999
sS'changing'
p259
F0.0094669999999999997
sS'shift'
p260
F0.020892999999999998
sS'service delivery'
p261
F0.013526
sS'data'
p262
F0.0014059999999999999
sS'collaborating'
p263
F0.0093600000000000003
sS'building'
p264
F0.018773999999999999
sS'ambiguous'
p265
F0.016166
sS'analyzing'
p266
F0.0079550000000000003
sS'productivity'
p267
F0.021694000000000001
sS'heating air conditioning'
p268
F0.024496
sS'well'
p269
F0.0068120000000000003
sS'headquarters'
p270
F0.01409
sS'digital accelerator'
p271
F0.039715
sS'brings together'
p272
F0.01546
sS'provide'
p273
F0.0029299999999999999
sS'u'
F0.0067099999999999998
sS'federally protected class'
p274
F0.024496
sS'clean'
p275
F0.0094050000000000002
sS'unleash'
p276
F0.015722
sS'position'
p277
F0.0056649999999999999
sS'model'
p278
F0.0028700000000000002
sS'operate'
p279
F0.0092409999999999992
sS'unique opportunity'
p280
F0.010872
sS'travel'
p281
F0.013139
sS'safer smarter'
p282
F0.022498000000000001
s.