(dp1
S'digital marketing'
p2
F0.011499000000000001
sS'count issued'
p3
F0.023165999999999999
sS'accurate'
p4
F0.019337
sS'insight'
p5
F0.015761000000000001
sS'demonstrated ability'
p6
F0.0077479999999999997
sS'existing'
p7
F0.0061869999999999998
sS'attitude'
p8
F0.010517
sS'identify'
p9
F0.012262
sS'canons marketing sales'
p10
F0.023165999999999999
sS'committed'
p11
F0.0048219999999999999
sS'skill'
p12
F0.002738
sS'2016 canon usa'
p13
F0.023165999999999999
sS'weekly'
p14
F0.013386
sS'best practice'
p15
F0.0061869999999999998
sS'visualization'
p16
F0.0061250000000000002
sS'advanced analytic'
p17
F0.011065999999999999
sS'unique'
p18
F0.0077079999999999996
sS'based'
p19
F0.0043969999999999999
sS'knowledge'
p20
F0.002728
sS'interesting'
p21
F0.01204
sS'high-performing team'
p22
F0.038897000000000001
sS'working knowledge'
p23
F0.0075040000000000003
sS'http wwwusacanoncom internet portal u'
p24
F0.025222999999999999
sS'analytic'
p25
F0.0053249999999999999
sS'r python'
p26
F0.01874
sS'tool'
p27
F0.0021419999999999998
sS'li-nf1 cusa'
p28
F0.023165999999999999
sS'usage'
p29
F0.029342
sS'2014'
p30
F0.016816000000000001
sS'2016'
p31
F0.012295
sS'presentation'
p32
F0.011351
sS'canon usa inc'
p33
F0.050444999999999997
sS'careers'
p34
F0.013073
sS'build'
p35
F0.0028939999999999999
sS'executive'
p36
F0.0083580000000000008
sS'division'
p37
F0.0090349999999999996
sS'trademark office'
p38
F0.023165999999999999
sS'seeking'
p39
F0.0053429999999999997
sS'overall'
p40
F0.0072779999999999997
sS'sap business objects tableau'
p41
F0.023165999999999999
sS'complete'
p42
F0.0088990000000000007
sS'cannot'
p43
F0.016049999999999998
sS'existing data'
p44
F0.015792
sS'design construction'
p45
F0.021108999999999999
sS'working closely'
p46
F0.010163
sS'data source'
p47
F0.0088990000000000007
sS'execution'
p48
F0.0067580000000000001
sS'advanced'
p49
F0.0046350000000000002
sS'latin america'
p50
F0.019051999999999999
sS'timely'
p51
F0.0099480000000000002
sS'experienced data scientist'
p52
F0.012257000000000001
sS'execute'
p53
F0.0070289999999999997
sS'document'
p54
F0.0071139999999999997
sS'name'
p55
F0.012333
sS'list'
p56
F0.012836
sS'approximately 29 billion'
p57
F0.021963
sS'determine'
p58
F0.0087569999999999992
sS'capability'
p59
F0.0051659999999999996
sS'individuals'
p60
F0.012791
sS'self-identified analytics'
p61
F0.023165999999999999
sS'visiting wwwusacanoncom rssand follow u'
p62
F0.023165999999999999
sS'business objective'
p63
F0.010126
sS'individually'
p64
F0.014759
sS'canon usa sign'
p65
F0.023165999999999999
sS'headquarters secured leed gold certification'
p66
F0.023165999999999999
sS'leaders'
p67
F0.014276
sS'concise'
p68
F0.012929
sS'work independently'
p69
F0.0082489999999999994
sS'candidate must'
p70
F0.010968
sS'100 percent us-based consumer'
p71
F0.023165999999999999
sS'global'
p72
F0.0051149999999999998
sS'analytics'
p73
F0.010887000000000001
sS'value'
p74
F0.005071
sS'parent company canon inc nyse caj rank third'
p75
F0.021963
sS'recommendation'
p76
F0.0059449999999999998
sS'home'
p77
F0.0095610000000000001
sS'operation'
p78
F0.00547
sS'extract'
p79
F0.0088509999999999995
sS'recognition'
p80
F0.012491
sS'bi users'
p81
F0.023165999999999999
sS'delivered'
p82
F0.010895
sS'tableau'
p83
F0.0075890000000000003
sS'job posting'
p84
F0.012836
sS'pattern'
p85
F0.0072639999999999996
sS'review'
p86
F0.0066039999999999996
sS'ever growing'
p87
F0.016188999999999999
sS'best'
p88
F0.0051250000000000002
sS'find'
p89
F0.0070949999999999997
sS'current'
p90
F0.0062760000000000003
sS'revenue growth opportunity unseen value'
p91
F0.046331999999999998
sS'passion'
p92
F0.011566999999999999
sS'new'
p93
F0.01677
sS'evaluation'
p94
F0.0084499999999999992
sS'method'
p95
F0.0083000000000000001
sS'1 year'
p96
F0.019244000000000001
sS'masters degree'
p97
F0.006842
sS'completion'
p98
F0.0094280000000000006
sS'2 year'
p99
F0.01558
sS'high-performance'
p100
F0.014589
sS'business'
p101
F0.012231000000000001
sS'subject matter expert'
p102
F0.0089849999999999999
sS'communicate'
p103
F0.0057920000000000003
sS'team'
p104
F0.0022680000000000001
sS'deliver'
p105
F0.0040470000000000002
sS'bi'
p106
F0.063870999999999997
sS'expansion'
p107
F0.015443
sS'solution'
p108
F0.0042199999999999998
sS'met'
p109
F0.011221
sS'bachelors degree'
p110
F0.0067349999999999997
sS'others'
p111
F0.0060260000000000001
sS'group'
p112
F0.0052680000000000001
sS'manipulate large data set'
p113
F0.017187000000000001
sS'understanding'
p114
F0.003813
sS'data visualization tool eg'
p115
F0.017392000000000001
sS"company's rss news"
p116
F0.023165999999999999
sS'engage'
p117
F0.0078490000000000001
sS'written communication skill'
p118
F0.007724
sS'business user'
p119
F0.022338
sS'career'
p120
F0.0062509999999999996
sS'disabilities'
p121
F0.010943
sS'experience'
p122
F0.001108
sS'etc'
p123
F0.0042719999999999998
sS'eeo aa employer minority female'
p124
F0.023165999999999999
sS'analysts'
p125
F0.012411
sS'social'
p126
F0.0083379999999999999
sS'ensure'
p127
F0.0049760000000000004
sS'interact'
p128
F0.0080420000000000005
sS'feed'
p129
F0.013073
sS'ability'
p130
F0.0033700000000000002
sS'industrial'
p131
F0.011384999999999999
sS'curiosity'
p132
F0.011528
sS'revenue'
p133
F0.018655999999999999
sS'draft output'
p134
F0.023165999999999999
sS'microsoft excel'
p135
F0.013993999999999999
sS'sql'
p136
F0.0033
sS'collaborating'
p137
F0.028912
sS'benefit realized within'
p138
F0.023165999999999999
sS'united states'
p139
F0.016250000000000001
sS'business unit'
p140
F0.0093139999999999994
sS'initiative'
p141
F0.0056150000000000002
sS'twitter canonusa'
p142
F0.023165999999999999
sS'maximize'
p143
F0.010276
sS'news'
p144
F0.012182999999999999
sS'leading provider'
p145
F0.013674
sS'ideal candidate'
p146
F0.007306
sS'digital imaging solution'
p147
F0.021963
sS'use'
p148
F0.0032100000000000002
sS'strong'
p149
F0.0060200000000000002
sS'service'
p150
F0.0031689999999999999
sS'area'
p151
F0.0040299999999999997
sS'data'
p152
F0.0014480000000000001
sS'support'
p153
F0.014219000000000001
sS'manager'
p154
F0.0058869999999999999
sS'trademark'
p155
F0.023165999999999999
sS'mark'
p156
F0.016646000000000001
sS'maintenance'
p157
F0.0085019999999999991
sS'advanced analytics'
p158
F0.006953
sS'distributes canon usa'
p159
F0.023165999999999999
sS'please contact pr cusacanoncom'
p160
F0.023165999999999999
sS'final'
p161
F0.014429000000000001
sS'data management'
p162
F0.0080599999999999995
sS'customer satisfaction'
p163
F0.01222
sS'business operation'
p164
F0.012659
sS'motivated persistent'
p165
F0.023165999999999999
sS'champion'
p166
F0.011528
sS'action taken'
p167
F0.021963
sS'company'
p168
F0.0030249999999999999
sS'kyosei philosophy'
p169
F0.023165999999999999
sS'training'
p170
F0.011809999999999999
sS'strong communicator adaptive creative'
p171
F0.023165999999999999
sS'environmental'
p172
F0.013498
sS'visual'
p173
F0.011773
sS'understand'
p174
F0.0042269999999999999
sS'input'
p175
F0.010779
sS'team member'
p176
F0.0059309999999999996
sS'analyst'
p177
F0.0060359999999999997
sS'must'
p178
F0.0041399999999999996
sS'join'
p179
F0.0044320000000000002
sS'ready-to-execute output'
p180
F0.023165999999999999
sS'deliverable'
p181
F0.0088149999999999999
sS'proactively'
p182
F0.010645
sS'work'
p183
F0.0020669999999999998
sS'using'
p184
F0.0032940000000000001
sS'canon americas'
p185
F0.023165999999999999
sS'us'
p186
F0.0050049999999999999
sS'utilizing'
p187
F0.0088990000000000007
sS'project'
p188
F0.0024030000000000002
sS'diverse'
p189
F0.0057959999999999999
sS'ongoing'
p190
F0.0084290000000000007
sS'dashboard'
p191
F0.0085339999999999999
sS'demonstrate'
p192
F0.0079179999999999997
sS'providing'
p193
F0.0051390000000000003
sS'solve complex problem'
p194
F0.013927
sS'dedicated'
p195
F0.0085240000000000003
sS'required'
p196
F0.002875
sS'status'
p197
F0.0067060000000000002
sS'share'
p198
F0.016066
sS'site'
p199
F0.0090729999999999995
sS'drive'
p200
F0.0076220000000000003
sS'business analysts'
p201
F0.017392000000000001
sS'medium'
p202
F0.0076509999999999998
sS'expertise'
p203
F0.003993
sS'reviewing'
p204
F0.015335
sS'need'
p205
F0.003192
sS'partner'
p206
F0.004705
sS'story'
p207
F0.018825999999999999
sS'posting'
p208
F0.026348
sS'large data set'
p209
F0.0076360000000000004
sS'referenced product'
p210
F0.023165999999999999
sS'consumer business-to-business'
p211
F0.021963
sS'validity'
p212
F0.017187000000000001
sS'patent'
p213
F0.029517000000000002
sS'multiple source'
p214
F0.011221
sS'admired companies'
p215
F0.0095610000000000001
sS'responsible'
p216
F0.0036540000000000001
sS'able'
p217
F0.0091839999999999995
sS'compile requirement'
p218
F0.023165999999999999
sS'also'
p219
F0.0049150000000000001
sS'complex'
p220
F0.0047019999999999996
sS'inquiry'
p221
F0.014062
sS'respective owner'
p222
F0.023165999999999999
sS'finding'
p223
F0.0064989999999999996
sS'responsibility'
p224
F0.0058739999999999999
sS'keep apprised'
p225
F0.023165999999999999
sS'caribbean market'
p226
F0.021963
sS'3 year'
p227
F0.014019999999999999
sS'user acceptance testing'
p228
F0.017849
sS'development'
p229
F0.005973
sS'product'
p230
F0.0044809999999999997
sS'used'
p231
F0.0062310000000000004
sS'one'
p232
F0.0034269999999999999
sS'collaboration'
p233
F0.0058389999999999996
sS'reporting'
p234
F0.0061060000000000003
sS'minimum'
p235
F0.016631
sS'loyalty'
p236
F0.013674
sS'new data source'
p237
F0.013122999999999999
sS'sap business objects'
p238
F0.021963
sS'plus'
p239
F0.004555
sS'end-state goal'
p240
F0.023165999999999999
sS'business intelligence'
p241
F0.015037999999999999
sS'please visit u'
p242
F0.018703000000000001
sS'opportunity'
p243
F0.0089309999999999997
sS'expand'
p244
F0.021467
sS'building'
p245
F0.0077320000000000002
sS'task'
p246
F0.0061630000000000001
sS'guarantee'
p247
F0.012075000000000001
sS'effective'
p248
F0.013150999999999999
sS'marketing sales'
p249
F0.016333
sS'gather'
p250
F0.010517
sS'request'
p251
F0.0074440000000000001
sS'various'
p252
F0.0051279999999999997
sS'powerpoint'
p253
F0.0098630000000000002
sS'protected veterans'
p254
F0.017849
sS'patent granted'
p255
F0.021963
sS'problem solving'
p256
F0.0086549999999999995
sS'green'
p257
F0.019448
sS'clean'
p258
F0.019369000000000001
sS'correlation'
p259
F0.013861999999999999
sS'management'
p260
F0.0033549999999999999
sS'senior'
p261
F0.012108000000000001
sS'highest level'
p262
F0.011903
sS"fortune magazine's world's"
p263
F0.023165999999999999
sS'excellent verbal'
p264
F0.010496
sS'latest'
p265
F0.0081060000000000004
s.