(dp1
S'help'
p2
F0.0091920000000000005
sS'actionable recommendation'
p3
F0.041769000000000001
sS'insight'
p4
F0.012295
sS'manager'
p5
F0.036741000000000003
sS'including'
p6
F0.0078340000000000007
sS'innovative'
p7
F0.015814000000000002
sS'impact'
p8
F0.016239
sS'microblogging'
p9
F0.078703999999999996
sS'stock options'
p10
F0.060685999999999997
sS'location'
p11
F0.018634000000000001
sS'experience managing'
p12
F0.034931999999999998
sS'passion'
p13
F0.018047000000000001
sS'150 000'
p14
F0.057383999999999998
sS'social networking'
p15
F0.050083000000000003
sS'masters'
p16
F0.025923000000000002
sS'success'
p17
F0.016426
sS'skills'
p18
F0.020129999999999999
sS'team'
p19
F0.014156
sS'8+'
p20
F0.057383999999999998
sS'acquired'
p21
F0.063801999999999998
sS'analytics'
p22
F0.025478000000000001
sS'growth'
p23
F0.019245999999999999
sS'design'
p24
F0.01532
sS'relates'
p25
F0.046907999999999998
sS'lead'
p26
F0.022383
sS'space'
p27
F0.025954000000000001
sS'managing'
p28
F0.020816999999999999
sS"nyc's"
p29
F0.072286000000000003
sS'looking'
p30
F0.012555
sS'health'
p31
F0.022283000000000001
sS'data analysis'
p32
F0.017916000000000001
sS'data science team'
p33
F0.027288
sS'data scientist'
p34
F0.006117
sS'job'
p35
F0.011023
sS'leadership'
p36
F0.015803000000000001
sS'top 10'
p37
F0.053032000000000003
sS'interaction'
p38
F0.027288
sS'benefits'
p39
F0.027146
sS'product feature'
p40
F0.041598999999999997
sS'- 250 000'
p41
F0.065867999999999996
sS'experience'
p42
F0.0034589999999999998
sS'generous bonus'
p43
F0.062114000000000003
sS'action'
p44
F0.025411
sS'cto'
p45
F0.055696000000000002
sS'data science'
p46
F0.032939000000000003
sS'one'
p47
F0.010694
sS'experienced data scientist'
p48
F0.038246000000000002
sS'forefront'
p49
F0.032883000000000003
sS'use'
p50
F0.020029999999999999
sS'working'
p51
F0.010043
sS'engagement'
p52
F0.024597999999999998
sS'continuous improvement'
p53
F0.034931999999999998
sS'advanced analytics'
p54
F0.043392
sS'extensive experience'
p55
F0.032496999999999998
sS'website'
p56
F0.027616999999999999
sS'premier'
p57
F0.043254000000000001
sS'company'
p58
F0.0094389999999999995
sS'serve'
p59
F0.022602000000000001
sS'fortune 500 multinational technology company'
p60
F0.078703999999999996
sS'algorithm'
p61
F0.023012000000000001
sS'full'
p62
F0.024050999999999999
sS'value'
p63
F0.015824000000000001
sS'compensation'
p64
F0.036637000000000003
sS"company's"
p65
F0.032371999999999998
sS'providing'
p66
F0.016035000000000001
sS'social medium'
p67
F0.032816999999999999
sS'engineering'
p68
F0.012503999999999999
sS'statistical analysis'
p69
F0.036523
sS'need'
p70
F0.0099600000000000001
sS'technology'
p71
F0.0067190000000000001
sS'provide'
p72
F0.018825999999999999
sS'responsible'
p73
F0.011402000000000001
sS'401k'
p74
F0.034931999999999998
sS'located'
p75
F0.025648000000000001
sS'stem field'
p76
F0.049672000000000001
sS"what's"
p77
F0.034299000000000003
sS'product'
p78
F0.0069909999999999998
sS'experienced'
p79
F0.024679
sS'consumer-facing product'
p80
F0.068531999999999996
sS'user behavior'
p81
F0.040342000000000003
sS'phd'
p82
F0.014866000000000001
sS'director'
p83
F0.056148999999999998
sS'user'
p84
F0.034817000000000001
sS'opportunity'
p85
F0.0092890000000000004
sS'especially'
p86
F0.031947000000000003
sS'constant communication'
p87
F0.068531999999999996
sS'drive business'
p88
F0.044547999999999997
sS'headquarters'
p89
F0.045269999999999998
sS'experienced data scientists'
p90
F0.068531999999999996
sS'preference'
p91
F0.039106000000000002
s.