(dp1
S'roi'
p2
F0.011421000000000001
sS'communicate effectively'
p3
F0.010057
sS'code'
p4
F0.005097
sS'maintaining satisfied'
p5
F0.017784000000000001
sS'success criterion'
p6
F0.014319
sS'remarkable'
p7
F0.016771000000000001
sS'family answers'
p8
F0.017784000000000001
sS'mission'
p9
F0.0044990000000000004
sS'entity'
p10
F0.010776000000000001
sS'account executive'
p11
F0.015757
sS'planning'
p12
F0.011408
sS'complex sales-cycles'
p13
F0.017784000000000001
sS'participate'
p14
F0.0058110000000000002
sS'go'
p15
F0.0076010000000000001
sS'portfolio'
p16
F0.0067299999999999999
sS'bank'
p17
F0.010029
sS'senior executive'
p18
F0.011324000000000001
sS'developer'
p19
F0.0056690000000000004
sS'strategic positioning'
p20
F0.017226999999999999
sS'solution selling skill'
p21
F0.017784000000000001
sS'ha'
p22
F0.0046439999999999997
sS'based'
p23
F0.0074089999999999998
sS'socrata team'
p24
F0.017784000000000001
sS'fit'
p25
F0.0087399999999999995
sS'also'
p26
F0.0082819999999999994
sS'implementation'
p27
F0.0042640000000000004
sS'revenue'
p28
F0.0078589999999999997
sS'federal government'
p29
F0.012508999999999999
sS'including'
p30
F0.010574999999999999
sS'environment'
p31
F0.0057879999999999997
sS'platform'
p32
F0.0034359999999999998
sS'program'
p33
F0.0039119999999999997
sS'choose'
p34
F0.012747
sS'rich'
p35
F0.0096880000000000004
sS"government socrata's 250 customer"
p36
F0.018504
sS'include'
p37
F0.018682000000000001
sS'build'
p38
F0.0024380000000000001
sS'socrata'
p39
F0.086133000000000001
sS'inspire socrata build'
p40
F0.017784000000000001
sS'manage'
p41
F0.0042009999999999999
sS'vendor'
p42
F0.0077889999999999999
sS'around'
p43
F0.0050540000000000003
sS'government'
p44
F0.032265000000000002
sS'big'
p45
F0.014508
sS'regional'
p46
F0.011232000000000001
sS'kind'
p47
F0.012222999999999999
sS'public sector'
p48
F0.037995000000000001
sS"utilize socrata's service"
p49
F0.017784000000000001
sS'world'
p50
F0.0075729999999999999
sS'regional office'
p51
F0.017226999999999999
sS'execution'
p52
F0.011388000000000001
sS'shaping'
p53
F0.011187000000000001
sS'efficiency socrata'
p54
F0.018504
sS'desire'
p55
F0.0070759999999999998
sS'entire'
p56
F0.018086000000000001
sS'targeted outbound prospecting uncovering customer'
p57
F0.017784000000000001
sS'like'
p58
F0.0053819999999999996
sS'success'
p59
F0.0044349999999999997
sS'level'
p60
F0.007378
sS'vibrant'
p61
F0.014652
sS'including illinois indiana maryland'
p62
F0.017784000000000001
sS'solution'
p63
F0.003555
sS'los angeles seattle'
p64
F0.017784000000000001
sS'large'
p65
F0.0051879999999999999
sS'benefit'
p66
F0.0052170000000000003
sS'activity'
p67
F0.0051799999999999997
sS'feel empowered'
p68
F0.017784000000000001
sS'identify'
p69
F0.003444
sS'identify critique suggest'
p70
F0.017784000000000001
sS'top vc firm'
p71
F0.017784000000000001
sS'wwwsocratacom'
p72
F0.017784000000000001
sS'manager contracting officer'
p73
F0.017784000000000001
sS'right'
p74
F0.0060159999999999996
sS'help governments use'
p75
F0.018504
sS'often'
p76
F0.010737999999999999
sS'past experience'
p77
F0.014024
sS'meeting exceeding individual'
p78
F0.017784000000000001
sS"sale 'complex sales'"
p79
F0.017784000000000001
sS'startup'
p80
F0.0080929999999999995
sS'idea'
p81
F0.005568
sS'young company'
p82
F0.017226999999999999
sS'offered qualified applicant'
p83
F0.017784000000000001
sS'growth'
p84
F0.0051960000000000001
sS'result'
p85
F0.0064590000000000003
sS'san francisco'
p86
F0.010558
sS'close'
p87
F0.019474000000000002
sS'beyond'
p88
F0.0079670000000000001
sS'best'
p89
F0.0043179999999999998
sS'reference able'
p90
F0.017784000000000001
sS'review quarterly business'
p91
F0.017784000000000001
sS'employ'
p92
F0.0078469999999999998
sS'complex buying'
p93
F0.017784000000000001
sS'power'
p94
F0.0067000000000000002
sS'driving'
p95
F0.0061320000000000003
sS'chicago'
p96
F0.010776000000000001
sS'federal'
p97
F0.018998000000000001
sS'open'
p98
F0.0067910000000000002
sS'review'
p99
F0.0055630000000000002
sS'irs'
p100
F0.018504
sS'saas'
p101
F0.019525000000000001
sS'qualify sale'
p102
F0.017784000000000001
sS'creative'
p103
F0.0056299999999999996
sS'current'
p104
F0.005287
sS'consistently'
p105
F0.0095680000000000001
sS'state'
p106
F0.012866000000000001
sS'conduct'
p107
F0.0065009999999999998
sS'new'
p108
F0.0094190000000000003
sS'including expansion cross'
p109
F0.017784000000000001
sS'cloud-based software'
p110
F0.017226999999999999
sS'demonstrated'
p111
F0.0051399999999999996
sS'proven track record'
p112
F0.0083529999999999993
sS'body'
p113
F0.014838
sS'c-level'
p114
F0.015757
sS'ability'
p115
F0.0042589999999999998
sS'business'
p116
F0.001717
sS'city'
p117
F0.0094990000000000005
sS'gov 20'
p118
F0.017784000000000001
sS'marketing'
p119
F0.0043410000000000002
sS'made transparently accessible'
p120
F0.017784000000000001
sS'data scientist'
p121
F0.001652
sS'meaningful work'
p122
F0.01448
sS'managing'
p123
F0.0056210000000000001
sS'agency'
p124
F0.0075490000000000002
sS'hr socratacom socrata'
p125
F0.017784000000000001
sS'opportunity'
p126
F0.010031999999999999
sS'us city'
p127
F0.013105
sS'customer embodies'
p128
F0.017784000000000001
sS'put'
p129
F0.008914
sS'senior management'
p130
F0.0089870000000000002
sS'procurement cycle'
p131
F0.035569000000000003
sS'change'
p132
F0.013664000000000001
sS'improve'
p133
F0.003764
sS'frazier technology'
p134
F0.017784000000000001
sS'great'
p135
F0.0059109999999999996
sS'working'
p136
F0.0054229999999999999
sS'seattle wa'
p137
F0.016385
sS'ventures'
p138
F0.015254999999999999
sS'many'
p139
F0.0062589999999999998
sS'industry'
p140
F0.0028440000000000002
sS'trove'
p141
F0.015037999999999999
sS'experience'
p142
F0.00046700000000000002
sS'foreign'
p143
F0.014024
sS'illuminate inform'
p144
F0.017784000000000001
sS'plus'
p145
F0.0038379999999999998
sS'act'
p146
F0.014326999999999999
sS'aspire'
p147
F0.012028
sS'3+ year'
p148
F0.013181999999999999
sS'celebrate success'
p149
F0.017226999999999999
sS'neighborhood'
p150
F0.01448
sS'major'
p151
F0.025704999999999999
sS'via'
p152
F0.0077889999999999999
sS'useful'
p153
F0.010892000000000001
sS'white house hhs'
p154
F0.018504
sS'within'
p155
F0.0060029999999999997
sS'stock option'
p156
F0.010892000000000001
sS'skilled'
p157
F0.0091400000000000006
sS'number'
p158
F0.0077780000000000002
sS'one'
p159
F0.0028869999999999998
sS'thought leader'
p160
F0.0094540000000000006
sS'prestigious non-governmental organization ngos including'
p161
F0.017784000000000001
sS'initiative'
p162
F0.0094610000000000007
sS'recommending'
p163
F0.012508999999999999
sS'london uk socrata ha raised 55m'
p164
F0.017784000000000001
sS'account management'
p165
F0.012156
sS'apply'
p166
F0.0035109999999999998
sS'next'
p167
F0.0082819999999999994
sS'quality'
p168
F0.004182
sS'market'
p169
F0.0094070000000000004
sS"you're"
p170
F0.0077210000000000004
sS'use'
p171
F0.0027039999999999998
sS'prospecting'
p172
F0.017784000000000001
sS"socrata's sale"
p173
F0.017784000000000001
sS"customers' egov"
p174
F0.017784000000000001
sS'service'
p175
F0.0026700000000000001
sS'providing solution'
p176
F0.010295
sS'assigned territory'
p177
F0.016385
sS'leading'
p178
F0.0035820000000000001
sS'interact'
p179
F0.0067749999999999998
sS'people'
p180
F0.003235
sS'question'
p181
F0.005587
sS'strategy'
p182
F0.0035279999999999999
sS'including sapphire ventures openview venture partners morgenthaler ventures'
p183
F0.017784000000000001
sS'new york'
p184
F0.015984000000000002
sS'previous experience'
p185
F0.010114
sS'recommend'
p186
F0.0081200000000000005
sS'washington dc'
p187
F0.0090060000000000001
sS"we're"
p188
F0.0075700000000000003
sS'accountability'
p189
F0.0094540000000000006
sS'life'
p190
F0.0041330000000000004
sS'recognizable'
p191
F0.017784000000000001
sS'offering'
p192
F0.0076880000000000004
sS'c-level executive'
p193
F0.015494000000000001
sS'highlight key'
p194
F0.017784000000000001
sS'core value'
p195
F0.012090999999999999
sS'company'
p196
F0.005097
sS'addition'
p197
F0.0066490000000000004
sS'serve'
p198
F0.0061029999999999999
sS'independently'
p199
F0.0070239999999999999
sS'competitive salary'
p200
F0.0087069999999999995
sS'catch'
p201
F0.016771000000000001
sS'next bus'
p202
F0.017784000000000001
sS'believe'
p203
F0.005176
sS'creative workspace'
p204
F0.017784000000000001
sS'selling directly'
p205
F0.017784000000000001
sS'present'
p206
F0.0057239999999999999
sS'customer'
p207
F0.013108
sS'equal opportunity employer'
p208
F0.0046839999999999998
sS'account'
p209
F0.033642999999999999
sS'target'
p210
F0.0083960000000000007
sS'work'
p211
F0.0026120000000000002
sS'value'
p212
F0.017090000000000001
sS'project'
p213
F0.0020240000000000002
sS'venture backing'
p214
F0.017784000000000001
sS'typical day'
p215
F0.015757
sS'transparency'
p216
F0.011469999999999999
sS'learn'
p217
F0.0047609999999999996
sS'socrata solution'
p218
F0.017784000000000001
sS'fulfill'
p219
F0.012156
sS'similar'
p220
F0.0056639999999999998
sS'procedure'
p221
F0.0061619999999999999
sS'buried'
p222
F0.017784000000000001
sS'complex'
p223
F0.0039610000000000001
sS'6+ year'
p224
F0.023356999999999999
sS'forecasting'
p225
F0.007744
sS'process'
p226
F0.0075909999999999997
sS'boston'
p227
F0.011143
sS'metric'
p228
F0.012531
sS'inaccessible'
p229
F0.017784000000000001
sS'share'
p230
F0.0067679999999999997
sS'honest relationship'
p231
F0.017784000000000001
sS'proven'
p232
F0.0070159999999999997
sS'drive'
p233
F0.0032109999999999999
sS'globally'
p234
F0.0096629999999999997
sS'effectively'
p235
F0.0052709999999999996
sS'healthcare'
p236
F0.0057390000000000002
sS'contract'
p237
F0.0083099999999999997
sS'accounting'
p238
F0.012362
sS'need'
p239
F0.002689
sS'partner'
p240
F0.0079279999999999993
sS'appear'
p241
F0.016385
sS'seek'
p242
F0.0076660000000000001
sS'product roadmap'
p243
F0.011906
sS'analysis'
p244
F0.0020479999999999999
sS'sell'
p245
F0.010853
sS'democratize access'
p246
F0.017784000000000001
sS'develop'
p247
F0.0019499999999999999
sS'us'
p248
F0.0042170000000000003
sS'provide'
p249
F0.002542
sS'multi-lateral organization'
p250
F0.017784000000000001
sS'quota'
p251
F0.017784000000000001
sS'responsible'
p252
F0.0030790000000000001
sS'enterprise'
p253
F0.0046309999999999997
sS'accountable'
p254
F0.009946
sS'contact'
p255
F0.0086099999999999996
sS'customer nurture campaign'
p256
F0.017784000000000001
sS'successful'
p257
F0.006241
sS'methodology'
p258
F0.0087810000000000006
sS"we'll broaden"
p259
F0.017784000000000001
sS'emphasize'
p260
F0.015757
sS'functionality introduced'
p261
F0.017784000000000001
sS'better'
p262
F0.0056690000000000004
sS'several'
p263
F0.0082539999999999992
sS'intelligent'
p264
F0.010000999999999999
sS'highly desired'
p265
F0.010776000000000001
sS'enterprise customers'
p266
F0.017784000000000001
sS'map'
p267
F0.011232000000000001
sS'product'
p268
F0.0037750000000000001
sS'safe'
p269
F0.012664999999999999
sS'building'
p270
F0.0032569999999999999
sS'socrata ha 160 employee'
p271
F0.018504
sS'may'
p272
F0.0049049999999999996
sS'welcome'
p273
F0.010144
sS'individual contributor'
p274
F0.011098999999999999
sS'negotiate'
p275
F0.012832
sS'accurately'
p276
F0.010892000000000001
sS'driven'
p277
F0.0050270000000000002
sS'fast-growing'
p278
F0.012919999999999999
sS'regular'
p279
F0.0085939999999999992
sS'plan'
p280
F0.0095080000000000008
sS'position'
p281
F0.002457
sS'bill melinda gates foundation'
p282
F0.017784000000000001
sS'strategic'
p283
F0.0088459999999999997
sS'unleash'
p284
F0.013639
sS'data'
p285
F0.0085400000000000007
sS'implement'
p286
F0.0035379999999999999
sS'united nations'
p287
F0.016385
sS'professional service'
p288
F0.011572000000000001
sS'database administrator'
p289
F0.015254999999999999
sS"sale 'solution selling' target"
p290
F0.017784000000000001
sS'best-in-class technology'
p291
F0.017784000000000001
sS'work closely'
p292
F0.0050699999999999999
sS'multi-functional team'
p293
F0.016385
sS'home'
p294
F0.0080549999999999997
sS'headquartered'
p295
F0.0080549999999999997
sS'well'
p296
F0.0029550000000000002
sS'sale'
p297
F0.043901999999999997
sS'together'
p298
F0.0068690000000000001
sS"people's hand"
p299
F0.017784000000000001
sS"you'll"
p300
F0.011488
sS'client'
p301
F0.0031939999999999998
sS'u'
F0.0058209999999999998
sS'presenting'
p302
F0.0087569999999999992
sS'time'
p303
F0.0037940000000000001
sS'organization'
p304
F0.0084200000000000004
sS'software'
p305
F0.0051029999999999999
sS'demonstrate expansion'
p306
F0.017784000000000001
sS'upsell new socrata product'
p307
F0.017784000000000001
sS'representative'
p308
F0.010932000000000001
s.