(dp1
S'emerging'
p2
I1
sS'concept'
p3
I1
sS'need'
p4
I1
sS'healthcare industry'
p5
I1
sS'excel'
p6
I1
sS'probe'
p7
I1
sS'dynamic'
p8
I1
sS'atmosphere'
p9
I1
sS'packaged'
p10
I1
sS'manager'
p11
I1
sS'quality control'
p12
I1
sS'well-being'
p13
I1
sS'directs'
p14
I1
sS'day-to-day'
p15
I1
sS'keywords'
p16
I1
sS'goods.'
p17
I1
sS'find'
p18
I1
sS'developer'
p19
I1
sS'impact'
p20
I1
sS'gather'
p21
I1
sS'difference'
p22
I1
sS'group'
p23
I1
sS'work.'
p24
I1
sS'unitedhealthcare'
p25
I1
sS'disability'
p26
I1
sS'minnesota'
p27
I1
sS'employer'
p28
I1
sS'candidates'
p29
I1
sS'ambiguity'
p30
I1
sS'achieve'
p31
I1
sS'2+'
p32
I1
sS'minnetonka'
p33
I1
sS'python'
p34
I1
sS'overall'
p35
I1
sS'preferred'
p36
I1
sS'nation'
p37
I1
sS'9'
I1
sS'qualified'
p38
I1
sS'fastest'
p39
I1
sS'hands'
p40
I1
sS'using'
p41
I1
sS'unique'
p42
I1
sS'bigger'
p43
I1
sS'masters'
p44
I1
sS'solves'
p45
I1
sS'system.'
p46
I1
sS'gender'
p47
I1
sS'performing'
p48
I1
sS'solution'
p49
I1
sS'teams'
p50
I1
sS'large'
p51
I1
sS'communications'
p52
I1
sS'audience'
p53
I1
sS'race'
p54
I1
sS'starting'
p55
I1
sS'team'
p56
I1
sS'relation'
p57
I1
sS"isn't"
p58
I1
sS'development'
p59
I1
sS'requirement'
p60
I1
sS'mn'
p61
I1
sS'people'
p62
I1
sS'public relations'
p63
I1
sS'the'
p64
I1
sS'national'
p65
I1
sS'innovative'
p66
I1
sS'idea'
p67
I1
sS'dedicated'
p68
I1
sS'sex'
p69
I1
sS'understood'
p70
I1
sS'organizational'
p71
I1
sS'design'
p72
I1
sS'result'
p73
I1
sS'year'
p74
I1
sS'translates'
p75
I1
sS'employment'
p76
I1
sS'skill'
p77
I1
sS'best'
p78
I1
sS'ability'
p79
I1
sS'that.'
p80
I1
sS'and/or'
p81
I1
sS'degree'
p82
I1
sS'managing'
p83
I1
sS'broad'
p84
I1
sS'decision'
p85
I1
sS'proficient'
p86
I1
sS'equal'
p87
I1
sS'cross-segment'
p88
I1
sS'/'
I1
sS'religion'
p89
I1
sS'protected'
p90
I1
sS'health'
p91
I1
sS'new'
p92
I1
sS'approach'
p93
I1
sS'public'
p94
I1
sS'demonstrated'
p95
I1
sS'data analysis'
p96
I1
sS'creating'
p97
I1
sS'business'
p98
I1
sS'healthcare'
p99
I1
sS'marketing'
p100
I1
sS'predicting'
p101
I1
sS'data scientist'
p102
I1
sS'here'
p103
I1
sS'understanding'
p104
I1
sS'job'
p105
I1
sS'leadership'
p106
I1
sS'brightest'
p107
I1
sS'key'
p108
I1
sS"people's"
p109
I1
sS'interface'
p110
I1
sS'consideration'
p111
I1
sS'beginning'
p112
I1
sS'care.'
p113
I1
sS'improve'
p114
I1
sS'technical'
p115
I1
sS'bachelor'
p116
I1
sS'drug'
p117
I1
sS'3+'
p118
I1
sS'assists'
p119
I1
sS'medicare'
p120
I1
sS'advertising'
p121
I1
sS"it's"
p122
I1
sS'action'
p123
I1
sS'analysis'
p124
I1
sS'facilitate'
p125
I1
sS'marketing/product'
p126
I1
sS'user'
p127
I1
sS'origin'
p128
I1
sS'major'
p129
I1
sS'statistical modeling'
p130
I1
sS'healthier'
p131
I1
sS'color'
p132
I1
sS'communication'
p133
I1
sS'manage'
p134
I1
sS'primary'
p135
I1
sS'highly'
p136
I1
sS'developing'
p137
I1
sS'initiative'
p138
I1
sS'cross-functional'
p139
I1
sS'modeling'
p140
I1
sS'improvement'
p141
I1
sS'quality'
p142
I1
sS'market'
p143
I1
sS'orientation'
p144
I1
sS'stakeholder'
p145
I1
sS"you're"
p146
I1
sS'wealth'
p147
I1
sS'leading'
p148
I1
sS'own.'
p149
I1
sS'support'
p150
I1
sVBachelor
p151
I1
sS'start'
p152
I1
sS'genetic'
p153
I1
sS'influencing'
p154
I1
sS'call'
p155
I1
sS'way'
p156
I1
sS'flexible'
p157
I1
sS'utilizing'
p158
I1
sS'translate'
p159
I1
sS'free'
p160
I1
sS'life'
p161
I1
sS'diversity'
p162
I1
sS'deeper'
p163
I1
sVMaster
p164
I1
sS'tool'
p165
I1
sS'regard'
p166
I1
sS'statistical model'
p167
I1
sS'bold'
p168
I1
sS'proven'
p169
I1
sS'boomer'
p170
I1
sS'filed'
p171
I1
sS'marital'
p172
I1
sS'project management'
p173
I1
sS'center'
p174
I1
sS'customer'
p175
I1
sS'join'
p176
I1
sS'analytics'
p177
I1
sS'this'
p178
I1
sS'characteristic'
p179
I1
sS'challenge'
p180
I1
sS'work'
p181
I1
sS'up'
p182
I1
sS'project'
p183
I1
sS'receive'
p184
I1
sS'r'
I1
sS'exploration'
p185
I1
sS'careers'
p186
I1
sS'growing'
p187
I1
sS'making'
p188
I1
sS'problem'
p189
I1
sS'unitedhealth'
p190
I1
sS'similar'
p191
I1
sS'age'
p192
I1
sS'care'
p193
I1
sS'statistical analysis'
p194
I1
sS'and'
p195
I1
sS'non-technical'
p196
I1
sS'adopt'
p197
I1
sS'customers.'
p198
I1
sS'process'
p199
I1
sS'business strategy'
p200
I1
sS'generation'
p201
I1
sS'statistic'
p202
I1
sS'direction'
p203
I1
sS'deep'
p204
I1
sS'affirmative'
p205
I1
sS'effectively'
p206
I1
sS'strengthen'
p207
I1
sS'experience'
p208
I1
sS'sas'
p209
I1
sS'lifetime'
p210
I1
sS'data analytics'
p211
I1
sS'creates'
p212
I1
sS'pas'
p213
I1
sS'develop'
p214
I1
sS'hoc'
p215
I1
sS'variety'
p216
I1
sS'provide'
p217
I1
sS'sexual'
p218
I1
sS'veteran'
p219
I1
sS'-'
I1
sS'tableau'
p220
I1
sS'needs.'
p221
I1
sS'serving'
p222
I1
sS'responsibilities'
p223
I1
sS'complex'
p224
I1
sV(2, 5]
p225
I1
sS'off-shore'
p226
I1
sS'largest'
p227
I1
sS'objective'
p228
I1
sS'mathematics'
p229
I1
sS'word'
p230
I1
sS'heal'
p231
I1
sS'opportunity'
p232
I1
sS'status'
p233
I1
sS'ad'
p234
I1
sS'product'
p235
I1
sS'description'
p236
I1
sS'test'
p237
I1
sS'information'
p238
I1
sS'may'
p239
I1
sS'assist'
p240
I1
sS'reporting'
p241
I1
sS'qualifications'
p242
I1
sS'proactively'
p243
I1
sS'workplace.'
p244
I1
sS'retirement'
p245
I1
sS'develops'
p246
I1
sS'plan'
p247
I1
sS'sql'
p248
I1
sS'ready'
p249
I1
sS'law'
p250
I1
sS'segment'
p251
I1
sS'grow'
p252
I1
sS'identity'
p253
I1
sS'applicant'
p254
I1
sS'million'
p255
I1
sS'segment-wide'
p256
I1
sS'database'
p257
I1
sS'prioritize'
p258
I1
sS"life's"
p259
I1
sS'required'
p260
I1
sS'well'
p261
I1
sS'expression'
p262
I1
sS'together'
p263
I1
sS'powerpoint'
p264
I1
sS'deliverable'
p265
I1
sS"you'll"
p266
I1
sS'without'
p267
I1
sS'u'
I1
sS'presenting'
p268
I1
sS'sm'
p269
I1
sS'time'
p270
I1
sS'coordinate'
p271
I1
sS'senior'
p272
I1
sS'corporate'
p273
I1
sS'meet'
p274
I1
s.