(dp1
S'origin'
p2
F0.015368831124391183
sS'golden'
p3
F0.072644690450323651
sS'mn'
p4
F0.048302536546897333
sS'orientation'
p5
F0.015808184846877252
sS'computing'
p6
F0.025360295983731816
sS'color'
p7
F0.014527785176747826
sV(0, 2]
p8
F0.021976814094811437
sS'creed'
p9
F0.033289590401216936
sS'related'
p10
F0.0085443779562009558
sS'marital'
p11
F0.023340498339790981
sS'engineering'
p12
F0.012407304887867248
sVMaster
p13
F0.011483306891713167
sS'value'
p14
F0.012919164415994335
sS'have'
p15
F0.034856506055192908
sS'year'
p16
F0.0067788440070830408
sS'sexual'
p17
F0.016245419013804056
sS'spark'
p18
F0.018863436302292709
sV(2, 5]
p19
F0.0093444494291531396
sS'r d'
p20
F0.004888270379341397
sS'discipline'
p21
F0.020767296028990131
sS'national'
p22
F0.014397270047175803
sS'personal'
p23
F0.023778484339019135
sS'travel'
p24
F0.043831233289765195
sS'affectional'
p25
F0.064392964944125289
sS'disability'
p26
F0.013484055797914446
sS'hadoop'
p27
F0.014164300024982812
sS'least'
p28
F0.019456560186354697
sS'eco-system'
p29
F0.071608843146379539
sS'platform'
p30
F0.013379333102076361
sS'race'
p31
F0.015194063462078923
sS'5'
F0.02170387029254538
sS'location'
p32
F0.016562305905391896
sS'veteran'
p33
F0.014100827182107097
sS'you'
p34
F0.012671002652760778
sS'valley'
p35
F0.056414948399735911
sS'data science'
p36
F0.022155090622708398
sS'lease'
p37
F0.07065595619143604
sS'development'
p38
F0.0055058067389672999
sS'we'
p39
F0.0056022353392739341
sS'iot'
p40
F0.048443420525369964
sS'00340265'
p41
F0.10119103852428626
sS'description'
p42
F0.029975350890826837
sS'degree'
p43
F0.0053114845990476127
sS'status.usa-mn-golden'
p44
F0.088112325646302017
sS'python'
p45
F0.0086489959922664648
sS'familiar'
p46
F0.036820483707192979
sS'tool'
p47
F0.0070983715303087691
sS'continuous'
p48
F0.03357064327637703
sS'regard'
p49
F0.019198736079342638
sS'includes'
p50
F0.025923751342671282
sS'valleyyeshbtnofalse'
p51
F0.092939288796890923
sS'job'
p52
F0.0077343656371722837
sS'ancestry'
p53
F0.044807997359773109
sS'background'
p54
F0.016179271972427633
sS'2'
F0.024841811637865106
sS'nationality'
p55
F0.057886531003087834
sS'sex'
p56
F0.018298477137392657
sS'opportunity'
p57
F0.0058053473701515645
sS'identity'
p58
F0.017556399796436976
sS'must'
p59
F0.013742287310612758
sS'10'
p60
F0.02408579653770589
sS'masters'
p61
F0.021190422982953538
sS'worldwide'
p62
F0.037035950705347882
sS'considered'
p63
F0.028866541692310795
sS'gender'
p64
F0.01635011306918276
sS'cloud computing'
p65
F0.042109898767934063
sS'applicant'
p66
F0.016650214636253602
sS'experience'
p67
F0.0016510754672860546
sS'without'
p68
F0.017212297047472472
sS'r'
F0.0094885565214885958
sS'status'
p69
F0.013696307852781231
sS'qualified'
p70
F0.01740919978403993
sS'computer science'
p71
F0.019685629701310978
sS'expression'
p72
F0.031119240995436528
sS'age'
p73
F0.01752470328235425
sS'microsoft azure'
p74
F0.058530183554941884
sS'at'
p75
F0.030772899828893197
s.