(dp1
S'respond'
p2
F0.056715864720334949
sS'lsevilla'
p3
F0.11184272679000061
sS'expanding'
p4
F0.046727839861609964
sS'related'
p5
F0.0094437861621168451
sS'expertise'
p6
F0.014607830964512604
sS'il'
p7
F0.05370030673319013
sS'off-site'
p8
F0.081545578607541414
sS"zacks'"
p9
F0.11184272679000061
sS'employment'
p10
F0.014567296101629443
sS'click'
p11
F0.040346995000088912
sS'market'
p12
F0.051217274906152931
sS'principal'
p13
F0.039351433539658982
sS'based'
p14
F0.01600274502536277
sS'chicago'
p15
F0.093642976152585197
sS'provide'
p16
F0.02121318225506191
sS'agency'
p17
F0.028188449406713067
sS'please'
p18
F0.019498321989089202
sS'responsibilities'
p19
F0.012055030757775824
sS'opportunities'
p20
F0.047695741606943086
sS'research'
p21
F0.012545505199775797
sS'looking'
p22
F0.015480590294213205
sS'how'
p23
F0.046179530971037129
sS'Bachelor'
p24
F0.0044730943067387459
sS'call'
p25
F0.035985800408517905
sS'location'
p26
F0.018305706527012099
sS'type'
p27
F0.026702354665085005
sV[0]
p28
F0.018765400952137433
sS'careers'
p29
F0.044036718892583808
sS'stock'
p30
F0.085468749063429064
sS'we'
p31
F0.0061919443223554006
sS'full'
p32
F0.023840206351393972
sS'return'
p33
F0.052634943070727837
sS'business'
p34
F0.0051829689322131136
sS'resume'
p35
F0.0351857354652024
sS'lupe'
p36
F0.11184272679000061
sS'team'
p37
F0.0026883690713971251
sS'data scientist'
p38
F0.002435095981141863
sS'cover'
p39
F0.044266883985905059
sS'here'
p40
F0.041549411876335506
sS'applications'
p41
F0.079790397632081719
sS'job'
p42
F0.0085485093884535776
sS'part'
p43
F0.016860723785082112
sS'recruiting'
p44
F0.036490286117037952
sS'letter'
p45
F0.049875518617640453
sS'please.'
p46
F0.049524628660801859
sS'data'
p47
F0.0067773094961334603
sS'hr'
p48
F0.054184693085248536
sS'full-time'
p49
F0.033207582668914597
sS'remote'
p50
F0.044036718892583808
sS'zacks.com.'
p51
F0.11184272679000061
sS'phone'
p52
F0.044820131513275421
sS'career'
p53
F0.019844367682133213
sS'scientist-'
p54
F0.06948916176539631
sS'no'
p55
F0.029506390059902781
sS'list'
p56
F0.047496381105443991
sS'us'
p57
F0.021628662041697222
sS'machine learning'
p58
F0.020856270986993258
sS'investment'
p59
F0.077658506190276963
sS'experience'
p60
F0.00091243644244755643
sS'part-time'
p61
F0.064691255508093654
sS'contact'
p62
F0.033443435197463296
sS'zacks'
p63
F0.33552818037000182
sS'quezada'
p64
F0.11184272679000061
sS'time'
p65
F0.029280698128446633
sS'partner-'
p66
F0.11184272679000061
s.