(dp1
S'exciting opportunity'
p2
F0.018412999999999999
sS'communicate effectively'
p3
F0.016487000000000002
sS'major'
p4
F0.010534999999999999
sS'four'
p5
F0.017922
sS'cell based assay result'
p6
F0.031995000000000003
sS'strongly support'
p7
F0.025831
sS'statistical'
p8
F0.031323999999999998
sS'staff'
p9
F0.019633999999999999
sS'based'
p10
F0.0060730000000000003
sS'vitro assay technology'
p11
F0.031995000000000003
sS'personal'
p12
F0.011259999999999999
sS'working knowledge'
p13
F0.010364
sS'responsibilities'
p14
F0.0050899999999999999
sS'operational'
p15
F0.0088009999999999998
sS'environment'
p16
F0.014233000000000001
sS'interested'
p17
F0.011892
sS'factor'
p18
F0.016826000000000001
sS'employee'
p19
F0.007345
sS'team'
p20
F0.0046990000000000001
sS'positive attitude'
p21
F0.020383999999999999
sS'advantage'
p22
F0.018643
sS'exceptional'
p23
F0.010817
sS'project flow-scheme'
p24
F0.031995000000000003
sS'highest quality'
p25
F0.018339000000000001
sS'interpreting'
p26
F0.018055999999999999
sS'compound'
p27
F0.031995000000000003
sS'jmp knime spotfire genedata abase ngr'
p28
F0.031995000000000003
sS'advanced'
p29
F0.044810999999999997
sS'desire'
p30
F0.011599
sS'like'
p31
F0.0088229999999999992
sS'success'
p32
F0.0072700000000000004
sS'level'
p33
F0.0060480000000000004
sS'communicates'
p34
F0.016775999999999999
sS'cover letter'
p35
F0.016532999999999999
sS'applicable'
p36
F0.013419
sS'leader'
p37
F0.012939000000000001
sS'capability'
p38
F0.0071349999999999998
sS'high throughput screening'
p39
F0.031995000000000003
sS'small'
p40
F0.011488
sS'please apply'
p41
F0.020896999999999999
sS"create sop's"
p42
F0.034835999999999999
sS'requirement'
p43
F0.010355
sS'work'
p44
F0.0028549999999999999
sS'testing'
p45
F0.039136999999999998
sS'related'
p46
F0.0056979999999999999
sS'27 year'
p47
F0.031995000000000003
sS'individual'
p48
F0.0065180000000000004
sS'result'
p49
F0.015882
sS'combining'
p50
F0.016216000000000001
sS'laboratory'
p51
F0.12837299999999999
sS'operation'
p52
F0.0075550000000000001
sS'ability'
p53
F0.0023270000000000001
sS'project'
p54
F0.0066369999999999997
sS'assistance'
p55
F0.015048000000000001
sS'critical'
p56
F0.0089250000000000006
sS'template'
p57
F0.022769000000000001
sS'high quality biochemical'
p58
F0.031995000000000003
sS'evaluation'
p59
F0.011671000000000001
sS'method'
p60
F0.0057320000000000001
sS'basic qualifications'
p61
F0.0092540000000000001
sS'biology'
p62
F0.020383999999999999
sS'scientific'
p63
F0.031802999999999998
sS'resume'
p64
F0.011877
sS'data scientist'
p65
F0.0054149999999999997
sS'benefit package including medical dental'
p66
F0.031995000000000003
sS'deliver'
p67
F0.0055890000000000002
sS'standard'
p68
F0.0075189999999999996
sS'strong'
p69
F0.0041570000000000001
sS'care'
p70
F0.010033
sS'broad array'
p71
F0.024652
sS'advance'
p72
F0.011877
sS'package'
p73
F0.012047
sS'technical'
p74
F0.0038969999999999999
sS'atl'
p75
F0.031995000000000003
sS'experience'
p76
F0.0030620000000000001
sS'life cycle'
p77
F0.014983
sS'ensure'
p78
F0.0068729999999999998
sS'workplace'
p79
F0.0084989999999999996
sS'pharmaceutical biopharmaceutical medical device'
p80
F0.031995000000000003
sS'recognizes'
p81
F0.02402
sS'contribution'
p82
F0.013226
sS'indianapolis indiana'
p83
F0.031995000000000003
sS'experimental'
p84
F0.032346
sS'software'
p85
F0.0083649999999999992
sS'prior experience utilizing'
p86
F0.031995000000000003
sS'provide mentorship'
p87
F0.025399000000000001
sS'pre-clinical r'
p88
F0.031995000000000003
sS'last 27 year'
p89
F0.034835999999999999
sS'facility'
p90
F0.016088000000000002
sS'resulting'
p91
F0.019928000000000001
sS'collaborating'
p92
F0.013311
sS'401 k retirement plan'
p93
F0.021482999999999999
sS'experienced data scientist'
p94
F0.016929
sS'previous experience working'
p95
F0.02299
sS'external client'
p96
F0.017543
sS'aptitude'
p97
F0.015685000000000001
sS'analyze biochemical'
p98
F0.031995000000000003
sS'high throughput screening hts knowledge'
p99
F0.031995000000000003
sS'pharmaceutical'
p100
F0.018124999999999999
sS'management'
p101
F0.0046340000000000001
sS'preferable skill'
p102
F0.031995000000000003
sS'service'
p103
F0.013129999999999999
sS'area'
p104
F0.0167
sS'addition'
p105
F0.010899000000000001
sS'data'
p106
F0.0080000000000000002
sS'top'
p107
F0.0098080000000000007
sS'support'
p108
F0.0056109999999999997
sS"world's"
p109
F0.010513
sS'consultation'
p110
F0.016532999999999999
sS'interest'
p111
F0.010427000000000001
sS'analyze'
p112
F0.021781999999999999
sS'type'
p113
F0.010911000000000001
sS'paid time'
p114
F0.015426
sS'creation'
p115
F0.010600999999999999
sS'diversity'
p116
F0.0094330000000000004
sS'offering'
p117
F0.012603
sS'offer'
p118
F0.0065929999999999999
sS'company'
p119
F0.0083560000000000006
sS'experimental assay data using'
p120
F0.031995000000000003
sS'business process'
p121
F0.011365999999999999
sS'ensuring'
p122
F0.011351999999999999
sS'external'
p123
F0.0094830000000000001
sS'ha'
p124
F0.0076140000000000001
sS'producing'
p125
F0.017365999999999999
sS'present'
p126
F0.0093830000000000007
sS'must'
p127
F0.0057190000000000001
sS'look'
p128
F0.013061
sS'developing'
p129
F0.0055440000000000003
sS'seeking'
p130
F0.0073800000000000003
sS'biology chemistry biochemistry'
p131
F0.031995000000000003
sS'work ethic'
p132
F0.017728000000000001
sS'minimum'
p133
F0.015313
sS'ms'
p134
F0.0094579999999999994
sS'fun'
p135
F0.012159
sS'providing'
p136
F0.007097
sS'challenging'
p137
F0.011393
sS'outstanding'
p138
F0.014673
sS'defined'
p139
F0.015802
sS'year'
p140
F0.0082480000000000001
sS'prosecute compound based'
p141
F0.031995000000000003
sS'equal opportunity employer'
p142
F0.0076779999999999999
sS'effectively'
p143
F0.0086400000000000001
sS'diverse'
p144
F0.0080059999999999992
sS'expertise'
p145
F0.0055149999999999999
sS'contract'
p146
F0.013623
sS'need'
p147
F0.0044079999999999996
sS'partner'
p148
F0.0064980000000000003
sS'education'
p149
F0.006698
sS'competency'
p150
F0.016303999999999999
sS'provide'
p151
F0.0041660000000000004
sS'qualified candidate'
p152
F0.016826000000000001
sS'large bio molecule'
p153
F0.031995000000000003
sS'-'
F0.0061320000000000003
sS'expanded'
p154
F0.030334
sS'field'
p155
F0.0081130000000000004
sS'ideal'
p156
F0.018194999999999999
sS'internal'
p157
F0.0065680000000000001
sS'data transfer'
p158
F0.022168
sS'plus'
p159
F0.0062919999999999998
sS'equivalent combination'
p160
F0.016004000000000001
sS'data dose response'
p161
F0.031995000000000003
sS'fda gmp glp requirement'
p162
F0.031995000000000003
sS'development'
p163
F0.0027499999999999998
sS'product'
p164
F0.0030950000000000001
sS'experienced'
p165
F0.010923
sS'qc methodology'
p166
F0.031995000000000003
sS'offer competitive salary'
p167
F0.023737999999999999
sS'tool'
p168
F0.0029589999999999998
sS'phd'
p169
F0.0065799999999999999
sS'proficiency'
p170
F0.0079240000000000005
sS'plan'
p171
F0.0077939999999999997
sS'opportunity'
p172
F0.0041120000000000002
sS'achievement'
p173
F0.017142000000000001
sS'salary'
p174
F0.015498
sS'vitro biology'
p175
F0.031995000000000003
sS'work closely'
p176
F0.0083110000000000007
sS'database'
p177
F0.012095
sS'curve'
p178
F0.021035999999999999
sS'customized'
p179
F0.021180000000000001
sS'cell based assay data'
p180
F0.031995000000000003
sS'person'
p181
F0.011095000000000001
sS'client'
p182
F0.020947
sS'responsibility'
p183
F0.0081130000000000004
sS'test compound ordering'
p184
F0.031995000000000003
sS'life insurance'
p185
F0.016129999999999999
sS'professional'
p186
F0.0072170000000000003
sS'exercises independent judgment'
p187
F0.031995000000000003
sS'consumer'
p188
F0.0085719999999999998
sS'order'
p189
F0.0090290000000000006
s.