(dp1
S''
F0.0068570000000000002
sS'limited'
p2
F0.0076160000000000004
sS'concept'
p3
F0.0065409999999999999
sS'semantic'
p4
F0.017722000000000002
sS'ontology-centered knowledge representation'
p5
F0.023872000000000001
sS'wwwjhuapledu'
p6
F0.018002000000000001
sS'property restriction language'
p7
F0.023872000000000001
sS'mission'
p8
F0.0060390000000000001
sS'clearly express oneself'
p9
F0.023872000000000001
sS'paper'
p10
F0.015901999999999999
sS'including'
p11
F0.0028389999999999999
sS'innovative'
p12
F0.005731
sS'related field'
p13
F0.005587
sS'skill'
p14
F0.0030969999999999999
sS'strong understanding'
p15
F0.011042
sS'staff'
p16
F0.008038
sS'discipline'
p17
F0.0082389999999999998
sS'access'
p18
F0.0070239999999999999
sS'applicant selected'
p19
F0.017224
sS'knowledge'
p20
F0.0030850000000000001
sS'big data'
p21
F0.0052249999999999996
sS'field'
p22
F0.0066429999999999996
sS'required qualifications'
p23
F0.010761
sS'schema rdfs'
p24
F0.023872000000000001
sS'advancement'
p25
F0.013499000000000001
sS'decompose real-world'
p26
F0.023872000000000001
sS'environment'
p27
F0.0077689999999999999
sS'high-level requirement'
p28
F0.022511
sS'duties listed'
p29
F0.019220000000000001
sS'listing'
p30
F0.015980999999999999
sS'include'
p31
F0.0062690000000000003
sS'take'
p32
F0.0069210000000000001
sS'scholarship tuition program'
p33
F0.018002000000000001
sS'system concerned'
p34
F0.023872000000000001
sS'intersect semantic web ontology based'
p35
F0.023872000000000001
sS'seeking'
p36
F0.0060429999999999998
sS'dependent'
p37
F0.015675999999999999
sS'practice'
p38
F0.0066779999999999999
sS'software engineer'
p39
F0.0092739999999999993
sS'eg jena sesame triple quad stores proficiency'
p40
F0.023872000000000001
sS'race color religion'
p41
F0.015980999999999999
sS'deployment'
p42
F0.01542
sS'using'
p43
F0.0074510000000000002
sS'equal opportunity affirmative action employer'
p44
F0.009639
sS'semi-automated'
p45
F0.023872000000000001
sS'advanced'
p46
F0.010482999999999999
sS'technologist ontologists physicist chemist biologist'
p47
F0.023872000000000001
sS'resource'
p48
F0.007195
sS'identifying'
p49
F0.0089739999999999993
sS'liberal vacation plan'
p50
F0.018002000000000001
sS'conceive'
p51
F0.016593
sS'position description'
p52
F0.011731999999999999
sS'method'
p53
F0.0093869999999999995
sS'architecture'
p54
F0.0064980000000000003
sS'activity'
p55
F0.006953
sS'small'
p56
F0.0094059999999999994
sS'innovative energeticsemantic web linked data scientist'
p57
F0.026197999999999999
sS'towards'
p58
F0.01243
sS'united states- maryland- laurel'
p59
F0.020476999999999999
sS'profile'
p60
F0.012812
sS'requirement'
p61
F0.0084779999999999994
sS'set'
p62
F0.021479999999999999
sS'job summary'
p63
F0.024379000000000001
sS'intelligence'
p64
F0.025798000000000001
sS'national'
p65
F0.023882
sS'candidate must'
p66
F0.012403000000000001
sS'information retrieval'
p67
F0.012600999999999999
sS'equal employment opportunity johns hopkins university applied physics laboratory apl'
p68
F0.018307
sS'web site'
p69
F0.015076000000000001
sS'design'
p70
F0.0083280000000000003
sS'sponsor'
p71
F0.010777999999999999
sS'essential function'
p72
F0.013499000000000001
sS'receive consideration'
p73
F0.0065599999999999999
sS'ability'
p74
F0.0019059999999999999
sS'logical inferencefamiliarity'
p75
F0.026197999999999999
sS'describing'
p76
F0.01669
sS'production system'
p77
F0.014414
sS'purpose'
p78
F0.0092739999999999993
sS'familiarity'
p79
F0.0063090000000000004
sS'research'
p80
F0.011884
sS'current'
p81
F0.007097
sS'importance'
p82
F0.014172000000000001
sS'investigation'
p83
F0.012781000000000001
sS'classified information eligibility requirement'
p84
F0.018151
sS'new'
p85
F0.0031610000000000002
sS'approach'
p86
F0.0055129999999999997
sS'leader'
p87
F0.0052969999999999996
sS'matching retirement program'
p88
F0.018151
sS'available'
p89
F0.0080680000000000005
sS'core'
p90
F0.006986
sS'integrated'
p91
F0.010232
sS'theory'
p92
F0.011643000000000001
sS'degree'
p93
F0.0075969999999999996
sS'subject matter expert'
p94
F0.010160000000000001
sS'standard'
p95
F0.006156
sS'implementing'
p96
F0.0081290000000000008
sS'web-based system'
p97
F0.021994
sS'graph theoretic approach'
p98
F0.023872000000000001
sS'addressed using'
p99
F0.023872000000000001
sS'security'
p100
F0.0076099999999999996
sS'change'
p101
F0.0061139999999999996
sS'software development'
p102
F0.0081519999999999995
sS'framework rdf resource'
p103
F0.023872000000000001
sS'primary location'
p104
F0.010217
sS'language'
p105
F0.006594
sS'scientific research'
p106
F0.015604
sS'study'
p107
F0.0092090000000000002
sS'experience'
p108
F0.0012539999999999999
sS'qualified applicant'
p109
F0.006169
sS'conference occasional travel'
p110
F0.023872000000000001
sS'fully-defined detailed'
p111
F0.023872000000000001
sS'counter-wmd'
p112
F0.023872000000000001
sS'sexual orientation gender identity national origin disability'
p113
F0.018151
sS'implement'
p114
F0.0047489999999999997
sS'significant educational assistance'
p115
F0.018151
sS'baltimore'
p116
F0.018151
sS'may exist'
p117
F0.023872000000000001
sS'duty'
p118
F0.0095680000000000001
sS'regardless'
p119
F0.014567999999999999
sS'data science'
p120
F0.0039789999999999999
sS'within'
p121
F0.0080569999999999999
sS'complies'
p122
F0.017342
sS'one'
p123
F0.0038760000000000001
sS'special working conditions travel'
p124
F0.020797
sS'analyzing'
p125
F0.0092630000000000004
sS'modeling tradeoffsfamiliarity'
p126
F0.026197999999999999
sS'use'
p127
F0.00363
sS'java'
p128
F0.0076099999999999996
sS'additional'
p129
F0.0091149999999999998
sS'working'
p130
F0.00364
sS'area'
p131
F0.0091160000000000008
sS'introduction'
p132
F0.014729000000000001
sS'support'
p133
F0.002297
sS'engagement'
p134
F0.0089149999999999993
sS'system'
p135
F0.0092540000000000001
sS'government security clearance'
p136
F0.017224
sS'employing semantic technology'
p137
F0.023872000000000001
sS'capital region'
p138
F0.023872000000000001
sS'intermediate'
p139
F0.015464
sS'troubleshooting'
p140
F0.011450999999999999
sS'closed area extended hour'
p141
F0.020797
sS'basic'
p142
F0.010009000000000001
sS'washington dc'
p143
F0.012088
sS'applying'
p144
F0.0087810000000000006
sS'practical experience building'
p145
F0.021994
sS'estimated amount'
p146
F0.019220000000000001
sS'statistical inferencecurrent ts sci'
p147
F0.026197999999999999
sS'pythoncomfortable'
p148
F0.026197999999999999
sS'contribute'
p149
F0.0078560000000000001
sS'practical application'
p150
F0.016497999999999999
sS'tool'
p151
F0.0024220000000000001
sS'training'
p152
F0.0066779999999999999
sS'gap'
p153
F0.012267999999999999
sS'project scheduleability'
p154
F0.026197999999999999
sS'level'
p155
F0.0049519999999999998
sS'present'
p156
F0.0076829999999999997
sS'customer'
p157
F0.0029329999999999998
sS'10'
p158
F0.038176000000000002
sS'hire'
p159
F0.010076999999999999
sS'novel'
p160
F0.012458
sS'15'
p161
F0.014515999999999999
sS'employment without regard'
p162
F0.006894
sS'semantic web linked data scientist-12397'
p163
F0.026197999999999999
sS'please visit'
p164
F0.015016
sS'consistency checking'
p165
F0.023872000000000001
sS'work'
p166
F0.0023370000000000001
sS'competitive salary commensurate'
p167
F0.018151
sS'knowledge discovery'
p168
F0.017859
sS'creatively'
p169
F0.015675999999999999
sS'absence'
p170
F0.021994
sS'ms'
p171
F0.007744
sS'writingmust'
p172
F0.026197999999999999
sS'benefits apl offer'
p173
F0.018002000000000001
sS'problem'
p174
F0.0092879999999999994
sS'similar'
p175
F0.0076030000000000004
sS'designing'
p176
F0.0080759999999999998
sS'protected veteran status'
p177
F0.0085990000000000007
sS'title ix'
p178
F0.018002000000000001
sS'intellgent systems'
p179
F0.023872000000000001
sS'developing'
p180
F0.0045389999999999996
sS'willingness'
p181
F0.010486000000000001
sS'multi-disciplinary team'
p182
F0.016497999999999999
sS'ai'
p183
F0.013736
sS'modern'
p184
F0.01047
sS'object-oriented'
p185
F0.020185000000000002
sS'adopt upper ontology principle'
p186
F0.023872000000000001
sS'may require'
p187
F0.017224
sS'semantic web'
p188
F0.040953999999999997
sS'organization'
p189
F0.0037669999999999999
sS'expertise'
p190
F0.004516
sS'attend meeting'
p191
F0.021545999999999999
sS'need'
p192
F0.0036089999999999998
sS'partner'
p193
F0.0053210000000000002
sS'education amendments acts'
p194
F0.018002000000000001
sS'sparql graph'
p195
F0.023872000000000001
sS'information'
p196
F0.0077520000000000002
sS'minimal supervision'
p197
F0.013207
sS'realm'
p198
F0.023123000000000001
sS'automated ontology construction alignment'
p199
F0.023872000000000001
sS'author'
p200
F0.016789999999999999
sS'make'
p201
F0.0042509999999999996
sS'comprehensive benefit package including'
p202
F0.017859
sS'-'
F0.0050210000000000003
sS'feature'
p203
F0.0086619999999999996
sS'40'
p204
F0.015138
sS'note'
p205
F0.01307
sS'application'
p206
F0.0036619999999999999
sS'5'
F0.010486000000000001
sS'computer science'
p207
F0.010444
sS'natural language processing'
p208
F0.019182999999999999
sS'test'
p209
F0.0065310000000000003
sS'ontology engineering'
p210
F0.023123000000000001
sS'subject'
p211
F0.0097370000000000009
sS'technology falling within'
p212
F0.023872000000000001
sS'applicable law'
p213
F0.014081
sS'development'
p214
F0.0067539999999999996
sS'data mining technique'
p215
F0.013946999999999999
sS'formal ontology bfo'
p216
F0.023872000000000001
sS'description'
p217
F0.013885
sS'schedule full-time'
p218
F0.01187
sS'deploy'
p219
F0.019963999999999999
sS'may'
p220
F0.0065839999999999996
sS'information retrieval classifiers'
p221
F0.023872000000000001
sS'needsability'
p222
F0.026197999999999999
sS'qualifications'
p223
F0.004045
sS'web ontology language owl including'
p224
F0.023872000000000001
sS'phd'
p225
F0.0053880000000000004
sS'proficiency'
p226
F0.012977000000000001
sS'user'
p227
F0.0063090000000000004
sS'desired qualifications'
p228
F0.01307
sS'completion'
p229
F0.010661
sS'develop'
p230
F0.0026180000000000001
sS'stack'
p231
F0.011686999999999999
sS'johns hopkins university applied physics laboratory apl'
p232
F0.018643
sS'must meet'
p233
F0.01711
sS'task'
p234
F0.013939
sS'time spent'
p235
F0.018824
sS'software engineering'
p236
F0.0096270000000000001
sS'framework'
p237
F0.0066230000000000004
sS'amount'
p238
F0.013991
sS'well'
p239
F0.0039659999999999999
sS'1972'
p240
F0.018002000000000001
sS'analysis'
p241
F0.010999
sS'located midway'
p242
F0.018643
sS'academic'
p243
F0.020018000000000001
sS'orally'
p244
F0.01575
sS'responsibility'
p245
F0.0066429999999999996
sS'principle'
p246
F0.0091990000000000006
sS'query languagestrong understanding'
p247
F0.026197999999999999
sS'time'
p248
F0.010184
sS'position'
p249
F0.0032980000000000002
sS'senior'
p250
F0.0068469999999999998
sS'software'
p251
F0.0068490000000000001
sS'us citizenship'
p252
F0.012971
sS'order'
p253
F0.0073930000000000003
sS'travel'
p254
F0.0076499999999999997
s.