(dp1
S'code'
p2
F0.01618
sS'related field'
p3
F0.013214999999999999
sS'help'
p4
F0.0078790000000000006
sS'experience working'
p5
F0.044450000000000003
sS'web service'
p6
F0.035513999999999997
sS'entity'
p7
F0.034209999999999997
sS'mysql'
p8
F0.063672999999999993
sS'integrity'
p9
F0.021129999999999999
sS'xml'
p10
F0.037609999999999998
sS'candidate'
p11
F0.014836999999999999
sS'implementation'
p12
F0.013537
sS'web application'
p13
F0.059062999999999997
sS'environment'
p14
F0.0091870000000000007
sS'technological'
p15
F0.038385000000000002
sS'leading-edge'
p16
F0.045456000000000003
sS'extensive'
p17
F0.025943999999999998
sS'awareness'
p18
F0.029871999999999999
sS'combination'
p19
F0.021984
sS'government'
p20
F0.020486000000000001
sS'propose'
p21
F0.033090000000000001
sS'key responsibilities'
p22
F0.029141
sS'report'
p23
F0.011055000000000001
sS'existing'
p24
F0.016548
sS'maintaining'
p25
F0.02214
sS'solution'
p26
F0.011287
sS'large'
p27
F0.016471
sS'team'
p28
F0.0060670000000000003
sS'security'
p29
F0.053992999999999999
sS'c c vb net'
p30
F0.067460999999999993
sS'mvc framework'
p31
F0.054686999999999999
sS'cybersecurity'
p32
F0.038802999999999997
sS'gather requirement'
p33
F0.044975000000000001
sS'cyber'
p34
F0.034090000000000002
sS'version control system'
p35
F0.040467000000000003
sS'design'
p36
F0.0065659999999999998
sS'w2'
p37
F0.053240000000000003
sS'experience developing'
p38
F0.052582999999999998
sS'preferred skills experiences'
p39
F0.067460999999999993
sS'please'
p40
F0.023833
sS'current'
p41
F0.016785999999999999
sS'adapt'
p42
F0.027182000000000001
sS'experience using'
p43
F0.022571999999999998
sS'data scientist'
p44
F0.0052430000000000003
sS'incident'
p45
F0.041603000000000001
sS'bachelors degree'
p46
F0.018013000000000001
sS'streamline'
p47
F0.041603000000000001
sS'readiness resilience'
p48
F0.067460999999999993
sS'equal opportunity employer eoe aa'
p49
F0.061960000000000001
sS'interaction'
p50
F0.023390000000000001
sS'language'
p51
F0.015594999999999999
sS'receive'
p52
F0.026890000000000001
sS'many'
p53
F0.019869999999999999
sS'job'
p54
F0.0094479999999999998
sS'experience'
p55
F0.0029650000000000002
sS'plus'
p56
F0.012184
sS'comprehensive paperless management'
p57
F0.067460999999999993
sS'software'
p58
F0.016199000000000002
sS'experis'
p59
F0.061960000000000001
sS'one'
p60
F0.0091669999999999998
sS'experience developing 508-compliant web application'
p61
F0.067460999999999993
sS'landscape'
p62
F0.032391000000000003
sS'engineer'
p63
F0.013509999999999999
sS'resolve issue'
p64
F0.039711000000000003
sS'customer base'
p65
F0.037609999999999998
sS'java'
p66
F0.017998
sS'support'
p67
F0.010866000000000001
sS'situational awareness'
p68
F0.054686999999999999
sS'on-site'
p69
F0.042237999999999998
sS'analyze'
p70
F0.028119999999999999
sS'4 year'
p71
F0.051062000000000003
sS'job description'
p72
F0.016056999999999998
sS'business process'
p73
F0.044019999999999997
sS'part'
p74
F0.010855999999999999
sS'must'
p75
F0.011074000000000001
sS'customer'
p76
F0.013871
sS'developing'
p77
F0.010736000000000001
sS'work'
p78
F0.002764
sS'following'
p79
F0.014409999999999999
sS'meet'
p80
F0.015049999999999999
sS'need'
p81
F0.0085369999999999994
sS'advancing'
p82
F0.033410000000000002
sS'physical'
p83
F0.024511000000000002
sS'requirements'
p84
F0.014204
sS'provide'
p85
F0.0080680000000000005
sS'able'
p86
F0.012282
sS'application'
p87
F0.017321
sS'test'
p88
F0.015446
sS'3 year'
p89
F0.112496
sS'html javascript jquery'
p90
F0.067460999999999993
sS'css'
p91
F0.041914
sS'development'
p92
F0.01065
sS'equivalent experience'
p93
F0.0223
sS'develops'
p94
F0.019244000000000001
sS'regular'
p95
F0.027282000000000001
sS'php'
p96
F0.079909999999999995
sS'response'
p97
F0.027182000000000001
sS'effective'
p98
F0.017586999999999998
sS'windows'
p99
F0.033856999999999998
sS'perform'
p100
F0.014127000000000001
sS'cyber threat'
p101
F0.047738999999999997
sS'ha benefited'
p102
F0.067460999999999993
sS'clearance'
p103
F0.025860000000000001
s.