(dp1
S'company sponsored conferences'
p2
F0.028917999999999999
sS'library subscription'
p3
F0.028917999999999999
sS'applicants selected'
p4
F0.015299999999999999
sS'-3+ integration'
p5
F0.031734999999999999
sS'obtain'
p6
F0.011764999999999999
sS'-experience'
p7
F0.094515000000000002
sS'oconus location'
p8
F0.027269000000000002
sS'including'
p9
F0.0068780000000000004
sS'statistical'
p10
F0.0062139999999999999
sS'gym access'
p11
F0.028917999999999999
sS'-knowledge'
p12
F0.019264
sS'based'
p13
F0.012048
sS'knowledge'
p14
F0.0037369999999999999
sS'personal'
p15
F0.011169
sS'minorities females protected veterans'
p16
F0.022804000000000001
sS'employer'
p17
F0.013558000000000001
sS'environment'
p18
F0.0047060000000000001
sS'analytic'
p19
F0.0072950000000000003
sS'program'
p20
F0.012723
sS'4'
F0.013821999999999999
sS'integral part'
p21
F0.01857
sS'intelligence community'
p22
F0.017111999999999999
sS'holiday'
p23
F0.018815999999999999
sS'ubuntu year'
p24
F0.028917999999999999
sS'seeking'
p25
F0.0073200000000000001
sS'python'
p26
F0.006071
sS'caffe'
p27
F0.047649999999999998
sS'book allowance'
p28
F0.028917999999999999
sS'department'
p29
F0.0093559999999999997
sS'develop new'
p30
F0.013289
sS'developing solution'
p31
F0.014494
sS'difference'
p32
F0.010057999999999999
sS'day'
p33
F0.011561
sS'match vested day'
p34
F0.028917999999999999
sS'deploying application'
p35
F0.022374999999999999
sS'image stitching'
p36
F0.028917999999999999
sS'integrating'
p37
F0.011181999999999999
sS'solution'
p38
F0.0028909999999999999
sS'geospatial'
p39
F0.016843
sS'support exiting software'
p40
F0.028917999999999999
sS'truly appreciates'
p41
F0.028917999999999999
sS'industry-leading veteran-owned small business vosb specializing'
p42
F0.028917999999999999
sS'individually'
p43
F0.020218
sS'2+ year'
p44
F0.011856
sS'intelligence'
p45
F0.010416999999999999
sS'testing'
p46
F0.0077640000000000001
sS'idea'
p47
F0.0090539999999999995
sS'cyber'
p48
F0.017461000000000001
sS'analytics'
p49
F0.003728
sS'defense'
p50
F0.014323000000000001
sS'design'
p51
F0.0067260000000000002
sS'scraped'
p52
F0.018117999999999999
sS'matching'
p53
F0.017225000000000001
sS'subject'
p54
F0.011795
sS'lieu'
p55
F0.015873999999999999
sS'berico technologies'
p56
F0.057834999999999998
sS'business'
p57
F0.0027929999999999999
sS'lead'
p58
F0.0049129999999999998
sS'federal'
p59
F0.015445
sS'integration'
p60
F0.0090390000000000002
sS'research'
p61
F0.0047990000000000003
sS'access'
p62
F0.0085089999999999992
sS'theano'
p63
F0.023545
sS'conus'
p64
F0.027269000000000002
sS'innovation'
p65
F0.0063460000000000001
sS'team berico'
p66
F0.028917999999999999
sS'competitive salary'
p67
F0.014158
sS'security clearance -bs degree'
p68
F0.028011000000000001
sS'sensitive compartmentalized information ts sci clearance'
p69
F0.028917999999999999
sS'basic qualifications'
p70
F0.0091789999999999997
sS'jobs'
p71
F0.017340999999999999
sS'paid parking'
p72
F0.028917999999999999
sS'degree'
p73
F0.0092020000000000001
sS'schedule'
p74
F0.011287
sS'leveraging'
p75
F0.010300999999999999
sS'commercial'
p76
F0.011327
sS'-2+ year'
p77
F0.024806000000000002
sS'-3+ plan'
p78
F0.031734999999999999
sS'implementing'
p79
F0.0098480000000000009
sS'focused'
p80
F0.0089479999999999994
sS'highly skilled'
p81
F0.017646999999999999
sS'dedication'
p82
F0.018414
sS'path'
p83
F0.032613000000000003
sS'exciting'
p84
F0.026030999999999999
sS'cs mathematics'
p85
F0.056021000000000001
sS'training'
p86
F0.0080890000000000007
sS'high level'
p87
F0.012395
sS'modify computer vision'
p88
F0.028917999999999999
sS'language'
p89
F0.015975
sS'-ability'
p90
F0.017776
sS'technical'
p91
F0.0038649999999999999
sS'many'
p92
F0.010178
sS'disabilities'
p93
F0.014991000000000001
sS'annual'
p94
F0.015126000000000001
sS'theano torch'
p95
F0.028917999999999999
sS'experience'
p96
F0.0053150000000000003
sS'creates'
p97
F0.013748
sS'imagery data'
p98
F0.028011000000000001
sS'important'
p99
F0.011067
sS'plus'
p100
F0.012481000000000001
sS'qualification'
p101
F0.012207000000000001
sS'deep learning'
p102
F0.025073000000000002
sS'additional qualifications'
p103
F0.015956999999999999
sS'cloud environment'
p104
F0.016171999999999999
sS'extending free'
p105
F0.027269000000000002
sS'us citizenship required'
p106
F0.019456999999999999
sS'software'
p107
F0.012446
sS'company hack days'
p108
F0.028917999999999999
sS'3+ year'
p109
F0.032152
sS'family'
p110
F0.012777999999999999
sS'data science'
p111
F0.0048199999999999996
sS'multi-media service'
p112
F0.028917999999999999
sS'one'
p113
F0.0046950000000000004
sS'open-source software foss'
p114
F0.028011000000000001
sS'happy hour'
p115
F0.020865000000000002
sS'transformational data analytic'
p116
F0.028917999999999999
sS'analyzing'
p117
F0.011221
sS'linux'
p118
F0.012955
sS'apply'
p119
F0.0057089999999999997
sS'user-centric'
p120
F0.026100000000000002
sS'image processing'
p121
F0.01917
sS'cloud'
p122
F0.0088959999999999994
sS'-18+'
p123
F0.031734999999999999
sS'script'
p124
F0.014267
sS"it's"
p125
F0.012664999999999999
sS'support'
p126
F0.0027829999999999999
sS'much'
p127
F0.016399
sS'cots product'
p128
F0.027269000000000002
sS'flexible'
p129
F0.011750999999999999
sS'prototype'
p130
F0.010604000000000001
sS'matlab'
p131
F0.015126000000000001
sS'location'
p132
F0.0081810000000000008
sS'c++ c java'
p133
F0.027269000000000002
sS'emphasize recruiting hiring'
p134
F0.028917999999999999
sS'diversity'
p135
F0.0093559999999999997
sS'machine learning algorithm'
p136
F0.011259999999999999
sS'offer'
p137
F0.0065389999999999997
sS'company'
p138
F0.0041440000000000001
sS'job description'
p139
F0.0082240000000000004
sS'medical dental vision'
p140
F0.018733
sS'government agency'
p141
F0.019078999999999999
sS'benefits'
p142
F0.011918
sS'ha'
p143
F0.0075519999999999997
sS'potential'
p144
F0.0098289999999999992
sS'mission berico encourages'
p145
F0.028917999999999999
sS'20'
p146
F0.015596
sS'10'
p147
F0.011561
sS'join'
p148
F0.012142999999999999
sS'look'
p149
F0.012955
sS'developing'
p150
F0.016497000000000001
sS'compensation'
p151
F0.016084000000000001
sS'growth'
p152
F0.0084489999999999999
sS'hq location'
p153
F0.028917999999999999
sS'-3+ redhat centos'
p154
F0.031734999999999999
sS'prescription coverage'
p155
F0.028917999999999999
sS'providing'
p156
F0.0070400000000000003
sS'specialized'
p157
F0.016542000000000001
sS'allowance per'
p158
F0.028917999999999999
sS'truly innovative'
p159
F0.025621000000000001
sS'paid time'
p160
F0.015299999999999999
sS'-18+ year'
p161
F0.031734999999999999
sS'url http chtbetaleonet r feed'
p162
F0.018651000000000001
sS'equal opportunity employer'
p163
F0.0076160000000000004
sS'expertise'
p164
F0.00547
sS'estimation -ms degree'
p165
F0.028917999999999999
sS'want'
p166
F0.0079120000000000006
sS'technology'
p167
F0.0058999999999999999
sS'must meet eligibility requirement'
p168
F0.018988999999999999
sS'develop'
p169
F0.0031710000000000002
sS'-3+ year'
p170
F0.023824999999999999
sS'provide'
p171
F0.0082649999999999998
sS'make'
p172
F0.0051500000000000001
sS'feature'
p173
F0.010493000000000001
sS'1'
F0.010992
sS'field'
p174
F0.0080470000000000003
sS'computer vision'
p175
F0.016948000000000001
sS'object-oriented system'
p176
F0.026100000000000002
sS'supervisor approval'
p177
F0.028917999999999999
sS'take'
p178
F0.0083840000000000008
sS'online'
p179
F0.010637000000000001
sS'test'
p180
F0.0079120000000000006
sS'party'
p181
F0.018338
sS'-2+ torch'
p182
F0.031734999999999999
sS'development'
p183
F0.0027269999999999998
sS'active top secret'
p184
F0.027269000000000002
sS'comprehensive'
p185
F0.011965
sS'object'
p186
F0.017583999999999999
sS'401 k'
p187
F0.016494000000000002
sS'professional'
p188
F0.014316000000000001
sS'retaining'
p189
F0.016791
sS'opportunity'
p190
F0.0081560000000000001
sS'tuition reimbursement program'
p191
F0.028011000000000001
sS'tracking'
p192
F0.014078
sS'individual'
p193
F0.0064650000000000003
sS'mapping linguist'
p194
F0.028917999999999999
sS'framework'
p195
F0.0080230000000000006
sS'senior data scientist'
p196
F0.012555
sS'coursework'
p197
F0.017461000000000001
sS'analysis'
p198
F0.0066620000000000004
sS'perform'
p199
F0.0072360000000000002
sS'services'
p200
F0.011029000000000001
sS'18+ year'
p201
F0.028011000000000001
sS'organization'
p202
F0.0045630000000000002
sS'model'
p203
F0.0080979999999999993
sS'classified information'
p204
F0.016590000000000001
sS'physics'
p205
F0.033181000000000002
sS'qualified candidate'
p206
F0.016688999999999999
sS'government security investigation'
p207
F0.019661000000000001
sS'meet'
p208
F0.0077079999999999996
s.