(dp1
S'one firm'
p2
F0.030474999999999999
sS'help'
p3
F0.015041000000000001
sS'address business challenge'
p4
F0.043389999999999998
sS'-experience'
p5
F0.058714000000000002
sS'including'
p6
F0.0064089999999999998
sS'statistical'
p7
F0.01158
sS'participate'
p8
F0.017607999999999999
sS'java c++ c'
p9
F0.039711999999999997
sS'ms degree preferred'
p10
F0.045568999999999998
sS'graph'
p11
F0.031389
sS'explain'
p12
F0.024969999999999999
sS'applicants selected'
p13
F0.028514000000000001
sS'key role'
p14
F0.025805999999999999
sS'100 year today'
p15
F0.031196999999999999
sS'job number 01219328'
p16
F0.064394000000000007
sS'usage'
p17
F0.024969999999999999
sS'presentation'
p18
F0.014489999999999999
sS'achieve'
p19
F0.017946
sS'combination'
p20
F0.020985
sS'python'
p21
F0.011315
sS'using'
p22
F0.0084110000000000001
sS'100 year'
p23
F0.030138000000000002
sS'challenging business problem'
p24
F0.036639999999999999
sS'across'
p25
F0.0084670000000000006
sS'large'
p26
F0.015722
sS'client solve'
p27
F0.031196999999999999
sS'side'
p28
F0.028126000000000002
sS'data analytics'
p29
F0.016816000000000001
sS'meet eligibility requirement'
p30
F0.032318
sS'committed'
p31
F0.012311000000000001
sS'analyze massive data set'
p32
F0.045568999999999998
sS'machine learning data mining'
p33
F0.027876999999999999
sS'secret clearance'
p34
F0.045568999999999998
sS'apply'
p35
F0.010638999999999999
sS'-ma'
p36
F0.039711999999999997
sS'subject'
p37
F0.021982000000000002
sS'consulting analytics mission operation technology'
p38
F0.031196999999999999
sS'-secret clearance'
p39
F0.048640999999999997
sS'access'
p40
F0.015858000000000001
sS'ensure proper implementation'
p41
F0.044963000000000003
sS'cloud'
p42
F0.016579
sS'innovation'
p43
F0.011826
sS'public'
p44
F0.047136999999999998
sS'endure'
p45
F0.031196999999999999
sS'basic qualifications'
p46
F0.017106
sS'delivering result'
p47
F0.028580999999999999
sS'system definition data analysis'
p48
F0.044401000000000003
sS'data scientist'
p49
F0.015015000000000001
sS'-oriented language'
p50
F0.053892000000000002
sS'interface'
p51
F0.021059000000000001
sS'working'
p52
F0.0082170000000000003
sS'industry'
p53
F0.017238
sS'programming'
p54
F0.013995
sS'mission booz allen'
p55
F0.031196999999999999
sS'cloud computing technologist'
p56
F0.053892000000000002
sS'additional qualifications'
p57
F0.029738000000000001
sS'designed'
p58
F0.026186999999999998
sS'requirement gathering'
p59
F0.034757999999999997
sS'toughest problem'
p60
F0.031196999999999999
sS'perform analysis'
p61
F0.027518999999999998
sS'consulting capability booz allen'
p62
F0.031196999999999999
sS'-based algorithm'
p63
F0.049653000000000003
sS'forefront'
p64
F0.026904000000000001
sS'technologist'
p65
F0.026435
sS'market'
p66
F0.014253
sS'service'
p67
F0.00809
sS'leading'
p68
F0.010855999999999999
sS'strategy'
p69
F0.01069
sS'f disability vet'
p70
F0.031009999999999999
sS'advanced analytics'
p71
F0.035501999999999999
sS'serve'
p72
F0.018492999999999999
sS'technology consulting'
p73
F0.030738000000000001
sS'difficult challenge'
p74
F0.031102999999999999
sS'integrating'
p75
F0.020839
sS'work'
p76
F0.0026380000000000002
sS'-scale complex'
p77
F0.053892000000000002
sS'classified information'
p78
F0.030918000000000001
sS'not-for-profit across'
p79
F0.031196999999999999
sS'diverseenvironment eoe'
p80
F0.031196999999999999
sS'problem'
p81
F0.010484
sS'proud'
p82
F0.020303000000000002
sS'process'
p83
F0.0076680000000000003
sS'booz allen hamilton ha'
p84
F0.031196999999999999
sS'system delivery cybersecurity engineering'
p85
F0.031196999999999999
sS'engineering'
p86
F0.01023
sS'private sector client'
p87
F0.031196999999999999
sS'expertise'
p88
F0.030584
sS'booz allen hamilton'
p89
F0.044963000000000003
sS'need'
p90
F0.008149
sS'partner'
p91
F0.012012
sS'technology'
p92
F0.0054980000000000003
sS'bs degree'
p93
F0.028785000000000002
sS'develop'
p94
F0.0059090000000000002
sS'provide'
p95
F0.0077019999999999996
sS'globe booz allen partner'
p96
F0.031196999999999999
sS'firm provides management'
p97
F0.031196999999999999
sS'full range'
p98
F0.027938999999999999
sS'sig2017'
p99
F0.050819999999999997
sS'solution'
p100
F0.010774000000000001
sS'development'
p101
F0.0050829999999999998
sS'product'
p102
F0.011441
sS'may'
p103
F0.014864
sS'object'
p104
F0.032770000000000001
sS'-ba'
p105
F0.034174999999999997
sS'security investigation'
p106
F0.032318
sS'driven'
p107
F0.015235
sS'data driven'
p108
F0.025946
sS'leading fortune 500 corporation government'
p109
F0.031196999999999999
sS'private sector allocate across'
p110
F0.052201999999999998
sS'algorithm'
p111
F0.018828000000000001
sS'required'
p112
F0.0073400000000000002
sS'analysis'
p113
F0.018622
sS'client'
p114
F0.02904
sS'solve'
p115
F0.030037999999999999
sS'clearance'
p116
F0.024684000000000001
s.