(dp1
S'limited'
p2
F0.012939417418230447
sS'concept'
p3
F0.015126359177428319
sS'r d'
p4
F0.001176546452334319
sS'office'
p5
F0.0042307064068086535
sS'insight'
p6
F0.0059659672176220514
sS'forecasting'
p7
F0.016005719238142743
sS'existing'
p8
F0.0050968200238888728
sS'paper'
p9
F0.010135333800878114
sS'including'
p10
F0.005134991104813318
sS'statistical'
p11
F0.012215794679732959
sS'innovative'
p12
F0.0071534677357879385
sS'merkle'
p13
F0.030264620596963436
sS'skill'
p14
F0.0013670928473344262
sS'actionable'
p15
F0.010897921670921091
sS'leader'
p16
F0.0038603306137256028
sS'group'
p17
F0.004545886362550061
sS'knowledge'
p18
F0.0035064755636118302
sS'field'
p19
F0.0026706635628194839
sS'guidance'
p20
F0.0068762716878766721
sS'solving'
p21
F0.0062292587003667035
sS'written'
p22
F0.0036737755687093468
sS'anova'
p23
F0.014911792721918163
sS'improvement'
p24
F0.011145175713917944
sS'analytic'
p25
F0.0042821845364080903
sS'sas'
p26
F0.0042434894554082706
sS'expertise.'
p27
F0.012223365520179479
sS'hidden'
p28
F0.01059040346565473
sS'presentation'
p29
F0.0096979725051294288
sS'manage'
p30
F0.008052882501477527
sS'risk'
p31
F0.0061834990595450168
sS'etc.'
p32
F0.01071356938004603
sS'expectation'
p33
F0.0092029234553514007
sS'experimental design'
p34
F0.0096566839587512599
sS'survey design'
p35
F0.014609901875829431
sS'new'
p36
F0.0014917414619884989
sS'applying'
p37
F0.0060504489332219727
sS'advanced'
p38
F0.0062431611532476478
sS'possess'
p39
F0.034012361391881449
sS'issues.'
p40
F0.011728780712892291
sS'execute'
p41
F0.0067139371774736075
sS'resource'
p42
F0.0056721032779537706
sS'standardization'
p43
F0.01287313764332425
sS'skills'
p44
F0.0079586494296177944
sS'approach'
p45
F0.0083853921330004477
sS'solution'
p46
F0.0078763527835817703
sS'serves'
p47
F0.01320411663009205
sS'across'
p48
F0.0024789805655419774
sS'specific'
p49
F0.011437792322565943
sS'qc'
p50
F0.015498593281680587
sS'team'
p51
F0.0011708656127574872
sS'analytical'
p52
F0.01850239582282712
sS'identify'
p53
F0.0035645789468734331
sS'predictive'
p54
F0.0042230638746470223
sS'formulate'
p55
F0.010685920962652617
sS'series'
p56
F0.0093820578839219158
sS'on-time'
p57
F0.013323521471028849
sS'day-to-day'
p58
F0.009232012179026838
sS'reduce'
p59
F0.0092910908993697004
sS'idea'
p60
F0.0047009341156665652
sS'related'
p61
F0.0041130529989735262
sS'roadmap'
p62
F0.0084224020041676652
sS'risk/constraints'
p63
F0.01659598820445958
sS'analytics'
p64
F0.0029096820738599054
sS'profiling'
p65
F0.010685920962652617
sS'process improvement'
p66
F0.0094443477774224134
sS'enhancement'
p67
F0.008050853295840989
sS'recommendation'
p68
F0.010498446380635943
sS'complicated/advanced'
p69
F0.017235366258727455
sS'direct marketing'
p70
F0.01320411663009205
sV(2, 5]
p71
F0.002249093845412217
sS'short-term'
p72
F0.013578382995924976
sS'project'
p73
F0.0089759636429499086
sS'degree'
p74
F0.001278408900630371
sS'lead'
p75
F0.0032891784461480836
sS"master's"
p76
F0.0057752007265922311
sS'pattern'
p77
F0.0052022867011687589
sS'specification'
p78
F0.0087861651003058958
sS'audience'
p79
F0.0061088207899041803
sS'research'
p80
F0.0027319724790342711
sS'access'
p81
F0.0052238541678332716
sS'senior'
p82
F0.0039746554156831352
sS'3'
F0.0055482399654289112
sS'database marketing'
p83
F0.015498593281680587
sS'provides'
p84
F0.0048776186305911542
sS'innovation'
p85
F0.0071534677357879385
sS'relational'
p86
F0.0064530353602874979
sS'evaluation'
p87
F0.0075462773467771483
sS'email'
p88
F0.0076369795874135929
sS'math'
p89
F0.0067505908474552343
sS'core'
p90
F0.0098389769052233747
sS'segmentation'
p91
F0.016140556334330699
sS'data analysis'
p92
F0.0079914549491446815
sS'required'
p93
F0.007313308720038816
sS'ability'
p94
F0.0098607368214274193
sS'business'
p95
F0.0045146778091483854
sS'web'
p96
F0.0057534139580326582
sS'marketing'
p97
F0.0097744534321456168
sS'statistician'
p98
F0.010095538083815105
sS'data scientist'
p99
F0.00053027878099364348
sS'understanding'
p100
F0.0078886079392538905
sS'efficiency'
p101
F0.0071953203222278449
sS'assists'
p102
F0.011075469915153036
sS'deliver'
p103
F0.00364868462525766
sS'key'
p104
F0.010262052217576373
sS'others'
p105
F0.005379552143109625
sS'article'
p106
F0.0096397798937787535
sS'optimize'
p107
F0.006425460299577683
sS'improve'
p108
F0.0077117024012939243
sS'design'
p109
F0.0019522024531140533
sS'interaction'
p110
F0.0066184266753398398
sS'constraint'
p111
F0.012394478473983256
sS'technical'
p112
F0.0021797135049494878
sS'determining'
p113
F0.011494065245038241
sS'could'
p114
F0.0094760080332504104
sS'area'
p115
F0.013736691969420865
sS'in-depth'
p116
F0.0087861651003058958
sS'experience'
p117
F0.0011921805666363489
sS'etc'
p118
F0.0080150030340705031
sS'ensure'
p119
F0.0044396694916029756
sS'powerpoint'
p120
F0.0081293557216702509
sS'purpose'
p121
F0.0078185421707544344
sS'outlook'
p122
F0.013033850698571497
sS'technique'
p123
F0.0060023817075690209
sS'client/team'
p124
F0.016793674932335662
sS'within'
p125
F0.0059924274970448105
sS'year'
p126
F0.00081579211546558086
sS'explain/present'
p127
F0.017235366258727455
sS'satisfaction'
p128
F0.010613985974774344
sS'data mining'
p129
F0.012715108162077656
sS'throughout'
p130
F0.007001002557267876
sS'quality'
p131
F0.003984001639186204
sS'manipulate'
p132
F0.0090617514940252806
sS'challenging'
p133
F0.0064474990728557663
sS'conference'
p134
F0.0087612502003947337
sS'use'
p135
F0.0027776793100040007
sS'basis'
p136
F0.0070279682318166274
sS'meaningful'
p137
F0.0072828111031725228
sS'create'
p138
F0.0068644842185672482
sS'engagement'
p139
F0.0061334978687129288
sS'system'
p140
F0.0024065714058710891
sS'generate'
p141
F0.0067383207760711048
sS'strategy'
p142
F0.0040240669229406759
sS'2'
F0.0059791179873371608
sS'address'
p143
F0.006543102748310021
sS'advanced analytics'
p144
F0.012499666659562548
sS'white'
p145
F0.011799532018564152
sS'translate'
p146
F0.0063549831811440163
sS'type'
p147
F0.0058148394113079092
sS'informally'
p148
F0.020383247808871758
sS'medium'
p149
F0.0061734287580064839
sS'2-4'
p150
F0.014807588020734168
sS'business problem'
p151
F0.0052969416151982989
sS'tool'
p152
F0.0017084905688995319
sS'discover'
p153
F0.00789085250033735
sS'delivery'
p154
F0.0050185129523997712
sS'business process'
p155
F0.0075789286962149325
sS'external'
p156
F0.0050286063270033364
sS'excellent'
p157
F0.0035645789468734331
sS'potential'
p158
F0.0051631632376518107
sS'must'
p159
F0.0033075992380844463
sS'customer'
p160
F0.0023385821963782948
sS'word'
p161
F0.0085926609404014323
sS'proactively'
p162
F0.0081293557216702509
sS'anticipate'
p163
F0.012529871810607992
sS'work'
p164
F0.0011126181174777646
sS'mi'
p165
F0.014168212298350956
sS'mu'
p166
F0.017235366258727455
sS'future'
p167
F0.0039980784138361159
sS'analytical method'
p168
F0.011430389801271588
sS'ms'
p169
F0.0056260624977318291
sS'error'
p170
F0.010661741406228633
sVMaster
p171
F0.0027638904839653467
sS'problem'
p172
F0.0090485228673345078
sS'cluster analysis'
p173
F0.011946501876917353
sS'proactive'
p174
F0.010175690055823373
sS'result'
p175
F0.0092820158652286017
sS'non-technical'
p176
F0.0072169438044867116
sS'economics'
p177
F0.0070415468521066909
sS'ad'
p178
F0.0074900178900191069
sS'process'
p179
F0.0076982322086590355
sS'contribute'
p180
F0.0065488271013890752
sS'high'
p181
F0.0039444891343155325
sS'effectively'
p182
F0.0045544421002178832
sS'sharing'
p183
F0.0095241642165230424
sS'expertise'
p184
F0.0063621498756616501
sS'recognized'
p185
F0.0069478209230776694
sS'findings/insights'
p186
F0.017235366258727455
sS'factor analysis'
p187
F0.013033850698571497
sS'modeling'
p188
F0.0055338978676340717
sS'regression'
p189
F0.006863452566059117
sS'competency'
p190
F0.02023073369996119
sS'issue'
p191
F0.0048426621850214307
sS'develop'
p192
F0.0098129046956485916
sS'output'
p193
F0.008980270936374447
sS'perform'
p194
F0.0044867012980298656
sS'make'
p195
F0.0031917034737770278
sS'excel'
p196
F0.0055848398525978424
sS'responsibilities'
p197
F0.0026251642910915837
sS'1'
F0.0055482399654289112
sS'other'
p198
F0.0075953949866641524
sS'methodology'
p199
F0.0046919301066713987
sS'complex'
p200
F0.0025137820940259663
sS'role'
p201
F0.0025803767949893214
sS'take'
p202
F0.0046179774962242272
sS'digital'
p203
F0.015574690682286035
sS'finding'
p204
F0.0055766660356269667
sS'responsibility'
p205
F0.0045203714340016354
sS'higher'
p206
F0.0083142693580228431
sS'development'
p207
F0.0013251798454821009
sS'independent'
p208
F0.0078274817807564689
sS'used'
p209
F0.0054646160811856696
sS'class'
p210
F0.0079650352692905539
sS'assist'
p211
F0.0061633937331329281
sS'experiences'
p212
F0.01118896081565897
sS'plan'
p213
F0.004467241638354328
sS'internal'
p214
F0.012443219089396615
sS'sql'
p215
F0.0027063921964146573
sS'robust'
p216
F0.0086877796848684966
sS'summarize'
p217
F0.010452844730799117
sS'statistical model'
p218
F0.0053304493771485408
sS'data'
p219
F0.00073793054685693834
sS'model'
p220
F0.0021107580863013414
sS'deadline'
p221
F0.0085462601606716929
sS'task'
p222
F0.016853311122141341
sS'effective'
p223
F0.0058912428174143095
sS'database'
p224
F0.0068260091011252246
sS'mobile'
p225
F0.0064145041690215248
sS'oral'
p226
F0.0068190320432648874
sS'the'
p227
F0.0012829606372961571
sS'gather'
p228
F0.0090755597547294009
sS'statistic'
p229
F0.0025461774845113002
sS'multi-variate'
p230
F0.016073578615864722
sS'analysis'
p231
F0.0028728366763625911
sS'doe'
p232
F0.013932574797304809
sS'thought'
p233
F0.0087365500968259232
sS'marketer'
p234
F0.010784732888885219
sS'client'
p235
F0.01510593121003076
sS'solve'
p236
F0.0089566904983724906
sS'presenting'
p237
F0.0086757157046754452
sS'time'
p238
F0.0031881562432119542
sS'coordinate'
p239
F0.0083142693580228431
sS'quantitative'
p240
F0.012615930634451164
sS'un-structured'
p241
F0.015371224917460053
sS'processes/codes'
p242
F0.017235366258727455
sS'blend'
p243
F0.012223365520179479
sS'meet'
p244
F0.0045203714340016354
s.