(dp1
S''
F0.01188
sS'global leader'
p2
F0.022473
sS'gs'
p3
F0.025912999999999999
sS'social science'
p4
F0.023004
sS'provide accurate timely'
p5
F0.032002000000000003
sS'diverse employee'
p6
F0.052241000000000003
sS'statistic formal modeling'
p7
F0.032002000000000003
sS'integration'
p8
F0.012926999999999999
sS'identify'
p9
F0.016017
sS'statistical'
p10
F0.0088870000000000008
sS'information visit wwwleidoscom'
p11
F0.026227
sS'skill'
p12
F0.005365
sS'qualified woman minority individual'
p13
F0.026227
sS'visualization'
p14
F0.012
sS'knowledge'
p15
F0.0053439999999999998
sS'4+ years'
p16
F0.073289000000000007
sS'disability'
p17
F0.01323
sS'analytic'
p18
F0.031301000000000002
sS'internal'
p19
F0.0093170000000000006
sS'location'
p20
F0.011701
sS'may include'
p21
F0.022144
sS'data collector'
p22
F0.041359
sS'government'
p23
F0.030013999999999999
sS'python'
p24
F0.0086840000000000007
sS'evaluate'
p25
F0.040145
sS'math statistic'
p26
F0.025330999999999999
sS'obtain'
p27
F0.033654999999999997
sS'report'
p28
F0.0080979999999999993
sS'recently completed combination'
p29
F0.026227
sS'public trust clearance'
p30
F0.034076000000000002
sS'geospatial'
p31
F0.024088999999999999
sS'available'
p32
F0.013979
sS'intelligence'
p33
F0.014899000000000001
sS'eg'
p34
F0.011526
sS'company 33 000'
p35
F0.049418999999999998
sS'computer'
p36
F0.029614999999999999
sS'design'
p37
F0.00481
sS'recommendation'
p38
F0.011648
sS'close'
p39
F0.022644999999999998
sS'concern'
p40
F0.027286999999999999
sS'network'
p41
F0.01218
sS'selected candidate'
p42
F0.030256999999999999
sS'nature'
p43
F0.021489000000000001
sS'scientific computing'
p44
F0.024316999999999998
sS'research'
p45
F0.0068630000000000002
sS'looking'
p46
F0.0078829999999999994
sS'complex data'
p47
F0.021883
sS'method'
p48
F0.016263
sS'programming language'
p49
F0.012629
sS'ass'
p50
F0.018061000000000001
sS'demonstrated experience'
p51
F0.043267
sS'ability'
p52
F0.0066030000000000004
sS'exchange'
p53
F0.025330999999999999
sS'giving effect'
p54
F0.026227
sS'data scientist'
p55
F0.0038409999999999998
sS'desired'
p56
F0.016455000000000001
sS'job'
p57
F0.0069210000000000001
sS'hadoop spark'
p58
F0.021682
sS'key'
p59
F0.0093170000000000006
sS'sophisticated data analysis'
p60
F0.031447999999999997
sS'information technology'
p61
F0.015479
sS'public trust'
p62
F0.037329000000000001
sS'language'
p63
F0.011424
sS'package'
p64
F0.017090000000000001
sS'technical'
p65
F0.0055279999999999999
sS'programming'
p66
F0.01074
sS'experience'
p67
F0.0010859999999999999
sS'homeland security'
p68
F0.027158999999999999
sS'leidos'
p69
F0.075993000000000005
sS'federal government contracting experience'
p70
F0.045388999999999999
sS'software'
p71
F0.0178
sS'computational'
p72
F0.018703000000000001
sS"4+ years' experience using"
p73
F0.090777999999999998
sS'address'
p74
F0.013965
sS'basic qualifications'
p75
F0.013127
sS'defense intelligence'
p76
F0.030256999999999999
sS'one'
p77
F0.0067149999999999996
sS'appropriate'
p78
F0.036112999999999999
sS'determine'
p79
F0.034313999999999997
sS'commercial customer'
p80
F0.050120999999999999
sS'market'
p81
F0.010939000000000001
sS'working'
p82
F0.006306
sS'source'
p83
F0.013139
sS'world toughest challenge'
p84
F0.032002000000000003
sS"lockheed martin's information systems global solutions business"
p85
F0.026227
sS'system'
p86
F0.0053439999999999998
sS'needed'
p87
F0.012151
sS'analyze'
p88
F0.0103
sS'methodological tool'
p89
F0.032002000000000003
sS'option'
p90
F0.021933999999999999
sS'offer'
p91
F0.0093519999999999992
sS'tool'
p92
F0.0041970000000000002
sS'gap'
p93
F0.021255
sS'job description'
p94
F0.011762999999999999
sS'compile data'
p95
F0.036644000000000003
sS'analyst'
p96
F0.011826
sS'data collection'
p97
F0.019594
sS'applied mathematics'
p98
F0.020986999999999999
sS'eg probability'
p99
F0.031718000000000003
sS'machine learning'
p100
F0.0063020000000000003
sS'employ'
p101
F0.018249000000000001
sS'matter'
p102
F0.019324999999999998
sS'reston virginia leidos reported annual revenue'
p103
F0.036032000000000002
sS'problem'
p104
F0.024138
sS'specialized'
p105
F0.023657999999999998
sS'baltimore area'
p106
F0.036032000000000002
sS'civil health'
p107
F0.034076000000000002
sS'protected veteran'
p108
F0.022530000000000001
sS'contribute'
p109
F0.013611
sS'eg gis geospatial analysis telemetry analysis'
p110
F0.032002000000000003
sS'equal opportunity employer'
p111
F0.010892000000000001
sS'collaborate'
p112
F0.0099039999999999996
sS'following area'
p113
F0.020445000000000001
sS'fiscal year ended january 1 2016'
p114
F0.026227
sS'large data set'
p115
F0.014959999999999999
sS'monitoring'
p116
F0.016336
sS'application'
p117
F0.0063439999999999998
sS'complex'
p118
F0.018425
sS'support vital mission'
p119
F0.052454000000000001
sS'computer science'
p120
F0.0090480000000000005
sS'approximately 10 billion'
p121
F0.026227
sS'solve'
p122
F0.011526
sS'advise'
p123
F0.023657999999999998
sS'encouraged'
p124
F0.018331
sS'company'
p125
F0.005927
sS'apply leidos'
p126
F0.027827999999999999
sS'headquartered'
p127
F0.018731999999999999
sS'mathematical model'
p128
F0.025239000000000001
sS'baltimore maryland'
p129
F0.043032000000000001
sS'develop'
p130
F0.004535
sS'data'
p131
F0.011348
sS'data using'
p132
F0.028747999999999999
sS'gather'
p133
F0.020605999999999999
sS'well'
p134
F0.0068710000000000004
sS'30 country'
p135
F0.033674000000000003
sS'analysis'
p136
F0.004764
sS'academic'
p137
F0.017340999999999999
sS'responsibility'
p138
F0.011509
sS'quantitative'
p139
F0.010793000000000001
sS'model'
p140
F0.017373
sS'resolution'
p141
F0.020986999999999999
s.