(dp1
S''
F0.0040070000000000001
sS'concept'
p2
F0.0038219999999999999
sS'client expectation'
p3
F0.010519000000000001
sS'leads'
p4
F0.0075979999999999997
sS'manager'
p5
F0.0038899999999999998
sS'number'
p6
F0.0061000000000000004
sS'presents'
p7
F0.013949
sS'program'
p8
F0.0092049999999999996
sS'health'
p9
F0.0047190000000000001
sS'presentation'
p10
F0.0037499999999999999
sS'risk'
p11
F0.0044889999999999999
sS'22 billion'
p12
F0.015308
sS'facebook'
p13
F0.0091170000000000001
sS'1700002245 department'
p14
F0.016667000000000001
sS'level'
p15
F0.0028930000000000002
sS'skills'
p16
F0.0085260000000000006
sS'applicable'
p17
F0.0064200000000000004
sS'large'
p18
F0.0040689999999999997
sS'including deciding'
p19
F0.016667000000000001
sS'team'
p20
F0.002248
sS'enforce'
p21
F0.010435
sS'dealing'
p22
F0.0086390000000000008
sS'consistent'
p23
F0.0066670000000000002
sS'measurable'
p24
F0.011110999999999999
sS'openings 1'
p25
F0.012357999999999999
sS'process improvement'
p26
F0.02758
sS'enhancement'
p27
F0.006182
sS'implemented'
p28
F0.008201
sS'giving'
p29
F0.0086390000000000008
sS'new'
p30
F0.0018469999999999999
sS'method'
p31
F0.0027420000000000001
sS'supporting'
p32
F0.0045859999999999998
sS'degree'
p33
F0.0044390000000000002
sS'delivering'
p34
F0.0045529999999999998
sS'strong'
p35
F0.0059670000000000001
sS'change'
p36
F0.010717000000000001
sS'technical'
p37
F0.0055929999999999999
sS'compliance'
p38
F0.011634
sS'essential functions'
p39
F0.0087390000000000002
sS'experience'
p40
F0.0021970000000000002
sS'application development'
p41
F0.0069220000000000002
sS'employment type'
p42
F0.0099330000000000009
sS'aptitude'
p43
F0.0075040000000000003
sS'relating'
p44
F0.010064
sS'environment'
p45
F0.0045399999999999998
sS'use'
p46
F0.0042420000000000001
sS'working'
p47
F0.0063800000000000003
sS'hospital'
p48
F0.017690000000000001
sS'process improvement re-engineering'
p49
F0.016667000000000001
sS'guideline'
p50
F0.01512
sS'business process'
p51
F0.0054380000000000001
sS'train'
p52
F0.0075599999999999999
sS'delegating'
p53
F0.016667000000000001
sS'effort'
p54
F0.011811
sS'must'
p55
F0.0027360000000000002
sS'customer'
p56
F0.0051409999999999997
sS'4+ year'
p57
F0.030018
sS'work'
p58
F0.00068300000000000001
sS'learn'
p59
F0.0037339999999999999
sS'3033 north'
p60
F0.016667000000000001
sS'completing'
p61
F0.0087049999999999992
sS'dedicated'
p62
F0.0056319999999999999
sS'process'
p63
F0.027784
sS'makes recommendation'
p64
F0.012152
sS'high'
p65
F0.0049540000000000001
sS'information'
p66
F0.004529
sS'goal'
p67
F0.0035119999999999999
sS'strong knowledge'
p68
F0.0059950000000000003
sS'discussion'
p69
F0.0071529999999999996
sS'acts'
p70
F0.009587
sS'criterion'
p71
F0.010355
sS'8+ year experience'
p72
F0.012357999999999999
sS'product'
p73
F0.0014809999999999999
sS'may'
p74
F0.0038470000000000002
sS'connectivity'
p75
F0.012152
sS'meaningful'
p76
F0.0057340000000000004
sS'effective'
p77
F0.0043449999999999999
sS'facilitate'
p78
F0.0059369999999999996
sS'documentation'
p79
F0.0092060000000000006
sS'improve patient care'
p80
F0.016667000000000001
sS'responsibility'
p81
F0.0038809999999999999
sS'underserved'
p82
F0.016667000000000001
sS'healthcare'
p83
F0.0090019999999999996
sS'strongly preferred'
p84
F0.0071999999999999998
sS'travel'
p85
F0.00447
sS'feedback'
p86
F0.0067780000000000002
sS'office'
p87
F0.003797
sS'ehr technology'
p88
F0.016667000000000001
sS'including'
p89
F0.0033180000000000002
sS'statistical'
p90
F0.0029970000000000001
sS'travel required'
p91
F0.008482
sS'formal training'
p92
F0.0096959999999999998
sS'coordinates'
p93
F0.011794000000000001
sS'phoenix85013'
p94
F0.016667000000000001
sS'coaching'
p95
F0.0072309999999999996
sS'400'
p96
F0.013949
sS'9 000'
p97
F0.016667000000000001
sS'good'
p98
F0.0042630000000000003
sS'clinical terminology'
p99
F0.01123
sS'practice'
p100
F0.0078040000000000002
sS'functional'
p101
F0.0050720000000000001
sS'documented'
p102
F0.0099330000000000009
sS'one'
p103
F0.0090589999999999993
sS'identified'
p104
F0.014068000000000001
sS'capability'
p105
F0.0034139999999999999
sS'demonstrated aptitude'
p106
F0.010435
sS'identifies'
p107
F0.0073289999999999996
sS'data analytics'
p108
F0.004352
sS'2+ year'
p109
F0.011438
sS'related'
p110
F0.0027260000000000001
sS'full time'
p111
F0.0061640000000000002
sS'operation'
p112
F0.0036150000000000002
sS'beyond'
p113
F0.0062490000000000002
sS'event'
p114
F0.0057190000000000001
sS'special'
p115
F0.0161
sS'3rd'
p116
F0.011637
sS'quality'
p117
F0.016397999999999999
sS'self-starter'
p118
F0.006463
sS'safety'
p119
F0.0073800000000000003
sS'sme'
p120
F0.010204
sS'issue'
p121
F0.0069329999999999999
sS'affordable patient-centered care'
p122
F0.016667000000000001
sS'standard'
p123
F0.0035969999999999999
sS'imaging'
p124
F0.012152
sS'care'
p125
F0.0047999999999999996
sS'training'
p126
F0.0039020000000000001
sS'creates'
p127
F0.0066319999999999999
sS'effectively communicate'
p128
F0.0072309999999999996
sS'occupational care'
p129
F0.016667000000000001
sS'5+ year'
p130
F0.010059999999999999
sS'physician 62 000 employee'
p131
F0.016667000000000001
sS'organize'
p132
F0.007247
sS'primary'
p133
F0.0066909999999999999
sS'strategic'
p134
F0.0034689999999999999
sS'electronic'
p135
F0.0087740000000000005
sS'resolve issue'
p136
F0.0098110000000000003
sS'management'
p137
F0.0022169999999999998
sS'service'
p138
F0.025127
sS'data'
p139
F0.00095699999999999995
sS'interact'
p140
F0.0053140000000000001
sS'system'
p141
F0.001802
sS'priority'
p142
F0.011320999999999999
sS'providing compassionate high-quality'
p143
F0.016667000000000001
sS'hello humankindness'
p144
F0.016667000000000001
sS'option'
p145
F0.0073969999999999999
sS'relationship'
p146
F0.0040920000000000002
sS'tracking'
p147
F0.00679
sS'wide'
p148
F0.0078659999999999997
sS'production system'
p149
F0.0084220000000000007
sS'design'
p150
F0.001622
sS'motivation'
p151
F0.010133
sS'provide guidance'
p152
F0.0070629999999999998
sS'follow u'
p153
F0.0094830000000000001
sS'defect'
p154
F0.010793000000000001
sS'travel may'
p155
F0.0091170000000000001
sS'22-state network'
p156
F0.016667000000000001
sS'need'
p157
F0.0063270000000000002
sS'wwwdignityhealthorg'
p158
F0.016667000000000001
sS'able'
p159
F0.009103
sS'complexity'
p160
F0.0070200000000000002
sS'provide periodic'
p161
F0.015308
sS'also'
p162
F0.003248
sS'dignity health'
p163
F0.050000000000000003
sS'internal'
p164
F0.0031419999999999998
sS'build'
p165
F0.0019120000000000001
sS'objective'
p166
F0.0091719999999999996
sS'performance'
p167
F0.0028660000000000001
sS'short-term goal'
p168
F0.012357999999999999
sS'normal'
p169
F0.011357000000000001
sS'position'
p170
F0.0019269999999999999
sS'assisting'
p171
F0.0082269999999999999
sS'placement'
p172
F0.009587
sS'working directly'
p173
F0.009587
sS'highly complex'
p174
F0.0080750000000000006
sS'medical'
p175
F0.0063179999999999998
sS'order'
p176
F0.0043200000000000001
sS'enterprise'
p177
F0.0036319999999999998
sS'microsoft'
p178
F0.0076179999999999998
sS'certification'
p179
F0.013056999999999999
sS'demonstrated ability'
p180
F0.0051200000000000004
sS'planning'
p181
F0.0044739999999999997
sS'participate'
p182
F0.0045570000000000003
sS'staff'
p183
F0.0046969999999999998
sS'impact'
p184
F0.0034390000000000002
sS'word excel'
p185
F0.010133
sS'based'
p186
F0.0029060000000000002
sS'knowledge'
p187
F0.0036050000000000001
sS'implementation'
p188
F0.0033440000000000002
sS'guidance'
p189
F0.0058329999999999996
sS'operational'
p190
F0.0084220000000000007
sS'overall'
p191
F0.0048089999999999999
sS'preferred'
p192
F0.022558000000000002
sS'job id'
p193
F0.011110999999999999
sS'resolve'
p194
F0.013310000000000001
sS'course'
p195
F0.0061549999999999999
sS'compelling justification'
p196
F0.016667000000000001
sS'analytical'
p197
F0.0026710000000000002
sS'work locations'
p198
F0.010793000000000001
sS'set'
p199
F0.0041840000000000002
sS'arizona-phoenix-corp office'
p200
F0.016667000000000001
sS'job summary'
p201
F0.007123
sS'roadmap'
p202
F0.0060210000000000003
sS'analytics'
p203
F0.0017979999999999999
sS'system administration'
p204
F0.0096959999999999998
sS'handle multiple task'
p205
F0.012152
sS'best practice'
p206
F0.0040879999999999996
sS'attention'
p207
F0.012904000000000001
sS'ability'
p208
F0.0066810000000000003
sS'stakeholder'
p209
F0.0040379999999999999
sS'mentoring'
p210
F0.0058799999999999998
sS'required 0-25'
p211
F0.016667000000000001
sS'understanding'
p212
F0.0075589999999999997
sS'8hour'
p213
F0.016667000000000001
sS'primary location'
p214
F0.0059699999999999996
sS'strong communication'
p215
F0.0078440000000000003
sS'relevant'
p216
F0.017825000000000001
sS'data science'
p217
F0.0023249999999999998
sS'period'
p218
F0.0096959999999999998
sS'clinical informatics'
p219
F0.011794000000000001
sS'learning'
p220
F0.0043119999999999999
sS'ensures'
p221
F0.014068000000000001
sS'define'
p222
F0.0039699999999999996
sS'website'
p223
F0.0058479999999999999
sS'customer satisfaction'
p224
F0.0080750000000000006
sS'direction'
p225
F0.013846000000000001
sS'visual analytics'
p226
F0.010893
sS'worker'
p227
F0.011965
sS'matrixed environment'
p228
F0.012588999999999999
sS'understand'
p229
F0.0027929999999999999
sS'evidence'
p230
F0.0094830000000000001
sS'present'
p231
F0.013468000000000001
sS'bachelors'
p232
F0.014625000000000001
sS'owns'
p233
F0.0099979999999999999
sS'procedure'
p234
F0.009665
sS'evidence based'
p235
F0.012588999999999999
sS'metric'
p236
F0.004914
sS'consults'
p237
F0.011357000000000001
sS'ave'
p238
F0.016667000000000001
sS'technology'
p239
F0.002846
sS'perform'
p240
F0.00349
sS'pay'
p241
F0.0080260000000000001
sS'complex'
p242
F0.012428
sS'largest'
p243
F0.006038
sS'document'
p244
F0.0047010000000000003
sS'clinical work-flow preferred'
p245
F0.016667000000000001
sS'development'
p246
F0.0065779999999999996
sS'business stakeholder'
p247
F0.0071999999999999998
sS'- phx'
p248
F0.033334000000000003
sS'reporting'
p249
F0.0040350000000000004
sS'work schedule'
p250
F0.010697
sS'care clinic headquartered'
p251
F0.016667000000000001
sS'uses'
p252
F0.0080990000000000003
sS'frequently'
p253
F0.0092029999999999994
sS'nation'
p254
F0.0083090000000000004
sS'opportunity'
p255
F0.001967
sS'audit'
p256
F0.0083929999999999994
sS'task'
p257
F0.0040720000000000001
sS'center'
p258
F0.010395
sS'enforces business strategy'
p259
F0.016667000000000001
sS'analysis'
p260
F0.0032130000000000001
sS'user experience'
p261
F0.0059699999999999996
sS'organization'
p262
F0.0066039999999999996
sS'model'
p263
F0.0019530000000000001
sS'corporate'
p264
F0.005025
sS'works independently'
p265
F0.010519000000000001
sS'assigned'
p266
F0.0056179999999999997
sS'identify'
p267
F0.0027009999999999998
sS'skill'
p268
F0.0054279999999999997
sS'alignment'
p269
F0.00728
sS'problem-solving skill'
p270
F0.016673
sS'field'
p271
F0.0038809999999999999
sS'improvement'
p272
F0.01366
sS'vendor'
p273
F0.0061089999999999998
sS'listening'
p274
F0.010355
sS'advanced'
p275
F0.0061250000000000002
sS'escalated issue'
p276
F0.016667000000000001
sS'8+ year'
p277
F0.023798
sS'collect'
p278
F0.006868
sS'various requestors'
p279
F0.016667000000000001
sS'potential conflict'
p280
F0.014513
sS'cross-functional'
p281
F0.0061549999999999999
sS'certification preferred'
p282
F0.010519000000000001
sS'people'
p283
F0.0025370000000000002
sS'twitter'
p284
F0.0093849999999999992
sS'creation'
p285
F0.0050720000000000001
sS'le experienced'
p286
F0.0098709999999999996
sS'urgent'
p287
F0.013154000000000001
sS'recommendation'
p288
F0.0078560000000000001
sS'home'
p289
F0.0063179999999999998
sS'shift day'
p290
F0.0099979999999999999
sS'provided'
p291
F0.0071380000000000002
sS'cerner required'
p292
F0.016667000000000001
sS'lead'
p293
F0.0023700000000000001
sS'demonstrates'
p294
F0.0073800000000000003
sS'integration'
p295
F0.0087200000000000003
sS'asking'
p296
F0.011357000000000001
sS'provides'
p297
F0.012926999999999999
sS'lean 6sigma dmaic preferred'
p298
F0.016667000000000001
sS'moderate'
p299
F0.013511
sS'business'
p300
F0.0053880000000000004
sS'schedule'
p301
F0.0054440000000000001
sS'leadership'
p302
F0.0033470000000000001
sS'corp'
p303
F0.011492
sS'peer'
p304
F0.0060299999999999998
sS'hinder service delivery'
p305
F0.016667000000000001
sS'charitable care'
p306
F0.016667000000000001
sS'industry'
p307
F0.0022309999999999999
sS'san francisco dignity health'
p308
F0.016667000000000001
sS'powerpoint'
p309
F0.0065180000000000004
sS'software'
p310
F0.0020010000000000002
sS'3+ year'
p311
F0.010338999999999999
sS'present finding'
p312
F0.0088450000000000004
sS'commitment'
p313
F0.0055770000000000004
sS'articulate'
p314
F0.00728
sS'appropriate'
p315
F0.0040600000000000002
sS'governance'
p316
F0.007123
sS'area'
p317
F0.002663
sS'support'
p318
F0.006711
sS'question'
p319
F0.0043819999999999996
sS'employs advanced'
p320
F0.016667000000000001
sS'clinical'
p321
F0.031053000000000001
sS'analyst data analyst'
p322
F0.015308
sS'information please visit'
p323
F0.0091170000000000001
sS'degree preferred'
p324
F0.0099330000000000009
sS'analyze'
p325
F0.0069470000000000001
sS'medium'
p326
F0.0050559999999999997
sS'complete'
p327
F0.0058799999999999998
sS'delivery'
p328
F0.0038839999999999999
sS'gain'
p329
F0.0072630000000000004
sS'proactively'
p330
F0.0070340000000000003
sS'us'
p331
F0.003307
sS'fy16 dignity health'
p332
F0.016667000000000001
sS'lifecycle management'
p333
F0.013511
sS'certain'
p334
F0.010435
sS'general'
p335
F0.0056039999999999996
sS'health care'
p336
F0.0057190000000000001
sS'associates'
p337
F0.010606000000000001
sS'education'
p338
F0.0032049999999999999
sS'80'
p339
F0.010999
sS'detail'
p340
F0.004509
sS'application'
p341
F0.00214
sS'setting'
p342
F0.0055160000000000001
sS'role'
p343
F0.002039
sS'meet deadline'
p344
F0.0087740000000000005
sS'poor'
p345
F0.016667000000000001
sS'equivalent experience'
p346
F0.005509
sS'analyst iv -'
p347
F0.016667000000000001
sS'sql'
p348
F0.0021800000000000001
sS'hours per'
p349
F0.016667000000000001
sS'remote'
p350
F0.0075789999999999998
sS'required'
p351
F0.015198
sS'enforced throughout'
p352
F0.016667000000000001
sS'resolution'
p353
F0.0070780000000000001
s.