(dp1
S'optimal'
p2
I1
sS'couchdb'
p3
I1
sS'aerospace'
p4
I1
sS'nosql'
p5
I1
sS'certification'
p6
I1
sS'ongoing'
p7
I1
sS'dynamic'
p8
I1
sS'existing'
p9
I1
sS'produced'
p10
I1
sS'manager'
p11
I1
sS'mysql'
p12
I1
sS'hbase'
p13
I1
sS'requirements/needs'
p14
I1
sS'web'
p15
I1
sS'knowledge'
p16
I1
sS'big data'
p17
I1
sS'field'
p18
I1
sS'implementation'
p19
I1
sS'agile'
p20
I1
sS'distributed'
p21
I1
sS'lake'
p22
I1
sS'environment'
p23
I1
sS'platform'
p24
I1
sS'program'
p25
I1
sS'location'
p26
I1
sS'citizen'
p27
I1
sS'suite'
p28
I1
sS'main'
p29
I1
sS'defining'
p30
I1
sV(2, 5]
p31
I1
sS'computer science'
p32
I1
sS'disparate'
p33
I1
sS'python'
p34
I1
sS'big'
p35
I1
sS'scalable'
p36
I1
sS'closely'
p37
I1
sS'govern'
p38
I1
sS'fault-tolerant'
p39
I1
sS'using'
p40
I1
sS'reusable'
p41
I1
sS'execute'
p42
I1
sS'contractual'
p43
I1
sS'fast-paced'
p44
I1
sS'solution'
p45
I1
sS'hive'
p46
I1
sS'public'
p47
I1
sS'capability'
p48
I1
sS'architecture'
p49
I1
sS'team'
p50
I1
sS'data analytics'
p51
I1
sS'requirement'
p52
I1
sS'participate'
p53
I1
sS'information retrieval'
p54
I1
sS'growth'
p55
I1
sS'design'
p56
I1
sS'value'
p57
I1
sS'year'
p58
I1
sS'guidance/mentor'
p59
I1
sS'deploying'
p60
I1
sS'data architecture'
p61
I1
sS'business'
p62
I1
sS'managing'
p63
I1
sS'integrity'
p64
I1
sS'review'
p65
I1
sS'research'
p66
I1
sS'big data analytics'
p67
I1
sS'3'
I1
sS'critical'
p68
I1
sS'various'
p69
I1
sS'designing'
p70
I1
sS'new'
p71
I1
sS'enjoys'
p72
I1
sS'aerospace-wide'
p73
I1
sS'approach'
p74
I1
sS'across'
p75
I1
sS'available'
p76
I1
sS'supporting'
p77
I1
sS'we'
p78
I1
sS'ability'
p79
I1
sS'degree'
p80
I1
sS'leveraging'
p81
I1
sS'processing'
p82
I1
sS'data scientist'
p83
I1
sS'standard'
p84
I1
sS'aircraft'
p85
I1
sS'key'
p86
I1
sS'org'
p87
I1
sS'spark'
p88
I1
sS'data quality'
p89
I1
sS'mssql'
p90
I1
sS'improve'
p91
I1
sS'software development'
p92
I1
sS'monetize'
p93
I1
sS'perform'
p94
I1
sS'service'
p95
I1
sS'technical'
p96
I1
sS'current'
p97
I1
sS'bachelor'
p98
I1
sS'experience'
p99
I1
sS'methodology'
p100
I1
sS'keen'
p101
I1
sS'products'
p102
I1
sS'multi-disciplinary'
p103
I1
sS'load'
p104
I1
sS'relevant'
p105
I1
sVDoctor
p106
I1
sS'matrixed'
p107
I1
sS'data science'
p108
I1
sS'due'
p109
I1
sS'determine'
p110
I1
sS'data mining'
p111
I1
sS'owner'
p112
I1
sS'perl'
p113
I1
sS'cloud'
p114
I1
sS'acumen'
p115
I1
sS'management'
p116
I1
sS'java'
p117
I1
sS'working'
p118
I1
sV(5, 10]
p119
I1
sS'hands-on'
p120
I1
sS'system'
p121
I1
sS'guideline'
p122
I1
sS'strategy'
p123
I1
sVBachelor
p124
I1
sVMaster
p125
I1
sS'recommend'
p126
I1
sS'collected'
p127
I1
sS'cost-effective'
p128
I1
sS'translate'
p129
I1
sS'type'
p130
I1
sS'store'
p131
I1
sS'define'
p132
I1
sS'flume'
p133
I1
sS'exploring'
p134
I1
sS'tool'
p135
I1
sS'aero'
p136
I1
sS'repeatable'
p137
I1
sS'understand'
p138
I1
sS'masters'
p139
I1
sS'data processing'
p140
I1
sS'highest'
p141
I1
sS'ee computer science'
p142
I1
sS'must'
p143
I1
sS'customer'
p144
I1
sS'10'
p145
I1
sS'this'
p146
I1
sS'ecosystem'
p147
I1
sS'work'
p148
I1
sS'hosting'
p149
I1
sS'us'
p150
I1
sS'machine learning'
p151
I1
sS'project'
p152
I1
sS'data engineering'
p153
I1
sS'future'
p154
I1
sS'mobile applications'
p155
I1
sS'data management'
p156
I1
sS'product management'
p157
I1
sS'meet'
p158
I1
sS'possess'
p159
I1
sS'data mining machine learning'
p160
I1
sS'etc.'
p161
I1
sS'scripting'
p162
I1
sS'process'
p163
I1
sS'recognize'
p164
I1
sS'sqoop'
p165
I1
sS'it'
p166
I1
sS'deep'
p167
I1
sS'comfortable'
p168
I1
sS'engineering'
p169
I1
sS'minimum'
p170
I1
sS'customer-facing'
p171
I1
sS'have'
p172
I1
sS'need'
p173
I1
sS'az'
p174
I1
sS'technology'
p175
I1
sS'as'
p176
I1
sS'cassandra'
p177
I1
sS'information'
p178
I1
sS'develop'
p179
I1
sS'etc'
p180
I1
sS'provide'
p181
I1
sS'suggest'
p182
I1
sS'responsible'
p183
I1
sS'storage'
p184
I1
sS'hadoop'
p185
I1
sS'access'
p186
I1
sS'responsibilities'
p187
I1
sS'application'
p188
I1
sS'etl/elt'
p189
I1
sS'setting'
p190
I1
sS'5'
I1
sS'best'
p191
I1
sS'natural language processing'
p192
I1
sS'warehouse'
p193
I1
sS'applications.'
p194
I1
sS'you'
p195
I1
sS'several'
p196
I1
sS'unstructured data'
p197
I1
sS'residing'
p198
I1
sS'development'
p199
I1
sS'product'
p200
I1
sS'pig'
p201
I1
sS'traditional'
p202
I1
sS'phoenix'
p203
I1
sS'mongodb'
p204
I1
sS'iot'
p205
I1
sS'phd'
p206
I1
sS'concurrent'
p207
I1
sS'optimized'
p208
I1
sS'ensure'
p209
I1
sS'services'
p210
I1
sS'requirements'
p211
I1
sS'data'
p212
I1
sS'ambiguous'
p213
I1
sS'toolsets/methods'
p214
I1
sS'database'
p215
I1
sS'element'
p216
I1
sS'pipe'
p217
I1
sS'person'
p218
I1
sS'ingestion'
p219
I1
sS'enterprise'
p220
I1
sS'oracle'
p221
I1
sS'organization'
p222
I1
sS'architect'
p223
I1
s.