(dp1
S'concept'
p2
F0.010709
sS'related field'
p3
F0.0045739999999999999
sS'help'
p4
F0.0027269999999999998
sS'nosql'
p5
F0.016847999999999998
sS'strong oral'
p6
F0.024115999999999999
sS'insight'
p7
F0.0036480000000000002
sS'existing data source'
p8
F0.012245000000000001
sS'data ops analyst'
p9
F0.018429000000000001
sS'quick learner'
p10
F0.013918
sS'downstream application'
p11
F0.016764000000000001
sS'bring'
p12
F0.0049100000000000003
sS'tableau qlikview'
p13
F0.016305
sS'scientist'
p14
F0.0079410000000000001
sS'including'
p15
F0.006973
sS'human'
p16
F0.0091319999999999995
sS'command line'
p17
F0.014197
sS'wa formed'
p18
F0.015734999999999999
sS'query'
p19
F0.0077190000000000002
sS'especially'
p20
F0.0094789999999999996
sS'resourceful'
p21
F0.012444
sS'team player'
p22
F0.0083999999999999995
sS'visualization'
p23
F0.0056699999999999997
sS'enforce common standard'
p24
F0.018006000000000001
sS'knowledge'
p25
F0.0050509999999999999
sS'big data'
p26
F0.0042779999999999997
sS'data exploration'
p27
F0.012343
sS'thinking'
p28
F0.0084480000000000006
sS'fix'
p29
F0.011884
sS'data governance practice'
p30
F0.017315000000000001
sS'anticipate obstacle'
p31
F0.017638999999999998
sS'coaching'
p32
F0.010132
sS'leadership skill'
p33
F0.0095320000000000005
sS'role'
p34
F0.0085710000000000005
sS'achieve'
p35
F0.0065079999999999999
sS'communicate complex topic'
p36
F0.018006000000000001
sS'provide visibility'
p37
F0.016525000000000001
sS'global multi-disciplinary product development consultancy'
p38
F0.018429000000000001
sS'functional team'
p39
F0.012834
sS'automate process'
p40
F0.015911999999999999
sS'evaluate'
p41
F0.012647
sS'big data rdbms nosql'
p42
F0.017638999999999998
sS'preferred'
p43
F0.0079019999999999993
sS'develop new'
p44
F0.0089809999999999994
sS'big data structuring'
p45
F0.020334000000000001
sS'working closely'
p46
F0.0094090000000000007
sS'including sqoop'
p47
F0.020334000000000001
sS'using'
p48
F0.0061000000000000004
sS'actively incorporate input'
p49
F0.018006000000000001
sS'enterprise data integration'
p50
F0.016525000000000001
sS'resolve'
p51
F0.009325
sS'like'
p52
F0.005914
sS'creative thinker'
p53
F0.014101000000000001
sS'skills'
p54
F0.011945000000000001
sS'issue'
p55
F0.0097140000000000004
sS'metadata model'
p56
F0.017025999999999999
sS'position description'
p57
F0.0096050000000000007
sS'hadoop hdfs mapreduce hive shark spark'
p58
F0.016764000000000001
sS'solution'
p59
F0.0039069999999999999
sS'summary'
p60
F0.0085590000000000006
sS'capability'
p61
F0.0047829999999999999
sS'wholly owned subsidiary'
p62
F0.015911999999999999
sS'including running query'
p63
F0.016764000000000001
sS'adherence'
p64
F0.014197
sS'translate discreet'
p65
F0.018429000000000001
sS'strong analytical'
p66
F0.009325
sS'university'
p67
F0.0090699999999999999
sS'accredited college'
p68
F0.01255
sS'time-series data'
p69
F0.016764000000000001
sS'requirement'
p70
F0.013882
sS'right'
p71
F0.0066109999999999997
sS'evaluating'
p72
F0.0091160000000000008
sS'strong interpersonal'
p73
F0.012893999999999999
sS'work independently'
p74
F0.0076369999999999997
sS'creation'
p75
F0.0071060000000000003
sS'confront difficult circumstance'
p76
F0.017638999999999998
sS'compiling data'
p77
F0.016764000000000001
sS'analytics'
p78
F0.0075589999999999997
sS'utilizes proprietary'
p79
F0.018429000000000001
sS'actively'
p80
F0.0094610000000000007
sS'design'
p81
F0.0022729999999999998
sS'accelerate'
p82
F0.010869999999999999
sS'combining'
p83
F0.010869999999999999
sS'assembly'
p84
F0.01486
sS'expertise'
p85
F0.0036970000000000002
sS'multiple source'
p86
F0.010389000000000001
sS'best'
p87
F0.0047450000000000001
sS'interpersonal skill combined'
p88
F0.018006000000000001
sS'communicate complex'
p89
F0.010784
sS'sql query'
p90
F0.011115
sS'decision'
p91
F0.0094400000000000005
sS'six sigma green belt certified'
p92
F0.019543000000000001
sS'creative'
p93
F0.0061869999999999998
sS'customer focus'
p94
F0.011417999999999999
sS'actively generates process improvement'
p95
F0.017025999999999999
sS'select'
p96
F0.0098960000000000003
sS'new technology'
p97
F0.0077099999999999998
sS'new'
p98
F0.002588
sS'data scientists'
p99
F0.014409
sS'approach'
p100
F0.0045129999999999997
sS'leader'
p101
F0.0043369999999999997
sS'demonstrated'
p102
F0.011297
sS'including ingestion standardization enrichment mastering'
p103
F0.016525000000000001
sS'make'
p104
F0.00348
sS'altair engineering'
p105
F0.018429000000000001
sS'process'
p106
F0.0027810000000000001
sS'profiling'
p107
F0.012014
sS'altair productdesign'
p108
F0.018429000000000001
sS'ability'
p109
F0.018721999999999999
sS'superior'
p110
F0.0096609999999999994
sS'subject matter expert'
p111
F0.0083180000000000007
sS'communicate'
p112
F0.0053629999999999997
sS'necessary data mapping data lineage activity'
p113
F0.016764000000000001
sS'data quality'
p114
F0.016969000000000001
sS'highly'
p115
F0.0062789999999999999
sS'explore'
p116
F0.0076639999999999998
sS'leadership'
p117
F0.0093779999999999992
sS'innovative profitable product'
p118
F0.018429000000000001
sS'key'
p119
F0.0044029999999999998
sS'others'
p120
F0.0055789999999999998
sS'peer'
p121
F0.0084480000000000006
sS'understanding'
p122
F0.0070609999999999996
sS'change'
p123
F0.01001
sS'700 designer engineer'
p124
F0.018429000000000001
sS'data sharing data reuse data quality'
p125
F0.016764000000000001
sS'business-driven result'
p126
F0.018429000000000001
sS'business user'
p127
F0.01034
sS'transactional'
p128
F0.01315
sS'area'
p129
F0.0037320000000000001
sS'information flow'
p130
F0.013918
sS'experience'
p131
F0.0030790000000000001
sS'simulation'
p132
F0.0091629999999999993
sS'etc'
p133
F0.011867000000000001
sS'bachelors degree'
p134
F0.0062350000000000001
sS'implement'
p135
F0.003888
sS'data profiling'
p136
F0.014621
sS'create'
p137
F0.0036909999999999998
sS'data transfer'
p138
F0.01486
sS'plan'
p139
F0.015672999999999999
sS'analyze data'
p140
F0.010414
sS'relevant'
p141
F0.0049950000000000003
sS'simple'
p142
F0.0092259999999999998
sS'communication'
p143
F0.0057190000000000001
sS'meet'
p144
F0.0052090000000000001
sS'customer relationship'
p145
F0.012956000000000001
sS'delivering'
p146
F0.0063800000000000003
sS'strategic'
p147
F0.0048599999999999997
sS'enterprise data governance'
p148
F0.016305
sS'initiative'
p149
F0.0051980000000000004
sS'business owner'
p150
F0.012293
sS'cross-functional'
p151
F0.0086230000000000005
sS'personal'
p152
F0.007548
sS'apply'
p153
F0.0077159999999999998
sS'method altair productdesign firmly advocate'
p154
F0.018429000000000001
sS'problem solving skill'
p155
F0.0074710000000000002
sS'market'
p156
F0.005169
sS'quickly comprehend'
p157
F0.016764000000000001
sS'performing'
p158
F0.0084360000000000008
sS'use'
p159
F0.0029710000000000001
sS'strong'
p160
F0.0083599999999999994
sS'eye'
p161
F0.012057999999999999
sS'rdbms'
p162
F0.012293
sS'script'
p163
F0.0096419999999999995
sS'addition'
p164
F0.007306
sS'high ethical moral'
p165
F0.018006000000000001
sS'support'
p166
F0.0094029999999999999
sS'acceptance'
p167
F0.012659999999999999
sS'creativity'
p168
F0.0083770000000000008
sS'system'
p169
F0.0025249999999999999
sS'manipulating file within hdfs'
p170
F0.016305
sS'strategy'
p171
F0.0038769999999999998
sS'needed'
p172
F0.011483
sS'way'
p173
F0.0041460000000000004
sS'efficiently'
p174
F0.0097560000000000008
sS'data management'
p175
F0.014925000000000001
sS'function'
p176
F0.0057869999999999996
sS'self-motivated'
p177
F0.0092259999999999998
sS'fuel innovation'
p178
F0.012245000000000001
sS'business problem'
p179
F0.0070400000000000003
sS'serve'
p180
F0.0067060000000000002
sS'analytic'
p181
F0.0049300000000000004
sS'simple term'
p182
F0.015122
sS'manipulate'
p183
F0.011147000000000001
sS'effectively evaluates information'
p184
F0.016764000000000001
sS'known'
p185
F0.010154
sS'complex idea'
p186
F0.017025999999999999
sS'promote'
p187
F0.0091789999999999997
sS'data platform'
p188
F0.011115
sS'standard'
p189
F0.01008
sS'written communication skill'
p190
F0.014302
sS'customer'
p191
F0.0024009999999999999
sS'role resides within'
p192
F0.017315000000000001
sS'connected vehicle'
p193
F0.015911999999999999
sS'including greenplum hadoop hdfs mapreduce hive shark spark'
p194
F0.020334000000000001
sS'regional kpi metrics initiative'
p195
F0.018929999999999999
sS'align'
p196
F0.011147000000000001
sS'work'
p197
F0.0019139999999999999
sS'ingestion technology'
p198
F0.016525000000000001
sS'pd quality'
p199
F0.018429000000000001
sS'value'
p200
F0.0046950000000000004
sS'data architecture'
p201
F0.010316000000000001
sS'optimization'
p202
F0.0057190000000000001
sS'succinct manner'
p203
F0.016525000000000001
sS'ms'
p204
F0.0063400000000000001
sS'learn'
p205
F0.0052319999999999997
sS'continuously'
p206
F0.011051
sS'demonstrate'
p207
F0.0073299999999999997
sS'providing'
p208
F0.0047580000000000001
sS'business outcome'
p209
F0.012343
sS'manner'
p210
F0.009025
sS'data management principle'
p211
F0.016102000000000002
sS'gathering'
p212
F0.011926000000000001
sS'customer viewpoint'
p213
F0.017315000000000001
sS'write complex'
p214
F0.014297000000000001
sS'increase data'
p215
F0.018929999999999999
sS'basic understanding'
p216
F0.011842
sS'obstacle'
p217
F0.014008
sS'essential responsibilities'
p218
F0.013358
sS'solve problem'
p219
F0.0094959999999999992
sS'business glossary'
p220
F0.016525000000000001
sS'need'
p221
F0.0029550000000000002
sS'data modeling'
p222
F0.0081180000000000002
sS'education'
p223
F0.0044900000000000001
sS'seek'
p224
F0.0084239999999999992
sS'information'
p225
F0.003173
sS'different'
p226
F0.013438
sS'develop'
p227
F0.0021429999999999999
sS'gdia organization'
p228
F0.021447999999999998
sS'perform'
p229
F0.0048900000000000002
sS'technology'
p230
F0.0079740000000000002
sS'profitable growth'
p231
F0.014988
sS'responsible'
p232
F0.0033830000000000002
sS'machine'
p233
F0.011083000000000001
sS"company's blueprint"
p234
F0.019543000000000001
sS'autonomous vehicle'
p235
F0.018929999999999999
sS'internal'
p236
F0.0044029999999999998
sS'various source'
p237
F0.010756
sS'build'
p238
F0.005359
sS'detail-oriented'
p239
F0.012444
sS'document'
p240
F0.013174
sS'3 year'
p241
F0.01298
sS'product'
p242
F0.0020739999999999999
sS'oriented'
p243
F0.020632999999999999
sS'multiple'
p244
F0.0053039999999999997
sS'inc wwwaltaircom'
p245
F0.018429000000000001
sS'decision-making'
p246
F0.009835
sS'minimum'
p247
F0.015396999999999999
sS'attunity demonstrated experience building'
p248
F0.020334000000000001
sS'loading'
p249
F0.013584000000000001
sS'purpose'
p250
F0.0075919999999999998
sS'coverage'
p251
F0.011641
sS'file within hdfs'
p252
F0.018929999999999999
sS'data'
p253
F0.017427999999999999
sS'5 year'
p254
F0.011945000000000001
sS'mobility strategy'
p255
F0.018006000000000001
sS'collaborate'
p256
F0.0046800000000000001
sS'task'
p257
F0.0057060000000000001
sS'proven ability'
p258
F0.0087690000000000008
sS'faster'
p259
F0.012104
sS'effective'
p260
F0.0060879999999999997
sS'database'
p261
F0.0081080000000000006
sS'2 year'
p262
F0.014423999999999999
sS'clear'
p263
F0.022671
sS'required'
p264
F0.0079850000000000008
sS'well'
p265
F0.0032469999999999999
sS'drive'
p266
F0.014114
sS'analysis'
p267
F0.002251
sS'client'
p268
F0.0035100000000000001
sS'user-centered team-based design'
p269
F0.018429000000000001
sS'english'
p270
F0.010437999999999999
sS'organization'
p271
F0.0061679999999999999
sS'model'
p272
F0.0027360000000000002
sS'continuously changing business landscape'
p273
F0.017638999999999998
sS'computer science'
p274
F0.0042750000000000002
s.