(dp1
S'they'
p2
I1
sS'office'
p3
I1
sS'executing'
p4
I1
sS'including'
p5
I1
sS'statistical'
p6
I1
sS'innovative'
p7
I1
sS'messy'
p8
I1
sS'visualization'
p9
I1
sS'fit'
p10
I1
sS'analytic'
p11
I1
sS'production'
p12
I1
sS'questions.'
p13
I1
sS'presentation'
p14
I1
sV[0]
p15
I1
sS'eventually'
p16
I1
sS'disparate'
p17
I1
sS'miners'
p18
I1
sS'department'
p19
I1
sS'background'
p20
I1
sS'using'
p21
I1
sS'bringing'
p22
I1
sS'advanced'
p23
I1
sS'entire'
p24
I1
sS'solution'
p25
I1
sS'large'
p26
I1
sS'team'
p27
I1
sS'methodologists'
p28
I1
sS'enjoy'
p29
I1
sS'set'
p30
I1
sS'often'
p31
I1
sS'analytics'
p32
I1
sS'result'
p33
I1
sS'techniques'
p34
I1
sS'specific'
p35
I1
sS'clinicians'
p36
I1
sS'chicago'
p37
I1
sS'miner'
p38
I1
sS'chaos'
p39
I1
sS'scientists'
p40
I1
sS'results.'
p41
I1
sS'specialist'
p42
I1
sS'data analysis'
p43
I1
sS'business'
p44
I1
sS'data scientist'
p45
I1
sS'statistician'
p46
I1
sS'deliver'
p47
I1
sS'however'
p48
I1
sS'explore'
p49
I1
sS'focused'
p50
I1
sS'detail-oriented'
p51
I1
sS'work.'
p52
I1
sS'context'
p53
I1
sS'reside'
p54
I1
sS'cambridge'
p55
I1
sS'training.'
p56
I1
sS'use'
p57
I1
sS'strong'
p58
I1
sS'working'
p59
I1
sS'data'
p60
I1
sS'support'
p61
I1
sS'direction'
p62
I1
sS'Bachelor'
p63
I1
sS'advanced analytics'
p64
I1
sS'analyze'
p65
I1
sS'mining'
p66
I1
sS'tool'
p67
I1
sS'understand'
p68
I1
sS'manipulation'
p69
I1
sS'datasets'
p70
I1
sS'ma'
p71
I1
sS'this'
p72
I1
sS'work'
p73
I1
sS'mi'
p74
I1
sS'value'
p75
I1
sS'preparation'
p76
I1
sS'guide'
p77
I1
sS'process'
p78
I1
sS'ann'
p79
I1
sS'locations'
p80
I1
sS'comfortable'
p81
I1
sS'il'
p82
I1
sS'arbor'
p83
I1
sS'provide'
p84
I1
sS'able'
p85
I1
sS'cleansing'
p86
I1
sS'member'
p87
I1
sS'responsibilities'
p88
I1
sS'complex'
p89
I1
sS'answer'
p90
I1
sS'may'
p91
I1
sS'includes'
p92
I1
sS'summarize'
p93
I1
sS'extremely'
p94
I1
sS'collaboratively'
p95
I1
sS'analysis'
p96
I1
sS'healthcare'
p97
I1
sS'position'
p98
I1
sS'the'
p99
I1
sS'typically'
p100
I1
sS'order'
p101
I1
s.