(dp1
S'shop'
p2
F0.015651999999999999
sS'sector'
p3
F0.011908999999999999
sS'help'
p4
F0.0064250000000000002
sS'actionable recommendation'
p5
F0.014599000000000001
sS'show'
p6
F0.011705999999999999
sS'ultimately soloing'
p7
F0.020778999999999999
sS'insight'
p8
F0.0042969999999999996
sS'vary'
p9
F0.020056999999999998
sS'soon'
p10
F0.018967999999999999
sS'quality-driven person'
p11
F0.0223
sS'biggest problem'
p12
F0.019206999999999998
sS'committed'
p13
F0.0052589999999999998
sS'go'
p14
F0.0098399999999999998
sS'something else'
p15
F0.0223
sS'skill'
p16
F0.0089589999999999999
sS'powerpoint word'
p17
F0.020056999999999998
sS'ground'
p18
F0.0096919999999999992
sS'difference'
p19
F0.0080070000000000002
sS'buddy'
p20
F0.019748000000000002
sS'fit'
p21
F0.011313999999999999
sS'young'
p22
F0.020056999999999998
sS'writing'
p23
F0.0079070000000000008
sS'potential'
p24
F0.0078250000000000004
sS'enriched'
p25
F0.020056999999999998
sS'employee'
p26
F0.0057999999999999996
sS'safety'
p27
F0.012181000000000001
sS'survey research'
p28
F0.016723999999999999
sS'social science'
p29
F0.012805
sS'presentation'
p30
F0.0061900000000000002
sS'executive'
p31
F0.0091149999999999998
sS'project administrationwork'
p32
F0.025264999999999999
sS'mixture'
p33
F0.018534999999999999
sS'every day probably including'
p34
F0.019466000000000001
sS'get'
p35
F0.01464
sS'analytical detail-oriented'
p36
F0.02171
sS'dynamic'
p37
F0.007358
sS'short-listed'
p38
F0.021211000000000001
sS'expectation'
p39
F0.011705999999999999
sS'sound like'
p40
F0.014423999999999999
sS'working'
p41
F0.0070200000000000002
sS'background'
p42
F0.0059329999999999999
sS'working closely'
p43
F0.011084
sS'report'
p44
F0.0045079999999999999
sS'world'
p45
F0.0049020000000000001
sS'execution'
p46
F0.0073709999999999999
sS'bringing'
p47
F0.011044
sS'top tier'
p48
F0.016611000000000001
sS'split approximately'
p49
F0.025264999999999999
sS'matter relating'
p50
F0.020396999999999998
sS'workload'
p51
F0.015336000000000001
sS'necessary'
p52
F0.0089020000000000002
sS'success'
p53
F0.0057409999999999996
sS'level'
p54
F0.0047749999999999997
sS'senior management'
p55
F0.011634
sS'developing'
p56
F0.0043779999999999999
sS'presentation visually'
p57
F0.018534999999999999
sS'client ipsos offer'
p58
F0.0223
sS'intrigued'
p59
F0.020056999999999998
sS'join u'
p60
F0.0091929999999999998
sS'overall gpa'
p61
F0.023022000000000001
sS'best talent'
p62
F0.015412
sS'requirement'
p63
F0.0040879999999999996
sS'set'
p64
F0.0069049999999999997
sS'customer feedback'
p65
F0.017222999999999999
sS'people'
p66
F0.0083750000000000005
sS'administrator'
p67
F0.031645
sS'related'
p68
F0.0044999999999999997
sS'every day'
p69
F0.0093550000000000005
sS'result'
p70
F0.0041799999999999997
sS'beyond'
p71
F0.020627
sS''
F0.006613
sS'best'
p72
F0.0055890000000000002
sS'encouraged'
p73
F0.010204
sS'strategic'
p74
F0.0057260000000000002
sS'satisfying'
p75
F0.0223
sS'degree'
p76
F0.007326
sS'intellectual curiosity'
p77
F0.015188999999999999
sS'managing'
p78
F0.014552000000000001
sS'quantitative analysis'
p79
F0.010427000000000001
sS'research'
p80
F0.019102000000000001
sS'encourage'
p81
F0.011806000000000001
sS'passion'
p82
F0.0063080000000000002
sS'key areas'
p83
F0.017978999999999998
sS'innovation'
p84
F0.0050520000000000001
sS'progress'
p85
F0.011516
sS'ipsos makes'
p86
F0.0223
sS'issue'
p87
F0.0057219999999999997
sS'leader'
p88
F0.0051089999999999998
sS'math'
p89
F0.010083
sS'applicant however'
p90
F0.021211000000000001
sS'supporting'
p91
F0.0075690000000000002
sS'university transcript'
p92
F0.0223
sS'led'
p93
F0.014540000000000001
sS'business'
p94
F0.015561999999999999
sS'resume'
p95
F0.0093790000000000002
sS'marketing'
p96
F0.0056189999999999999
sS'extra point'
p97
F0.018744
sS'data scientist'
p98
F0.0021380000000000001
sS'however'
p99
F0.015117999999999999
sS'understanding'
p100
F0.0041590000000000004
sS'bachelors degree'
p101
F0.007345
sS'deliver'
p102
F0.0044140000000000004
sS'international market research'
p103
F0.023952999999999999
sS'others'
p104
F0.0065729999999999998
sS'along'
p105
F0.0097179999999999992
sS'strong'
p106
F0.0032829999999999999
sS'come'
p107
F0.0080780000000000001
sS'thank'
p108
F0.017812999999999999
sS'work environment'
p109
F0.010024
sS'great'
p110
F0.0076519999999999999
sS'high level'
p111
F0.0098670000000000008
sS'prepare'
p112
F0.011004
sS'getting'
p113
F0.013131
sS'career'
p114
F0.013635
sS'study'
p115
F0.008881
sS'30'
p116
F0.012703000000000001
sS'recognized'
p117
F0.0081110000000000002
sS'spss'
p118
F0.012703000000000001
sS'place'
p119
F0.0091369999999999993
sS'project happen coordinating'
p120
F0.023022000000000001
sS'aspire'
p121
F0.015570000000000001
sS'required skills'
p122
F0.010097999999999999
sS'promotion'
p123
F0.014152
sS'browser'
p124
F0.016500999999999998
sS'tell killer story'
p125
F0.019466000000000001
sS'thats'
p126
F0.014481000000000001
sS'consulting'
p127
F0.0080859999999999994
sS'love'
p128
F0.017270000000000001
sS'within'
p129
F0.003885
sS'highly'
p130
F0.0073969999999999999
sS'60'
p131
F0.015651999999999999
sS'time pick'
p132
F0.0223
sS'initiative'
p133
F0.0061240000000000001
sS'right place'
p134
F0.016723999999999999
sS'apply'
p135
F0.0090900000000000009
sS'quality'
p136
F0.0054130000000000003
sS'u'
F0.015070999999999999
sS'market'
p137
F0.0060889999999999998
sS'ideal candidate'
p138
F0.0079679999999999994
sS'use'
p139
F0.0035000000000000001
sS'business-minded individual'
p140
F0.0223
sS'youre looking'
p141
F0.019466000000000001
sS'service'
p142
F0.0034559999999999999
sS'major'
p143
F0.008319
sS'leading'
p144
F0.0046369999999999996
sS'create'
p145
F0.0043470000000000002
sS'management'
p146
F0.0036589999999999999
sS'specifically'
p147
F0.011634
sS'mathematics'
p148
F0.0094879999999999999
sS'biggest company'
p149
F0.019466000000000001
sS'vehicle'
p150
F0.013450999999999999
sS'stage'
p151
F0.012770999999999999
sS'store'
p152
F0.013131
sS'customer satisfaction'
p153
F0.013327
sS'posting'
p154
F0.014368000000000001
sS'relationship'
p155
F0.0067530000000000003
sS'clicking'
p156
F0.015651999999999999
sS'completed'
p157
F0.013950000000000001
sS'requiring sharp time'
p158
F0.021211000000000001
sS'serve'
p159
F0.0079000000000000008
sS'required'
p160
F0.0031359999999999999
sS'delivery'
p161
F0.006411
sS'apply button'
p162
F0.021211000000000001
sS'excellent'
p163
F0.0066750000000000004
sS'talent'
p164
F0.0073639999999999999
sS'attract'
p165
F0.016964
sS'ever wondered'
p166
F0.023952999999999999
sS'analyst'
p167
F0.019748000000000002
sS'project management'
p168
F0.0076179999999999998
sS'especially'
p169
F0.011166000000000001
sS'customer'
p170
F0.0028279999999999998
sS'analyze'
p171
F0.0057330000000000002
sS'ms office'
p172
F0.013623
sS'ipsos rda'
p173
F0.023952999999999999
sS'integrating'
p174
F0.0089020000000000002
sS'science'
p175
F0.014489999999999999
sS'trusted advisor'
p176
F0.015336000000000001
sS'work'
p177
F0.0022539999999999999
sS'enthusiastic confident'
p178
F0.0223
sS'budget'
p179
F0.01125
sS'project'
p180
F0.010482
sS'please submit'
p181
F0.015570000000000001
sS'department assisting'
p182
F0.020778999999999999
sS'ms'
p183
F0.0074689999999999999
sS'learn'
p184
F0.0061630000000000001
sS'making'
p185
F0.0081840000000000003
sS'called'
p186
F0.018744
sS'strong interest'
p187
F0.015821999999999999
sS'manage'
p188
F0.010874999999999999
sS'detailed'
p189
F0.011539000000000001
sS'proud'
p190
F0.017346
sS'play'
p191
F0.0086929999999999993
sS'awesome'
p192
F0.014481000000000001
sS'premier'
p193
F0.015117999999999999
sS'share'
p194
F0.017521999999999999
sS'package'
p195
F0.0095130000000000006
sS'equal opportunity employer'
p196
F0.0060629999999999998
sS'financial'
p197
F0.0062259999999999998
sS'experience'
p198
F0.001209
sS'love playing'
p199
F0.019466000000000001
sS'education'
p200
F0.0052890000000000003
sS'dynamic super high achiever'
p201
F0.0223
sS'interpret result'
p202
F0.017505
sS'preferably'
p203
F0.0095759999999999994
sS'develop'
p204
F0.0050489999999999997
sS'150+ employee'
p205
F0.027508000000000001
sS'variety'
p206
F0.006411
sS'technology'
p207
F0.0023479999999999998
sS'make'
p208
F0.0082000000000000007
sS'excel'
p209
F0.0089639999999999997
sS'detail'
p210
F0.0074419999999999998
sS'40'
p211
F0.014599000000000001
sS'risk-taking'
p212
F0.0223
sS'oriented'
p213
F0.012153000000000001
sS'field'
p214
F0.0064060000000000002
sS'interested'
p215
F0.028171999999999999
sS'role'
p216
F0.010096000000000001
sS'keen attention'
p217
F0.018744
sS'interview'
p218
F0.012541
sS'responsibility'
p219
F0.0064060000000000002
sS'measuring modeling'
p220
F0.0223
sS'company'
p221
F0.0032989999999999998
sS'higher'
p222
F0.022249000000000001
sS'week'
p223
F0.022415000000000001
sS'strong academic'
p224
F0.016095999999999999
sS'product'
p225
F0.0048869999999999999
sS'liberal art'
p226
F0.020056999999999998
sS'see'
p227
F0.008626
sS'ipsos'
p228
F0.055017999999999997
sS'position requires'
p229
F0.011228999999999999
sS'qualifications'
p230
F0.003901
sS'includes'
p231
F0.0079839999999999998
sS'proficiency'
p232
F0.0062570000000000004
sS'ensure'
p233
F0.0054270000000000004
sS'possible'
p234
F0.0094629999999999992
sS'contacted'
p235
F0.017361000000000001
sS'nurtured'
p236
F0.0223
sS'data'
p237
F0.0031580000000000002
sS'task'
p238
F0.0067210000000000004
sS'growth opportunity'
p239
F0.01498
sS'experienced professional'
p240
F0.017090999999999999
sS'industry'
p241
F0.0036819999999999999
sS'documentation'
p242
F0.0075969999999999996
sS'well'
p243
F0.0038249999999999998
sS'drive'
p244
F0.004156
sS'doe'
p245
F0.011166000000000001
sS'thought'
p246
F0.012508999999999999
sS'client'
p247
F0.033080999999999999
sS'solve'
p248
F0.0064159999999999998
sS'allow'
p249
F0.011831
sS'time'
p250
F0.0049109999999999996
sS'consulting firm'
p251
F0.015736
sS'organization'
p252
F0.0036329999999999999
sS'operate'
p253
F0.010378
sS'opportunity'
p254
F0.0032469999999999999
sS'joining'
p255
F0.011124999999999999
s.