(dp1
S'nlp'
p2
F0.012762175844871231
sS'all'
p3
F0.0070852869107517957
sS'help'
p4
F0.0067223993276559826
sS'insight'
p5
F0.021509530567666281
sS'rest'
p6
F0.013128424634822219
sS'interpreted'
p7
F0.019880891391678503
sS'scientist'
p8
F0.0049973995205073044
sS'computer science engineering'
p9
F0.012511672648478224
sS'statistical'
p10
F0.011744662102553175
sS'innovative'
p11
F0.010316364627231367
sS'qualifications'
p12
F0.0062941347724718858
sS'impact'
p13
F0.0060501233253413035
sS'visualization'
p14
F0.0068493982358198233
sS'datasets'
p15
F0.0085092068284276894
sS'big data'
p16
F0.0091040756495044586
sS'technique'
p17
F0.0043281636693008026
sS'employer'
p18
F0.0059178258855425167
sS'better'
p19
F0.0079492708110826746
sS'platform'
p20
F0.0046440660354314647
sS'foster'
p21
F0.012391895323140908
sS'tool'
p22
F0.002463897555974945
sS'ada'
p23
F0.024525207934217468
sS'include'
p24
F0.0057186095798290098
sS'defining'
p25
F0.012308417264980802
sS'alter'
p26
F0.029395675559075386
sS'otherwise.'
p27
F0.035124162132396886
sS'seeking'
p28
F0.0065476390470768087
sS'propose'
p29
F0.015410687669280014
sS'utah'
p30
F0.02521551238771565
sS'experimental design'
p31
F0.013926374800017315
sS'interfacing'
p32
F0.020092845472146192
sS'cutting'
p33
F0.0096737515515336915
sS'using'
p34
F0.0029813410578408308
sS'unique'
p35
F0.0086227775933085497
sS'strive'
p36
F0.011340368222761656
sS'necessary'
p37
F0.010366379610254807
sS'trended'
p38
F0.035124162132396886
sS'level'
p39
F0.014519793216732796
sS'mastery'
p40
F0.06706467884197316
sS'solution'
p41
F0.0022717744805537503
sS'summary'
p42
F0.0087395589974129974
sS'large'
p43
F0.0040638177633418437
sS'ph.d'
p44
F0.017811593879113456
sS'adjust'
p45
F0.020432669802167291
sS'source'
p46
F0.0053193860670686941
sS'applied math'
p47
F0.010284557297198764
sS'uncover'
p48
F0.014733889999272004
sS'mean'
p49
F0.012546542325122381
sS'mathematical'
p50
F0.0090057514670467929
sS'predictive'
p51
F0.0060902863316190528
sS'set'
p52
F0.0056487850374833479
sS'decision support'
p53
F0.016053500268048065
sS'play'
p54
F0.010722148145117884
sS'culture'
p55
F0.015224747674020584
sVMaster
p56
F0.0039859412351401077
sS'statistic'
p57
F0.0036719667028696028
sS'employment'
p58
F0.018299413284691531
sS'applied mathematics computer science'
p59
F0.021660974316010675
sS'ability'
p60
F0.0020315213404239487
sS'ultimately'
p61
F0.0168150715873185
sS'degree'
p62
F0.0018436558112396673
sS'federal'
p63
F0.0090883145322996229
sS'decision'
p64
F0.0052112208130329317
sS'quickly'
p65
F0.019982787051144969
sS'various'
p66
F0.0062093950775122661
sS'employee.'
p67
F0.03058444361276599
sS'erisa'
p68
F0.035124162132396886
sS'available'
p69
F0.0080541698700687895
sS'discipline'
p70
F0.0072084829191536
sS'creating'
p71
F0.0070434840208025394
sS'business'
p72
F0.0032554185028776583
sS'healthcare'
p73
F0.026472080309575034
sS'eligibility'
p74
F0.021399383983633929
sS'communicate'
p75
F0.0051029265003889593
sS'stakeholder'
p76
F0.0074716002662090194
sS'data scientist'
p77
F0.00076474088663959331
sS'desired'
p78
F0.0082910234295605154
sS'job'
p79
F0.0053693116820039003
sS'leadership'
p80
F0.0062971770362403815
sS'key'
p81
F0.0049331352946751427
sS'product decision'
p82
F0.020432669802167291
sS'digestible'
p83
F0.022957074045969202
sS'outcome'
p84
F0.0098613917847028085
sS'language'
p85
F0.0046596054551220449
sS'compliance'
p86
F0.023137721417531693
sS'programming'
p87
F0.0042947738450486005
sS'equal'
p88
F0.007380785831877709
sS'contract'
p89
F0.012546542325122381
sS'participant.'
p90
F0.035124162132396886
sS'turn'
p91
F0.012707203302400294
sS'theory'
p92
F0.01214635660931618
sS'duty'
p93
F0.010481598476462912
sS'major'
p94
F0.0098069050754377041
sS'classification'
p95
F0.010977573580050965
sVDoctor
p96
F0.0052589448652123651
sS'data science'
p97
F0.007690196745072337
sS'one'
p98
F0.003549199612479377
sS'appropriate'
p99
F0.0078301630429075467
sS'right'
p100
F0.0084308784294466199
sS'improvement'
p101
F0.008036500669746616
sS'establish'
p102
F0.010871165873012043
sS'manipulate'
p103
F0.013068393683532326
sS'statistics'
p104
F0.0089102576851706611
sS'service'
p105
F0.0035136599476704479
sS'analytic'
p106
F0.0061755471206877011
sS'data'
p107
F0.0053210281167989986
sS'create'
p108
F0.0098996074061155764
sS'structured'
p109
F0.0085224071756621542
sS'continuous improvement'
p110
F0.013901996623672665
sS'strategy'
p111
F0.0058033031244061816
sS'regulation'
p112
F0.012893362928205422
sS'analyze'
p113
F0.011786532829441695
sS'duties'
p114
F0.011211636266874591
sS'direction'
p115
F0.0091111210732694042
sS'option'
p116
F0.012817889646476678
sS'relationship'
p117
F0.014641227244537987
sS'business problem'
p118
F0.0076389777839016796
sS'company'
p119
F0.0051440370227762737
sS'lehi'
p120
F0.032259918425367101
sS'made'
p121
F0.011086794348917935
sS'must'
p122
F0.0047700501408738504
sS'hire'
p123
F0.011340368222761656
sS'translate'
p124
F0.018329662233217039
sS'data visualization'
p125
F0.0070713055565455422
sS'this'
p126
F0.0033897181134681978
sS'applied mathematics'
p127
F0.023418835887051976
sS'work'
p128
F0.0024068412582628506
sS'machine learning'
p129
F0.0065499032851714361
sS'compile'
p130
F0.040865339604334583
sS'e-verify'
p131
F0.016622843480649352
sS'ms'
p132
F0.0081136190566463168
sS'design'
p133
F0.0028153663476727466
sS'mathematics computer science'
p134
F0.014645656469885155
sS'feature'
p135
F0.009395096314658645
sS'experience.'
p136
F0.011025760050999044
sS'influence'
p137
F0.0097442323589282415
sS'it'
p138
F0.010885977274243442
sS'general'
p139
F0.0095787627895677126
sS'states'
p140
F0.0090959027321799498
sS'effectively'
p141
F0.0065681830288266173
sS'as'
p142
F0.010590206674927608
sS'in'
p143
F0.0055093917500626923
sS'activity'
p144
F0.008036500669746616
sS'technology'
p145
F0.0021953608141863151
sS'regression'
p146
F0.009898119609729885
sS'complete'
p147
F0.011111462779069331
sS'large data set'
p148
F0.0091648311166085197
sS'united'
p149
F0.0080778469815950132
sS'end'
p150
F0.0099538308894613122
sS'form'
p151
F0.010977573580050965
sS'user experience'
p152
F0.011624511135480076
sS'verify'
p153
F0.01793874781198344
sV[0]
p154
F0.0058932664147208474
sS'graduate'
p155
F0.012617177116704389
sS'note'
p156
F0.011767007588385914
sS'located'
p157
F0.010234229192455663
sS'methodology'
p158
F0.0067664611868938768
sS'edge'
p159
F0.0088741091520404495
sS'role'
p160
F0.0037212871960796414
sS'computer science'
p161
F0.0068330284913641418
sS'verification'
p162
F0.015239205381520946
sS'you'
p163
F0.0043981992679004355
sS'document'
p164
F0.0094278886115346083
sS'unstructured data'
p165
F0.0099258813449686883
sS'product'
p166
F0.0047319476628575954
sS'assist'
p167
F0.0088885306316669084
sS'upon'
p168
F0.010315051086338026
sS'hired'
p169
F0.018564979493884973
sS'quantitative'
p170
F0.012129365816593544
sS'aggregate'
p171
F0.018205432552944757
sS'law'
p172
F0.014770729458501211
sS'hipaa'
p173
F0.023180491474945407
sS'identity'
p174
F0.0060939569541351496
sS'insights.'
p175
F0.017068658071199339
sS'remote'
p176
F0.013829713371224668
sS'algorithm'
p177
F0.0046054714035571832
sS'database'
p178
F0.0049220602815964942
sS'required'
p179
F0.0070312527363458593
sS'drive'
p180
F0.0043473654935459313
sS'actionable'
p181
F0.0078582121139492995
sS'person'
p182
F0.0088240267698583442
sS'implied'
p183
F0.035124162132396886
sS'responsibility'
p184
F0.0065190480597792184
sS'solutionreach'
p185
F0.14049664852958754
sS'position'
p186
F0.0032196583376261252
sS'opportunity'
p187
F0.0080603170097972143
sS'inc.'
p188
F0.0094443828858875502
sS'reserve'
p189
F0.027083216147671639
s.