(dp1
S'operations'
p2
F0.0074980000000000003
sS'limited'
p3
F0.0060200000000000002
sS'code'
p4
F0.010815
sS'managed'
p5
F0.012390999999999999
sS"5 years' experience"
p6
F0.016438999999999999
sS'business need'
p7
F0.0081449999999999995
sS'global'
p8
F0.0045719999999999997
sS'manufacturing process'
p9
F0.0146
sS'data acquisition'
p10
F0.022405000000000001
sS'wrangle'
p11
F0.018277000000000002
sS'concept'
p12
F0.0051700000000000001
sS'computer science engineering'
p13
F0.0096970000000000008
sS'sexual orientation gender identity'
p14
F0.0096559999999999997
sS'statistical'
p15
F0.0040549999999999996
sS'machine learning data engineering'
p16
F0.020708000000000001
sS'oct data engineer'
p17
F0.022547000000000001
sS'impact'
p18
F0.0046519999999999999
sS'visualization'
p19
F0.0054749999999999998
sS'based'
p20
F0.0039309999999999996
sS'classification'
p21
F0.008685
sS'candidate'
p22
F0.0049589999999999999
sS'use case'
p23
F0.0092910000000000006
sS'explain'
p24
F0.0087430000000000008
sS'experience working'
p25
F0.0049519999999999998
sS'emphasis'
p26
F0.0095750000000000002
sS'web application'
p27
F0.0098700000000000003
sS'environment'
p28
F0.0030709999999999999
sS'source'
p29
F0.011989
sS'internal'
p30
F0.0085019999999999991
sS'micron'
p31
F0.019632
sS'integrate'
p32
F0.0069560000000000004
sS'relational database'
p33
F0.0066540000000000002
sS'existing data'
p34
F0.014116999999999999
sS'include'
p35
F0.0049550000000000002
sS'presentation'
p36
F0.010147
sS'image'
p37
F0.011433
sS'build'
p38
F0.0025869999999999999
sS'may include'
p39
F0.010102999999999999
sS'semiconductor industry'
p40
F0.018277000000000002
sS'data warehouse'
p41
F0.0089079999999999993
sS'powerful'
p42
F0.010611000000000001
sS'practice'
p43
F0.0052779999999999997
sS'recruit hire train'
p44
F0.017794000000000001
sS'execute'
p45
F0.0062839999999999997
sS'preferred'
p46
F0.0038149999999999998
sS'reduce deviation improve'
p47
F0.022547000000000001
sS'micron technology'
p48
F0.017794000000000001
sS'data preparation'
p49
F0.012390999999999999
sS'preparing'
p50
F0.012898
sS'background'
p51
F0.0048630000000000001
sS'new'
p52
F0.0024979999999999998
sS'application'
p53
F0.0057889999999999999
sS'using'
p54
F0.0029450000000000001
sS'short'
p55
F0.0098700000000000003
sS"team members' disability"
p56
F0.018277000000000002
sS'condition'
p57
F0.010305
sS'reduce cost'
p58
F0.0146
sS'always'
p59
F0.010102999999999999
sS'signal'
p60
F0.011025
sS'employment without regard'
p61
F0.0054489999999999999
sS'scikit-learn'
p62
F0.012696000000000001
sS'solution'
p63
F0.0094310000000000001
sS'yield'
p64
F0.026082000000000001
sS'method'
p65
F0.0037100000000000002
sS'capability'
p66
F0.0046179999999999997
sS'eeo'
p67
F0.011821999999999999
sS'team'
p68
F0.0020279999999999999
sS'analytical'
p69
F0.0072269999999999999
sS'hadoop ecosystem'
p70
F0.010826000000000001
sS'5 years'
p71
F0.011129999999999999
sS'rich data visualization'
p72
F0.020708000000000001
sS'r'
F0.003986
sS'ms sql'
p73
F0.014880000000000001
sS'oracle mysql'
p74
F0.017794000000000001
sS'1-800-336-8918'
p75
F0.017794000000000001
sS'intuitive user interface'
p76
F0.034770000000000002
sS'administrator'
p77
F0.012969
sS'analytics'
p78
F0.0024329999999999998
sS'experienced'
p79
F0.0070699999999999999
sS'design'
p80
F0.0043889999999999997
sS'fortune 500'
p81
F0.012762000000000001
sS'manassas virginia'
p82
F0.022547000000000001
sS'providing reasonable accommodation'
p83
F0.01257
sS'curious'
p84
F0.0089870000000000002
sS'extract'
p85
F0.0079120000000000006
sS'pre-existing system'
p86
F0.022547000000000001
sS'creating'
p87
F0.0053790000000000001
sS'data engineer'
p88
F0.019071000000000001
sS'extend'
p89
F0.011058999999999999
sS'expert'
p90
F0.0050369999999999998
sS'engineering puzzle'
p91
F0.018869
sS'assistance'
p92
F0.0097389999999999994
sS'integration'
p93
F0.0058979999999999996
sS'access'
p94
F0.011105
sS'experiment'
p95
F0.0069119999999999997
sS'various'
p96
F0.027505999999999999
sS'international'
p97
F0.019311999999999999
sS'leader'
p98
F0.0083750000000000005
sS'minimal'
p99
F0.011557
sS'2 years'
p100
F0.011965999999999999
sS'available'
p101
F0.0063769999999999999
sS'discipline'
p102
F0.0065120000000000004
sS'teradata'
p103
F0.010611000000000001
sS'2 year'
p104
F0.013927
sS'spark hive hbase'
p105
F0.022547000000000001
sS'presentation layer'
p106
F0.017385000000000001
sS'business'
p107
F0.0018220000000000001
sS'us frontend manufacturing'
p108
F0.019632
sS'deliver'
p109
F0.0036180000000000001
sS'prepare'
p110
F0.0090189999999999992
sS'learn'
p111
F0.0050509999999999999
sS'data scientist'
p112
F0.0035049999999999999
sS'scalability'
p113
F0.011277000000000001
sS'understanding'
p114
F0.0068170000000000001
sS'step'
p115
F0.011354
sS'git jira confluence etc'
p116
F0.022547000000000001
sS'along'
p117
F0.0079649999999999999
sS'manufacturing'
p118
F0.029477
sS'optimize'
p119
F0.0065820000000000002
sS'information technology'
p120
F0.0070619999999999997
sS'improve'
p121
F0.007986
sS'great'
p122
F0.0062719999999999998
sS'central'
p123
F0.010467000000000001
sS'phd degree'
p124
F0.009221
sS'forum'
p125
F0.017794000000000001
sS'python pil scikit-image etc'
p126
F0.022547000000000001
sS'data cleaning'
p127
F0.017031000000000001
sS'goal'
p128
F0.0047499999999999999
sS'compliance'
p129
F0.0078689999999999993
sS'programming'
p130
F0.0048999999999999998
sS'experience'
p131
F0.0019819999999999998
sS'practical'
p132
F0.0086009999999999993
sS'prior'
p133
F0.0093830000000000007
sS'plus'
p134
F0.0081440000000000002
sS'opencv'
p135
F0.016718
sS'django javascript bootstrap d3'
p136
F0.022547000000000001
sS'implement'
p137
F0.003754
sS'expression'
p138
F0.011917000000000001
sS'java scala python'
p139
F0.014880000000000001
sS'etl'
p140
F0.0079869999999999993
sS'software engineer'
p141
F0.0073299999999999997
sS'enhancement'
p142
F0.0083630000000000006
sS'ability'
p143
F0.001506
sS'tasks'
p144
F0.011731
sS'love'
p145
F0.0070780000000000001
sS'data-mining technique'
p146
F0.019632
sS'revenue'
p147
F0.0083379999999999999
sS'religious belief'
p148
F0.018277000000000002
sS'win'
p149
F0.012969
sS'data science'
p150
F0.012581
sS'collaborating'
p151
F0.0086149999999999994
sS'ms degree'
p152
F0.010331
sS'delivering'
p153
F0.0061599999999999997
sS'sampling'
p154
F0.012508999999999999
sS'minimum'
p155
F0.0049550000000000002
sS'appropriate'
p156
F0.0054920000000000004
sS'engineering li-bb1'
p157
F0.022547000000000001
sS'draw'
p158
F0.012390999999999999
sS'polished presentation'
p159
F0.022547000000000001
sS'big data'
p160
F0.0082609999999999992
sS'quality'
p161
F0.0088730000000000007
sS'engineer'
p162
F0.013546000000000001
sS'management'
p163
F0.0029989999999999999
sS'python r'
p164
F0.0084139999999999996
sS'log'
p165
F0.012116999999999999
sS'working'
p166
F0.0028769999999999998
sS'area'
p167
F0.0036029999999999999
sS'data'
p168
F0.0064720000000000003
sS'create'
p169
F0.0035630000000000002
sS'question'
p170
F0.0059280000000000001
sS'system'
p171
F0.0024380000000000001
sS'strategy'
p172
F0.0074859999999999996
sS'least one'
p173
F0.0074619999999999999
sS'big data ecosystem'
p174
F0.014116999999999999
sS'translate'
p175
F0.0067689999999999998
sS'type'
p176
F0.0070619999999999997
sS'extensive experience'
p177
F0.018619
sS'insightful'
p178
F0.010701
sS'traveling'
p179
F0.015955
sS'field'
p180
F0.0052509999999999996
sS"process please contact micron's human resources department"
p181
F0.017794000000000001
sS'enhancing'
p182
F0.011433
sS'manager supervisor'
p183
F0.017794000000000001
sS'successful'
p184
F0.0066210000000000001
sS'spark mllib'
p185
F0.016718
sS'tool'
p186
F0.001915
sS'semiconductor manufacturing'
p187
F0.017385000000000001
sS'pipeline'
p188
F0.0088170000000000002
sS'idea'
p189
F0.011816
sS'business process'
p190
F0.0073559999999999997
sS'train'
p191
F0.010227
sS'large scale multidimensional data'
p192
F0.022547000000000001
sS'streamline operation'
p193
F0.019632
sS'tensorflow'
p194
F0.013904
sS'team member'
p195
F0.0053020000000000003
sS'data flow'
p196
F0.011686
sS"pregnancy veteran's status"
p197
F0.018277000000000002
sS'promote'
p198
F0.0088620000000000001
sS'interactive data visualization'
p199
F0.015955
sS'must'
p200
F0.0074019999999999997
sS'customer'
p201
F0.0023180000000000002
sS'keywords manassas virginia us-va united states'
p202
F0.020708000000000001
sS'data visualization'
p203
F0.0061980000000000004
sS'developing'
p204
F0.003588
sS'team oct data engineer'
p205
F0.022547000000000001
sS'work'
p206
F0.002771
sS'208-368-4748'
p207
F0.017794000000000001
sS'machine learning'
p208
F0.008626
sS'project'
p209
F0.0042960000000000003
sS'matter'
p210
F0.0088170000000000002
sS'protected'
p211
F0.011166000000000001
sS'theoretical'
p212
F0.012116999999999999
sS'req id 78810'
p213
F0.022547000000000001
sS'grasp'
p214
F0.028233000000000001
sS'demonstrate'
p215
F0.0070780000000000001
sS'strong communication skill'
p216
F0.0091859999999999997
sS'manner'
p217
F0.0087139999999999995
sS'would'
p218
F0.007221
sS'written verbal'
p219
F0.01423
sS'process'
p220
F0.0053689999999999996
sS'request'
p221
F0.0066540000000000002
sS'human resources'
p222
F0.012696000000000001
sS'mind'
p223
F0.010357999999999999
sS'site'
p224
F0.0081110000000000002
sS'package'
p225
F0.015594
sS'high'
p226
F0.0067010000000000004
sS'effectively'
p227
F0.0055919999999999997
sS'scientific'
p228
F0.013722
sS'good'
p229
F0.011533
sS'sensor data'
p230
F0.013708
sS'documenting'
p231
F0.011058999999999999
sS'carrying'
p232
F0.014736000000000001
sS'education'
p233
F0.0043350000000000003
sS'technology'
p234
F0.0019250000000000001
sS'develop new data science'
p235
F0.018869
sS'inc'
p236
F0.0097389999999999994
sS'participating'
p237
F0.011094
sS'bs degree'
p238
F0.010078
sS'develop'
p239
F0.0062069999999999998
sS'statistics mathematics'
p240
F0.012762000000000001
sS'image processing'
p241
F0.012508999999999999
sS'etc'
p242
F0.042009999999999999
sS'provide'
p243
F0.0026970000000000002
sS'mathematics statistic'
p244
F0.011557
sS'make'
p245
F0.0033600000000000001
sS'responsible'
p246
F0.0065329999999999997
sS'administration'
p247
F0.0095160000000000002
sS'machine learning technique'
p248
F0.015394
sS'equipment'
p249
F0.023372
sS'responsibilities'
p250
F0.0032940000000000001
sS'complex'
p251
F0.0042030000000000001
sS'various source'
p252
F0.010385
sS'take'
p253
F0.0054710000000000002
sS'answer'
p254
F0.0074000000000000003
sS"person's race color religion sex age national origin disability"
p255
F0.018277000000000002
sS'conclusion'
p256
F0.010826000000000001
sS'product'
p257
F0.002003
sS'used'
p258
F0.0055700000000000003
sS'full-stack data engineer'
p259
F0.022547000000000001
sS'collaborative'
p260
F0.013912000000000001
sS'information'
p261
F0.0030639999999999999
sS'may'
p262
F0.0052040000000000003
sS'collaboration'
p263
F0.0052199999999999998
sS'time'
p264
F0.0040249999999999999
sS'qualifications'
p265
F0.0031970000000000002
sS'preparing data'
p266
F0.015192000000000001
sS'includes'
p267
F0.0065440000000000003
sS'proficiency'
p268
F0.0051289999999999999
sS'equivalent experience'
p269
F0.0074530000000000004
sS'regular'
p270
F0.0091179999999999994
sS'pattern'
p271
F0.0064929999999999996
sS'eeo administrator'
p272
F0.017794000000000001
sS'manufacturing fabs'
p273
F0.022547000000000001
sS"2 years' experience"
p274
F0.016718
sS'law'
p275
F0.0061929999999999997
sS'meaningful'
p276
F0.015513000000000001
sS'monitor'
p277
F0.0076379999999999998
sS'cycle'
p278
F0.010524
sS'building'
p279
F0.0069119999999999997
sS'something new'
p280
F0.015192000000000001
sS'algorithm'
p281
F0.0032959999999999999
sS'policy'
p282
F0.013897
sS'transformation augmentation enrichment'
p283
F0.022547000000000001
sS'documentation'
p284
F0.0062269999999999999
sS'business strategy'
p285
F0.0098919999999999998
sS'doe'
p286
F0.0091520000000000004
sS'thought'
p287
F0.010253
sS'inform'
p288
F0.0086149999999999994
sS'deep learning'
p289
F0.0081799999999999998
sS'solve'
p290
F0.0052589999999999998
sS'broad'
p291
F0.016361000000000001
sS'position'
p292
F0.0052139999999999999
sS'model'
p293
F0.0026419999999999998
sS'discover'
p294
F0.0090189999999999992
sS'insight'
p295
F0.003522
sS'necessary data'
p296
F0.016185999999999999
sS'travel'
p297
F0.0060470000000000003
s.