(dp1
S'non -'
p2
F0.018834
sS'review resolution proposal'
p3
F0.036636000000000002
sS'call 24 hour'
p4
F0.018318000000000001
sS'existing'
p5
F0.0064349999999999997
sS'process exist provide'
p6
F0.036636000000000002
sS'bring'
p7
F0.0055160000000000001
sS'manages'
p8
F0.0098969999999999995
sS'identify'
p9
F0.0042509999999999996
sS'introduce new technology'
p10
F0.017877000000000001
sS'key stakeholder'
p11
F0.011563
sS'committed'
p12
F0.0050150000000000004
sS'unix linux windows'
p13
F0.018318000000000001
sS'skill'
p14
F0.0056959999999999997
sS'availability'
p15
F0.025193
sS'alignment'
p16
F0.011459
sS'current'
p17
F0.013055000000000001
sS'inspiring'
p18
F0.0087349999999999997
sS'adp'
p19
F0.026698
sS'implementation'
p20
F0.0052639999999999996
sS'strong interpersonal'
p21
F0.014486000000000001
sS'environment'
p22
F0.0035729999999999998
sS'source'
p23
F0.013950000000000001
sS'production'
p24
F0.012265
sS'presentation'
p25
F0.0059030000000000003
sS'continuity'
p26
F0.016837999999999999
sS'case'
p27
F0.022519000000000001
sS'collaborate'
p28
F0.0052570000000000004
sS'information complaint'
p29
F0.036636000000000002
sS'overall'
p30
F0.0075700000000000003
sS'preferred'
p31
F0.0044390000000000002
sS'degradation'
p32
F0.018565000000000002
sS'fulfill standard requested service'
p33
F0.036636000000000002
sS'deployment'
p34
F0.014182999999999999
sS'web sphere application server administration'
p35
F0.018834
sS'one'
p36
F0.0071300000000000001
sS'day'
p37
F0.0087779999999999993
sS'strive'
p38
F0.0085290000000000001
sS'stability'
p39
F0.014286999999999999
sS'level'
p40
F0.0045539999999999999
sS'like iis apache'
p41
F0.018318000000000001
sS'solution'
p42
F0.0021949999999999999
sS'communicates interim fix'
p43
F0.018834
sS'continue'
p44
F0.0074980000000000003
sS'architecture'
p45
F0.0059760000000000004
sS'ensure'
p46
F0.005176
sS'team'
p47
F0.0011800000000000001
sS'problem correlate'
p48
F0.036636000000000002
sS'development'
p49
F0.0020709999999999999
sS'requirement'
p50
F0.0038990000000000001
sS'strong communication'
p51
F0.012345999999999999
sS'production environment'
p52
F0.011617000000000001
sS'people'
p53
F0.0039940000000000002
sS'series'
p54
F0.014848999999999999
sS'research recommend'
p55
F0.017489999999999999
sS'brilliant engineer architect data scientist infrastructure expert'
p56
F0.0091079999999999998
sS'unlock'
p57
F0.0082629999999999995
sS'process improvement'
p58
F0.010853
sS'career potential technology'
p59
F0.0092060000000000006
sS'recommendation'
p60
F0.0061830000000000001
sS'availability security'
p61
F0.018318000000000001
sS'operation'
p62
F0.022759000000000001
sS'server'
p63
F0.011644
sS"adp's high volume"
p64
F0.018834
sS'customer accountable'
p65
F0.018834
sS'saas solution'
p66
F0.0090489999999999998
sS'provided'
p67
F0.011235
sS'vital asset employee'
p68
F0.0092060000000000006
sS'problem solving skill'
p69
F0.0083929999999999994
sS'capacity'
p70
F0.010895999999999999
sS'lead'
p71
F0.0037309999999999999
sS'managing'
p72
F0.0069389999999999999
sS'review'
p73
F0.020604999999999998
sS'litech'
p74
F0.013447000000000001
sS'basic knowledge'
p75
F0.013756000000000001
sS'innovative companies'
p76
F0.0091199999999999996
sS'ensures accountability'
p77
F0.018318000000000001
sS'state'
p78
F0.0079419999999999994
sS'technical complexity'
p79
F0.016426
sS'performs'
p80
F0.010173
sS'conduct'
p81
F0.0080249999999999991
sS'structured protocol'
p82
F0.018834
sS'permanent solution'
p83
F0.018834
sS'follow-up effort'
p84
F0.017489999999999999
sS'closes problem'
p85
F0.018834
sS'demonstrated'
p86
F0.0063460000000000001
sS'meet business need'
p87
F0.014848999999999999
sS'infrastructure'
p88
F0.031607000000000003
sS'product development'
p89
F0.0065640000000000004
sS'business'
p90
F0.0084810000000000007
sS'good knowledge'
p91
F0.028702999999999999
sS'impact failure'
p92
F0.018318000000000001
sS'million'
p93
F0.0063610000000000003
sS'deliver'
p94
F0.012628
sS'standard'
p95
F0.016986000000000001
sS'implementing'
p96
F0.0074770000000000001
sS'leadership'
p97
F0.0052680000000000001
sS'web'
p98
F0.0074980000000000003
sS'meet'
p99
F0.0058529999999999997
sS'every interaction'
p100
F0.0095600000000000008
sS'change'
p101
F0.0056230000000000004
sS'client-server relationship'
p102
F0.018318000000000001
sS'communication negotiation'
p103
F0.018089000000000001
sS'major incidents creates post mortems'
p104
F0.036636000000000002
sS'receive'
p105
F0.020913999999999999
sS'industry'
p106
F0.0035109999999999998
sS'known error database prioritize'
p107
F0.036636000000000002
sS'etc'
p108
F0.004444
sS'place'
p109
F0.0087139999999999995
sS'workplace'
p110
F0.0064000000000000003
sS'qualification'
p111
F0.018537000000000001
sS'assumed'
p112
F0.034979999999999997
sS'view'
p113
F0.0098209999999999999
sS'driven'
p114
F0.0062069999999999998
sS'create'
p115
F0.0041460000000000004
sS'first'
p116
F0.0073249999999999999
sS'comment'
p117
F0.034627999999999999
sS'microsoft word excel'
p118
F0.016062
sS'person counts results-driven social responsibility'
p119
F0.0098359999999999993
sS'core value insightful expertise integrity'
p120
F0.0097020000000000006
sS'ensures root cause'
p121
F0.034979999999999997
sS'cb'
p122
F0.012788000000000001
sS'manage'
p123
F0.0051859999999999996
sS'obtaining'
p124
F0.030015
sS'comprised'
p125
F0.0083269999999999993
sS'itil process'
p126
F0.017489999999999999
sS'communication remediation recovery command'
p127
F0.017489999999999999
sS'carry'
p128
F0.014223
sS'redefining'
p129
F0.0087349999999999997
sS'everything service excellence inspiring innovation'
p130
F0.0097020000000000006
sS'latest innovation'
p131
F0.0091439999999999994
sS'every twelve week'
p132
F0.018318000000000001
sS'documentation'
p133
F0.0072449999999999997
sS'research empowering'
p134
F0.0091809999999999999
sS'use'
p135
F0.0033379999999999998
sS'management'
p136
F0.01047
sS'service'
p137
F0.036255999999999997
sS'platform'
p138
F0.004241
sS'introduction'
p139
F0.013547
sS'leading'
p140
F0.0044229999999999998
sS'support'
p141
F0.0021129999999999999
sS'participates'
p142
F0.010917
sS'accountability'
p143
F0.023342999999999999
sS'needed'
p144
F0.0064510000000000001
sS'pmp highly'
p145
F0.018834
sS'way'
p146
F0.0093150000000000004
sS'conflict management resolution'
p147
F0.018318000000000001
sS'associated'
p148
F0.0095320000000000005
sS'assessment'
p149
F0.010571000000000001
sS'function'
p150
F0.006502
sS'life'
p151
F0.010206
sS'interest'
p152
F0.0078530000000000006
sS'offer'
p153
F0.0049649999999999998
sS'excellent soft skill'
p154
F0.018318000000000001
sS'tool'
p155
F0.0022279999999999999
sS'envelope utilizing'
p156
F0.0091319999999999995
sS'leadership documents'
p157
F0.018834
sS'delivery'
p158
F0.0061139999999999996
sS'demand'
p159
F0.0099290000000000003
sS'must'
p160
F0.0086130000000000009
sS'customer'
p161
F0.0053940000000000004
sS'determines'
p162
F0.015443
sS'business user'
p163
F0.011617000000000001
sS'initiative towards completion'
p164
F0.018318000000000001
sS'gather'
p165
F0.010939000000000001
sS'work'
p166
F0.001075
sS'us'
p167
F0.0052059999999999997
sS'project'
p168
F0.0049979999999999998
sS'future'
p169
F0.0094009999999999996
sS'ongoing'
p170
F0.0087670000000000005
sS'ms'
p171
F0.007123
sS'highly automated intelligent'
p172
F0.0091319999999999995
sS'problem'
p173
F0.012814000000000001
sS'procedure'
p174
F0.015214
sS'control'
p175
F0.0092180000000000005
sS'service interruption'
p176
F0.018834
sS'impact assessment ensures adherence'
p177
F0.017877000000000001
sS'possible named one'
p178
F0.0092060000000000006
sS'process'
p179
F0.003124
sS'forever change'
p180
F0.0091809999999999999
sS'agreed level'
p181
F0.018834
sS'expertise'
p182
F0.0083070000000000001
sS'general'
p183
F0.017642999999999999
sS'high'
p184
F0.0077970000000000001
sS'technical troubleshooting via logical process'
p185
F0.018318000000000001
sS'engineering'
p186
F0.0041679999999999998
sS'service disruption degradation non dr events communicates business impact'
p187
F0.018318000000000001
sS'essential responsibilities'
p188
F0.015008000000000001
sS'experience'
p189
F0.0017290000000000001
sS"computerworld's 100 best places"
p190
F0.0091809999999999999
sS'activity'
p191
F0.0063949999999999996
sS'technology'
p192
F0.0067190000000000001
sS'critical incident experience'
p193
F0.018565000000000002
sS'ensures adequate process'
p194
F0.018834
sS'identified'
p195
F0.022145000000000001
sS'information'
p196
F0.0071300000000000001
sS'develop'
p197
F0.002408
sS"world's largest b2b cloud company"
p198
F0.0091079999999999998
sS'provide'
p199
F0.0062750000000000002
sS'latest operating platform'
p200
F0.0091319999999999995
sS'responsible'
p201
F0.0038010000000000001
sS'able'
p202
F0.0047759999999999999
sS'repeated status review uses platform'
p203
F0.036636000000000002
sS'methodology'
p204
F0.0054200000000000003
sS'core competency'
p205
F0.016989000000000001
sS'appropriate work-arounds'
p206
F0.018834
sS'risk profile associated'
p207
F0.017877000000000001
sS'new'
p208
F0.0029069999999999999
sS'enjoy exploring identifying'
p209
F0.0091439999999999994
sS'channel'
p210
F0.020048
sS'predefined approval'
p211
F0.036636000000000002
sS'product'
p212
F0.0046610000000000002
sS'used'
p213
F0.0064809999999999998
sS'ownership assignment'
p214
F0.034979999999999997
sS'predictive solution'
p215
F0.0090369999999999999
sS'assist'
p216
F0.013498
sS'qualifications'
p217
F0.0037200000000000002
sS'way business manage'
p218
F0.0091809999999999999
sS'react'
p219
F0.012083999999999999
sS'coordinate'
p220
F0.0093970000000000008
sS'project plan'
p221
F0.012381
sS'user'
p222
F0.023210999999999999
sS'ownership'
p223
F0.021027000000000001
sS'requirements'
p224
F0.0055240000000000003
sS'strategic direction'
p225
F0.012245000000000001
sS'understands'
p226
F0.011164
sS'driving'
p227
F0.0075700000000000003
sS'effective'
p228
F0.0068399999999999997
sS'established'
p229
F0.009358
sS'required'
p230
F0.011960999999999999
sS'request'
p231
F0.015486
sS'agreed maintenance window deploys change'
p232
F0.017877000000000001
sS'analysis'
p233
F0.002529
sS'powerpoint'
p234
F0.010259000000000001
sS'efficient'
p235
F0.0088990000000000007
sS'week'
p236
F0.010689000000000001
sS'push'
p237
F0.0079670000000000001
sS'diverse'
p238
F0.0060289999999999996
sS'warranty'
p239
F0.017676999999999998
sS"forbes'"
p240
F0.009025
s.