(dp1
S'java ecl pentaho oracle'
p2
F0.027951
sS'qualified woman minority individual'
p3
F0.018796
sS'nosql'
p4
F0.012777
sS'global'
p5
F0.007182
sS'data prioritization sigint humint targeting'
p6
F0.027951
sS'focus'
p7
F0.016459999999999999
sS'scalable solution'
p8
F0.060781000000000002
sS'including'
p9
F0.0035249999999999999
sS'human'
p10
F0.013849999999999999
sS'information visit wwwleidoscom'
p11
F0.018796
sS'assessment data engineering'
p12
F0.026262000000000001
sS'modern technology'
p13
F0.020847999999999998
sS'agile methodology'
p14
F0.015986
sS'leader'
p15
F0.0065770000000000004
sS'technical discipline'
p16
F0.016487000000000002
sS'disability'
p17
F0.0094820000000000008
sS'platform'
p18
F0.0057260000000000002
sS'program'
p19
F0.0065199999999999998
sS"world's toughest challenge"
p20
F0.020723999999999999
sS'velocity data collection'
p21
F0.027951
sS'include'
p22
F0.0077840000000000001
sS'gs'
p23
F0.018571000000000001
sS'company 33 000 employee'
p24
F0.020976000000000002
sS'format'
p25
F0.013599
sS'approximately 10 billion'
p26
F0.018796
sS'natural language processing'
p27
F0.011908999999999999
sS'data acquisition'
p28
F0.017597000000000002
sS'framework'
p29
F0.0082240000000000004
sS'reston virginia leidos reported pro forma annual revenue'
p30
F0.019649
sS'five'
p31
F0.016906000000000001
sS'using'
p32
F0.023129
sS'strategic'
p33
F0.0073720000000000001
sS'identifying'
p34
F0.011142000000000001
sS'recently completed combination'
p35
F0.018796
sS'solution'
p36
F0.011851
sS'entity extraction'
p37
F0.022352
sS'architecting new'
p38
F0.026262000000000001
sS'preferred qualifications'
p39
F0.0089630000000000005
sS'common'
p40
F0.013403999999999999
sS'team'
p41
F0.001593
sS'wide range'
p42
F0.011665
sS'security'
p43
F0.018898000000000002
sS'data analytics'
p44
F0.0092490000000000003
sS'kafka flume'
p45
F0.027309
sS'scalable data'
p46
F0.045869
sS'work experience'
p47
F0.021714000000000001
sS'machine generated'
p48
F0.024421000000000002
sS'analytics'
p49
F0.0076429999999999996
sS'sponsor'
p50
F0.013383000000000001
sS'apply'
p51
F0.0058520000000000004
sS'encouraged'
p52
F0.013136999999999999
sS'lead'
p53
F0.010071999999999999
sS'data engineering'
p54
F0.030938
sS'integration'
p55
F0.018529
sS'adhere'
p56
F0.019463999999999999
sS'current'
p57
F0.026436999999999999
sS'health'
p58
F0.010026999999999999
sS'processing storing'
p59
F0.027951
sS'new'
p60
F0.0078490000000000001
sS'integrated'
p61
F0.025409000000000001
sS'demonstrated'
p62
F0.025701000000000002
sS"years'"
p63
F0.019375
sS'industry standard'
p64
F0.017836000000000001
sS'demonstrated experience'
p65
F0.046511999999999998
sS'commercial customer headquartered'
p66
F0.019649
sS'data analysis'
p67
F0.0080619999999999997
sS"bachelor's degree"
p68
F0.0074720000000000003
sS'equivalent'
p69
F0.0093679999999999996
sS'activity'
p70
F0.0086339999999999993
sS'giving effect'
p71
F0.018796
sS'data quality'
p72
F0.012869
sS'velocity data processing'
p73
F0.027309
sS'focused'
p74
F0.0091719999999999996
sS'address'
p75
F0.010009000000000001
sS'modeling'
p76
F0.0070330000000000002
sS'delivering'
p77
F0.038703000000000001
sS'distribution'
p78
F0.014624
sS'processing large volume near-real time'
p79
F0.025426000000000001
sS'large-scale open-source'
p80
F0.027951
sS'across'
p81
F0.0046569999999999997
sS'industry'
p82
F0.0047410000000000004
sS'compliance'
p83
F0.012361
sS'defense intelligence homeland security civil'
p84
F0.019649
sS'experience'
p85
F0.0015560000000000001
sS'enabling'
p86
F0.013533
sS'etc'
p87
F0.005999
sS'ic data handling tagging compliance'
p88
F0.027951
sS'leidos'
p89
F0.036308
sS'tactical'
p90
F0.015793999999999999
sS'datastores'
p91
F0.026752999999999999
sS'relevant'
p92
F0.015151
sS'transitioning existing'
p93
F0.026262000000000001
sS'within'
p94
F0.0050020000000000004
sS'requirement'
p95
F0.026318000000000001
sS'qualifications'
p96
F0.0050220000000000004
sS'comprised'
p97
F0.011242
sS'demonstrated experience performing data'
p98
F0.025822999999999999
sS'commercial customer'
p99
F0.01796
sS'market'
p100
F0.0078390000000000005
sS'education experience'
p101
F0.017056000000000002
sS'management'
p102
F0.0094230000000000008
sS'work experience delivering'
p103
F0.027951
sS'data feed'
p104
F0.022005
sS'working'
p105
F0.0045189999999999996
sS'area'
p106
F0.005659
sS'leading'
p107
F0.0059709999999999997
sS"lockheed martin's information systems global solutions business"
p108
F0.018796
sS'system'
p109
F0.038302000000000003
sS'approximately'
p110
F0.037439
sS'enrich analytic'
p111
F0.027951
sS'architecting'
p112
F0.017107000000000001
sS'high volume'
p113
F0.036713999999999997
sS'assessment'
p114
F0.01427
sS'enable'
p115
F0.0094160000000000008
sS'tool'
p116
F0.0030079999999999998
sS'various'
p117
F0.0072009999999999999
sS'diverse employee'
p118
F0.018720000000000001
sS'job description'
p119
F0.00843
sS'data processing'
p120
F0.014092
sS'automated'
p121
F0.024494999999999999
sS'end user'
p122
F0.014539
sS'demonstrated experience architecting'
p123
F0.027309
sS'135+ fte program'
p124
F0.025822999999999999
sS'without negatively impacting operational'
p125
F0.026262000000000001
sS'applying'
p126
F0.010902999999999999
sS'target'
p127
F0.013993
sS'science'
p128
F0.0093279999999999995
sS'work'
p129
F0.001451
sS'record'
p130
F0.012813
sS'meet'
p131
F0.015802
sS'demonstrated experience managing'
p132
F0.027951
sS'example'
p133
F0.013039
sS'enhancement'
p134
F0.013136999999999999
sS'process'
p135
F0.021086000000000001
sS'protected veteran'
p136
F0.016146000000000001
sS'engineering'
p137
F0.0056270000000000001
sS'expertise'
p138
F0.005607
sS'need'
p139
F0.0044819999999999999
sS'fiscal year ended january 1 2016'
p140
F0.018796
sS'technology'
p141
F0.0090709999999999992
sS'information'
p142
F0.014437
sS'monitoring'
p143
F0.023414999999999998
sS'perform'
p144
F0.014833000000000001
sS'five year'
p145
F0.087402999999999995
sS'government'
p146
F0.021510000000000001
sS'methodology'
p147
F0.0073169999999999997
sS'support vital mission'
p148
F0.037592
sS'computer science'
p149
F0.0064840000000000002
sS'gots solution'
p150
F0.027951
sS'company'
p151
F0.004248
sS'leidos overview'
p152
F0.019556
sS'development'
p153
F0.0083870000000000004
sS'description'
p154
F0.0086199999999999992
sS'analyst data scientist'
p155
F0.019116999999999999
sS'pentaho platform'
p156
F0.027951
sS'lexisnexis ecl'
p157
F0.027951
sS'five years'
p158
F0.027309
sS'user'
p159
F0.0078340000000000007
sS'leidos incis currently looking'
p160
F0.027951
sS'data'
p161
F0.0040670000000000003
sS'lifecycle'
p162
F0.016761000000000002
sS'billion'
p163
F0.012328
sS'prior experience delivering'
p164
F0.027951
sS'prioritize'
p165
F0.012075000000000001
sS'well'
p166
F0.0049240000000000004
sS'analysis'
p167
F0.0034139999999999999
sS'solve'
p168
F0.00826
sS'disparate data type'
p169
F0.026752999999999999
sS'organization'
p170
F0.0046779999999999999
sS'model'
p171
F0.00415
sS'data aggregation'
p172
F0.023864
s.