(dp1
S'related field'
p2
F0.0099699999999999997
sS'office'
p3
F0.011594999999999999
sS'retrieval data flow'
p4
F0.044319999999999998
sS'mission'
p5
F0.010775
sS'existing'
p6
F0.012485
sS'cost constraint'
p7
F0.036019000000000002
sS'query'
p8
F0.050474999999999999
sS'knowledge'
p9
F0.0055040000000000002
sS'implementation'
p10
F0.010213
sS'asset management'
p11
F0.026481999999999999
sS'technical expertise'
p12
F0.020816000000000001
sS'comprehend'
p13
F0.063737000000000002
sS'environment'
p14
F0.013863
sS'may include'
p15
F0.022807000000000001
sS'normal demand'
p16
F0.034682999999999999
sS'format'
p17
F0.019543000000000001
sS'physical demands'
p18
F0.029783
sS'diverse range'
p19
F0.026381999999999999
sS'foster continuous improvement'
p20
F0.027473000000000001
sS'p smallcap600 index caci provides dynamic career'
p21
F0.029276
sS'upcoming multi-year program'
p22
F0.046747999999999998
sS'success'
p23
F0.010623
sS'communicate'
p24
F0.011688
sS'related experience'
p25
F0.018258
sS'effort'
p26
F0.012024
sS'requirement'
p27
F0.015129
sS'20 000 employee worldwide'
p28
F0.029276
sS'database schema'
p29
F0.036019000000000002
sS'solution'
p30
F0.0042579999999999996
sS'computer'
p31
F0.030502000000000001
sS'design'
p32
F0.014860999999999999
sS'recommendation'
p33
F0.011996
sS'manipulate data'
p34
F0.031623999999999999
sS'deploying'
p35
F0.022485999999999999
sS'open'
p36
F0.016265000000000002
sS'complex datasets using'
p37
F0.044319999999999998
sS'education experience typically requires'
p38
F0.041260999999999999
sS'research'
p39
F0.0070689999999999998
sS'critical'
p40
F0.039118
sS'provides'
p41
F0.013159000000000001
sS'conduct'
p42
F0.015570000000000001
sS'new'
p43
F0.01128
sS'ad hoc'
p44
F0.027473000000000001
sS'evaluation'
p45
F0.017052000000000001
sS'federal civilian customer'
p46
F0.029276
sS'ability'
p47
F0.0034009999999999999
sS"bachelor's degree"
p48
F0.010739
sS'equivalent'
p49
F0.013462999999999999
sS'data scientist'
p50
F0.0039560000000000003
sS'analyzes'
p51
F0.022752000000000001
sS'providing'
p52
F0.010370000000000001
sS'talent'
p53
F0.013625999999999999
sS'national security'
p54
F0.021526
sS'immediate impact'
p55
F0.026481999999999999
sS'disabilities'
p56
F0.022082999999999998
sS'advanced degree'
p57
F0.016906000000000001
sS"fortune magazine world's"
p58
F0.029276
sS'improvement'
p59
F0.013905000000000001
sS'support'
p60
F0.0040990000000000002
sS'software'
p61
F0.018332999999999999
sS'within'
p62
F0.014378
sS'one'
p63
F0.0069160000000000003
sS'owner'
p64
F0.026185
sS'table'
p65
F0.023323
sS'web application'
p66
F0.022280999999999999
sS'increasingly complex'
p67
F0.041260999999999999
sS'engineer'
p68
F0.010193000000000001
sS'database connectivity'
p69
F0.044319999999999998
sS'use'
p70
F0.0064770000000000001
sS'additional'
p71
F0.016265000000000002
sS'service'
p72
F0.0063949999999999996
sS'script'
p73
F0.021016
sS'create'
p74
F0.024132000000000001
sS'system'
p75
F0.022017999999999999
sS'master'
p76
F0.023146
sS'maintenance'
p77
F0.017158
sS'government transformation'
p78
F0.027473000000000001
sS'industry caci'
p79
F0.029276
sS'define'
p80
F0.012123999999999999
sS'fuel innovation'
p81
F0.026689000000000001
sS'russell 2000 index'
p82
F0.028809000000000001
sS'job description'
p83
F0.012115000000000001
sS'feasibility study'
p84
F0.046747999999999998
sS'ha'
p85
F0.011124
sS'caci'
p86
F0.054248999999999999
sS'customer'
p87
F0.0052329999999999998
sS'12'
p88
F0.030532
sS'15'
p89
F0.025902000000000001
sS'integrating'
p90
F0.016471
sS'work'
p91
F0.002085
sS'project'
p92
F0.004849
sS'alternative approach'
p93
F0.035540000000000002
sS'schema'
p94
F0.059922999999999997
sS'authoritative data source'
p95
F0.044319999999999998
sS'associated'
p96
F0.018494
sS'equal opportunity employer'
p97
F0.011218000000000001
sS'travel may'
p98
F0.027844000000000001
sS'file'
p99
F0.024021000000000001
sS'ic'
p100
F0.025811000000000001
sS'intelligence defense'
p101
F0.027473000000000001
sS'admired company'
p102
F0.028375999999999998
sS'information'
p103
F0.013832000000000001
sS'long period'
p104
F0.032122999999999999
sS'develop'
p105
F0.0046709999999999998
sS'provide'
p106
F0.0060870000000000004
sS'make'
p107
F0.0075859999999999999
sS'storage'
p108
F0.046060999999999998
sS'member'
p109
F0.011653999999999999
sS'fortune 1000 largest companies'
p110
F0.027473000000000001
sS'responsibilities'
p111
F0.007437
sS'complex'
p112
F0.0094879999999999999
sS'build'
p113
F0.0058399999999999997
sS'determine feasibility'
p114
F0.041260999999999999
sS'telephone email'
p115
F0.033932999999999998
sS'- females minorities protected veterans individuals'
p116
F0.027473000000000001
sS'optimization'
p117
F0.012466
sS'development'
p118
F0.0080350000000000005
sS'advice'
p119
F0.026689000000000001
sS'assist'
p120
F0.013093
sS'update'
p121
F0.022034999999999999
sS'join caci'
p122
F0.027473000000000001
sS'caci employ'
p123
F0.027473000000000001
sS'services'
p124
F0.016247000000000001
sS'opportunity'
p125
F0.0060070000000000002
sS'involve developing'
p126
F0.039246000000000003
sS'individual'
p127
F0.0095239999999999995
sS'special'
p128
F0.024584999999999999
sS'work closely'
p129
F0.012142999999999999
sS'database'
p130
F0.035344
sS'macro'
p131
F0.036540000000000003
sS'required'
p132
F0.011603
sS'analysis'
p133
F0.01472
sS'face'
p134
F0.047774999999999998
sS'time'
p135
F0.0090860000000000003
sS'oracle'
p136
F0.019324000000000001
sS'retrieval'
p137
F0.032668000000000003
s.