(dp1
S'concept'
p2
F0.0085489999999999993
sS'help'
p3
F0.0043540000000000002
sS'developed'
p4
F0.030668000000000001
sS'oracle pl sql'
p5
F0.027643999999999998
sS'code'
p6
F0.0089420000000000003
sS'identify'
p7
F0.0060410000000000004
sS'provide decision-ready information'
p8
F0.029422
sS'statistical'
p9
F0.0067039999999999999
sS'alternative'
p10
F0.018585000000000001
sS'qualifications'
p11
F0.0052859999999999999
sS'developer'
p12
F0.019892
sS'xml'
p13
F0.020784
sS'good knowledge'
p14
F0.020393999999999999
sS'field'
p15
F0.0086820000000000005
sS'technique'
p16
F0.005947
sS'working knowledge'
p17
F0.011091999999999999
sS'including'
p18
F0.0037109999999999999
sS'flat files'
p19
F0.029422
sS'affinity'
p20
F0.025403999999999999
sS'systems'
p21
F0.014087000000000001
sS'principle cots integration'
p22
F0.029422
sS'combination'
p23
F0.012149
sS'format'
p24
F0.014314
sS'data transformation'
p25
F0.019472
sS'overall'
p26
F0.010758
sS'optimize joint development effort'
p27
F0.029422
sS'technical field'
p28
F0.014385
sS'ms degree'
p29
F0.017083000000000001
sS'highest quality'
p30
F0.019626000000000001
sS'framework'
p31
F0.017312999999999999
sS'data base'
p32
F0.022665999999999999
sS'unix scripting'
p33
F0.025706
sS'using'
p34
F0.0048690000000000001
sS'unstructured data analysis'
p35
F0.030221999999999999
sS'resolve'
p36
F0.014886999999999999
sS'like'
p37
F0.0094420000000000007
sS'service-disable veteran-owned small business sdvosb headquartered'
p38
F0.029422
sS'flexibility'
p39
F0.014579
sS'solution'
p40
F0.0031189999999999998
sS'capability'
p41
F0.0076360000000000004
sS'enterprise miner'
p42
F0.02222
sS'architecture'
p43
F0.016985
sS'team'
p44
F0.001676
sS'enhance'
p45
F0.011453
sS'data analytics'
p46
F0.0097359999999999999
sS'mathematical'
p47
F0.011575999999999999
sS'set'
p48
F0.009358
sS'agile development'
p49
F0.015545
sS'eg'
p50
F0.0086949999999999996
sS'creation'
p51
F0.011344999999999999
sS'custom software development onyx pair subject matter'
p52
F0.029422
sS'design specification'
p53
F0.022079999999999999
sS'analytics'
p54
F0.0040229999999999997
sS'design'
p55
F0.014513
sS'statistic'
p56
F0.0080289999999999997
sS'law enforcement agency'
p57
F0.027182000000000001
sS'expert'
p58
F0.0083289999999999996
sS'decision'
p59
F0.007535
sS'integration'
p60
F0.0097520000000000003
sS'various'
p61
F0.0075799999999999999
sS'timeline'
p62
F0.017127
sS'critical thinking skill'
p63
F0.018773999999999999
sS'order'
p64
F0.0096620000000000004
sS'method'
p65
F0.0061339999999999997
sS'demonstrated'
p66
F0.009018
sS'common'
p67
F0.014109
sS'foundation'
p68
F0.014291
sS'data analysis'
p69
F0.0084869999999999998
sS'ability'
p70
F0.0049820000000000003
sS'active dod secret security clearance'
p71
F0.024604000000000001
sS'deliver'
p72
F0.0059820000000000003
sS'data scientist'
p73
F0.002898
sS'use'
p74
F0.004744
sS'delivering'
p75
F0.010185
sS'job'
p76
F0.010442999999999999
sS'understanding'
p77
F0.0056360000000000004
sS'optimize'
p78
F0.021767999999999999
sS'information technology'
p79
F0.011677
sS'equivalent experience'
p80
F0.012323000000000001
sS'similar'
p81
F0.0099369999999999997
sS'compliance'
p82
F0.013011999999999999
sS'programming'
p83
F0.0081019999999999998
sS'experience'
p84
F0.003277
sS'simulation'
p85
F0.014628
sS'high quality tailored solution'
p86
F0.029422
sS'various data structure'
p87
F0.026764
sS'implement'
p88
F0.012414
sS'specialize'
p89
F0.022991000000000001
sS'professional experience'
p90
F0.014966999999999999
sS'etl'
p91
F0.026414
sS'software'
p92
F0.0044759999999999999
sS'5+ year'
p93
F0.011251000000000001
sS'relevant'
p94
F0.0079740000000000002
sS'coding'
p95
F0.012808999999999999
sS'functional'
p96
F0.022689999999999998
sS'candidates must'
p97
F0.018971999999999999
sS'appropriate'
p98
F0.018162000000000001
sS'link analysis'
p99
F0.025403999999999999
sS'given'
p100
F0.013585
sS'working'
p101
F0.0047569999999999999
sS'varied source'
p102
F0.028746000000000001
sS'addition'
p103
F0.011664000000000001
sS'support'
p104
F0.0060049999999999999
sS'system'
p105
F0.0080630000000000007
sS'priority'
p106
F0.012662
sS'data integrity'
p107
F0.019785000000000001
sS'analyze'
p108
F0.00777
sS'work independently'
p109
F0.012192
sS'data management'
p110
F0.011913999999999999
sS'text mining'
p111
F0.016393999999999999
sS'medium'
p112
F0.011309
sS'services llc'
p113
F0.027182000000000001
sS'defense intelligence community'
p114
F0.029422
sS'tool'
p115
F0.003166
sS'regard'
p116
F0.019109000000000001
sS'understands'
p117
F0.015865000000000001
sS'job description'
p118
F0.0088739999999999999
sS'research escalate'
p119
F0.029422
sS'part'
p120
F0.005999
sS'data processing'
p121
F0.014834
sS'effort'
p122
F0.0088070000000000006
sS'fraud'
p123
F0.035590999999999998
sS'target'
p124
F0.01473
sS'developing'
p125
F0.0059329999999999999
sS'solid'
p126
F0.025989000000000002
sS'onyx government'
p127
F0.029422
sS'work'
p128
F0.0015269999999999999
sS'machine learning'
p129
F0.0047540000000000004
sS'project'
p130
F0.0071029999999999999
sS'technical complexity'
p131
F0.023342000000000002
sS'exploration'
p132
F0.018647
sS'learn'
p133
F0.0083529999999999993
sS'operation research'
p134
F0.013871
sS'strong communication skill'
p135
F0.015188999999999999
sS'data manipulation'
p136
F0.017215999999999999
sS'willingness'
p137
F0.013705
sS'custom software'
p138
F0.027182000000000001
sS'oracle pl sql stored procedure'
p139
F0.029422
sS'high'
p140
F0.01108
sS'expertise'
p141
F0.0059020000000000001
sS'sas'
p142
F0.086961999999999998
sS'database cots integration'
p143
F0.029422
sS'variety'
p144
F0.017378000000000001
sS'provide'
p145
F0.0044590000000000003
sS'strong knowledge'
p146
F0.013410999999999999
sS'predictive modeling'
p147
F0.010324
sS'hadoop'
p148
F0.0085050000000000004
sS'application'
p149
F0.0047860000000000003
sS'methodology'
p150
F0.015405
sS'internal'
p151
F0.0070289999999999997
sS'take'
p152
F0.0090460000000000002
sS'responsibility'
p153
F0.0086820000000000005
sS'natural language processing'
p154
F0.012536
sS'department'
p155
F0.010095
sS'new'
p156
F0.012394000000000001
sS'10+ year'
p157
F0.031796999999999999
sS'development'
p158
F0.0029429999999999999
sS'strong commitment'
p159
F0.019323
sS'product'
p160
F0.0066239999999999997
sS'onyx data management toolkit'
p161
F0.029422
sS'control c2'
p162
F0.029422
sS'manipulating data'
p163
F0.023163
sS'quantitative finance physic engineering computer science'
p164
F0.029422
sS'flexible cost-effective solution'
p165
F0.029422
sS'develops'
p166
F0.010635
sS'preferred'
p167
F0.0063070000000000001
sS'date'
p168
F0.016910999999999999
sS'work ethic'
p169
F0.018971999999999999
sS'independently'
p170
F0.012323000000000001
sS'fairfax virginia'
p171
F0.029422
sS'especially'
p172
F0.015133000000000001
sS'database'
p173
F0.012944000000000001
sS'considered'
p174
F0.011047
sS'required'
p175
F0.0042490000000000002
sS'well'
p176
F0.0051830000000000001
sS'analysis'
p177
F0.010781000000000001
sS'5+ year experience'
p178
F0.020684000000000001
sS'deliverable'
p179
F0.013029000000000001
sS'maintain'
p180
F0.0081189999999999995
sS'command'
p181
F0.018773999999999999
sS'data integration'
p182
F0.016139000000000001
sS'mathematics statistic'
p183
F0.019109000000000001
sS'oracle'
p184
F0.028308
sS'position'
p185
F0.0086219999999999995
sS'model'
p186
F0.0043689999999999996
sS'sql server'
p187
F0.017401
sS'proven experience'
p188
F0.017545000000000002
s.