(dp1
S'office'
p2
F0.014669
sS'intelligence community ic'
p3
F0.079423999999999995
sS'data discovery'
p4
F0.034315999999999999
sS'wide range'
p5
F0.042418999999999998
sS'innovative'
p6
F0.012939000000000001
sS'visualization'
p7
F0.031273000000000002
sS'based'
p8
F0.011226
sS'big data'
p9
F0.011795999999999999
sS'implementation'
p10
F0.012921999999999999
sS'agile'
p11
F0.040339
sS'technique'
p12
F0.020544
sS'platform'
p13
F0.010411
sS'program'
p14
F0.023709999999999998
sS'location'
p15
F0.015245999999999999
sS'include'
p16
F0.014153000000000001
sS'data-driven'
p17
F0.021260000000000001
sS'skilled'
p18
F0.055391999999999997
sS'government'
p19
F0.039109999999999999
sS'python'
p20
F0.011315
sS'preferred'
p21
F0.010895
sS'collaboratively'
p22
F0.033251000000000003
sS'specific'
p23
F0.016455999999999998
sS'data sets intoinformation'
p24
F0.059143000000000001
sS'solution'
p25
F0.0053870000000000003
sS'facing'
p26
F0.040009000000000003
sS'team'
p27
F0.0028960000000000001
sS'require'
p28
F0.01993
sS'mathematical'
p29
F0.019994999999999999
sS'google'
p30
F0.035067000000000001
sS'eg'
p31
F0.015018999999999999
sS'recommendation'
p32
F0.030355
sS'emergingtechnical field'
p33
F0.059143000000000001
sS'lead'
p34
F0.0091570000000000002
sS'space'
p35
F0.021235
sS'jira confluence'
p36
F0.053892000000000002
sS'familiarity'
p37
F0.056973999999999997
sS'looking'
p38
F0.010272
sS'involving theanalytics cyber security'
p39
F0.059143000000000001
sS'new'
p40
F0.007136
sS'approach'
p41
F0.024889999999999999
sS'across'
p42
F0.0084670000000000006
sS'business'
p43
F0.0052040000000000003
sS'data scientist'
p44
F0.01001
sS'job'
p45
F0.027056
sS'talented'
p46
F0.022238999999999998
sS'many'
p47
F0.018967000000000001
sS'experience'
p48
F0.0028300000000000001
sS'analysts'
p49
F0.063371999999999998
sS'utilized anaconda'
p50
F0.059143000000000001
sS'applying statistical'
p51
F0.045568999999999998
sS'overview'
p52
F0.051425999999999999
sS'data science'
p53
F0.0089829999999999997
sS'within'
p54
F0.018190000000000001
sS'herndon virginia'
p55
F0.053892000000000002
sS'solving problem'
p56
F0.097284999999999996
sS'engineer'
p57
F0.012895999999999999
sS'rely'
p58
F0.035555999999999997
sS'working'
p59
F0.016433
sS'slack sharepoint'
p60
F0.059143000000000001
sS'meaningful'
p61
F0.022152999999999999
sS'apps'
p62
F0.031009999999999999
sS'familiarity interfacing'
p63
F0.059143000000000001
sS'offer'
p64
F0.012187
sS'part'
p65
F0.010362
sS'customer'
p66
F0.019861
sS'challenge'
p67
F0.014274
sS'work'
p68
F0.0052769999999999996
sS'project'
p69
F0.012269
sS'r'
F0.011384
sS'making'
p70
F0.019158000000000001
sS'engineers'
p71
F0.058714000000000002
sS'process'
p72
F0.0076680000000000003
sS'topic'
p73
F0.052769999999999997
sS'engineering'
p74
F0.01023
sS'thecommercial'
p75
F0.059143000000000001
sS'documenting'
p76
F0.031586000000000003
sS'technology'
p77
F0.016493000000000001
sS'information'
p78
F0.0087500000000000008
sS'application'
p79
F0.008267
sS'methodology'
p80
F0.013304
sS'asana'
p81
F0.059143000000000001
sS'role'
p82
F0.0078779999999999996
sS"client's business unit"
p83
F0.059143000000000001
sS'development'
p84
F0.0050829999999999998
sS'collaborative'
p85
F0.019866999999999999
sS'transforming'
p86
F0.027938999999999999
sS'proficiency'
p87
F0.014648
sS'produce'
p88
F0.022938
sS'data'
p89
F0.0036970000000000002
sS'understands'
p90
F0.027404000000000001
sS'tracking'
p91
F0.026235999999999999
sS'us government'
p92
F0.033007000000000002
sS'visual explanation'
p93
F0.056071000000000003
sS'required'
p94
F0.0073400000000000002
sS'analysis'
p95
F0.0062069999999999998
sS'client'
p96
F0.019359999999999999
sS'presenting'
p97
F0.026537000000000002
sS'position'
p98
F0.0074460000000000004
sS'model'
p99
F0.0075459999999999998
sS'corporate'
p100
F0.019414000000000001
s.