(dp1
S'concept'
p2
F0.024288000000000001
sS'help'
p3
F0.0030929999999999998
sS'experience working'
p4
F0.005816
sS'money'
p5
F0.01303
sS'guided'
p6
F0.011041
sS'insight'
p7
F0.0082730000000000008
sS'mission'
p8
F0.0056059999999999999
sS'superior result'
p9
F0.011464
sS'elevate'
p10
F0.011414000000000001
sS'preferred qualifications'
p11
F0.0067010000000000004
sS'build empathy'
p12
F0.022161
sS'fidelity'
p13
F0.042931999999999998
sS'agile methodology'
p14
F0.011952000000000001
sS'yet'
p15
F0.014231000000000001
sS'succeeding'
p16
F0.022877000000000002
sS'developer'
p17
F0.014128999999999999
sS'knowledge'
p18
F0.0028639999999999998
sS'front'
p19
F0.016579
sS'certification'
p20
F0.010373
sS'working knowledge'
p21
F0.0078779999999999996
sS'feel comfortable advocating'
p22
F0.022161
sS'environment'
p23
F0.0036059999999999998
sS'present'
p24
F0.014265
sS'passion'
p25
F0.012144
sS'valued'
p26
F0.010517
sS'humanity'
p27
F0.011269
sS'65-million customer'
p28
F0.024320999999999999
sS'change banking'
p29
F0.011414000000000001
sS'good'
p30
F0.0067730000000000004
sS'design thinking'
p31
F0.030134000000000001
sS'strong storytelling'
p32
F0.023057000000000001
sS'advocate'
p33
F0.026228000000000001
sS'session ideation design'
p34
F0.022161
sS'test'
p35
F0.0060629999999999998
sS'quest'
p36
F0.010891
sS'military experience'
p37
F0.011618
sS'articulate'
p38
F0.011566
sS'new'
p39
F0.0058690000000000001
sS'feel comfortable'
p40
F0.020417999999999999
sS'right thing'
p41
F0.011063
sS'realize'
p42
F0.0098820000000000002
sS'complex problem'
p43
F0.011129999999999999
sS'advocacy'
p44
F0.011245
sS'customer enjoy'
p45
F0.011464
sS'success'
p46
F0.0055259999999999997
sS'bring'
p47
F0.005568
sS'approach'
p48
F0.010234999999999999
sS'level'
p49
F0.0091940000000000008
sS'8 year'
p50
F0.020997999999999999
sS'leader'
p51
F0.0049179999999999996
sS'capability'
p52
F0.005424
sS'banking'
p53
F0.0096629999999999997
sS'ui animation using'
p54
F0.023057000000000001
sS'participation'
p55
F0.014356000000000001
sS'team'
p56
F0.0071440000000000002
sS'end-to-end'
p57
F0.010285000000000001
sS'mean'
p58
F0.010021
sS'requirement'
p59
F0.0078709999999999995
sS'experience designing'
p60
F0.012789999999999999
sS'people'
p61
F0.0040309999999999999
sS'eg'
p62
F0.0061760000000000001
sS'testing'
p63
F0.0059500000000000004
sS'idea'
p64
F0.0069389999999999999
sS'prototyping'
p65
F0.010789
sS'analytics'
p66
F0.0028570000000000002
sS'design'
p67
F0.043811000000000003
sS'sponsor'
p68
F0.010005999999999999
sS'measure'
p69
F0.0084720000000000004
sS'exuberant passion'
p70
F0.019009999999999999
sS'curious'
p71
F0.010555
sS'skill'
p72
F0.002875
sS'subject'
p73
F0.0090399999999999994
sS'employ'
p74
F0.0097780000000000002
sS'bringing ingenuity simplicity'
p75
F0.011488999999999999
sS'lead'
p76
F0.015062000000000001
sS'demonstrates'
p77
F0.011724999999999999
sS'decision'
p78
F0.010704
sS'lean'
p79
F0.015231
sS'research'
p80
F0.011032999999999999
sS'leading information-based technology company still founder-led'
p81
F0.011488999999999999
sS'ui design'
p82
F0.018488999999999998
sS'associate serve'
p83
F0.011488999999999999
sS'innovation'
p84
F0.0048630000000000001
sS'take pride'
p85
F0.013114000000000001
sS'experience creating'
p86
F0.028971
sS'shipping product'
p87
F0.023057000000000001
sS'strategist'
p88
F0.014763
sS'method'
p89
F0.0087139999999999995
sS"capital one we're building"
p90
F0.014231000000000001
sS'architecture'
p91
F0.006032
sS'basic qualifications'
p92
F0.0070340000000000003
sS'chief executive officer richard fairbank capital one'
p93
F0.011488999999999999
sS'various'
p94
F0.010768
sS'ability'
p95
F0.001769
sS'power'
p96
F0.0083490000000000005
sS'experience using'
p97
F0.0088599999999999998
sS'stakeholder'
p98
F0.0064149999999999997
sS'standard'
p99
F0.0057149999999999996
sS'excellent communicator'
p100
F0.018259000000000001
sS'ux ui design'
p101
F0.018259000000000001
sS"master's degree"
p102
F0.013936
sS'humility'
p103
F0.010998000000000001
sS'human-centered design principle'
p104
F0.024320999999999999
sS'understanding'
p105
F0.0040029999999999996
sS'employment authorization'
p106
F0.011108
sS'weave key'
p107
F0.023057000000000001
sS'empathy'
p108
F0.031175000000000001
sS'business goal'
p109
F0.012197
sS'tool eg invision flinto pixate uxpin keynote etc'
p110
F0.023057000000000001
sS'tool eg sketch adobe illustrator adobe photoshop omnigraffle balsamiq axure etc'
p111
F0.023057000000000001
sS'capable'
p112
F0.010444
sS'america vienna virginia'
p113
F0.017306999999999999
sS'experience'
p114
F0.0058190000000000004
sS'thrive'
p115
F0.0082129999999999998
sS'leadership'
p116
F0.010633999999999999
sS'mentor'
p117
F0.017021000000000001
sS'deliver human-centered solution'
p118
F0.022161
sS'interact'
p119
F0.0084430000000000009
sS'elegant solution'
p120
F0.020898
sS'5+ year'
p121
F0.063931000000000002
sS'shared value'
p122
F0.011365
sS'fostering'
p123
F0.015782000000000001
sS'support decision-making'
p124
F0.018044000000000001
sS'strategic'
p125
F0.0055120000000000004
sS'learning'
p126
F0.0068519999999999996
sS'respect'
p127
F0.0095940000000000001
sS'strong'
p128
F0.00316
sS'leverage'
p129
F0.0070219999999999996
sS'service'
p130
F0.0066540000000000002
sS'powered'
p131
F0.010481000000000001
sS'researcher data scientist strategist'
p132
F0.022161
sS'management'
p133
F0.010567999999999999
sS'least'
p134
F0.011041
sS'strategy'
p135
F0.0043959999999999997
sS'collaborative team spirit'
p136
F0.022161
sS'teamwork'
p137
F0.0094459999999999995
sS'interest'
p138
F0.0079260000000000008
sS'7+ years'
p139
F0.021465999999999999
sS'translate'
p140
F0.0079500000000000005
sS"years' experience"
p141
F0.014690999999999999
sS'business analyst'
p142
F0.023342999999999999
sS'generating'
p143
F0.014293
sS'modern'
p144
F0.0097199999999999995
sS'deep respect'
p145
F0.011488999999999999
sS'tool'
p146
F0.0022490000000000001
sS'excellent problem-solving'
p147
F0.016452000000000001
sS'possible mindset'
p148
F0.022161
sS'compelling narrative'
p149
F0.022161
sS'1 year'
p150
F0.020202999999999999
sS'style guide'
p151
F0.018259000000000001
sS'capital one'
p152
F0.021867000000000001
sS'believe'
p153
F0.00645
sS'effort'
p154
F0.0062550000000000001
sS'measure success'
p155
F0.017654
sS'customer'
p156
F0.0054450000000000002
sS'anchored'
p157
F0.023057000000000001
sS'prototype'
p158
F0.016251999999999999
sS'anything'
p159
F0.015587
sS'challenge'
p160
F0.0058700000000000002
sS'work'
p161
F0.0021700000000000001
sS'iteration'
p162
F0.034294999999999999
sS'towers crescent 12066 united states'
p163
F0.017654
sS'project'
p164
F0.005045
sS'dream together'
p165
F0.011488999999999999
sS'demonstrate'
p166
F0.0083119999999999999
sS'perspective'
p167
F0.0089149999999999993
sS'exhibit'
p168
F0.011084999999999999
sS'colleague'
p169
F0.0090399999999999994
sS'applicant'
p170
F0.0078700000000000003
sS'experience designers'
p171
F0.024320999999999999
sS'contribute'
p172
F0.014586
sS'customer succeed'
p173
F0.011439
sS'ob'
p174
F0.011439
sS'collaborate'
p175
F0.0053070000000000001
sS'need'
p176
F0.010052999999999999
sS'partner'
p177
F0.0049389999999999998
sS'solving complex problem'
p178
F0.016330000000000001
sS'activity'
p179
F0.0064549999999999998
sS'openness'
p180
F0.011269
sS'product manager'
p181
F0.016605999999999999
sS'human-centered research'
p182
F0.023057000000000001
sS'information'
p183
F0.0035980000000000001
sS'comfortable'
p184
F0.0086800000000000002
sS'goal'
p185
F0.0055789999999999998
sS'user experience'
p186
F0.028455999999999999
sS'technology'
p187
F0.002261
sS'able'
p188
F0.0048209999999999998
sS'utilize'
p189
F0.0088929999999999999
sS'role'
p190
F0.0064790000000000004
sS'chairman'
p191
F0.011414000000000001
sS'digital'
p192
F0.020521000000000001
sS'finding'
p193
F0.0068230000000000001
sS'human-computer interaction'
p194
F0.020001999999999999
sS'high school diploma ged equivalent'
p195
F0.019635
sS'10+ year'
p196
F0.067754999999999996
sS'product'
p197
F0.0070569999999999999
sS'designer'
p198
F0.050265999999999998
sS'collaboration'
p199
F0.00613
sS'7+'
p200
F0.021465999999999999
sS'change ideate'
p201
F0.022161
sS'helping'
p202
F0.0067120000000000001
sS'portfolio'
p203
F0.0083859999999999994
sS'user'
p204
F0.017571
sS'identify opportunity'
p205
F0.010998000000000001
sS'uncover insight'
p206
F0.017475999999999998
sS'experience designing omni-channel service'
p207
F0.024320999999999999
sS'opportunity'
p208
F0.0031250000000000002
sS'grow'
p209
F0.0070400000000000003
sS'work closely'
p210
F0.0063169999999999997
sS'customer achieve'
p211
F0.011339999999999999
sS'least 1 year'
p212
F0.029975999999999999
sS'human-centered'
p213
F0.022161
sS'humble'
p214
F0.015782000000000001
sS'flow'
p215
F0.013200999999999999
sS"you'll"
p216
F0.0071580000000000003
sS'client'
p217
F0.0039810000000000002
sS'responsibility'
p218
F0.0061669999999999997
sS'presenting'
p219
F0.010912
sS'time'
p220
F0.0047270000000000003
sS'position'
p221
F0.0030620000000000001
sS'help inform'
p222
F0.016995
s.