(dp1
S''
F0.0059750000000000003
sS'next generation'
p2
F0.008463
sS'help'
p3
F0.0029030000000000002
sS'money'
p4
F0.01223
sS'guided'
p5
F0.020726999999999999
sS'insight'
p6
F0.0038830000000000002
sS'mission'
p7
F0.0052620000000000002
sS'-experience'
p8
F0.011331000000000001
sS'superior result'
p9
F0.021519
sS'elevate'
p10
F0.021426000000000001
sS'shape'
p11
F0.010343
sS'preferred qualifications'
p12
F0.0062899999999999996
sS'digital giant like'
p13
F0.021642000000000002
sS'million customer rely'
p14
F0.021642000000000002
sS'test thatll prove disprove'
p15
F0.021642000000000002
sS'find'
p16
F0.0069909999999999998
sS'succeeding'
p17
F0.021472000000000002
sS'consider'
p18
F0.007979
sS'content'
p19
F0.0070369999999999999
sS'intersection'
p20
F0.01319
sS'big data'
p21
F0.0045529999999999998
sS'keep reading'
p22
F0.018121000000000002
sS'agile'
p23
F0.015570000000000001
sS'least two dimension'
p24
F0.019615
sS'environment'
p25
F0.0067689999999999998
sS'platform'
p26
F0.0040179999999999999
sS'compelling'
p27
F0.011136999999999999
sS'humanity'
p28
F0.010577
sS'chairman'
p29
F0.010713
sS'change banking'
p30
F0.032139000000000001
sS'algorithm-based decisioning'
p31
F0.021642000000000002
sS'computer science'
p32
F0.0045500000000000002
sS'good'
p33
F0.01907
sS'common theme recommend'
p34
F0.021642000000000002
sS'back-end developer'
p35
F0.018773999999999999
sS'disparate'
p36
F0.016570000000000001
sS'ux designer engineer'
p37
F0.021642000000000002
sS'fast frictionless access'
p38
F0.021642000000000002
sS'agile software'
p39
F0.020147999999999999
sS'cutting-edge technology'
p40
F0.014142
sS'quest'
p41
F0.020445000000000001
sS'military experience'
p42
F0.010905
sS'customer servicing experience'
p43
F0.021642000000000002
sS'applicable federal state'
p44
F0.010363000000000001
sS'step'
p45
F0.012515999999999999
sS'right thing'
p46
F0.020767999999999998
sS'service educational tool'
p47
F0.012349000000000001
sS'kept confidential'
p48
F0.012349000000000001
sS'manner consistent'
p49
F0.0089529999999999992
sS'realize'
p50
F0.018551000000000002
sS'brought'
p51
F0.016244000000000001
sS'execute'
p52
F0.006927
sS'customer enjoy'
p53
F0.01076
sS'success'
p54
F0.0051869999999999998
sS'course'
p55
F0.0091780000000000004
sS'3 year'
p56
F0.0069080000000000001
sS'philippines'
p57
F0.012349000000000001
sS'customer-centric thinking'
p58
F0.021642000000000002
sS'banking'
p59
F0.01814
sS'intrigued'
p60
F0.018121000000000002
sS"capital one's recruiting process please send"
p61
F0.012349000000000001
sS'masters degree'
p62
F0.0067419999999999997
sS'team'
p63
F0.002235
sS'job please contact capital one recruiting'
p64
F0.01183
sS'requirement'
p65
F0.0036939999999999998
sS'grave including gaining alignment'
p66
F0.021642000000000002
sS'financial'
p67
F0.01125
sS'human'
p68
F0.0097190000000000002
sS'people'
p69
F0.0037829999999999999
sS'facebook'
p70
F0.013596
sS'amazon netflix google'
p71
F0.021642000000000002
sS'idea'
p72
F0.013025
sS'-at least 2 year'
p73
F0.020147999999999999
sS'intuitive experience'
p74
F0.021642000000000002
sS'every day'
p75
F0.0084519999999999994
sS'used'
p76
F0.0061399999999999996
sS'design'
p77
F0.0048380000000000003
sS'sponsor'
p78
F0.009391
sS'measure'
p79
F0.0079509999999999997
sS'herea bold'
p80
F0.021642000000000002
sS'youve got'
p81
F0.020799999999999999
sS'receive consideration'
p82
F0.0057159999999999997
sS'canada'
p83
F0.010954999999999999
sS'bringing ingenuity simplicity'
p84
F0.010782999999999999
sS'lead'
p85
F0.0070679999999999996
sS'third-party product'
p86
F0.012309
sS'capital one europe'
p87
F0.012349000000000001
sS'local law capital one promotes'
p88
F0.011191
sS'research'
p89
F0.0034520000000000002
sS'leading information-based technology company still founder-led'
p90
F0.010782999999999999
sS'-mba'
p91
F0.021642000000000002
sS'cradle'
p92
F0.021642000000000002
sS'associate serve'
p93
F0.021566999999999999
sS'innovation'
p94
F0.009129
sS'new'
p95
F0.0027539999999999999
sS'extent applicable article 23-a'
p96
F0.011191
sS'apply'
p97
F0.0041060000000000003
sS'email'
p98
F0.0085950000000000002
sS'thrive'
p99
F0.015417999999999999
sS'basic qualifications'
p100
F0.0066020000000000002
sS'chief executive officer richard fairbank capital one'
p101
F0.010782999999999999
sS'2 year'
p102
F0.0076759999999999997
sS'technology-driven capability'
p103
F0.021642000000000002
sS'business'
p104
F0.0020089999999999999
sS'web'
p105
F0.0071040000000000001
sS'data scientist'
p106
F0.0019319999999999999
sS'empower'
p107
F0.011191
sS'stakeholder'
p108
F0.012042000000000001
sS'deliver'
p109
F0.0039880000000000002
sS'clear path forward'
p110
F0.019164
sS'possibility'
p111
F0.013788999999999999
sS'understanding'
p112
F0.0037580000000000001
sS'job'
p113
F0.0034810000000000002
sS'hypothesis'
p114
F0.022955
sS'mental disability genetic information marital status sexual orientation gender identity assignment citizenship pregnancy'
p115
F0.01256
sS'optimize'
p116
F0.0072560000000000003
sS'improve'
p117
F0.0044019999999999997
sS'driven'
p118
F0.0058799999999999998
sS'unique'
p119
F0.0075950000000000002
sS'empathy'
p120
F0.014630000000000001
sS'equal opportunity employer committed'
p121
F0.010145
sS'healthy'
p122
F0.013357000000000001
sS'extent required'
p123
F0.012349000000000001
sS"capital one's"
p124
F0.017587999999999999
sS'america vienna virginia'
p125
F0.016244000000000001
sS'experience'
p126
F0.003277
sS'qualified applicant'
p127
F0.0053749999999999996
sS'workplace'
p128
F0.0060629999999999998
sS'-at least 3 year'
p129
F0.019164
sS'technical chop'
p130
F0.020799999999999999
sS'manage'
p131
F0.0049129999999999998
sS'road'
p132
F0.018429000000000001
sS'thats'
p133
F0.013084
sS'shared value'
p134
F0.021333999999999999
sS'question'
p135
F0.006535
sS'humility'
p136
F0.020645
sS'perform'
p137
F0.0052050000000000004
sS'60'
p138
F0.014142
sS'entrepreneur'
p139
F0.015217
sS'regulation regarding criminal background inquiry'
p140
F0.011191
sS'done'
p141
F0.012115000000000001
sS'technology dimension deep'
p142
F0.019615
sS'creative problem solver'
p143
F0.01472
sS'respect'
p144
F0.018009000000000001
sS'managing'
p145
F0.006574
sS'engineer'
p146
F0.0049769999999999997
sS'measuring result'
p147
F0.020147999999999999
sS'use'
p148
F0.003163
sS'-bachelors degree'
p149
F0.029818000000000001
sS'leverage'
p150
F0.0065909999999999996
sS'working'
p151
F0.0063429999999999997
sS'powered'
p152
F0.019674000000000001
sS'agency please capital one'
p153
F0.011191
sS'support'
p154
F0.0040029999999999996
sS'careers capitalonecom'
p155
F0.012349000000000001
sS'local law'
p156
F0.010050999999999999
sS'responsibility'
p157
F0.011575999999999999
sS'accommodation'
p158
F0.0093039999999999998
sS'start'
p159
F0.0099069999999999991
sS'difference'
p160
F0.0072350000000000001
sS'assumption'
p161
F0.014142
sS'teamwork'
p162
F0.017731
sS'way'
p163
F0.0088249999999999995
sS'technical'
p164
F0.0027799999999999999
sS'recruitingaccommodation capitalonecom'
p165
F0.012349000000000001
sS'drug-free workplace capital one'
p166
F0.011191
sS'mindset'
p167
F0.011358999999999999
sS'united kingdom'
p168
F0.012115000000000001
sS'capital one doe'
p169
F0.012349000000000001
sS'optimizing'
p170
F0.010145
sS'enable'
p171
F0.0066080000000000002
sS'diversity'
p172
F0.0067299999999999999
sS'lot'
p173
F0.011632
sS'form'
p174
F0.0094210000000000006
sS'deep respect'
p175
F0.021566999999999999
sS'tool'
p176
F0.0042220000000000001
sS'proving'
p177
F0.019615
sS'great'
p178
F0.006914
sS'applicable national federal state'
p179
F0.011004999999999999
sS'site'
p180
F0.0089409999999999993
sS'customer achieve'
p181
F0.021288000000000001
sS'several different entity please note'
p182
F0.012349000000000001
sS'capital one'
p183
F0.030786000000000001
sS'applicable law regarding criminal background inquiry including'
p184
F0.011191
sS'maternity protected veteran status'
p185
F0.01111
sS'believe'
p186
F0.012108000000000001
sS'effort'
p187
F0.0058710000000000004
sS'analyst'
p188
F0.005947
sS'customer'
p189
F0.010220999999999999
sS'valued'
p190
F0.019743
sS'unique blend'
p191
F0.016747000000000001
sS'employment without regard'
p192
F0.0060070000000000002
sS'information available'
p193
F0.011795999999999999
sS'require'
p194
F0.0076920000000000001
sS'work'
p195
F0.001018
sS'towers crescent 12066 united states'
p196
F0.016570000000000001
sS'machine learning'
p197
F0.006339
sS'serf'
p198
F0.011273999999999999
sS'product feature'
p199
F0.013136999999999999
sS'future'
p200
F0.0044530000000000004
sS'ui'
p201
F0.012648
sS'dream together'
p202
F0.021566999999999999
sS'product management'
p203
F0.0087569999999999992
sS'1-800-304-9102'
p204
F0.011191
sS'business stakeholder'
p205
F0.010736000000000001
sS'perspective'
p206
F0.016735
sS'exhibit'
p207
F0.010404999999999999
sS'applicant'
p208
F0.0073870000000000003
sS'employment authorization'
p209
F0.010426
sS'personalization platform'
p210
F0.021642000000000002
sS'personalization'
p211
F0.023015999999999998
sS'customer succeed'
p212
F0.010736000000000001
sS'provide needed reasonable accommodation'
p213
F0.012349000000000001
sS'ob'
p214
F0.021472000000000002
sS'engineering'
p215
F0.0039490000000000003
sS'collaborate'
p216
F0.0049810000000000002
sS'need'
p217
F0.0031449999999999998
sS'partner'
p218
F0.0046360000000000004
sS'made'
p219
F0.0088409999999999999
sS'openness'
p220
F0.021153999999999999
sS'status prohibited'
p221
F0.01256
sS'guarantee'
p222
F0.011898000000000001
sS'employment qualified applicant'
p223
F0.0090570000000000008
sS'information'
p224
F0.0067539999999999996
sS'capital one philippines service corp copssc'
p225
F0.012349000000000001
sS'criminal history'
p226
F0.0090570000000000008
sS'goal'
p227
F0.010473
sS'provide'
p228
F0.0029729999999999999
sS'new york correction law san francisco california police code article 49 sections 4901-4920 new york citys fair chance act philadelphias fair criminal records screening act'
p229
F0.012349000000000001
sS'sex race color age national origin religion physical'
p230
F0.01256
sS'-'
F0.0043750000000000004
sS'fluency'
p231
F0.010107
sS'successful'
p232
F0.0072989999999999999
sS'build'
p233
F0.0085550000000000001
sS'take'
p234
F0.0060299999999999998
sS'liable'
p235
F0.012191
sS'digital'
p236
F0.019261
sS'consumer facing digital'
p237
F0.017587999999999999
sS'many'
p238
F0.0073210000000000003
sS'product manager'
p239
F0.015587
sS'product'
p240
F0.0066239999999999997
sS'designer'
p241
F0.0094359999999999999
sS'position posted'
p242
F0.036806999999999999
sS'collaboration'
p243
F0.011507999999999999
sS'helping'
p244
F0.0126
sS'journey'
p245
F0.011932999999999999
sS'user'
p246
F0.0054970000000000001
sS'position'
p247
F0.0028739999999999998
sS'iterate'
p248
F0.012881999999999999
sS'identify opportunity'
p249
F0.010322
sS'data'
p250
F0.0028540000000000002
sS'built'
p251
F0.0092049999999999996
sS'building'
p252
F0.00381
sS'value'
p253
F0.0049969999999999997
sS'provide endorse'
p254
F0.012349000000000001
sS'third'
p255
F0.018773999999999999
sS'mobile'
p256
F0.0079600000000000001
sS'maybe'
p257
F0.019164
sS'youre'
p258
F0.012005
sS'life'
p259
F0.0096679999999999995
sS'daily'
p260
F0.0098200000000000006
sS'needed urgently'
p261
F0.021642000000000002
sS'capital one canada'
p262
F0.012349000000000001
sS"you'll"
p263
F0.006718
sS'u'
F0.0068079999999999998
sS'advocacy'
p264
F0.010555
sS'time'
p265
F0.004437
sS'direction'
p266
F0.0068820000000000001
sS'every'
p267
F0.0080809999999999996
sS'looking'
p268
F0.0039649999999999998
sS'make'
p269
F0.0037039999999999998
sS'know'
p270
F0.007306
s.