(dp1
S'veteran status sexual orientation gender identity'
p2
F0.023129
sS'interpretation'
p3
F0.024729999999999999
sS'help'
p4
F0.0031020000000000002
sS'problem formulation'
p5
F0.017708999999999999
sS'-'
F0.0093519999999999992
sS'particular'
p6
F0.024406000000000001
sS'demonstrated ability'
p7
F0.0081600000000000006
sS'years'
p8
F0.012947999999999999
sS'executing'
p9
F0.010722000000000001
sS'basic performance-tuning'
p10
F0.024396999999999999
sS'planning'
p11
F0.0071300000000000001
sS'including'
p12
F0.0052880000000000002
sS'particularly'
p13
F0.013983000000000001
sS'skill'
p14
F0.0057679999999999997
sS'previous'
p15
F0.012172000000000001
sS'advanced analytic'
p16
F0.023309
sS'position'
p17
F0.0030720000000000001
sS'considered'
p18
F0.0078709999999999995
sS'monitor'
p19
F0.0089990000000000001
sS'sr data scientist'
p20
F0.014276
sS'field'
p21
F0.0061859999999999997
sS'required qualifications'
p22
F0.010021
sS'english'
p23
F0.011873999999999999
sS'explain'
p24
F0.0206
sS'technique'
p25
F0.025423000000000001
sS'data surveying profiling'
p26
F0.024396999999999999
sS'advancement'
p27
F0.012571000000000001
sS'improvement'
p28
F0.014514000000000001
sS'environment'
p29
F0.003617
sS'analytic'
p30
F0.011216
sS'telecommunication industry'
p31
F0.02223
sS'strong synthesis'
p32
F0.024396999999999999
sS'relevance'
p33
F0.013665
sS'life-cycle'
p34
F0.019068999999999999
sS'consideration'
p35
F0.012536
sS'full-scope'
p36
F0.048793000000000003
sS'varying level'
p37
F0.016039999999999999
sS'ecosystem surrounding r cran python pypi'
p38
F0.024396999999999999
sS'ops'
p39
F0.018797000000000001
sS'python'
p40
F0.0046670000000000001
sS'commitment'
p41
F0.0088880000000000001
sS'objective'
p42
F0.0073090000000000004
sS'qualified'
p43
F0.013331000000000001
sS'background'
p44
F0.017187000000000001
sS'using'
p45
F0.010408000000000001
sS'execution'
p46
F0.021351999999999999
sS'local law charter communications'
p47
F0.023129
sS'desire'
p48
F0.0088439999999999994
sS'execute'
p49
F0.0074029999999999999
sS'open-source'
p50
F0.016504000000000001
sS'linear model glms'
p51
F0.024396999999999999
sS'gender'
p52
F0.011873999999999999
sS'minority female disability veteran'
p53
F0.041926999999999999
sS'synthesize'
p54
F0.026752999999999999
sS'hive'
p55
F0.010968
sS'solid'
p56
F0.0092589999999999999
sS'audience'
p57
F0.014957
sS'preferred qualifications'
p58
F0.0067219999999999997
sS'data mart experience'
p59
F0.024396999999999999
sS'exercise'
p60
F0.014881999999999999
sS'basis protected'
p61
F0.015543
sS'data pre-processing exploratory data analysis'
p62
F0.024396999999999999
sS'predictive'
p63
F0.0072760000000000003
sS'requirement'
p64
F0.0039480000000000001
sS'set'
p65
F0.013336000000000001
sS'job summary'
p66
F0.011351999999999999
sS'10+'
p67
F0.01753
sS'work experience'
p68
F0.0081429999999999992
sS'prediction'
p69
F0.011525000000000001
sS'related'
p70
F0.0043449999999999999
sS'analytics'
p71
F0.0085990000000000007
sS'operation research'
p72
F0.0098829999999999994
sS'result'
p73
F0.0080730000000000003
sS'recommendation'
p74
F0.018782
sS'operation'
p75
F0.0057609999999999996
sS'employment'
p76
F0.0075129999999999997
sS'holdout'
p77
F0.024396999999999999
sS'creating'
p78
F0.0063369999999999998
sS'large labor operation'
p79
F0.024396999999999999
sS'lead'
p80
F0.003777
sS'tree-based method'
p81
F0.02223
sS'broad'
p82
F0.019275
sS'federal state'
p83
F0.014401000000000001
sS'familiarity'
p84
F0.005875
sS'varied data source'
p85
F0.023129
sS'continually'
p86
F0.013112
sS'religion'
p87
F0.016039999999999999
sS'individuals'
p88
F0.013469999999999999
sS'discretion'
p89
F0.018315999999999999
sS'action'
p90
F0.0085760000000000003
sS'cable system'
p91
F0.024396999999999999
sS'60 columbus cir business unit'
p92
F0.024396999999999999
sS'approach'
p93
F0.0051339999999999997
sS'across'
p94
F0.003493
sS'demonstrated'
p95
F0.0064250000000000002
sS'r sas'
p96
F0.012678999999999999
sS'foundation'
p97
F0.010182
sS'ability'
p98
F0.0053239999999999997
sS'business'
p99
F0.002147
sS'office'
p100
F0.006051
sS'leveraging'
p101
F0.0079190000000000007
sS'consumer-based industry'
p102
F0.024396999999999999
sS'hadoop flat file'
p103
F0.024396999999999999
sS'position requires'
p104
F0.010843
sS'desired'
p105
F0.0088439999999999994
sS'job'
p106
F0.0037200000000000002
sS'read write'
p107
F0.018315999999999999
sS'focused'
p108
F0.0068789999999999997
sS'modeling'
p109
F0.010548999999999999
sS'teach'
p110
F0.012298999999999999
sS'strong'
p111
F0.0031700000000000001
sS'distribution'
p112
F0.010968
sS'change'
p113
F0.011387
sS'knowledge'
p114
F0.01149
sS'design'
p115
F0.0025850000000000001
sS'providing'
p116
F0.0054120000000000001
sS'package'
p117
F0.0091859999999999997
sS'advanced-level skill'
p118
F0.024396999999999999
sS'programming'
p119
F0.0057730000000000004
sS'appropriate'
p120
F0.0064700000000000001
sS'experience'
p121
F0.0023349999999999998
sS'practical'
p122
F0.010133
sS'wide variety'
p123
F0.010283
sS'survey'
p124
F0.012397999999999999
sS'spectrum charter communications reaffirms'
p125
F0.023129
sS'broad audience'
p126
F0.015636000000000001
sS'data profiling'
p127
F0.016631
sS'without regard'
p128
F0.010423
sS'duty'
p129
F0.0089099999999999995
sS'major'
p130
F0.0080330000000000002
sS'relevant'
p131
F0.017045000000000001
sS'classification'
p132
F0.010232
sS'8+'
p133
F0.038733999999999998
sS'sas spss alteryx'
p134
F0.024396999999999999
sS'manage'
p135
F0.0052509999999999996
sS'testing cross-validation'
p136
F0.024396999999999999
sS'number'
p137
F0.0097219999999999997
sS'causal inference'
p138
F0.036630999999999997
sS'thought leadership'
p139
F0.011873999999999999
sS'determine'
p140
F0.0092219999999999993
sS'linux'
p141
F0.0099590000000000008
sS'presentation skill'
p142
F0.0099129999999999999
sS'select'
p143
F0.011257
sS'speak'
p144
F0.013820000000000001
sS'expert-level skill'
p145
F0.024396999999999999
sS'use'
p146
F0.0033800000000000002
sS'source'
p147
F0.0070619999999999997
sS'leading'
p148
F0.0044780000000000002
sS'support'
p149
F0.0042779999999999997
sS'two'
p150
F0.0092219999999999993
sS'disability'
p151
F0.0071110000000000001
sS'basic understanding'
p152
F0.013469999999999999
sS'advanced analytics'
p153
F0.0073220000000000004
sS'utilizing'
p154
F0.0093710000000000009
sS'type'
p155
F0.0083199999999999993
sS'theoretical'
p156
F0.014276
sS'duties'
p157
F0.0099900000000000006
sS'schema'
p158
F0.015636000000000001
sS'text mining'
p159
F0.011681
sS'operations-research background'
p160
F0.024396999999999999
sS'significant experience'
p161
F0.014598
sS'data stored'
p162
F0.020962999999999999
sS'tool'
p163
F0.0067679999999999997
sS'employee'
p164
F0.0055999999999999999
sS'understand'
p165
F0.0044510000000000001
sS'external'
p166
F0.0072309999999999996
sS'relational database'
p167
F0.015678999999999998
sS'eg holdout cross-validation'
p168
F0.024396999999999999
sS'pre-processing'
p169
F0.024396999999999999
sS'present'
p170
F0.0071549999999999999
sS'database catalog'
p171
F0.024396999999999999
sS'expert-level logical'
p172
F0.024396999999999999
sS'causality treatment'
p173
F0.024396999999999999
sS'work'
p174
F0.001088
sS'data architecture'
p175
F0.011735000000000001
sS'technical'
p176
F0.0029710000000000001
sS'diverse'
p177
F0.0061040000000000001
sS'r'
F0.0046959999999999997
sS'data management'
p178
F0.0084880000000000008
sS'learn'
p179
F0.0059509999999999997
sS'meet'
p180
F0.011852
sS'problem'
p181
F0.0043249999999999999
sS'2+'
p182
F0.01753
sS'race color'
p183
F0.015452
sS'national origin'
p184
F0.014666999999999999
sS'process'
p185
F0.003163
sS'metric'
p186
F0.0078320000000000004
sS'spectrum'
p187
F0.015636000000000001
sS"master's degree"
p188
F0.0069899999999999997
sS'equal opportunity employer'
p189
F0.011709000000000001
sS'current unemployment status'
p190
F0.069388000000000005
sS'statistical analysis'
p191
F0.0061630000000000001
sS'follow-up'
p192
F0.015195
sS'need'
p193
F0.0033609999999999998
sS'teradata sql udfs interpreting'
p194
F0.024396999999999999
sS'regression'
p195
F0.010588
sS'present finding suggested action'
p196
F0.024396999999999999
sS'multicollinearity'
p197
F0.024396999999999999
sS'education'
p198
F0.0051070000000000004
sS'varied'
p199
F0.013518000000000001
sS'variety'
p200
F0.012381
sS'perform'
p201
F0.016687
sS'tailoring'
p202
F0.020962999999999999
sS'responsible'
p203
F0.011545
sS'able'
p204
F0.004836
sS'hadoop'
p205
F0.012120000000000001
sS'minimum qualification'
p206
F0.015195
sS'communicate result'
p207
F0.011989
sS'confidence interval hypothesis testing'
p208
F0.024396999999999999
sS'responsibilities'
p209
F0.0038809999999999999
sS'complex'
p210
F0.0049519999999999998
sS'role'
p211
F0.0032499999999999999
sS'finding'
p212
F0.013689
sS'nyc'
p213
F0.015636000000000001
sS'effectiveness'
p214
F0.0092099999999999994
sS'corporate'
p215
F0.0080079999999999995
sS'used'
p216
F0.0065620000000000001
sS'assignment'
p217
F0.0098379999999999995
sS'data warehouse'
p218
F0.010495000000000001
sS'working conditions'
p219
F0.01753
sS'business process'
p220
F0.0086660000000000001
sS'business-intelligence data'
p221
F0.024396999999999999
sS'plan'
p222
F0.011886000000000001
sS'fcc unit 01187 -'
p223
F0.024396999999999999
sS'sql'
p224
F0.0069499999999999996
sS'teach others'
p225
F0.018315999999999999
sS'expand'
p226
F0.011304
sS'applicant'
p227
F0.0078949999999999992
sS'computer science mathematics statistic'
p228
F0.020482
sS'data used'
p229
F0.014097
sS'algorithm'
p230
F0.011650000000000001
sS'database'
p231
F0.0092230000000000003
sS'skills abilities'
p232
F0.033007000000000002
sS'invest'
p233
F0.013377
sS'age'
p234
F0.011076000000000001
sS'required'
p235
F0.0090830000000000008
sS'well'
p236
F0.0036930000000000001
sS'sale'
p237
F0.0078399999999999997
sS'analysis'
p238
F0.0051209999999999997
sS'actionable'
p239
F0.0088990000000000007
sS'command'
p240
F0.013377
sS'time'
p241
F0.0047419999999999997
sS'spark'
p242
F0.0076429999999999996
sS'professional'
p243
F0.0055030000000000001
sS'model'
p244
F0.0062249999999999996
sS'validation'
p245
F0.0089879999999999995
sS'text analysis'
p246
F0.017898000000000001
sS'quantitatively-focus field'
p247
F0.024396999999999999
sS'equal opportunity'
p248
F0.0114
sS'travel'
p249
F0.0071240000000000001
s.