(dp1
S'hartford ct wellesley'
p2
F0.028013
sS'healthcare industry'
p3
F0.019581000000000001
sS'36441br'
p4
F0.037777999999999999
sS'benefit eligibility may vary'
p5
F0.017354999999999999
sS'demonstrated ability'
p6
F0.011606
sS'existing'
p7
F0.0092669999999999992
sS'recruit select'
p8
F0.017311
sS'manager'
p9
F0.0088179999999999994
sS'eeo statement'
p10
F0.019656
sS'wide range'
p11
F0.012442999999999999
sS'ct-hartford'
p12
F0.050372
sS'statistical'
p13
F0.0067939999999999997
sS'participate'
p14
F0.010330000000000001
sS'travel required'
p15
F0.019224999999999999
sS'integrity'
p16
F0.011833
sS'difference'
p17
F0.010997
sS'disability'
p18
F0.010114
sS'exchange complex'
p19
F0.026048999999999999
sS'predictive model'
p20
F0.021076000000000001
sS'providing solution'
p21
F0.018301999999999999
sS'multiple data source'
p22
F0.033855000000000003
sS'integrate'
p23
F0.011655
sS'live healthier life'
p24
F0.017010000000000001
sS'presentation'
p25
F0.0085009999999999999
sS'reporting tool solves complex'
p26
F0.027543999999999999
sS'0 -'
p27
F0.023297999999999999
sS'cutting-edge hadoop parallel-processing environment'
p28
F0.027543999999999999
sS'solution interacts'
p29
F0.023472
sS'professional'
p30
F0.0078259999999999996
sS'explore examine'
p31
F0.026048999999999999
sS'complex business problem utilizing advanced statistical technique'
p32
F0.021975999999999999
sS'supervisory'
p33
F0.020390999999999999
sS'developing solution'
p34
F0.015847
sS'part'
p35
F0.0060790000000000002
sS'equal opportunity affirmative action employer'
p36
F0.025533
sS'programming skill'
p37
F0.01359
sS'value growth achievement'
p38
F0.017446
sS'develop woman people'
p39
F0.017311
sS'empower people'
p40
F0.016538000000000001
sS'prospective constituent'
p41
F0.025742000000000001
sS'related experience'
p42
F0.013551000000000001
sS'across'
p43
F0.0049670000000000001
sS'roadblock'
p44
F0.021496000000000001
sS'excellence'
p45
F0.010558
sS'masters degree'
p46
F0.010248
sS'analytical'
p47
F0.0060540000000000004
sS'data analytics'
p48
F0.019730999999999999
sS'recommend solution'
p49
F0.018471999999999999
sS'globe'
p50
F0.010848999999999999
sS'committed'
p51
F0.0072220000000000001
sS'related'
p52
F0.0061799999999999997
sS'big data technology'
p53
F0.012458
sS'analytics'
p54
F0.0040759999999999998
sS'full time'
p55
F0.013971000000000001
sS'result'
p56
F0.011481999999999999
sS'year'
p57
F0.0089440000000000006
sS'position click'
p58
F0.017179
sS'higher education'
p59
F0.024039999999999999
sS'receive consideration'
p60
F0.0086879999999999995
sS'lead'
p61
F0.005372
sS'collaborates'
p62
F0.016284
sS'non-technical client'
p63
F0.019293999999999999
sS'review'
p64
F0.0098910000000000005
sS'req'
p65
F0.022374999999999999
sS'currently seeking asenior data scientist'
p66
F0.037777999999999999
sS'employment regardless'
p67
F0.017179
sS'written'
p68
F0.010736000000000001
sS'large datasets'
p69
F0.015421000000000001
sS'business partner'
p70
F0.024826999999999998
sS'position summary'
p71
F0.012913000000000001
sS'real time'
p72
F0.015751999999999999
sS'programming language'
p73
F0.0096539999999999994
sS'full'
p74
F0.011544
sS'ability'
p75
F0.0025240000000000002
sS'company built'
p76
F0.017354999999999999
sS'position'
p77
F0.0043680000000000004
sS'job'
p78
F0.0052909999999999997
sS'focused'
p79
F0.009783
sS'broad knowledge'
p80
F0.021062000000000001
sS'strong'
p81
F0.0045079999999999999
sS'come'
p82
F0.011094
sS'improve'
p83
F0.013382
sS'primary location'
p84
F0.013532000000000001
sS'interpret large volume'
p85
F0.024691999999999999
sS'communicate technical idea'
p86
F0.019581000000000001
sS'industry'
p87
F0.0050569999999999999
sS'potential future outcome'
p88
F0.020132000000000001
sS'experience'
p89
F0.00249
sS'qualified applicant'
p90
F0.0081700000000000002
sS'plus'
p91
F0.0068230000000000001
sS'workplace'
p92
F0.0092160000000000002
sS'external peer'
p93
F0.018770999999999999
sS"aetna's data science team"
p94
F0.027120999999999999
sS'structured'
p95
F0.010685999999999999
sS'within'
p96
F0.0053359999999999996
sS'community'
p97
F0.0080309999999999999
sS'performance metric'
p98
F0.018193000000000001
sS'senior data scientist'
p99
F0.013726
sS'fundamental components'
p100
F0.017311
sS'posting job title senior data scientist'
p101
F0.031616999999999999
sS'various form'
p102
F0.021975999999999999
sS'aetna continues'
p103
F0.020480999999999999
sS'use'
p104
F0.0096139999999999993
sS'python r'
p105
F0.014099
sS'quality'
p106
F0.0074339999999999996
sS'area'
p107
F0.0060369999999999998
sS'opportunity'
p108
F0.0044590000000000003
sS'participates'
p109
F0.015720999999999999
sS'modeling technique'
p110
F0.015783999999999999
sS'world-class data science'
p111
F0.020480999999999999
sS'personal characteristic'
p112
F0.017222999999999999
sS'take affirmative action'
p113
F0.017094000000000002
sS'consultation'
p114
F0.017930000000000001
sS'advanced analytics'
p115
F0.010414
sS'progressively complex'
p116
F0.023130000000000001
sS'care'
p117
F0.010880000000000001
sS'determines analytical approach'
p118
F0.020303000000000002
sS'excellence together'
p119
F0.017311
sS'diversity'
p120
F0.01023
sS'tool'
p121
F0.0032079999999999999
sS're-shape healthcare'
p122
F0.017311
sS'statistical model'
p123
F0.012533000000000001
sS'delivery'
p124
F0.0088050000000000003
sS'building analytically-based solution'
p125
F0.025186
sS'engage'
p126
F0.011756000000000001
sS'understand'
p127
F0.0063309999999999998
sS'external'
p128
F0.010284
sS'analyze large data set'
p129
F0.018357999999999999
sS'customer'
p130
F0.0077679999999999997
sS'10'
p131
F0.012640999999999999
sS'benefit associated'
p132
F0.017222999999999999
sS'language'
p133
F0.0087329999999999994
sS'culture'
p134
F0.0090959999999999999
sS'statistical analysis'
p135
F0.0087650000000000002
sS'optimize health outcome'
p136
F0.020480999999999999
sS'work'
p137
F0.0015479999999999999
sS'us'
p138
F0.0074970000000000002
sS'machine learning'
p139
F0.0048180000000000002
sS'color veteran'
p140
F0.017311
sS'individual'
p141
F0.0070689999999999998
sS'delivering strategically-impactful product'
p142
F0.024247000000000001
sS'verbal form'
p143
F0.019363999999999999
sS'report'
p144
F0.0061910000000000003
sS'problem'
p145
F0.012300999999999999
sS'voice'
p146
F0.014076999999999999
sS'inspired'
p147
F0.015720999999999999
sS'performs analysis'
p148
F0.019224999999999999
sS'new york ny location'
p149
F0.024464
sS'investigate problem detect pattern'
p150
F0.02086
sS'locations'
p151
F0.018471999999999999
sS'heard'
p152
F0.016847000000000001
sS'potential telework position'
p153
F0.023130000000000001
sS'benefit generation'
p154
F0.017311
sS'sas'
p155
F0.0097909999999999994
sS'development validation'
p156
F0.021166000000000001
sS'education'
p157
F0.0072639999999999996
sS'occur'
p158
F0.021166000000000001
sS'information'
p159
F0.010267
sS'develop'
p160
F0.003467
sS'goal'
p161
F0.0079600000000000001
sS'leveraging cutting edge technology'
p162
F0.020390999999999999
sS'strong knowledge'
p163
F0.027178999999999998
sS'make'
p164
F0.0056309999999999997
sS'predictive modeling'
p165
F0.020923000000000001
sS'percent'
p166
F0.018301999999999999
sS'hadoop'
p167
F0.0086180000000000007
sS'member'
p168
F0.0086499999999999997
sS'internal'
p169
F0.021367000000000001
sS'5'
F0.013887999999999999
sS'build'
p170
F0.0043350000000000003
sS'employment type regular career band description'
p171
F0.018138999999999999
sS'unstructured data'
p172
F0.012253999999999999
sS'capture data'
p173
F0.019809
sS'status'
p174
F0.010044000000000001
sS'multiple'
p175
F0.0085810000000000001
sS'large data set'
p176
F0.011436
sS'understand context generate insight'
p177
F0.020480999999999999
sS'healthcare'
p178
F0.010203
sS'consumer experience increase efficiency'
p179
F0.020480999999999999
sS'affordability'
p180
F0.016969000000000001
sS'mathematical analysis'
p181
F0.018530000000000001
sS'react'
p182
F0.017399999999999999
sS'develops'
p183
F0.021554
sS'sql'
p184
F0.0049420000000000002
sS'evaluate scenario'
p185
F0.018471999999999999
sS'america'
p186
F0.014697999999999999
sS'data'
p187
F0.0043379999999999998
sS'specialization'
p188
F0.021610999999999998
sS'job description'
p189
F0.008992
sS'prevents problem'
p190
F0.028013
sS'organization'
p191
F0.009979
sS'background experience'
p192
F0.017680999999999999
sS'algorithm'
p193
F0.016567999999999999
sS'anticipates'
p194
F0.022374999999999999
sS'aetna'
p195
F0.051931999999999999
sS'definitely'
p196
F0.029815000000000001
sS'solve'
p197
F0.0088109999999999994
sS'time'
p198
F0.006744
sS'additional job'
p199
F0.017135999999999998
sS'strongly preferred'
p200
F0.016319
s.