(dp1
S'0'
F0.033596000000000001
sS'united states-connecticut-hartford'
p2
F0.045971999999999999
sS'explore new data source'
p3
F0.040709000000000002
sS'job posting mar 30'
p4
F0.045971999999999999
sS'approximately 24100m'
p5
F0.052795000000000002
sS'job type'
p6
F0.024129999999999999
sS'identify'
p7
F0.0085550000000000001
sS'sexual orientation gender identity'
p8
F0.022610000000000002
sS'monitor'
p9
F0.017885999999999999
sS'exception could'
p10
F0.048489999999999998
sS'research agenda'
p11
F0.048489999999999998
sS'technique'
p12
F0.0084220000000000007
sS'disability'
p13
F0.014134000000000001
sS'analytic'
p14
F0.011146
sS'adoption'
p15
F0.022561999999999999
sS'enhance'
p16
F0.016219000000000001
sS'employee'
p17
F0.011131
sS'extensive'
p18
F0.020303999999999999
sS'experiments sas'
p19
F0.048489999999999998
sS'applied'
p20
F0.015353
sS'risk'
p21
F0.014220999999999999
sS'internet'
p22
F0.020237999999999999
sS'overall'
p23
F0.030469
sS'department'
p24
F0.014296
sS'report'
p25
F0.017302999999999999
sS'level'
p26
F0.018331
sS'direct mail television'
p27
F0.045971999999999999
sS'7 59'
p28
F0.052795000000000002
sS'statistic economics mathematics'
p29
F0.038494
sS'analytical'
p30
F0.016922
sS'including'
p31
F0.0052550000000000001
sS'predictive'
p32
F0.014461999999999999
sS'quantitative discipline'
p33
F0.019127999999999999
sS'analytics'
p34
F0.0056969999999999998
sS'competitive advantage'
p35
F0.022707000000000001
sS'design'
p36
F0.010277
sS'result'
p37
F0.024069
sS'insurance'
p38
F0.022282
sS'status exempt'
p39
F0.045971999999999999
sS'consumer markets'
p40
F0.044185000000000002
sS'profitability'
p41
F0.025978999999999999
sS'research'
p42
F0.007332
sS'strongly preferred although'
p43
F0.048489999999999998
sS'conduct'
p44
F0.016150000000000001
sS'cause'
p45
F0.026868
sS'across'
p46
F0.0069420000000000003
sS'model'
p47
F0.018558999999999999
sS'segmentation'
p48
F0.022102
sS'2 year'
p49
F0.032611000000000001
sS'business'
p50
F0.021333999999999999
sS"bachelor's degree"
p51
F0.011139
sS'marketing'
p52
F0.043138999999999997
sS'deliver'
p53
F0.0084709999999999994
sS'standard'
p54
F0.011395000000000001
sS'job'
p55
F0.014788000000000001
sS'statistical modeling'
p56
F0.015353
sS'end-to-end'
p57
F0.020507000000000001
sS'modeling'
p58
F0.010484
sS'generate'
p59
F0.018728999999999999
sS'improve'
p60
F0.0093500000000000007
sS'travel yes 10'
p61
F0.031669999999999997
sS'training'
p62
F0.012359999999999999
sS'primary location'
p63
F0.018912000000000002
sS'acquisition'
p64
F0.022856000000000001
sS'33'
p65
F0.044185000000000002
sS'economics'
p66
F0.019764
sS'lifetime value'
p67
F0.033056000000000002
sS'life cycle'
p68
F0.022707000000000001
sS'ensure'
p69
F0.010416
sS'advertising'
p70
F0.020576000000000001
sS'action'
p71
F0.017045999999999999
sS'expression'
p72
F0.027904999999999999
sS'key'
p73
F0.0099539999999999993
sS'data science'
p74
F0.007365
sS'appropriate'
p75
F0.01286
sS'determine'
p76
F0.018329000000000002
sS'manage adhoc analysis'
p77
F0.048489999999999998
sS'use'
p78
F0.006718
sS'targeting'
p79
F0.023713999999999999
sS'area'
p80
F0.0084360000000000008
sS'leading'
p81
F0.0088999999999999999
sS'support'
p82
F0.017007000000000001
sS'optimize'
p83
F0.030827
sS'overtime'
p84
F0.029291000000000001
sS'pm'
p85
F0.031078000000000001
sS'enable'
p86
F0.014036
sS'relationship'
p87
F0.012961
sS'16 year'
p88
F0.040709000000000002
sS"bachelor's degree 16 year"
p89
F0.042798999999999997
sS'delivery'
p90
F0.012305
sS'equal opportunity employer females minorities veterans'
p91
F0.048489999999999998
sS'marketing spend'
p92
F0.069684999999999997
sS'experiments doe'
p93
F0.048489999999999998
sS'effort'
p94
F0.012472
sS'2017'
p95
F0.023217000000000002
sS'customer'
p96
F0.0054279999999999997
sS'made'
p97
F0.018780000000000002
sS'project'
p98
F0.0050289999999999996
sS'optimization'
p99
F0.012930000000000001
sS'ongoing'
p100
F0.017644
sS'business outcome'
p101
F0.027904999999999999
sS'annual'
p102
F0.023111
sS'metric'
p103
F0.015566
sS'influence'
p104
F0.016167000000000001
sS'education'
p105
F0.010151
sS'develop'
p106
F0.0096900000000000007
sS'provide'
p107
F0.0063140000000000002
sS'predictive modeling'
p108
F0.014619999999999999
sS'entry level'
p109
F0.033320000000000002
sS'methodology'
p110
F0.010907999999999999
sS'book'
p111
F0.029729999999999999
sS'test'
p112
F0.024177000000000001
sS'performance'
p113
F0.0090779999999999993
sS'channel'
p114
F0.020173
sS'development'
p115
F0.0083350000000000004
sS'customer segmentation'
p116
F0.027904999999999999
sS'description'
p117
F0.01285
sS'schedule full-time'
p118
F0.02197
sS'track'
p119
F0.020140000000000002
sS'customer retention'
p120
F0.033056000000000002
sS'loyalty'
p121
F0.028622999999999999
sS'regular'
p122
F0.021350999999999998
sS'sql'
p123
F0.0069069999999999999
sS'monitoring'
p124
F0.017451999999999999
sS'remote worker option'
p125
F0.045971999999999999
sS'opportunity'
p126
F0.0062310000000000004
sS'grow'
p127
F0.014036
sS'individual'
p128
F0.0098790000000000006
sS'shift day job'
p129
F0.027574999999999999
sS'deliverable'
p130
F0.018450999999999999
sS'status'
p131
F0.014036
sS'time'
p132
F0.0094249999999999994
sS'coordinate'
p133
F0.018912000000000002
sS'professional'
p134
F0.010937000000000001
sS'effect'
p135
F0.028135
s.