(dp1
S'experiencesalary 100 000-130 000location modesto californiadoes'
p2
F0.16037799999999999
sS'campaign'
p3
F0.066091999999999998
sS'metric'
p4
F0.094572000000000003
sS'bs'
p5
F0.057049999999999997
sS'6 year'
p6
F0.137077
sS'design'
p7
F0.015609
sS'statistic'
p8
F0.034542000000000003
sS'mathematical modeling'
p9
F0.089412000000000005
sS'r python sawtooth latent gold'
p10
F0.14729999999999999
sS'statistics'
p11
F0.049216999999999997
sS'monitoring'
p12
F0.053013999999999999
sS'bs ms'
p13
F0.086193000000000006
sS'data'
p14
F0.018414
sS'research'
p15
F0.022273000000000001
sS'application'
p16
F0.020590000000000001
sS'computer science'
p17
F0.029361999999999999
sS'phd'
p18
F0.060588000000000003
sS'digital'
p19
F0.165714
sS'minitab s+ spss sas'
p20
F0.14729999999999999
sS'quantitative discipline'
p21
F0.058104999999999997
sS'pm'
p22
F0.094407000000000005
sS'4 year'
p23
F0.121392
sS'offer'
p24
F0.030351
sS'eg'
p25
F0.037406000000000002
sS'tool'
p26
F0.013620999999999999
sS'reporting'
p27
F0.038823000000000003
sS'data scientist'
p28
F0.012465
sS'includes'
p29
F0.046547999999999999
sS'dashboarding kpis'
p30
F0.14729999999999999
sS'facebook'
p31
F0.087734000000000006
sS'sql'
p32
F0.020982000000000001
sS'unscrambler google analytics'
p33
F0.14729999999999999
sS'marketing'
p34
F0.032760999999999998
sS'insights'
p35
F0.084094000000000002
sS'applied mathematics physic engineering economics'
p36
F0.14729999999999999
sS'data collection'
p37
F0.063588000000000006
sS'data visualization'
p38
F0.044090999999999998
sS'8 year'
p39
F0.12717700000000001
sS'experience'
p40
F0.014097
sS'ms'
p41
F0.043542999999999998
sS'sponsorship applyhttp wwwallinanalyticscom application'
p42
F0.14729999999999999
s.