(dp1
S'preferred qualifications'
p2
F0.0069160000000000003
sS'saying'
p3
F0.019084
sS'code'
p4
F0.0065550000000000001
sS'next generation'
p5
F0.009306
sS'team player'
p6
F0.0098320000000000005
sS'assistive technology'
p7
F0.050205
sS'manages'
p8
F0.010311000000000001
sS'including'
p9
F0.0027200000000000002
sS'aspect'
p10
F0.0081729999999999997
sS'committed'
p11
F0.0052249999999999996
sS'related field'
p12
F0.0053540000000000003
sS'skill'
p13
F0.005934
sS'high-level'
p14
F0.015091
sS'help'
p15
F0.0063839999999999999
sS'access'
p16
F0.013462
sS'group'
p17
F0.0057080000000000004
sS'knowledge'
p18
F0.014779
sS'big data'
p19
F0.010014
sS'solving'
p20
F0.0086169999999999997
sS'disability'
p21
F0.029267999999999999
sS'state'
p22
F0.016548
sS'predictive model'
p23
F0.0076239999999999997
sS'platform'
p24
F0.0044190000000000002
sS'employee'
p25
F0.0057619999999999998
sS'relational database'
p26
F0.0080660000000000003
sS'grow'
p27
F0.014533000000000001
sS'include'
p28
F0.0060070000000000002
sS'achieve'
p29
F0.015233999999999999
sS'r matlab'
p30
F0.014009000000000001
sS'colleague'
p31
F0.0093299999999999998
sS'someone'
p32
F0.0097490000000000007
sS'exceptional'
p33
F0.0084869999999999998
sS'python'
p34
F0.0048019999999999998
sS'familiar'
p35
F0.010359999999999999
sS'scalable'
p36
F0.0088140000000000007
sS'develop new'
p37
F0.010511
sS'datasets'
p38
F0.019310999999999998
sS'background'
p39
F0.0058950000000000001
sS'world'
p40
F0.0048700000000000002
sS'term'
p41
F0.011013
sS'solution'
p42
F0.0022859999999999998
sS'senior data science'
p43
F0.043139999999999998
sS'benefit'
p44
F0.013419
sS'race'
p45
F0.014274999999999999
sS'mode'
p46
F0.035397999999999999
sS'sql'
p47
F0.0035760000000000002
sS'team'
p48
F0.0024580000000000001
sS'track record'
p49
F0.010376
sS'output'
p50
F0.021635000000000001
sS'strong analytical'
p51
F0.010914
sS'mean'
p52
F0.010344000000000001
sS'accessible'
p53
F0.054683000000000002
sS'requirement'
p54
F0.0081239999999999993
sS'everyone'
p55
F0.02341
sS'adobe'
p56
F0.097125000000000003
sS'operations research econometrics'
p57
F0.025103
sS'people'
p58
F0.016642000000000001
sS'discover'
p59
F0.010933
sS'used'
p60
F0.027008999999999998
sS'design'
p61
F0.0053200000000000001
sS'content accessibility guidelines v20 exposure'
p62
F0.050205
sS'implemented'
p63
F0.013448999999999999
sS'excellent communication'
p64
F0.013860000000000001
sS'best'
p65
F0.0055539999999999999
sS'creating'
p66
F0.0065199999999999998
sS'optimization internals'
p67
F0.025103
sS'federal'
p68
F0.024434999999999998
sS'proficient'
p69
F0.0091680000000000008
sS'familiarity'
p70
F0.018135999999999999
sS'looking'
p71
F0.0087200000000000003
sS'enough'
p72
F0.014689000000000001
sS'various'
p73
F0.0055570000000000003
sS'international'
p74
F0.02341
sS'ideal candidate'
p75
F0.0079170000000000004
sS'youll'
p76
F0.010410000000000001
sS'method'
p77
F0.0044970000000000001
sS"adobe's suite"
p78
F0.025103
sS'programming language'
p79
F0.0069849999999999999
sS'welcome'
p80
F0.013046
sS'ability'
p81
F0.0036519999999999999
sS'combinatorial optimization'
p82
F0.025103
sS'leveraging'
p83
F0.0081480000000000007
sS'flow freely'
p84
F0.022155999999999999
sS'accessibility evaluation'
p85
F0.050205
sS'understanding'
p86
F0.0082640000000000005
sS'succeed'
p87
F0.012130999999999999
sS'mentoring'
p88
F0.0096430000000000005
sS'architectural'
p89
F0.014388
sS'others'
p90
F0.0065300000000000002
sS'modeling'
p91
F0.016282000000000001
sS'strong'
p92
F0.0065230000000000002
sS'change'
p93
F0.0058580000000000004
sS'improve'
p94
F0.0048409999999999998
sS'experimental design anova statistical inference'
p95
F0.025103
sS'c'
F0.011781
sS'writing code'
p96
F0.016395
sS'would'
p97
F0.0087539999999999996
sS'technical'
p98
F0.0030569999999999998
sS'advanced statistical modeling'
p99
F0.021569999999999999
sS'current'
p100
F0.013601
sS'equal'
p101
F0.031985
sS'experience'
p102
F0.0036029999999999999
sS'example'
p103
F0.010063000000000001
sS'magazine'
p104
F0.016395
sS'base'
p105
F0.025870000000000001
sS'plus'
p106
F0.0049360000000000003
sS'advertising'
p107
F0.010652
sS'encourage'
p108
F0.011730000000000001
sS'focused'
p109
F0.014156
sS'w3cs web'
p110
F0.050205
sS'software'
p111
F0.013126000000000001
sS'screen reader'
p112
F0.050205
sS'technique'
p113
F0.0087200000000000003
sS'regardless'
p114
F0.013958999999999999
sS'statistical modeling'
p115
F0.015896
sS'large-scale'
p116
F0.021197000000000001
sS'gender sexual orientation gender identity disability'
p117
F0.022155999999999999
sS'veteran status'
p118
F0.010108000000000001
sS'large-scale data'
p119
F0.018624000000000002
sS'ms degree'
p120
F0.012524
sS'one'
p121
F0.0074279999999999997
sS'solving problem'
p122
F0.013764
sS'data mining'
p123
F0.0060239999999999998
sS'throughout'
p124
F0.0084410000000000006
sS'career'
p125
F0.0067739999999999996
sS'engineer'
p126
F0.010947
sS'confidence'
p127
F0.012555999999999999
sS'youre looking'
p128
F0.019341000000000001
sS'working'
p129
F0.0069750000000000003
sS'believe everyone'
p130
F0.040533
sS'career adobes'
p131
F0.022873999999999999
sS'feedback'
p132
F0.011115
sS'work environment'
p133
F0.0099600000000000001
sS'life'
p134
F0.0053160000000000004
sS'medium'
p135
F0.0082909999999999998
sS'diversity'
p136
F0.0074009999999999996
sS'relationship'
p137
F0.0067099999999999998
sS'business problem'
p138
F0.0082400000000000008
sS'tool'
p139
F0.0069639999999999997
sS'problem solving ability'
p140
F0.013717
sS'understand'
p141
F0.0045799999999999999
sS'input'
p142
F0.023359999999999999
sS'companies list'
p143
F0.018624000000000002
sS'hire'
p144
F0.019310999999999998
sS'following accessibility skill'
p145
F0.050205
sS'look'
p146
F0.020493999999999998
sS'python java'
p147
F0.013448999999999999
sS'challenge'
p148
F0.006058
sS'computer science statistics electrical engineering applied math'
p149
F0.025103
sS'writing production-quality object-oriented'
p150
F0.025103
sS'machine learning'
p151
F0.010456999999999999
sS'production system'
p152
F0.013811
sS'optimization'
p153
F0.013388000000000001
sS'ongoing'
p154
F0.0091339999999999998
sS'involved'
p155
F0.010893999999999999
sS'product management'
p156
F0.0096290000000000004
sS'making'
p157
F0.032525999999999999
sS'problem'
p158
F0.00445
sS'display'
p159
F0.013717
sS'address'
p160
F0.007724
sS'unique check-in approach'
p161
F0.022155999999999999
sS'compliance'
p162
F0.019078999999999999
sS'process'
p163
F0.0032539999999999999
sS'novel'
p164
F0.011938000000000001
sS'equal opportunity employer'
p165
F0.0060239999999999998
sS'engineering'
p166
F0.013025999999999999
sS'collaborate'
p167
F0.0054770000000000001
sS'reviewing'
p168
F0.016617
sS'need'
p169
F0.0069170000000000004
sS'work'
p170
F0.0011199999999999999
sS'technology'
p171
F0.0093329999999999993
sS'concept'
p172
F0.006267
sS'develop'
p173
F0.0050159999999999996
sS'surrounded'
p174
F0.020265999999999999
sS'efficient'
p175
F0.0092709999999999997
sS'-'
F0.0096220000000000003
sS'feature'
p176
F0.0083000000000000001
sS'also'
p177
F0.005326
sS'setting'
p178
F0.0090449999999999992
sS'role'
p179
F0.0066880000000000004
sS'online advertising'
p180
F0.015899
sS'machine-learning'
p181
F0.017113
sS'mathematics'
p182
F0.0094269999999999996
sS'many'
p183
F0.0080499999999999999
sS'workplace'
p184
F0.0066680000000000003
sS'development'
p185
F0.0043150000000000003
sS'strong academic'
p186
F0.015993
sS'product'
p187
F0.0072839999999999997
sS'data mining technique'
p188
F0.013363999999999999
sS'deep understanding'
p189
F0.0099450000000000007
sS'immersed'
p190
F0.020265999999999999
sS'numerical'
p191
F0.013323
sS'multivariate testing'
p192
F0.015993
sS'applied statistic machine learning data mining'
p193
F0.023799000000000001
sS'phd'
p194
F0.0051630000000000001
sS'helping'
p195
F0.0069280000000000001
sS'data driven'
p196
F0.011013
sS'produce production-quality software'
p197
F0.025103
sS'scikit learn'
p198
F0.025103
sS'hands-on'
p199
F0.0089910000000000007
sS'implement'
p200
F0.0091009999999999997
sS'building'
p201
F0.004189
sS'recognized'
p202
F0.0080579999999999992
sS'hadoop mapreduce spark'
p203
F0.020265999999999999
sS'algorithm'
p204
F0.011986999999999999
sS"adobe's display"
p205
F0.027331000000000001
sS'well'
p206
F0.0038
sS'software development'
p207
F0.0078120000000000004
sS'place'
p208
F0.0090779999999999993
sS'quantitative'
p209
F0.0059690000000000003
sS'validation'
p210
F0.018495999999999999
s.