(dp1
S'operations'
p2
F0.017835
sS'concept'
p3
F0.006149
sS'help'
p4
F0.0031319999999999998
sS'office'
p5
F0.0061079999999999997
sS'prevent fraud'
p6
F0.024627
sS'in-house'
p7
F0.015980999999999999
sS'global'
p8
F0.0054380000000000001
sS'mission'
p9
F0.0056769999999999998
sS'chargebacks'
p10
F0.026814000000000001
sS'motivation'
p11
F0.016302000000000001
sS'proudly committed'
p12
F0.026814000000000001
sS'wide range'
p13
F0.0088319999999999996
sS'sexual orientation gender identity'
p14
F0.011483
sS'skill'
p15
F0.002911
sS'top-notch'
p16
F0.019550000000000001
sS'inspire'
p17
F0.012874999999999999
sS'make sure'
p18
F0.014668
sS'glimpse'
p19
F0.026814000000000001
sS'knowledge'
p20
F0.0028999999999999998
sS'mountain view'
p21
F0.017876
sS'disability'
p22
F0.0071789999999999996
sS'amazing'
p23
F0.01406
sS'small team'
p24
F0.01269
sS'improvement'
p25
F0.007326
sS'environment'
p26
F0.0036519999999999999
sS'platform'
p27
F0.0043350000000000003
sS'r python'
p28
F0.0099609999999999994
sS'race religion color national origin'
p29
F0.016417000000000001
sS'policy'
p30
F0.0082640000000000005
sS'extensive'
p31
F0.010312
sS'presentation'
p32
F0.0060340000000000003
sS'upwork'
p33
F0.080442
sS'take'
p34
F0.0065059999999999996
sS'collaborate'
p35
F0.0053740000000000003
sS'risk'
p36
F0.043334999999999999
sS'combination'
p37
F0.0087379999999999992
sS'get'
p38
F0.0071349999999999998
sS'python'
p39
F0.004712
sS'demonstrated experience'
p40
F0.011738
sS'safe'
p41
F0.015980999999999999
sS'lunch'
p42
F0.01721
sS'fraud'
p43
F0.063996999999999998
sS'every'
p44
F0.0087180000000000001
sS'fast growing'
p45
F0.017364000000000001
sS'world'
p46
F0.014334
sS'really knock'
p47
F0.026814000000000001
sS'desire'
p48
F0.0089280000000000002
sS'loss'
p49
F0.018270999999999999
sS'resource'
p50
F0.006764
sS'exciting new'
p51
F0.017696
sS'gender'
p52
F0.011986
sS'applicable'
p53
F0.010329
sS'unstructured data'
p54
F0.0086969999999999999
sS'experience'
p55
F0.0029459999999999998
sS'benefit'
p56
F0.0065830000000000003
sS'including pregnancy childbirth'
p57
F0.021162
sS'sql'
p58
F0.0070159999999999997
sS'team'
p59
F0.0024120000000000001
sS'enhance'
p60
F0.0082369999999999995
sS'predictive analytics'
p61
F0.016371
sS'enjoy'
p62
F0.010213
sS'requirement'
p63
F0.0039849999999999998
sS'set'
p64
F0.006731
sS'across multiple simultaneous project'
p65
F0.026814000000000001
sS'freelancer work anytime anywhere'
p66
F0.026814000000000001
sS'play'
p67
F0.0084729999999999996
sS'related'
p68
F0.013159000000000001
sS'detection'
p69
F0.01355
sS'analytics'
p70
F0.0028930000000000002
sS'economic'
p71
F0.012584
sS'design'
p72
F0.0026099999999999999
sS'connect'
p73
F0.011558000000000001
sS'year'
p74
F0.0063489999999999996
sS'work happens'
p75
F0.026814000000000001
sS'operation'
p76
F0.0058149999999999999
sS'extract'
p77
F0.0094090000000000007
sS'creating'
p78
F0.0063969999999999999
sS'upwork helping'
p79
F0.026814000000000001
sS'detect'
p80
F0.016660000000000001
sS'momentum together'
p81
F0.026814000000000001
sS'complex data analysis'
p82
F0.020676
sS'quantify'
p83
F0.01406
sS'review'
p84
F0.0070200000000000002
sS'familiarity'
p85
F0.0059309999999999996
sS'fast-paced environment'
p86
F0.011901
sS'critical'
p87
F0.0068690000000000001
sS'passion'
p88
F0.006149
sS'conduct'
p89
F0.0082030000000000002
sS"bachelor's degree"
p90
F0.011315
sS'top freelancing website'
p91
F0.026814000000000001
sS'youll'
p92
F0.030637999999999999
sS'daily'
p93
F0.010593999999999999
sS'impact'
p94
F0.011065
sS'data science team'
p95
F0.0092969999999999997
sS'ability'
p96
F0.0035829999999999998
sS'business'
p97
F0.0043340000000000002
sS'people-first company'
p98
F0.026814000000000001
sS'efficiency'
p99
F0.0093089999999999996
sS'job'
p100
F0.0037550000000000001
sS'vibrant culture'
p101
F0.020676
sS'handling large scale'
p102
F0.026814000000000001
sS'world safest'
p103
F0.026814000000000001
sS'put'
p104
F0.011247999999999999
sS'modeling'
p105
F0.0053249999999999999
sS'along'
p106
F0.0094730000000000005
sS'strong'
p107
F0.0064000000000000003
sS'python php'
p108
F0.021162
sS'optimize'
p109
F0.0078279999999999999
sS'previous experience'
p110
F0.012763
sS'5 year'
p111
F0.0068580000000000004
sS'protect'
p112
F0.013194000000000001
sS'cross functional team'
p113
F0.013743999999999999
sS'data analyst'
p114
F0.010521000000000001
sS'etc'
p115
F0.0090840000000000001
sS'range'
p116
F0.0089720000000000008
sS'succeed'
p117
F0.011901
sS'plus'
p118
F0.0048430000000000001
sS'workplace'
p119
F0.013082999999999999
sS'social'
p120
F0.0088640000000000004
sS'action'
p121
F0.0086569999999999998
sS'protected veteran status'
p122
F0.0080839999999999992
sS'powerpoint'
p123
F0.010486000000000001
sS'first'
p124
F0.0074869999999999997
sS'medical condition'
p125
F0.015339
sS'love'
p126
F0.0084169999999999991
sS'technical specification'
p127
F0.016302000000000001
sS'revenue'
p128
F0.0099159999999999995
sS'shared value'
p129
F0.011507999999999999
sS'recruiting'
p130
F0.011558000000000001
sS'data science'
p131
F0.003741
sS'manage'
p132
F0.015900999999999998
sS'boundless future'
p133
F0.026814000000000001
sS'domain'
p134
F0.0083800000000000003
sS'community'
p135
F0.0057000000000000002
sS'one'
p136
F0.0036440000000000001
sS'retaining'
p137
F0.01303
sS'done'
p138
F0.013070999999999999
sS'san francisco'
p139
F0.013323
sS'ensures'
p140
F0.011317000000000001
sS'eye'
p141
F0.013846000000000001
sS'leverage'
p142
F0.014220999999999999
sS'working'
p143
F0.013686
sS'perk'
p144
F0.016535999999999999
sS'come'
p145
F0.0078750000000000001
sS'create'
p146
F0.0042379999999999996
sS'structured'
p147
F0.0075849999999999997
sS'sock'
p148
F0.026814000000000001
sS'strategy'
p149
F0.0044510000000000001
sS'priority'
p150
F0.0091070000000000005
sS'risk management'
p151
F0.010279
sS'change'
p152
F0.0057470000000000004
sS'way'
p153
F0.0047609999999999996
sS'data collection'
p154
F0.010631
sS'help shape'
p155
F0.015880999999999999
sS'translate'
p156
F0.0080510000000000009
sS'work independently'
p157
F0.0087690000000000008
sS'enforcement'
p158
F0.018723
sS'least one scripting language'
p159
F0.031019000000000001
sS'strong interest'
p160
F0.015422999999999999
sS'successful'
p161
F0.0078750000000000001
sS'company'
p162
F0.0032160000000000001
sS'solid understanding'
p163
F0.010486000000000001
sS'life balance'
p164
F0.015177
sS'immediate'
p165
F0.013110999999999999
sS'site'
p166
F0.0096460000000000001
sS'legally protected'
p167
F0.013152
sS'part'
p168
F0.0086300000000000005
sS'catch'
p169
F0.021162
sS'datasets'
p170
F0.0094730000000000005
sS'join'
p171
F0.004712
sS'effective'
p172
F0.0069909999999999998
sS'fast growing team'
p173
F0.023348000000000001
sS'characteristic'
p174
F0.012133
sS'report dashboard'
p175
F0.017364000000000001
sS'work'
p176
F0.0076899999999999998
sS'value'
p177
F0.005391
sS'upwork youll'
p178
F0.053628000000000002
sS'project'
p179
F0.0025539999999999998
sS'future'
p180
F0.0048040000000000001
sS'fun'
p181
F0.0093589999999999993
sS'3 5 year'
p182
F0.020676
sS'problem'
p183
F0.013096999999999999
sS'providing'
p184
F0.005463
sS'solve challenging'
p185
F0.020254000000000001
sS'home wednesdays daily breakfast'
p186
F0.026814000000000001
sS'making upwork'
p187
F0.026814000000000001
sS'generate'
p188
F0.0095119999999999996
sS'gender expression age'
p189
F0.024627
sS'inclusive'
p190
F0.013194000000000001
sS'well'
p191
F0.007456
sS'quantitative field'
p192
F0.0088739999999999999
sS'optimizing'
p193
F0.010945
sS"master's degree"
p194
F0.0070559999999999998
sS'equal opportunity employer'
p195
F0.0059100000000000003
sS'effectively'
p196
F0.0066509999999999998
sS'bias'
p197
F0.014289
sS'expertise'
p198
F0.0042449999999999996
sS'tool like'
p199
F0.013323
sS'analysis'
p200
F0.0051700000000000001
sS'unix shell scripting'
p201
F0.021162
sS'minimizing loss'
p202
F0.026814000000000001
sS'trusted'
p203
F0.037962999999999997
sS'result'
p204
F0.0040749999999999996
sS'manner'
p205
F0.010363000000000001
sS'develop'
p206
F0.0024610000000000001
sS'built'
p207
F0.0099310000000000006
sS'efficient'
p208
F0.0090959999999999999
sS'make'
p209
F0.0039960000000000004
sS'responsible'
p210
F0.003885
sS'excel'
p211
F0.0087379999999999992
sS'check'
p212
F0.011846000000000001
sS'1'
F0.017059999999999999
sS'responsibilities'
p213
F0.0039179999999999996
sS'role'
p214
F0.0032799999999999999
sS'build'
p215
F0.0061529999999999996
sS'online'
p216
F0.01651
sS'performance'
p217
F0.0046100000000000004
sS'effectiveness'
p218
F0.0092969999999999997
sS'3 year'
p219
F0.014905
sS'tool'
p220
F0.0022769999999999999
sS'opportunity'
p221
F0.0031649999999999998
sS'status'
p222
F0.0071289999999999999
sS'lasting impact'
p223
F0.021736999999999999
sS'product'
p224
F0.0071459999999999996
sS'towards'
p225
F0.011684999999999999
sS'building'
p226
F0.0041099999999999999
sS'manipulate large'
p227
F0.026814000000000001
sS'track'
p228
F0.010229
sS'great opportunity'
p229
F0.014005
sS'reporting'
p230
F0.0064910000000000002
sS'workforce'
p231
F0.011558000000000001
sS'neverdiscriminate based'
p232
F0.026814000000000001
sS'scale'
p233
F0.0070980000000000001
sS'identify opportunity'
p234
F0.022273000000000001
sS'tackle'
p235
F0.013695000000000001
sS'data'
p236
F0.001539
sS'downstream'
p237
F0.018723
sS'exposure'
p238
F0.0096050000000000007
sS'billion'
p239
F0.0093340000000000003
sS'riskat upwork'
p240
F0.026814000000000001
sS'individual'
p241
F0.0050169999999999998
sS'work closely'
p242
F0.0063969999999999999
sS'together'
p243
F0.0086669999999999994
sS'clear'
p244
F0.0086770000000000007
sS'chicago'
p245
F0.013597
sS'statistic'
p246
F0.0057749999999999998
sS'drive'
p247
F0.004052
sS'rule'
p248
F0.013237000000000001
sS'maintain'
p249
F0.0058399999999999997
sS'solve'
p250
F0.006254
sS'fundamental'
p251
F0.011958
sS'professional'
p252
F0.01111
sS'model'
p253
F0.0062839999999999997
sS'diverse'
p254
F0.0061619999999999999
sS'regular in-office happy hour'
p255
F0.026814000000000001
s.