(dp1
S'nlp'
p2
F0.016694305699777503
sS'code'
p3
F0.0088118353103525011
sS'r d'
p4
F0.0022195389830523102
sS'accurate'
p5
F0.015724943662390061
sVinsight
p6
F0.0056273582674326922
sS'competitive'
p7
F0.0095246823917303127
sS'years'
p8
F0.018445857606114797
sS'scientist'
p9
F0.013074277664462354
sS'solutions'
p10
F0.0095826226021552604
sS'adjustment'
p11
F0.027384141271886583
sS'web'
p12
F0.010853737682991341
sS'knowledge'
p13
F0.0033074593829744022
sS'title'
p14
F0.01330952085547378
sS'phd-'
p15
F0.045946201275892148
sS'environment'
p16
F0.0036568083211184974
sS'platform'
p17
F0.012149880871074751
sS'add'
p18
F0.018580995381232153
sS'experiment'
p19
F0.014616520094706579
sS'location'
p20
F0.007520182140826592
sS'mid-stage'
p21
F0.045946201275892148
sS'equity'
p22
F0.040785753561610759
sS'data science'
p23
F0.010059608715175706
sS'2+'
p24
F0.01544971532637154
sS'stocked'
p25
F0.026143207142234181
sS'risk'
p26
F0.011665087415033573
sS'read'
p27
F0.01659863670895792
sS'scalable'
p28
F0.023444967783742571
sS'lunch'
p29
F0.021053498336573839
sS'report'
p30
F0.006894988847213456
sS'advanced'
p31
F0.0058888195742795389
sS'masters'
p32
F0.0096215974625302562
sS'cognitive'
p33
F0.023138125202745011
sS'fully'
p34
F0.019158101976822745
sS'solution'
p35
F0.0059434532356108924
sS'architecture'
p36
F0.0097004008094407988
sS'team'
p37
F0.0011044110779793595
sS'about'
p38
F0.0091595037058662503
sS'domain'
p39
F0.022864575971610217
sS'doing'
p40
F0.020738537864158919
sS'testing'
p41
F0.0090235739623671513
sS'some'
p42
F0.016551429827497847
sS'library'
p43
F0.0162320456756916
sS'full'
p44
F0.0097938145011132009
sVMaster
p45
F0.0052140420481292223
sS'year'
p46
F0.001538980801608042
sS'our'
p47
F0.0061156716972476169
sS'best'
p48
F0.0057469517788627722
sS'employ'
p49
F0.030302855945515392
sS'what'
p50
F0.019520533570366632
sS'records.'
p51
F0.045946201275892148
sS'scala'
p52
F0.012070020005834259
sS'+'
F0.017173398711497173
sS'develop'
p53
F0.0037023824203041714
sS'please'
p54
F0.016020242931575994
sS'looking'
p55
F0.0063595938505956956
sS'preferred-'
p56
F0.045946201275892148
sS'large-scale data analysis'
p57
F0.03168104081829809
sS'health'
p58
F0.010084154026382767
sS'provides'
p59
F0.0092015616328449349
sS'conduct'
p60
F0.012419524426971284
sS'digitized'
p61
F0.040007758671834433
sS'be'
p62
F0.012268480739091916
sS'we'
p63
F0.0050874353351244373
sS'data analysis'
p64
F0.015075771768926997
sS'creating'
p65
F0.0092136385569417008
sS'data scientist'
p66
F0.0010003637544150356
sS'job'
p67
F0.007023640146188885
sS'brightest'
p68
F0.01984734447192172
sS'search'
p69
F0.013628333138793473
sS'benefits'
p70
F0.013866106710436222
sS'created'
p71
F0.020489402242922568
sS'experience'
p72
F0.002623871283146487
sS'options'
p73
F0.02469314473622641
sS'software'
p74
F0.0046583227209106405
sS'ca'
p75
F0.01632138885491366
sS'learning'
p76
F0.0084535872104834573
sS'data mining'
p77
F0.023986879721973525
sS'apply'
p78
F0.0068557732154347472
sS'san'
p79
F0.012620140648914296
sS'pluses'
p80
F0.028997608087532753
sS'system'
p81
F0.0090799288718811915
sS'least'
p82
F0.0088343300305610516
sS'start'
p83
F0.016481383696174311
sVBachelor
p84
F0.0018375954989845661
sS'today'
p85
F0.013573874553824423
sS'4'
F0.014666032305857573
sS'salary'
p86
F0.02563340762972309
sS'option'
p87
F0.016767185375391114
sS'brings'
p88
F0.018513004163381211
sS'company'
p89
F0.003364478268950968
sS'great'
p90
F0.010368479892721093
sS'immediate'
p91
F0.016254243397334483
sS'hire'
p92
F0.014834427621126059
sS'developing'
p93
F0.0059281663033824063
sS'work'
p94
F0.0010494695216209187
sS'machine learning'
p95
F0.0085679815946566908
sS'will'
p96
F0.016527980107771689
sS'r'
F0.0043083175557029297
sS'bachelors'
p97
F0.010837384634052663
sS'following'
p98
F0.0086569411113381033
sS'design'
p99
F0.0073656070933708611
sS'care.'
p100
F0.024485221093445319
sS'ad'
p101
F0.014129817533063074
sS'recommendation'
p102
F0.0099025886130863373
sS'it'
p103
F0.0071200175685592251
sS'mateo'
p104
F0.030631552147668446
sS'expertise'
p105
F0.006001054882718692
sS'at'
p106
F0.0069862799611541317
sS'in'
p107
F0.0072068800190009273
sS'need'
p108
F0.0054107639160712621
sS'if'
p109
F0.0087007453645230638
sS'requirements'
p110
F0.0080343663695463703
sS'130-175k'
p111
F0.045946201275892148
sS'provide'
p112
F0.0043573023010397439
sS'-'
F0.072030209358326394
sS'machine'
p113
F0.01036099946116951
sS'python'
p114
F0.0039271116937858548
sS'5'
F0.009854730294993579
sV(2, 5]
p115
F0.0042428851462100745
sS'tech'
p116
F0.013823379309474927
sS'you'
p117
F0.017259960370247115
sS"what's"
p118
F0.018615314431104472
sS'development'
p119
F0.0024999338706662337
sS'deploy'
p120
F0.015411516621890879
sS'healthcare'
p121
F0.023085561927629401
sS'fridge'
p122
F0.035427774636413716
sS'build'
p123
F0.0049909317719761502
sS'senior'
p124
F0.022494401190379692
sS'building'
p125
F0.012136363302248878
sS'week+'
p126
F0.045946201275892148
sS'algorithm'
p127
F0.018073363453959539
sS'medical'
p128
F0.012080285586194506
sS'java/'
p129
F0.038452721542141854
sS'analysis'
p130
F0.0027097837839203903
sS'perform'
p131
F0.0084641013676347195
sS'so'
p132
F0.020489402242922568
sS'time'
p133
F0.0060144136696268762
sS'position'
p134
F0.0042116611767866073
sS'the'
p135
F0.0024202879049532913
sS'review'
p136
F0.011432287985805109
sS'computer science'
p137
F0.0089383399724871481
s.