(dp1
S'operations'
p2
F0.014647
sS'atmosphere'
p3
F0.025474
sS'help'
p4
F0.0051440000000000001
sS'collecting storing'
p5
F0.04045
sS'big data engineer'
p6
F0.028267
sS'people workwith'
p7
F0.044041999999999998
sS'dynamic'
p8
F0.011780000000000001
sS'mission'
p9
F0.0093240000000000007
sS'attitude'
p10
F0.018363999999999998
sS'including'
p11
F0.0043839999999999999
sS'indnowq22017'
p12
F0.04045
sS'rapidly growing'
p13
F0.022658000000000001
sS'access'
p14
F0.010846
sS'servicenow'
p15
F0.04045
sS'big data'
p16
F0.032272000000000002
sS'anomaly detection'
p17
F0.020902
sS'implementation'
p18
F0.0088380000000000004
sS'state'
p19
F0.013332999999999999
sS'better'
p20
F0.01175
sS'platform'
p21
F0.0071199999999999996
sS'team'
p22
F0.0099019999999999993
sS'computer science'
p23
F0.0080630000000000007
sS'data structure'
p24
F0.016694000000000001
sS'competitive compensation'
p25
F0.021741
sS'professional'
p26
F0.018246999999999999
sS'overall'
p27
F0.012709
sS'strong sense'
p28
F0.02716
sS'hands'
p29
F0.019108
sS'using'
p30
F0.0057520000000000002
sS'advanced'
p31
F0.0080929999999999995
sS'querying'
p32
F0.024927999999999999
sS'like'
p33
F0.011154000000000001
sS'skills'
p34
F0.011264
sS'always'
p35
F0.019734000000000002
sS'solution'
p36
F0.0036840000000000002
sS'capability'
p37
F0.0090209999999999995
sS'servicenow mean'
p38
F0.04045
sS'activity'
p39
F0.010736000000000001
sS'passionate'
p40
F0.010571000000000001
sS'data analytics'
p41
F0.023002999999999999
sS'mathematical'
p42
F0.013675
sS'service-orientation toward'
p43
F0.04045
sS'art'
p44
F0.020669
sS'santa clara'
p45
F0.036859000000000003
sS'innovative'
p46
F0.0088489999999999992
sS'related'
p47
F0.0072040000000000003
sS'analytics'
p48
F0.0047520000000000001
sS'actively'
p49
F0.017843999999999999
sS'design'
p50
F0.0042859999999999999
sS'product development'
p51
F0.01102
sS'try'
p52
F0.028785999999999999
sS'purpose'
p53
F0.014319
sS'pattern'
p54
F0.012684000000000001
sS'assistance'
p55
F0.019025
sS'shell script'
p56
F0.032656999999999999
sS'big data analytics'
p57
F0.018703000000000001
sS'seriously'
p58
F0.029361999999999999
sS'various'
p59
F0.0089549999999999994
sS'new'
p60
F0.0048799999999999998
sS'ever'
p61
F0.023092999999999999
sS'real time'
p62
F0.036727999999999997
sS'increased customer satisfaction'
p63
F0.036859000000000003
sS'multi-terabyte data set'
p64
F0.035702999999999999
sS'impala hive hbase spark'
p65
F0.04045
sS'ability'
p66
F0.0029420000000000002
sS'business'
p67
F0.0035590000000000001
sS'deliver'
p68
F0.0070660000000000002
sS'monitoring alerting'
p69
F0.04045
sS'data scientist'
p70
F0.0034229999999999998
sS'desired'
p71
F0.014664
sS'generous benefit'
p72
F0.035702999999999999
sS'dedication'
p73
F0.023470000000000001
sS'strong'
p74
F0.0052560000000000003
sS'work environment'
p75
F0.016049000000000001
sS'5 year'
p76
F0.022529
sS'central'
p77
F0.020447
sS'career'
p78
F0.021829999999999999
sS'experience'
p79
F0.000968
sS'methodology'
p80
F0.0090989999999999994
sS'improves'
p81
F0.033266999999999998
sS'large amount'
p82
F0.018942000000000001
sS'analytic tool'
p83
F0.020785000000000001
sS'constantly evolving'
p84
F0.028267
sS'software'
p85
F0.0052880000000000002
sS'data science'
p86
F0.018432
sS'sql'
p87
F0.0057619999999999998
sS'fast-paced'
p88
F0.016801
sS'ms degree'
p89
F0.020181000000000001
sS'highly'
p90
F0.023684
sS'employing'
p91
F0.023373000000000001
sS'troubleshooting'
p92
F0.017680999999999999
sS'aptitude'
p93
F0.01983
sS'c++ python'
p94
F0.035702999999999999
sS'effective communication'
p95
F0.026776000000000001
sS'open'
p96
F0.014074
sS'cloud'
p97
F0.011339
sS'data storage'
p98
F0.025474
sS'dynamic team environment'
p99
F0.034757999999999997
sS'service'
p100
F0.011065999999999999
sS'opportunity'
p101
F0.0051980000000000004
sS'support'
p102
F0.0035469999999999998
sS'system'
p103
F0.0047629999999999999
sS'live'
p104
F0.016910000000000001
sS'way'
p105
F0.0078189999999999996
sS'learn quickly'
p106
F0.024927999999999999
sS'life'
p107
F0.0085660000000000007
sS'contribute'
p108
F0.01213
sS'tool'
p109
F0.0037399999999999998
sS'programming experience'
p110
F0.017021000000000001
sS'solid understanding'
p111
F0.017222000000000001
sS'modelling'
p112
F0.023983999999999998
sS'adaptable'
p113
F0.025770000000000001
sS'hadoopenvironment'
p114
F0.044041999999999998
sS'disruptive'
p115
F0.027574999999999999
sS'least 2'
p116
F0.032656999999999999
sS'real-time'
p117
F0.016589
sS'general'
p118
F0.014808999999999999
sS'machine learning methodologies statistics'
p119
F0.04045
sS'customer'
p120
F0.0090559999999999998
sS'data collection'
p121
F0.017461999999999998
sS'work'
p122
F0.001804
sS'collaboration skill'
p123
F0.022412999999999999
sS'project'
p124
F0.0041960000000000001
sS'technical'
p125
F0.004927
sS'individual'
p126
F0.0082410000000000001
sS'capacity planning'
p127
F0.024676
sS'highly scalable solution'
p128
F0.036859000000000003
sS'challenging'
p129
F0.014402999999999999
sS'inclusive'
p130
F0.021670999999999999
sS'process'
p131
F0.0052440000000000004
sS'modern'
p132
F0.016167000000000001
sS'day-to-day work'
p133
F0.029066000000000002
sS'player'
p134
F0.020077999999999999
sS'faster andbemore scalable'
p135
F0.044041999999999998
sS'technology'
p136
F0.0075199999999999998
sS'yet relaxed work'
p137
F0.04045
sS'monitoring'
p138
F0.014558
sS'provide'
p139
F0.015802
sS'make'
p140
F0.0065640000000000004
sS'responsible'
p141
F0.0063800000000000003
sS'storage'
p142
F0.019928000000000001
sS'responsibilities'
p143
F0.0064349999999999997
sS'take'
p144
F0.010685999999999999
sS'--'
p145
F0.017944000000000002
sS'high expectation'
p146
F0.029361999999999999
sS'company'
p147
F0.0052820000000000002
sS'development'
p148
F0.0034759999999999999
sS'product'
p149
F0.0039119999999999997
sS'collaborative'
p150
F0.013587
sS'reporting'
p151
F0.021323000000000002
sS'phd'
p152
F0.008319
sS'equivalent experience'
p153
F0.014558
sS'work hard'
p154
F0.021208999999999999
sS'allowing'
p155
F0.026595000000000001
sS'organization'
p156
F0.0058170000000000001
sS'changing'
p157
F0.017021000000000001
sS'java scala'
p158
F0.021954999999999999
sS'data'
p159
F0.0025279999999999999
sS'grow'
p160
F0.011709000000000001
sS'task'
p161
F0.010761
sS'algorithm'
p162
F0.0064380000000000001
sS'object oriented design'
p163
F0.028025999999999999
sS'required'
p164
F0.0050200000000000002
sS'well'
p165
F0.006123
sS'analysis'
p166
F0.0042459999999999998
sS'experience building'
p167
F0.017586000000000001
sS'enterprise'
p168
F0.0095989999999999999
sS'position'
p169
F0.010185
sS'senior'
p170
F0.010571000000000001
sS'operate'
p171
F0.016615000000000001
sS'+'
F0.017401
s.