(dp1
S'selection'
p2
F0.014892000000000001
sS'insight'
p3
F0.010581
sS'model robustness analysis'
p4
F0.031102999999999999
sS'leads'
p5
F0.015439
sS'bring'
p6
F0.0071209999999999997
sS'including'
p7
F0.010111999999999999
sS'propensity score'
p8
F0.028341999999999999
sS'statistical'
p9
F0.01218
sS'skill'
p10
F0.0073530000000000002
sS'chemistry'
p11
F0.023646
sS'25'
p12
F0.016882000000000001
sS"experts' ability"
p13
F0.029488
sS'big data'
p14
F0.012407
sS'use case'
p15
F0.027910999999999998
sS"whether it's"
p16
F0.022134000000000001
sS'technique'
p17
F0.010803999999999999
sS'ideal'
p18
F0.017687999999999999
sS'professional consultingexperience'
p19
F0.031102999999999999
sS'linux command line'
p20
F0.023351
sS'enables big'
p21
F0.029488
sS'integrate'
p22
F0.010448000000000001
sS'role'
p23
F0.004143
sS'presentation'
p24
F0.01524
sS'answer business question'
p25
F0.023965
sS'across topical domain'
p26
F0.031102999999999999
sS'python'
p27
F0.011901
sS'big'
p28
F0.011560000000000001
sS'experimental design'
p29
F0.014263
sS'speaking opportunity'
p30
F0.026112
sS'join'
p31
F0.0059509999999999997
sS'equal opportunity affirmative action employer'
p32
F0.011443999999999999
sS'service firm relies'
p33
F0.029488
sS'execute'
p34
F0.0094380000000000002
sS'name'
p35
F0.016559000000000001
sS'success'
p36
F0.014135
sS'identifying'
p37
F0.010654
sS'approach'
p38
F0.0065449999999999996
sS'signal'
p39
F0.016559000000000001
sS'solution'
p40
F0.011332
sS'exploratory'
p41
F0.017357999999999998
sS'capability'
p42
F0.0069360000000000003
sS'activity'
p43
F0.0082550000000000002
sS'americas-united states-missouri-st louis americas-united states-georgia-atlanta americas-united states-massachusetts-boston americas-united states-utah-salt lake city'
p44
F0.031102999999999999
sS'senior data scientist-171280'
p45
F0.033864999999999999
sS'model appropriateness limitation'
p46
F0.031102999999999999
sS'customer attending'
p47
F0.029488
sS'weight'
p48
F0.027453000000000002
sS'find new'
p49
F0.021373
sS'eg'
p50
F0.015796999999999999
sS'successfully'
p51
F0.014093
sS'advanced degree'
p52
F0.011247999999999999
sS'analytics'
p53
F0.0036540000000000001
sS'thinker'
p54
F0.017054
sS'growth'
p55
F0.0082810000000000002
sS'traveling'
p56
F0.023965
sS'statistic'
p57
F0.0072940000000000001
sS'rigorous'
p58
F0.018787999999999999
sS'manipulating'
p59
F0.018699
sS'extract'
p60
F0.011882999999999999
sS'matching'
p61
F0.016882000000000001
sS'best'
p62
F0.006881
sS'ability'
p63
F0.0045250000000000004
sS'schedule full-time'
p64
F0.014093
sS'space'
p65
F0.011167
sS'pattern'
p66
F0.0097529999999999995
sS'familiarity'
p67
F0.0074910000000000003
sS'model parallelization time series analysis'
p68
F0.031102999999999999
sS'timeline'
p69
F0.015558000000000001
sS'heterogeneous data set'
p70
F0.026726
sS'issue'
p71
F0.0070439999999999999
sS'method'
p72
F0.0055719999999999997
sS'visualizing data'
p73
F0.023351
sS'teradata'
p74
F0.015937
sS'data science team'
p75
F0.011742000000000001
sS'scientific'
p76
F0.030915999999999999
sS'americas-united states-california-san diego'
p77
F0.023075999999999999
sS'commits'
p78
F0.020448999999999998
sS'equivalent'
p79
F0.0089569999999999997
sS'team'
p80
F0.004568
sS'data scientist'
p81
F0.0026319999999999998
sS'job'
p82
F0.0047429999999999998
sS'deliver'
p83
F0.0054339999999999996
sS'statistical modeling'
p84
F0.0098480000000000009
sS'address'
p85
F0.0095700000000000004
sS'modeling'
p86
F0.013448999999999999
sS'perform data wrangling'
p87
F0.029488
sS'definition'
p88
F0.014961
sS'training'
p89
F0.015855999999999999
sS'engage'
p90
F0.010538
sS'candidate'
p91
F0.0074479999999999998
sS'r weka matlab sas'
p92
F0.027453000000000002
sS'technical'
p93
F0.0037880000000000001
sS'industry'
p94
F0.0090659999999999994
sS'anomaly detection'
p95
F0.016071999999999999
sS'experience'
p96
F0.0037209999999999999
sS'etc'
p97
F0.011473000000000001
sS'3+ year'
p98
F0.021007999999999999
sS'support'
p99
F0.0027269999999999998
sS'consulting'
p100
F0.0099550000000000003
sS'solving'
p101
F0.010677000000000001
sS'probability'
p102
F0.015361
sS'data science'
p103
F0.018897000000000001
sS'work family program'
p104
F0.021373
sS'thought leader'
p105
F0.015066
sS'senior data scientist'
p106
F0.012305
sS'learning'
p107
F0.0087620000000000007
sS'written communication'
p108
F0.015518000000000001
sS'technologist'
p109
F0.027803999999999999
sS'dimensionality reduction'
p110
F0.026726
sS'conference'
p111
F0.014442
sS'given'
p112
F0.01234
sS'additional'
p113
F0.010822
sS'working'
p114
F0.0043210000000000002
sS'area'
p115
F0.005411
sS'create'
p116
F0.005352
sS'past experience'
p117
F0.022349000000000001
sS'hiring returning veteran'
p118
F0.020733999999999999
sS'extraction'
p119
F0.015807000000000002
sS'scope'
p120
F0.011141
sS'type'
p121
F0.010607
sS'speaking'
p122
F0.016938999999999999
sS'define'
p123
F0.016133000000000002
sS'exploring'
p124
F0.017899000000000002
sS'life'
p125
F0.006587
sS'tool'
p126
F0.0057520000000000002
sS'business requirement'
p127
F0.014121
sS'engineering team'
p128
F0.011276
sS'primary location'
p129
F0.012130999999999999
sS'understand'
p130
F0.0056750000000000004
sS'disability coverage'
p131
F0.021203
sS'delivers'
p132
F0.014206
sS'believe'
p133
F0.0082489999999999994
sS'data source'
p134
F0.011948
sS'developing'
p135
F0.0053889999999999997
sS'science'
p136
F0.0089189999999999998
sS'work'
p137
F0.0027750000000000001
sS'value'
p138
F0.013618
sS'machine learning'
p139
F0.0043189999999999999
sS'project'
p140
F0.0032260000000000001
sS'decision making processesadditionally'
p141
F0.031102999999999999
sS'prioritization'
p142
F0.017357999999999998
sS'demonstrate'
p143
F0.010630000000000001
sS'enables'
p144
F0.016164999999999999
sS'specialized'
p145
F0.016212000000000001
sS'associated'
p146
F0.012305
sS'give'
p147
F0.013823
sS'determination'
p148
F0.020448999999999998
sS'locations'
p149
F0.016559000000000001
sS'observational study'
p150
F0.029488
sS'collaboration'
p151
F0.0078399999999999997
sS'engineering'
p152
F0.0053800000000000002
sS'competitive base salary 401 k strong'
p153
F0.021735000000000001
sS'partner'
p154
F0.012633999999999999
sS'technology'
p155
F0.0028909999999999999
sS'goal'
p156
F0.0071349999999999998
sS'conclusion pop'
p157
F0.031102999999999999
sS'medical dental'
p158
F0.015518000000000001
sS'make'
p159
F0.0050470000000000003
sS'generally'
p160
F0.026726
sS'feature'
p161
F0.010284
sS'field'
p162
F0.0078869999999999999
sS'amazing'
p163
F0.017756999999999998
sS"clients' accomplishment"
p164
F0.029488
sS'inquiry'
p165
F0.018880000000000001
sS'take'
p166
F0.0082170000000000003
sS'natural language processing'
p167
F0.011387
sS'creatively'
p168
F0.018610999999999999
sS'think big academy'
p169
F0.029488
sS'americas-united states-north carolina-charlotte americas-united states-new york-new york americas-united states-washington-seattle americas-united states-texas-dallas americas-united states-new mexico-albuquerque americas-united states-illinois-chicago americas-united states-california-san francisco americas-united states-ohio-cincinnati americas-united states-california-santa clara'
p170
F0.031102999999999999
sS'ams sales'
p171
F0.025111000000000001
sS'multiple'
p172
F0.0076920000000000001
sS'description'
p173
F0.0082419999999999993
sS'deep understanding'
p174
F0.012322
sS'communicating'
p175
F0.012395
sS'assessing mitigating data quality'
p176
F0.031102999999999999
sS'people tobe expert'
p177
F0.031102999999999999
sS'qualifications'
p178
F0.0048019999999999998
sS'model ensembling'
p179
F0.031102999999999999
sS'includes'
p180
F0.0098289999999999992
sS'advisory service'
p181
F0.016456999999999999
sS'mathematical model'
p182
F0.034590999999999997
sS'quantitative'
p183
F0.014792
sS'services'
p184
F0.021618999999999999
sS'robust'
p185
F0.013956
sS'validate'
p186
F0.012413
sS'building'
p187
F0.0051910000000000003
sS'delivery'
p188
F0.0078930000000000007
sS'organization'
p189
F0.0044730000000000004
sS'hard problem'
p190
F0.020884
sS'statistician'
p191
F0.015982
sS'high dimensionality analysis'
p192
F0.031102999999999999
sS'documentation'
p193
F0.0093519999999999992
sS'well'
p194
F0.0047080000000000004
sS'sale'
p195
F0.019989
sS'client'
p196
F0.025453
sS'apply today'
p197
F0.019479
sS'electrical engineering'
p198
F0.01907
sS'professional'
p199
F0.0070150000000000004
sS'total compensation'
p200
F0.021735000000000001
sS'think big'
p201
F0.076740000000000003
sS'physics'
p202
F0.01626
sS'travel'
p203
F0.0090819999999999998
sS'excellent verbal'
p204
F0.014093
s.