(dp1
S''
F0.018353999999999999
sS'empowered'
p2
F0.014558
sS'trust innovating way'
p3
F0.021298999999999998
sS'help'
p4
F0.0029719999999999998
sS'-'
F0.0044799999999999996
sS'join'
p5
F0.0044720000000000003
sS'varying'
p6
F0.013677
sS'results'
p7
F0.016966999999999999
sS'employees think'
p8
F0.021298999999999998
sS'identify'
p9
F0.0041240000000000001
sS'company holiday'
p10
F0.017340999999999999
sS'skill'
p11
F0.0055259999999999997
sS'creative'
p12
F0.0067429999999999999
sS'find'
p13
F0.0071580000000000003
sS'inspire'
p14
F0.012219000000000001
sS'visualization'
p15
F0.0061799999999999997
sS'specifically'
p16
F0.010763
sS'wed'
p17
F0.023373999999999999
sS'implementation'
p18
F0.0051070000000000004
sS'explain'
p19
F0.009868
sS'technique'
p20
F0.0040600000000000002
sS'every month'
p21
F0.019223000000000001
sS'tool'
p22
F0.0021610000000000002
sS'easy'
p23
F0.011294999999999999
sS'employee'
p24
F0.0053660000000000001
sS'include'
p25
F0.0055929999999999999
sS'presentation'
p26
F0.0057260000000000002
sS'excited'
p27
F0.010144
sS'time away'
p28
F0.017340999999999999
sS'take'
p29
F0.01235
sS'data-driven'
p30
F0.016805
sS'customer'
p31
F0.0026159999999999998
sS"- 3-4 years'"
p32
F0.023373999999999999
sS'someone'
p33
F0.0090779999999999993
sS'never looked back'
p34
F0.021298999999999998
sS'seeking'
p35
F0.005391
sS'read'
p36
F0.010330000000000001
sS'smart creative ambitious'
p37
F0.021298999999999998
sS'designing'
p38
F0.0072049999999999996
sS'preferred'
p39
F0.0043059999999999999
sS'cutting-edge technology'
p40
F0.014481000000000001
sS'data scientistwho'
p41
F0.023373999999999999
sS'enthusiastic'
p42
F0.013450999999999999
sS'background'
p43
F0.005489
sS'using'
p44
F0.0066480000000000003
sS'vacation day'
p45
F0.018554999999999999
sS'day'
p46
F0.008515
sS'ceo avi steinlauf wa rated'
p47
F0.021298999999999998
sS'car buying easier ever since'
p48
F0.021298999999999998
sS'progressive'
p49
F0.013859
sS'identified'
p50
F0.010741000000000001
sS'fortune magazine'
p51
F0.0095709999999999996
sS'benefit'
p52
F0.0062480000000000001
sS'bring peace'
p53
F0.021298999999999998
sS'cutting-edge data science'
p54
F0.018270000000000002
sS'team'
p55
F0.0022889999999999998
sS'end-to-end'
p56
F0.0098849999999999997
sS'celebrate earth day'
p57
F0.021298999999999998
sS'extract data using'
p58
F0.021298999999999998
sS'learning'
p59
F0.0065849999999999997
sS'people'
p60
F0.011622
sS'consistent'
p61
F0.01018
sS'asian americans'
p62
F0.021298999999999998
sS'advanced degree'
p63
F0.0084530000000000004
sS'engaging'
p64
F0.011487000000000001
sS'analytics'
p65
F0.0054920000000000004
sS'persuade'
p66
F0.017770000000000001
sS'design'
p67
F0.0049540000000000001
sS'result'
p68
F0.011601999999999999
sS'quantitative field'
p69
F0.0084229999999999999
sS'competitive pay fantastic benefits 14 paid'
p70
F0.021298999999999998
sS'analytics-related position'
p71
F0.042597000000000003
sS'best'
p72
F0.010342
sS'ability'
p73
F0.0034009999999999999
sS'- meaningfully effectively'
p74
F0.021298999999999998
sS'established'
p75
F0.0090779999999999993
sS'lead'
p76
F0.0036189999999999998
sS'review'
p77
F0.0066629999999999997
sS'li-post'
p78
F0.015812
sS'hour'
p79
F0.011944
sS'research'
p80
F0.021205999999999999
sS'looking'
p81
F0.0040600000000000002
sS'future'
p82
F0.0045599999999999998
sS'passion'
p83
F0.005836
sS'resource thoughtful analysis'
p84
F0.021298999999999998
sS'internet'
p85
F0.019511000000000001
sS'visitor use'
p86
F0.021298999999999998
sS'new'
p87
F0.00282
sS'provide incredible growth opportunity'
p88
F0.021298999999999998
sS'youll'
p89
F0.0096930000000000002
sS'demonstrated'
p90
F0.006156
sS'2 years'
p91
F0.013506000000000001
sS'pretty great place'
p92
F0.021298999999999998
sS'havebeen recognized'
p93
F0.023373999999999999
sS'product development'
p94
F0.0063680000000000004
sS'business'
p95
F0.0020569999999999998
sS'schedule'
p96
F0.0083129999999999992
sS"bachelor's degree"
p97
F0.0053689999999999996
sS'empower'
p98
F0.011459
sS'million'
p99
F0.0061700000000000001
sS'communicate'
p100
F0.0058440000000000002
sS'implementing'
p101
F0.0072529999999999999
sS'job'
p102
F0.0035639999999999999
sS'leadership'
p103
F0.00511
sS'key'
p104
F0.0095960000000000004
sS'ask'
p105
F0.010718999999999999
sS'modeling'
p106
F0.0050540000000000003
sS'strong'
p107
F0.0060740000000000004
sS'research shopping'
p108
F0.021298999999999998
sS'optimize'
p109
F0.00743
sS'present result'
p110
F0.011573
sS'care'
p111
F0.014659
sS'wide array'
p112
F0.014981
sS'communication skill'
p113
F0.0086
sS'great'
p114
F0.014159
sS'technical'
p115
F0.0028470000000000001
sS'key business decision-makers throughout'
p116
F0.021298999999999998
sS'study'
p117
F0.016433
sS'in-depth'
p118
F0.026381999999999999
sS'guide'
p119
F0.0084530000000000004
sS'perks'
p120
F0.013292
sS'place'
p121
F0.0084530000000000004
sS'done'
p122
F0.012404999999999999
sS'implement'
p123
F0.0084740000000000006
sS'edmunds experience'
p124
F0.021298999999999998
sS'think'
p125
F0.0099520000000000008
sS'first'
p126
F0.0071060000000000003
sS'celebrate result'
p127
F0.021298999999999998
sS'1-2 years'
p128
F0.021298999999999998
sS'coverage'
p129
F0.012687
sS'statistical model carefully planned'
p130
F0.021298999999999998
sS'6years'
p131
F0.021298999999999998
sS'manage'
p132
F0.0050309999999999999
sS'one'
p133
F0.013832000000000001
sS'60'
p134
F0.014481000000000001
sS'initiative'
p135
F0.011331000000000001
sS'long'
p136
F0.013922
sS'directly'
p137
F0.0087100000000000007
sS'hear'
p138
F0.012113000000000001
sS'trip ca h paid'
p139
F0.021298999999999998
sS'predictive model'
p140
F0.0070990000000000003
sS'prepare'
p141
F0.01018
sS'area'
p142
F0.0040670000000000003
sS'pretty impressive publication'
p143
F0.021298999999999998
sS'support'
p144
F0.0020500000000000002
sS'give'
p145
F0.010388
sS'edmunds'
p146
F0.063895999999999994
sS'thebest workplace'
p147
F0.023373999999999999
sS'next'
p148
F0.019837
sS'working edmundscom'
p149
F0.021298999999999998
sS'much'
p150
F0.012078
sS'last 6years computerworld'
p151
F0.023373999999999999
sS"edmunds' vast data"
p152
F0.021298999999999998
sS'tell'
p153
F0.011847
sS'500'
p154
F0.01472
sS'crucial role'
p155
F0.019223000000000001
sS'life'
p156
F0.0049500000000000004
sS'diversity'
p157
F0.0068910000000000004
sS'beautiful visualization'
p158
F0.018009000000000001
sS'enjoyable person'
p159
F0.021298999999999998
sS'company'
p160
F0.0061040000000000001
sS'subsidized gym membership'
p161
F0.018870999999999999
sS'site'
p162
F0.018308999999999999
sS'b test'
p163
F0.014891
sS'integrate'
p164
F0.0078510000000000003
sS'executed experiment'
p165
F0.021298999999999998
sS'paid vacation edmunds'
p166
F0.021298999999999998
sS"optimize edmunds' product offering"
p167
F0.021298999999999998
sS'automotive'
p168
F0.012219000000000001
sS'key business goal'
p169
F0.016795000000000001
sS'worked'
p170
F0.011783999999999999
sS'ha'
p171
F0.0055620000000000001
sS'key ingredient'
p172
F0.021298999999999998
sS'car shopper'
p173
F0.021298999999999998
sS'sound'
p174
F0.011815000000000001
sS'challenges'
p175
F0.019623000000000002
sS'hire'
p176
F0.0089910000000000007
sS'excellent'
p177
F0.0061749999999999999
sS'applying'
p178
F0.007835
sS'1994'
p179
F0.019623000000000002
sS'places'
p180
F0.018270000000000002
sS'car'
p181
F0.037331999999999997
sS'challenge'
p182
F0.0056410000000000002
sS'work'
p183
F0.0072989999999999999
sS"+ 1-2 years'"
p184
F0.021298999999999998
sS'strategically'
p185
F0.014404999999999999
sS'us'
p186
F0.0050499999999999998
sS'machine learning'
p187
F0.0097370000000000009
sS'project'
p188
F0.0024239999999999999
sS'r'
F0.013497
sS'friend'
p189
F0.012645
sS'many'
p190
F0.0074960000000000001
sS'problem'
p191
F0.004143
sS'could'
p192
F0.010718999999999999
sS'simple beautiful easy-to-interpret data visualization'
p193
F0.021298999999999998
sS'marketplace'
p194
F0.011322
sS'company culture'
p195
F0.016195000000000001
sS'client edmunds'
p196
F0.021298999999999998
sS"edmunds' user"
p197
F0.042597000000000003
sS'process'
p198
F0.0030300000000000001
sS'mind'
p199
F0.011691
sS'buying tool'
p200
F0.021298999999999998
sS'involve'
p201
F0.025811000000000001
sS'effectively'
p202
F0.0063119999999999999
sS'statistical analysis'
p203
F0.0059049999999999997
sS'3-4 years'
p204
F0.021298999999999998
sS'also'
p205
F0.0099190000000000007
sS'actionable insight'
p206
F0.009868
sS'counting'
p207
F0.017340999999999999
sS'technology'
p208
F0.002173
sS'dealer'
p209
F0.015073
sS'trusted'
p210
F0.01201
sS'sell'
p211
F0.012997999999999999
sS"la we've"
p212
F0.021298999999999998
sS'business decision maker'
p213
F0.020084999999999999
sS'built'
p214
F0.0094260000000000004
sS'want'
p215
F0.011653999999999999
sS'variety'
p216
F0.0059309999999999996
sS'make'
p217
F0.018964999999999999
sS'get'
p218
F0.013544
sS'able'
p219
F0.004633
sS'neither get neglected'
p220
F0.021298999999999998
sS'python'
p221
F0.0044720000000000003
sS'need'
p222
F0.0064409999999999997
sS'interested'
p223
F0.0086879999999999995
sS'vacation'
p224
F0.014052
sS'work experience'
p225
F0.015603000000000001
sS'online'
p226
F0.007835
sS'finding'
p227
F0.0065579999999999996
sS'work environment rowe'
p228
F0.021298999999999998
sS"you've ever"
p229
F0.020631
sS'began publishing printed car'
p230
F0.021298999999999998
sS'development'
p231
F0.0020089999999999999
sS'play'
p232
F0.0080420000000000005
sS'towards'
p233
F0.011091
sS'communicating'
p234
F0.0093139999999999994
sS'edmunds launched'
p235
F0.021298999999999998
sS'paid'
p236
F0.011487000000000001
sS'hand'
p237
F0.0090530000000000003
sS'helping'
p238
F0.0064510000000000001
sS'driven'
p239
F0.0060210000000000003
sS'mission wed love'
p240
F0.023373999999999999
sS'significant'
p241
F0.0087779999999999993
sS'sql'
p242
F0.0033289999999999999
sS"glassdoor's highest rated ceos"
p243
F0.021298999999999998
sS'build'
p244
F0.0029199999999999999
sS'informed decision'
p245
F0.016633999999999999
sS'data'
p246
F0.0014610000000000001
sS'grow'
p247
F0.0067660000000000003
sS'4 years'
p248
F0.015694
sS'work la business journal'
p249
F0.021298999999999998
sS'especially'
p250
F0.010330000000000001
sS'industry'
p251
F0.0034060000000000002
sS'generating'
p252
F0.013736999999999999
sS'youre'
p253
F0.036877
sS'well'
p254
F0.007077
sS'prosperously'
p255
F0.021298999999999998
sS'improve revenue-producing product'
p256
F0.021298999999999998
sS'person'
p257
F0.0081049999999999994
sS'client'
p258
F0.0076509999999999998
sS'solve'
p259
F0.0059360000000000003
sS'position'
p260
F0.0029429999999999999
sS'model'
p261
F0.0029819999999999998
sS'flexible'
p262
F0.0086549999999999995
sS'consumer'
p263
F0.0062620000000000002
sS'order'
p264
F0.013192000000000001
sS'fact'
p265
F0.013506000000000001
sS'joining'
p266
F0.010292000000000001
s.