(dp1
S''
F0.11676599999999999
sS'ca'
p2
F0.130521
sS'ascent life sciences'
p3
F0.24285799999999999
sS'hiring'
p4
F0.087115999999999999
sS'design'
p5
F0.023636000000000001
sS'directly'
p6
F0.083117999999999997
sS'south san francisco ca'
p7
F0.24285799999999999
sS'reached'
p8
F0.24285799999999999
sS'skill'
p9
F0.026366000000000001
sS'ascent'
p10
F0.21146999999999999
sS'alison carithers'
p11
F0.24285799999999999
sS'also'
p12
F0.047328000000000002
sS'question'
p13
F0.063852999999999993
sS'research'
p14
F0.033728000000000001
sS'located'
p15
F0.079143000000000005
sS'responsibilities'
p16
F0.035484000000000002
sS'7082461499'
p17
F0.24285799999999999
sS'apply'
p18
F0.080251000000000003
sS'offer'
p19
F0.045961000000000002
sS'clicking'
p20
F0.138186
sS'data scientist'
p21
F0.018876
sS'job'
p22
F0.034013000000000002
sS'link'
p23
F0.10961799999999999
sS'lucrative referral bonus'
p24
F0.18726100000000001
sS'south san francisco'
p25
F0.24285799999999999
sS'pilot'
p26
F0.13969000000000001
sS'work closely'
p27
F0.057938000000000003
sS'read'
p28
F0.098577999999999999
sS'project'
p29
F0.023136
sS'near'
p30
F0.17707000000000001
sS'team'
p31
F0.010921
sS'report'
p32
F0.039795999999999998
sS'experimental'
p33
F0.112748
s.