(dp1
S'operations'
p2
F0.0084864895991647159
sS'emerging'
p3
F0.0095037669814381966
sS'development.'
p4
F0.010898408035080045
sS'data scientist'
p5
F0.0028865712947244637
sS'help'
p6
F0.0086699492477126643
sS'global'
p7
F0.0056730232944049016
sS'feature'
p8
F0.0083142308317320623
sS'performance'
p9
F0.005329983083398244
sS'shape'
p10
F0.01072342607982967
sS'scientist'
p11
F0.0053937469555997066
sS'innovative'
p12
F0.0055201362952400131
sS'computer'
p13
F0.007163214434561087
sS'andprovide'
p14
F0.023391458020387095
sS'network'
p15
F0.014284241330475053
sS'dreamer'
p16
F0.019006070650819815
sS'completion'
p17
F0.0095542260738952188
sS'big data analytics'
p18
F0.009030706007489047
sS'style'
p19
F0.01203817913075063
sS'dimensionality'
p20
F0.018746370143111365
sS'knowledge'
p21
F0.0075550814345630591
sS'big data'
p22
F0.0034679158756475955
sS'implementation'
p23
F0.0064855577121055658
sS'agile'
p24
F0.0059501086449577911
sS'solving'
p25
F0.0080379499951632825
sS'methodology'
p26
F0.0065779241079301724
sS'handheld'
p27
F0.018746370143111365
sS'systemarchitecture'
p28
F0.025280142181380402
sS'platform'
p29
F0.0051810717256799621
sS'internal'
p30
F0.0060632127782068905
sS'systems'
p31
F0.015574248235435906
sS'fuel'
p32
F0.0096229922450360716
sS'extensive'
p33
F0.0086950367534499497
sS'excited'
p34
F0.010789403711307969
sS'cognitivesystems'
p35
F0.025280142181380402
sS'personality'
p36
F0.015297695058572551
sS'do'
p37
F0.0075738201726562515
sS'customers'
p38
F0.010312733945555192
sS'insight'
p39
F0.0049997094169195776
sS'motivated'
p40
F0.0093498791662244909
sS'risk'
p41
F0.0079945090982619718
sS'python'
p42
F0.0014203038494639399
sS'evaluate'
p43
F0.0077562371981098029
sS'background'
p44
F0.017466090059040328
sS'geek'
p45
F0.016104956315771416
sS'framework'
p46
F0.0073532102864193221
sS'sso'
p47
F0.091455912054623001
sS'cultureaficionados'
p48
F0.025280142181380402
sS"you've"
p49
F0.012423225299694514
sS'closely'
p50
F0.0064965882697591475
sS'markets.'
p51
F0.011011955578978305
sS'using'
p52
F0.0040844327614668616
sS'execution'
p53
F0.0082346341821354398
sS'celebrate'
p54
F0.013990962533061386
sVManagement Science and Engineering
p55
F0.0035137453364274996
sS'communicationskills'
p56
F0.025280142181380402
sS'masters'
p57
F0.006969126485213771
sS'like'
p58
F0.0063697170937728129
sS'level'
p59
F0.010620494807806904
sS'skills'
p60
F0.0059030369615499598
sS'c++'
p61
F0.0094460553526323401
sS'astrategic'
p62
F0.023391458020387095
sS'stars.'
p63
F0.02150277411409509
sS'architecture'
p64
F0.0059591676367429375
sS'team'
p65
F0.008022270416451753
sS'high availability'
p66
F0.014789288497863859
sS'data analytics'
p67
F0.0055649119386533977
sS'system'
p68
F0.021575266149997517
sS'teamof'
p69
F0.023391458020387095
sS'inmultiple'
p70
F0.025280142181380402
sS'cisco'
p71
F0.066482403271397456
sS'applicability'
p72
F0.017117388782135628
sS'people'
p73
F0.0049632679149069553
sS'hard'
p74
F0.0095883922192963635
sS'behindmany'
p75
F0.025280142181380402
sS'product'
p76
F0.010994492294695476
sS'related'
p77
F0.0040741935875604493
sS'cognitive'
p78
F0.013627119068889486
sS'self-contained'
p79
F0.020894753793008352
sS'streaming'
p80
F0.011738452991510906
sS'growth'
p81
F0.0067971918852136083
sS'design'
p82
F0.0079586856131797137
sS'are'
p83
F0.0095883922192963635
sS'year'
p84
F0.0028939231272547728
sS'our'
p85
F0.015604822282707468
sS'operation'
p86
F0.0062535424987576601
sS'teams'
p87
F0.0099559140960732134
sS'comfort'
p88
F0.011815211855461846
sS'even'
p89
F0.011270203037484789
sS'what'
p90
F0.0070390342066869041
sS'learns'
p91
F0.016104956315771416
sS'container'
p92
F0.015161427392020704
sS'projects.'
p93
F0.02136918598916086
sS'lead'
p94
F0.0052466397762004789
sS'scala'
p95
F0.0066500446531298002
sS'purple'
p96
F0.020894753793008352
sS'haired'
p97
F0.02150277411409509
sS'specification'
p98
F0.010474418226643349
sVComputer Science
p99
F0.0024669093906054432
sS'research'
p100
F0.0023246875794597772
sS'looking'
p101
F0.0053245864293726122
sS'everything'
p102
F0.0086703788198431338
sS'written'
p103
F0.0056064469294212198
sS'future'
p104
F0.011841746514426332
sS'passion'
p105
F0.0073418813225464962
sS'innovation'
p106
F0.0052747266270700916
sS'new'
p107
F0.0070739051370647607
sS'approach'
p108
F0.0061059695961059018
sS'across'
p109
F0.0044760263657363988
sS'iot'
p110
F0.013207093024937319
sS'pioneering'
p111
F0.015752881771958268
sS'10+'
p112
F0.011502945387671683
sS'we'
p113
F0.023804102878909102
sS'collaboratevery'
p114
F0.025280142181380402
sS'bold'
p115
F0.012374998078575868
sS'business'
p116
F0.0064061818165999113
sS'workflow'
p117
F0.010392376953734142
sS'got'
p118
F0.014731922514967861
sS'rock'
p119
F0.017117388782135628
sS'communicate'
p120
F0.0054666018590779075
sS'desired'
p121
F0.0075861581269229122
sS'orequivalent'
p122
F0.022286648716210611
sS"cisco's"
p123
F0.020894753793008352
sS'java'
p124
F0.0033767492307037695
sS'strong'
p125
F0.0075064181602238385
sS'analyticalproblems'
p126
F0.025280142181380402
sS'onthe'
p127
F0.023391458020387095
sS'change'
p128
F0.0061542777477680641
sS'science'
p129
F0.0019156236735533851
sS'software development'
p130
F0.0057771025015620507
sS'datacenter'
p131
F0.020894753793008352
sS'unique'
p132
F0.0078049322842016315
sS'things.'
p133
F0.016104956315771416
sS'service'
p134
F0.0044355306779639897
sS'language'
p135
F0.010018593245022108
sS'technical'
p136
F0.012574106911068956
sS'taking'
p137
F0.01179581846501314
sS'current'
p138
F0.0071038678899971799
sS'programming'
p139
F0.003003583746144076
sS'experience'
p140
F0.0092273105632624305
sS'etc'
p141
F0.005929835390159296
sS'elasticsearch'
p142
F0.011270203037484789
sS'leading'
p143
F0.0049133642732264648
sS'software'
p144
F0.017531520876101159
sS'degree'
p145
F0.0033340155173765653
sS'microservices'
p146
F0.015441137964663162
sS'throughadvanced'
p147
F0.025280142181380402
sS'strategicthinker'
p148
F0.025280142181380402
sS'neural networks'
p149
F0.0088675833752909789
sS'onprojects.'
p150
F0.025280142181380402
sS'facility'
p151
F0.011776562133272233
sS'architectand'
p152
F0.025280142181380402
sS'arecisco'
p153
F0.025280142181380402
sS'pop'
p154
F0.017117388782135628
sS'strategic'
p155
F0.0065893358625090902
sS'theworld'
p156
F0.025280142181380402
sS'analyzing'
p157
F0.0075902832260007595
sS'determine'
p158
F0.0097936234363683664
sS'customer-centricculture'
p159
F0.025280142181380402
sS'.'
F0.0066942515752525409
sS'experienced'
p160
F0.0082346341821354398
sS'u'
F0.011424212834317491
sS'cloud'
p161
F0.013466306402751923
sS'intercloud'
p162
F0.022286648716210611
sS'city'
p163
F0.0095204830621531296
sS'use'
p164
F0.0047601364345233209
sS"aren't"
p165
F0.015297695058572551
sS'open source'
p166
F0.0087136777654443984
sS'leverage'
p167
F0.007602696130978615
sS'working'
p168
F0.0035575398176777556
sS'area'
p169
F0.0053845459383861458
sS'deep learning'
p170
F0.0084864895991647159
sS'deployment'
p171
F0.008182832970199826
sS'question'
p172
F0.0074612828729411175
sS"world's"
p173
F0.014891157948392643
sS'strategy'
p174
F0.0042915842812720293
sS'asengineering'
p175
F0.025280142181380402
sS"we're"
p176
F0.0076912070091240455
sS'way'
p177
F0.0060538017127930157
sVBusiness
p178
F0.0029474505372591667
sS'organization.'
p179
F0.010427235457929807
sS'matlab'
p180
F0.0034779323913843724
sV(10, 15]
p181
F0.0053335868016304057
sS'teamsand'
p182
F0.025280142181380402
sS'direction'
p183
F0.0081269666159227288
sS'diversity'
p184
F0.0068722710007241223
sS'hadoopand'
p185
F0.025280142181380402
sS'thefollowing'
p186
F0.023391458020387095
sS'analytic'
p187
F0.0061518418863750479
sS'visibility'
p188
F0.013207093024937319
sS'ecosystem'
p189
F0.0097114648616669578
sS'innovation.'
p190
F0.0099460952567535753
sS'everywhere'
p191
F0.014969009716846808
sS'c'
F0.0034076891659348702
sS'varying'
p192
F0.011975538155813651
sS'with'
p193
F0.0079517499884189206
sS'technicaldiscussion'
p194
F0.025280142181380402
sS'largescale'
p195
F0.020894753793008352
sS'case'
p196
F0.0089821114207530028
sS'excellent'
p197
F0.0055085757310452139
sS'join'
p198
F0.0053625894747949586
sS'look'
p199
F0.0099657684475641904
sS'itin'
p200
F0.025280142181380402
sS'car'
p201
F0.012625152341541771
sS'work'
p202
F0.0079411850772883128
sS'value'
p203
F0.0050757281419395615
sS'machine learning'
p204
F0.0017861518306104614
sS'project'
p205
F0.012294435446959837
sS'r'
F0.0015122406174766789
sS'high-volume'
p206
F0.014731922514967861
sS'smart'
p207
F0.0099559140960732134
sS'product management'
p208
F0.0085095313869932993
sVMaster
p209
F0.0019816912403928526
sS'define'
p210
F0.0076110029318232743
sS'level.if'
p211
F0.025280142181380402
sS'connect'
p212
F0.010438954772442085
sS'virtualization'
p213
F0.013782863046929626
sS'give'
p214
F0.010415566334445814
sS'process'
p215
F0.0045399418990251586
sS'well'
p216
F0.0051253840088638153
sS'abstract'
p217
F0.012472321535535891
sS'aredoers'
p218
F0.025280142181380402
sS'one'
p219
F0.0044589709432378355
sS'life'
p220
F0.0060868836700435063
sS'deep'
p221
F0.0066383762936666445
sS'high'
p222
F0.011635438285232788
sS'processingand/or'
p223
F0.025280142181380402
sS'as'
p224
F0.0056104358726853229
sS'minimum'
p225
F0.0067121371725057397
sS'in'
p226
F0.0057517584386395319
sS'sas'
p227
F0.0037744873478948683
sS'technology'
p228
F0.027634528751980653
sS'fluency'
p229
F0.011520356026976104
sS'defines'
p230
F0.013782863046929626
sS'thecreativity'
p231
F0.025280142181380402
sS'afraid'
p232
F0.012017138387917863
sS'requirements'
p233
F0.012337877665075473
sS'leading-edgecapabilities'
p234
F0.025280142181380402
sS'impact'
p235
F0.0061083647663246008
sS'business/product'
p236
F0.01997793621897433
sS'answering'
p237
F0.013174846801034526
sS'able'
p238
F0.006276384458565736
sS'hadoop'
p239
F0.0035008351536772882
sS'application'
p240
F0.0049102754447536683
sS'toour'
p241
F0.025280142181380402
sS'complex'
p242
F0.0044852544828661569
sS'computer science'
p243
F0.0038310170659052335
sS'big'
p244
F0.0062994195613556309
sS'manipulating'
p245
F0.011191674505697347
sS'leader'
p246
F0.011579727011446063
sS'you'
p247
F0.015056753072040241
sS'tool'
p248
F0.0037431347080434251
sS'alignmentwith'
p249
F0.025280142181380402
sS'development'
p250
F0.0032996212599839744
sS'picture'
p251
F0.01259907779783156
sS'play'
p252
F0.009189331182359305
sS'used'
p253
F0.0073156288492489683
sVData Science
p254
F0.0027991525411582086
sS'transforming'
p255
F0.010843360805045233
sS'hospitals'
p256
F0.016299666879890769
sS'who'
p257
F0.018652712737203401
sS'develops'
p258
F0.016693464442969014
sS'connected'
p259
F0.011041097546741747
sS'innovate'
p260
F0.011115345980197639
sS'quantitative'
p261
F0.0061011855640314199
sS'services'
p262
F0.023047957269347882
sS'technologiesthat'
p263
F0.025280142181380402
sS'provider.'
p264
F0.020397965064619834
sS'hospitals.'
p265
F0.020894753793008352
sS'data'
p266
F0.0016158240854832822
sS'why'
p267
F0.011130441584834632
sS'structure'
p268
F0.0079236122409153467
sS'source'
p269
F0.0056264503143092642
sS'building'
p270
F0.010355328219868046
sS'natural'
p271
F0.010559006693585693
sS'expert'
p272
F0.0056935234451966311
sS'algorithm'
p273
F0.0051505555664155458
sS'optimizationalgorithms'
p274
F0.025280142181380402
sS'oral'
p275
F0.0085857921356978905
sS'clear'
p276
F0.0088217891954164747
sS'documentation'
p277
F0.0079003840843161598
sS'business strategy'
p278
F0.008282112589426259
sS'drive'
p279
F0.0051896094616712043
sS'thought'
p280
F0.010427235457929807
sS"you'll"
p281
F0.022443122700962548
sS'tech'
p282
F0.0090873251375035678
sS'andsecurity.'
p283
F0.025280142181380402
sS'fundamental'
p284
F0.010357958788922485
sS'organization'
p285
F0.0048043156383697034
sS'the'
p286
F0.0066766910102301191
sS'technologiesand'
p287
F0.025280142181380402
sS'assistance'
p288
F0.0099460952567535753
s.