(dp1
S'help'
p2
F0.022061000000000001
sS'teacher student'
p3
F0.057828999999999998
sS'focus'
p4
F0.014631
sS'commuter benefit'
p5
F0.044556999999999999
sS'bring'
p6
F0.013239000000000001
sS'thoughtful'
p7
F0.039737000000000001
sS'persuasively'
p8
F0.045200999999999998
sS'feedback'
p9
F0.025604999999999999
sS'web'
p10
F0.017996000000000002
sS'20'
p11
F0.028419
sS"we're hiring"
p12
F0.032156999999999998
sS'better'
p13
F0.033596000000000001
sS'first round capital'
p14
F0.054824999999999999
sS'setting'
p15
F0.020837999999999999
sS'parent communicate'
p16
F0.057828999999999998
sS'equity'
p17
F0.030786999999999998
sS'health'
p18
F0.017826000000000002
sS'user remind'
p19
F0.057828999999999998
sS'weve'
p20
F0.042903999999999998
sS'motivated'
p21
F0.025604999999999999
sS'get'
p22
F0.016754000000000002
sS'dependent'
p23
F0.034603000000000002
sS'designing'
p24
F0.017826000000000002
sS'every'
p25
F0.020471
sS'know'
p26
F0.018509000000000001
sS'world'
p27
F0.011219
sS'remind'
p28
F0.115658
sS'join u'
p29
F0.021042000000000002
sS'analyzing'
p30
F0.020447
sS'passionate'
p31
F0.015113
sS'vision'
p32
F0.016129999999999999
sS'health coverage'
p33
F0.051041999999999997
sS'trend'
p34
F0.015831000000000001
sS'kleiner perkins social'
p35
F0.057828999999999998
sS'direct'
p36
F0.020913999999999999
sS'analytics'
p37
F0.0067939999999999997
sS'result'
p38
F0.0095680000000000001
sS'parking'
p39
F0.051041999999999997
sS'help teacher student'
p40
F0.057828999999999998
sS'funding'
p41
F0.035277000000000003
sS'decision'
p42
F0.012725999999999999
sS'experiment'
p43
F0.019302
sS'connecting'
p44
F0.032273999999999997
sS'capital'
p45
F0.032273999999999997
sS'competitive salary'
p46
F0.025798999999999999
sS'2 year'
p47
F0.038892000000000003
sS'parent'
p48
F0.046688
sS'communicate'
p49
F0.014459
sS'million'
p50
F0.015265000000000001
sS'data scientist'
p51
F0.0097870000000000006
sS'active'
p52
F0.028077999999999999
sS'100'
p53
F0.024833999999999998
sS'idea clearly'
p54
F0.046688
sS'benefits'
p55
F0.021717
sS'inspired'
p56
F0.026202
sS'experience'
p57
F0.0027669999999999999
sS'perks'
p58
F0.032885999999999999
sS'mentor'
p59
F0.020235
sS'parental leave'
p60
F0.047559999999999998
sS'messaging'
p61
F0.033015000000000003
sS'communication'
p62
F0.015421000000000001
sS'app'
p63
F0.032759000000000003
sS'catered meal'
p64
F0.054824999999999999
sS'least one scripting language'
p65
F0.036419
sS'one'
p66
F0.0085559999999999994
sS'initiative'
p67
F0.014016000000000001
sS'landscape'
p68
F0.030231000000000001
sS'working'
p69
F0.0080339999999999995
sS'fastest-growing'
p70
F0.052693999999999998
sS'strategic direction'
p71
F0.029388999999999998
sS'transform'
p72
F0.021385000000000001
sS'quickly'
p73
F0.020143000000000001
sS'achieving'
p74
F0.032042000000000001
sS'company'
p75
F0.015102000000000001
sS'various'
p76
F0.012801999999999999
sS'fully stocked kitchen'
p77
F0.041153000000000002
sS'team member'
p78
F0.014807000000000001
sS'worked'
p79
F0.029152999999999998
sS'believe'
p80
F0.015337
sS'deepen understanding'
p81
F0.057828999999999998
sS'open vacation policy'
p82
F0.041977
sS'ecosystem'
p83
F0.026099000000000001
sS'challenge'
p84
F0.013957000000000001
sS'work'
p85
F0.0025799999999999998
sS'us'
p86
F0.012494999999999999
sS'machine learning'
p87
F0.0080300000000000007
sS'give'
p88
F0.025701000000000002
sS'navigate'
p89
F0.031708
sS'equal opportunity employer'
p90
F0.013878
sS'want'
p91
F0.014416999999999999
sS'education'
p92
F0.048425000000000003
sS'technology'
p93
F0.0053749999999999996
sS'large data set'
p94
F0.019061000000000002
sS'requirements'
p95
F0.013257
sS'goal'
p96
F0.026532
sS'identify lever'
p97
F0.052693999999999998
sS'provide'
p98
F0.0075300000000000002
sS'get stronger education'
p99
F0.057828999999999998
sS'raised 59 million'
p100
F0.062963000000000005
sS'oriented'
p101
F0.027816
sS'responsibilities'
p102
F0.0091990000000000006
sS'potential'
p103
F0.017909999999999999
sS'build'
p104
F0.0072249999999999997
sS'resource allocation'
p105
F0.034603000000000002
sS'development'
p106
F0.0049699999999999996
sS'product'
p107
F0.011186
sS'welcome'
p108
F0.030054999999999998
sS'tool'
p109
F0.0053470000000000002
sS'communication improves relationship'
p110
F0.057828999999999998
sS'user'
p111
F0.013927
sS'sql'
p112
F0.0082369999999999995
sS'product roadmaps andmajor business decision'
p113
F0.062963000000000005
sS'grow'
p114
F0.016740000000000001
sS'efficiently'
p115
F0.026306
sS'reimbursement'
p116
F0.038280000000000002
sS'drive business'
p117
F0.035638000000000003
sS'business stakeholder'
p118
F0.027198
sS'u closer'
p119
F0.057828999999999998
sS'solve'
p120
F0.014685
sS'behavioral'
p121
F0.028851000000000002
sS'key metric'
p122
F0.034603000000000002
sS'model'
p123
F0.007378
s.