(dp1
S'criminal histories'
p2
F0.023026999999999999
sS'related field'
p3
F0.0062830000000000004
sS'consider'
p4
F0.010297000000000001
sS'insight'
p5
F0.0050109999999999998
sS'bring'
p6
F0.006744
sS'verbal communication skill'
p7
F0.012007
sS'wide range'
p8
F0.010565
sS'statistical'
p9
F0.011537
sS'world'
p10
F0.0057159999999999997
sS'-conduct end-to-end'
p11
F0.02793
sS'skill'
p12
F0.0069649999999999998
sS'computational biologist bioinformatician'
p13
F0.02793
sS'knowledge'
p14
F0.0034689999999999999
sS'phd degree'
p15
F0.026235000000000001
sS'manner consistent'
p16
F0.011554999999999999
sS'eg cost-benefit forecasting'
p17
F0.02793
sS'written'
p18
F0.0091160000000000008
sS'improvement'
p19
F0.008763
sS'platform'
p20
F0.0051859999999999996
sS'equity'
p21
F0.015684
sS'include'
p22
F0.0070499999999999998
sS'presentation'
p23
F0.014435
sS'language eg'
p24
F0.019928999999999999
sS'-work closely'
p25
F0.024733000000000002
sS'statistician data scientist'
p26
F0.020965000000000001
sS'data structure'
p27
F0.012158
sS'collaborate'
p28
F0.0064279999999999997
sS'motivated'
p29
F0.013044
sS'around'
p30
F0.0076290000000000004
sS'read'
p31
F0.026039
sS'evaluate'
p32
F0.0086859999999999993
sS'possible'
p33
F0.011035
sS'sound like'
p34
F0.016819000000000001
sS'finding'
p35
F0.0082649999999999998
sS'report'
p36
F0.0052560000000000003
sS'using'
p37
F0.0083789999999999993
sS'bringing'
p38
F0.012877
sS'school'
p39
F0.016441000000000001
sS'name'
p40
F0.015684
sS'-interact cross-functionally'
p41
F0.02793
sS'level'
p42
F0.005568
sS'-build'
p43
F0.023387000000000002
sS'sql'
p44
F0.0041960000000000001
sS'team'
p45
F0.002885
sS'analytical'
p46
F0.010281
sS'learn new'
p47
F0.017389999999999999
sS'mathematical'
p48
F0.0099600000000000001
sS'ass'
p49
F0.011723000000000001
sS'requirement'
p50
F0.0095340000000000008
sS'set'
p51
F0.0080520000000000001
sS'people'
p52
F0.014648
sS'quantitative discipline'
p53
F0.011620999999999999
sS'innovative'
p54
F0.0064450000000000002
sS'- unlimited vacation'
p55
F0.02793
sS'design'
p56
F0.0031220000000000002
sS'result'
p57
F0.0048739999999999999
sS'recommendation'
p58
F0.01512
sS'employment'
p59
F0.0090729999999999995
sS'panda'
p60
F0.021857000000000001
sS'category'
p61
F0.014104999999999999
sS'industrial engineering'
p62
F0.017165
sS'scale'
p63
F0.0084910000000000003
sS'competitive salary 401 k match'
p64
F0.026844
sS'learn'
p65
F0.0071859999999999997
sS'specification'
p66
F0.013375
sS'outside'
p67
F0.012256
sS'experiment'
p68
F0.019665999999999999
sS'large datasets'
p69
F0.013093
sS'new'
p70
F0.0035539999999999999
sS'quality end-user behavioral'
p71
F0.02793
sS'method'
p72
F0.010555999999999999
sS'demonstrated'
p73
F0.023276000000000002
sS'measuring'
p74
F0.017165
sS'data analysis'
p75
F0.014603
sS'relevant work experience'
p76
F0.017389999999999999
sS'business'
p77
F0.0025920000000000001
sS'database'
p78
F0.005568
sS'selecting'
p79
F0.020410999999999999
sS'empower'
p80
F0.014442
sS'processing'
p81
F0.0096209999999999993
sS'data scientist'
p82
F0.004986
sS'understanding'
p83
F0.0096989999999999993
sS'continuous delivery'
p84
F0.017971000000000001
sS'job'
p85
F0.0044920000000000003
sS'leadership'
p86
F0.0064409999999999997
sS'modeling'
p87
F0.0063689999999999997
sS'minimum qualification'
p88
F0.018349000000000001
sS'analysis forecasting'
p89
F0.02793
sS'data gathering'
p90
F0.016625000000000001
sS'computer science mathematics physic electrical engineering'
p91
F0.026002000000000001
sS'improve'
p92
F0.011362000000000001
sS'publisher'
p93
F0.019241000000000001
sS'great'
p94
F0.0089230000000000004
sS'analytical rigor'
p95
F0.020587000000000001
sS'superstar'
p96
F0.02793
sS'self-direction demonstrated'
p97
F0.02793
sS'large complex data set'
p98
F0.020771000000000001
sS'economics'
p99
F0.012007
sS'statistical method'
p100
F0.011861999999999999
sS'experience'
p101
F0.00141
sS'example'
p102
F0.011809
sS'wide variety'
p103
F0.012416999999999999
sS'connection'
p104
F0.014774000000000001
sS'high quality'
p105
F0.012522
sS'together'
p106
F0.010368
sS'software'
p107
F0.0038509999999999998
sS'technique'
p108
F0.010233000000000001
sS'supply'
p109
F0.017971000000000001
sS'identify opportunity'
p110
F0.013322000000000001
sS'delivering'
p111
F0.008763
sS'included'
p112
F0.019369000000000001
sS'right'
p113
F0.0090810000000000005
sS'software consumed'
p114
F0.02793
sS'quality'
p115
F0.018935
sS'engineer'
p116
F0.012847000000000001
sS'city'
p117
F0.014338
sS'given'
p118
F0.011688
sS'working'
p119
F0.0040930000000000003
sS'area'
p120
F0.0051260000000000003
sS'meaningful'
p121
F0.011035
sS'create'
p122
F0.0050689999999999997
sS'engagement'
p123
F0.010024999999999999
sS'next'
p124
F0.012501
sS'needed'
p125
F0.0078869999999999999
sS'live'
p126
F0.012316000000000001
sS'cybercoders'
p127
F0.023026999999999999
sS'flexible'
p128
F0.010907999999999999
sS'prototype'
p129
F0.0098429999999999993
sS'eg'
p130
F0.014962
sS'-solve difficult non-routine analysis'
p131
F0.02793
sS'company'
p132
F0.0076940000000000003
sS'search'
p133
F0.010616
sS'experience articulating business question'
p134
F0.02793
sS'visual'
p135
F0.014971999999999999
sS'part'
p136
F0.010323000000000001
sS'los angeles qualified applicants'
p137
F0.023026999999999999
sS'50m user'
p138
F0.02793
sS"what's"
p139
F0.013978000000000001
sS'analyst'
p140
F0.0076759999999999997
sS'applied'
p141
F0.0093279999999999995
sS'daily catered lunch endless snack'
p142
F0.02793
sS'quantitative'
p143
F0.0070049999999999999
sS'available data'
p144
F0.018769000000000001
sS'hour'
p145
F0.015054
sS'challenge'
p146
F0.00711
sS'work'
p147
F0.0039430000000000003
sS'-make business'
p148
F0.02793
sS'machine learning'
p149
F0.004091
sS'optimization'
p150
F0.0078560000000000001
sS'ongoing'
p151
F0.010718999999999999
sS'behavior'
p152
F0.011442000000000001
sS'country'
p153
F0.012120000000000001
sS'continuously'
p154
F0.015180000000000001
sS'operation research'
p155
F0.011934
sS'problem'
p156
F0.015667
sS'arrive'
p157
F0.019241000000000001
sS'display'
p158
F0.016098000000000001
sS'dedicated'
p159
F0.010840000000000001
sS'ad'
p160
F0.012808
sS'willingness'
p161
F0.011792
sS'multi-disciplinary team'
p162
F0.018553
sS'awesome'
p163
F0.016886000000000002
sS'statistic'
p164
F0.0069080000000000001
sS'-research'
p165
F0.02793
sS'daily'
p166
F0.012673
sS'want'
p167
F0.014689000000000001
sS'experience translating'
p168
F0.022699
sS'need'
p169
F0.0040590000000000001
sS'limit'
p170
F0.018997
sS'metric'
p171
F0.0094570000000000001
sS'information'
p172
F0.0043579999999999999
sS'answer'
p173
F0.010527
sS'develop'
p174
F0.002944
sS'efficient'
p175
F0.010880000000000001
sS'make'
p176
F0.0047809999999999997
sS'-'
F0.028232
sS'1'
F0.010204
sS'application'
p177
F0.0041180000000000001
sS'hiring ban'
p178
F0.023026999999999999
sS'interview'
p179
F0.014623000000000001
sS'preferred qualification'
p180
F0.019369000000000001
sS'brand'
p181
F0.0093729999999999994
sS'week'
p182
F0.013068
sS'200'
p183
F0.017711000000000001
sS'product'
p184
F0.011396999999999999
sS'multiple'
p185
F0.0072859999999999999
sS'los angeles fair chance initiative'
p186
F0.022397
sS'computational biology'
p187
F0.019928999999999999
sS'tool'
p188
F0.0027239999999999999
sS'analysis pipeline iteratively'
p189
F0.026002000000000001
sS'includes'
p190
F0.0093100000000000006
sS'facing product'
p191
F0.024229000000000001
sS'user'
p192
F0.021284000000000001
sS'never'
p193
F0.016886000000000002
sS'bioinformatics'
p194
F0.015990000000000001
sS'improving'
p195
F0.010666999999999999
sS'teach others'
p196
F0.022117000000000001
sS'class'
p197
F0.012877
sS'early'
p198
F0.017023
sS'eg r julia matlab'
p199
F0.02793
sS'otherwise might'
p200
F0.02793
sS'effective'
p201
F0.025087000000000002
sS'end-users advertiser'
p202
F0.02793
sS'comprehensive health coverage'
p203
F0.02793
sS'analysis'
p204
F0.012368000000000001
sS'deliverable'
p205
F0.011209999999999999
sS'provide'
p206
F0.003836
sS'-develop comprehensive'
p207
F0.02793
sS'applying advanced'
p208
F0.019928999999999999
sS'u'
F0.0087869999999999997
sS'stakeholder'
p209
F0.0077710000000000001
sS'box ordinance'
p210
F0.023026999999999999
sS'push'
p211
F0.0097400000000000004
sS'position'
p212
F0.0074180000000000001
sS'consumer'
p213
F0.0078930000000000007
sS'apply today'
p214
F0.018450000000000001
sS'million'
p215
F0.0077770000000000001
s.