(dp1
S'ba bs'
p2
F0.030235000000000001
sS'camera used'
p3
F0.048065999999999998
sS'experience working'
p4
F0.012614
sS'insight'
p5
F0.0089720000000000008
sS'valuable'
p6
F0.023806000000000001
sS'identify'
p7
F0.0093069999999999993
sS'completion'
p8
F0.021467
sS'monitor'
p9
F0.019456999999999999
sS'experience performing product-oriented quantitative analysis'
p10
F0.048065999999999998
sS'inventive data-based approach'
p11
F0.048065999999999998
sS'explore expertly curated content'
p12
F0.052748999999999997
sS'platform'
p13
F0.0092849999999999999
sS'snap'
p14
F0.048065999999999998
sS'computer science'
p15
F0.010515
sS'venice ca headquarters'
p16
F0.048065999999999998
sS'around'
p17
F0.01366
sS'python'
p18
F0.010092
sS'express'
p19
F0.032679
sS'world'
p20
F0.030702
sS'advanced'
p21
F0.010553999999999999
sS'empower people'
p22
F0.025142000000000001
sS'solution'
p23
F0.0048050000000000002
sS'camera company'
p24
F0.043381999999999997
sS'team'
p25
F0.0051650000000000003
sS'passionate'
p26
F0.013786
sS'people'
p27
F0.0087430000000000008
sS'trend'
p28
F0.01444
sS'hard'
p29
F0.029547
sS'moment learn'
p30
F0.043381999999999997
sS'every day'
p31
F0.019531
sS'solving difficult'
p32
F0.041875000000000002
sS'result'
p33
F0.0087279999999999996
sS'convey'
p34
F0.034680999999999997
sS'recommendation'
p35
F0.013537
sS'event'
p36
F0.019706999999999999
sS'best'
p37
F0.01167
sS'creating'
p38
F0.013702000000000001
sS'join'
p39
F0.010092
sS'top publisher'
p40
F0.046558000000000002
sS'demonstrated'
p41
F0.013892
sS'data analysis'
p42
F0.013074000000000001
sS'ability'
p43
F0.0076740000000000003
sS'business'
p44
F0.0046420000000000003
sS'marketing'
p45
F0.011731999999999999
sS'data scientist'
p46
F0.0044640000000000001
sS'key'
p47
F0.021656000000000002
sS'address'
p48
F0.016230000000000001
sS'backed'
p49
F0.031564000000000002
sS'improve'
p50
F0.010172
sS'people live'
p51
F0.038288999999999997
sS'package'
p52
F0.019861
sS'technical'
p53
F0.012848999999999999
sS'technology company'
p54
F0.051846000000000003
sS'experience'
p55
F0.0025240000000000002
sS'initiate'
p56
F0.029767999999999999
sS'analysis'
p57
F0.0055360000000000001
sS'3+ year'
p58
F0.035628
sS'family'
p59
F0.021239999999999998
sS'revenue'
p60
F0.021239999999999998
sS'communication'
p61
F0.014066
sS"we're looking"
p62
F0.046282999999999998
sS'business question'
p63
F0.028171000000000002
sS'mba'
p64
F0.028171000000000002
sS'snapchat'
p65
F0.041230999999999997
sS'snap inc'
p66
F0.043381999999999997
sS'data mining'
p67
F0.012659
sS'apply'
p68
F0.0094889999999999992
sS'greatest opportunity'
p69
F0.041875000000000002
sS'quantitative analysis'
p70
F0.021770000000000001
sS'working'
p71
F0.014657
sS'data'
p72
F0.003297
sS'question'
p73
F0.015100000000000001
sS'transform'
p74
F0.019507
sS'live'
p75
F0.022051999999999999
sS'way'
p76
F0.010196999999999999
sS'degree preferred'
p77
F0.034229999999999997
sS'translate'
p78
F0.017243999999999999
sS'friend'
p79
F0.028535999999999999
sS'define'
p80
F0.013681
sS'business problem'
p81
F0.017315000000000001
sS'engineering team'
p82
F0.019123000000000001
sS'tasked'
p83
F0.034680999999999997
sS'reinventing'
p84
F0.038698999999999997
sS'data-focused role'
p85
F0.052748999999999997
sS'team snapchat'
p86
F0.052748999999999997
sS'believe'
p87
F0.013990000000000001
sS'communicate'
p88
F0.026377999999999999
sS'report dashboard'
p89
F0.037191000000000002
sS'see'
p90
F0.018009000000000001
sS'project'
p91
F0.0054710000000000002
sS'watch stories'
p92
F0.048065999999999998
sS'fun'
p93
F0.020045
sS'statistical analysis'
p94
F0.013325999999999999
sS'camera represents'
p95
F0.043381999999999997
sS'storytelling'
p96
F0.034917999999999998
sS'metric'
p97
F0.016934000000000001
sS'social medium'
p98
F0.023948000000000001
sS'150 million'
p99
F0.042587
sS'basic understanding'
p100
F0.029124000000000001
sS'math statistics economics'
p101
F0.043381999999999997
sS'collaborate'
p102
F0.011509
sS'expertise'
p103
F0.0090930000000000004
sS'manner'
p104
F0.022197000000000001
sS'partner'
p105
F0.010713
sS'fluency'
p106
F0.023355999999999998
sS'preferably'
p107
F0.019991999999999999
sS'excel'
p108
F0.018716
sS'build'
p109
F0.013180000000000001
sS'performance'
p110
F0.0098750000000000001
sS'product'
p111
F0.040814999999999997
sS'minimal guidance'
p112
F0.036861999999999999
sS'quantitative field'
p113
F0.019008000000000001
sS'r matlab etc'
p114
F0.048065999999999998
sS'sql'
p115
F0.0075139999999999998
sS'opportunity'
p116
F0.0067780000000000002
sS'short'
p117
F0.025142000000000001
sS'effective'
p118
F0.014973
sS'mobile'
p119
F0.018395000000000002
sS'clear'
p120
F0.018585999999999998
sS'well'
p121
F0.0079850000000000008
sS'drive'
p122
F0.0086779999999999999
sS'together'
p123
F0.018564000000000001
sS"you'll"
p124
F0.031049
sS'maintain'
p125
F0.012508
sS'presenting'
p126
F0.023668000000000002
sS'enterprise'
p127
F0.012517
sS'consumer'
p128
F0.014133
s.