(dp1
S'program'
p2
F0.028452000000000002
sS'3+ year'
p3
F0.095871999999999999
sS'production environment'
p4
F0.068433999999999995
sS'help'
p5
F0.036098999999999999
sS'computing'
p6
F0.064960000000000004
sS'quantitative discipline'
p7
F0.055992
sS'manage'
p8
F0.030549
sS'least one scripting language'
p9
F0.089391999999999999
sS'detection'
p10
F0.078098000000000001
sS'actively'
p11
F0.062615000000000004
sS'statistical analysis'
p12
F0.035859000000000002
sS'statistical'
p13
F0.027793000000000002
sS'data mining'
p14
F0.034063000000000003
sS'duration'
p15
F0.085743
sS'experience deploying model'
p16
F0.105309
sS'produce new'
p17
F0.103033
sS'really'
p18
F0.081685999999999995
sS'monitoring'
p19
F0.051085999999999999
sS'would'
p20
F0.049499000000000001
sS'strategy'
p21
F0.025655000000000001
sS'responsibilities'
p22
F0.022579999999999999
sS'internal team'
p23
F0.070816000000000004
sS'role'
p24
F0.018907
sS'build'
p25
F0.017732999999999999
sS'r python'
p26
F0.057414
sS'data science'
p27
F0.021559999999999999
sS'nice'
p28
F0.068275000000000002
sS'risk'
p29
F0.083255999999999997
sS'engineering computer science'
p30
F0.076047000000000003
sS'solid understanding'
p31
F0.060435000000000003
sS'qualifications'
p32
F0.021913999999999999
sS'masters degree preferred'
p33
F0.087936
sS'permanent'
p34
F0.093961000000000003
sS'produce'
p35
F0.055051000000000003
sS'background'
p36
F0.033332000000000001
sS'modeling'
p37
F0.030689000000000001
sS'bachelors degree preferably'
p38
F0.134572
sS'payment'
p39
F0.072935
sS'improve'
p40
F0.027370999999999999
sS'fraud'
p41
F0.073771000000000003
sS'mitigate risk'
p42
F0.109366
sS'effective'
p43
F0.040291
sS'industry'
p44
F0.020686
sS'work'
p45
F0.006332
sS'statistic'
p46
F0.033286000000000003
sS'solution'
p47
F0.012929
sS'experience'
p48
F0.0033960000000000001
sS'credit'
p49
F0.070278999999999994
sS'forecasting model'
p50
F0.096020999999999995
sS'analytical'
p51
F0.024767999999999998
sS'model'
p52
F0.018110000000000001
sS'data mining machine learning'
p53
F0.069585999999999995
s.