(dp1
S'nlp'
p2
F0.019158000000000001
sS'promote datarpm technology'
p3
F0.042199
sS'client facing experience'
p4
F0.034706000000000001
sS'-experience'
p5
F0.020945999999999999
sS'years'
p6
F0.022397
sS'client facing'
p7
F0.058476
sS'industrial'
p8
F0.020739
sS'including'
p9
F0.0045729999999999998
sS'creative'
p10
F0.012174000000000001
sS'1'
F0.014617
sS'big data'
p11
F0.0084169999999999991
sS'fraud predictions'
p12
F0.042199
sS'send'
p13
F0.023814999999999999
sS'well-funded start-up'
p14
F0.040008000000000002
sS'platform'
p15
F0.022284999999999999
sS'add'
p16
F0.021869
sS'3+ years'
p17
F0.025742999999999999
sS'integral part'
p18
F0.024693
sS'-coordinate'
p19
F0.042199
sS'data science'
p20
F0.012819000000000001
sS'computer science'
p21
F0.0084119999999999993
sS'insight'
p22
F0.0071780000000000004
sS'online'
p23
F0.014145
sS'scalable'
p24
F0.014817
sS'meta learning'
p25
F0.042199
sS'report'
p26
F0.0075290000000000001
sS'experienced data scientist'
p27
F0.022328000000000001
sS'masters'
p28
F0.015133000000000001
sS'competitive salary'
p29
F0.018825999999999999
sS'cognitive'
p30
F0.026575999999999999
sS'large scale'
p31
F0.017226000000000002
sS'-build'
p32
F0.033500000000000002
sS'solution'
p33
F0.0038440000000000002
sS'location redwood city'
p34
F0.045946000000000001
sS'benefit'
p35
F0.01128
sS'financial services'
p36
F0.022537000000000001
sS'recommendations'
p37
F0.037247000000000002
sS'spark mlilb'
p38
F0.042199
sS'data analytics'
p39
F0.011998999999999999
sS'salary 100-175k'
p40
F0.045946000000000001
sS'predictive'
p41
F0.025172
sS'requirement'
p42
F0.0068279999999999999
sS'product'
p43
F0.0081630000000000001
sS'job title data scientist'
p44
F0.023550999999999999
sS'operation'
p45
F0.0099649999999999999
sS'best'
p46
F0.0093360000000000005
sS'interacting'
p47
F0.025873
sS'amandawilson cybercoderscom'
p48
F0.036261000000000002
sS'data science recipe'
p49
F0.042199
sS'3'
F0.014956000000000001
sS'health'
p50
F0.013008
sS'offline'
p51
F0.023636999999999998
sS'way enterprises use'
p52
F0.042199
sS'sensor'
p53
F0.023382
sS'cross-functional team'
p54
F0.016743000000000001
sS'business'
p55
F0.0037130000000000002
sS'resume'
p56
F0.015664999999999998
sS'marketing'
p57
F0.018770999999999999
sS'team'
p58
F0.0020660000000000001
sS'data scientist'
p59
F0.0071419999999999999
sS'please read'
p60
F0.027744999999999999
sS'following'
p61
F0.0098139999999999998
sS'job'
p62
F0.0064349999999999997
sS'leadership'
p63
F0.018450999999999999
sS'deliver'
p64
F0.0073720000000000001
sS'brightest'
p65
F0.022259999999999999
sS'spark'
p66
F0.013220000000000001
sS'present result'
p67
F0.020893999999999999
sS'please apply today'
p68
F0.025250999999999999
sS'revolutionary'
p69
F0.028334999999999999
sS'could'
p70
F0.019352000000000001
sS'experience'
p71
F0.00101
sS'3+'
p72
F0.030959
sS'1+ year experience'
p73
F0.037247000000000002
sS'award-winning'
p74
F0.029489000000000001
sS'implement'
p75
F0.0076499999999999997
sS'pluses'
p76
F0.030632
sS'equivalent- preferred'
p77
F0.035428000000000001
sS'relevant'
p78
F0.0098279999999999999
sS'-big data analytics'
p79
F0.042199
sS'ca'
p80
F0.024693
sS'highly'
p81
F0.012354
sS'thought leader'
p82
F0.020441000000000001
sS'hadoop mahout lucene solr elasticsearch'
p83
F0.042199
sS'simply'
p84
F0.027744999999999999
sS'solving problem'
p85
F0.023137999999999999
sS'machine learning ai'
p86
F0.032514000000000001
sS'apply'
p87
F0.0075909999999999997
sS'research'
p88
F0.0063810000000000004
sS'engineer'
p89
F0.0092020000000000001
sS'clustering'
p90
F0.016792000000000001
sS'use'
p91
F0.0058469999999999998
sS'management'
p92
F0.0061120000000000002
sS'service'
p93
F0.0057720000000000002
sS'area'
p94
F0.0073419999999999996
sS'deep learning'
p95
F0.016670000000000001
sS'support'
p96
F0.0037000000000000002
sS'1+ year'
p97
F0.066779000000000005
sS'predictions'
p98
F0.042199
sS'fast'
p99
F0.020022999999999999
sS'next'
p100
F0.017905999999999998
sS'2'
F0.015115
sS'way'
p101
F0.016315
sS'maintenance'
p102
F0.030976
sS'machine learning algorithm'
p103
F0.014973
sS'company'
p104
F0.011021
sS'immediate'
p105
F0.022466
sS'great work environment'
p106
F0.023137999999999999
sS'part'
p107
F0.0073940000000000004
sS'understand'
p108
F0.0077000000000000002
sS'automated'
p109
F0.047666
sS'digitally transform'
p110
F0.042199
sS'customer'
p111
F0.0094479999999999998
sS'hire'
p112
F0.016232
sS'look'
p113
F0.017226000000000002
sS'spark ml'
p114
F0.034706000000000001
sS'work'
p115
F0.0018829999999999999
sS'us'
p116
F0.0091179999999999994
sS'machine learning'
p117
F0.0058589999999999996
sS'bachelors'
p118
F0.020159
sS'-interact'
p119
F0.045946000000000001
sS'product management'
p120
F0.016188000000000001
sS'providing'
p121
F0.0093609999999999995
sS'similar'
p122
F0.012246999999999999
sS'-conduct research'
p123
F0.042199
sS'-java scala'
p124
F0.042199
sS'collaborate'
p125
F0.018415000000000001
sS'need'
p126
F0.0058139999999999997
sS'technology'
p127
F0.0039230000000000003
sS'top reasons'
p128
F0.027383999999999999
sS'requirements'
p129
F0.0096740000000000003
sS'enhancing'
p130
F0.023299
sS'predictive modeling'
p131
F0.012723
sS'-'
F0.072792999999999997
sS'machine learning data analytics'
p132
F0.032514000000000001
sS'machine'
p133
F0.021805999999999999
sS'role'
p134
F0.0056210000000000001
sS'build'
p135
F0.0052719999999999998
sS'technology evangelist'
p136
F0.037247000000000002
sS"what's"
p137
F0.020022999999999999
sS'channel'
p138
F0.017555999999999999
sS'manufacturing telecom'
p139
F0.042199
sS'play'
p140
F0.014519000000000001
sS'content recommendations'
p141
F0.042199
sS'-be'
p142
F0.040008000000000002
sS'iot'
p143
F0.047101999999999998
sS'data streaming'
p144
F0.032514000000000001
sS'phd'
p145
F0.0086789999999999992
sS'revolutionizing'
p146
F0.029753000000000002
sS'data'
p147
F0.0052750000000000002
sS'working directly'
p148
F0.026428
sS'medical'
p149
F0.017416000000000001
sS'sale'
p150
F0.013559999999999999
sS'-data visualization'
p151
F0.042199
sS'client'
p152
F0.013814
sS'position'
p153
F0.005313
s.