(dp1
S'collaborative filter recommendations based'
p2
F0.073649999999999993
sS'including'
p3
F0.0079810000000000002
sS'committed'
p4
F0.01533
sS'portfolio'
p5
F0.025395999999999998
sS'integrity'
p6
F0.025117
sS'previous'
p7
F0.036743999999999999
sS'web'
p8
F0.022918999999999998
sS'based'
p9
F0.013979999999999999
sS'environment'
p10
F0.010921
sS'combing'
p11
F0.073649999999999993
sS'staffing'
p12
F0.039843000000000003
sS'consultancy service provider'
p13
F0.060572000000000001
sS'b'
F0.041406999999999999
sS'unique'
p14
F0.024504999999999999
sS'bought similar'
p15
F0.073649999999999993
sS"customer's"
p16
F0.043283000000000002
sS'solution'
p17
F0.0067080000000000004
sS'advantis global'
p18
F0.060572000000000001
sS'banking'
p19
F0.029263000000000001
sS'financial services'
p20
F0.039333
sS'best talent'
p21
F0.044928000000000003
sS'predictive analytics'
p22
F0.024479000000000001
sS'mathematical'
p23
F0.024899000000000001
sS'people'
p24
F0.012207000000000001
sS'work experience'
p25
F0.024582
sS'prediction'
p26
F0.034791000000000002
sS'fortune 500'
p27
F0.045387999999999998
sS'recommendation'
p28
F0.0378
sS'business'
p29
F0.0064809999999999998
sS'item'
p30
F0.045156000000000002
sS'increase'
p31
F0.032488999999999997
sS'across'
p32
F0.010544
sS'leading mid-market company'
p33
F0.060572000000000001
sS'creating'
p34
F0.019130000000000001
sS'energy'
p35
F0.029971999999999999
sS'team'
p36
F0.0036059999999999998
sS'understanding'
p37
F0.012123
sS'contextual recommendation recommendations based'
p38
F0.073649999999999993
sS'focused'
p39
F0.062297999999999999
sS'delivering'
p40
F0.021908
sS'united states advantis ha become'
p41
F0.060572000000000001
sS'wide array'
p42
F0.047203000000000002
sS'highest level'
p43
F0.037844000000000003
sS'talented'
p44
F0.027694
sS'industry'
p45
F0.010732999999999999
sS'experience'
p46
F0.0017619999999999999
sS'plus'
p47
F0.014482999999999999
sS'large amount'
p48
F0.034488999999999999
sS'retail'
p49
F0.087156999999999998
sS'data science'
p50
F0.011187000000000001
sS'throughout'
p51
F0.024766
sS'quality'
p52
F0.015779000000000001
sS'ecommerce'
p53
F0.039712999999999998
sS"nation's leading"
p54
F0.056746999999999999
sS'opportunity'
p55
F0.0094640000000000002
sS'create'
p56
F0.025346
sS'1+ year'
p57
F0.077699000000000004
sS'wwwadvantisglobalcom'
p58
F0.060572000000000001
sS'2'
F0.026380000000000001
sS'national'
p59
F0.033570000000000003
sS'today'
p60
F0.029479000000000002
sS'website'
p61
F0.056276
sS'enable'
p62
F0.021319999999999999
sS'company'
p63
F0.0096170000000000005
sS'analyze large amount'
p64
F0.037844000000000003
sS'tasked'
p65
F0.048422
sS'must'
p66
F0.039489999999999997
sS'made'
p67
F0.028524999999999998
sS'trusted advisor'
p68
F0.044706000000000003
sS'professional pursue'
p69
F0.060572000000000001
sS'machine learning'
p70
F0.010226000000000001
sS'behavior'
p71
F0.028604000000000001
sS'providing'
p72
F0.016337000000000001
sS'technology'
p73
F0.0068459999999999997
sS'retail telecommunications'
p74
F0.060572000000000001
sS'person'
p75
F0.025538999999999999
sS'able'
p76
F0.014599000000000001
sS'1'
F0.051020000000000003
sS'role'
p77
F0.0098099999999999993
sS'd2d'
p78
F0.061830999999999997
sS'top flight workforce'
p79
F0.060572000000000001
sS"end consumers' purchasing habit"
p80
F0.073649999999999993
sS'services'
p81
F0.025596000000000001
sS'data'
p82
F0.013811
sS'visit u'
p83
F0.051027999999999997
sS'algorithm'
p84
F0.035168999999999999
sS'sale'
p85
F0.023667000000000001
sS'e-commerce'
p86
F0.040953999999999997
sS'client'
p87
F0.012054
sS'healthcare'
p88
F0.021656999999999999
sS'joining'
p89
F0.032428999999999999
s.