(dp1
S'represent'
p2
F0.0063564429059251824
sS'global'
p3
F0.0059485701401331397
sS'four'
p4
F0.0052938323409223538
sS'go'
p5
F0.0046841617071823249
sVBusiness
p6
F0.0015453062102487346
sS'e-mail'
p7
F0.0080574706848918678
sS'technique'
p8
F0.0026071299853138333
sS'disability'
p9
F0.0027289308125930927
sS'send'
p10
F0.0056085338239048503
sS'296000'
p11
F0.013254017400809439
sS'environment'
p12
F0.0062314274463167304
sS'0'
F0.0069939899006037582
sS'matlab'
p13
F0.0018234302680543782
sS'presentation'
p14
F0.0070381552637417332
sS'software-design'
p15
F0.013254017400809439
sS'division'
p16
F0.0052094662636725944
sS'risk assessment'
p17
F0.0072261581974616754
sS'issue'
p18
F0.0035253634508350456
sS'solution'
p19
F0.0056865868805056332
sS'large'
p20
F0.002485749941068041
sS'race'
p21
F0.0029341650269328044
sS'excellence'
p22
F0.0039139097896428799
sS'team'
p23
F0.012617885326447687
sS'small'
p24
F0.0042928351732690381
sS'enhance'
p25
F0.0045848955420163947
sS'concise'
p26
F0.0062571211610965389
sS'190'
p27
F0.01011512621576195
sS'design'
p28
F0.0020863125857406824
sS'perspective'
p29
F0.0049228021205950318
sS'investment'
p30
F0.0053268000358418959
sS'what'
p31
F0.0036904650769344202
sS'business'
p32
F0.016793348047801197
sS'specification'
p33
F0.0054915878416830132
sS'new'
p34
F0.0037087474075753819
sS'boost'
p35
F0.0088382452716998794
sS'method'
p36
F0.0031219297367425596
sS'full'
p37
F0.0073986640888186756
sS'degree'
p38
F0.0017479767069674278
sS'commercial'
p39
F0.0044020197923895785
sS'delivering'
p40
F0.0037911674911463942
sS'china'
p41
F0.0095898056354418969
sS'maintenance.'
p42
F0.0099646113269298165
sS'consideration'
p43
F0.0036922340723383996
sS'strong'
p44
F0.0059032617102903195
sS'alto'
p45
F0.016518021743739099
sS'skills.'
p46
F0.010609474504441328
sS'ahead'
p47
F0.0068741601439496185
sS'technical'
p48
F0.013184849246749451
sS'30'
p49
F0.0057963907925932898
sS'storefront'
p50
F0.0099646113269298165
sS'amount'
p51
F0.0044463410373827622
sS'implement'
p52
F0.0030255188215994391
sS'guidance'
p53
F0.0045393354631966384
sS'tasks'
p54
F0.0063450599399611004
sVDoctor
p55
F0.0015559739596806687
sS'businessobjects'
p56
F0.011273597285532712
sS'apj'
p57
F0.0099646113269298165
sS'market'
p58
F0.01166794674145258
sS'use'
p59
F0.0024956715306715129
sS'from'
p60
F0.0061843791095140318
sS'usa'
p61
F0.0071847476975707815
sS'to'
p62
F0.0084902514953119936
sS'objectives'
p63
F0.0057285315172773453
sS"world's"
p64
F0.0039036106907572141
sS'generate'
p65
F0.0044705536238733865
sS'client.'
p66
F0.0087139435716438798
sS'type'
p67
F0.004010104238005999
sS'quality assurance'
p68
F0.0055750769569900714
sS'brings'
p69
F0.006003790325445831
sS'company'
p70
F0.0079994480102268343
sS'employees.'
p71
F0.0071445038546892031
sS'business process'
p72
F0.0043646898993139373
sS'excellent'
p73
F0.0028880675618479907
sS'project management'
p74
F0.0027163618904636373
sS'must'
p75
F0.0027599239336822249
sS'customer'
p76
F0.031727199089822862
sS'erp'
p77
F0.0066055165025774038
sS'ibm'
p78
F0.0068099444097157432
sS'this'
p79
F0.0022826268577932278
sS'science'
p80
F0.0010043341259915607
sS'challenge'
p81
F0.0034309114982522706
sS'work'
p82
F0.0097147164112160369
sS'qualifications/skills'
p83
F0.012263807276402949
sS'ms'
p84
F0.0039159785506528537
sS'learn'
p85
F0.0035717822307194604
sS'following'
p86
F0.01019652935403494
sS'meet'
p87
F0.0033646615266598894
sS'example'
p88
F0.010837250516920131
sS'stimulating'
p89
F0.0089744024043482522
sS'nearest'
p90
F0.017199194226935929
sS'dedicated'
p91
F0.0048733957520505026
sS'process'
p92
F0.0023802266813460478
sS'india'
p93
F0.0089744024043482522
sS'high'
p94
F0.015250735181001547
sS'effectively'
p95
F0.0067633001445047683
sS'information'
p96
F0.0019815788564705636
sS'goal'
p97
F0.0035997115167972593
sS'travel'
p98
F0.0037408443936773512
sS'point-of-sales'
p99
F0.013254017400809439
sS'pl/sql'
p100
F0.0078480379515468261
sS'machine'
p101
F0.0029053077550114915
sS'workbench/spss'
p102
F0.013254017400809439
sS'description'
p103
F0.0029093946956232383
sS'data'
p104
F0.0011860148787447291
sS'grow'
p105
F0.0043562121063041997
sS'efficiently'
p106
F0.0056993765205110691
sS'a'
F0.0053429768388972192
sS'applicant'
p107
F0.0062178559662527484
sS'appreciate'
p108
F0.0078808799869034881
sS'fluent'
p109
F0.006976243576998266
sS'algorithms'
p110
F0.0025631023976646484
sS'invests'
p111
F0.0092931783720813579
sS'operate'
p112
F0.0057658324838987338
sS'order'
p113
F0.0042373268308087764
sS'operations'
p114
F0.0044493452612763577
sS'maintenance'
p115
F0.0049958555098214659
sS'help'
p116
F0.0090910610683158505
sS'office'
p117
F0.0032202258567651616
sS'insight'
p118
F0.0026212762228706929
sS'disabilities.'
p119
F0.0073127642659146438
sS'attitude'
p120
F0.0054607326353451622
sS'scientist'
p121
F0.011311457901171957
sS'including'
p122
F0.0019640545583585779
sS'innovative'
p123
F0.0028941286005044072
sS'japan'
p124
F0.0098284540607455305
sS'developer'
p125
F0.0039097812346664601
sS'ethic'
p126
F0.0067788875530197688
sS'position'
p127
F0.0044476409507985407
sS'personal'
p128
F0.0039644062676206559
sS'expectations'
p129
F0.0075554758402666348
sS'better'
p130
F0.0038591566159135718
sS'warehousing/reporting/etl'
p131
F0.013254017400809439
sVManagement Science and Engineering
p132
F0.0018422064835269892
sS'qualified'
p133
F0.0032000179806791853
sS'sap erp'
p134
F0.0084937288488917337
sS'masters'
p135
F0.0036538134572477914
sS'name'
p136
F0.0068099444097157432
sS'careers.northamerica'
p137
F0.010283387561734867
sS'capability'
p138
F0.0034727955771485046
sS'reasonable'
p139
F0.010544538246615899
sS'gender'
p140
F0.0061458218523257118
sS'caliber'
p141
F0.0097041522271536541
sS'status'
p142
F0.00550881091292458
sS'square'
p143
F0.008095568047187687
sS'go-to-market'
p144
F0.0094839372373298637
sS'advantage.'
p145
F0.0087139435716438798
sS'energy'
p146
F0.0044078504372144058
sS'year'
p147
F0.0015172425538607166
sS'sexual'
p148
F0.0030603459118486607
sS'special'
p149
F0.0059598314807361562
sS'canada'
p150
F0.0062047873527984482
sS'ultimately'
p151
F0.0069242902002171376
sS'academia'
p152
F0.0074049616191118927
sS'adapt'
p153
F0.0057359141982555126
sS'problem-solving'
p154
F0.0053379605398282317
sS'sensor'
p155
F0.0062786035759765865
sS'high-performance'
p156
F0.0067040768128134708
sS'data scientist'
p157
F0.0015133880930912546
sS'asa'
p158
F0.0095898056354418969
sS'ase'
p159
F0.011684571541213279
sS'advisor'
p160
F0.0070672655013017758
sS'accommodation'
p161
F0.015040804298499313
sS'programming'
p162
F0.0031494720995282168
sS'americas'
p163
F0.0073127642659146438
sS'aspire'
p164
F0.0078808799869034881
sS'retail'
p165
F0.0049228021205950318
sS'solidly'
p166
F0.010954820917191523
sS'origin'
p167
F0.002955140287522212
sS'major'
p168
F0.0045014081625730376
sS'utilizes'
p169
F0.0073813484641457169
sS'directly'
p170
F0.0089594804189361173
sS'mathematical modeling'
p171
F0.0034002852576324898
sS'quality'
p172
F0.003096043521344937
sS'size'
p173
F0.012368758219028064
sS'little'
p174
F0.0060583912568400204
sS'leverage'
p175
F0.00797196994305472
sS'service'
p176
F0.0069764561091976473
sS'leading'
p177
F0.0025760066975344465
sS'recruiting'
p178
F0.0049269975008819876
sS'least'
p179
F0.0068914590031828038
sS'lifecycle'
p180
F0.0053951096825159217
sS'identity'
p181
F0.0032176841810953251
sS'advanced analytics'
p182
F0.0042040150776258339
sS'business problem'
p183
F0.0040687865173294922
sS'innovate'
p184
F0.0058276171067607619
sS'part'
p185
F0.0029414713789650193
sS'project'
p186
F0.012891593740097887
sS'matter'
p187
F0.0040573126539760942
sS'compensation'
p188
F0.0047494353431300059
sS'r'
F0.00079284615230563028
sS'providing'
p189
F0.003349264232197995
sS'supply chain optimization'
p190
F0.0083483254004853517
sS'san'
p191
F0.0044463410373827622
sS'willingness'
p192
F0.0055684785964432559
sS'navigate'
p193
F0.0069413989110343232
sS'emea'
p194
F0.0099646113269298165
sS'locations'
p195
F0.0059772530323730878
sS'manner'
p196
F0.0040504723163732785
sS'need'
p197
F0.0050815934066054738
sS'sap'
p198
F0.091774627172088202
sS'competency'
p199
F0.0061543032112635759
sS'strength'
p200
F0.0058434900188713114
sS'development/consulting'
p201
F0.013254017400809439
sS'veteran'
p202
F0.0028029559424651326
sS'predictive modeling'
p203
F0.0029700084409842427
sS'able'
p204
F0.0032906187089908933
sS'also'
p205
F0.0030288523115332465
sS'ideal'
p206
F0.0043118278706769436
sS'contact'
p207
F0.0047420336691329909
sS'performance'
p208
F0.005588867976020445
sS'competencies'
p209
F0.0068906754709873565
sS'location.'
p210
F0.0083029702507147231
sS'regular'
p211
F0.0046912687753199057
sS'germany'
p212
F0.0098284540607455305
sS'70'
p213
F0.0075554758402666348
sS'device'
p214
F0.0056921798054306747
sS'extremely'
p215
F0.0063004139833797938
sS'model'
p216
F0.0044211738340046878
sS'sql server'
p217
F0.0039968978132551743
sS'mobile'
p218
F0.0043090991181265479
sS'clear'
p219
F0.01387541414879077
sS'science.'
p220
F0.0071445038546892031
sS'sale'
p221
F0.0091565946299955632
sS'principle'
p222
F0.004817835062751236
sS'enterprise'
p223
F0.003484991564291647
sS'professional'
p224
F0.0090798873619456853
sS'physics'
p225
F0.0034758348249238047
sS'assistance'
p226
F0.0052145956560408031
sS'precise'
p227
F0.0070301579306535278
sS'supply chain'
p228
F0.0055359363664942143
sS'selection'
p229
F0.0059256130991266328
sS'strategic planning'
p230
F0.0049312052391067111
sS'self-dependency'
p231
F0.013254017400809439
sS'participate'
p232
F0.0042874547506205757
sS'supporter'
p233
F0.0092931783720813579
sS'execution'
p234
F0.012951903192187314
sS'based'
p235
F0.0028483049504336214
sS'explain'
p236
F0.0053268000358418959
sS'written'
p237
F0.002939380032996554
sS'candidates'
p238
F0.0053268000358418959
sS'employee'
p239
F0.0030706181406597588
sS'careers.apj'
p240
F0.0099646113269298165
sS'international'
p241
F0.016705435789329769
sS'db2'
p242
F0.0070861871202664399
sS'secondary'
p243
F0.0083483254004853517
sS'resolve'
p244
F0.0052938323409223538
sS'sustainably'
p245
F0.0092931783720813579
sS'c++'
p246
F0.0049524318777372416
sS'architecture'
p247
F0.0031243064609780833
sS'analytical'
p248
F0.0026389466930567466
sS'predictive'
p249
F0.0061320871643799207
sS'requirement'
p250
F0.0027271284655969721
sS'national'
p251
F0.0028385348971174153
sS'committed'
p252
F0.0032151470204237549
sS'analytics'
p253
F0.0012424820885478952
sS'result'
p254
F0.0026534132477744345
sS'needs.'
p255
F0.0062151018592259922
sV(2, 5]
p256
F0.0017699206120444792
sS'subject'
p257
F0.0038691390177537218
sS'brazil'
p258
F0.0104741465605194
sS'projects.'
p259
F0.0056017794700157393
sS'expert'
p260
F0.011940132025069506
sS'posse'
p261
F0.0053157260503304739
sS'please'
p262
F0.0032278781351586724
sS'outside'
p263
F0.0054485747743149007
sS'protected'
p264
F0.0030798114497089641
sS'across'
p265
F0.0023467166803217976
sS'we'
p266
F0.0053486361774854945
sS'ability'
p267
F0.0054388394423600332
sS'ph.d.'
p268
F0.0049914532625859979
sS'deliver'
p269
F0.011720026757138015
sS'job'
p270
F0.0040776269666953817
sS'premise'
p271
F0.0089744024043482522
sS'modeling'
p272
F0.0011602081271736464
sS'improve'
p273
F0.0030333091022180765
sS'c'
F0.0017866027484258534
sS'career'
p274
F0.013061813461466608
sS'country'
p275
F0.0048978853465537738
sS'equal'
p276
F0.0023865982996610561
sS'focused'
p277
F0.0038954245467119073
sS'requests'
p278
F0.0089744024043482522
sS"sap's"
p279
F0.019929222653859633
sS'project-related'
p280
F0.012263807276402949
sS'negotiation'
p281
F0.0062571211610965389
sS'and'
p282
F0.01135578847832636
sS'point'
p283
F0.0050360984179830042
sS'ca'
p284
F0.0054245651394248503
sS'data warehousing'
p285
F0.0043449860881204193
sS'maximize'
p286
F0.0058514931075496169
sS'considering'
p287
F0.0083951678709822675
sS'scientific analysis'
p288
F0.0086556265701509469
sS'java'
p289
F0.0017703813823832621
sS'basis'
p290
F0.0046149706390916879
sS'create'
p291
F0.0028220776732296822
sS'responsibility'
p292
F0.0033646615266598894
sS'quickly'
p293
F0.0091303831945966623
sS'pa'
p294
F0.0081347093053491405
sS'interest'
p295
F0.0041939196585669631
sS'expected'
p296
F0.014948067780804935
sS'pl'
p297
F0.0053212523121944216
sS'location'
p298
F0.0030983775218623804
sS'website'
p299
F0.0047236955557035379
sS'software development'
p300
F0.0030288523115332465
sS'enable'
p301
F0.004094358206127669
sS'diversity'
p302
F0.0036030335103796472
sS"customers'"
p303
F0.022666427520799906
sVData Science
p304
F0.0014675556894358037
sS'understand'
p305
F0.0030023997334918217
sS'present'
p306
F0.0039990904221814021
sS'these'
p307
F0.0051542261023055629
sS'as'
p308
F0.0029414713789650193
sS'value'
p309
F0.0026611317544168846
sS'optimization algorithms'
p310
F0.0083951678709822675
sS'receive'
p311
F0.0035997115167972593
sS'optimization'
p312
F0.0028571555105550601
sS'guide'
p313
F0.0048256412163621542
sS'sap.com'
p314
F0.039858445307719266
sS'solve problem'
p315
F0.0058757749589024022
sS'orientation'
p316
F0.0060157408600472074
sS'experience'
p317
F0.0048377471095961602
sS'in'
p318
F0.0030155647814010121
sS'technology'
p319
F0.0072441943228406429
sS'id'
p320
F0.005516761023763141
sS'if'
p321
F0.0034104212129380464
sS'capture'
p322
F0.0054978396718635553
sS'develop'
p323
F0.0043505469201988306
sS'complex'
p324
F0.0047031097006053702
sS'conflict'
p325
F0.0076654196506041796
sS'development'
p326
F0.017299442891630264
sS'case-by-case'
p327
F0.0090476784056515436
sS'000'
p328
F0.0040504723163732785
sS'purpose'
p329
F0.00500914424159935
sS't-sql'
p330
F0.0068741601439496185
sS'opportunity'
p331
F0.0072290413293745514
sS'expand'
p332
F0.006134598732429236
sS'center'
p333
F0.0046422462262938873
sS'database'
p334
F0.0084374544167974928
sS'analysis'
p335
F0.00048945531679161418
sS'person'
p336
F0.0041615937685446688
sS'without'
p337
F0.0031763866680456091
sS'solve'
p338
F0.003317596470855856
sS'etl'
p339
F0.0040710923914502612
sS'english'
p340
F0.0048256412163621542
sS'organization'
p341
F0.0050376681122333749
sS'the'
p342
F0.0035004937153635053
sS'dimension'
p343
F0.0080203629807087517
sS'sap hana'
p344
F0.0086556265701509469
sS'-'
F0.0028414589017372537
sS'competitive'
p345
F0.003628197832334863
sS'abap'
p346
F0.0092931783720813579
sS'skill'
p347
F0.0089610352926413235
sS'jose'
p348
F0.0089744024043482522
sS'intersection'
p349
F0.0075554758402666348
sS'candidate'
p350
F0.005588867976020445
sS'application'
p351
F0.015446323613353683
sS'attractive'
p352
F0.0082590108718695494
sS'desktop'
p353
F0.0071053627300626905
sVComputer Science
p354
F0.0012933653519317111
sS'boardroom'
p355
F0.0092931783720813579
sS'profitably'
p356
F0.0097041522271536541
sS'data science'
p357
F0.0017183441795151418
sS'around'
p358
F0.0034118750962607155
sS'execute'
p359
F0.0044583960298981429
sS'required.'
p360
F0.0053951096825159217
sS'careers.latinamerica'
p361
F0.0099646113269298165
sS'background'
p362
F0.0030524071674608573
sS'world'
p363
F0.002967874919085174
sS'unique'
p364
F0.0081840289951485689
sS'server'
p365
F0.0055488644358841393
sS'facing'
p366
F0.0059598314807361562
sS'audience'
p367
F0.0041566848506047844
sS'mathematical'
p368
F0.012596875348173936
sS'verbal'
p369
F0.0036746419410429157
sS'people'
p370
F0.0026021704639583609
sS'back'
p371
F0.0054791656702248117
sS'experienced'
p372
F0.0086346021281248752
sVMaster
p373
F0.0010389724074631099
sS'examples'
p374
F0.0081347093053491405
sS'palo'
p375
F0.0082590108718695494
sS'statistic'
p376
F0.0030366608457729123
sS'pala'
p377
F0.013254017400809439
sS'employment'
p378
F0.010769719304817352
sS'specific'
p379
F0.0039622662188328866
sS'and/or'
p380
F0.0025988736591531524
sS'for'
p381
F0.003719035321522774
sS'/'
F0.0032946330317065891
sS'religion'
p382
F0.0029710763983020992
sS'cloud'
p383
F0.0035300960355785396
sS'provides'
p384
F0.0035427934636882885
sS'innovation'
p385
F0.0055309276346706387
sS'leader'
p386
F0.0030355427237147895
sS'run'
p387
F0.0054186252584600657
sS'scientific'
p388
F0.018500552198387692
sS'power'
p389
F0.0041838950888856722
sS'equivalent'
p390
F0.0033604457763242103
sS'communicate'
p391
F0.0057321225208045489
sS'leadership'
p392
F0.0070817512337306666
sS'122757'
p393
F0.013254017400809439
sS'working'
p394
F0.001865167304411052
sS'industry'
p395
F0.0093483569600755143
sS'competition.'
p396
F0.0095898056354418969
sS'spss'
p397
F0.003151926901225093
sVPhysics
p398
F0.0037481887160001294
sS'range'
p399
F0.0036520913826946773
sS'ensure'
p400
F0.0033244212888877823
sS'data analytics'
p401
F0.0029176038306939957
sS'microsoft office'
p402
F0.0027434320641326051
sS'powerpoint'
p403
F0.0034957491527632177
sS'software'
p404
F0.01148940743130201
sS'soa'
p405
F0.0062254913818757997
sS'consulting'
p406
F0.0032278781351586724
sS'within'
p407
F0.0026046480717173445
sS'commitment'
p408
F0.0049354254082852444
sS'intellectual'
p409
F0.0063564429059251824
sS'harness'
p410
F0.0073581192821501433
sS'simplification.'
p411
F0.0099646113269298165
sS'analysis.'
p412
F0.0060676978104787626
sS'.'
F0.0035097004687395465
sS'mental'
p413
F0.0048815123899401455
sS'additional'
p414
F0.0037518750869375609
sS'area'
p415
F0.014115202567055112
sS'segment'
p416
F0.0061642583196091913
sS'custom'
p417
F0.02842509582465429
sS'translate'
p418
F0.0085588438522637283
sS'complete'
p419
F0.0049524318777372416
sS'offer'
p420
F0.005978709861280674
sS'regard'
p421
F0.0034147873101980845
sS'delivery'
p422
F0.0036130461013581523
sS'newtown'
p423
F0.013254017400809439
sS'with'
p424
F0.0041689889224996342
sS'applying'
p425
F0.0041275804255306407
sS'algorithm'
p426
F0.0027003627041064363
sS'us'
p427
F0.0034591984288559192
sS'lead'
p428
F0.0027507382826651083
sS'considered'
p429
F0.0045750095956882684
sS'continuously'
p430
F0.0056921798054306747
sS'problem'
p431
F0.0025639055092819434
sS'aa'
p432
F0.0079841948171241531
sS'defined'
p433
F0.0061742832898727274
sS'request'
p434
F0.0045848955420163947
sS'sales'
p435
F0.0047494353431300059
sS'proven'
p436
F0.0037426769370263284
sS'an'
p437
F0.0051591605900129928
sS'engineering'
p438
F0.0017497925386766495
sS'diverse'
p439
F0.0064404517135303232
sS'expertise'
p440
F0.0053936630787835387
sS'at'
p441
F0.0029572548564410811
sVMathematics
p442
F0.0024489607565463599
sS'physical'
p443
F0.0041469173368956624
sS'no'
p444
F0.0043145618459789915
sS'excel'
p445
F0.0023099346097229505
sS'sybase'
p446
F0.0086556265701509469
sS'interested'
p447
F0.0051395240942799332
sS'role'
p448
F0.004794562498073124
sS'computer science'
p449
F0.0020085475188388866
sS'methodology.'
p450
F0.0095898056354418969
sS'warehouse'
p451
F0.0051249718587249842
sS'mathematics'
p452
F0.0078338283517534538
sS'delivered'
p453
F0.0063450599399611004
sS'stay'
p454
F0.0055684785964432559
sS'helping'
p455
F0.0081981143828558836
sS'm/f/vet/disability'
p456
F0.008174953281765698
sS'communication skills'
p457
F0.0052616083600858909
sS'sql'
p458
F0.00097420551261863874
sS'empowers'
p459
F0.0074782373533445155
sS'n-tier'
p460
F0.010954820917191523
sS'eoe'
p461
F0.0056017794700157393
sS'non-scientific'
p462
F0.012263807276402949
sS'age'
p463
F0.0032138801282056654
sS'required'
p464
F0.0023261653464131489
sS'together'
p465
F0.0037798303643137203
sS'requisition'
p466
F0.0055359363664942143
sS'time'
p467
F0.005391900221503574
sS'oracle'
p468
F0.0037500307122304596
sS'requires'
p469
F0.0043366240954937811
s.