(dp1
S'global'
p2
F0.007123
sS'focus'
p3
F0.0040810000000000004
sS'invent'
p4
F0.0098399999999999998
sS'query'
p5
F0.0058050000000000003
sS'wwwdhsgov e-verify'
p6
F0.017562000000000001
sS'integrity'
p7
F0.0055009999999999998
sS'short term std'
p8
F0.017562000000000001
sS'depend'
p9
F0.013860000000000001
sS'disability'
p10
F0.0047019999999999996
sS'encourage'
p11
F0.0075370000000000003
sS'environment'
p12
F0.002392
sS'program'
p13
F0.0097000000000000003
sS'include'
p14
F0.0038600000000000001
sS'data-driven'
p15
F0.0057980000000000002
sS'smartphone'
p16
F0.016129999999999999
sS'supercomputer'
p17
F0.017562000000000001
sS'job requirements'
p18
F0.0076880000000000004
sS'employment arms benefit'
p19
F0.017562000000000001
sS'interpreting'
p20
F0.009103
sS'customer first'
p21
F0.0089370000000000005
sS'silicon chip'
p22
F0.017562000000000001
sS'solution'
p23
F0.0029380000000000001
sS'annual bonus'
p24
F0.011479
sS'team'
p25
F0.0031589999999999999
sS'small'
p26
F0.0057910000000000001
sS'revolution'
p27
F0.012109
sS'gaussian process'
p28
F0.017562000000000001
sS'cost'
p29
F0.0062820000000000003
sS'design'
p30
F0.003418
sS'perspective'
p31
F0.0059129999999999999
sS'sick leave'
p32
F0.017562000000000001
sS'advanced energy-efficient processor design'
p33
F0.017562000000000001
sS'business forward'
p34
F0.011176
sS'sex age national origin religion'
p35
F0.012607999999999999
sS'applied statistic'
p36
F0.0098399999999999998
sS'experiment'
p37
F0.0053839999999999999
sS'designing'
p38
F0.0049719999999999999
sS'shared'
p39
F0.0081099999999999992
sS'degree'
p40
F0.0046769999999999997
sS'understanding'
p41
F0.0053099999999999996
sS'behaviour'
p42
F0.035124000000000002
sS'refinement'
p43
F0.0088749999999999992
sS'spotting opportunity'
p44
F0.017562000000000001
sS'100'
p45
F0.013854
sS'change'
p46
F0.003764
sS'software development'
p47
F0.005019
sS'healthy'
p48
F0.0094380000000000002
sS'economics'
p49
F0.006574
sS'experience'
p50
F0.001544
sS'social'
p51
F0.0058050000000000003
sS'family'
p52
F0.0064949999999999999
sS'highly'
p53
F0.0047219999999999996
sS'analyzing'
p54
F0.0057029999999999997
sS'inclusive meritocratic'
p55
F0.017562000000000001
sS'manipulate'
p56
F0.0083829999999999998
sS'working'
p57
F0.0067229999999999998
sS'positive'
p58
F0.0068209999999999998
sS'86 billion'
p59
F0.017562000000000001
sS'asset'
p60
F0.006437
sS'6'
F0.007986
sS'talented data scientist'
p61
F0.010401000000000001
sS'type'
p62
F0.0055009999999999998
sS'race color'
p63
F0.010215999999999999
sS'sharing'
p64
F0.015306999999999999
sS'engineering team'
p65
F0.0058479999999999999
sS'particular'
p66
F0.0080680000000000005
sS'striving'
p67
F0.013860000000000001
sS'science'
p68
F0.0046249999999999998
sS'work'
p69
F0.00072000000000000005
sS'machine learning'
p70
F0.0044790000000000003
sS'development whilst also'
p71
F0.017562000000000001
sS'learn'
p72
F0.0078689999999999993
sS'following'
p73
F0.003751
sS'heart'
p74
F0.014855
sS'dedicated'
p75
F0.01187
sS'multi-objective optimisation'
p76
F0.017562000000000001
sS'chip'
p77
F0.017562000000000001
sS'share'
p78
F0.0055929999999999999
sS'want'
p79
F0.0040210000000000003
sS'sense'
p80
F0.007489
sS'panda scikit-learn'
p81
F0.015292
sS'information'
p82
F0.0071590000000000004
sS'thing'
p83
F0.00613
sS'mathematics statistic'
p84
F0.0090019999999999996
sS'travel'
p85
F0.0047099999999999998
sS'tableau'
p86
F0.0052839999999999996
sS'hypothesis testing'
p87
F0.0091369999999999993
sS'product'
p88
F0.00156
sS'complex business problem'
p89
F0.010912
sS'transforming'
p90
F0.00762
sS'different'
p91
F0.0050530000000000002
sS'collection'
p92
F0.0070889999999999998
sS'reflect'
p93
F0.012805
sS'connectivity'
p94
F0.012805
sS'federal state'
p95
F0.0095209999999999999
sS'grow'
p96
F0.0046690000000000004
sS'work closely'
p97
F0.0041900000000000001
sS'applicant'
p98
F0.0052199999999999998
sS'operate'
p99
F0.0066259999999999999
sS'impactful'
p100
F0.0095639999999999996
sS'office'
p101
F0.0080009999999999994
sS'insight'
p102
F0.0027439999999999999
sS'existing data source'
p103
F0.0092090000000000002
sS'application aiding data-driven decision-making'
p104
F0.017562000000000001
sS'including'
p105
F0.001748
sS'innovative'
p106
F0.0070569999999999999
sS'recently expanded'
p107
F0.016129999999999999
sS'group'
p108
F0.0036679999999999998
sS'personal'
p109
F0.0056769999999999998
sS'turning data'
p110
F0.012607999999999999
sS'permanent'
p111
F0.010677000000000001
sS'primary focus'
p112
F0.0096520000000000009
sS'defining'
p113
F0.0065640000000000004
sS'seeking'
p114
F0.0037200000000000002
sS'python'
p115
F0.0030860000000000002
sS'can-do attitude'
p116
F0.012607999999999999
sS'day'
p117
F0.0058760000000000001
sS'verifying'
p118
F0.010753
sS'fitness'
p119
F0.012428
sS'status'
p120
F0.0046690000000000004
sS'dismemberment insurance'
p121
F0.017562000000000001
sS'defy ordinary'
p122
F0.017562000000000001
sS'event'
p123
F0.0060260000000000001
sS'network'
p124
F0.0043280000000000002
sS'driving'
p125
F0.020271000000000001
sS'research'
p126
F0.0024390000000000002
sS'looking'
p127
F0.0028010000000000001
sS'computer science physic'
p128
F0.014237
sS'acting'
p129
F0.010534999999999999
sS'health'
p130
F0.0049719999999999999
sS'7'
F0.0076880000000000004
sS'internet'
p131
F0.0067320000000000001
sS'sensor'
p132
F0.0089370000000000005
sS'data science team'
p133
F0.012178
sS'workflow'
p134
F0.0065640000000000004
sS'20'
p135
F0.007927
sS'extraordinary'
p136
F0.012428
sS'put'
p137
F0.0073670000000000003
sS'flexible spending accounts'
p138
F0.012805
sS'partner'
p139
F0.013103
sS'benefits'
p140
F0.0060569999999999999
sS'keen'
p141
F0.010605
sS'qualification'
p142
F0.0062040000000000003
sS'ltd'
p143
F0.016129999999999999
sS'view'
p144
F0.006574
sS'recruitment process'
p145
F0.013542
sS'first'
p146
F0.0049030000000000002
sS'possessing'
p147
F0.012263
sS'encouraging'
p148
F0.013542
sS'hear'
p149
F0.0083590000000000001
sS'open'
p150
F0.011224
sS'management'
p151
F0.002336
sS'service'
p152
F0.0022060000000000001
sS'day per year'
p153
F0.040625000000000001
sS'participates'
p154
F0.0073080000000000003
sS'system'
p155
F0.0018990000000000001
sS'cutting edge'
p156
F0.0060730000000000003
sS'listen'
p157
F0.010677000000000001
sS'excellent'
p158
F0.004261
sS'option'
p159
F0.0077949999999999998
sS'part'
p160
F0.0056519999999999999
sS'1 000'
p161
F0.013266
sS'team member'
p162
F0.00413
sS'benefit package'
p163
F0.0079469999999999992
sS'13'
p164
F0.013266
sS'project'
p165
F0.001673
sS'persuade'
p166
F0.012263
sS'willingness'
p167
F0.012912
sS'need'
p168
F0.0044450000000000002
sS'built'
p169
F0.0065050000000000004
sS'veteran'
p170
F0.0086420000000000004
sS'take'
p171
F0.004261
sS'natural language processing'
p172
F0.0059049999999999997
sS'performance'
p173
F0.0030200000000000001
sS'deploy'
p174
F0.012292000000000001
sS'collaboration'
p175
F0.0040660000000000002
sS'paid'
p176
F0.007927
sS'connected'
p177
F0.0080890000000000007
sS'plan'
p178
F0.0039290000000000002
sS'assessed'
p179
F0.014697999999999999
sS'model'
p180
F0.0020579999999999999
sS'proud'
p181
F0.0055370000000000003
sS'drive'
p182
F0.0079609999999999993
sS'principle'
p183
F0.0056639999999999998
sS'sabbatical 20'
p184
F0.017562000000000001
sS'professional'
p185
F0.0036380000000000002
sS'consumer'
p186
F0.0043220000000000003
sS'urgency'
p187
F0.0094380000000000002
sS'sexual orientation gender identity'
p188
F0.0075209999999999999
sS'carefully'
p189
F0.012607999999999999
sS'd3js etc'
p190
F0.013860000000000001
sS'impact'
p191
F0.007247
sS'employee'
p192
F0.011108
sS'accidental death'
p193
F0.014237
sS'local'
p194
F0.0068329999999999997
sS'dependent'
p195
F0.0096520000000000009
sS'hierarchical model random forest'
p196
F0.017562000000000001
sS'customer focus'
p197
F0.0085869999999999991
sS'truly'
p198
F0.0092090000000000002
sS'wellness'
p199
F0.0094789999999999996
sS'communicate clearly'
p200
F0.010534999999999999
sS'architecture'
p201
F0.0040010000000000002
sS'eligible earnings'
p202
F0.017562000000000001
sS'tensorflow nltk networkx h2o'
p203
F0.017562000000000001
sS'set'
p204
F0.0044079999999999996
sS'intelligence'
p205
F0.0052950000000000002
sS'discretionary cash'
p206
F0.017562000000000001
sS'culture'
p207
F0.004228
sS'result'
p208
F0.0053379999999999999
sS'arm'
p209
F0.102353
sS'subject'
p210
F0.0059950000000000003
sS'lasting relationship'
p211
F0.015292
sS'future'
p212
F0.0031470000000000001
sS'tendency'
p213
F0.017562000000000001
sS'infrastructure'
p214
F0.0042319999999999997
sS'ability'
p215
F0.0058669999999999998
sS'high quality'
p216
F0.0068560000000000001
sS'deliver'
p217
F0.0056360000000000004
sS'information please refer'
p218
F0.017562000000000001
sS'succeed'
p219
F0.0077949999999999998
sS'awards'
p220
F0.015292
sS'invisible'
p221
F0.016129999999999999
sS'rapidly'
p222
F0.0080269999999999994
sS'spark'
p223
F0.0050530000000000002
sS'people live'
p224
F0.011708
sS'accident'
p225
F0.012109
sS'talented'
p226
F0.0060650000000000001
sS'enabling'
p227
F0.013421000000000001
sS'etc'
p228
F0.0059500000000000004
sS'workplace'
p229
F0.0042839999999999996
sS'contribution'
p230
F0.0066680000000000003
sS'bayesian statistic'
p231
F0.011967
sS'four-years'
p232
F0.014237
sS'data science'
p233
F0.0097999999999999997
sS'others'
p234
F0.0041960000000000001
sS'reinforcement learning'
p235
F0.013022000000000001
sS'community'
p236
F0.0112
sS'trust'
p237
F0.0081530000000000005
sS'ensures'
p238
F0.0074120000000000002
sS'basis'
p239
F0.0063090000000000004
sS'create'
p240
F0.0027759999999999998
sS'creativity'
p241
F0.0063
sS'vacation'
p242
F0.0096970000000000008
sS'validating'
p243
F0.0097909999999999994
sS'information gathered'
p244
F0.014237
sS'every four-years'
p245
F0.017562000000000001
sS'basic'
p246
F0.0061619999999999999
sS'prototype'
p247
F0.010779
sS'life'
p248
F0.0068320000000000004
sS'achieve win-win solution'
p249
F0.017562000000000001
sS'commuter'
p250
F0.014697999999999999
sS'data visualisation tool'
p251
F0.013860000000000001
sS'understand'
p252
F0.0029429999999999999
sS'bayesian'
p253
F0.010158
sS'regression classification'
p254
F0.011834000000000001
sS'smartphones'
p255
F0.013542
sS'developing'
p256
F0.0027950000000000002
sS'excited'
p257
F0.0070000000000000001
sS'overcome obstacle'
p258
F0.012607999999999999
sS'guide'
p259
F0.0058329999999999996
sS'site'
p260
F0.0063179999999999998
sS'statistical analysis'
p261
F0.0040749999999999996
sS'long term'
p262
F0.0080269999999999994
sS'sits'
p263
F0.017562000000000001
sS'technology'
p264
F0.0059969999999999997
sS'confirmed'
p265
F0.016129999999999999
sS'develop'
p266
F0.0016119999999999999
sS'machine learning technique'
p267
F0.0059950000000000003
sS'development'
p268
F0.0013860000000000001
sS'business stakeholder'
p269
F0.015173000000000001
sS'iot'
p270
F0.0090019999999999996
sS'upon'
p271
F0.0081320000000000003
sS'holidays'
p272
F0.013266
sS'cleaning'
p273
F0.010215999999999999
sS'opportunity'
p274
F0.0020730000000000002
sS'tracking'
p275
F0.0071549999999999999
sS'youre'
p276
F0.0084829999999999992
sS'analysis'
p277
F0.0016930000000000001
sS'accountable'
p278
F0.0082199999999999999
sS'position'
p279
F0.0020309999999999998
sS'docker'
p280
F0.0098399999999999998
sS'nosql'
p281
F0.0063350000000000004
sS'valuable'
p282
F0.00728
sS'shape'
p283
F0.021925
sS'stored'
p284
F0.011967
sS'rapidly growing'
p285
F0.0090349999999999996
sS'skill'
p286
F0.003813
sS"arm's second"
p287
F0.017562000000000001
sS'web'
p288
F0.005019
sS'tablet'
p289
F0.012805
sS'deploy web-apps flask django javascript'
p290
F0.017562000000000001
sS'location'
p291
F0.0041580000000000002
sS'usage'
p292
F0.0068100000000000001
sS'role'
p293
F0.0064460000000000003
sS'used wisely'
p294
F0.017562000000000001
sS'fostering'
p295
F0.010467000000000001
sS'around'
p296
F0.0083540000000000003
sS'desired behaviour'
p297
F0.017562000000000001
sS'evaluate'
p298
F0.0047559999999999998
sS'cambridge uk'
p299
F0.017562000000000001
sS'advocate'
p300
F0.0086979999999999991
sS'world'
p301
F0.012518
sS'unique'
p302
F0.010732999999999999
sS'famous business'
p303
F0.017562000000000001
sS'success'
p304
F0.0036649999999999999
sS'performing'
p305
F0.0063449999999999999
sS'server'
p306
F0.0077949999999999998
sS'benefit'
p307
F0.0043109999999999997
sS'passionate'
p308
F0.004215
sS'people'
p309
F0.010694
sS'quantitative discipline'
p310
F0.0063629999999999997
sS'good understanding'
p311
F0.0078689999999999993
sS'volunteering four'
p312
F0.017562000000000001
sS'statistic'
p313
F0.0037820000000000002
sS'curious'
p314
F0.0070000000000000001
sS'employment'
p315
F0.0099349999999999994
sS'securely powering'
p316
F0.017562000000000001
sS'large datasets using'
p317
F0.012263
sS'data used'
p318
F0.0093200000000000002
sS'decision'
p319
F0.0035500000000000002
sS'passion'
p320
F0.0040270000000000002
sS'cloud'
p321
F0.004522
sS'provides'
p322
F0.0045399999999999998
sS'innovation'
p323
F0.00645
sS'unmissable'
p324
F0.017562000000000001
sS'business'
p325
F0.0056769999999999998
sS'marketing'
p326
F0.0035869999999999999
sS'processing'
p327
F0.0052680000000000001
sS'common data science toolkits'
p328
F0.010829999999999999
sS'hour per month teamarm'
p329
F0.017562000000000001
sS'usa'
p330
F0.010215999999999999
sS'package'
p331
F0.0060730000000000003
sS'ensure'
p332
F0.0034650000000000002
sS'software'
p333
F0.0021090000000000002
sS'consulting'
p334
F0.0051630000000000001
sS'facility'
p335
F0.0081099999999999992
sS'communication'
p336
F0.0086029999999999995
sS'promise'
p337
F0.010829999999999999
sS'dependent caf'
p338
F0.017562000000000001
sS'clustering'
p339
F0.0064180000000000001
sS'dependent care eap health'
p340
F0.017562000000000001
sS'git'
p341
F0.0084829999999999992
sS'additional'
p342
F0.0056119999999999998
sS'area'
p343
F0.0028059999999999999
sS'continuous improvement'
p344
F0.0077949999999999998
sS'way'
p345
F0.0031180000000000001
sS'buy'
p346
F0.007986
sS'offer'
p347
F0.0033240000000000001
sS'brand'
p348
F0.0051320000000000003
sS'job description'
p349
F0.0041799999999999997
sS'medical dental vision'
p350
F0.0095209999999999999
sS'deployed'
p351
F0.0088140000000000007
sS'compute'
p352
F0.013860000000000001
sS'inside'
p353
F0.0082880000000000002
sS'e-verify'
p354
F0.0093200000000000002
sS'demonstrate'
p355
F0.0055129999999999997
sS'marketplace'
p356
F0.0078130000000000005
sS'gather'
p357
F0.0073229999999999996
sS'ad'
p358
F0.0070130000000000001
sS'computing'
p359
F0.0073819999999999997
sS'influence'
p360
F0.005378
sS'equal opportunity employer'
p361
F0.0038709999999999999
sS'engineering'
p362
F0.0027899999999999999
sS'diverse'
p363
F0.0040359999999999997
sS'expertise'
p364
F0.0027799999999999999
sS'high performance computing'
p365
F0.0097909999999999994
sS'new data'
p366
F0.0085869999999999991
sS'help u'
p367
F0.0061879999999999999
sS'inc'
p368
F0.0075859999999999999
sS'mutual'
p369
F0.014237
sS'discriminate'
p370
F0.007489
sS"arm's success"
p371
F0.017562000000000001
sS'lstms'
p372
F0.017562000000000001
sS'matching'
p373
F0.0087550000000000006
sS'5'
F0.0064559999999999999
sS'forge'
p374
F0.011372999999999999
sS'nice'
p375
F0.0077590000000000003
sS'protected class'
p376
F0.0090349999999999996
sS'disability insurance'
p377
F0.010996000000000001
sS'may'
p378
F0.0040540000000000003
sS'favourite'
p379
F0.017562000000000001
sS'stay'
p380
F0.0079469999999999992
sS'equivalent experience'
p381
F0.0058050000000000003
sS'401 k'
p382
F0.0083829999999999998
sS'coverage'
p383
F0.0087550000000000006
sS'sql'
p384
F0.0022980000000000001
sS'building'
p385
F0.0026919999999999999
sS'happening'
p386
F0.013022000000000001
sS'algorithm'
p387
F0.0025669999999999998
sS'bay area'
p388
F0.012428
sS'work together'
p389
F0.0082199999999999999
sS'business strategy'
p390
F0.007705
sS'unit testing'
p391
F0.0092449999999999997
sS'time'
p392
F0.0031350000000000002
s.