(dp1
S'digital marketing'
p2
F0.011379167153327272
sS'all'
p3
F0.015384612125955616
sS'help'
p4
F0.0049102953301088702
sS'office'
p5
F0.0069572780856037436
sS'prepackaged'
p6
F0.025244444687806466
sS'visitor'
p7
F0.017408115677235516
sS'insight'
p8
F0.016989753296384122
sS'competitive'
p9
F0.0078386990204765555
sS'bring'
p10
F0.0076063350203432354
sS'including'
p11
F0.0084866554990802746
sS'statistical'
p12
F0.0064189922185539173
sS'touch'
p13
F0.014996849499148228
sS'follow'
p14
F0.011437292094585331
sS'skill'
p15
F0.0038720522869437816
sS'warehouses'
p16
F0.02185366775010298
sS'find'
p17
F0.0087314252088342061
sS'impact'
p18
F0.0069190428062997789
sS'access'
p19
F0.0071588334107915265
sS'snack'
p20
F0.013450135701583517
sS'based'
p21
F0.0061537452632825151
sS'knowledge'
p22
F0.0042788809976614852
sVBusiness
p23
F0.0033386245283151669
sS'la'
p24
F0.018957777842883647
sS'personal'
p25
F0.0085650752695507985
sS'disability'
p26
F0.0058958381753554468
sS'employer'
p27
F0.013640430992719067
sS'platform'
p28
F0.011737366193361395
sS'program'
p29
F0.0067092029235023692
sS'occasion.'
p30
F0.026495879918154518
sS'categories'
p31
F0.025244444687806466
sS'money'
p32
F0.013317842048538376
sS'main'
p33
F0.014241922534951025
sS'match'
p34
F0.012191219672999722
sS'network.'
p35
F0.017408115677235516
sS'activities'
p36
F0.015110472007477255
sS'executive'
p37
F0.0095105365884960019
sS'attribution'
p38
F0.015897171288595986
sS'finance'
p39
F0.0081948952289620011
sS'get'
p40
F0.0089699225971685542
sS'python'
p41
F0.001608800965287858
sS'kind'
p42
F0.01575132991691092
sS'choice'
p43
F0.012573525964183315
sS'qualified'
p44
F0.0069136190940599675
sS'every'
p45
F0.0074284286997591082
sS'background'
p46
F0.0065947068432796298
sS'using'
p47
F0.013879507624614242
sS'ticket'
p48
F0.017751403520475696
sS'one'
p49
F0.0050507479511366846
sS'recipient'
p50
F0.023105102403442834
sS'day'
p51
F0.008146036143804096
sS'advanced'
p52
F0.0054757437774134296
sS'wellness-focused'
p53
F0.026495879918154518
sS'tobacco'
p54
F0.022629328988776481
sS'level'
p55
F0.012030004921188683
sS'gender'
p56
F0.0066390050873888851
sS'country.'
p57
F0.019389140997048689
sS'large'
p58
F0.005370447403542063
sS'benefit'
p59
F0.014184176713291408
sS'race'
p60
F0.0063392454285585284
sS'team'
p61
F0.0090869544532030666
sS'initiative'
p62
F0.0085237104889909227
sS'nondescript'
p63
F0.026495879918154518
sS'giving'
p64
F0.0136840644195678
sS'meal'
p65
F0.018462894274444173
sS'vision'
p66
F0.0082907607911700855
sS'lasting'
p67
F0.017099217267801205
sS'accessible'
p68
F0.014612734850221264
sS'pioneering'
p69
F0.017843542007125568
sS'google'
p70
F0.013274974995413833
sS'neighborhood'
p71
F0.036925788548888346
sS'often'
p72
F0.014271177629025253
sS'client'
p73
F0.005654230553506924
sS'the'
p74
F0.0037813975320284778
sS'national'
p75
F0.0061326371234018233
sS'sex'
p76
F0.0071442003081940968
sS'analytics'
p77
F0.0080531246479956173
sS'professional'
p78
F0.0065390135322654103
sS'expect'
p79
F0.013612005519647703
sS'measure'
p80
F0.010293359029209288
sS'employment'
p81
F0.0058169780195772734
sS'luxe'
p82
F0.026495879918154518
sS'delivered'
p83
F0.01370846283324929
sS'flower'
p84
F0.052991759836309035
sS'network'
p85
F0.0080899947041425061
sS'expert'
p86
F0.012898290767821997
sS'24/7'
p87
F0.017327944711407799
sS'tools'
p88
F0.010511504570487277
sS'decision'
p89
F0.0069904325408843872
sS'yet'
p90
F0.029846720839380683
sS'day.'
p91
F0.01478143221184096
sS'religion'
p92
F0.0064189922185539173
sS'protected'
p93
F0.013307827251828856
sS'various'
p94
F0.0070380196326726005
sS'donate'
p95
F0.026495879918154518
sS'cause'
p96
F0.012573525964183315
sS'across'
p97
F0.0050700669019298093
sS'dashboard'
p98
F0.01082222521333193
sS'affordable'
p99
F0.016211313675819874
sS'turning'
p100
F0.015435656476180375
sS'eligibility'
p101
F0.010392129428655274
sS'marketing'
p102
F0.017640875208125451
sS'dental'
p103
F0.010245134470349053
sVEconomics
p104
F0.0050641097145816688
sS'data scientist'
p105
F0.0032696656332218462
sS'bi'
p106
F0.023756097347558569
sS'free'
p107
F0.024352547179319343
sS'water'
p108
F0.016211313675819874
sS'web analytics'
p109
F0.011784717714285565
sS'deliver'
p110
F0.0063302613657381249
sS'key'
p111
F0.0060804900059374268
sS'alone'
p112
F0.019547453345543458
sS'consideration'
p113
F0.0079770489217187643
sS'strong'
p114
F0.0085026403234634215
sS'by'
p115
F0.014271177629025253
sS'improve'
p116
F0.0065534455912118934
sS'onsite'
p117
F0.029846720839380683
sS'sending'
p118
F0.020277047185553215
sS'package'
p119
F0.0082654638578674444
sS'receive'
p120
F0.0077771545115990163
sS'marketing analytics'
p121
F0.011905241398270922
sS'memento.'
p122
F0.026495879918154518
sS'business objects'
p123
F0.013274974995413833
sS'turn'
p124
F0.011891615087358328
sS'journey'
p125
F0.01370846283324929
sS'plus'
p126
F0.013773285226716466
sS'together'
p127
F0.0081663001698135933
sS'cessation'
p128
F0.025244444687806466
sS'powerpoint'
p129
F0.0075525444658464573
sS'allowing'
p130
F0.016381250394209405
sS'origin'
p131
F0.0063845623495850257
sS'artistry'
p132
F0.020965760984591228
sS'cognos'
p133
F0.014421763112966089
sS'bouquet'
p134
F0.026495879918154518
sS'communication'
p135
F0.0048863251824409143
sS'data science'
p136
F0.0037124719927796269
sS'year'
p137
F0.0032779931719213009
sS'strategic'
p138
F0.0074638464862371483
sS'color'
p139
F0.0061664798081428182
sVStatistics
p140
F0.0055601999070619759
sS'analyzing'
p141
F0.0085976356294514781
sS'florist'
p142
F0.079487639754463546
sS'table'
p143
F0.026340684038327383
sS'datasets'
p144
F0.0087559387463785176
sS'fiji'
p145
F0.026495879918154518
sS'statistics'
p146
F0.0028781260950697671
sS'omniture'
p147
F0.015947357792907412
sV(5, 10]
p148
F0.003721124264126107
sS'data'
p149
F0.0018302698746060634
sS'create'
p150
F0.018291244178340531
sS'gift'
p151
F0.020077854507583183
sS'class'
p152
F0.010980027222466823
sS'-'
F0.0061389544173335725
sVBachelor
p153
F0.0028128976162651439
sS'wonderful'
p154
F0.067887986966329444
sS'subsidized'
p155
F0.039428654393525324
sS'analyze'
p156
F0.013603738637451034
sS'company'
p157
F0.0086413790233931843
sS'box'
p158
F0.014923360419690342
sS'life'
p159
F0.0068947108237838485
sS'vase'
p160
F0.026495879918154518
sS'north'
p161
F0.012990502306640912
sS'offering'
p162
F0.011114461664419378
sS'offer'
p163
F0.0064584828748402339
sS'brings'
p164
F0.01297115193769161
sS'gym'
p165
F0.015522603050307242
sS'time-honored'
p166
F0.026495879918154518
sS'treasured'
p167
F0.026495879918154518
sS'part'
p168
F0.0063550307570231892
sS'tapping'
p169
F0.026495879918154518
sS'personally'
p170
F0.018700427775017479
sS'flowers'
p171
F0.026495879918154518
sS"here's"
p172
F0.03587703194753275
sS'teleflora'
p173
F0.10598351967261807
sS'11'
p174
F0.016266926058621563
sS'physician'
p175
F0.015567012445298879
sS'veterans/disabled'
p176
F0.020277047185553215
sS'aspirational'
p177
F0.022629328988776481
sS'science'
p178
F0.0021698576796113961
sS'applied mathematics'
p179
F0.0093275022989003278
sS'work'
p180
F0.0059967385254419978
sS'appealing'
p181
F0.023667822969240943
sS'r'
F0.0017129392179442628
sS'attractions'
p182
F0.026495879918154518
sS'balance'
p183
F0.011974290257490729
sS'etc.'
p184
F0.0081703689916792395
sS'medical'
p185
F0.0092804725385969306
sS'dropped'
p186
F0.020077854507583183
sS'and'
p187
F0.012267055454982178
sS'economics'
p188
F0.0073965797048131518
sS'orientation'
p189
F0.0064984854969645754
sS'snacks'
p190
F0.020489987858428715
sS'modern'
p191
F0.010784003962377156
sS'equal'
p192
F0.010312461788658883
sS'high'
p193
F0.013179647687285287
sS'player'
p194
F0.010392129428655274
sS'as'
p195
F0.0063550307570231892
sS'401k'
p196
F0.012360588753294564
sS'expertise'
p197
F0.0058264878937476488
sS'experience'
p198
F0.010451922767646024
sS'want'
p199
F0.0082237577329377625
sS"doorstep--teleflora's"
p200
F0.026495879918154518
sS'sas'
p201
F0.0042754223971525201
sVMathematics
p202
F0.0052909645974767031
sS'cafe'
p203
F0.023667822969240943
sS'trusted'
p204
F0.012747943481234697
sS'different'
p205
F0.017856006898017907
sS'present'
p206
F0.017280020342759144
sS'etc'
p207
F0.0067168197166310546
sS'sexual'
p208
F0.0066118584515248834
sS'make'
p209
F0.0058379385685278957
sS'comfort'
p210
F0.013383280095538573
sS'excel'
p211
F0.0049905994654508195
sS'depth'
p212
F0.013274974995413833
sS'arrangement'
p213
F0.018957777842883647
sS'member'
p214
F0.0064655045830051879
sS'complex'
p215
F0.0050805197383082699
sS'www.wonderfulgiving.com'
p216
F0.026495879918154518
sS'online'
p217
F0.0096454423607023124
sS'warehouse'
p218
F0.01107247006514657
sS'performance'
p219
F0.012074714763007133
sS'yoga'
p220
F0.022629328988776481
sVData Science
p221
F0.0031706450080403164
sS'channel'
p222
F0.011851093448402976
sS'status'
p223
F0.0059508759861839596
sS'visually'
p224
F0.016103007710198163
sS"bachelor's"
p225
F0.0075793225408057295
sS'regard'
p226
F0.0073776269047489476
sS'keepsake'
p227
F0.026495879918154518
sS'may'
p228
F0.0071267316919139106
sS'li-ss1'
p229
F0.026495879918154518
sS'florist--even'
p230
F0.026495879918154518
sS'collection'
p231
F0.012659502776324452
sS'tracking'
p232
F0.011988287361478079
sS'advancement.'
p233
F0.020489987858428715
sS'minorities/women/protected'
p234
F0.02221719534942718
sS'membership'
p235
F0.017408115677235516
sS'000'
p236
F0.0087510204366089347
sS"organization's"
p237
F0.016211313675819874
sS'organization'
p238
F0.005441925429881732
sS'device'
p239
F0.012297919332720593
sS'end'
p240
F0.0098350108651045244
sS'america'
p241
F0.010309602804209544
sS'opportunity'
p242
F0.011713724376301355
sS'tradition'
p243
F0.019714327196762662
sS'identity'
p244
F0.0069517868110084181
sS'applicant'
p245
F0.0067168197166310546
sS'5-7'
p246
F0.016499972906178148
sS'farm'
p247
F0.022629328988776481
sS'discounted'
p248
F0.018957777842883647
sS'algorithm'
p249
F0.0058341169533163741
sS'programs'
p250
F0.015149295120848054
sS'age'
p251
F0.0069435681782221165
sS'no'
p252
F0.0093215842351397956
sS'drive'
p253
F0.0058783539272633705
sS'analysis'
p254
F0.002114930381198333
sS'actionable'
p255
F0.0082696656391307855
sS'google analytics'
p256
F0.011905241398270922
sS"you'll"
p257
F0.016947790187763899
sS'without'
p258
F0.006862563788987427
sS'responsibility'
p259
F0.007269330458833094
sS'artistic'
p260
F0.024356537345286724
sS'partner'
p261
F0.0063937061498201206
sS'facebook'
p262
F0.013190986755820134
sS'model'
p263
F0.0047759593885853113
sS'consumer'
p264
F0.0082487137101530678
sS'veteran'
p265
F0.0060557690114987428
sS'gesture'
p266
F0.022629328988776481
s.