(dp1
S'nlp'
p2
F0.067833000000000004
sS'machine learning natural language processing'
p3
F0.024559000000000001
sS'text'
p4
F0.037177000000000002
sS'course'
p5
F0.015018
sS'identify'
p6
F0.013181
sS'skill'
p7
F0.0044149999999999997
sS'http wwwcheggcom job'
p8
F0.032968999999999998
sS'role labeling'
p9
F0.037353999999999998
sS'use case'
p10
F0.016760000000000001
sS'implementation'
p11
F0.0081609999999999999
sS'graph'
p12
F0.019824999999999999
sS'solving'
p13
F0.012822999999999999
sS'better'
p14
F0.021701000000000002
sS'integrate'
p15
F0.012547000000000001
sS'various'
p16
F0.016539000000000002
sS'natural language'
p17
F0.025464000000000001
sS'signal processing'
p18
F0.021951999999999999
sS'get'
p19
F0.010822
sS'recommendation'
p20
F0.0095860000000000008
sS'hands-on experience'
p21
F0.015465
sS'programming skill'
p22
F0.014630000000000001
sS'resource'
p23
F0.010259000000000001
sS'java scala'
p24
F0.020275000000000001
sS'solution'
p25
F0.010207000000000001
sS'domain-specific language'
p26
F0.037353999999999998
sS'benefit'
p27
F0.019969000000000001
sS'linkage event'
p28
F0.037353999999999998
sS'release'
p29
F0.017763999999999999
sS'including'
p30
F0.0040480000000000004
sS'data engineering team'
p31
F0.025668
sS'requirement'
p32
F0.0060439999999999999
sS'staff data scientist'
p33
F0.058394000000000001
sS'discover'
p34
F0.016268999999999999
sS'library'
p35
F0.015958
sS'information retrieval'
p36
F0.017967
sS'detection'
p37
F0.041104000000000002
sS'culture'
p38
F0.0097920000000000004
sS'see'
p39
F0.012753
sS'design'
p40
F0.0079159999999999994
sS'perspective'
p41
F0.013693
sS'statistic'
p42
F0.0087589999999999994
sS'link'
p43
F0.036713999999999997
sS'chegg'
p44
F0.192582
sS'project'
p45
F0.0077489999999999998
sS'educate'
p46
F0.022048999999999999
sS'humor'
p47
F0.023524
sS'lead'
p48
F0.0057829999999999999
sS'pattern'
p49
F0.011712999999999999
sS'+'
F0.016069
sS'develop adaptable nlp'
p50
F0.034036999999999998
sS'content'
p51
F0.023029000000000001
sS'analytics'
p52
F0.0043889999999999997
sS'identification'
p53
F0.016447
sS'hadoop mahout spark mllib'
p54
F0.037353999999999998
sS'7'
F0.017804
sS'designing'
p55
F0.011514999999999999
sS'conceptual'
p56
F0.021857999999999999
sS'evaluation'
p57
F0.02725
sS'entity extraction'
p58
F0.025668
sS'multitude'
p59
F0.026841
sS'core'
p60
F0.0099609999999999994
sS'ability'
p61
F0.0027169999999999998
sS'workflow'
p62
F0.015200999999999999
sS'experience using'
p63
F0.013608
sS'processing'
p64
F0.024396999999999999
sS'key'
p65
F0.015335
sS'modeling'
p66
F0.016152
sS'strong'
p67
F0.0048529999999999997
sS'improve'
p68
F0.014406
sS'product crowdsourcing'
p69
F0.037353999999999998
sS'interaction'
p70
F0.014101000000000001
sS'acquiring'
p71
F0.025269
sS'package'
p72
F0.014064
sS'career'
p73
F0.010078999999999999
sS'experience'
p74
F0.001787
sS'personalized experience'
p75
F0.031359999999999999
sS'thing'
p76
F0.014194999999999999
sS'connection'
p77
F0.018733
sS'ensure'
p78
F0.0080239999999999999
sS'student hub'
p79
F0.037353999999999998
sS'facilitate'
p80
F0.014487
sS'think'
p81
F0.015904000000000001
sS'relation'
p82
F0.024396000000000001
sS'among'
p83
F0.018180000000000002
sS'relevant'
p84
F0.0086990000000000001
sS'student'
p85
F0.053776999999999998
sS'classification'
p86
F0.031333
sS'data science'
p87
F0.017021000000000001
sS'within'
p88
F0.005744
sS'community'
p89
F0.0086449999999999999
sS'type'
p90
F0.025477
sS'uncertainty approximation'
p91
F0.035414000000000001
sS'establish'
p92
F0.013525000000000001
sS'7 + year'
p93
F0.034036999999999998
sS'clustering'
p94
F0.014862999999999999
sS'use'
p95
F0.0051749999999999999
sS'python r'
p96
F0.015178000000000001
sS'service'
p97
F0.00511
sS'curiosity'
p98
F0.018588
sS'http wwwyoutubecom watch v yyhnkwid7oo'
p99
F0.034036999999999998
sS'create'
p100
F0.0064279999999999997
sS'system'
p101
F0.004398
sS'extraction'
p102
F0.018983
sS'excellent communication skill'
p103
F0.015771
sS'eg nltk solr corenlp'
p104
F0.037353999999999998
sS'msc'
p105
F0.02588
sS'deliver production-ready tool'
p106
F0.037353999999999998
sS'big data platform'
p107
F0.018268
sS'define'
p108
F0.0096880000000000004
sS'text mining'
p109
F0.017885000000000002
sS'life'
p110
F0.0079109999999999996
sS'relationship'
p111
F0.0099839999999999998
sS'company'
p112
F0.0048780000000000004
sS'acquire'
p113
F0.021080000000000002
sS'computer science engineering'
p114
F0.017492000000000001
sS'innovate'
p115
F0.016154000000000002
sS'understand'
p116
F0.006816
sS'computational linguistics'
p117
F0.028781000000000001
sS'focusing'
p118
F0.019703999999999999
sS'experience building production-ready system'
p119
F0.037353999999999998
sS'engaging'
p120
F0.018356999999999998
sS'linux unix scripting'
p121
F0.037353999999999998
sS'data source'
p122
F0.014349000000000001
sS'developing'
p123
F0.0064720000000000003
sS'pursue'
p124
F0.019886000000000001
sS'ml'
p125
F0.019585000000000002
sS'tree'
p126
F0.029197000000000001
sS'machine learning'
p127
F0.020747000000000002
sS'team member'
p128
F0.0095639999999999996
sS'knowledge discovery'
p129
F0.025464000000000001
sS'topic modeling'
p130
F0.028781000000000001
sS'problem'
p131
F0.013243
sS'nlp ir tool'
p132
F0.037353999999999998
sS'forest'
p133
F0.032968999999999998
sS'new data'
p134
F0.019886000000000001
sS'process'
p135
F0.0048430000000000001
sS'metric'
p136
F0.011991
sS'year'
p137
F0.0096290000000000004
sS'share'
p138
F0.012952999999999999
sS'comfortable'
p139
F0.013332
sS'equal opportunity employer'
p140
F0.0089639999999999997
sS'expertise'
p141
F0.0064390000000000003
sS'want'
p142
F0.0093120000000000008
sS'sense'
p143
F0.017343999999999998
sS'partner'
p144
F0.0075859999999999999
sS'education'
p145
F0.0078200000000000006
sS'text categorization domain'
p146
F0.034036999999999998
sS'develop'
p147
F0.0037320000000000001
sS'goal'
p148
F0.0085690000000000002
sS'provide'
p149
F0.0048640000000000003
sS'responsibilities'
p150
F0.0059420000000000002
sS'role'
p151
F0.0049760000000000004
sS'take'
p152
F0.009868
sS'natural language processing'
p153
F0.027351
sS'--'
p154
F0.016570000000000001
sS'product'
p155
F0.0072259999999999998
sS'phd'
p156
F0.0076819999999999996
sS'connected'
p157
F0.018733
sS'li-mi'
p158
F0.032968999999999998
sS'http techblogcheggcom'
p159
F0.037353999999999998
sS'requirements'
p160
F0.0085629999999999994
sS'data'
p161
F0.0046699999999999997
sS'text preprocessing'
p162
F0.037353999999999998
sS'task'
p163
F0.0099369999999999997
sS'prioritize'
p164
F0.013866
sS'company-wide use'
p165
F0.037353999999999998
sS'organization'
p166
F0.0053709999999999999
sS'model'
p167
F0.0047660000000000003
sS'named entity recognition semantic'
p168
F0.037353999999999998
s.