(dp1
S'relational database structure'
p2
F0.049241
sS'statistical'
p3
F0.011941999999999999
sS'previous'
p4
F0.030429000000000001
sS'dimensionality reduction- open source'
p5
F0.060990999999999997
sS'based'
p6
F0.011577
sS'phd degree'
p7
F0.027158000000000002
sS'feature extraction- signal processing maximizing signal-to-noise'
p8
F0.060990999999999997
sS'version control'
p9
F0.033105000000000002
sS'technique'
p10
F0.010593
sS'uses predictive modeling'
p11
F0.050160999999999997
sS'ie hadoop hbase lucene solr analytics'
p12
F0.050160999999999997
sS'combination'
p13
F0.021641000000000001
sS'minimum qualifications'
p14
F0.029474
sS'python scala'
p15
F0.029899999999999999
sS'practice'
p16
F0.015546000000000001
sS'statistic machine learning data mining'
p17
F0.045789000000000003
sS'posting statement intel prohibits discrimination based'
p18
F0.042257999999999997
sS'extract insight'
p19
F0.036666999999999998
sS'must posse'
p20
F0.034550999999999998
sS'masters'
p21
F0.021871999999999999
sS'explore'
p22
F0.021794000000000001
sS'advanced degree'
p23
F0.022057
sS'candidate must posse'
p24
F0.044746000000000001
sS'collect'
p25
F0.027366000000000001
sS'statistical inference'
p26
F0.041577999999999997
sS'intelligence'
p27
F0.02002
sS'eg'
p28
F0.015488
sS'library'
p29
F0.026057
sS'big data technology'
p30
F0.021898999999999998
sS'related field- 2 year'
p31
F0.060990999999999997
sS'2 year'
p32
F0.020508999999999999
sS'operation research'
p33
F0.024707
sS'legally protected'
p34
F0.032572999999999998
sS'among others- one'
p35
F0.060990999999999997
sS'r matlab octave'
p36
F0.057824
sS'california berkeley'
p37
F0.060990999999999997
sS'java c++ julia- data visualization'
p38
F0.060990999999999997
sS'translate data'
p39
F0.042620999999999999
sS'pattern'
p40
F0.019125
sS'posse'
p41
F0.027913
sS'computer science statistics'
p42
F0.037393999999999997
sS'research'
p43
F0.018445
sS'national origin age disability veteran status marital status pregnancy gender expression'
p44
F0.042257999999999997
sS'large scale experimentation'
p45
F0.050160999999999997
sS'method'
p46
F0.021853000000000001
sS'experience listed'
p47
F0.045789000000000003
sS'programming language'
p48
F0.016971
sS'data analysis'
p49
F0.015117
sS'business'
p50
F0.0053670000000000002
sS'equivalent'
p51
F0.017564
sS'understanding'
p52
F0.01004
sS'job'
p53
F0.0093010000000000002
sS'data driven apps'
p54
F0.049241
sS'group'
p55
F0.013868999999999999
sS'minimum qualification'
p56
F0.037988000000000001
sS'business segment stakeholder'
p57
F0.046993
sS'following field'
p58
F0.033793999999999998
sS'obtained'
p59
F0.044271999999999999
sS'package'
p60
F0.022963999999999998
sS'java c c++'
p61
F0.040099999999999997
sS'initially considered'
p62
F0.046367999999999999
sS'experience'
p63
F0.001459
sS'internship experience'
p64
F0.039835000000000002
sS'software'
p65
F0.023918999999999999
sS'relevant'
p66
F0.014204
sS'deep learning library xgboost caret scikit-learn stan pymc spark mllib'
p67
F0.060990999999999997
sS'apply'
p68
F0.010972000000000001
sS'typically requires'
p69
F0.03909
sS'cloud'
p70
F0.017097000000000001
sS'model comparison'
p71
F0.055576
sS'statistics'
p72
F0.020379000000000001
sS'would'
p73
F0.021269
sS'deep learning'
p74
F0.024094000000000001
sS'python perl programing language ie'
p75
F0.052408999999999997
sS'school work'
p76
F0.046367999999999999
sS'enable business strategy assists business'
p77
F0.050160999999999997
sS'identity sexual orientation'
p78
F0.042257999999999997
sS'race color religion gender'
p79
F0.030748000000000001
sS'relationship'
p80
F0.016302000000000001
sS'business problem'
p81
F0.02002
sS'job description'
p82
F0.015806000000000001
sS'software engineering'
p83
F0.022412999999999999
sS'inside'
p84
F0.031338999999999999
sS'machine learning'
p85
F0.033875000000000002
sS'eg keras'
p86
F0.060990999999999997
sS'expertise'
p87
F0.021026
sS'posse strong written'
p88
F0.046993
sS'presentation skills- using'
p89
F0.060990999999999997
sS'locations'
p90
F0.032471
sS'casual inference observation'
p91
F0.050160999999999997
sS'predictions- demonstrating'
p92
F0.060990999999999997
sS'r mahout matlab octave weka scripting language ie'
p93
F0.050160999999999997
sS'computer science mathematics'
p94
F0.034037999999999999
sS'technology'
p95
F0.0056690000000000004
sS'writing informative comment'
p96
F0.060990999999999997
sS'develop'
p97
F0.0060939999999999996
sS'variety'
p98
F0.015476999999999999
sS'perform'
p99
F0.013906
sS'ie'
p100
F0.026422999999999999
sS'-'
F0.011690000000000001
sS'application'
p101
F0.0085249999999999996
sS'internal'
p102
F0.01252
sS'build'
p103
F0.00762
sS'finding'
p104
F0.017111000000000001
sS'mathematics'
p105
F0.022904000000000001
sS'unstructured data'
p106
F0.02154
sS'status'
p107
F0.017655000000000001
sS'qualifications'
p108
F0.0094160000000000008
sS'communication skill'
p109
F0.022440999999999999
sS'sql'
p110
F0.0086879999999999995
sS'data'
p111
F0.0076249999999999998
sS'class'
p112
F0.02666
sS'structure'
p113
F0.023025
sS'algorithm'
p114
F0.0097079999999999996
sS'must posse strong understanding'
p115
F0.050160999999999997
sS'unit testing'
p116
F0.034958999999999997
sS'solve'
p117
F0.015488
sS'position'
p118
F0.0076790000000000001
sS'typically'
p119
F0.031607000000000003
s.