(dp1
S'nlp'
p2
F0.017288999999999999
sS'help'
p3
F0.014527999999999999
sS'awesome product'
p4
F0.032723000000000002
sS'mission'
p5
F0.0087779999999999993
sS'rest'
p6
F0.018234
sS'sentiment analysis'
p7
F0.023848999999999999
sS'time quid algorithm reveal pattern'
p8
F0.041464000000000001
sS'identify'
p9
F0.0067190000000000001
sS'human'
p10
F0.016213999999999999
sS'alignment'
p11
F0.018110000000000001
sS'ux designer'
p12
F0.026849999999999999
sS'knowledge'
p13
F0.0044840000000000001
sS'fit'
p14
F0.017054
sS'field'
p15
F0.0096559999999999997
sS'implementation'
p16
F0.0083199999999999993
sS'graph'
p17
F0.020211
sS'seriously'
p18
F0.027643000000000001
sS'charge'
p19
F0.025208999999999999
sS'experiment'
p20
F0.012711
sS'defining'
p21
F0.015498
sS'huge impact'
p22
F0.027101
sS'take'
p23
F0.020121
sS'highly motivated'
p24
F0.018807999999999998
sS'collaborate'
p25
F0.0083090000000000004
sS'focus'
p26
F0.0096349999999999995
sS'unstructured'
p27
F0.015570000000000001
sS'every'
p28
F0.013481
sS'closely'
p29
F0.016383000000000002
sS'new'
p30
F0.0045950000000000001
sS'machine learning data scientist'
p31
F0.032723000000000002
sS'shaping'
p32
F0.021828
sS'bank'
p33
F0.019567999999999999
sS'age marital status'
p34
F0.025762
sS'hiring'
p35
F0.014873000000000001
sS'work autonomously'
p36
F0.028254000000000001
sS'superb written'
p37
F0.041464000000000001
sS'level'
p38
F0.0071980000000000004
sS'across'
p39
F0.0054520000000000002
sS'specific'
p40
F0.010596
sS'quid build'
p41
F0.041464000000000001
sS'team'
p42
F0.005594
sS'diabetes patient'
p43
F0.041464000000000001
sS'quid'
p44
F0.082927000000000001
sS'industry experience'
p45
F0.015945999999999998
sS'domain'
p46
F0.012959
sS'everyone'
p47
F0.017756999999999998
sS'intelligence'
p48
F0.025000999999999999
sS'see'
p49
F0.013001
sS'topic modeling'
p50
F0.029342
sS'perspective'
p51
F0.01396
sS'close'
p52
F0.018998999999999999
sS'best'
p53
F0.0084250000000000002
sS'large'
p54
F0.010123
sS'scale'
p55
F0.010976
sS'lead'
p56
F0.0058960000000000002
sS'decision'
p57
F0.016761000000000002
sS'interviewing'
p58
F0.024261999999999999
sS'written'
p59
F0.011783999999999999
sS'unable'
p60
F0.021916000000000001
sS'run'
p61
F0.015131
sS'innovation'
p62
F0.0076150000000000002
sS'progress'
p63
F0.017357999999999998
sS'user intent'
p64
F0.036104999999999998
sS'entity extraction'
p65
F0.026169000000000001
sS'full'
p66
F0.012671
sS'algorithmic'
p67
F0.022682000000000001
sS'ability'
p68
F0.0027699999999999999
sS'power'
p69
F0.013073
sS'key metric elaborate evaluation'
p70
F0.041464000000000001
sS'empower'
p71
F0.018669000000000002
sS'high quality'
p72
F0.016187
sS'data scientist'
p73
F0.0032230000000000002
sS'understanding'
p74
F0.0062690000000000003
sS'although'
p75
F0.033612999999999997
sS'generate'
p76
F0.014709
sS'improve'
p77
F0.0073439999999999998
sS'onsite'
p78
F0.025208999999999999
sS'area'
p79
F0.0066259999999999999
sS'experience'
p80
F0.00091100000000000003
sS'enabling'
p81
F0.015842999999999999
sS'plus'
p82
F0.022466
sS'please note'
p83
F0.020403000000000001
sS'action'
p84
F0.013387
sS'customer happiness'
p85
F0.041464000000000001
sS'software'
p86
F0.0099570000000000006
sS'intuition'
p87
F0.025571
sS'computational'
p88
F0.015692000000000001
sS'inference'
p89
F0.027101
sS'read aboutwhat'
p90
F0.041464000000000001
sS'development cycle'
p91
F0.026612
sS'veteran status'
p92
F0.015334
sS'strategic'
p93
F0.0086300000000000005
sS'visualization'
p94
F0.010068000000000001
sS'quickly'
p95
F0.013265000000000001
sS'market'
p96
F0.0091780000000000004
sS'engineer'
p97
F0.0083040000000000006
sS'recommendation engine'
p98
F0.027101
sS'basis'
p99
F0.014893999999999999
sS'equivalent'
p100
F0.010966999999999999
sS'deep learning'
p101
F0.015044
sS'industry experience using'
p102
F0.041464000000000001
sS'extraction'
p103
F0.019352999999999999
sS'inspire people'
p104
F0.030745000000000001
sS'fraction'
p105
F0.041464000000000001
sS'extensive experience'
p106
F0.03424
sS'define'
p107
F0.019754000000000001
sS'company'
p108
F0.009946
sS'hotel'
p109
F0.029766999999999998
sS'quid may include'
p110
F0.041464000000000001
sS'engineering team'
p111
F0.013806000000000001
sS'phone'
p112
F0.021656999999999999
sS'part'
p113
F0.006672
sS'working onat quid'
p114
F0.041464000000000001
sS'strategic thinker'
p115
F0.025961000000000001
sS'equal opportunity employer'
p116
F0.0091389999999999996
sS'datasets'
p117
F0.014648
sS'work'
p118
F0.001699
sS'augments human'
p119
F0.041464000000000001
sS'machine learning'
p120
F0.0052880000000000002
sS'project'
p121
F0.0039500000000000004
sS'matter'
p122
F0.016213999999999999
sS'unsupervised machine learning'
p123
F0.027938999999999999
sS'value diversity'
p124
F0.022284000000000002
sS'submitting'
p125
F0.023231000000000002
sS'product management'
p126
F0.014609
sS'video'
p127
F0.035070999999999998
sS'problem'
p128
F0.0067510000000000001
sS'pioneering technology'
p129
F0.041464000000000001
sS'race religion color national origin'
p130
F0.025385999999999999
sS'beautiful'
p131
F0.024871999999999998
sS'process'
p132
F0.0049370000000000004
sS'disability status'
p133
F0.021741
sS'involve'
p134
F0.021026
sS'follow-up'
p135
F0.023719
sS'education'
p136
F0.0079719999999999999
sS'technology'
p137
F0.0070800000000000004
sS'clearly'
p138
F0.015869000000000001
sS'machine'
p139
F0.019678999999999999
sS'really saying'
p140
F0.041464000000000001
sS'discriminate'
p141
F0.017682
sS'goal'
p142
F0.0087360000000000007
sS'user experience'
p143
F0.014853
sS'make'
p144
F0.018540000000000001
sS'able'
p145
F0.0075490000000000002
sS'feature'
p146
F0.012591
sS'thorough'
p147
F0.023116000000000001
sS'neural network'
p148
F0.020149
sS'verbal communication'
p149
F0.023004
sS'application'
p150
F0.010645999999999999
sS'potential'
p151
F0.011795
sS'build'
p152
F0.0095149999999999992
sS'online'
p153
F0.012765
sS'interview'
p154
F0.037805999999999999
sS'performance'
p155
F0.0071289999999999999
sS'accuracy'
p156
F0.016132000000000001
sS'breakdown'
p157
F0.028590000000000001
sS'product'
p158
F0.018416999999999999
sS'qualifications'
p159
F0.0058789999999999997
sS'phd'
p160
F0.0078320000000000004
sS'chance'
p161
F0.020088000000000002
sS'whiteboard phase'
p162
F0.041464000000000001
sS'phase'
p163
F0.017989999999999999
sS'iterate'
p164
F0.021491
sS'future'
p165
F0.0074289999999999998
sS'opportunity'
p166
F0.0048939999999999999
sS'expert'
p167
F0.0092630000000000004
sS'algorithm'
p168
F0.0060619999999999997
sS'applicant'
p169
F0.012323000000000001
sS'well'
p170
F0.0057650000000000002
sS'drive'
p171
F0.012529999999999999
sS'actionable'
p172
F0.013891000000000001
sS"you'll"
p173
F0.011207999999999999
sS'hierarchical'
p174
F0.036104999999999998
sS'organization'
p175
F0.005476
sS'5 year'
p176
F0.02121
sS'first'
p177
F0.011577
sS'gender sexual orientation'
p178
F0.023848999999999999
sS'typical'
p179
F0.023719
s.