(dp1
S'knowledge skills'
p2
F0.027904999999999999
sS'help'
p3
F0.0061659999999999996
sS'versed'
p4
F0.036403999999999999
sS'able'
p5
F0.0096120000000000008
sS'3+ year'
p6
F0.032751000000000002
sS'executing'
p7
F0.021312000000000001
sS'planning'
p8
F0.014171
sS'wide range'
p9
F0.017389000000000002
sS'aspect'
p10
F0.015786999999999999
sS'innovative'
p11
F0.010607999999999999
sS'discipline'
p12
F0.015249
sS'looking'
p13
F0.0084220000000000007
sS'group'
p14
F0.011025999999999999
sS'knowledge'
p15
F0.0057099999999999998
sS'big data'
p16
F0.029014999999999999
sS'scenario'
p17
F0.024069
sS'technique'
p18
F0.0084220000000000007
sS'data science'
p19
F0.007365
sS'smart'
p20
F0.020823999999999999
sS'preferred'
p21
F0.017864999999999999
sS'framework'
p22
F0.012259000000000001
sS'huawei consumer'
p23
F0.048489999999999998
sS'data collection'
p24
F0.020933
sS'deep learning algorithm'
p25
F0.062932000000000002
sS'r scala python'
p26
F0.045971999999999999
sS'like'
p27
F0.026742999999999999
sS'large scale'
p28
F0.019793999999999999
sS'summary'
p29
F0.019352000000000001
sS'team'
p30
F0.0047479999999999996
sS'including'
p31
F0.0052550000000000001
sS'vision'
p32
F0.013525000000000001
sS'intelligence'
p33
F0.015917000000000001
sS'video'
p34
F0.022328000000000001
sS'recommendation'
p35
F0.024886999999999999
sS'home'
p36
F0.020011999999999999
sS'scraped'
p37
F0.027682999999999999
sS'business'
p38
F0.004267
sS'lead'
p39
F0.0075069999999999998
sS'content'
p40
F0.014947999999999999
sS'ml dl data science'
p41
F0.045971999999999999
sS'data analysis'
p42
F0.012017999999999999
sS'jobs'
p43
F0.026497
sS'ability'
p44
F0.0035270000000000002
sS'degree'
p45
F0.014061000000000001
sS'visualization'
p46
F0.01282
sS'bi'
p47
F0.022282
sS'understanding'
p48
F0.0079819999999999995
sS'job'
p49
F0.0073940000000000004
sS'modeling'
p50
F0.020968000000000001
sS'improve'
p51
F0.0093500000000000007
sS'search'
p52
F0.052419
sS'store'
p53
F0.025201000000000001
sS'technical'
p54
F0.017717
sS'similar'
p55
F0.014073
sS'essential functions'
p56
F0.027682999999999999
sS'experience'
p57
F0.00464
sS'etc'
p58
F0.0089429999999999996
sS'abilities refers'
p59
F0.042798999999999997
sS'implement'
p60
F0.0087899999999999992
sS'work well'
p61
F0.023889000000000001
sS'5+ year'
p62
F0.031865999999999998
sS'major'
p63
F0.015966000000000001
sS'app'
p64
F0.027469
sS'experienced data scientist'
p65
F0.025656000000000002
sS'learning'
p66
F0.013661
sS'apply'
p67
F0.026169000000000001
sS'cloud'
p68
F0.027185000000000001
sS'service'
p69
F0.019899
sS'area'
p70
F0.0084360000000000008
sS'music'
p71
F0.031078000000000001
sS'international market'
p72
F0.037360999999999998
sS'added plus'
p73
F0.041666000000000002
sS'duties'
p74
F0.019855999999999999
sS'tool'
p75
F0.0044840000000000001
sS'programming experience'
p76
F0.020405
sS'data analytic'
p77
F0.026773000000000002
sS'huaweis smartphone wearable'
p78
F0.052795000000000002
sS'part'
p79
F0.0084960000000000001
sS'hadoop spark flink'
p80
F0.042798999999999997
sS'data processing'
p81
F0.021007000000000001
sS"master's degree preferred doctoral professional"
p82
F0.042798999999999997
sS'project management'
p83
F0.014619999999999999
sS'job specifications education'
p84
F0.042798999999999997
sS'applying'
p85
F0.016253
sS'algorithm'
p86
F0.023154999999999999
sS'developing'
p87
F0.0084019999999999997
sS'us'
p88
F0.020954
sS'skills abilities'
p89
F0.032801999999999998
sS'r'
F0.0093329999999999993
sS'exploration'
p90
F0.026407
sS'big data platform'
p91
F0.023713999999999999
sS'relevant work experience'
p92
F0.028622999999999999
sS'strong communication skill'
p93
F0.021510000000000001
sS'ad'
p94
F0.063244999999999996
sS'process'
p95
F0.0062859999999999999
sS'url http chtbetaleonet r feed'
p96
F0.028497000000000001
sS'general'
p97
F0.035506000000000003
sS'minimum'
p98
F0.034811000000000002
sS'partner'
p99
F0.0098480000000000009
sS'education'
p100
F0.010151
sS'technology'
p101
F0.0090150000000000004
sS'develop'
p102
F0.0048450000000000003
sS'responsible'
p103
F0.0076490000000000004
sS'storage'
p104
F0.023889000000000001
sS'application'
p105
F0.0067780000000000002
sS'responsibilities'
p106
F0.0077140000000000004
sS'book'
p107
F0.029729999999999999
sS'fraud detection'
p108
F0.027161000000000001
sS'incumbent'
p109
F0.027793000000000002
sS'department'
p110
F0.014296
sS'evolve'
p111
F0.023008000000000001
sS'product'
p112
F0.0046899999999999997
sS'collaboration'
p113
F0.012222999999999999
sS'decision-making'
p114
F0.022237
sS'user behavior'
p115
F0.054122999999999998
sS'device'
p116
F0.022147
sS'requirements'
p117
F0.011115999999999999
sS'validate'
p118
F0.019352000000000001
sS'data'
p119
F0.0030309999999999998
sS'payment'
p120
F0.024916000000000001
sS'expand'
p121
F0.022467999999999998
sS'effective'
p122
F0.013764
sS'mobile'
p123
F0.016910000000000001
sS'analysis'
p124
F0.0050889999999999998
sS'computer science math'
p125
F0.029152000000000001
sS'model'
p126
F0.012373
sS'large scale data modeling'
p127
F0.040709000000000002
sS'latest'
p128
F0.016968
s.