(dp1
S''
F0.019460999999999999
sS'nlp'
p2
F0.016877
sS'next generation'
p3
F0.013782000000000001
sS'data base'
p4
F0.024608999999999999
sS'experience working'
p5
F0.0088900000000000003
sS'global'
p6
F0.008208
sS'key business'
p7
F0.022349000000000001
sS'statistical'
p8
F0.0072789999999999999
sS'participate'
p9
F0.011068
sS'related field'
p10
F0.023786000000000002
sS'skill'
p11
F0.0043940000000000003
sS'glue'
p12
F0.035244999999999999
sS'impact'
p13
F0.016702999999999999
sS'web'
p14
F0.011568999999999999
sS'group'
p15
F0.0084530000000000004
sS'knowledge'
p16
F0.017509
sS'big data'
p17
F0.0074149999999999997
sS'data exploration'
p18
F0.021394
sS'agile'
p19
F0.012678
sS'working knowledge'
p20
F0.012042000000000001
sS'environment'
p21
F0.0055120000000000004
sS'systems'
p22
F0.015294
sS'experience managing'
p23
F0.017964999999999998
sS'transformation'
p24
F0.014071
sS'smart'
p25
F0.015965
sS'natural language'
p26
F0.025343000000000001
sS'highly motivated'
p27
F0.018360000000000001
sS'map reduce hadoop hive'
p28
F0.033875000000000002
sS'python'
p29
F0.014225
sS'professional'
p30
F0.0083850000000000001
sS'title data scientist'
p31
F0.026713000000000001
sS'preferred'
p32
F0.0068479999999999999
sS'mapreduce'
p33
F0.020246
sS'distributed computing tool'
p34
F0.023826
sS'interpreting'
p35
F0.020979999999999999
sS'user intent'
p36
F0.035244999999999999
sS'high profile'
p37
F0.021224
sS'programming skill'
p38
F0.01456
sS'semantic technology'
p39
F0.037176000000000001
sS'java scala'
p40
F0.020178000000000001
sS'scripting language'
p41
F0.016521999999999998
sS'duration 9+ month'
p42
F0.040475999999999998
sS'related experience'
p43
F0.014519000000000001
sS'hive'
p44
F0.016712999999999999
sS'masters degree'
p45
F0.01098
sS'team'
p46
F0.00364
sS'small'
p47
F0.013348
sS'end-to-end'
p48
F0.015722
sS'passionate'
p49
F0.0097160000000000007
sS'big data set'
p50
F0.025148
sS'set'
p51
F0.010160000000000001
sS'proven experience working'
p52
F0.031944
sS'optimization algorithm underneath'
p53
F0.035244999999999999
sS'testing'
p54
F0.0090950000000000007
sS'direct'
p55
F0.013445
sS'machine learning data mining'
p56
F0.017523
sS'streaming'
p57
F0.020313999999999999
sS'rate'
p58
F0.020823000000000001
sS'actively'
p59
F0.016399
sS'result'
p60
F0.0061510000000000002
sS'statistic'
p61
F0.0087180000000000001
sS'required'
p62
F0.004614
sS'c c++'
p63
F0.021059999999999999
sS'help invent'
p64
F0.037176000000000001
sS'data sanitation'
p65
F0.040475999999999998
sS'computer science statistics'
p66
F0.045586000000000002
sS'looking'
p67
F0.012913000000000001
sS'fortune 1000'
p68
F0.030574
sS'experiment'
p69
F0.012408000000000001
sS'offline commerce'
p70
F0.027909
sS'relational'
p71
F0.018995999999999999
sS'integrated'
p72
F0.014519000000000001
sS'real time'
p73
F0.016877
sS'2 year'
p74
F0.025002
sS'social mobile'
p75
F0.023411999999999999
sS'equivalent'
p76
F0.010706
sS'activity'
p77
F0.0098670000000000008
sS'data scientist'
p78
F0.0031459999999999999
sS'information retrieval data mining'
p79
F0.032812000000000001
sS'performance evaluation'
p80
F0.023282000000000001
sS"client's semantic-based engine"
p81
F0.040475999999999998
sS'interface'
p82
F0.013237000000000001
sS'spark'
p83
F0.011646
sS'strong'
p84
F0.0048300000000000001
sS'pipeline'
p85
F0.015827999999999998
sS'service'
p86
F0.0050850000000000001
sS'language'
p87
F0.018714000000000001
sS'technology company'
p88
F0.018270000000000002
sS'experience'
p89
F0.00088900000000000003
sS'analyze massive flow'
p90
F0.031210000000000002
sS'build next-generation'
p91
F0.033875000000000002
sS'plus'
p92
F0.014621
sS'social'
p93
F0.01338
sS'prior experience'
p94
F0.018315000000000001
sS'additional qualifications'
p95
F0.018692
sS'retail'
p96
F0.014664999999999999
sS'create'
p97
F0.0063969999999999999
sS'feature engineering'
p98
F0.022793000000000001
sS'one'
p99
F0.010999999999999999
sS'experienced data scientist'
p100
F0.01967
sS'data mining'
p101
F0.0089210000000000001
sS'apply'
p102
F0.013375
sS'location sunnyvale ca'
p103
F0.037176000000000001
sS'ecommerce'
p104
F0.020046000000000001
sS'engineer'
p105
F0.0081060000000000004
sS'use'
p106
F0.0051510000000000002
sS'15 billion'
p107
F0.035244999999999999
sS'java'
p108
F0.010799
sS'leverage'
p109
F0.010734
sS'working'
p110
F0.0051650000000000003
sS'area'
p111
F0.0064679999999999998
sS'minimum qualifications'
p112
F0.017964999999999998
sS'opportunity'
p113
F0.004777
sS'top'
p114
F0.011396
sS'system'
p115
F0.0043769999999999998
sS'cutting edge'
p116
F0.013997000000000001
sS'experience analyzing'
p117
F0.027274
sS'interest'
p118
F0.012116
sS'analyze'
p119
F0.0084360000000000008
sS'store'
p120
F0.019321000000000001
sS'great'
p121
F0.011259999999999999
sS'search'
p122
F0.013396
sS'sophisticated'
p123
F0.017048000000000001
sS'part'
p124
F0.0065129999999999997
sS'pig udfs'
p125
F0.040475999999999998
sS'information retrieval'
p126
F0.017881999999999999
sS'true'
p127
F0.020671999999999999
sS'must'
p128
F0.026578000000000001
sS'customer'
p129
F0.0041609999999999998
sS'join'
p130
F0.0071120000000000003
sS'us'
p131
F0.0080319999999999992
sS'machine learning'
p132
F0.015486
sS'r'
F0.007156
sS'match'
p133
F0.017409000000000001
sS'following'
p134
F0.025937000000000002
sS'next-generation'
p135
F0.023154999999999999
sS'problem'
p136
F0.0065900000000000004
sS'would'
p137
F0.012964
sS'attribute'
p138
F0.021944000000000002
sS'high'
p139
F0.012030000000000001
sS'expertise'
p140
F0.0064079999999999996
sS'education'
p141
F0.007783
sS'fill'
p142
F0.024279999999999999
sS'large data set'
p143
F0.012253
sS'phd'
p144
F0.007646
sS'predictive modeling'
p145
F0.011209
sS'-'
F0.028500999999999999
sS'hadoop'
p146
F0.0092339999999999992
sS'application'
p147
F0.0051960000000000001
sS'responsibilities'
p148
F0.005914
sS'build'
p149
F0.0046439999999999997
sS'machine-learning'
p150
F0.025343000000000001
sS'online'
p151
F0.037383
sS'ingest model'
p152
F0.030013000000000001
sS'product'
p153
F0.010787
sS'automation'
p154
F0.014749999999999999
sS'perl'
p155
F0.020383999999999999
sS'important'
p156
F0.012964
sS'user'
p157
F0.0089529999999999992
sS'sql'
p158
F0.010591
sS'data'
p159
F0.0092949999999999994
sS'identity'
p160
F0.020598000000000002
sS'building'
p161
F0.012408000000000001
sS'million'
p162
F0.0098130000000000005
sS'especially'
p163
F0.01643
sS'mobile'
p164
F0.012964
sS'hadoop hbase hive'
p165
F0.035244999999999999
sS'doe'
p166
F0.01643
sS'design prototype'
p167
F0.024279999999999999
sS'e-commerce'
p168
F0.020671999999999999
sS'client'
p169
F0.012168999999999999
sS'solve'
p170
F0.0094409999999999997
sS'position'
p171
F0.0046800000000000001
sS'model'
p172
F0.0047429999999999998
s.