(dp1
S'performance indexsolve analytics'
p2
F0.037777999999999999
sS'next generation'
p3
F0.012864
sS'office'
p4
F0.0086060000000000008
sS'focus'
p5
F0.0087779999999999993
sS'founded'
p6
F0.017680999999999999
sS'including'
p7
F0.0037599999999999999
sS'mysql'
p8
F0.017829000000000001
sS'interpersonal skillspreferred experience'
p9
F0.037777999999999999
sS'impact'
p10
F0.0077949999999999998
sS'mountain view cageneral description'
p11
F0.037777999999999999
sS'technical leadership'
p12
F0.017829000000000001
sS'rapid'
p13
F0.018246999999999999
sS'based'
p14
F0.0065859999999999998
sS"samsung's product sra offer"
p15
F0.037777999999999999
sS'big data'
p16
F0.0069210000000000001
sS'fix'
p17
F0.019224999999999999
sS'technical integrationsinvestigate technology'
p18
F0.037777999999999999
sS'data platform systemwork'
p19
F0.037777999999999999
sS'platform'
p20
F0.0061079999999999997
sS'location'
p21
F0.017888999999999999
sS'sra include'
p22
F0.037777999999999999
sS'build'
p23
F0.013004
sS'enrich'
p24
F0.023841999999999999
sS'framework'
p25
F0.0087720000000000003
sS'deployment'
p26
F0.010212000000000001
sS'knox'
p27
F0.037777999999999999
sS'hands-on experience'
p28
F0.014364999999999999
sS'advanced'
p29
F0.0069420000000000003
sS'competitiveness'
p30
F0.030624999999999999
sS'america sra play'
p31
F0.037777999999999999
sS'necessary'
p32
F0.012225
sS'level'
p33
F0.0065579999999999996
sS'pivotal role'
p34
F0.020216999999999999
sS'mapreduce'
p35
F0.018896
sS'across'
p36
F0.0049670000000000001
sS'team'
p37
F0.003398
sS'enhance'
p38
F0.011606
sS'security'
p39
F0.010078999999999999
sS'high availability'
p40
F0.022811999999999999
sS'emerging technologiessamsung research'
p41
F0.037777999999999999
sS'predictive analytics'
p42
F0.011532000000000001
sS'requirement'
p43
F0.0056150000000000002
sS'unexpected'
p44
F0.037777999999999999
sS'october 1988'
p45
F0.037777999999999999
sS'identify'
p46
F0.0061219999999999998
sS'culture'
p47
F0.0090959999999999999
sS'design'
p48
F0.0036770000000000001
sS'enhancement'
p49
F0.014012999999999999
sS'translates'
p50
F0.023297999999999999
sS'collaborative environment'
p51
F0.018960000000000001
sS'linux redhat ubuntu centos bs ms'
p52
F0.037777999999999999
sS'operational requirementsstrong programming skill'
p53
F0.037777999999999999
sS'decision'
p54
F0.0076360000000000004
sS'best'
p55
F0.0076759999999999997
sS'research'
p56
F0.020986000000000001
sS'content'
p57
F0.010696000000000001
sS'r'
F0.006679
sS'innovation'
p58
F0.013875999999999999
sS'new'
p59
F0.0083730000000000002
sS'leader'
p60
F0.0070159999999999997
sS'discovery'
p61
F0.014798
sS'core'
p62
F0.0092519999999999998
sS'infrastructure'
p63
F0.009103
sS'creating'
p64
F0.0090130000000000002
sS'business'
p65
F0.012213
sS'stakeholder'
p66
F0.0091520000000000004
sS'deliver'
p67
F0.0060610000000000004
sS'hard-working data scientist'
p68
F0.037777999999999999
sS'scalability'
p69
F0.018896
sS'understanding'
p70
F0.0057109999999999999
sS'focused'
p71
F0.009783
sS'brightest'
p72
F0.018301999999999999
sS'key'
p73
F0.0071219999999999999
sS'modeling'
p74
F0.007502
sS'exciting'
p75
F0.01423
sS'perform'
p76
F0.0079109999999999996
sS'talented'
p77
F0.013047
sS'technical'
p78
F0.0042259999999999997
sS'many'
p79
F0.011127
sS'industry'
p80
F0.0050569999999999999
sS'experience'
p81
F0.00166
sS'mentor'
p82
F0.012141000000000001
sS'implement'
p83
F0.0062899999999999996
sS'software'
p84
F0.0090709999999999992
sS'researching'
p85
F0.019887999999999999
sS'researcher'
p86
F0.014343
sS'ca'
p87
F0.020303000000000002
sS'primary'
p88
F0.015167
sS'nosql database'
p89
F0.016043000000000002
sS'south korea sra'
p90
F0.037777999999999999
sS'3-5 year'
p91
F0.035657000000000001
sS'apply'
p92
F0.0062420000000000002
sS'quantitative analysis'
p93
F0.014319999999999999
sS'cloud'
p94
F0.038905000000000002
sS'strong'
p95
F0.0045079999999999999
sS'java'
p96
F0.010078999999999999
sS'proof-of-conceptslead'
p97
F0.037777999999999999
sS'service'
p98
F0.023730999999999999
sS'area'
p99
F0.012073
sS'inside samsungwork'
p100
F0.037777999999999999
sS'create'
p101
F0.0059699999999999996
sS'partnering'
p102
F0.016355000000000001
sS'master'
p103
F0.017179
sS'emerging technology'
p104
F0.017010000000000001
sS'frame'
p105
F0.022374999999999999
sS'responsibilities include'
p106
F0.016390999999999999
sS'define'
p107
F0.0089990000000000001
sS'machine learning algorithm'
p108
F0.012311000000000001
sS'develop new technology'
p109
F0.027120999999999999
sS'company'
p110
F0.0045310000000000003
sS'support mobilitycome join'
p111
F0.037777999999999999
sS'azurespark kafka hadoop hive pigsql nosqlelasticsearch couchbasesas r'
p112
F0.037777999999999999
sS'business process'
p113
F0.012326
sS'mongodb'
p114
F0.017446
sS'america sra'
p115
F0.037777999999999999
sS'prototype'
p116
F0.011592999999999999
sS'ha'
p117
F0.0082570000000000005
sS'data platform'
p118
F0.035962000000000001
sS'customer'
p119
F0.0038839999999999999
sS"world's best-selling mobile device"
p120
F0.037777999999999999
sS'smartphones'
p121
F0.02913
sS'join'
p122
F0.0066379999999999998
sS'scenario'
p123
F0.017222999999999999
sS'developing'
p124
F0.018037000000000001
sS'growing team'
p125
F0.020958999999999998
sS'rapidly'
p126
F0.017266
sS'future'
p127
F0.013538
sS'semantic data modelingproficiency'
p128
F0.037777999999999999
sS'couchbaseexpertise'
p129
F0.037777999999999999
sS'problem'
p130
F0.0061510000000000002
sS'cutting edge technology'
p131
F0.018138999999999999
sS'technology recommendationscreate quick'
p132
F0.037777999999999999
sS'competitive compensation package'
p133
F0.025186
sS'expected deliverablesmodel'
p134
F0.037777999999999999
sS'engaged'
p135
F0.018770999999999999
sS'general'
p136
F0.012703000000000001
sS'resultstroubleshoot issue'
p137
F0.037777999999999999
sS'statistical analysis'
p138
F0.0087650000000000002
sS'partner'
p139
F0.0070470000000000003
sS'semantic data modelswork'
p140
F0.037777999999999999
sS'help u'
p141
F0.013310000000000001
sS'wholly-owned subsidiary'
p142
F0.026048999999999999
sS'technology'
p143
F0.00645
sS'data analytics'
p144
F0.0098659999999999998
sS'optimization algorithmssql'
p145
F0.037777999999999999
sS'information'
p146
F0.0051330000000000004
sS'samsung electronics'
p147
F0.032895000000000001
sS'requirements'
p148
F0.015907999999999999
sS'developmentdesign experiment'
p149
F0.037777999999999999
sS'skills attributes'
p150
F0.028535999999999999
sS'pay'
p151
F0.018193000000000001
sS'make'
p152
F0.0056309999999999997
sS'co ltd'
p153
F0.029815000000000001
sS'amazon web services'
p154
F0.021062000000000001
sS'role'
p155
F0.0046220000000000002
sS'computer science'
p156
F0.0069160000000000003
sS'hypothesis testing'
p157
F0.019656
sS'development'
p158
F0.0029819999999999998
sS'product'
p159
F0.010068000000000001
sS'description'
p160
F0.009195
sS'great opportunity'
p161
F0.019732
sS'headquartered'
p162
F0.028639999999999999
sS'phd'
p163
F0.007136
sS'driven'
p164
F0.0089379999999999998
sS'equivalent experience'
p165
F0.012488000000000001
sS'user'
p166
F0.0083560000000000006
sS'silicon valley'
p167
F0.050372
sS'services'
p168
F0.024117
sS'develop'
p169
F0.003467
sS'hands-on'
p170
F0.012428
sS'achievement'
p171
F0.018589000000000001
sS'varied'
p172
F0.019224999999999999
sS'north america sra'
p173
F0.037777999999999999
sS'spark mapreducehands-on experience using'
p174
F0.037777999999999999
sS'center'
p175
F0.011781
sS'new idea'
p176
F0.017222999999999999
sS'samsung'
p177
F0.158083
sS'mobile'
p178
F0.024199999999999999
sS'well'
p179
F0.0052529999999999999
sS'phd preferredexcellent communication'
p180
F0.037777999999999999
sS'user experience'
p181
F0.027064999999999999
sS'academia'
p182
F0.019968
sS'lifeour mission'
p183
F0.037777999999999999
sS'5 year'
p184
F0.0096620000000000004
sS'us sra'
p185
F0.037777999999999999
s.