(dp1
S'r d'
p2
I1
sS'focus'
p3
I1
sS'entity'
p4
I1
sS'scientist'
p5
I1
sS'query'
p6
I1
sS'skill'
p7
I1
sS'looking'
p8
I1
sS'knowledge'
p9
I1
sS'candidate'
p10
I1
sS'graph'
p11
I1
sS'temporal'
p12
I1
sS'contractor'
p13
I1
sS'better'
p14
I1
sS'matlab'
p15
I1
sS'relevance'
p16
I1
sS'include'
p17
I1
sV[0]
p18
I1
sS'data mining machine learning'
p19
I1
sS'ranking'
p20
I1
sS'collaborate'
p21
I1
sS'motivated'
p22
I1
sS'python'
p23
I1
sS'background'
p24
I1
sS'closely'
p25
I1
sS'report'
p26
I1
sS'term'
p27
I1
sS'signal'
p28
I1
sS'c++'
p29
I1
sS'teams'
p30
I1
sS'statistical tools'
p31
I1
sS'team'
p32
I1
sS'essential'
p33
I1
sS'people'
p34
I1
sS'lab.'
p35
I1
sS'information retrieval'
p36
I1
sS'established'
p37
I1
sS'research'
p38
I1
sS'content'
p39
I1
sS'may'
p40
I1
sS'designing'
p41
I1
sS'issue'
p42
I1
sS'we'
p43
I1
sS'ph.d.'
p44
I1
sS'equivalent'
p45
I1
sS'processing'
p46
I1
sS'understanding'
p47
I1
sS'desired'
p48
I1
sS'job'
p49
I1
sS'strong'
p50
I1
sS'improve'
p51
I1
sS'c'
I1
sS'language'
p52
I1
sS'technical'
p53
I1
sS'experience'
p54
I1
sS'etc'
p55
I1
sS'suitable'
p56
I1
sS'industrial'
p57
I1
sVDoctor
p58
I1
sS'communication'
p59
I1
sS'coding'
p60
I1
sS'highly'
p61
I1
sS'analyzing'
p62
I1
sS'another'
p63
I1
sS'data mining'
p64
I1
sS'your'
p65
I1
sS'environment'
p66
I1
sS'publication'
p67
I1
sS'long'
p68
I1
sS'perl'
p69
I1
sS'extraction'
p70
I1
sS'way'
p71
I1
sS'innovated'
p72
I1
sS'engine'
p73
I1
sS'interest'
p74
I1
sS'search'
p75
I1
sS'idea'
p76
I1
sS'knowledge representation'
p77
I1
sS'understand'
p78
I1
sS'machine learning data mining'
p79
I1
sS'join'
p80
I1
sS'developing'
p81
I1
sS'solid'
p82
I1
sS'work'
p83
I1
sS'machine learning'
p84
I1
sS'project'
p85
I1
sS'record'
p86
I1
sS'r'
I1
sS'about'
p87
I1
sS'scripting'
p88
I1
sS'deep'
p89
I1
sS'engineering'
p90
I1
sS'minimum'
p91
I1
sS'technology'
p92
I1
sS'fluency'
p93
I1
sS'information'
p94
I1
sS'variety'
p95
I1
sS'able'
p96
I1
sS'member'
p97
I1
sS'responsibilities'
p98
I1
sS'computer science'
p99
I1
sS'natural language processing'
p100
I1
sS'preferable'
p101
I1
sS'track'
p102
I1
sS'collaboration'
p103
I1
sS'qualifications'
p104
I1
sS'includes'
p105
I1
sS'intent'
p106
I1
sS'improving'
p107
I1
sS'a'
I1
sS'natural'
p108
I1
sS'analysis'
p109
I1
sS'person'
p110
I1
sS'responsibility'
p111
I1
sS'position'
p112
I1
sS'retrieval'
p113
I1
s.