(dp1
S'healthcare industry'
p2
F0.020396999999999998
sS'web service'
p3
F0.020715999999999998
sS'insight'
p4
F0.012295
sS'focus'
p5
F0.0091439999999999994
sS'existing'
p6
F0.0096530000000000001
sS'step cat litter glad bag wrap'
p7
F0.039351999999999998
sS'including'
p8
F0.0039170000000000003
sS'data pipeline'
p9
F0.018676999999999999
sS'scoring'
p10
F0.022048000000000002
sS'visualization'
p11
F0.028667000000000002
sS'data scientist intern'
p12
F0.026516000000000001
sS'interpretable business'
p13
F0.039351999999999998
sS'personal'
p14
F0.01272
sS'user interface'
p15
F0.019618
sS'rich'
p16
F0.017940000000000001
sS'2014'
p17
F0.026235000000000001
sS'2016'
p18
F0.019182000000000001
sS'data mining machine learning'
p19
F0.017718999999999999
sS'data modeling'
p20
F0.013679999999999999
sS'result translating'
p21
F0.025257000000000002
sS'format'
p22
F0.015108999999999999
sS'data transformation'
p23
F0.020553999999999999
sS'preferred'
p24
F0.0066579999999999999
sS'analytical models'
p25
F0.032933999999999998
sS'key responsibilities'
p26
F0.016999
sS'deployment'
p27
F0.010637000000000001
sS'clorox company'
p28
F0.11805599999999999
sS'using'
p29
F0.015419
sS'difference'
p30
F0.011455
sS'advanced'
p31
F0.0072309999999999996
sS'clorox using'
p32
F0.039351999999999998
sS'name'
p33
F0.019241999999999999
sS'position summary'
p34
F0.013450999999999999
sS'analytical'
p35
F0.012612999999999999
sS'model parameters found'
p36
F0.039351999999999998
sS'mathematical'
p37
F0.012219000000000001
sS'set'
p38
F0.019755999999999999
sS'equal opportunity employer minorities women protected veterans disabled'
p39
F0.029725000000000001
sS'big data technology'
p40
F0.012977000000000001
sS'leading multinational manufacturer'
p41
F0.039351999999999998
sS'professional'
p42
F0.0081519999999999995
sS'result'
p43
F0.017940999999999999
sS'operation'
p44
F0.0085349999999999992
sS'new technology proof-of-concept project'
p45
F0.039351999999999998
sS'learn new technology'
p46
F0.021059000000000001
sS'ability'
p47
F0.0026289999999999998
sS'restricted'
p48
F0.039351999999999998
sS'contributed'
p49
F0.032933999999999998
sS'56 billion clorox market'
p50
F0.039351999999999998
sS'various'
p51
F0.0080009999999999994
sS'cloud'
p52
F0.010132
sS'new'
p53
F0.0043610000000000003
sS'marketer'
p54
F0.019302
sS'foundation'
p55
F0.015084999999999999
sS'data analysis'
p56
F0.0089580000000000007
sS'creating'
p57
F0.018776000000000001
sS'business'
p58
F0.0031800000000000001
sS'marketing'
p59
F0.0080389999999999993
sS'understanding'
p60
F0.0059490000000000003
sS'key'
p61
F0.0074190000000000002
sS'modeling'
p62
F0.0078139999999999998
sS'employee volunteerism'
p63
F0.039351999999999998
sS'care'
p64
F0.022667
sS"category clorox's commitment"
p65
F0.039351999999999998
sS'training'
p66
F0.027637999999999999
sS'working'
p67
F0.0050210000000000003
sS'data visualization'
p68
F0.010819
sS'involved'
p69
F0.015685999999999999
sS'data ingestion'
p70
F0.020171000000000001
sS'recognized'
p71
F0.011603
sS'participating'
p72
F0.038727999999999999
sS'required qualifications'
p73
F0.014846
sS'plus'
p74
F0.0071069999999999996
sS'action'
p75
F0.012704999999999999
sS'whole'
p76
F0.019123000000000001
sS'including clorox healthcare healthlink aplicare'
p77
F0.039351999999999998
sS'microsoft azure'
p78
F0.047849999999999997
sS'duty'
p79
F0.0132
sS'master degree'
p80
F0.021627
sS'data science'
p81
F0.0054900000000000001
sS'community'
p82
F0.0083649999999999992
sS'namesake bleach'
p83
F0.039351999999999998
sS'fiscal year'
p84
F0.068531999999999996
sS'initiative'
p85
F0.0087600000000000004
sS'learning'
p86
F0.010182
sS'80 percent'
p87
F0.034265999999999998
sS'market'
p88
F0.017420999999999999
sS'experimentation'
p89
F0.018221000000000001
sS'earning bachelor'
p90
F0.039351999999999998
sS'statistics'
p91
F0.024153000000000001
sS'prepare'
p92
F0.015741999999999999
sS'positive'
p93
F0.015285
sS'next'
p94
F0.015337
sS'needed'
p95
F0.0096760000000000006
sS'2'
F0.012945999999999999
sS'combined'
p96
F0.021059000000000001
sS'interest'
p97
F0.011779
sS'kc masterpiece dressing'
p98
F0.039351999999999998
sS'valley'
p99
F0.032933999999999998
sS'knowledge'
p100
F0.0085109999999999995
sS'data management'
p101
F0.012574999999999999
sS'exploring'
p102
F0.020799999999999999
sS'finally operationalizing model'
p103
F0.039351999999999998
sS'company'
p104
F0.0047200000000000002
sS'language'
p105
F0.0090969999999999992
sS'8'
F0.018078
sS'hold'
p106
F0.019618
sS'end user'
p107
F0.016154999999999999
sS'computer science engineering applied math'
p108
F0.034265999999999998
sS'applied'
p109
F0.011443999999999999
sS'input'
p110
F0.033634999999999998
sS'developing'
p111
F0.0062630000000000003
sS'container kingsford charcoal hidden'
p112
F0.039351999999999998
sS'cash'
p113
F0.027133999999999998
sS'machine learning'
p114
F0.015056
sS'data set'
p115
F0.014893
sS"burt's bees natural"
p116
F0.039351999999999998
sS'r'
F0.013913999999999999
sS'making'
p117
F0.011708
sS"company's"
p118
F0.016185999999999999
sS'server'
p119
F0.017465999999999999
sS'display'
p120
F0.0395
sS'extracting'
p121
F0.018783999999999999
sS'would'
p122
F0.012604000000000001
sS'ai'
p123
F0.018950999999999999
sS'share'
p124
F0.012533000000000001
sS'16 million'
p125
F0.039351999999999998
sS'experience'
p126
F0.0034589999999999998
sS'technology'
p127
F0.0033600000000000001
sS'trusted'
p128
F0.018571000000000001
sS'grant'
p129
F0.026814999999999999
sS'400 employee worldwide'
p130
F0.039351999999999998
sS'excel'
p131
F0.012824
sS'1'
F0.012519000000000001
sS'also'
p132
F0.0076689999999999996
sS'methodology'
p133
F0.0081300000000000001
sS'business units'
p134
F0.028691999999999999
sS'test'
p135
F0.018020999999999999
sS'brand'
p136
F0.034500000000000003
sS'development'
p137
F0.0031059999999999998
sS'product'
p138
F0.013983000000000001
sS'dispatch infection control'
p139
F0.039351999999999998
sS'company profile'
p140
F0.026516000000000001
sS'product donation cause'
p141
F0.039351999999999998
sS'reporting'
p142
F0.0095259999999999997
sS'tool'
p143
F0.010026
sS'includes'
p144
F0.011422
sS'meaning'
p145
F0.01975
sS'cleaning'
p146
F0.022891999999999999
sS'sql'
p147
F0.0051479999999999998
sS'sauce brita water-filtration product'
p148
F0.039351999999999998
sS'data'
p149
F0.0067780000000000002
sS'product pine-sol cleaner liquid plumr clog remover poett home'
p150
F0.039351999999999998
sS'professional service'
p151
F0.021430000000000001
sS'algorithm'
p152
F0.011506000000000001
sS'database'
p153
F0.013663
sS'consumer'
p154
F0.019366999999999999
sS'required'
p155
F0.0089709999999999998
sS'query language'
p156
F0.019241999999999999
sS'sale'
p157
F0.011613999999999999
sS'analysis'
p158
F0.0037929999999999999
sS'massaging'
p159
F0.039351999999999998
sS'ms word powerpoint'
p160
F0.039351999999999998
sS'fresh'
p161
F0.027477000000000001
sS'responsibility'
p162
F0.0091649999999999995
sS'presenting'
p163
F0.016216999999999999
sS'position'
p164
F0.0045500000000000002
sS'model'
p165
F0.018445
sS'corporate'
p166
F0.011864
sS'microsoft'
p167
F0.017985999999999999
s.