(dp1
S''
F0.0090819999999999998
sS'nlp'
p2
F0.015751999999999999
sS'code'
p3
F0.0090609999999999996
sS'related field'
p4
F0.0074000000000000003
sS'healthcare industry'
p5
F0.019581000000000001
sS'information visit http wwwmidaspluscom'
p6
F0.032895000000000001
sS'insight'
p7
F0.011802999999999999
sS'demonstrated ability'
p8
F0.011606
sS'healthcare continuum'
p9
F0.032895000000000001
sS'data discovery'
p10
F0.020132000000000001
sS'object oriented'
p11
F0.037297999999999998
sS'concept'
p12
F0.0086630000000000006
sS'identify'
p13
F0.0061219999999999998
sS'statistical'
p14
F0.0067939999999999997
sS'skill'
p15
F0.0041009999999999996
sS'integrity'
p16
F0.011833
sS'position'
p17
F0.0043680000000000004
sS'group'
p18
F0.0078899999999999994
sS'knowledge'
p19
F0.0040850000000000001
sS'candidate'
p20
F0.0083090000000000004
sS'classification- decision trees logistic regression'
p21
F0.032895000000000001
sS'disability'
p22
F0.010114
sS'methodology'
p23
F0.0078050000000000003
sS'analytic'
p24
F0.0079760000000000005
sS'setting'
p25
F0.012503
sS'time-series- ar arma garch'
p26
F0.032895000000000001
sS'include'
p27
F0.0083029999999999996
sS'collaborate'
p28
F0.015141
sS'large transactional data set'
p29
F0.032895000000000001
sS'seeking'
p30
F0.0080029999999999997
sS'expectation'
p31
F0.016077000000000001
sS'software developer'
p32
F0.015944
sS'report'
p33
F0.0061910000000000003
sS'one'
p34
F0.0051330000000000004
sS'programming skill'
p35
F0.01359
sS'advanced'
p36
F0.0069420000000000003
sS'discovered'
p37
F0.025186
sS'masters'
p38
F0.012442999999999999
sS'name'
p39
F0.018471999999999999
sS'issue'
p40
F0.0078580000000000004
sS'solution'
p41
F0.0094809999999999998
sS'method'
p42
F0.0062160000000000002
sS'used'
p43
F0.018665999999999999
sS'excellence'
p44
F0.010558
sS'team'
p45
F0.001699
sS'enhance'
p46
F0.011606
sS'guide dog'
p47
F0.031616999999999999
sS'vision'
p48
F0.0096780000000000008
sS'predictive'
p49
F0.020697
sS'r octave matlab knime julia python'
p50
F0.032895000000000001
sS'people'
p51
F0.005751
sS'conduent'
p52
F0.094850000000000004
sS'analytics team member'
p53
F0.026048999999999999
sS'sex'
p54
F0.019293999999999999
sS'analytics'
p55
F0.0040759999999999998
sS'regression- linear nonlinear boosted regression trees hierarchical'
p56
F0.032895000000000001
sS'experienced'
p57
F0.011846000000000001
sS'design'
p58
F0.0036770000000000001
sS'employment'
p59
F0.010685999999999999
sS'accommodation conduentcom'
p60
F0.032895000000000001
sS'throughout'
p61
F0.011668
sS'expert'
p62
F0.0084399999999999996
sS'gender identity'
p63
F0.016077000000000001
sS'develop'
p64
F0.003467
sS'exceeding'
p65
F0.028013
sS'research'
p66
F0.0052469999999999999
sS'e-mail'
p67
F0.021850999999999999
sS'new'
p68
F0.0041859999999999996
sS'approach'
p69
F0.0073010000000000002
sS'across'
p70
F0.0049670000000000001
sS'law'
p71
F0.010377000000000001
sS'proven track record'
p72
F0.014848999999999999
sS'data analysis'
p73
F0.0086
sS'ability'
p74
F0.0025240000000000002
sS'business'
p75
F0.0030530000000000002
sS'deliver'
p76
F0.0060610000000000004
sS'stakeholder'
p77
F0.0091520000000000004
sS'communicate'
p78
F0.017350999999999998
sS'data quality'
p79
F0.013726
sS'job'
p80
F0.010581999999999999
sS'base'
p81
F0.017878999999999999
sS'required skills'
p82
F0.013868
sS'address'
p83
F0.010676
sS'understanding'
p84
F0.0057109999999999999
sS'generate'
p85
F0.013401
sS'sending'
p86
F0.028013
sS'mental disability'
p87
F0.013401
sS'phd degree'
p88
F0.01545
sS'language'
p89
F0.0087329999999999994
sS'preferred skills'
p90
F0.017010000000000001
sS'midas+ solutions'
p91
F0.034696999999999999
sS'experience'
p92
F0.0049810000000000002
sS'clustering- k-means fuzzy c-means hierarchical clustering mixture modeling'
p93
F0.032895000000000001
sS'mentor'
p94
F0.012141000000000001
sS'broad audience'
p95
F0.022238000000000001
sS'relational'
p96
F0.017729999999999999
sS'financial'
p97
F0.0085500000000000003
sS'data integration'
p98
F0.016355000000000001
sS'software'
p99
F0.0045360000000000001
sS'5+ year'
p100
F0.022801999999999999
sS'svm random forest'
p101
F0.032895000000000001
sS'computational'
p102
F0.014297000000000001
sS'sql'
p103
F0.0049420000000000002
sS'midas+ pioneered'
p104
F0.034696999999999999
sS'strategic'
p105
F0.0078630000000000002
sS'appropriate'
p106
F0.0092020000000000001
sS'conduent business'
p107
F0.032895000000000001
sS'scripting language'
p108
F0.015421000000000001
sS'apply'
p109
F0.0062420000000000002
sS'non-conduent data scientist'
p110
F0.034696999999999999
sS'quality'
p111
F0.0074339999999999996
sS'effectively communicate complex'
p112
F0.028535999999999999
sS'use'
p113
F0.0048069999999999996
sS'statistics'
p114
F0.011592999999999999
sS'healthcare data scientist'
p115
F0.026048999999999999
sS'service'
p116
F0.0047460000000000002
sS'basis'
p117
F0.01357
sS'data'
p118
F0.0021689999999999999
sS'support'
p119
F0.003042
sS'service animal military'
p120
F0.031616999999999999
sS'system'
p121
F0.0040850000000000001
sS'veteran status citizenship status'
p122
F0.030624999999999999
sS'accommodation'
p123
F0.028284
sS'production'
p124
F0.0088310000000000003
sS'strong'
p125
F0.0045079999999999999
sS'midas+ client'
p126
F0.034696999999999999
sS'clinical'
p127
F0.014076999999999999
sS'translate'
p128
F0.011343000000000001
sS'today'
p129
F0.013887999999999999
sS'tool'
p130
F0.006417
sS'immediate'
p131
F0.018471999999999999
sS'statistical model'
p132
F0.012533000000000001
sS'part'
p133
F0.0060790000000000002
sS'understand'
p134
F0.012662
sS'high volume'
p135
F0.019581000000000001
sS'known'
p136
F0.016427000000000001
sS'subsidiary'
p137
F0.019968
sS'translation'
p138
F0.025186
sS'genetic information'
p139
F0.017135999999999998
sS'acute care'
p140
F0.031616999999999999
sS'statistical analysis'
p141
F0.0087650000000000002
sS'prescriptive analysis'
p142
F0.026734000000000001
sS'machine learning'
p143
F0.0048180000000000002
sS'employ'
p144
F0.013950000000000001
sS'race color creed religion ancestry national origin age'
p145
F0.031616999999999999
sS'protected'
p146
F0.018709
sS'statistical technique'
p147
F0.016213999999999999
sS'following'
p148
F0.0080689999999999998
sS'strong written'
p149
F0.017354999999999999
sS'anticipating'
p150
F0.031616999999999999
sS'reasonable accommodation'
p151
F0.016847000000000001
sS'marital status sexual orientation'
p152
F0.029815000000000001
sS'equal opportunity employer'
p153
F0.0083269999999999993
sS'sas'
p154
F0.0097909999999999994
sS'business intelligence'
p155
F0.011261999999999999
sS'provide distinct yet tightly integrated'
p156
F0.032895000000000001
sS'building enduring relationship'
p157
F0.032895000000000001
sS'need'
p158
F0.014342000000000001
sS'partner'
p159
F0.0070470000000000003
sS'education'
p160
F0.0072639999999999996
sS'physical'
p161
F0.013726
sS'develop novel'
p162
F0.025454999999999998
sS'large data set residing within'
p163
F0.032895000000000001
sS'maintains'
p164
F0.015911999999999999
sS'-'
F0.0066499999999999997
sS'pmml'
p165
F0.031616999999999999
sS'client'
p166
F0.011358
sS'responsibilities'
p167
F0.0055199999999999997
sS'interested'
p168
F0.012895999999999999
sS'role'
p169
F0.0046220000000000002
sS'performance'
p170
F0.006496
sS'complex'
p171
F0.0070419999999999996
sS'product'
p172
F0.003356
sS'sure'
p173
F0.025742000000000001
sS'quality-driven company'
p174
F0.032895000000000001
sS'may'
p175
F0.0087200000000000003
sS'department parc'
p176
F0.032895000000000001
sS'collaboration'
p177
F0.0087460000000000003
sS'welcome'
p178
F0.018033
sS'qualifications'
p179
F0.0053569999999999998
sS'educate'
p180
F0.020480999999999999
sS'neural net'
p181
F0.028535999999999999
sS'business driver'
p182
F0.024247000000000001
sS'long-term'
p183
F0.016574999999999999
sS'a3'
p184
F0.034696999999999999
sS'verbal communication skill'
p185
F0.014142
sS'services'
p186
F0.012059
sS'requirements'
p187
F0.0079539999999999993
sS'temporal data'
p188
F0.028013
sS'opportunity'
p189
F0.0044590000000000003
sS'remote'
p190
F0.017179
sS'considers applicant'
p191
F0.031616999999999999
sS'database'
p192
F0.0065579999999999996
sS'request'
p193
F0.01115
sS'maintain'
p194
F0.0082279999999999992
sS'compete'
p195
F0.027543999999999999
sS'management'
p196
F0.010050999999999999
sS'model'
p197
F0.0088540000000000008
sS'without regard'
p198
F0.014824
sS'concrete experience'
p199
F0.032895000000000001
s.