(dp1
S'global'
p2
F0.012959999999999999
sS'including'
p3
F0.0063610000000000003
sS'rewarded'
p4
F0.033644
sS'strong background'
p5
F0.025892999999999999
sS'looking'
p6
F0.010194999999999999
sS'big data'
p7
F0.011708
sS'implementation'
p8
F0.012824
sS'descriptive diagnostic predictive'
p9
F0.051809000000000001
sS'environment'
p10
F0.0087039999999999999
sS'charge'
p11
F0.038856000000000002
sS'prescriptive modeling'
p12
F0.041385999999999999
sS'evaluate'
p13
F0.017305999999999998
sS'prescriptive insight'
p14
F0.048274999999999998
sS'highlight opportunity'
p15
F0.058698
sS'fast growing'
p16
F0.041385999999999999
sS'background'
p17
F0.013783999999999999
sS'report'
p18
F0.010473
sS'using'
p19
F0.0083470000000000003
sS'hands-on experience'
p20
F0.024302000000000001
sS'bonus points'
p21
F0.040335000000000003
sS'desire'
p22
F0.02128
sS'benefit'
p23
F0.015689999999999999
sS'either'
p24
F0.023998999999999999
sS'strong analytical'
p25
F0.025520000000000001
sS'vision'
p26
F0.016372999999999999
sS'predictive'
p27
F0.017507000000000002
sS'java python'
p28
F0.033001000000000003
sS'testing'
p29
F0.01436
sS'big data technology'
p30
F0.021075
sS'competitive base salary'
p31
F0.043548999999999997
sS'statistic'
p32
F0.013764999999999999
sS'scala'
p33
F0.022860999999999999
sS'semiconductor'
p34
F0.093195
sS'electronics'
p35
F0.085216
sS'data analysis'
p36
F0.043645000000000003
sS'assembly'
p37
F0.040668999999999997
sS'communicate'
p38
F0.014676
sS'dental'
p39
F0.033917999999999997
sS'data scientist'
p40
F0.014902
sS'please read'
p41
F0.038592000000000001
sS'job'
p42
F0.0089510000000000006
sS'dedication'
p43
F0.034057999999999998
sS'spark'
p44
F0.018388999999999999
sS'strong'
p45
F0.0076270000000000001
sS'abroad'
p46
F0.046597
sS'please apply today'
p47
F0.035123000000000001
sS'experience'
p48
F0.0042129999999999997
sS'hard work'
p49
F0.037621000000000002
sS'statistical modeling technique'
p50
F0.038856000000000002
sS'5+ year'
p51
F0.038574999999999998
sS'classification'
p52
F0.024618999999999999
sS'design implement'
p53
F0.029284999999999999
sS'big data analysis'
p54
F0.040335000000000003
sS'vacation pto'
p55
F0.051809000000000001
sS'prefer'
p56
F0.039708
sS'data mining'
p57
F0.014086
sS'quality'
p58
F0.012576
sS'engineer'
p59
F0.012799
sS'use'
p60
F0.0081320000000000003
sS'working'
p61
F0.0081550000000000008
sS'system'
p62
F0.0069119999999999997
sS'improve'
p63
F0.011318999999999999
sS'enable'
p64
F0.016992
sS'machine learning algorithm'
p65
F0.020826999999999998
sS"what's"
p66
F0.027851999999999998
sS'great work environment'
p67
F0.032184999999999998
sS'automated'
p68
F0.022100999999999999
sS'customer'
p69
F0.013141
sS'join'
p70
F0.01123
sS'work'
p71
F0.0026189999999999998
sS'us'
p72
F0.012683
sS'machine learning'
p73
F0.024451000000000001
sS'r'
F0.011298000000000001
sS'product management'
p74
F0.022516999999999999
sS'problem'
p75
F0.010404999999999999
sS'engineers'
p76
F0.029135999999999999
sS'process'
p77
F0.015219999999999999
sS"master's degree"
p78
F0.016818
sS'need'
p79
F0.0080870000000000004
sS'develop'
p80
F0.011730000000000001
sS'statistics mathematics'
p81
F0.036173999999999998
sS'responsible'
p82
F0.0092589999999999999
sS'-'
F0.19125600000000001
sS'hadoop'
p83
F0.014579999999999999
sS'machine learning technique'
p84
F0.021817
sS'maintain'
p85
F0.013919000000000001
sS'computer science'
p86
F0.011701
sS'test'
p87
F0.014633999999999999
sS'development'
p88
F0.005045
sS'product'
p89
F0.0056769999999999998
sS'multiple'
p90
F0.014517
sS'401 k'
p91
F0.030506999999999999
sS'sql'
p92
F0.0083610000000000004
sS'solve complex'
p93
F0.035123000000000001
sS'exposure'
p94
F0.022893
sS'organization'
p95
F0.0084410000000000006
sS'algorithm'
p96
F0.018686000000000001
sS'medical'
p97
F0.024225
sS'well'
p98
F0.0088859999999999998
sS'client'
p99
F0.0096069999999999992
sS'enterprise'
p100
F0.013929
sS'position'
p101
F0.0073899999999999999
s.