(dp1
S'atmosphere'
p2
F0.013947571306564443
sS'serving'
p3
F0.023810693006324213
sS'show'
p4
F0.012074898016038598
sS'better.'
p5
F0.014929517384072754
sS'mission'
p6
F0.0069020585460344798
sS'characteristic'
p7
F0.0086080143833863962
sS'bring'
p8
F0.0071433407147571256
sS'scientist'
p9
F0.01147539207365271
sS'including'
p10
F0.0039850382343507382
sS'keywords'
p11
F0.014619455166019819
sS'portfolio'
p12
F0.010039747446493321
sS'skill'
p13
F0.0072727242954770165
sS'data'
p14
F0.001031317285864982
sS'find'
p15
F0.0081999471526442973
sS'resource'
p16
F0.0079835172048520284
sS'group'
p17
F0.013705326192920808
sS'knowledge'
p18
F0.0040184273717168732
sS'work.'
p19
F0.011167777647258258
sS'field'
p20
F0.0049524099524347106
sS'unitedhealthcare'
p21
F0.01642579024067067
sS'disability'
p22
F0.0055369610690294635
sS'minnesota'
p23
F0.015794710117281133
sS'shaping'
p24
F0.014227164113492088
sS'analytic'
p25
F0.019632399759127329
sS'team.'
p26
F0.0092759727483856472
sS'combine'
p27
F0.011206339053652535
sVComputer Science
p28
F0.0026242195546440513
sS'health'
p29
F0.030435031867377643
sS'ca'
p30
F0.011006364051006943
sS'smart'
p31
F0.010590783980460492
sS'unitedhealth'
p32
F0.031716833644670997
sS'minnetonka'
p33
F0.016846606305797988
sS'around'
p34
F0.006922645122847829
sS'disparate'
p35
F0.011232334656654927
sS'exceptional'
p36
F0.0087320580904741256
sS'python'
p37
F0.0030217479000189331
sS'evaluate'
p38
F0.0082508378310327483
sS'growth'
p39
F0.0072306360054301281
sS'preferred'
p40
F0.0045249735522943004
sS'primary'
p41
F0.0080437228618390113
sS'telecommuter'
p42
F0.018514324671742327
sS'qualified'
p43
F0.0064927901057258829
sS'if'
p44
F0.0069196952146569051
sS'using'
p45
F0.0043448893433575015
sS'now'
p46
F0.013215430970979382
sS'about.'
p47
F0.016505207286215649
sS'advanced'
p48
F0.015427312903321316
sS'service'
p49
F0.0047183761125008236
sS'fortune'
p50
F0.0079920418183357014
sS'like'
p51
F0.0067759019519264422
sS'unstructured data'
p52
F0.0092429229955164061
sS'gender'
p53
F0.0062348917342434753
sS'performing'
p54
F0.0093912473408735413
sS'solution'
p55
F0.0038460007887477711
sS'hive'
p56
F0.0060456644912753816
sS'leader'
p57
F0.0061590721930445003
sS'audience'
p58
F0.0084338533200676788
sS'race'
p59
F0.0059533783155158353
sS'excellence'
p60
F0.0079412662398551173
sS'team'
p61
F0.0028446118288287863
sS'small'
p62
F0.0087101003515603678
sS'found'
p63
F0.013981080665771448
sS'challenge'
p64
F0.0069612697065988107
sS'data analytics'
p65
F0.0059197758883646296
sS'predictive analytics'
p66
F0.0066739077487791027
sS'predictive'
p67
F0.0062209579928491944
sVStatistics
p68
F0.0052217529561973336
sS'financial'
p69
F0.0074381116692033159
sS'opportunity/affirmative'
p70
F0.011042823476476114
sS'deal'
p71
F0.0282382637958358
sS'people'
p72
F0.005279766158756095
sS'national'
p73
F0.0057593461680643214
sS'idea'
p74
F0.0070095253957705396
sS'related'
p75
F0.0043339972366222756
sS'sex'
p76
F0.0067093359416083697
sS'prototyping'
p77
F0.012110031852515109
sS'second'
p78
F0.014154697112750105
sS'cost'
p79
F0.010245907429525285
sVMaster
p80
F0.0021080599571715272
sS'result'
p81
F0.0053837370244698675
sS'year'
p82
F0.0030784631527608743
sS'home'
p83
F0.011298362369595014
sS'telecommute'
p84
F0.017932671565767874
sS'employment'
p85
F0.016388703289939452
sS'best'
p86
F0.010671098138442473
sS'85'
p87
F0.017131939037356839
sS'extend'
p88
F0.013947571306564443
sS'expert'
p89
F0.0060565887083685903
sS'sr.'
p90
F0.024436126510555878
sS'/'
F0.013369525346055724
sS'research'
p91
F0.0024729285265557631
sS'big data analytics'
p92
F0.0096065771152129865
sS'religion'
p93
F0.0060282709530767231
sS'state'
p94
F0.0081274839448523262
sS'protected'
p95
F0.012497785593021882
sS'passion'
p96
F0.015620118523910518
sS'innovation'
p97
F0.0056110860061876046
sS'get'
p98
F0.0084239273086452512
sS'approach'
p99
F0.0064953357732488873
sS'across'
p100
F0.0047614541339862562
sS'measuring'
p101
F0.013914444922944238
sS'careers'
p102
F0.011955178735390218
sS'we'
p103
F0.0036174350958839093
sS'various'
p104
F0.013219236875280711
sS'ability'
p105
F0.014713768539717962
sS'business'
p106
F0.0068146919614265724
sS'nature'
p107
F0.011971981704116064
sS'data scientist'
p108
F0.0030706425077213864
sS'million'
p109
F0.0073581288212789149
sS'communicate'
p110
F0.0058151967602364987
sS'ever'
p111
F0.011534821494062611
sS'job'
p112
F0.0041367230096909678
sS'drug-free'
p113
F0.010819300208787854
sS'key'
p114
F0.0057103732229673229
sS'peer'
p115
F0.0098635206751697783
sS'consideration'
p116
F0.0074914894221358832
sS'method'
p117
F0.01900305057147645
sS'strong'
p118
F0.0079850883037743438
sS'beginning'
p119
F0.01366224020064646
sS'care.'
p120
F0.015384130804996659
sS'change'
p121
F0.0065467244447271877
sS'improve'
p122
F0.012309080414797991
sS'workplace.'
p123
F0.010774361621415915
sS'great'
p124
F0.0078140708265837661
sS'work.sm'
p125
F0.022227172875461061
sVBusiness
p126
F0.0031354039048525051
sS'data visualization'
p127
F0.0057006771755930457
sS'technical'
p128
F0.0044586446728138232
sS'industry'
p129
F0.014225760591419261
sS'equal'
p130
F0.0048423733616311283
sS'experience'
p131
F0.0098157187730936579
sS'creates'
p132
F0.010321196526978799
sS'etc'
p133
F0.0063079698208361214
sS'range'
p134
F0.0074100404866268817
sS'healthier'
p135
F0.011905346503162106
sS'breakdown'
p136
F0.018067511919853858
sS'due'
p137
F0.013632203407716103
sS'action'
p138
F0.0072208056587690951
sS'military'
p139
F0.010819300208787854
sS'retail'
p140
F0.0099882941577290503
sS'expression'
p141
F0.0098311353803611605
sS'origin'
p142
F0.0059959368152624594
sS'computational'
p143
F0.0210984561391558
sS'family'
p144
F0.010643581002275719
sVDoctor
p145
F0.0031570486138448347
sS'color'
p146
F0.005791128863299343
sS'data science'
p147
F0.0034864954366973888
sS'commitment'
p148
F0.010013906625506294
sS'community'
p149
F0.0076806996400849512
sS'highly'
p150
F0.0056603043905820759
sS'learning'
p151
F0.010549495669492268
sS'modeling'
p152
F0.0023540454754247897
sS'apply'
p153
F0.0059302348509311046
sS'employer'
p154
F0.012810143888814428
sS'quality'
p155
F0.0062818274346129162
sS'spark'
p156
F0.0048873496327990103
sS'orientation'
p157
F0.0061029255101928189
sS'statistics'
p158
F0.0027029358110220426
sS'near-obsession'
p159
F0.018680000962654458
sS'utilization'
p160
F0.01366224020064646
sS"it's"
p161
F0.010457850062648969
sS'support'
p162
F0.0040819500864022456
sS'structured'
p163
F0.0082322285732848288
sS'add'
p164
F0.012218063255277939
sS'start'
p165
F0.01109216061756591
sS'genetic'
p166
F0.0086185925055495653
sS'intermediate'
p167
F0.014377770968656545
sS'california'
p168
F0.010970357559474654
sS'interest'
p169
F0.0085094022057880404
sS'6'
F0.010664972075758403
sS'candidates'
p170
F0.010808000072722687
sS"industry's"
p171
F0.014883139854010229
sS'care'
p172
F0.025109801128886451
sS'energy'
p173
F0.0089434646552176353
sS'define'
p174
F0.0080963422492149033
sS'life'
p175
F0.0064750327736404836
sS'diversity'
p176
F0.0073105027746833418
sS'globe.'
p177
F0.010923034314853414
sS'relevant'
p178
F0.0063536878829256052
sS'tool'
p179
F0.007963654712185143
sS'regard'
p180
F0.0069285539627207508
sS'bold'
p181
F0.013164128390832881
sS'proficiency'
p182
F0.015172811239922866
sS'marital'
p183
F0.0079370748242591025
sS'effort'
p184
F0.0077115334095176772
sS'play'
p185
F0.0097753175186256966
sS'wide'
p186
F0.0083943516293624367
sS'join'
p187
F0.0057045517021731881
sS'look'
p188
F0.010601266725379878
sS'developing'
p189
F0.010865479837298374
sS'this'
p190
F0.0046314168129137955
sS'science'
p191
F0.0020377793860698332
sS'applied mathematics'
p192
F0.0087597412894020472
sS'mn'
p193
F0.014014981959361366
sS'machine learning'
p194
F0.0019000513676348967
sS'project'
p195
F0.0043594761439944545
sS'receive'
p196
F0.0073037624978495117
sS'r'
F0.0016086733525041772
sS'achieve'
p197
F0.0082695673503024869
sS'ms'
p198
F0.0079454637259623109
sS'already'
p199
F0.013632203407716103
sS'computer science'
p200
F0.0040753138063397698
sS'problem'
p201
F0.010404254240564409
sS"life's"
p202
F0.03034647041936905
sS'required'
p203
F0.0094395115506620535
sS'san'
p204
F0.0090215615251244448
sS'stream'
p205
F0.011808180905493897
sS'status'
p206
F0.016765946256726984
sS'well'
p207
F0.0054522200905884645
sS'role'
p208
F0.0048640489110886769
sS'unitedhealthcare.'
p209
F0.022227172875461061
sS'drive'
p210
F0.0055205410795169047
sS'need'
p211
F0.0051552396878606259
sS'diverse'
p212
F0.0065337915934365592
sS'drug'
p213
F0.010970357559474654
sS'want'
p214
F0.0077231811752806814
sS'none.'
p215
F0.018680000962654458
sS'sas'
p216
F0.0040151792947171498
sVMathematics
p217
F0.0049689058828476865
sS'work'
p218
F0.005631719658675963
sS'clearly'
p219
F0.0096973975050842938
sS'impeccable'
p220
F0.015858416822335498
sS'risk'
p221
F0.008504303881339546
sS'foundational'
p222
F0.014704712262415905
sS'diego'
p223
F0.01567134945795132
sS'autonomy'
p224
F0.014704712262415905
sS'issue'
p225
F0.0071529113495203828
sS'sexual'
p226
F0.0062093975023016302
sS'veteran'
p227
F0.011374313969423726
sS'predictive modeling'
p228
F0.006026104083156434
sS'hadoop'
p229
F0.0037240768156509129
sS'machine'
p230
F0.011789654658017647
sS'telco'
p231
F0.019042792139476065
sS'responsibilities'
p232
F0.0049093655592580667
sS'complex'
p233
F0.0095425414215181432
sS'5'
F0.0075385589639716142
sV(2, 5]
p234
F0.0035911432708148855
sS'test'
p235
F0.0072044954862257263
sS'you'
p236
F0.010677929231765738
sS'really'
p237
F0.012991399570886443
sVData Science
p238
F0.0029776492249422104
sS'development'
p239
F0.0035100318910554163
sS'picture'
p240
F0.013402497251606327
sS'product'
p241
F0.0038985301180224541
sS'opportunity.'
p242
F0.029953298115373925
sS'singular'
p243
F0.017131939037356839
sS'statistical method'
p244
F0.010190696895801482
sS'qualifications'
p245
F0.0089223358039380498
sS'phd'
p246
F0.0071561085976498346
sS"let's"
p247
F0.016938631247361582
sS'pas'
p248
F0.013189666176942243
sS'individual'
p249
F0.005938629285766041
sS'data analysis'
p250
F0.0043007594636685952
sS'sql'
p251
F0.001976648866182745
sS'build'
p252
F0.0049256175585427452
sS'information'
p253
F0.0040205947812446217
sS'law'
p254
F0.007434587865862272
sVPhysics
p255
F0.007605020583188668
sS'cross'
p256
F0.010899659320968683
sS'identity'
p257
F0.006528634570338341
sS"they're"
p258
F0.01642579024067067
sS'building'
p259
F0.005507833995205178
sS'remote'
p260
F0.011955178735390218
sS'driving'
p261
F0.0092363580298372924
sS'algorithm'
p262
F0.0054789967909405959
sS'telecommuting'
p263
F0.016505207286215649
sS'age'
p264
F0.0065209162021564225
sS'applicant'
p265
F0.0063079698208361214
sS'working'
p266
F0.0037843974292398152
sS'execution.'
p267
F0.016670883306185873
sS'analysis'
p268
F0.00099309774421486949
sS'h2o'
p269
F0.013039709326064637
sS'without'
p270
F0.0064448425148751496
sS'reputation'
p271
F0.013817278512466724
sS'sm'
p272
F0.01567134945795132
sS'healthcare'
p273
F0.023454263854870993
sS'big data'
p274
F0.0036890583372830945
sS'organization'
p275
F0.0051106777950193655
sS'model'
p276
F0.0044852488171062055
sS'looking'
p277
F0.0056641252741441994
sS'physics'
p278
F0.0070524184853526474
sS'talk'
p279
F0.023459251883980421
sS"that's"
p280
F0.023584597333939656
s.