(dp1
S'incorporate'
p2
F0.013587213907251235
sS'all'
p3
F0.0058720528506915563
sS'responsible'
p4
F0.004125382921719478
sS'mpp'
p5
F0.017698110339850085
sS'unified'
p6
F0.015386044649041654
sS'model validation'
p7
F0.016476629167076019
sS'developed'
p8
F0.011122645426062686
sVinsight
p9
F0.0035652783543666028
sS'focus'
p10
F0.0060958751046852645
sS'competitive'
p11
F0.0060344734331168066
sS'characteristic'
p12
F0.0075070557661467705
sS"ea's"
p13
F0.029109750808356323
sS'course'
p14
F0.0098496091879909532
sS'employer.'
p15
F0.0075070557661467705
sS'scientist'
p16
F0.0041416804245300257
sS'innovative'
p17
F0.0042749319174486137
sS'skill'
p18
F0.0032679137241076353
sS'creative'
p19
F0.0066361197854233646
sS'sexual'
p20
F0.0046733397162997967
sS'visualization'
p21
F0.0056765560721520449
sS'based'
p22
F0.0041650980202998988
sS'hdfs/mr/pig/hive'
p23
F0.025347381350306057
sS'work.'
p24
F0.010531312325961887
sS'implementation'
p25
F0.0054881626485653954
sS'technique'
p26
F0.0035870397533246372
sS'distributed'
p27
F0.0079598548677046986
sS'written'
p28
F0.0043909166899985001
sS'realize'
p29
F0.010847158747947125
sS'platform'
p30
F0.011546547745627545
sS'automated'
p31
F0.0071462745807557163
sS'production'
p32
F0.0059661907220483115
sS'rich'
p33
F0.010592193943165105
sS'customer experience'
p34
F0.010607584991583768
sV[0]
p35
F0.0048841454532960443
sS'match'
p36
F0.010863742381596223
sS'take'
p37
F0.005519432007473477
sS'scalable'
p38
F0.014853832328741011
sS'phd.'
p39
F0.019026068216179956
sS'tech'
p40
F0.0087579629186741829
sS'sigkdd/icml/nips'
p41
F0.025347381350306057
sS'game'
p42
F0.057295536689568514
sS'qualified'
p43
F0.0050081259652717614
sS'every'
p44
F0.0055792871678825859
sS'closely'
p45
F0.0055020248912173268
sS'thrives'
p46
F0.015088063965111748
sS'day'
p47
F0.0063754612118414322
sS'condition'
p48
F0.011562045320795137
sS'cool'
p49
F0.015204163775943826
sS'like'
p50
F0.010685169276153218
sS'developing'
p51
F0.0037558587881018667
sS'solution'
p52
F0.0018827720010068751
sS'large'
p53
F0.010103875671870474
sS'benefit'
p54
F0.0051870723620595586
sS'race'
p55
F0.0043708949685432518
sS'world-class'
p56
F0.019504218057461584
sS'team'
p57
F0.00069971249803486813
sS'passionate'
p58
F0.0067193417430214501
sS'predictive'
p59
F0.005047429083054146
sS'domain'
p60
F0.0072430591690888528
sS'learning'
p61
F0.016067605828144926
sS'verbal'
p62
F0.0061458018826936562
sS'people'
p63
F0.010725458245724025
sS'the'
p64
F0.0046002047508530023
sS'globe'
p65
F0.010040259704126501
sS'hard'
p66
F0.018775409267559256
sS'ea'
p67
F0.12195411616604028
sS'we'
p68
F0.0032232038938288386
sS'sex'
p69
F0.0052639454778800792
sS'hard/play'
p70
F0.025347381350306057
sS'offer'
p71
F0.0045031799539692607
sS'video'
p72
F0.010354904473015828
sS'recommendation'
p73
F0.0062739003199348362
sS'our'
p74
F0.0038746550136671541
sS'extract'
p75
F0.0080904595050772903
sS'what'
p76
F0.0061837306686949077
sS'scale'
p77
F0.01173637212484201
sS'power'
p78
F0.0074208285794031019
sS'best-in-class'
p79
F0.01254722863393817
sS'electronic'
p80
F0.012742971749225318
sS'since'
p81
F0.012889971843222402
sS'research'
p82
F0.0097958054299619231
sS'access'
p83
F0.0062435791252527803
sS'religion'
p84
F0.0044593679551453652
sS'state'
p85
F0.0069393430439754385
sS'future'
p86
F0.0047785252274959054
sS'health'
p87
F0.0063889332016466155
sS'new'
p88
F0.0035658751385889459
sS'evaluation'
p89
F0.0090193520343329614
sS'across'
p90
F0.00592578231078185
sS'core'
p91
F0.0058797995546625986
sS'credo'
p92
F0.026735959790886429
sS'data analysis'
p93
F0.0095514307440119663
sS'ability'
p94
F0.0016836580972006696
sS'business'
p95
F0.0013489919138636871
sS'marketing'
p96
F0.005841240150374692
sS'million'
p97
F0.0060304188805915685
sS'data scientist'
p98
F0.00063379210468075885
sS'free'
p99
F0.010847158747947125
sS'tuition'
p100
F0.012440202162396731
sS'entertain'
p101
F0.022445679136084029
sS'key'
p102
F0.0040884203469567964
sS'franchise'
p103
F0.020599804192794113
sS'consideration'
p104
F0.0061879710345365798
sS'strong'
p105
F0.0041093109872859549
sS'gameplay'
p106
F0.022973591726387889
sS'pipeline'
p107
F0.0092397123280798139
sS'big data'
p108
F0.007545158586233146
sS'ahead'
p109
F0.013815604844813657
sS'package'
p110
F0.013015931947984989
sS'receive'
p111
F0.0059661907220483115
sS'industry'
p112
F0.0029463937146150801
sS'programming'
p113
F0.0071187347294641183
sS'equal'
p114
F0.0030584763207438448
sS'experience'
p115
F0.0011874172881166831
sS'ancestry'
p116
F0.012889971843222402
sS'plus'
p117
F0.0099563938463857696
sS'gamer'
p118
F0.02122419169237379
sS'implement'
p119
F0.0045580865546989771
sS'asked'
p120
F0.01188232958870091
sS'software'
p121
F0.0029513346005769466
sS'origin'
p122
F0.0044211705974276008
sS'industry.'
p123
F0.012336419505951572
sS'love'
p124
F0.0083198541039679105
sS'color'
p125
F0.0041792258727630736
sS'communication'
p126
F0.0026850784011117072
sS'highly'
p127
F0.0040246810869828398
sS'problem solving'
p128
F0.0064616930805506878
sS'arts.'
p129
F0.026735959790886429
sS'pregnancy'
p130
F0.010576871761845335
sS'next'
p131
F0.0071801223157916339
sS'establish'
p132
F0.0090096648673592961
sS'cloud'
p133
F0.0057993204864091458
sS'use'
p134
F0.0033198975314773843
sS'targeting'
p135
F0.011686587866887798
sS'publication'
p136
F0.011623750441161424
sS'perk'
p137
F0.013270873191367183
sS'opportunity'
p138
F0.00167003143524908
sS'create'
p139
F0.0041022345758218656
sS'creativity'
p140
F0.0094311901459511478
sS'system'
p141
F0.0028763473309897608
sS'disability'
p142
F0.0038789749555644295
sS'live'
p143
F0.0092708909467696665
sS'li-sf1'
p144
F0.026735959790886429
sS'analyze'
p145
F0.0048841454532960443
sS'national'
p146
F0.0041416804245300257
sS'store'
p147
F0.010501272671256019
sS'modern'
p148
F0.0093023560690934735
sS'business problem'
p149
F0.0063309336428226236
sS'company'
p150
F0.0021316043827257843
sS'regard'
p151
F0.0055229240776191145
sS'great'
p152
F0.0065690711649089104
sS'but'
p153
F0.012493297298112643
sS'volume'
p154
F0.0096807635964651362
sS'part'
p155
F0.0043884075605008233
sS'excellent'
p156
F0.0042604042892425619
sS'immersive'
p157
F0.018371772247238214
sS'marital'
p158
F0.0067143899333645292
sS"what's"
p159
F0.011793949211487421
sS'glad'
p160
F0.022445679136084029
sS'games.'
p161
F0.02032568602767338
sS'culture'
p162
F0.0063088851662893514
sS'this'
p163
F0.00280928692965515
sS'science'
p164
F0.0050262098075610226
sS'challenge'
p165
F0.0055615738110804391
sS'work'
p166
F0.0013298072705470543
sS'hands-on'
p167
F0.0075195531367471631
sS'machine learning'
p168
F0.0054283445034639978
sS'employ'
p169
F0.0095993636128773058
sS'record'
p170
F0.0065785695211582583
sS'compensation'
p171
F0.0087221987221354907
sS'protected'
p172
F0.0094399945523056233
sS'making'
p173
F0.0062092520046596027
sS'seamlessly'
p174
F0.01578163254761002
sS'age'
p175
F0.0050413529990334148
sS'interactive'
p176
F0.012186414704788484
sS'and'
p177
F0.016980188388657887
sS'group'
p178
F0.010866536578972406
sS'orientation'
p179
F0.0045475600244441403
sS'processing'
p180
F0.0054571763308902009
sS'process'
p181
F0.0030669897726278575
sS'novel'
p182
F0.02085461318800946
sS'Bachelor'
p183
F0.0011642300250415915
sS'r/sas/spss'
p184
F0.025347381350306057
sS'in'
p185
F0.0045660027517642858
sS'accounting'
p186
F0.015204163775943826
sS'modeling'
p187
F0.0033070725270621421
sS'machine'
p188
F0.01312866370079698
sS'tools.'
p189
F0.012574516189402458
sS'built'
p190
F0.0092500736892832999
sS'design'
p191
F0.0023332830689616595
sS'provide'
p192
F0.002760619608535454
sS'employment'
p193
F0.0037914880264514985
sS'make'
p194
F0.0076294829612889225
sS'predictive modeling'
p195
F0.0074086857844173478
sS'hadoop'
p196
F0.0040746616510224523
sS'401k'
p197
F0.011051668314028868
sS'application'
p198
F0.0035105021676278725
sS'amazing'
p199
F0.013106986191691617
sS'ingestion'
p200
F0.012387917692451409
sS'computer science'
p201
F0.0056629893661305549
sS'digital'
p202
F0.0062049852147463766
sS'brag'
p203
F0.021585014679358108
sS'data collection'
p204
F0.020796323579997372
sS'tool'
p205
F0.0020419972895408785
sS'development'
p206
F0.0063354488503185365
sS'gaming'
p207
F0.015324338135184886
sS'c/c++'
p208
F0.013043566188751276
sS'deploy'
p209
F0.0097641458049651103
sS'track'
p210
F0.0074575175095355738
sS'comprehensive'
p211
F0.006559599087391307
sS'problems'
p212
F0.0092604664983586202
sS'individuality.'
p213
F0.026735959790886429
sS'sql'
p214
F0.0032346947827010799
sS'law'
p215
F0.0061207474810912547
sS'data'
p216
F0.000881978633058464
sS'stack'
p217
F0.019221748761756113
sS'reimbursement'
p218
F0.012920144535784227
sS'paradigm'
p219
F0.013270873191367183
sS'algorithm'
p220
F0.0076337265730194396
sS'java'
p221
F0.0048266490913356653
sS'medical'
p222
F0.0076536055939930934
sS'applicant'
p223
F0.0047897877720729544
sS'sale'
p224
F0.0083119547797998999
sS'analysis'
p225
F0.001716815068579699
sS'efficient'
p226
F0.0087759860801746407
sS'without'
p227
F0.0049514827122866013
sS'status'
p228
F0.0078800675317371466
sS'databases'
p229
F0.013043566188751276
sS'at'
p230
F0.0044262390164846377
sS'model'
p231
F0.010091158522180385
sS'validation'
p232
F0.0086780124631556706
sS'veteran'
p233
F0.0040564023400582062
sS'fact'
p234
F0.014233757797713822
sS"that's"
p235
F0.011269171616462473
s.