(dp1
S'code'
p2
I1
sS'help'
p3
I1
sS'skill'
p4
I1
sS'visualization'
p5
I1
sS'knowledge'
p6
I1
sS'candidate'
p7
I1
sS'solving'
p8
I1
sS'responsibilities'
p9
I1
sS'environment'
p10
I1
sS'team.'
p11
I1
sS'failures.'
p12
I1
sS'matlab'
p13
I1
sS'main'
p14
I1
sS'excited'
p15
I1
sS'motivated'
p16
I1
sS'python'
p17
I1
sS'scalable'
p18
I1
sS'framework'
p19
I1
sS'scipy'
p20
I1
sS'using'
p21
I1
sS'scikit-learn'
p22
I1
sS'team'
p23
I1
sS'analytical'
p24
I1
sS'enhance'
p25
I1
sS'testing'
p26
I1
sS'some'
p27
I1
sS'library'
p28
I1
sS'software design'
p29
I1
sS'design'
p30
I1
sVpanda
p31
I1
sS'sr.'
p32
I1
sS'looking'
p33
I1
sS'version'
p34
I1
sS'various'
p35
I1
sS'new'
p36
I1
sS'foundation'
p37
I1
sS'we'
p38
I1
sS'data analysis'
p39
I1
sS'workflow'
p40
I1
sS'gathered'
p41
I1
sS'javascript'
p42
I1
sS'data scientist'
p43
I1
sS'standard'
p44
I1
sS'control'
p45
I1
sS'management'
p46
I1
sS'modeling'
p47
I1
sS'spark'
p48
I1
sS'strong'
p49
I1
sS'advance'
p50
I1
sS'big data'
p51
I1
sS'programming'
p52
I1
sS'experience'
p53
I1
sS'simulation'
p54
I1
sS'implement'
p55
I1
sS'software'
p56
I1
sS'hadoop/spark'
p57
I1
sS'major'
p58
I1
sS'unix/linux'
p59
I1
sS'self-driven'
p60
I1
sS'cross-functional'
p61
I1
sS'quality'
p62
I1
sS'engineer'
p63
I1
sS'use'
p64
I1
sS'git'
p65
I1
sS'system'
p66
I1
sS'devise'
p67
I1
sS'Bachelor'
p68
I1
sS'automate'
p69
I1
sS'vehicle'
p70
I1
sS'type'
p71
I1
sS'management/monitoring'
p72
I1
sS'function'
p73
I1
sS'tool'
p74
I1
sS'technician'
p75
I1
sS'hardware'
p76
I1
sS'solid'
p77
I1
sS'numpy'
p78
I1
sS'work'
p79
I1
sS'machine learning'
p80
I1
sS'r'
I1
sS'learn'
p81
I1
sS'maintainability'
p82
I1
sS'fleet'
p83
I1
sS'diagnose'
p84
I1
sS'debugging'
p85
I1
sS'remanufacturing'
p86
I1
sS'challenging'
p87
I1
sS'e.g.'
p88
I1
sS'process'
p89
I1
sS'it'
p90
I1
sS'high'
p91
I1
sS'data analyst'
p92
I1
sS'technology'
p93
I1
sS'different'
p94
I1
sS'requirements'
p95
I1
sV[0]
p96
I1
sS'hadoop'
p97
I1
sS'virtual'
p98
I1
sS'equipment'
p99
I1
sS'ideal'
p100
I1
sS'interested'
p101
I1
sS'role'
p102
I1
sS'test'
p103
I1
sS'performance'
p104
I1
sS'web development'
p105
I1
sS'development'
p106
I1
sS'designer'
p107
I1
sS'numerical'
p108
I1
sS'problems'
p109
I1
sS'proficiency'
p110
I1
sS'state-of-the-art'
p111
I1
sS'sql'
p112
I1
sS'data'
p113
I1
sS'model'
p114
I1
sS'structure'
p115
I1
sS'task'
p116
I1
sS'algorithm'
p117
I1
sS'analysis'
p118
I1
sS'django'
p119
I1
sS'u'
I1
sS'diagnosis'
p120
I1
sS'qa/validation'
p121
I1
sS'the'
p122
I1
sS'validation'
p123
I1
s.