(dp1
S'disney movies anywhere team'
p2
F0.031864999999999997
sS'concept'
p3
F0.0079559999999999995
sS'related field'
p4
F0.013592
sS'inspire'
p5
F0.016657999999999999
sS'insight'
p6
F0.010840000000000001
sS'sr data analyst data scientist'
p7
F0.030210000000000001
sS'influence others'
p8
F0.020812000000000001
sS'competitive advantage'
p9
F0.014922
sS'computer science econometrics'
p10
F0.031864999999999997
sS'statistical'
p11
F0.0062389999999999998
sS'committed'
p12
F0.006633
sS'go'
p13
F0.012409999999999999
sS'ios android'
p14
F0.025295999999999999
sS'skill'
p15
F0.0037669999999999999
sS'speed'
p16
F0.014612999999999999
sS'relational no-sql'
p17
F0.031864999999999997
sS'visualization'
p18
F0.0084250000000000002
sS'knowledge'
p19
F0.0037520000000000001
sS'providing'
p20
F0.0070679999999999996
sS'distributed'
p21
F0.011214
sS'environment'
p22
F0.004725
sS'source'
p23
F0.0092239999999999996
sS'internal'
p24
F0.0065409999999999999
sS'adoption'
p25
F0.014827
sS'teaching'
p26
F0.018808999999999999
sS'data science'
p27
F0.0048399999999999997
sS'manage'
p28
F0.013716000000000001
sS'premium'
p29
F0.021242
sS'twds using data'
p30
F0.031864999999999997
sS'testing hypothesis'
p31
F0.018338
sS'python perl java'
p32
F0.030210000000000001
sS'preferred'
p33
F0.0058700000000000002
sS'per registered user'
p34
F0.031864999999999997
sS'report'
p35
F0.0056849999999999999
sS'watch movie'
p36
F0.031864999999999997
sS'data quality consistency repeatability'
p37
F0.031864999999999997
sS'desire'
p38
F0.023104
sS'necessary'
p39
F0.011226999999999999
sS'level'
p40
F0.0060229999999999997
sS'scripting language'
p41
F0.014161999999999999
sS'solution'
p42
F0.0029020000000000001
sS'method'
p43
F0.011417
sS'database'
p44
F0.0060229999999999997
sS'team'
p45
F0.0031199999999999999
sS'proven track record'
p46
F0.027274
sS'additional information'
p47
F0.013343000000000001
sS'mathematical'
p48
F0.010773
sS'design implement'
p49
F0.015897999999999999
sS'testing'
p50
F0.0077949999999999998
sS'discover'
p51
F0.013878
sS'analytics'
p52
F0.011231
sS'cost'
p53
F0.012409999999999999
sS'design'
p54
F0.0033769999999999998
sS'result'
p55
F0.0052719999999999998
sS'recommendation'
p56
F0.016354
sS'home'
p57
F0.013150999999999999
sS'happening ability'
p58
F0.031864999999999997
sS'econometrics'
p59
F0.018893
sS'established'
p60
F0.012376
sS'lead'
p61
F0.0049329999999999999
sS'scala'
p62
F0.012409999999999999
sS'support'
p63
F0.0055880000000000001
sS'decision'
p64
F0.007012
sS'finish working'
p65
F0.031864999999999997
sS'research'
p66
F0.0048180000000000002
sS'family-friendly experience disney movies anywhere dma'
p67
F0.031864999999999997
sS'optimization'
p68
F0.0084969999999999993
sS'innovation'
p69
F0.0063709999999999999
sS'formula'
p70
F0.028125000000000001
sS"bachelor's degree"
p71
F0.0073200000000000001
sS'ever'
p72
F0.018192
sS'position summary'
p73
F0.011859
sS'achieve targeted outcome'
p74
F0.022897000000000001
sS'basic qualifications'
p75
F0.0092160000000000002
sS'ability'
p76
F0.0069540000000000001
sS'business'
p77
F0.0056080000000000001
sS'web'
p78
F0.0099159999999999995
sS'marketing'
p79
F0.0070870000000000004
sS'leveraging'
p80
F0.010343
sS'communicate'
p81
F0.0079670000000000001
sS'youre'
p82
F0.016757999999999999
sS'disney pixar marvel'
p83
F0.031864999999999997
sS'operation pr team'
p84
F0.031864999999999997
sS'twds'
p85
F0.063729999999999995
sS'proficiency'
p86
F0.0078919999999999997
sS'analytical rigor'
p87
F0.022266999999999999
sS'oversee'
p88
F0.015435000000000001
sS'lifetime value'
p89
F0.021722000000000002
sS'experience'
p90
F0.0045739999999999999
sS'ensure'
p91
F0.0068450000000000004
sS'whole'
p92
F0.01686
sS'think'
p93
F0.027133999999999998
sS'5 year relevant experience'
p94
F0.028125000000000001
sS'seeing'
p95
F0.022266999999999999
sS'family'
p96
F0.012831
sS'app'
p97
F0.018051000000000001
sS'within'
p98
F0.0048999999999999998
sS'collaborating'
p99
F0.013256
sS'ms degree'
p100
F0.015897999999999999
sS'learning'
p101
F0.0089770000000000006
sS'cs'
p102
F0.017472000000000001
sS'code 1990'
p103
F0.031864999999999997
sS'ideally utilized'
p104
F0.027380999999999999
sS'experimentation'
p105
F0.016063999999999998
sS'star wars'
p106
F0.031864999999999997
sS'story'
p107
F0.025895999999999999
sS'open source'
p108
F0.010692
sS'analytic'
p109
F0.0073249999999999999
sS'columnar data'
p110
F0.031864999999999997
sS'create'
p111
F0.005483
sS'could sharpen'
p112
F0.028125000000000001
sS'seamless'
p113
F0.022897000000000001
sS'next'
p114
F0.013521
sS'start'
p115
F0.013828999999999999
sS'complex data set'
p116
F0.018567
sS'advanced analytics'
p117
F0.0095639999999999996
sS'analyze'
p118
F0.014461999999999999
sS'tell'
p119
F0.032300000000000002
sS'query language like'
p120
F0.029035999999999999
sS'sharing'
p121
F0.01512
sS'meeting aggressive deadline'
p122
F0.031864999999999997
sS'tool'
p123
F0.002947
sS'programming experience'
p124
F0.013409000000000001
sS'drive significant business impact'
p125
F0.022266999999999999
sS'walt disney studios exclusive cloud-based digital movie service'
p126
F0.034694000000000003
sS'b testing'
p127
F0.016912
sS'external'
p128
F0.0094450000000000003
sS'excellent'
p129
F0.0084180000000000001
sS'digital movie library'
p130
F0.031864999999999997
sS'ruby'
p131
F0.01566
sS'project management'
p132
F0.0096069999999999992
sS'exploring new'
p133
F0.025725999999999999
sS'5 year'
p134
F0.0088739999999999999
sS'prototype'
p135
F0.010647
sS'statistics mathematics operations research'
p136
F0.043444999999999998
sS'culture'
p137
F0.0083529999999999993
sS'work'
p138
F0.001421
sS'trusted creator'
p139
F0.031864999999999997
sS'machine learning'
p140
F0.0088489999999999992
sS'project'
p141
F0.0066100000000000004
sS'easier'
p142
F0.022078
sS'r'
F0.0061330000000000004
sS'statistical technique'
p143
F0.01489
sS'making'
p144
F0.010322
sS'participate'
p145
F0.0094870000000000006
sS'enables'
p146
F0.016560999999999999
sS'sr data analyst'
p147
F0.029035999999999999
sS'walt disney studios'
p148
F0.031864999999999997
sS'required'
p149
F0.0039550000000000002
sS'metric'
p150
F0.010229
sS'pig'
p151
F0.015980000000000001
sS'equal opportunity employer'
p152
F0.0076470000000000002
sS'effectively'
p153
F0.0086049999999999998
sS'diverse'
p154
F0.0079729999999999992
sS'expertise'
p155
F0.0054929999999999996
sS'statistical analysis'
p156
F0.0080499999999999999
sS'documenting'
p157
F0.017017999999999998
sS'sas'
p158
F0.008992
sS'kpis'
p159
F0.034824000000000001
sS'disneydata'
p160
F0.031864999999999997
sS'education'
p161
F0.0066709999999999998
sS'walt disney studios twds'
p162
F0.031864999999999997
sS'develop'
p163
F0.0031840000000000002
sS'goal'
p164
F0.0073099999999999997
sS'provide'
p165
F0.0082990000000000008
sS'make'
p166
F0.010342
sS'seeking'
p167
F0.0073499999999999998
sS'retention curves machine learning'
p168
F0.031864999999999997
sS'detail'
p169
F0.0093860000000000002
sS'maintain momentum'
p170
F0.031864999999999997
sS'machine learning technique'
p171
F0.011844
sS'responsibilities'
p172
F0.0050689999999999997
sS'complex'
p173
F0.0064669999999999997
sS'role'
p174
F0.0042449999999999996
sS'build'
p175
F0.0039810000000000002
sS'test'
p176
F0.0079439999999999997
sS'broader analytics team'
p177
F0.031864999999999997
sS'company'
p178
F0.0041609999999999998
sS'accuracy'
p179
F0.013498
sS'development'
p180
F0.002738
sS'product'
p181
F0.0061640000000000002
sS'deploy'
p182
F0.012141000000000001
sS'time'
p183
F0.0061929999999999997
sS'phd'
p184
F0.0065529999999999998
sS'director'
p185
F0.012376
sS'mathematical model'
p186
F0.017718999999999999
sS'sql'
p187
F0.0045389999999999996
sS'validate'
p188
F0.012716999999999999
sS'data'
p189
F0.0059750000000000003
sS'grow'
p190
F0.0092239999999999996
sS'intuition -'
p191
F0.030210000000000001
sS'status'
p192
F0.0092239999999999996
sS'purchase'
p193
F0.018412999999999999
sS'independently'
p194
F0.011468000000000001
sS'happening'
p195
F0.025725999999999999
sS'algorithm'
p196
F0.010144
sS'robust analytics'
p197
F0.031864999999999997
sS'entertainment'
p198
F0.019342000000000002
sS'drive'
p199
F0.010484
sS'analysis'
p200
F0.0033440000000000002
sS'doe'
p201
F0.014083
sS'decision-making process'
p202
F0.022897000000000001
sS'hive spark'
p203
F0.024552000000000001
sS'position'
p204
F0.0080239999999999999
sS'model'
p205
F0.004065
sS'consumer'
p206
F0.017075
sS'others'
p207
F0.016579
s.