(dp1
S'global leader'
p2
F0.017179
sS'nosql'
p3
F0.013627999999999999
sS'experience working'
p4
F0.0082970000000000006
sS'insight'
p5
F0.0059020000000000001
sS'form unified data set'
p6
F0.032895000000000001
sS'always well-defined'
p7
F0.02913
sS'scientist'
p8
F0.012847000000000001
sS'identify'
p9
F0.012244
sS'go'
p10
F0.013513000000000001
sS'query'
p11
F0.012488000000000001
sS'visualization'
p12
F0.0091730000000000006
sS'loading'
p13
F0.021975999999999999
sS'group'
p14
F0.0078899999999999994
sS'knowledge'
p15
F0.0040850000000000001
sS'tableau qlikview alteryx'
p16
F0.030624999999999999
sS'technique'
p17
F0.0060260000000000001
sS'operational'
p18
F0.0095449999999999997
sS'environment'
p19
F0.0051450000000000003
sS'source'
p20
F0.020088000000000002
sS'attainable product'
p21
F0.024691999999999999
sS'global'
p22
F0.0076610000000000003
sS'innovation'
p23
F0.0069379999999999997
sS'technical field'
p24
F0.029152999999999998
sS'job requirements'
p25
F0.016538000000000001
sS'sex national origin sexual orientation gender identity disability status'
p26
F0.024691999999999999
sS'predictive prescriptive analytics'
p27
F0.028535999999999999
sS'using'
p28
F0.014803
sS'one'
p29
F0.0051330000000000004
sS'ingenious solution'
p30
F0.024691999999999999
sS'advanced'
p31
F0.0069420000000000003
sS'ingest large data set'
p32
F0.029815000000000001
sS'performing'
p33
F0.013648
sS'hadoop hdfs mapreduce hive shark spark'
p34
F0.027120999999999999
sS'data transfer'
p35
F0.024039999999999999
sS'preferred qualifications'
p36
F0.0095600000000000008
sS'masters degree'
p37
F0.010248
sS'including running query'
p38
F0.027120999999999999
sS'analytical'
p39
F0.0060540000000000004
sS'including'
p40
F0.0037599999999999999
sS'data analytics'
p41
F0.029596999999999998
sS'predictive analytics'
p42
F0.034597000000000003
sS'r sas'
p43
F0.018033
sS'domain'
p44
F0.011807
sS'computer science mathematics statistics'
p45
F0.046944
sS'analytics team'
p46
F0.013707
sS'opportunity youd expect'
p47
F0.028535999999999999
sS'creation'
p48
F0.011495999999999999
sS'related'
p49
F0.012359
sS'big data technology'
p50
F0.012458
sS'compiling data'
p51
F0.027120999999999999
sS'year'
p52
F0.0089440000000000006
sS'sustainability additionally'
p53
F0.031616999999999999
sS'receive consideration'
p54
F0.0086879999999999995
sS'ability'
p55
F0.0025240000000000002
sS'party source'
p56
F0.032895000000000001
sS'lead'
p57
F0.021488
sS'position'
p58
F0.0043680000000000004
sS'quantify'
p59
F0.019809
sS'decision'
p60
F0.0076360000000000004
sS'gdia'
p61
F0.030624999999999999
sS'rd'
p62
F0.028013
sS'may'
p63
F0.0087200000000000003
sS'3'
F0.012297000000000001
sS'critical'
p64
F0.0096780000000000008
sS'various'
p65
F0.0076810000000000003
sS'unique data stream'
p66
F0.029815000000000001
sS'new'
p67
F0.0041859999999999996
sS'youll'
p68
F0.014388
sS'public'
p69
F0.013827000000000001
sS'basic qualifications'
p70
F0.010035000000000001
sS'product development'
p71
F0.0094529999999999996
sS'business'
p72
F0.0091590000000000005
sS'subject matter expert'
p73
F0.013457
sS'team'
p74
F0.001699
sS'strong oral written'
p75
F0.02913
sS'information flow'
p76
F0.022516000000000001
sS'word excel'
p77
F0.022967999999999999
sS'extract decode analyze'
p78
F0.029815000000000001
sS'key'
p79
F0.0071219999999999999
sS'assembling data'
p80
F0.031616999999999999
sS'equal opportunity employer committed'
p81
F0.015421000000000001
sS'experience'
p82
F0.00249
sS'qualified applicant'
p83
F0.0081700000000000002
sS'etc'
p84
F0.0063990000000000002
sS'ford team discover'
p85
F0.024691999999999999
sS'global team'
p86
F0.016574999999999999
sS'powerpoint'
p87
F0.014773
sS'software'
p88
F0.0045360000000000001
sS'analyze data'
p89
F0.016847000000000001
sS'strategic'
p90
F0.0078630000000000002
sS'developed model'
p91
F0.02913
sS'2+ year'
p92
F0.025925
sS'initiative'
p93
F0.0084100000000000008
sS'become part'
p94
F0.020390999999999999
sS'learning'
p95
F0.0097750000000000007
sS'always ready'
p96
F0.025186
sS'hvr'
p97
F0.030624999999999999
sS'regionsto disseminate critical'
p98
F0.032895000000000001
sS'data mapping'
p99
F0.021975999999999999
sS'ford motor company'
p100
F0.024691999999999999
sS'management'
p101
F0.010050999999999999
sS'leverage'
p102
F0.010018000000000001
sS'addition'
p103
F0.011820000000000001
sS'measured'
p104
F0.021382999999999999
sS'support'
p105
F0.0060850000000000001
sS'available'
p106
F0.010685999999999999
sS'physics'
p107
F0.036277999999999998
sS'manipulating file within hdfs'
p108
F0.026377999999999999
sS'strategy'
p109
F0.0062709999999999997
sS'needed'
p110
F0.0092890000000000004
sS'way'
p111
F0.0067070000000000003
sS'vehicle'
p112
F0.018471999999999999
sS'position overview'
p113
F0.017981
sS'data management'
p114
F0.012071999999999999
sS'machine learning algorithm'
p115
F0.012311000000000001
sS'benefit reward'
p116
F0.024691999999999999
sS'tool'
p117
F0.0032079999999999999
sS'looking'
p118
F0.0060260000000000001
sS'ford organization'
p119
F0.029815000000000001
sS"ford motor company's"
p120
F0.027120999999999999
sS'job description'
p121
F0.008992
sS'departmental task'
p122
F0.029815000000000001
sS'teradata oracle'
p123
F0.026048999999999999
sS'role'
p124
F0.0092440000000000005
sS'customer'
p125
F0.0038839999999999999
sS'distance'
p126
F0.022967999999999999
sS'datasets'
p127
F0.013346
sS'join'
p128
F0.0066379999999999998
sS'ofthe brightest global'
p129
F0.032895000000000001
sS'work'
p130
F0.0015479999999999999
sS'ingestion technology'
p131
F0.026734000000000001
sS'value'
p132
F0.0075960000000000003
sS'machine learning'
p133
F0.0048180000000000002
sS'optimization'
p134
F0.0092519999999999998
sS'following'
p135
F0.0080689999999999998
sS'problem'
p136
F0.0061510000000000002
sS'providing'
p137
F0.0076969999999999998
sS'similar'
p138
F0.010070000000000001
sS'protected veteran status'
p139
F0.011389
sS'write complex'
p140
F0.023130000000000001
sS'race religion color age'
p141
F0.024464
sS'imagination'
p142
F0.024039999999999999
sS'engineering'
p143
F0.012003
sS'diverse'
p144
F0.0086820000000000005
sS'expertise'
p145
F0.0059810000000000002
sS'including greenplum python'
p146
F0.032895000000000001
sS'demonstrated experience building'
p147
F0.028013
sS'technology'
p148
F0.003225
sS'work collaboratively'
p149
F0.013766
sS'automobile industry'
p150
F0.024691999999999999
sS'information'
p151
F0.0051330000000000004
sS'develop'
p152
F0.003467
sS'comfortable working'
p153
F0.017878999999999999
sS'variety'
p154
F0.017609
sS'provide'
p155
F0.0045180000000000003
sS'responsible'
p156
F0.0054729999999999996
sS'brilliance'
p157
F0.024039999999999999
sS'hadoop'
p158
F0.0086180000000000007
sS'member'
p159
F0.0086499999999999997
sS'spss ampl weka matlab'
p160
F0.030624999999999999
sS'responsibilities'
p161
F0.0055199999999999997
sS'interested'
p162
F0.012895999999999999
sS'analytics scientistthat ha'
p163
F0.032895000000000001
sS'including assembly'
p164
F0.028535999999999999
sS'document'
p165
F0.010656000000000001
sS'development'
p166
F0.0089460000000000008
sS'visa sponsorship'
p167
F0.017311
sS'description'
p168
F0.009195
sS'deep understanding'
p169
F0.013746
sS'transforming'
p170
F0.016390999999999999
sS'culturally diverse workforce'
p171
F0.024464
sS'manipulating data'
p172
F0.023472
sS'phd'
p173
F0.007136
sS'proficiency'
p174
F0.0085929999999999999
sS'moment'
p175
F0.019887999999999999
sS'preprocessing'
p176
F0.030624999999999999
sS'sql'
p177
F0.0049420000000000002
sS'interpersonal communication skill'
p178
F0.022374999999999999
sS'data'
p179
F0.0043379999999999998
sS'building'
p180
F0.011580999999999999
sS'information systems'
p181
F0.033225999999999999
sS'employment without regard'
p182
F0.0091310000000000002
sS'command line'
p183
F0.022967999999999999
sS'data element'
p184
F0.023297999999999999
sS'analysis'
p185
F0.0072830000000000004
sS'academic'
p186
F0.013256
sS'already leading'
p187
F0.024464
sS'including talend'
p188
F0.030624999999999999
sS'model'
p189
F0.01328
sS'analytics gdia organization'
p190
F0.025742000000000001
sS'opportunity'
p191
F0.0089169999999999996
s.