(dp1
S'help'
p2
F0.010560999999999999
sS'attitude'
p3
F0.037705000000000002
sS'participate'
p4
F0.024726000000000001
sS'portfolio'
p5
F0.028638
sS'find'
p6
F0.025434999999999999
sS'derive'
p7
F0.045695
sS'knowledge'
p8
F0.0097789999999999995
sS'field'
p9
F0.021059000000000001
sS'projectand workbothindependently'
p10
F0.090426000000000006
sS'written communication'
p11
F0.041435
sS'smart'
p12
F0.035666000000000003
sS'applied'
p13
F0.026296
sS'motivated'
p14
F0.036773
sS'python'
p15
F0.015889
sS'scalable'
p16
F0.029162
sS'difference'
p17
F0.026322000000000002
sS'probabilistic model supervisedclassificationand unsupervisedlearning'
p18
F0.090426000000000006
sS'mapreduce'
p19
F0.045228999999999998
sS'common'
p20
F0.034222000000000002
sS'team'
p21
F0.0040660000000000002
sS'experience withjavascriptand prototyping'
p22
F0.090426000000000006
sS'machine learning data mining'
p23
F0.039147000000000001
sS'streaming'
p24
F0.045381999999999999
sS'result'
p25
F0.013742000000000001
sS'statistic'
p26
F0.019476
sS'proper'
p27
F0.052304000000000003
sS'capacity'
p28
F0.037555999999999999
sS'decision'
p29
F0.018277000000000002
sS'in-depth knowledge'
p30
F0.045079000000000001
sS'new'
p31
F0.010019999999999999
sS'available'
p32
F0.025578
sS'ability'
p33
F0.0060410000000000004
sS'equivalent'
p34
F0.023917999999999998
sS'computer science electrical engineering'
p35
F0.053557
sS'required skills'
p36
F0.033194000000000001
sS'making'
p37
F0.026903
sS'definition'
p38
F0.039947999999999997
sS'limitation'
p39
F0.043943000000000003
sS'language'
p40
F0.020903999999999999
sS'time series'
p41
F0.045079000000000001
sS'experience'
p42
F0.0059610000000000002
sS'thing'
p43
F0.031560999999999999
sS'plus'
p44
F0.048994999999999997
sS'operating theinternet'
p45
F0.090426000000000006
sS'experience withjava andscala'
p46
F0.090426000000000006
sS'large-scale'
p47
F0.035064999999999999
sS'tweak'
p48
F0.083052000000000001
sS'implementing thisinto theproduct'
p49
F0.090426000000000006
sS'appropriate'
p50
F0.022026
sS'statistics'
p51
F0.02775
sS'addition'
p52
F0.028292000000000001
sS'support'
p53
F0.0072820000000000003
sS'linear algebra calculus probability'
p54
F0.075677999999999995
sS'understand'
p55
F0.015154000000000001
sS'paper etc'
p56
F0.083052000000000001
sS'customer'
p57
F0.027890000000000002
sS'also'
p58
F0.017621999999999999
sS'ml'
p59
F0.043546000000000001
sS'machine learning'
p60
F0.011532000000000001
sS'project'
p61
F0.0086140000000000001
sS'r'
F0.015986
sS'achieve'
p62
F0.025201000000000001
sS'ms'
p63
F0.024551
sS'question finally'
p64
F0.083052000000000001
sS'similar'
p65
F0.024104
sS'regression analysis'
p66
F0.050168999999999998
sS'need'
p67
F0.011443
sS'strong mathematical background'
p68
F0.047602999999999999
sS'seek'
p69
F0.032620999999999997
sS'information'
p70
F0.012286999999999999
sS'provide'
p71
F0.010815
sS'qualified candidate'
p72
F0.043677000000000001
sS'responsible'
p73
F0.013100000000000001
sS'able'
p74
F0.016462999999999998
sS'machine learning technique'
p75
F0.030869000000000001
sS'application'
p76
F0.011609
sS'analytics capability'
p77
F0.048808999999999998
sS'answer'
p78
F0.029676999999999999
sS'electrical engineering andcyber-physical systemsis'
p79
F0.090426000000000006
sS'iot'
p80
F0.046350000000000002
sS'phd'
p81
F0.017080999999999999
sS'github'
p82
F0.044637999999999997
sS'algorithm'
p83
F0.026439000000000001
sS'drive'
p84
F0.013663
sS'make'
p85
F0.026955
sS'excellent verbal'
p86
F0.037629999999999997
s.