(dp1
S'office'
p2
F0.016136000000000001
sS'ad-hoc report'
p3
F0.053504999999999997
sS'executive'
p4
F0.023470999999999999
sS'cross-functionally'
p5
F0.051645999999999997
sS'innovative'
p6
F0.014232
sS'query'
p7
F0.023414999999999998
sS'skill'
p8
F0.0076899999999999998
sS'developer'
p9
F0.018898000000000002
sS'field'
p10
F0.016496
sS'informal'
p11
F0.052524000000000001
sS'writing'
p12
F0.020361000000000001
sS'matlab'
p13
F0.031008000000000001
sS'relational database'
p14
F0.020906000000000001
sS'excited'
p15
F0.056467999999999997
sS'insight'
p16
F0.011065999999999999
sS'every'
p17
F0.023029000000000001
sS'know'
p18
F0.020823000000000001
sS'scripting language php python perl'
p19
F0.059281
sS'world'
p20
F0.012622
sS'bonus points'
p21
F0.044705000000000002
sS'formal'
p22
F0.035194999999999997
sS'level'
p23
F0.024594000000000001
sS'ensury accuracy'
p24
F0.070833999999999994
sS'applied math'
p25
F0.041206
sS'everyone'
p26
F0.030335999999999998
sS'trend'
p27
F0.017808999999999998
sS'idea'
p28
F0.018561000000000001
sS'sql query'
p29
F0.033714000000000001
sS'looking'
p30
F0.022598
sS'experiment'
p31
F0.043429000000000002
sS'passion'
p32
F0.016243
sS'designing'
p33
F0.020055
sS'across'
p34
F0.0093139999999999994
sS'thrive'
p35
F0.021971000000000001
sS'big data structure'
p36
F0.070833999999999994
sS'full'
p37
F0.021645999999999999
sS'transportation'
p38
F0.034854999999999997
sS'creating'
p39
F0.016899000000000001
sS'business'
p40
F0.011449000000000001
sS'key business metric'
p41
F0.049459000000000003
sS'ridesharing'
p42
F0.070833999999999994
sS'bachelors degree'
p43
F0.018914
sS'focused'
p44
F0.018343000000000002
sS'excellent communication skill'
p45
F0.027466999999999998
sS'along'
p46
F0.025024000000000001
sS'r'
F0.012522
sS'revolutionary'
p47
F0.043683
sS'great'
p48
F0.019705
sS'experience'
p49
F0.0077819999999999999
sS'bring ride-sharing'
p50
F0.070833999999999994
sS'collaborating'
p51
F0.027064999999999999
sS'one'
p52
F0.0096249999999999999
sS'sidecars engineering team'
p53
F0.070833999999999994
sS'business owner'
p54
F0.037289000000000003
sS'black-belt level'
p55
F0.070833999999999994
sS'mysql postgresql'
p56
F0.061678999999999998
sS'rockstar developer'
p57
F0.070833999999999994
sS'story'
p58
F0.026435
sS'management'
p59
F0.0094230000000000008
sS'eye'
p60
F0.036576999999999998
sS'working'
p61
F0.0090379999999999992
sS'data'
p62
F0.012200000000000001
sS'create'
p63
F0.011195
sS'apps'
p64
F0.034111000000000002
sS'way'
p65
F0.012576
sS'talented data scientist'
p66
F0.041952999999999997
sS'tell'
p67
F0.032973000000000002
sS'engine'
p68
F0.033714000000000001
sS'smart hard-working people'
p69
F0.070833999999999994
sS'company'
p70
F0.0084950000000000008
sS'elastic mapreduce'
p71
F0.061678999999999998
sS'discover'
p72
F0.028334999999999999
sS'ruby'
p73
F0.031972
sS'downtown san francisco'
p74
F0.061678999999999998
sS'present'
p75
F0.01908
sS'tight deadline'
p76
F0.039299000000000001
sS'science'
p77
F0.018655999999999999
sS'optimization'
p78
F0.017347999999999999
sS'report'
p79
F0.023213999999999999
sS'regression analysis'
p80
F0.039299000000000001
sS'comfortable'
p81
F0.023220000000000001
sS'actionable'
p82
F0.047460000000000002
sS'hadoop hive'
p83
F0.038927999999999997
sS'using data'
p84
F0.033062000000000001
sS'qualified candidate'
p85
F0.034213
sS'excel'
p86
F0.023082999999999999
sS'located'
p87
F0.023082999999999999
sS'responsibilities'
p88
F0.010349000000000001
sS'setting'
p89
F0.023442999999999999
sS'computer science'
p90
F0.012968
sS'tool'
p91
F0.0060159999999999996
sS'data mining technique'
p92
F0.034634999999999999
sS'communicating'
p93
F0.025925
sS'reporting'
p94
F0.017146999999999999
sS'qualifications'
p95
F0.010044000000000001
sS'changing'
p96
F0.027376000000000001
sS'validate'
p97
F0.025963
sS'future'
p98
F0.012692
sS'opportunity'
p99
F0.0083599999999999994
sS'grow'
p100
F0.018832000000000002
sS'working directly'
p101
F0.040743000000000001
sS'statistical computation'
p102
F0.055902
sS'fluent'
p103
F0.035312000000000003
sS'time'
p104
F0.012645
sS'position'
p105
F0.0081910000000000004
sS'model'
p106
F0.0083000000000000001
sS'highly recommended'
p107
F0.055902
s.