(dp1
S'summer'
p2
F0.020119000000000001
sS'developed'
p3
F0.016261000000000001
sS"additionally you'll"
p4
F0.025839999999999998
sS'strong desire'
p5
F0.021728000000000001
sS'attitude'
p6
F0.016485
sS'planning'
p7
F0.010612
sS'including'
p8
F0.0078700000000000003
sS'statistical'
p9
F0.00711
sS'innovative'
p10
F0.0079439999999999997
sS'skill'
p11
F0.0042919999999999998
sS'knowledge'
p12
F0.0042760000000000003
sS'geolocation data set'
p13
F0.039535000000000001
sS'implementation'
p14
F0.0079330000000000008
sS'improvement'
p15
F0.010801
sS'predictive model'
p16
F0.022057
sS'platform'
p17
F0.0063920000000000001
sS'charge'
p18
F0.024036999999999999
sS'statistic machine learning'
p19
F0.019775000000000001
sS'combine'
p20
F0.016719999999999999
sS'easy'
p21
F0.017547
sS'mongodb hadoop'
p22
F0.031201
sS'manage'
p23
F0.0078150000000000008
sS'rdbms nosql'
p24
F0.029863000000000001
sS'navimeter team'
p25
F0.039535000000000001
sS'preferred'
p26
F0.0066889999999999996
sS'skill team-orientation'
p27
F0.032049000000000001
sS'programming skill'
p28
F0.014222
sS'advanced'
p29
F0.021794999999999998
sS'-'
F0.013919000000000001
sS'7 year'
p30
F0.014555999999999999
sS'solution'
p31
F0.013228999999999999
sS'specific'
p32
F0.010102999999999999
sS'2-7 year'
p33
F0.079070000000000001
sS'foundation forand expands'
p34
F0.024753000000000001
sS'team'
p35
F0.0053330000000000001
sS'deadline'
p36
F0.015987999999999999
sS'dynamic self-led organization'
p37
F0.039535000000000001
sS'mckinsey focused'
p38
F0.024205999999999998
sS'predictive'
p39
F0.021659999999999999
sS'math linear algebra calculus'
p40
F0.026638999999999999
sS'design thinking mobile social'
p41
F0.024205999999999998
sS'recommend solution'
p42
F0.019331000000000001
sS'people'
p43
F0.0060179999999999999
sS'quantitative discipline'
p44
F0.014324
sS'participate'
p45
F0.010810999999999999
sS'product'
p46
F0.0070239999999999999
sS'big data technology'
p47
F0.013037
sS'analytics'
p48
F0.0085319999999999997
sS'arrival time'
p49
F0.039535000000000001
sS'port'
p50
F0.034424999999999997
sS'product roadmap'
p51
F0.022151000000000001
sS'product development'
p52
F0.0098919999999999998
sS'intellectual curiosity'
p53
F0.021829999999999999
sS'content'
p54
F0.011193
sS'version'
p55
F0.021248
sS'performs'
p56
F0.015330999999999999
sS'new'
p57
F0.0043810000000000003
sS'approach'
p58
F0.0076410000000000002
sS'integrated'
p59
F0.014182
sS'specialist'
p60
F0.016551
sS'distinctive communication skill'
p61
F0.032049000000000001
sS'data analysis'
p62
F0.0089999999999999993
sS'recently'
p63
F0.033086999999999998
sS'ability'
p64
F0.0079240000000000005
sS'business'
p65
F0.0031949999999999999
sS'implementing'
p66
F0.011266999999999999
sS'advanced statistical'
p67
F0.019271
sS'along'
p68
F0.013967
sS'strong'
p69
F0.004718
sS'dis-aggregate issue'
p70
F0.039535000000000001
sS'identify root cause'
p71
F0.026356999999999998
sS'investment inour entrepreneurial culture'
p72
F0.024753000000000001
sS'definition'
p73
F0.017465999999999999
sS'understanding coursework'
p74
F0.026092000000000001
sS'package'
p75
F0.013672
sS'technical'
p76
F0.0044219999999999997
sS'involved'
p77
F0.015758999999999999
sS'experience'
p78
F0.001737
sS'advanced degree'
p79
F0.013132
sS'etc'
p80
F0.0066969999999999998
sS'qualification'
p81
F0.013967
sS'act'
p82
F0.013327
sS'predictive analytics'
p83
F0.012069
sS'top notch problem solving skill'
p84
F0.039535000000000001
sS'software'
p85
F0.0047470000000000004
sS'consulting'
p86
F0.011622
sS'point'
p87
F0.016652
sS'within'
p88
F0.0055840000000000004
sS'fostering innovation'
p89
F0.024205999999999998
sS'data mining'
p90
F0.0087139999999999995
sS'proprietary'
p91
F0.017547
sS'hands-on experience developing'
p92
F0.027605000000000001
sS'undergraduate'
p93
F0.021434000000000002
sS'management'
p94
F0.0052589999999999998
sS'leverage'
p95
F0.010484
sS'support'
p96
F0.0063680000000000004
sS'commercial vessel'
p97
F0.039535000000000001
sS'continuous improvement'
p98
F0.017547
sS'analytical solution'
p99
F0.016230000000000001
sS'least one'
p100
F0.013084
sS'way'
p101
F0.0070190000000000001
sS'eg'
p102
F0.009221
sS'data management'
p103
F0.012633999999999999
sS'engine'
p104
F0.037635000000000002
sS'building'
p105
F0.0060600000000000003
sS'mckinsey'
p106
F0.037006999999999998
sS'brings'
p107
F0.022377999999999999
sS'tool'
p108
F0.010073
sS'releasing'
p109
F0.033086999999999998
sS'excellent problem-solving'
p110
F0.024563999999999999
sS'part'
p111
F0.0063619999999999996
sS'understand'
p112
F0.013251000000000001
sS'disruptive'
p113
F0.024753000000000001
sS'navimeter'
p114
F0.079070000000000001
sS'real-time'
p115
F0.014892000000000001
sS'broader'
p116
F0.019271
sS'ha'
p117
F0.0086409999999999994
sS'pilot'
p118
F0.02274
sS'quantitative'
p119
F0.0086339999999999993
sS'applying'
p120
F0.012171
sS'integrating'
p121
F0.012794
sS'facilitating'
p122
F0.025600999999999999
sS'project involving'
p123
F0.026092000000000001
sS'value'
p124
F0.0079489999999999995
sS'project'
p125
F0.0037659999999999998
sS'r'
F0.0069890000000000004
sS'learn'
p126
F0.0088579999999999996
sS'continuously'
p127
F0.018710000000000001
sS'making'
p128
F0.011762
sS'new bespoke advanced'
p129
F0.039535000000000001
sS"mckinsey's new ventures"
p130
F0.024036999999999999
sS'associated'
p131
F0.014364999999999999
sS'ip'
p132
F0.028825
sS'mckinsey solutions'
p133
F0.024563999999999999
sS'expertise'
p134
F0.0062589999999999998
sS'work'
p135
F0.0048599999999999997
sS'ie'
p136
F0.015730999999999998
sS'develop'
p137
F0.0036280000000000001
sS'forecast vessel movement'
p138
F0.039535000000000001
sS'technology'
p139
F0.003375
sS'excel'
p140
F0.012884
sS'python'
p141
F0.0069470000000000001
sS'methodology'
p142
F0.0081679999999999999
sS'setting'
p143
F0.013084
sS'role'
p144
F0.0048370000000000002
sS'decision balancing demand'
p145
F0.031201
sS'communicate technical'
p146
F0.02274
sS'development'
p147
F0.006241
sS'strong academic'
p148
F0.023133000000000001
sS'satellite'
p149
F0.031201
sS'multiple'
p150
F0.0089800000000000001
sS'eg r sas spss alteryx matlab stata'
p151
F0.032049000000000001
sS'may'
p152
F0.0091260000000000004
sS'qualifications'
p153
F0.0056059999999999999
sS'proficiency'
p154
F0.0089929999999999993
sS'c++ c'
p155
F0.025600999999999999
sS'driven'
p156
F0.0093530000000000002
sS'container terminal client'
p157
F0.039535000000000001
sS'sql'
p158
F0.0051720000000000004
sS'terminal operation'
p159
F0.039535000000000001
sS'core'
p160
F0.0096830000000000006
sS"you'll work"
p161
F0.016652
sS'java python r'
p162
F0.026939999999999999
sS'independently'
p163
F0.013069000000000001
sS'tracking'
p164
F0.016108000000000001
sS'database'
p165
F0.013727
sS'recently formed part'
p166
F0.024753000000000001
sS'waltham massachusetts'
p167
F0.039535000000000001
sS'well'
p168
F0.010994
sS'statistics mathematics econometrics operations research'
p169
F0.032049000000000001
sS"you'll"
p170
F0.042745999999999999
sS'client'
p171
F0.047544999999999997
sS'professional'
p172
F0.0081899999999999994
sS'first'
p173
F0.011037999999999999
sS'corporate'
p174
F0.011919000000000001
sS'order'
p175
F0.010246999999999999
s.