(dp1
S'office'
p2
F0.01094
sS'demonstrated ability'
p3
F0.014753
sS'existing'
p4
F0.023560000000000001
sS'leads'
p5
F0.021892999999999999
sS'manager'
p6
F0.011209
sS'planning'
p7
F0.01289
sS'including'
p8
F0.0047800000000000004
sS'statistical'
p9
F0.0086359999999999996
sS'excellent analytical'
p10
F0.022176999999999999
sS'drive better'
p11
F0.025281000000000001
sS'position'
p12
F0.011106
sS'based'
p13
F0.016743999999999998
sS'system'
p14
F0.0051929999999999997
sS'candidate'
p15
F0.010562
sS'exchange complex'
p16
F0.033112999999999997
sS'predictive model'
p17
F0.026792
sS'program'
p18
F0.0088409999999999999
sS'multiple data source'
p19
F0.021517999999999999
sS'presentation'
p20
F0.010806
sS'reporting tool solves complex'
p21
F0.035014000000000003
sS"aetna's consumer"
p22
F0.028622000000000002
sS'data modeling'
p23
F0.016694000000000001
sS'solution interacts'
p24
F0.029836999999999999
sS'exceptional'
p25
F0.014911000000000001
sS'python'
p26
F0.0084379999999999993
sS'explore examine'
p27
F0.033112999999999997
sS'complex business problem utilizing advanced statistical technique'
p28
F0.027935999999999999
sS'background'
p29
F0.010357
sS'report'
p30
F0.0078689999999999993
sS'programming skill'
p31
F0.017274999999999999
sS'customer insights'
p32
F0.032016000000000003
sS'identifying'
p33
F0.015108
sS'prospective constituent'
p34
F0.032723000000000002
sS'either'
p35
F0.018033
sS'activity'
p36
F0.023413
sS'analytical'
p37
F0.0076959999999999997
sS'recommend solution'
p38
F0.023481999999999999
sS'generation'
p39
F0.019279999999999999
sS'related'
p40
F0.0078549999999999991
sS'analytics'
p41
F0.010364
sS'result'
p42
F0.014596
sS'wellesley'
p43
F0.027777
sS'collaborates'
p44
F0.020698999999999999
sS'evaluates information'
p45
F0.040190999999999998
sS'written'
p46
F0.013648
sS'several area'
p47
F0.030308000000000002
sS'provides'
p48
F0.012415000000000001
sS'conduct'
p49
F0.014690999999999999
sS'business partner'
p50
F0.015779999999999999
sS'new'
p51
F0.0053220000000000003
sS'position summary'
p52
F0.016414999999999999
sS'programming language'
p53
F0.012272
sS'ability'
p54
F0.0032079999999999999
sS'marketing'
p55
F0.029429
sS'analytics team creates cutting edge analytic tool'
p56
F0.026516000000000001
sS'broad knowledge'
p57
F0.026773000000000002
sS'strong'
p58
F0.005731
sS'new york ny'
p59
F0.024705999999999999
sS'analyzes information'
p60
F0.035609000000000002
sS'interpret large volume'
p61
F0.031387999999999999
sS'communicate technical idea'
p62
F0.024891
sS'industry'
p63
F0.012855999999999999
sS'potential future outcome'
p64
F0.025592
sS'programming'
p65
F0.010437
sS'demonstrates proficiency'
p66
F0.025281000000000001
sS'experience'
p67
F0.0042209999999999999
sS'faster decision making'
p68
F0.026034999999999999
sS'external peer'
p69
F0.023861
sS'5+ year'
p70
F0.028986000000000001
sS'relevant'
p71
F0.020544
sS'within'
p72
F0.006783
sS'ultimate goal'
p73
F0.035609000000000002
sS'performance metric'
p74
F0.023126000000000001
sS'senior data scientist'
p75
F0.017448999999999999
sS'fundamental components'
p76
F0.022005
sS'problem solving skill'
p77
F0.015363999999999999
sS'non-technical client'
p78
F0.024525999999999999
sS'decision making'
p79
F0.016965999999999998
sS'various form'
p80
F0.027935999999999999
sS'use'
p81
F0.012222
sS'health services'
p82
F0.024353
sS'area'
p83
F0.0076740000000000003
sS'support'
p84
F0.0077349999999999997
sS'participates'
p85
F0.039968999999999998
sS'modeling technique'
p86
F0.020063999999999999
sS'consultation'
p87
F0.022792
sS'way'
p88
F0.0085260000000000006
sS'determines analytical approach'
p89
F0.025808999999999999
sS'designing implementing'
p90
F0.033984
sS'machine learning algorithm'
p91
F0.015650000000000001
sS'data analytic'
p92
F0.024353
sS'statistical model'
p93
F0.015932000000000002
sS'delivery'
p94
F0.011192000000000001
sS'understand'
p95
F0.0080479999999999996
sS'demand'
p96
F0.018173999999999999
sS'currently looking'
p97
F0.023057999999999999
sS'data visualization'
p98
F0.013202
sS'data technology'
p99
F0.023782999999999999
sS'structured'
p100
F0.013584000000000001
sS'work'
p101
F0.0019680000000000001
sS'us'
p102
F0.0095300000000000003
sS'information'
p103
F0.013051
sS'r'
F0.0084899999999999993
sS'verbal form'
p104
F0.024615000000000001
sS'problem'
p105
F0.015637000000000002
sS'highest level'
p106
F0.022662999999999999
sS'procedure'
p107
F0.013925
sS'performs analysis'
p108
F0.024438999999999999
sS'marketing analytics'
p109
F0.021517999999999999
sS'process'
p110
F0.005718
sS'investigate problem detect pattern'
p111
F0.026516000000000001
sS"master's degree"
p112
F0.012637000000000001
sS'health care'
p113
F0.016478
sS'statistical analysis'
p114
F0.033427999999999999
sS'sas'
p115
F0.012447
sS'development validation'
p116
F0.026905999999999999
sS'education'
p117
F0.0092339999999999992
sS'large data set'
p118
F0.014538000000000001
sS'monitoring'
p119
F0.015873999999999999
sS'goal'
p120
F0.010118
sS'strong knowledge'
p121
F0.017274999999999999
sS'predictive modeling'
p122
F0.013298000000000001
sS'analyzes'
p123
F0.021467
sS'internal'
p124
F0.0090539999999999995
sS'optimal'
p125
F0.022475999999999999
sS'unstructured data'
p126
F0.015577000000000001
sS'product'
p127
F0.0042659999999999998
sS'customer segmentation'
p128
F0.025382999999999999
sS'multiple'
p129
F0.010907999999999999
sS'education desired'
p130
F0.025281000000000001
sS'solid understanding'
p131
F0.018779000000000001
sS'mathematical analysis'
p132
F0.023556000000000001
sS'develops'
p133
F0.027399
sS'data driven'
p134
F0.019349999999999999
sS'sql'
p135
F0.0062830000000000004
sS'evaluate scenario'
p136
F0.023481999999999999
sS'develop'
p137
F0.0044070000000000003
sS'effort obtains'
p138
F0.040190999999999998
sS'data'
p139
F0.0055139999999999998
sS'specialization'
p140
F0.027472
sS'background experience'
p141
F0.022475999999999999
sS'algorithm'
p142
F0.021061
sS'consumer'
p143
F0.011816999999999999
sS'hartford ct location'
p144
F0.033984
sS'using data manipulation'
p145
F0.041815999999999999
sS'solve'
p146
F0.011200999999999999
sS'strong organizational skill'
p147
F0.026773000000000002
sS'organization'
p148
F0.012685
sS'marketing campaign'
p149
F0.054942999999999999
s.