(dp1
S'help'
p2
F0.0082380000000000005
sS'developed'
p3
F0.014507000000000001
sS'nonlinear optimization'
p4
F0.027196000000000001
sS'vary'
p5
F0.025715999999999999
sS'equal employment opportunity employer'
p6
F0.016507000000000001
sS'well-being'
p7
F0.020761999999999999
sS'touch'
p8
F0.019206999999999998
sS'digital medium'
p9
F0.018013000000000001
sS'impact'
p10
F0.0072769999999999996
sS'based'
p11
F0.006149
sS'family'
p12
F0.013044
sS'big data'
p13
F0.012921999999999999
sS'tv'
p14
F0.022082999999999998
sS'technique'
p15
F0.0056259999999999999
sS'analyst'
p16
F0.0084399999999999996
sS'program'
p17
F0.0064929999999999996
sS'combine'
p18
F0.014916
sS'location'
p19
F0.0083510000000000008
sS'fuel'
p20
F0.018874999999999999
sS'include'
p21
F0.0077520000000000002
sS'computer science'
p22
F0.0064570000000000001
sS'data-driven'
p23
F0.011645000000000001
sS'desire'
p24
F0.011743999999999999
sS'collaborate'
p25
F0.0070679999999999996
sS'competitive compensation'
p26
F0.017410999999999999
sS'exceptional'
p27
F0.021902999999999999
sS'python'
p28
F0.0061970000000000003
sS'facility convenience'
p29
F0.035270000000000003
sS'practice'
p30
F0.0082570000000000005
sS'preferred'
p31
F0.0059670000000000001
sS'tivo rewards include'
p32
F0.035270000000000003
sS'intersection'
p33
F0.018717999999999999
sS'programming skill'
p34
F0.012687
sS'timely'
p35
F0.013911
sS'holiday'
p36
F0.019206999999999998
sS'success'
p37
F0.0073610000000000004
sS'celebrate success'
p38
F0.028591999999999999
sS'large scale'
p39
F0.013224
sS'solution'
p40
F0.0029510000000000001
sS'audience'
p41
F0.039719999999999998
sS'join u'
p42
F0.011787000000000001
sS'team'
p43
F0.001586
sS'including'
p44
F0.0035109999999999998
sS'security'
p45
F0.00941
sS'passionate'
p46
F0.0084659999999999996
sS'predictive analytics'
p47
F0.021533
sS'everyone'
p48
F0.015105
sS'financial'
p49
F0.0079819999999999995
sS'analytics team'
p50
F0.012796999999999999
sS'extract actionable insight'
p51
F0.021593999999999999
sS'tivo ha'
p52
F0.035270000000000003
sS'video'
p53
F0.014916
sS'recycling program'
p54
F0.035270000000000003
sS'transportation'
p55
F0.017354999999999999
sS'innovator'
p56
F0.019761000000000001
sS'scale'
p57
F0.0093369999999999998
sS'network'
p58
F0.0086929999999999993
sS'entertainment'
p59
F0.078653000000000001
sS'pattern'
p60
F0.010158
sS'integrates'
p61
F0.021156999999999999
sS'familiarity'
p62
F0.0078009999999999998
sS'benefit'
p63
F0.008659
sS'future'
p64
F0.006319
sS'health'
p65
F0.0099860000000000001
sS'provider'
p66
F0.012777999999999999
sS'relational'
p67
F0.016552999999999998
sS'technology'
p68
F0.0030109999999999998
sS'leveraging'
p69
F0.010514000000000001
sS'discovery'
p70
F0.027632
sS'core'
p71
F0.0086379999999999998
sS'reimbursement subsidized cafe'
p72
F0.035270000000000003
sS'infrastructure'
p73
F0.0084980000000000003
sS'distributed computing'
p74
F0.014160000000000001
sS'culture benefits-at-tivo'
p75
F0.035270000000000003
sS'business'
p76
F0.0028500000000000001
sS'experience using'
p77
F0.011801000000000001
sS'deliver'
p78
F0.005659
sS'http wwwtivocom job'
p79
F0.035270000000000003
sS'processing'
p80
F0.010579
sS'data scientist'
p81
F0.0027409999999999999
sS'understanding'
p82
F0.0053319999999999999
sS'pressure'
p83
F0.017087000000000001
sS'consumer behavior'
p84
F0.021443
sS'tivo corporation'
p85
F0.035270000000000003
sS'delivering'
p86
F0.0096360000000000005
sS'optimize'
p87
F0.010297000000000001
sS'problem'
p88
F0.0057419999999999997
sS'care'
p89
F0.010158
sS'revolutionary'
p90
F0.021751
sS'protect'
p91
F0.017354999999999999
sS'actual'
p92
F0.023052
sS'candidate'
p93
F0.007757
sS"hi we're tivo"
p94
F0.035270000000000003
sS'quantitative field'
p95
F0.011672999999999999
sS'massive data'
p96
F0.025715999999999999
sS'experience'
p97
F0.0023249999999999998
sS'personal'
p98
F0.011401
sS'perks'
p99
F0.018422000000000001
sS'important'
p100
F0.011297
sS'ensure'
p101
F0.0069579999999999998
sS'statistical package'
p102
F0.017246000000000001
sS'software engineer'
p103
F0.011467
sS'data cleanliness'
p104
F0.035270000000000003
sS'ability'
p105
F0.002356
sS'campaign'
p106
F0.014534999999999999
sS'fitness'
p107
F0.024958999999999999
sS'data mining'
p108
F0.0077739999999999997
sS'apply'
p109
F0.0058269999999999997
sS'cloud'
p110
F0.0090810000000000005
sS'clustering'
p111
F0.01289
sS'save'
p112
F0.023052
sS'strong'
p113
F0.0042090000000000001
sS'excellent communication skill'
p114
F0.013677
sS'consumption'
p115
F0.018796
sS'statistic physic chemistry biology'
p116
F0.035270000000000003
sS'set-tops smart tvs tablet'
p117
F0.035270000000000003
sS'question'
p118
F0.009273
sS'vacation'
p119
F0.019474999999999999
sS'cloud-based'
p120
F0.019206999999999998
sS"world's leading"
p121
F0.019963000000000002
sS'subscriber'
p122
F0.029517999999999999
sS'2'
F0.011603
sS"we're"
p123
F0.012564000000000001
sS'intelligence'
p124
F0.010633
sS'dry cleaning'
p125
F0.035270000000000003
sS'tivo community outreach'
p126
F0.035270000000000003
sS'today'
p127
F0.012966
sS'paid time'
p128
F0.015618
sS'life'
p129
F0.0068599999999999998
sS'medium'
p130
F0.010699
sS'option'
p131
F0.015654000000000001
sS'relationship'
p132
F0.008659
sS'car wash'
p133
F0.035270000000000003
sS'non-relational database'
p134
F0.024319
sS'serve'
p135
F0.010129000000000001
sS'great'
p136
F0.0098119999999999995
sS'tivo'
p137
F0.035270000000000003
sS'employee'
p138
F0.014872
sS'continuously'
p139
F0.016691999999999999
sS'benefits'
p140
F0.012165
sS'face new'
p141
F0.030710999999999999
sS'team member'
p142
F0.0082939999999999993
sS'inventing'
p143
F0.024032999999999999
sS'tivo analytics'
p144
F0.035270000000000003
sS'analyze large data set'
p145
F0.017139000000000001
sS'tivo support'
p146
F0.035270000000000003
sS'customer'
p147
F0.0036259999999999999
sS'propose new'
p148
F0.027196000000000001
sS'communicate'
p149
F0.0080990000000000003
sS'pursue'
p150
F0.017246000000000001
sS'challenge'
p151
F0.015636000000000001
sS'work'
p152
F0.0028900000000000002
sS'see'
p153
F0.011058999999999999
sS'machine learning'
p154
F0.0044980000000000003
sS'r'
F0.0062350000000000001
sS'ms'
p155
F0.0095759999999999994
sS'learn'
p156
F0.0079019999999999993
sS'employee discount'
p157
F0.029517999999999999
sS'nurture'
p158
F0.022259999999999999
sS'enables'
p159
F0.016836
sS'meticulous'
p160
F0.025715999999999999
sS'beautiful'
p161
F0.021156999999999999
sS'foster'
p162
F0.014160000000000001
sS'analytics platform'
p163
F0.016462999999999998
sS'comprehensive benefit'
p164
F0.023276999999999999
sS'behavior'
p165
F0.012581
sS'stream'
p166
F0.018874999999999999
sS'decision tree'
p167
F0.016507000000000001
sS'predict'
p168
F0.016417999999999999
sS'year'
p169
F0.0083510000000000008
sS'share'
p170
F0.011233
sS'direction'
p171
F0.0097669999999999996
sS'salary equity'
p172
F0.032393999999999999
sS'work hard'
p173
F0.016985
sS'high'
p174
F0.010482999999999999
sS'enable'
p175
F0.0093769999999999999
sS'actionable insight'
p176
F0.013677
sS'think creatively'
p177
F0.020889000000000001
sS'seek'
p178
F0.012723999999999999
sS'neural network'
p179
F0.017139000000000001
sS'finance'
p180
F0.010916
sS'service provider'
p181
F0.018641999999999999
sS'develop'
p182
F0.0032369999999999999
sS'server basically anywhere'
p183
F0.035270000000000003
sS'etc'
p184
F0.011949
sS'user experience'
p185
F0.012633999999999999
sS'pay'
p186
F0.016985
sS'make'
p187
F0.010513
sS'machine learning technique'
p188
F0.01204
sS'power'
p189
F0.01112
sS'responsibilities'
p190
F0.0051529999999999996
sS'build'
p191
F0.0080940000000000005
sS'work-life balance'
p192
F0.024032999999999999
sS'day'
p193
F0.011801000000000001
sS'stock'
p194
F0.020175999999999999
sS'evolve'
p195
F0.01537
sS'product'
p196
F0.0031329999999999999
sS'bonus'
p197
F0.015765999999999999
sS'comprehensive'
p198
F0.012213
sS'qualifications'
p199
F0.0050010000000000002
sS'phd'
p200
F0.0066620000000000004
sS'reflect'
p201
F0.025715999999999999
sS'fast-paced environment'
p202
F0.015654000000000001
sS'designed'
p203
F0.014343
sS'meaningful'
p204
F0.012133
sS'grow'
p205
F0.0093769999999999999
sS'perk'
p206
F0.021751
sS'tailored'
p207
F0.021751
sS'algorithm'
p208
F0.005156
sS'sick time'
p209
F0.024958999999999999
sS'considered'
p210
F0.010451
sS'invest'
p211
F0.017762
sS'consumed'
p212
F0.020761999999999999
sS'hadoop mapreduce'
p213
F0.022082999999999998
sS'analysis'
p214
F0.0033999999999999998
sS'generous paid time away'
p215
F0.035270000000000003
sS'u'
F0.0096620000000000004
sS'ultimate'
p216
F0.027834999999999999
sS'binge-watching music-loving entertainment fanatic every day'
p217
F0.035270000000000003
sS'organization'
p218
F0.0046579999999999998
sS'validation'
p219
F0.011934
sS'decision'
p220
F0.0071289999999999999
s.