(dp1
S'nlp'
p2
F0.047048
sS'communicate effectively'
p3
F0.0178
sS'curate'
p4
F0.022866999999999998
sS'data acquisition'
p5
F0.018688
sS'debug software'
p6
F0.025628000000000001
sS'departmentdescription'
p7
F0.026616000000000001
sS'equal employment opportunity employer'
p8
F0.017603000000000001
sS'preferred qualifications'
p9
F0.0095180000000000004
sS'willbe'
p10
F0.026262000000000001
sS'theideal candidate'
p11
F0.026616000000000001
sS'skill'
p12
F0.0040829999999999998
sS'agile methodology'
p13
F0.016976000000000002
sS'theproduct team'
p14
F0.034543999999999998
sS'alltypes'
p15
F0.026616000000000001
sS'content'
p16
F0.021297
sS'based'
p17
F0.0065570000000000003
sS'candidate'
p18
F0.0082719999999999998
sS'title'
p19
F0.018565999999999999
sS'ourteam'
p20
F0.026616000000000001
sS'data necessary'
p21
F0.023549
sS'race color religion sex national origin sexual orientation gender identity disability'
p22
F0.019643999999999998
sS'program'
p23
F0.0069239999999999996
sS'positionoverview'
p24
F0.026616000000000001
sS'location'
p25
F0.0089049999999999997
sS'defining'
p26
F0.014057999999999999
sS'division'
p27
F0.013472
sS'collaborate'
p28
F0.0075370000000000003
sS'practice'
p29
F0.0088050000000000003
sS'specialization leading contributor individually'
p30
F0.026262000000000001
sS'job requirements'
p31
F0.016463999999999999
sS'community'
p32
F0.0079950000000000004
sS'candidatemust'
p33
F0.034543999999999998
sS'advanced'
p34
F0.0069109999999999996
sS'job description'
p35
F0.0089519999999999999
sS'using nlptechnologies'
p36
F0.034543999999999998
sS'evolution'
p37
F0.019005999999999999
sS'2an understanding'
p38
F0.037610999999999999
sS'1deep knowledge'
p39
F0.027889000000000001
sS'3must'
p40
F0.027889000000000001
sS'related experience'
p41
F0.013491
sS'7 year'
p42
F0.027694
sS'agile software developmentenvironment'
p43
F0.034543999999999998
sS'track record'
p44
F0.014279
sS'genomics proteomics'
p45
F0.034543999999999998
sS'set'
p46
F0.0094409999999999997
sS'data anonymize'
p47
F0.025343000000000001
sS'cloud ocrc'
p48
F0.026262000000000001
sS'providecreative solution'
p49
F0.034543999999999998
sS'member'
p50
F0.0086119999999999999
sS'design'
p51
F0.0073210000000000003
sS'subjectmatter expert'
p52
F0.032750000000000001
sS'clinical therapeutic etc wewill leverage'
p53
F0.026616000000000001
sS'extract'
p54
F0.013198
sS'receive consideration'
p55
F0.0086499999999999997
sS'product development'
p56
F0.0094109999999999992
sS'network'
p57
F0.0092700000000000005
sS'driving'
p58
F0.010853
sS'employment without regard'
p59
F0.0090910000000000001
sS'saas'
p60
F0.017278999999999999
sS'integration'
p61
F0.0098390000000000005
sS'research'
p62
F0.01567
sS'current'
p63
F0.009358
sS'outside'
p64
F0.014371
sS'designing'
p65
F0.010649
sS'complex data'
p66
F0.016653999999999999
sS'ideal candidate'
p67
F0.02179
sS'public'
p68
F0.013766
sS'thrive'
p69
F0.023331999999999999
sS'available'
p70
F0.021277000000000001
sS'detailed description'
p71
F0.021073000000000001
sS'infrastructure'
p72
F0.0090629999999999999
sS'scientific'
p73
F0.011445
sS'business'
p74
F0.0060790000000000002
sS'exchange'
p75
F0.019278
sS'journal'
p76
F0.019800000000000002
sS'top3 skill'
p77
F0.026616000000000001
sS'ocrc'
p78
F0.026262000000000001
sS'job'
p79
F0.0052680000000000001
sS'mentoring'
p80
F0.013269
sS'others'
p81
F0.0089859999999999992
sS'informatics'
p82
F0.020042999999999998
sS'strong'
p83
F0.0044879999999999998
sS'definition'
p84
F0.016615999999999999
sS'passionate'
p85
F0.0090279999999999996
sS'language'
p86
F0.0086940000000000003
sS'complex data curation'
p87
F0.034543999999999998
sS'curation'
p88
F0.023193999999999999
sS'experience'
p89
F0.001653
sS'qualified applicant'
p90
F0.0081340000000000006
sS'etc'
p91
F0.012742
sS'ensure'
p92
F0.0074200000000000004
sS'theecosystem researcher'
p93
F0.026616000000000001
sS'software'
p94
F0.0090310000000000008
sS'relevant'
p95
F0.0080450000000000001
sS'researcher'
p96
F0.014279
sS'center pharma payer cliniciansproviding care'
p97
F0.026616000000000001
sS'job type regular employee hire'
p98
F0.023549
sS'ms degree'
p99
F0.017233999999999999
sS'private'
p100
F0.017953
sS'willreport'
p101
F0.034543999999999998
sS'initiative'
p102
F0.016744999999999999
sS'periodical'
p103
F0.034543999999999998
sS'providethe mean'
p104
F0.026616000000000001
sS'software engineeringyou'
p105
F0.034543999999999998
sS'improve patient outcome'
p106
F0.025628000000000001
sS'cloud'
p107
F0.0096830000000000006
sS'engineer'
p108
F0.015065
sS'candidateprofile'
p109
F0.026616000000000001
sS'bestoptions'
p110
F0.025343000000000001
sS'working'
p111
F0.0047990000000000003
sS'area'
p112
F0.012019999999999999
sS'support'
p113
F0.003029
sS'cutting edge'
p114
F0.013006
sS'intention'
p115
F0.025343000000000001
sS'life sciencesespecially'
p116
F0.034543999999999998
sS'asset'
p117
F0.013786
sS'active role'
p118
F0.017953
sS'participated'
p119
F0.029683000000000001
sS'direction'
p120
F0.020830000000000001
sS'enable'
p121
F0.0099989999999999992
sS'onlyprovide'
p122
F0.026616000000000001
sS'brings asset'
p123
F0.026616000000000001
sS'company'
p124
F0.0045110000000000003
sS'delivery'
p125
F0.0087659999999999995
sS'task'
p126
F0.0091900000000000003
sS'big data analyticstechnologies'
p127
F0.034543999999999998
sS'team member'
p128
F0.0088450000000000004
sS'constituent'
p129
F0.02214
sS'aggregate itinto'
p130
F0.026616000000000001
sS'oracleis funding'
p131
F0.026616000000000001
sS'standard'
p132
F0.0081169999999999992
sS'must'
p133
F0.012348
sS'data science andarchitecture'
p134
F0.034543999999999998
sS'massive data warehouse'
p135
F0.025343000000000001
sS'operating system'
p136
F0.015809
sS'software engineering'
p137
F0.025388000000000001
sS'startup-like environment'
p138
F0.025628000000000001
sS'developing'
p139
F0.011971000000000001
sS'inside'
p140
F0.017749999999999998
sS'work'
p141
F0.0030820000000000001
sS'technical'
p142
F0.0042069999999999998
sS'characteristic protected'
p143
F0.011542
sS'accessed'
p144
F0.025628000000000001
sS'problem'
p145
F0.006123
sS'providing'
p146
F0.0076629999999999997
sS'procedure'
p147
F0.010906000000000001
sS'protected veteran status'
p148
F0.011339
sS'exhibit'
p149
F0.015744999999999999
sS'debugging'
p150
F0.018058999999999999
sS'associated'
p151
F0.013665999999999999
sS'complex involving'
p152
F0.022561000000000001
sS'environment andembrace'
p153
F0.034543999999999998
sS'extremely ambitious project'
p154
F0.026616000000000001
sS'deep'
p155
F0.011134
sS'player'
p156
F0.017146000000000002
sS'develop troubleshoot'
p157
F0.026616000000000001
sS'also'
p158
F0.014659
sS'need'
p159
F0.0047590000000000002
sS'technology'
p160
F0.0096329999999999992
sS'preferably'
p161
F0.013091999999999999
sS'academic'
p162
F0.013198
sS'efficient'
p163
F0.012758
sS'across thecorporation'
p164
F0.026616000000000001
sS'make'
p165
F0.0056059999999999999
sS'responsible'
p166
F0.0054489999999999999
sS'able'
p167
F0.013695000000000001
sS'internals team'
p168
F0.026616000000000001
sS'chemical'
p169
F0.023193999999999999
sS'application'
p170
F0.024143000000000001
sS'internal'
p171
F0.0070910000000000001
sS'take'
p172
F0.018252000000000001
sS'accelerateresearch around cancer'
p173
F0.026616000000000001
sS'conduct theirresearch'
p174
F0.026616000000000001
sS'development'
p175
F0.0029689999999999999
sS'senior director'
p176
F0.023934
sS'us-ma mass-burlington'
p177
F0.025343000000000001
sS'collaboration'
p178
F0.0087069999999999995
sS'tool'
p179
F0.0031939999999999998
sS'functional area'
p180
F0.01719
sS'equivalent experience'
p181
F0.012433
sS'alife-science environment'
p182
F0.034543999999999998
sS'head'
p183
F0.0177
sS'law'
p184
F0.010331
sS'non-routine'
p185
F0.02214
sS'thenlp application'
p186
F0.034543999999999998
sS'oracle cancer research'
p187
F0.026262000000000001
sS'work closely'
p188
F0.0089730000000000001
sS'database'
p189
F0.0065290000000000001
sS'extraction'
p190
F0.017555000000000001
sS'bs'
p191
F0.013379
sS'provide'
p192
F0.0044980000000000003
sS'oracle'
p193
F0.014279
sS'organization'
p194
F0.0049670000000000001
sS'model'
p195
F0.0044070000000000003
sS'oraclefalse'
p196
F0.023549
s.