(dp1
S''
F0.00091880367545612933
sS'code'
p2
F0.0024313042989041198
sS'global'
p3
F0.0029197558975648207
sS'focus'
p4
F0.001327364303182772
sS'month'
p5
F0.0025000652871506606
sS'manager'
p6
F0.0023558264144073202
sS'concept'
p7
F0.00393668855549775
sS'served'
p8
F0.0043706133865661044
sS'go'
p9
F0.0041854963746702353
sS'country/globe'
p10
F0.004621524216385643
sS'remarkably'
p11
F0.004621524216385643
sS'smes'
p12
F0.0034364181237152313
sS'expedient/accelerated'
p13
F0.0055193403089406181
sS'environment'
p14
F0.0020179255463293718
sS'foster'
p15
F0.0022362704460850854
sS'suite'
p16
F0.0021665849231162293
sS'enjoying'
p17
F0.0047000926818587373
sS'collaborate'
p18
F0.0012305092565998812
sS'replication'
p19
F0.004000415731687963
sS'artwork'
p20
F0.0043706133865661044
sS'micromanage'
p21
F0.004621524216385643
sS'entire'
p22
F0.0022964638433561248
sS'organizationally'
p23
F0.0053048124424282198
sS'level'
p24
F0.00087342529417085168
sS'fast-paced'
p25
F0.0018505126294970744
sS'cause'
p26
F0.0024579249622076228
sS'solution'
p27
F0.0012299092266085179
sS'leave'
p28
F0.0029427214536762807
sS'adjust'
p29
F0.0036873274363344397
sS'excellence'
p30
F0.0073156144256609386
sS'minimal'
p31
F0.0023655576252245318
sS'do/build'
p32
F0.004621524216385643
sS'team'
p33
F0.0060944384616310665
sS'essential.'
p34
F0.0044258764504702657
sS'enjoy'
p35
F0.01717722217747062
sS'consistent'
p36
F0.001813355208557876
sS'direct'
p37
F0.0017316934980341554
sS'pulse'
p38
F0.0042710377074399557
sS'thinker'
p39
F0.0024337384931201484
sS'street'
p40
F0.0034835309434400868
sS'video'
p41
F0.0022547592141093373
sS'follow'
p42
F0.0021834053009964238
sS'folk'
p43
F0.0071755044247370581
sS'meetings.'
p44
F0.004485565118788875
sS'what'
p45
F0.0013464946720797265
sS'latest/greatest'
p46
F0.004621524216385643
sS'clock'
p47
F0.0045504504085213922
sS'operations/support'
p48
F0.0055193403089406181
sS'product.'
p49
F0.0033106754829049945
sS'while'
p50
F0.002813334977217744
sS'conduct'
p51
F0.0017133572102831375
sS'new'
p52
F0.0011646929982863225
sS'movement'
p53
F0.0033779014931300398
sS'supporting'
p54
F0.004953374025681502
sS'niche'
p55
F0.0039686786616201265
sS'evolved'
p56
F0.0041832057695278058
sS'leveraging'
p57
F0.0016765464123471997
sS'commercial'
p58
F0.0017178991782757988
sS'understanding'
p59
F0.00068434605289575143
sS'explore'
p60
F0.0018237840089519737
sS'focused'
p61
F0.0043604230616479797
sS'carefulness'
p62
F0.004621524216385643
sS'others'
p63
F0.0028000950006640702
sS'strong'
p64
F0.0022369851012071199
sS'change'
p65
F0.0011043831617729204
sS'software development'
p66
F0.0016428398095997398
sS"'protect'"
p67
F0.0058217004168074852
sS'skills.'
p68
F0.0021890974844111606
sS'talent'
p69
F0.0017133572102831375
sS'rds'
p70
F0.0036873274363344397
sS'technical'
p71
F0.0011345563209953337
sS'larger'
p72
F0.0028199634216346738
sS'allows'
p73
F0.0026642963641642396
sS'experience'
p74
F0.00077567303832230762
sS'guide'
p75
F0.0019390185970941884
sS'throughput'
p76
F0.0070676445422487941
sS'mentor'
p77
F0.0018414962025346516
sS'cto'
p78
F0.0035513690973385317
sS'via'
p79
F0.0037907547725685464
sS'love'
p80
F0.0090581558477204702
sS'expect/demand'
p81
F0.004621524216385643
sVDoctor
p82
F0.00094904150438582561
sS'process/team'
p83
F0.004621524216385643
sS'manage'
p84
F0.0020957911953882599
sS'highly'
p85
F0.00087636605324309402
sS'visible'
p86
F0.0034364181237152313
sS'genscape'
p87
F0.013864572649156928
sS'punching'
p88
F0.004621524216385643
sS'apply'
p89
F0.00094580018259166889
sS'operational'
p90
F0.003073563040386956
sS'cloud'
p91
F0.0050511605728008075
sS'architecture/design'
p92
F0.0051384117356007807
sS'intensive'
p93
F0.0035338222711243971
sS'use'
p94
F0.00072290087933735733
sS'honing'
p95
F0.0047879247714917991
sS'figure'
p96
F0.0032730690375225315
sS'working'
p97
F0.0027570440804486826
sS'perk'
p98
F0.0028897054227287229
sS'give'
p99
F0.0045410492549580626
sS'distributing'
p100
F0.0041046374557755323
sS'live'
p101
F0.0020187174917649085
sS'program'
p102
F0.0010411264118588416
sS'music'
p103
F0.0034213528710226367
sS'asset'
p104
F0.0016539068830866976
sS'msc'
p105
F0.0047879247714917991
sS'theoretical'
p106
F0.0031189964044284128
sS'today'
p107
F0.0018726076006394614
sS'sharing'
p108
F0.0024786974732039831
sS'upcoming'
p109
F0.0035513690973385317
sS'successful'
p110
F0.0013464946720797265
sS'company'
p111
F0.00092830496607893963
sS'line'
p112
F0.0018820106508855403
sS'training'
p113
F0.0026746474443382069
sS'app-dev'
p114
F0.0047000926818587373
sS'master data management'
p115
F0.0034517940250917739
sS'continual'
p116
F0.0071027381946770635
sS'effort'
p117
F0.0014040240344590537
sS'must'
p118
F0.0025824432530010552
sS'customer'
p119
F0.0012172486003520131
sS'market.'
p120
F0.0032609435211798576
sS'excellent'
p121
F0.004638471485677957
sS'join'
p122
F0.00088774770425897116
sS'trader'
p123
F0.0042258293417737972
sS'hour'
p124
F0.0021610614075438096
sS'this'
p125
F0.0055054482111362678
sS'work'
p126
F0.0011582512244585827
sS'dev'
p127
F0.014504007768111492
sS'cat'
p128
F0.0043706133865661044
sS'transparency'
p129
F0.0029119666850596425
sS'learn'
p130
F0.0012845481430414131
sS'following'
p131
F0.0011942834493643168
sS'embrace'
p132
F0.0072424968913954195
sS'root'
p133
F0.0025776684946149917
sS'scripting'
p134
F0.0015822078143047967
sS'dedicated'
p135
F0.0019639454094147837
sS'challenging'
p136
F0.0016779844716082494
sS'e.g.'
p137
F0.0012218717198954029
sS'providers'
p138
F0.0041832057695278058
sS'process'
p139
F0.0026713229339517803
sS'awesome'
p140
F0.0060338810344988001
sS'high'
p141
F0.0041062690764388388
sS'effectively'
p142
F0.00237061937804033
sS'want'
p143
F0.0028140408344829245
sS'keep'
p144
F0.0060290371581766403
sS'huge'
p145
F0.0026535668111843679
sS'goal'
p146
F0.0012991257948084317
sS'provide'
p147
F0.00060111925853270133
sS'r d'
p148
F0.00030620038170371162
sS'discussion'
p149
F0.0025633737103116692
sS'mid-tier'
p150
F0.0047000926818587373
sS'feature'
p151
F0.003390922159802225
sS'traders'
p152
F0.004621524216385643
sS'pure'
p153
F0.0040335637996320095
sS'ensure'
p154
F0.0023108794221766418
sS'gaming'
p155
F0.0066736864063743273
sS'fostered'
p156
F0.004621524216385643
sS'intended'
p157
F0.0031811741734098717
sS'attend'
p158
F0.0030083196231809007
sS'information'
p159
F0.00046868499835439072
sS'may'
p160
F0.001141993219656116
sS'near-'
p161
F0.0055193403089406181
sS'communicator'
p162
F0.0029271855252697254
sS'data'
p163
F0.0011522942320047942
sS'lifecycle'
p164
F0.0022362704460850854
sVphysic
p165
F0.0016998950015073566
sS'a'
F0.0020603609598408069
sS'paas'
p166
F0.0037778270956741367
sS'short'
p167
F0.0024297826029048642
sS'effective'
p168
F0.0015332168107961178
sS'amid'
p169
F0.0055193403089406181
sS'greatest'
p170
F0.0029271855252697254
sS'appreciate'
p171
F0.0035338222711243971
sS'supervision'
p172
F0.0024417137967850475
sS'vms.'
p173
F0.004621524216385643
sS'rather'
p174
F0.0097118053031319731
sS'maintain'
p175
F0.0013446514339777451
sS'sm'
p176
F0.0034517940250917739
sS'talk'
p177
F0.0024377154823254608
sS'fixes/enhancements'
p178
F0.0047000926818587373
sS'no.'
p179
F0.0039686786616201265
sS'serving'
p180
F0.0074487669925072161
sS'feedback'
p181
F0.0021447322020084702
sS'office'
p182
F0.0011010563280956151
sS"don't"
p183
F0.0075661905977781156
sS'essence'
p184
F0.0041832057695278058
sS'over'
p185
F0.0031920605238686256
sVinsight
p186
F0.0007763320503169634
sS'mission'
p187
F0.0011957896356966234
sS'characteristic'
p188
F0.0032692919965918821
sS'left-and-right'
p189
F0.004621524216385643
sS'course'
p190
F0.0021447322020084702
sS'interpersonal'
p191
F0.0018397059280410063
sS'including'
p192
F0.00089093308256517421
sS'innovative'
p193
F0.00093085765838552968
sS'mentioned'
p194
F0.0076045574267926495
sS'developer'
p195
F0.0029219358991802329
sS'perfect'
p196
F0.0027561900145514546
sS'interesting'
p197
F0.0025044133235854801
sS'winning'
p198
F0.0032143219379160747
sS'platform'
p199
F0.00083807903100254605
sS'coordinated'
p200
F0.0047000926818587373
sS'might'
p201
F0.0027321333043325469
sS'good'
p202
F0.0012913727176912836
sS'love---explore'
p203
F0.004621524216385643
sS'seeking'
p204
F0.0011816022739691181
sS'practice'
p205
F0.001070489204516291
sS'framework'
p206
F0.0043005189061258295
sS'strategic'
p207
F0.0049000042972040143
sS'term'
p208
F0.0020232781331719989
sS'workload'
p209
F0.003129005962128954
sS'technology.'
p210
F0.0026589122892049402
sS'always'
p211
F0.0023655576252245318
sS'appropriate'
p212
F0.0014130495573330545
sS"technology'"
p213
F0.0047000926818587373
sS'capability'
p214
F0.0012328824231179615
sS'sciences/engineering'
p215
F0.0055193403089406181
sS'remove/mitigate/resolve'
p216
F0.0055193403089406181
sS'mean'
p217
F0.0022641784061742105
sS'development'
p218
F0.0031039447387466658
sS'financial'
p219
F0.0013474180030459966
sS'team---if'
p220
F0.004621524216385643
sS'energy'
p221
F0.0081299358646514438
sS'idea'
p222
F0.0036703042648045447
sS'related'
p223
F0.00053521830598126784
sS'balanced'
p224
F0.0037778270956741367
sS'enterprise software'
p225
F0.0034674936565168295
sS'connect'
p226
F0.0022769253260570186
sS'efficiency.'
p227
F0.0042258293417737972
sS'year'
p228
F0.00042462557538775202
sS'our'
p229
F0.00084369818343833628
sS'operation'
p230
F0.0034238765534988706
sS'beyond'
p231
F0.0022035210083504848
sS'living'
p232
F0.0033779014931300398
sS'driving'
p233
F0.0017962916295672167
sS'space'
p234
F0.0021079664207068007
sS'open'
p235
F0.0049367736440446841
sS'interference'
p236
F0.0048875006023389534
sS'research'
p237
F0.00071100551467782294
sS'looking'
p238
F0.00087734889064892138
sS'adapt'
p239
F0.00241416563046514
sS'world-class'
p240
F0.0021235017422739678
sS'objectivity'
p241
F0.004485565118788875
sS'sensor'
p242
F0.0053948873470481898
sS'math'
p243
F0.0017568651795390579
sS'workflow'
p244
F0.004528356812348421
sS'data scientist'
p245
F0.00013800693107142548
sS'standard'
p246
F0.0012896607076876673
sS'capture'
p247
F0.0022898939531373714
sS'reason'
p248
F0.0033639626940580284
sS'imagine'
p249
F0.0035166788596645167
sS'certified'
p250
F0.0027623274460822113
sS'additional'
p251
F0.0013785478178256572
sS'revolutionary'
p252
F0.0031598669657049859
sS"'who"
p253
F0.0047000926818587373
sS'owners'
p254
F0.01575294942332623
sS'organic'
p255
F0.007213263715605254
sS'created'
p256
F0.005653302632275428
sS'days'
p257
F0.0075556541913482734
sS'teaching/coaching'
p258
F0.0055193403089406181
sS'removing'
p259
F0.0043191647154037236
sS'hence'
p260
F0.0095758495429835982
sS'retail'
p261
F0.0021261227256150726
sS'facilitate'
p262
F0.0022302080156704571
sS'sprint.'
p263
F0.0055193403089406181
sS'first'
p264
F0.0047314838419998768
sS'geographically'
p265
F0.003666320222680923
sS'coding'
p266
F0.0019597326386065618
sS'one'
p267
F0.00128099374529457
sS'self-driven'
p268
F0.0035513690973385317
sS'embraced'
p269
F0.0051384117356007807
sS'directly'
p270
F0.001758466987964679
sS'owner'
p271
F0.0085897160922183222
sS'message'
p272
F0.0032031081616979585
sS'self-motivation.'
p273
F0.004621524216385643
sS'quality'
p274
F0.0031105516153825171
sS'engineer'
p275
F0.0035153023253863924
sS"you're"
p276
F0.0039577608527822028
sS'management'
p277
F0.00063514840351172673
sS'product/technology'
p278
F0.0045504504085213922
sS'service'
p279
F0.00063408330151845508
sS'start'
p280
F0.0022737181087190508
sS'leading'
p281
F0.0030593094220145566
sS'top'
p282
F0.00276095382612311
sS'system'
p283
F0.0025052749310932442
sS'remotely'
p284
F0.0035513690973385317
sS'priority'
p285
F0.0019745826651473451
sS'acquired'
p286
F0.0037541518571528208
sS'master'
p287
F0.016609828340265354
sS'iaas'
p288
F0.0039686786616201265
sS'agility'
p289
F0.0031189964044284128
sS'relationship'
p290
F0.002642190151512448
sS'business problem'
p291
F0.0013785478178256572
sS'tool'
p292
F0.0022232036112823884
sS'continuous'
p293
F0.002102859086663438
sS'innovate'
p294
F0.0049240668556004554
sS'work.'
p295
F0.0045863433246545425
sS'part'
p296
F0.00095556674695469084
sS'believe'
p297
F0.0045504096729196229
sS'embrace.'
p298
F0.004621524216385643
sS'project'
p299
F0.0023360263321323773
sS'matter'
p300
F0.0015379735544446243
sS'future'
p301
F0.001040514068925283
sS'architect'
p302
F0.0014850219292662104
sS"company's"
p303
F0.0022547592141093373
sS'toward'
p304
F0.0024914445447958514
sS'outstanding'
p305
F0.0021447322020084702
sS'experience.'
p306
F0.0019897344760192157
sS'turned'
p307
F0.0039382373558315576
sS'self-motivated'
p308
F0.002383879954440509
sS'comfortable'
p309
F0.0018081950053349042
sS'say'
p310
F0.0032031081616979585
sS"'above-and-beyond'"
p311
F0.0047000926818587373
sS'need'
p312
F0.0022393541934523117
sS'viewed'
p313
F0.0039089901450220605
sS'issue'
p314
F0.0012603199870040859
sS'built'
p315
F0.0020141845766373776
sS"'clock-puncher'"
p316
F0.0047000926818587373
sS'user experience'
p317
F0.002097786498721982
sS'fashion.'
p318
F0.0043706133865661044
sS'able'
p319
F0.0011377968645517106
sS'snow'
p320
F0.004621524216385643
sS'incentive'
p321
F0.0033236445651238229
sS'majority'
p322
F0.0069035880501835479
sS'internal'
p323
F0.0032383918435491561
sS'build'
p324
F0.0013770654404408468
sS'off-shore'
p325
F0.0037541518571528208
sS'online'
p326
F0.0017504921394042741
sS'objective'
p327
F0.0017163821124597425
sS'solve'
p328
F0.0023310104279880678
sS'encouraged'
p329
F0.002309779878853438
sS'conducive'
p330
F0.0047879247714917991
sS'multiple'
p331
F0.0034937011766834067
sS'collaboration'
p332
F0.0054044912235822274
sS"technologists'"
p333
F0.0047000926818587373
sS'aws'
p334
F0.0035592197045459799
sS'business.'
p335
F0.0021919599548504958
sS'paid'
p336
F0.0019493036865150398
sS'manager/scrum'
p337
F0.0055193403089406181
sS'artifact'
p338
F0.0034065859628649407
sS'position'
p339
F0.0011620541651089073
sS'possible'
p340
F0.0020348032942530182
sS'extremely'
p341
F0.002708828509634486
sS'the'
p342
F0.0016694752513659913
sS'delivery'
p343
F0.023509543897819059
sS'bounced'
p344
F0.004621524216385643
sS'observation'
p345
F0.0035166788596645167
sS'bug'
p346
F0.003626001942027873
sS'sql server'
p347
F0.0024377154823254608
sS'mobile'
p348
F0.001669397431013059
sS"'job"
p349
F0.0047000926818587373
sS'proud'
p350
F0.0019349439605656433
sS'request'
p351
F0.001813355208557876
sS'drive'
p352
F0.0015690715129576664
sS"you'll"
p353
F0.0014674515337706605
sS'tech'
p354
F0.0019070284655129464
sS'senior'
p355
F0.0010344181506886012
sS'physics'
p356
F0.0022516457406107581
sS'prioritizing'
p357
F0.0031391517105256884
sS'friction'
p358
F0.0050024524862828214
sS'bring'
p359
F0.0037735739674280011
sS'planning'
p360
F0.0031873779689521146
sS'solutions'
p361
F0.0013219874581645958
sS'qa---both'
p362
F0.0055193403089406181
sS'find'
p363
F0.0030593381299467352
sS'geography'
p364
F0.0033779014931300398
sS'impact'
p365
F0.0021836388437473458
sS'based'
p366
F0.0018138831050373905
sS'knowledge'
p367
F0.00273771805749559
sS'big data'
p368
F0.0016429428092319751
sS'critical thinking'
p369
F0.0025220635325927054
sS'explain'
p370
F0.0022006138965179156
sS'distributed'
p371
F0.0034664841482024934
sS'delivery.'
p372
F0.0035513690973385317
sS'team.'
p373
F0.0018064828436499102
sS'going'
p374
F0.0031811741734098717
sS'swiss-watch'
p375
F0.0055193403089406181
sS'employee'
p376
F0.0030689144694509875
sS'enthusiasm'
p377
F0.0031811741734098717
sS'internal/external'
p378
F0.0034835309434400868
sS'local'
p379
F0.0016158702052093256
sS'achieve'
p380
F0.00154757907149626
sS'demonstrated'
p381
F0.0033413342260313547
sS'do'
p382
F0.0014928411414042008
sS'get'
p383
F0.0031745774819753165
sS'designing'
p384
F0.0014839115637774248
sS'overall'
p385
F0.0034602962635356576
sS'satisfied'
p386
F0.0041832057695278058
sS'geek'
p387
F0.003827559360837117
sS'closely'
p388
F0.0011980546370137654
sS'distraction'
p389
F0.0048875006023389534
sS'brain'
p390
F0.0037778270956741367
sS'undergrad'
p391
F0.0043706133865661044
sS'teams'
p392
F0.0042894644040169403
sS'qa'
p393
F0.0026535668111843679
sS'accountability'
p394
F0.0026697195974796548
sS'activity'
p395
F0.002900571457238898
sS'analytical'
p396
F0.00080255234180545167
sS'management technology'
p397
F0.0027873951544964476
sS'vision'
p398
F0.0014232077636383081
sS'differences/benefits/challenges'
p399
F0.0055193403089406181
sS'human'
p400
F0.0018397059280410063
sS'physically'
p401
F0.0039686786616201265
sS'keyboard'
p402
F0.004000415731687963
sS'bi-weekly'
p403
F0.0043191647154037236
sS'culture'
p404
F0.0068687340363776687
sS'see'
p405
F0.0057987448869077293
sS'individual'
p406
F0.0037918379869359897
sS'result'
p407
F0.002415677507058003
sS'scrum-of-scrums'
p408
F0.0055193403089406181
sS'skill'
p409
F0.0014231630237724526
sV(2, 5]
p410
F0.00058533463985746732
sS'subject'
p411
F0.0014397544129530261
sS'serf'
p412
F0.0024377154823254608
sS'hackathons'
p413
F0.0038022787133963247
sS'projects.'
p414
F0.0023441490605850528
sS'expert'
p415
F0.0009783024901259096
sS'tackling'
p416
F0.0030897494970560176
sS"master's"
p417
F0.0015030164456231831
sS'please'
p418
F0.0022101006281443391
sS'continually'
p419
F0.0027203898665539832
sS'written'
p420
F0.0019122262095146339
sS'various'
p421
F0.0044822479008440512
sS'hopefully'
p422
F0.0043706133865661044
sS'collaborative'
p423
F0.0014861339510079123
sS'progress'
p424
F0.0024829223308357388
sS'operations.'
p425
F0.0032031081616979585
sS'numerous'
p426
F0.0031391517105256884
sS'across'
p427
F0.0064516347306051471
sS'conferencing'
p428
F0.0045504504085213922
sS'we'
p429
F0.0059656913232536742
sS"way'."
p430
F0.0047000926818587373
sS'ability'
p431
F0.0018330654898679923
sS'ph.d.'
p432
F0.0020255689576251261
sS'sold'
p433
F0.0039686786616201265
sS'handful'
p434
F0.0048875006023389534
sS'deliver'
p435
F0.00094958309784856328
sS'however'
p436
F0.0089491178375286709
sS'dual-home'
p437
F0.004621524216385643
sS'efficiency'
p438
F0.0018726076006394614
sS'succeed'
p439
F0.0022737181087190508
sS'key'
p440
F0.0035609805855671421
sS'come'
p441
F0.005275400963894037
sS'autonomous'
p442
F0.0035513690973385317
sS'improve'
p443
F0.0040139957316205508
sS'patented'
p444
F0.0039686786616201265
sS'protect'
p445
F0.0028970522482234386
sS'enables'
p446
F0.0026273995460488228
sS'improved'
p447
F0.0027561900145514546
sS'talented'
p448
F0.0035137303590781158
sS'career'
p449
F0.0033739864515483762
sS'many'
p450
F0.0068837704086814585
sS'invited'
p451
F0.0043191647154037236
sS'annual'
p452
F0.0022705246274790313
sS"'support"
p453
F0.0047000926818587373
sS'etc'
p454
F0.0020859329298214806
sS'tactical'
p455
F0.0025265421460217165
sS'grooming'
p456
F0.004000415731687963
sS'etl'
p457
F0.0019703095347817388
sS'detailed'
p458
F0.0021079664207068007
sS'relevant'
p459
F0.0021094536494094961
sS'wall'
p460
F0.0038537272328383479
sS'applicationscould'
p461
F0.0055193403089406181
sS'community'
p462
F0.0013960920651945822
sS'60'
p463
F0.0028199634216346738
sS'simply'
p464
F0.003109119429563129
sS'learning'
p465
F0.0011662294063679638
sS'throughout'
p466
F0.0018220357140093129
sS'conference'
p467
F0.0022801463981638789
sS'there.'
p468
F0.004485565118788875
sS"aren't"
p469
F0.003606631857802627
sS'hard-products'
p470
F0.004621524216385643
sS'create'
p471
F0.00089325316639819892
sS'.'
F0.0012521447536477928
sS'much'
p472
F0.0027937960047853469
sS'seasoned'
p473
F0.013294578260495292
sS'interest'
p474
F0.0032185550660420743
sS'long-term.'
p475
F0.0055193403089406181
sS'collaborator'
p476
F0.0033639626940580284
sS'flexible'
p477
F0.0017504921394042741
sS'meeting'
p478
F0.0020560084428803442
sS'board'
p479
F0.0030256622445483791
sS'field'
p480
F0.00069504965206860538
sS'direction'
p481
F0.0016442142429017119
sS'enable'
p482
F0.0015573099654023542
sS'champion'
p483
F0.0027623274460822113
sS'retrospective'
p484
F0.0092430484327712861
sS'sufficient'
p485
F0.0069035880501835479
sS'great'
p486
F0.0014304017749093227
sS'ecosystem'
p487
F0.0020778343573363265
sS'environment.'
p488
F0.0020778343573363265
sS'understand'
p489
F0.0020000249687935961
sS'external'
p490
F0.0026174252171874191
sS'stand-ups'
p491
F0.0092430484327712861
sS'evidence'
p492
F0.0033502796700374069
sS'present'
p493
F0.0015075837682925306
sS'f2f'
p494
F0.0045504504085213922
sS'look'
p495
F0.0021474290230545806
sS'developing'
p496
F0.00081783054893791582
sS'these'
p497
F0.004221066533798684
sS'messaging/pub-sub'
p498
F0.0047000926818587373
sS'empirical'
p499
F0.006123213061798357
sS'value'
p500
F0.0016185082937263597
sS'entrepreneurial'
p501
F0.0021610614075438096
sS'optimization'
p502
F0.0043067495778557228
sS'applies'
p503
F0.0021919599548504958
sS'fun'
p504
F0.002080299372018072
sS'balance'
p505
F0.0046262927583107473
sS'mpp/big'
p506
F0.0047000926818587373
sS'engineers'
p507
F0.0023199253238249231
sS'layer'
p508
F0.0030708700033399614
sS'30'
p509
F0.0024457336664224492
sS'rock-climbing'
p510
F0.004621524216385643
sS'ip'
p511
F0.0034364181237152313
sS'metric'
p512
F0.0052898794967503543
sS'it'
p513
F0.0029467634232292093
sS'encouragement'
p514
F0.0038537272328383479
sS'hardware'
p515
F0.0023988690413300233
sS'player'
p516
F0.0019308914705590643
sS'excessively'
p517
F0.0055193403089406181
sS'experts'
p518
F0.0021948334566162919
sS'in'
p519
F0.0019884754713127089
sS'technology'
p520
F0.0043579794834928938
sS'diagnostic'
p521
F0.0032609435211798576
sS'if'
p522
F0.0012003265417127268
sS'participating'
p523
F0.0029271855252697254
sS'uptime'
p524
F0.0040335637996320095
sS'pas'
p525
F0.002813334977217744
sS'develop'
p526
F0.0010215372822614044
sS'disparate'
p527
F0.002309779878853438
sS'tools/etc'
p528
F0.004621524216385643
sS'make'
p529
F0.0024919564034634962
sS'intrinsic'
p530
F0.0047000926818587373
sS'member'
p531
F0.0029467634232292093
sS'another'
p532
F0.0025728730532444269
sS'intermediary'
p533
F0.0053048124424282198
sS'interests/agreements'
p534
F0.0055193403089406181
sS'week'
p535
F0.0022152641427091698
sS'evolve'
p536
F0.002738075113576076
sS'used'
p537
F0.0014221856915240855
sS'practitioner'
p538
F0.012724696693639487
sS'bonus'
p539
F0.0022641784061742105
sS'reporting'
p540
F0.0014471106835831661
sS'phd'
p541
F0.0012562211631014701
sS'data.'
p542
F0.0017489073550098009
sS'user'
p543
F0.0011384946185340574
sS'changing'
p544
F0.0018858053284563131
sS'opportunity'
p545
F0.00036364592027795031
sS'expand'
p546
F0.005244549016281113
sS'cycle'
p547
F0.0042470034845479357
sS'reflection'
p548
F0.0042258293417737972
sS'band'
p549
F0.002882430276203139
sS'minimize'
p550
F0.0034517940250917739
sS'variety'
p551
F0.0026086793524076756
sS'well'
p552
F0.0049370479472717766
sS'analysis'
p553
F0.00037383296049610149
sS'client'
p554
F0.00078627442092479253
sS'impediment'
p555
F0.0088517529009405314
sS'bot'
p556
F0.004000415731687963
sS'savvy'
p557
F0.0033502796700374069
sS'organization'
p558
F0.001598005076383443
sS'model'
p559
F0.00054933226854524098
sS'reward'
p560
F0.0050530842920434331
sS'usual'
p561
F0.0047000926818587373
sS'project.'
p562
F0.0031811741734098717
sS'being'
p563
F0.003297928107884172
sS'hybrid'
p564
F0.0032730690375225315
sS'data-oriented'
p565
F0.0041832057695278058
sS'product'
p566
F0.0068315068421269977
sS'software/data-based'
p567
F0.004621524216385643
sS'identify'
p568
F0.00092769429713559137
sS'aspect'
p569
F0.0036651750207087768
sS'day-to-day'
p570
F0.0048053277412086004
sS'flavor'
p571
F0.0043706133865661044
sS'yet'
p572
F0.0030256622445483791
sS'captured'
p573
F0.007332640445361846
sS'kanban.'
p574
F0.0055193403089406181
sS'acumen'
p575
F0.0023131463791553736
sS'possible.'
p576
F0.0020852539848637006
sS"we've"
p577
F0.0029349130298042085
sS'help'
p578
F0.0012131399234099536
sS'capabilities'
p579
F0.0029913711935259852
sS'improvement'
p580
F0.010152000100336143
sS'agile/scrum'
p581
F0.0040335637996320095
sS'spread'
p582
F0.004485565118788875
sS'attractive'
p583
F0.0037312052089728811
sS'standards/work'
p584
F0.004621524216385643
sS'role'
p585
F0.0040293132055985378
sS'transformation'
p586
F0.0018081950053349042
sS'real'
p587
F0.0015847439492448164
sS'around'
p588
F0.001201085384646779
sS'ops'
p589
F0.003626001942027873
sS'evaluate'
p590
F0.0015320323519949293
sS'injection'
p591
F0.0048875006023389534
sS'masters'
p592
F0.001327364303182772
sS'possibly'
p593
F0.0042258293417737972
sS'know'
p594
F0.0073803587983644232
sS'factory.'
p595
F0.0051384117356007807
sS'necessary'
p596
F0.0018707411377193609
sS'vague'
p597
F0.0040335637996320095
sS'ethic.'
p598
F0.004068254189025732
sS'like'
p599
F0.0011633368488578447
sS'success'
p600
F0.0012794704036912963
sS'identifying'
p601
F0.0015041556557248562
sS'manual'
p602
F0.0033779014931300398
sS"'stealth'"
p603
F0.0058217004168074852
sS'continue'
p604
F0.0018064828436499102
sS'either'
p605
F0.002105408380699302
sS'micro-management.'
p606
F0.004621524216385643
sS'initiative'
p607
F0.0014794865661665352
sS'computer-science'
p608
F0.0051384117356007807
sS'passionate'
p609
F0.0043893686553965628
sS'soft'
p610
F0.0034364181237152313
sS'essential'
p611
F0.001744173113875623
sS'right'
p612
F0.0015214560625846994
sS'often'
p613
F0.0028680895192912089
sS'verbal'
p614
F0.0026764715134176696
sS'people'
p615
F0.0015569643588125353
sS'combination'
p616
F0.0016539068830866976
sS'some'
p617
F0.0022833814452551094
sS'back'
p618
F0.0022801463981638789
sS'scrum'
p619
F0.057246629120405464
sS'pace/diligence'
p620
F0.0055193403089406181
sS'growth'
p621
F0.0012803142952732877
sVMaster
p622
F0.00071931228851894555
sS'home'
p623
F0.0023267664642995615
sS'sprint'
p624
F0.016553377414524974
sS'cycles.'
p625
F0.010276823471201561
sS'technologist'
p626
F0.012746739089959149
sS'sling'
p627
F0.0055193403089406181
sS'benefit'
p628
F0.0011294743696654667
sS'/'
F0.0034259796589683482
sS'competitions'
p629
F0.0039089901450220605
sS'critical'
p630
F0.0058181610676700784
sS'passion'
p631
F0.004288109396680893
sS'innovation'
p632
F0.0018617153167710594
sS'over-used'
p633
F0.004621524216385643
sS'restoring'
p634
F0.0042710377074399557
sS'core'
p635
F0.0038409428858198632
sS'noise'
p636
F0.0037312052089728811
sS'business'
p637
F0.00058748044570946546
sS'business-critical'
p638
F0.003827559360837117
sS'equivalent'
p639
F0.0011742423080404023
sS'inspect'
p640
F0.0047879247714917991
sS'communicate'
p641
F0.00092088606494714986
sS'comp-sci'
p642
F0.004621524216385643
sS'24-hour'
p643
F0.0045504504085213922
sS'self-organization'
p644
F0.0050024524862828214
sS'tooling.'
p645
F0.0053048124424282198
sS'leadership'
p646
F0.0011364033130277199
sS'become'
p647
F0.0021693621010754368
sS'assemble'
p648
F0.003827559360837117
sS'exciting'
p649
F0.0020441534325605156
sS'optimize'
p650
F0.003344497605596736
sS'would'
p651
F0.0085367198840642627
sS'purist'
p652
F0.0055193403089406181
sS'shield'
p653
F0.0050024524862828214
sS'seniority/maturity'
p654
F0.0055193403089406181
sS'plus'
p655
F0.0010839921711948712
sS'solidify'
p656
F0.0053048124424282198
sS'azure'
p657
F0.0055002053725996545
sS'os'
p658
F0.0034364181237152313
sS'software'
p659
F0.0096397058542334289
sS'integration'
p660
F0.0014366238117161363
sS'explore/interact'
p661
F0.004621524216385643
sS'agile'
p662
F0.0056928310545532324
sS'previously'
p663
F0.0031494374067796314
sS'communication'
p664
F0.0017540109465875137
sS'within'
p665
F0.00077977524103976098
sS'commitment'
p666
F0.0039926471346875851
sS'strategy.'
p667
F0.0026751825629076371
sS'contributor'
p668
F0.0048674769862402968
sS'your'
p669
F0.0013960920651945822
sS'geographies.'
p670
F0.004485565118788875
sS'i'
F0.0050441270651854107
sS'area'
p671
F0.00089375568555702498
sS'hands-on'
p672
F0.0016373672751157134
sS'support'
p673
F0.0051868507829837887
sS'continuous improvement'
p674
F0.0025087868627358574
sS'systems.'
p675
F0.0023406399721529803
sS'overtime'
p676
F0.0031811741734098717
sVBachelor
p677
F0.00025350870045648372
sS'camera'
p678
F0.0038537272328383479
sS'way'
p679
F0.0043075547586633395
sS'suit'
p680
F0.004621524216385643
sS'exceptional'
p681
F0.0033331138455570219
sS'welding'
p682
F0.004621524216385643
sS'happy'
p683
F0.0029271855252697254
sS'function'
p684
F0.0028900029490583484
sS'real-time'
p685
F0.0021948334566162919
sS'complete'
p686
F0.0020052005910028169
sS'offering'
p687
F0.0042108167613986039
sS'offer'
p688
F0.0029416746008031859
sS'forming'
p689
F0.0039089901450220605
sS'basic'
p690
F0.0013113487342918922
sS'sophisticated'
p691
F0.0023441490605850528
sS'volume'
p692
F0.0021079664207068007
sS'technologies'
p693
F0.0019228519762790374
sS'promote'
p694
F0.0045346895303684052
sS'analyst'
p695
F0.0012281436214160077
sS'also'
p696
F0.0070082097592749203
sS'whether'
p697
F0.0023512171717367399
sS'wish'
p698
F0.004621524216385643
sS'genscape.'
p699
F0.0092430484327712861
sS'smooth'
p700
F0.0044258764504702657
sS'us'
p701
F0.0012257854699246748
sS'data management'
p702
F0.0017426016903853881
sS"genscape's"
p703
F0.014100278045576214
sS'demonstrate'
p704
F0.0038537217753016645
sS'distribution'
p705
F0.0025000652871506606
sS'expect'
p706
F0.0081264855289034585
sS'diagnose'
p707
F0.0075556541913482734
sS'co-located'
p708
F0.0045504504085213922
sS'methods/operations/techniques'
p709
F0.0055193403089406181
sS'contribute'
p710
F0.0017043554499513698
sS'life'
p711
F0.0032872922637490008
sS'deep'
p712
F0.0037105637033762579
sS'an'
p713
F0.0042262179602286188
sS'globally'
p714
F0.0026121289114587149
sS'engineering'
p715
F0.0015543827152585366
sS'hobbies'
p716
F0.004621524216385643
sS'plan'
p717
F0.0011626154599445641
sS'as'
p718
F0.0038222669878187634
sS'stack.'
p719
F0.0034674936565168295
sS'ideally'
p720
F0.0025493478179918296
sS'contest'
p721
F0.0043191647154037236
sS'composing'
p722
F0.004621524216385643
sS'detail'
p723
F0.0016145469987045586
sS"'are"
p724
F0.0047000926818587373
sS'application'
p725
F0.00076440464798459263
sS'5'
F0.0013595265507634689
sS'4+'
p726
F0.0028333997367683567
sS'cultures.'
p727
F0.004485565118788875
sS'you'
p728
F0.0079370933842796837
sS'developers'
p729
F0.0028970522482234386
sS'continuously'
p730
F0.0023913368347041491
sS'dynamic/distributed'
p731
F0.004621524216385643
sS'separate'
p732
F0.0041428873371547699
sS'java/c'
p733
F0.0043706133865661044
sS'technology management'
p734
F0.0043706133865661044
sS'center'
p735
F0.0018432907861207545
sS'problems'
p736
F0.0020164475895009075
sS'cranking'
p737
F0.004621524216385643
sS'meaning'
p738
F0.0027145867815513173
sS'and/or'
p739
F0.0038838079005495932
sS'nucleus'
p740
F0.0055193403089406181
sS'sql'
p741
F0.00070434815551731196
sS'kanban---or'
p742
F0.0055193403089406181
sS'empowers'
p743
F0.0033236445651238229
sS'pool'
p744
F0.0039382373558315576
sS'exposure'
p745
F0.0021777562428959658
sS'building'
p746
F0.00083714661107980686
sS'land'
p747
F0.0037541518571528208
sS'remote'
p748
F0.0024957424577452419
sS'consumer'
p749
F0.0014130495573330545
sS'rule'
p750
F0.0024538390096995092
sS'software---not'
p751
F0.004621524216385643
sS'portion'
p752
F0.0038022787133963247
sS'summit'
p753
F0.0042258293417737972
sS'u'
F0.0019667749448265435
sS"function'"
p754
F0.0047000926818587373
sS'time'
p755
F0.0008297289551685101
sS'push'
p756
F0.0018973066332060847
sS'requires'
p757
F0.0016837646081142527
sS'indirectly'
p758
F0.0047000926818587373
sS'once'
p759
F0.0037778270956741367
s.