(dp1
S'code'
p2
F0.0021210000000000001
sS'micro-management'
p3
F0.0064489999999999999
sS'global'
p4
F0.0053810000000000004
sS'dynamic'
p5
F0.002366
sS'focus'
p6
F0.002055
sS'month'
p7
F0.0041399999999999996
sS'country'
p8
F0.0033419999999999999
sS'strong verbal'
p9
F0.0044539999999999996
sS'concept'
p10
F0.0060850000000000001
sS'go'
p11
F0.0031640000000000001
sS'follow'
p12
F0.003954
sS'spread across multiple geography'
p13
F0.0077019999999999996
sS'mpp big data'
p14
F0.0065589999999999997
sS'technique'
p15
F0.0014109999999999999
sS'strong collaborator'
p16
F0.0060270000000000002
sS'foster'
p17
F0.0035509999999999999
sS'hence improve'
p18
F0.0077019999999999996
sS'suite'
p19
F0.0036740000000000002
sS'collaborate'
p20
F0.0017730000000000001
sS'attractive incentive'
p21
F0.0064489999999999999
sS'software engineers forming'
p22
F0.0064489999999999999
sS'based vms'
p23
F0.0064489999999999999
sS'relevant experience'
p24
F0.006182
sS'achieve swiss-watch level'
p25
F0.0077019999999999996
sS'various message distribution'
p26
F0.0071700000000000002
sS'micromanage'
p27
F0.0064489999999999999
sS'difference'
p28
F0.002575
sS'entire'
p29
F0.003764
sS'evolved'
p30
F0.0062589999999999998
sS'bring'
p31
F0.0037200000000000002
sS'solution'
p32
F0.00296
sS'leave'
p33
F0.0047739999999999996
sS'adjust'
p34
F0.0054149999999999997
sS'high throughput consistent'
p35
F0.0064489999999999999
sS'team'
p36
F0.011136999999999999
sS'communication removing impediment'
p37
F0.0077019999999999996
sS'planning grooming stand-ups retrospective etc'
p38
F0.0077019999999999996
sS'enjoy'
p39
F0.030318999999999999
sS'bug fix enhancement'
p40
F0.0065589999999999997
sS'intrinsic meaning'
p41
F0.0077019999999999996
sS'folk enjoy'
p42
F0.0064489999999999999
sS'pulse'
p43
F0.0069810000000000002
sS'operation tooling'
p44
F0.0077019999999999996
sS'thinker'
p45
F0.0044539999999999996
sS'design'
p46
F0.000861
sS'value'
p47
F0.0035569999999999998
sS'culture fostered'
p48
F0.0064489999999999999
sS'clock'
p49
F0.0063499999999999997
sS'video conferencing'
p50
F0.0064489999999999999
sS'pure technologist'
p51
F0.0077019999999999996
sS'across many'
p52
F0.010991000000000001
sS'real-time wall street trader'
p53
F0.0065589999999999997
sS'direct reflection'
p54
F0.0064489999999999999
sS'physically co-located'
p55
F0.0064489999999999999
sS'designing'
p56
F0.0025040000000000001
sS'technology'
p57
F0.0083059999999999991
sS'method'
p58
F0.0014549999999999999
sS'supporting'
p59
F0.0073020000000000003
sS'bring winning team'
p60
F0.0064489999999999999
sS'manage business-critical 24-hour operational'
p61
F0.0064489999999999999
sS'leveraging'
p62
F0.002637
sS'commercial'
p63
F0.0028990000000000001
sS'problem amid noise'
p64
F0.0077019999999999996
sS'understanding'
p65
F0.0013370000000000001
sS'explore'
p66
F0.0029030000000000002
sS'focused'
p67
F0.0068719999999999996
sS'others'
p68
F0.0021129999999999999
sS'strong'
p69
F0.0031670000000000001
sS'change'
p70
F0.0018959999999999999
sS'software development'
p71
F0.0075839999999999996
sS'agile scrum'
p72
F0.0049309999999999996
sS"'protect'"
p73
F0.0081239999999999993
sS'technical'
p74
F0.00098900000000000008
sS'allows'
p75
F0.0043119999999999999
sS'experience'
p76
F0.001944
sS'mentor'
p77
F0.002843
sS"don't like"
p78
F0.0060270000000000002
sS"you'll get"
p79
F0.0051450000000000003
sS'external customer'
p80
F0.0041399999999999996
sS'love'
p81
F0.0083300000000000006
sS'detailed knowledge'
p82
F0.0060990000000000003
sS"we've embraced"
p83
F0.0081239999999999993
sS'punching'
p84
F0.0064489999999999999
sS'apply'
p85
F0.0014610000000000001
sS'financial trader'
p86
F0.0064489999999999999
sS'market'
p87
F0.0019580000000000001
sS'first 60 days'
p88
F0.0064489999999999999
sS'use'
p89
F0.0011249999999999999
sS'honing'
p90
F0.0066810000000000003
sS'working'
p91
F0.0033860000000000001
sS'product owner'
p92
F0.016008999999999999
sS'captured via patented sensor technology'
p93
F0.0064489999999999999
sS'live'
p94
F0.0033960000000000001
sS'awesome team---if'
p95
F0.0064489999999999999
sS'well served'
p96
F0.0077019999999999996
sS'theoretical'
p97
F0.0047540000000000004
sS'today'
p98
F0.0032520000000000001
sS"genscape's product offering"
p99
F0.0065589999999999997
sS'qa practitioner'
p100
F0.0064489999999999999
sS'successful'
p101
F0.002598
sS'company'
p102
F0.0021220000000000002
sS'training'
p103
F0.0020709999999999999
sS'created within genscape'
p104
F0.0064489999999999999
sS'niche provider'
p105
F0.0064489999999999999
sS'excellent'
p106
F0.0064380000000000001
sS'effort'
p107
F0.0020890000000000001
sS'must'
p108
F0.0043559999999999996
sS'customer'
p109
F0.00090899999999999998
sS'join'
p110
F0.001554
sS'qa---both local'
p111
F0.0077019999999999996
sS'4+ year'
p112
F0.0079649999999999999
sS'challenge'
p113
F0.0019610000000000001
sS'work'
p114
F0.0025370000000000002
sS'dev'
p115
F0.00596
sS'transparency'
p116
F0.0047739999999999996
sS'learn'
p117
F0.0019819999999999998
sS'following'
p118
F0.0018890000000000001
sS'technology applicationscould'
p119
F0.0077019999999999996
sS'dedicated'
p120
F0.0029889999999999999
sS'challenging'
p121
F0.0028930000000000002
sS'give'
p122
F0.007221
sS'process'
p123
F0.0052659999999999998
sS"aren't satisfied"
p124
F0.0081239999999999993
sS'high'
p125
F0.0026289999999999998
sS'effectively'
p126
F0.0043880000000000004
sS'want'
p127
F0.0020249999999999999
sS'engineering math physics'
p128
F0.0064489999999999999
sS'information'
p129
F0.0012019999999999999
sS"genscape's growth"
p130
F0.0065589999999999997
sS'minimal supervision'
p131
F0.0040949999999999997
sS'please pas'
p132
F0.0064489999999999999
sS'provide'
p133
F0.0010579999999999999
sS'innovation competitions'
p134
F0.0064489999999999999
sS'discussion'
p135
F0.0037959999999999999
sS'feature'
p136
F0.005372
sS'sharing observation'
p137
F0.0077019999999999996
sS'plus'
p138
F0.0015969999999999999
sS'across multiple'
p139
F0.003385
sS'overall project'
p140
F0.0062589999999999998
sS'technologist data scientist'
p141
F0.0058370000000000002
sS'product'
p142
F0.0039290000000000002
sS'intended'
p143
F0.0046020000000000002
sS'may'
p144
F0.002042
sS'near-'
p145
F0.0077019999999999996
sS"another 'job"
p146
F0.0065589999999999997
sS'communicator'
p147
F0.0049309999999999996
sS'data'
p148
F0.00050799999999999999
sS'huge bonus'
p149
F0.0064489999999999999
sS'work closely'
p150
F0.0021099999999999999
sS'exceptional contributor'
p151
F0.012898
sS'also savvy'
p152
F0.0077019999999999996
sS'appreciate'
p153
F0.005006
sS'multiple os scripting'
p154
F0.0068199999999999997
sS'rather'
p155
F0.010232
sS'maintain'
p156
F0.001926
sS'embrace continual improvement'
p157
F0.0077019999999999996
sS'talk'
p158
F0.0035969999999999999
sS'serving'
p159
F0.011805
sS'feedback'
p160
F0.0035969999999999999
sS'office'
p161
F0.0020149999999999999
sS'experience working'
p162
F0.003885
sS'essence'
p163
F0.0058370000000000002
sS'insight'
p164
F0.001382
sS'mission'
p165
F0.0018730000000000001
sS'course'
p166
F0.0032659999999999998
sS'including'
p167
F0.00088000000000000003
sS'innovative'
p168
F0.0017769999999999999
sS'mentioned'
p169
F0.0060270000000000002
sS'fast-paced entrepreneurial environment'
p170
F0.0056769999999999998
sS'left-and-right brain balanced'
p171
F0.0064489999999999999
sS'developer'
p172
F0.0047190000000000001
sS'various flavor'
p173
F0.0064489999999999999
sS'new data management'
p174
F0.0061760000000000001
sS'platform'
p175
F0.0014300000000000001
sS'coaching'
p176
F0.0038379999999999998
sS'scrum team'
p177
F0.025878000000000002
sS'coordinated'
p178
F0.0071700000000000002
sS'talent pool'
p179
F0.0061760000000000001
sS'autonomous environment'
p180
F0.0063499999999999997
sS'expedient accelerated delivery'
p181
F0.0077019999999999996
sS'good'
p182
F0.0022620000000000001
sS'flexible work hour'
p183
F0.0062589999999999998
sS'seeking'
p184
F0.001874
sS'pace diligence'
p185
F0.0077019999999999996
sS'practice'
p186
F0.0020709999999999999
sS'framework'
p187
F0.0061609999999999998
sS'larger goal'
p188
F0.0060270000000000002
sS'one'
p189
F0.0012019999999999999
sS'nucleus'
p190
F0.0077019999999999996
sS'masters'
p191
F0.0029129999999999998
sS'5 comp-sci program'
p192
F0.0065589999999999997
sS"'support function'"
p193
F0.0065589999999999997
sS'remove mitigate resolve impediment'
p194
F0.0077019999999999996
sS'always'
p195
F0.0039630000000000004
sS'software development factory'
p196
F0.0077019999999999996
sS"technology'"
p197
F0.0065589999999999997
sS'product developers product owners'
p198
F0.0077019999999999996
sS'master data management'
p199
F0.0052389999999999997
sS'business rule intensive system'
p200
F0.0077019999999999996
sS'self-motivation'
p201
F0.0057279999999999996
sS'30 days'
p202
F0.0064489999999999999
sS'mean'
p203
F0.0033470000000000001
sS'software data-based product'
p204
F0.0064489999999999999
sS'directly'
p205
F0.0030270000000000002
sS'coding'
p206
F0.003039
sS'eg'
p207
F0.0020630000000000002
sS'idea'
p208
F0.0046350000000000002
sS'organic development'
p209
F0.0074019999999999997
sS'connect'
p210
F0.0038119999999999999
sS'sprint planning'
p211
F0.00596
sS'operation'
p212
F0.0076730000000000001
sS'beyond'
p213
F0.0033159999999999999
sS'project manager'
p214
F0.0039259999999999998
sS'living'
p215
F0.0054149999999999997
sS'driving'
p216
F0.002552
sS'space'
p217
F0.0029169999999999999
sS'open'
p218
F0.0084799999999999997
sS'empirical data'
p219
F0.0066810000000000003
sS'looking'
p220
F0.0014109999999999999
sS'happy team'
p221
F0.0064489999999999999
sS'adapt'
p222
F0.0035639999999999999
sS'excellence'
p223
F0.0074159999999999998
sS'objectivity'
p224
F0.0057279999999999996
sS'issue'
p225
F0.0018400000000000001
sS'architecture'
p226
F0.0020149999999999999
sS'remote employee'
p227
F0.0060270000000000002
sS'workflow'
p228
F0.0066119999999999998
sS'soft skill'
p229
F0.0062589999999999998
sS'standard'
p230
F0.0038180000000000002
sS'imagine'
p231
F0.0051450000000000003
sS'certified'
p232
F0.0047949999999999998
sS"'who"
p233
F0.0065589999999999997
sS'life balance'
p234
F0.005006
sS'written communication skill'
p235
F0.002709
sS'created'
p236
F0.004424
sS'enjoy working'
p237
F0.004117
sS'keep'
p238
F0.0096139999999999993
sS'previously mentioned many'
p239
F0.0064489999999999999
sS'retail'
p240
F0.0032049999999999999
sS'facilitate'
p241
F0.0031510000000000002
sS'interact'
p242
F0.00282
sS'first'
p243
F0.0049389999999999998
sS'latest greatest development'
p244
F0.0064489999999999999
sS'technical acumen'
p245
F0.0056290000000000003
sS'strategic'
p246
F0.0055230000000000001
sS'self-driven'
p247
F0.0052069999999999998
sS'sufficient seniority maturity'
p248
F0.0077019999999999996
sS'app-dev software'
p249
F0.0077019999999999996
sS'accountability'
p250
F0.0039350000000000001
sS'quality'
p251
F0.0052209999999999999
sS'engineer'
p252
F0.0070850000000000002
sS"you're"
p253
F0.0064279999999999997
sS'management'
p254
F0.0023530000000000001
sS'overtime'
p255
F0.0049069999999999999
sS'leading'
p256
F0.0044730000000000004
sS'top'
p257
F0.0049800000000000001
sS'system'
p258
F0.0028700000000000002
sS"revolutionary sensor ip genscape's offering"
p259
F0.0065589999999999997
sS'subject matter experts smes'
p260
F0.0063499999999999997
sS'agility'
p261
F0.0050330000000000001
sS'relationship'
p262
F0.0021710000000000002
sS'tool'
p263
F0.0045069999999999997
sS'innovate'
p264
F0.0035130000000000001
sS'part'
p265
F0.001423
sS'team member'
p266
F0.0041599999999999996
sS'believe'
p267
F0.0043090000000000003
sS"simply 'are"
p268
F0.0065589999999999997
sS'culture'
p269
F0.010647999999999999
sS'science engineering'
p270
F0.0057809999999999997
sS'serf'
p271
F0.0040119999999999999
sS'internal external'
p272
F0.0055820000000000002
sS'future'
p273
F0.001585
sS'architect'
p274
F0.0026259999999999999
sS'enables'
p275
F0.0042220000000000001
sS'outstanding'
p276
F0.003725
sS'upcoming year'
p277
F0.0064489999999999999
sS'comfortable'
p278
F0.0028990000000000001
sS'say'
p279
F0.0046750000000000003
sS'across geographically disparate'
p280
F0.0077019999999999996
sS'need'
p281
F0.0033579999999999999
sS'viewed'
p282
F0.0056769999999999998
sS'composing music rock-climbing leading'
p283
F0.0064489999999999999
sS'built'
p284
F0.0032759999999999998
sS"'clock-puncher'"
p285
F0.0065589999999999997
sS'user experience'
p286
F0.0063369999999999998
sS'able'
p287
F0.0016100000000000001
sS'majority'
p288
F0.0098619999999999992
sS'high energy'
p289
F0.005496
sS'build'
p290
F0.003045
sS"enjoy going 'above-and-beyond'"
p291
F0.0065589999999999997
sS'online'
p292
F0.0027230000000000002
sS'collaboration'
p293
F0.0081910000000000004
sS"technologists'"
p294
F0.0065589999999999997
sS'aws'
p295
F0.002856
sS'paid'
p296
F0.0039919999999999999
sS"company's greatest asset"
p297
F0.0065589999999999997
sS'plan'
p298
F0.0019789999999999999
sS'organization'
p299
F0.001168
sS'bi-weekly sprint'
p300
F0.0064489999999999999
sS'hands-on'
p301
F0.0029099999999999998
sS'sql server'
p302
F0.0041279999999999997
sS'proud'
p303
F0.0027889999999999998
sS'drive'
p304
F0.0013359999999999999
sS'doe'
p305
F0.0035899999999999999
sS'love data'
p306
F0.0053410000000000003
sS'enterprise'
p307
F0.001928
sS'verbal communication skill'
p308
F0.0033110000000000001
sS'senior'
p309
F0.0021229999999999999
sS'consumer'
p310
F0.0021770000000000001
sS'data lifecycle management'
p311
F0.0064489999999999999
sS'team player'
p312
F0.0031819999999999999
sS'awesome technology'
p313
F0.0064489999999999999
sS'friction'
p314
F0.0074019999999999997
sS'product owners'
p315
F0.013117
sS'find'
p316
F0.0049760000000000004
sS'geography'
p317
F0.0046940000000000003
sS'impact'
p318
F0.00365
sS'knowledge'
p319
F0.0047829999999999999
sS'explain'
p320
F0.0034299999999999999
sS"don't"
p321
F0.0045009999999999998
sS'distributed'
p322
F0.005718
sS'operational'
p323
F0.002235
sS'solidify vague request'
p324
F0.0077019999999999996
sS'empirical evidence'
p325
F0.0074019999999999997
sS'excellent written'
p326
F0.0032420000000000001
sS'employee'
p327
F0.0037299999999999998
sS'enthusiasm'
p328
F0.0047140000000000003
sS'also work'
p329
F0.004117
sS'iaas service'
p330
F0.0064489999999999999
sS'get'
p331
F0.0023540000000000002
sS"don't believe"
p332
F0.00596
sS'overall'
p333
F0.002552
sS'geek'
p334
F0.0065589999999999997
sS'remarkably passionate'
p335
F0.0064489999999999999
sS'msc'
p336
F0.0056290000000000003
sS'internal contest'
p337
F0.0064489999999999999
sS'distraction'
p338
F0.0077019999999999996
sS'portion'
p339
F0.00596
sS'manager'
p340
F0.002065
sS'expect demand'
p341
F0.0064489999999999999
sS'activity'
p342
F0.0043119999999999999
sS'analytical'
p343
F0.001418
sS'vision'
p344
F0.0022659999999999998
sS'aspect'
p345
F0.0052900000000000004
sS'hard-products business rather'
p346
F0.0064489999999999999
sS'globe'
p347
F0.0025400000000000002
sS'enjoying continual improvement'
p348
F0.0077019999999999996
sS'see'
p349
F0.0083199999999999993
sS'individual'
p350
F0.00662
sS'result'
p351
F0.004032
sS'software dev'
p352
F0.0064489999999999999
sS'scrum-of-scrums'
p353
F0.0077019999999999996
sS'encouraged'
p354
F0.0032810000000000001
sS'project'
p355
F0.0033700000000000002
sS'expert'
p356
F0.0019759999999999999
sS'conduct research'
p357
F0.0050330000000000001
sS'interesting hobby'
p358
F0.0064489999999999999
sS'please'
p359
F0.0031250000000000002
sS'various'
p360
F0.0035969999999999999
sS'teaching'
p361
F0.0047949999999999998
sS'progress'
p362
F0.0037030000000000001
sS'across'
p363
F0.0046519999999999999
sS'extremely talented'
p364
F0.0063499999999999997
sS'ability'
p365
F0.0029550000000000002
sS'software dev team'
p366
F0.0077019999999999996
sS'deliver'
p367
F0.0014189999999999999
sS'sold'
p368
F0.0056290000000000003
sS'handful'
p369
F0.0068199999999999997
sS'genscape'
p370
F0.019347
sS'however'
p371
F0.0097219999999999997
sS'dual-home'
p372
F0.0064489999999999999
sS'efficiency'
p373
F0.0061419999999999999
sS'succeed'
p374
F0.0039259999999999998
sS'key'
p375
F0.0050029999999999996
sS'come'
p376
F0.0077929999999999996
sS'improve'
p377
F0.001567
sS'protect'
p378
F0.004352
sS'improved'
p379
F0.0042719999999999998
sS'talented'
p380
F0.003055
sS'career'
p381
F0.0065760000000000002
sS'many'
p382
F0.0026050000000000001
sS'annual'
p383
F0.003872
sS'participating'
p384
F0.004352
sS'etc'
p385
F0.002996
sS'highly collaborative team environment'
p386
F0.0062589999999999998
sS'acquired product'
p387
F0.0064489999999999999
sS'tactical'
p388
F0.0039439999999999996
sS'long-term'
p389
F0.0038809999999999999
sS"way'"
p390
F0.0065589999999999997
sS'embrace scrum'
p391
F0.012898
sS'effective'
p392
F0.0023059999999999999
sS'initiative'
p393
F0.0019689999999999998
sS'learning'
p394
F0.0022889999999999998
sS'technologist'
p395
F0.010893
sS'related field'
p396
F0.0017329999999999999
sS'scrum master'
p397
F0.034366000000000001
sS'keyboard cranking code'
p398
F0.0064489999999999999
sS'create'
p399
F0.0013979999999999999
sS'globally distributed'
p400
F0.005496
sS'strategy'
p401
F0.0014679999999999999
sS'much'
p402
F0.0041980000000000003
sS'seasoned'
p403
F0.022513999999999999
sS'interest'
p404
F0.0079430000000000004
sS'basic'
p405
F0.003104
sS'high volume'
p406
F0.0045849999999999997
sS'meeting'
p407
F0.003075
sS'direction'
p408
F0.0024489999999999998
sS'enable'
p409
F0.0023519999999999999
sS'based paas'
p410
F0.0064489999999999999
sS'champion'
p411
F0.0040429999999999997
sS'retrospective'
p412
F0.0074019999999999997
sS'wish'
p413
F0.0064489999999999999
sS"undergrad master's"
p414
F0.0074019999999999997
sS'present'
p415
F0.002382
sS'look'
p416
F0.0033159999999999999
sS'day-to-day operation'
p417
F0.0058370000000000002
sS'developing'
p418
F0.001408
sS'real business problem'
p419
F0.0050600000000000003
sS'optimization'
p420
F0.0064989999999999996
sS'applies'
p421
F0.0033739999999999998
sS'fun'
p422
F0.0030869999999999999
sS'ideally suit'
p423
F0.0077019999999999996
sS'balance'
p424
F0.0037030000000000001
sS'guide'
p425
F0.0029380000000000001
sS'layer'
p426
F0.0052069999999999998
sS'would'
p427
F0.011332
sS'metric'
p428
F0.0078239999999999994
sS'others attend stand-ups remotely via'
p429
F0.0064489999999999999
sS'encouragement'
p430
F0.0054549999999999998
sS'hardware'
p431
F0.0035130000000000001
sS'embrace'
p432
F0.0038809999999999999
sS'environment conducive'
p433
F0.0077019999999999996
sS'diagnostic'
p434
F0.0050879999999999996
sS'continually improve'
p435
F0.0055820000000000002
sS'capture'
p436
F0.0040850000000000001
sS'uptime'
p437
F0.0062589999999999998
sS'develop'
p438
F0.0016230000000000001
sS'java c'
p439
F0.0048170000000000001
sS'working relationship'
p440
F0.003973
sS'make'
p441
F0.0039550000000000002
sS'big'
p442
F0.0060390000000000001
sS'band restoring snow cat welding artwork'
p443
F0.0064489999999999999
sS'intermediary'
p444
F0.0077019999999999996
sS'development'
p445
F0.0013960000000000001
sS'evolve'
p446
F0.0038549999999999999
sS'used'
p447
F0.0021849999999999999
sS'practitioner'
p448
F0.014722000000000001
sS'great opportunity'
p449
F0.00462
sS'reporting'
p450
F0.0021410000000000001
sS'want folk'
p451
F0.0064489999999999999
sS'phd'
p452
F0.0033409999999999998
sS'changing'
p453
F0.003418
sS'stack'
p454
F0.0036240000000000001
sS'expand'
p455
F0.007528
sS'cycle'
p456
F0.016514000000000001
sS'center'
p457
F0.002758
sS'minimize'
p458
F0.0060270000000000002
sS'love---explore innovate'
p459
F0.0064489999999999999
sS'well'
p460
F0.006149
sS'analysis'
p461
F0.00085300000000000003
sS'client'
p462
F0.00133
sS'solve'
p463
F0.0041260000000000003
sS'position'
p464
F0.0020460000000000001
sS'model'
p465
F0.001036
sS'reward'
p466
F0.0043949999999999996
sS'scrum artifact visible'
p467
F0.0077019999999999996
sS'sql azure aws rds'
p468
F0.0064489999999999999
sS'tech summit'
p469
F0.0064489999999999999
sS'detail'
p470
F0.0023930000000000002
sS'identify'
p471
F0.001433
sS'human'
p472
F0.0034589999999999998
sS'day-to-day'
p473
F0.0041859999999999996
sS'yet'
p474
F0.0047540000000000004
sS'captured'
p475
F0.0060270000000000002
sS'excellent interpersonal skill'
p476
F0.005006
sS'also'
p477
F0.0086189999999999999
sS'agile'
p478
F0.011082
sS'help'
p479
F0.0020660000000000001
sS'tackling organic development'
p480
F0.0064489999999999999
sS'internal'
p481
F0.0033349999999999999
sS'board'
p482
F0.005006
sS'love data mid-tier'
p483
F0.0071700000000000002
sS'transformation'
p484
F0.003075
sS'kanban'
p485
F0.0063499999999999997
sS'evaluate'
p486
F0.002395
sS'injection'
p487
F0.0077019999999999996
sS'possible'
p488
F0.0060860000000000003
sS'know'
p489
F0.0104
sS'world-class'
p490
F0.003604
sS'necessary'
p491
F0.002862
sS'success'
p492
F0.001846
sS'identifying'
p493
F0.0027829999999999999
sS'external interference'
p494
F0.0077019999999999996
sS'manual'
p495
F0.0050600000000000003
sS"'stealth'"
p496
F0.0081239999999999993
sS'continue'
p497
F0.0025279999999999999
sS'either'
p498
F0.0033210000000000002
sS'drive toward excellence'
p499
F0.0064489999999999999
sS'computer-science'
p500
F0.0071700000000000002
sS'passionate'
p501
F0.0042459999999999998
sS'essential'
p502
F0.0035639999999999999
sS'etl messaging pub-sub system'
p503
F0.0065589999999999997
sS'right'
p504
F0.0025040000000000001
sS'delivery throughput'
p505
F0.0064489999999999999
sS'people'
p506
F0.0026930000000000001
sS'understand'
p507
F0.0029650000000000002
sS'new technology prioritizing product'
p508
F0.0064489999999999999
sS'back'
p509
F0.0040119999999999999
sS'numerous perk including conference f2f training'
p510
F0.0064489999999999999
sS'hopefully invited team meeting'
p511
F0.0064489999999999999
sS'home'
p512
F0.0033530000000000001
sS'sprint'
p513
F0.021819000000000002
sS'capability'
p514
F0.001812
sS'throughout'
p515
F0.0027320000000000001
sS'benefit'
p516
F0.0043429999999999996
sS'critical'
p517
F0.0090639999999999991
sS'passion'
p518
F0.0060850000000000001
sS'cloud'
p519
F0.0091090000000000008
sS'innovation'
p520
F0.001624
sS'critical thinking skill'
p521
F0.0044539999999999996
sS'scrum master possibly dev'
p522
F0.0077019999999999996
sS'demonstrated'
p523
F0.0064180000000000001
sS'core'
p524
F0.0064989999999999996
sS'business'
p525
F0.00071500000000000003
sS'data owners'
p526
F0.0074019999999999997
sS'inspect'
p527
F0.0077019999999999996
sS'communicate'
p528
F0.0020309999999999998
sS'agreement'
p529
F0.0046379999999999998
sS'leadership'
p530
F0.001776
sS'mobile camera bot'
p531
F0.0064489999999999999
sS'assemble'
p532
F0.0057279999999999996
sS'exciting'
p533
F0.0033319999999999999
sS'optimize'
p534
F0.0051640000000000002
sS'way hence'
p535
F0.0077019999999999996
sS'continuously improve'
p536
F0.0052719999999999998
sS'purist'
p537
F0.0077019999999999996
sS'shield'
p538
F0.0077019999999999996
sS'development fashion'
p539
F0.0064489999999999999
sS'ensure'
p540
F0.00349
sS'azure'
p541
F0.0046560000000000004
sS'improvement'
p542
F0.0096659999999999992
sS'software'
p543
F0.0095580000000000005
sS'integration'
p544
F0.0023140000000000001
sS'data movement replication capability'
p545
F0.0071700000000000002
sS'manage multiple priority'
p546
F0.0056769999999999998
sS'explore new idea'
p547
F0.0060270000000000002
sS'commitment'
p548
F0.0059189999999999998
sS'appropriate'
p549
F0.0021540000000000001
sS'would expect'
p550
F0.0065589999999999997
sS'often over-used term'
p551
F0.0064489999999999999
sS'additional'
p552
F0.0028270000000000001
sS'team environment'
p553
F0.0033579999999999999
sS'support'
p554
F0.008548
sS'continuous improvement'
p555
F0.0078519999999999996
sS'start'
p556
F0.0035260000000000001
sS'product manager'
p557
F0.0027729999999999999
sS'way'
p558
F0.0047109999999999999
sS'off-shore strategic'
p559
F0.0064489999999999999
sS'energy'
p560
F0.0099179999999999997
sS'function'
p561
F0.0043839999999999999
sS'complete'
p562
F0.0031210000000000001
sS'offer'
p563
F0.0050220000000000004
sS'one reason'
p564
F0.0064489999999999999
sS'self-motivated team member'
p565
F0.0064489999999999999
sS'sophisticated'
p566
F0.003725
sS'delivery'
p567
F0.035043999999999999
sS'line'
p568
F0.0033419999999999999
sS'promote'
p569
F0.006953
sS'analyst'
p570
F0.002117
sS'week'
p571
F0.003604
sS'technology hackathons'
p572
F0.0064489999999999999
sS'gaming go figure'
p573
F0.0064489999999999999
sS'data genscape'
p574
F0.0065589999999999997
sS'whether'
p575
F0.0038119999999999999
sS'characteristic'
p576
F0.0080040000000000007
sS'smooth'
p577
F0.0077019999999999996
sS'work ethic'
p578
F0.0045009999999999998
sS'organizationally separate'
p579
F0.0077019999999999996
sS'reward excellence'
p580
F0.0063499999999999997
sS'demonstrate'
p581
F0.0055529999999999998
sS'expect'
p582
F0.0089709999999999998
sS'diagnose'
p583
F0.0062589999999999998
sS'usual key'
p584
F0.0077019999999999996
sS'sufficient data-oriented objective'
p585
F0.0077019999999999996
sS'contribute'
p586
F0.0024359999999999998
sS'life'
p587
F0.003441
sS'deep'
p588
F0.0078549999999999991
sS'perfect combination'
p589
F0.0063499999999999997
sS'engineering'
p590
F0.001405
sS'root cause'
p591
F0.0045170000000000002
sS'role might'
p592
F0.0064489999999999999
sS'variety'
p593
F0.0041229999999999999
sS'hybrid'
p594
F0.0049560000000000003
sS'become excessively short'
p595
F0.0077019999999999996
sS'application'
p596
F0.0011360000000000001
sS'role'
p597
F0.005411
sS'diagnose area'
p598
F0.0077019999999999996
sS'ecosystem'
p599
F0.003666
sS'sling'
p600
F0.0077019999999999996
sS'scrum'
p601
F0.034178
sS'equivalent experience'
p602
F0.0029239999999999999
sS'carefulness essential'
p603
F0.0064489999999999999
sS'bounced around'
p604
F0.0064489999999999999
sS'kanban---or'
p605
F0.0077019999999999996
sS'empowers'
p606
F0.0057279999999999996
sS'cto organization'
p607
F0.0071700000000000002
sS'exposure'
p608
F0.0031679999999999998
sS'building'
p609
F0.001356
sS'land'
p610
F0.0061760000000000001
sS'ops turned sm'
p611
F0.0077019999999999996
sS'team self-organization'
p612
F0.0077019999999999996
sS'software---not'
p613
F0.0064489999999999999
sS'distributing workload across'
p614
F0.0064489999999999999
sS'u'
F0.0072690000000000003
sS'time'
p615
F0.0015790000000000001
sS'push'
p616
F0.002686
sS'community gaming however'
p617
F0.0064489999999999999
sS'requires'
p618
F0.0032330000000000002
sS'indirectly'
p619
F0.0077019999999999996
s.