(dp1
S'code'
p2
F0.014881
sS'help'
p3
F0.0072459999999999998
sS"won't"
p4
F0.045236999999999999
sS'corner'
p5
F0.046005999999999998
sS'20'
p6
F0.028004999999999999
sS'big data'
p7
F0.022731999999999999
sS'stuck working'
p8
F0.062044000000000002
sS'interesting'
p9
F0.029616
sS'small team'
p10
F0.029363
sS'platform'
p11
F0.010031
sS'location'
p12
F0.01469
sS'stock option'
p13
F0.031801999999999997
sS"curoverse you'll work"
p14
F0.062044000000000002
sS'build'
p15
F0.0071190000000000003
sS'data-driven'
p16
F0.020483999999999999
sS'someone'
p17
F0.022131999999999999
sS'handle'
p18
F0.026627999999999999
sS'finance'
p19
F0.038406000000000003
sS'big'
p20
F0.021180000000000001
sS'relocate'
p21
F0.037218000000000001
sS'success'
p22
F0.012949
sS'benefit'
p23
F0.015231
sS'team'
p24
F0.0027899999999999999
sS'sustainable'
p25
F0.032927999999999999
sS'wide range'
p26
F0.020435999999999999
sS'energy'
p27
F0.023189999999999999
sS'hard'
p28
F0.031919000000000003
sS'analytics'
p29
F0.0066950000000000004
sS'system administrator'
p30
F0.042277000000000002
sS'support bioinformaticians data scientist'
p31
F0.062044000000000002
sS'investor-backed startup'
p32
F0.062044000000000002
sS'managing'
p33
F0.016410999999999999
sS'massive datasets'
p34
F0.037987
sS'passion'
p35
F0.014227
sS'medicine'
p36
F0.149862
sS'new'
p37
F0.006875
sS'email'
p38
F0.021455999999999999
sS"you'd expect"
p39
F0.062044000000000002
sS'offer competitive salary'
p40
F0.042277000000000002
sS'distributed computing'
p41
F0.024909000000000001
sS'ba'
p42
F0.032661999999999997
sS'business'
p43
F0.010029
sS'agplv3 except sdks'
p44
F0.062044000000000002
sS'free'
p45
F0.056009000000000003
sS'focused'
p46
F0.016067000000000001
sS'address'
p47
F0.017533
sS'apache'
p48
F0.033637
sS'based'
p49
F0.010817
sS'training'
p50
F0.014525
sS'great work'
p51
F0.054024999999999997
sS'technical'
p52
F0.013880999999999999
sS'industry'
p53
F0.0083049999999999999
sS'thing'
p54
F0.021655000000000001
sS'remote employee'
p55
F0.042277000000000002
sS'software'
p56
F0.022348
sS'communication'
p57
F0.015195999999999999
sS"we're looking"
p58
F0.024999
sS'community'
p59
F0.013188999999999999
sS'analyzing'
p60
F0.020147999999999999
sS'problem solving skill'
p61
F0.019848999999999999
sS'open'
p62
F0.019827000000000001
sS'genomics'
p63
F0.036521999999999999
sS'open source'
p64
F0.019120999999999999
sS'boston area'
p65
F0.046865999999999998
sS'support'
p66
F0.01499
sS'question'
p67
F0.016313000000000001
sS'least'
p68
F0.025870000000000001
sS'cutting edge'
p69
F0.021455999999999999
sS"we're"
p70
F0.022100999999999999
sS'interest'
p71
F0.018571000000000001
sS'flexible'
p72
F0.021099
sS'life'
p73
F0.012068000000000001
sS'sharing'
p74
F0.027039000000000001
sS'behind arvados'
p75
F0.062044000000000002
sS'offer'
p76
F0.011742000000000001
sS'get started'
p77
F0.047840000000000001
sS'job description'
p78
F0.014768
sS'curoverse'
p79
F0.062044000000000002
sS'established company'
p80
F0.042277000000000002
sS'lifestyle'
p81
F0.039821000000000002
sS'ha'
p82
F0.013559999999999999
sS'customer'
p83
F0.025514999999999999
sS'trouble shoot problem'
p84
F0.062044000000000002
sS'science'
p85
F0.032681000000000002
sS'work'
p86
F0.010168
sS'project'
p87
F0.0059109999999999996
sS'matter'
p88
F0.024261999999999999
sS'compensation'
p89
F0.028882000000000001
sS'problem'
p90
F0.010101000000000001
sS'engineers'
p91
F0.028285000000000001
sS'dedicated'
p92
F0.020967
sS'modern'
p93
F0.022775
sS'engineering bioinformatics'
p94
F0.054024999999999997
sS'diverse'
p95
F0.014258
sS'chat'
p96
F0.043906000000000001
sS'need'
p97
F0.0078510000000000003
sS'prefer candidate'
p98
F0.056985000000000001
sS'health dental vision'
p99
F0.045236999999999999
sS'hard problem'
p100
F0.038261999999999997
sS'-'
F0.054608999999999998
sS'computer science'
p101
F0.011358999999999999
sS'answer'
p102
F0.020362999999999999
sS'exceptionally strong communication'
p103
F0.062044000000000002
sS'development'
p104
F0.0048970000000000003
sS'backbone'
p105
F0.041363999999999998
sS'user'
p106
F0.013724
sS'engineering team'
p107
F0.020659
sS'task'
p108
F0.01516
sS'proven ability'
p109
F0.023297999999999999
sS'software engineering'
p110
F0.020941000000000001
sS'solve'
p111
F0.014470999999999999
sS'time'
p112
F0.022152000000000002
sS'curoverse inc'
p113
F0.062044000000000002
s.