(dp1
S'related field'
p2
F0.014479000000000001
sS'computer science engineering'
p3
F0.031789999999999999
sS'statistical'
p4
F0.013292
sS'participate'
p5
F0.020211
sS'foreign equivalent'
p6
F0.044053000000000002
sS'completion'
p7
F0.027626999999999999
sS'group'
p8
F0.015436
sS'knowledge'
p9
F0.015987000000000001
sS'phd degree'
p10
F0.030228000000000001
sS'implementation'
p11
F0.014832
sS'infor us'
p12
F0.067886000000000002
sS'measuring result'
p13
F0.059917999999999999
sS'internal'
p14
F0.013934999999999999
sS'location'
p15
F0.017500000000000002
sS'identify trend'
p16
F0.038025000000000003
sS'release'
p17
F0.032282999999999999
sS'real world'
p18
F0.063995999999999997
sS'presentation'
p19
F0.016632000000000001
sS'transformation'
p20
F0.025694999999999999
sS'material'
p21
F0.028379999999999999
sS'background'
p22
F0.015941
sS'approach'
p23
F0.014285000000000001
sS'audience'
p24
F0.020809999999999999
sS'analytical'
p25
F0.011845
sS'pertains'
p26
F0.053891000000000001
sS'numerical analysis'
p27
F0.053891000000000001
sS'east greenwich ri 02818 infor us'
p28
F0.073913000000000006
sS'proposing'
p29
F0.052305999999999998
sS'testing'
p30
F0.016608000000000001
sS'idea'
p31
F0.019368
sS'translating'
p32
F0.036604999999999999
sS'job title data scientist'
p33
F0.037886000000000003
sS'design'
p34
F0.014387
sS'problem faced'
p35
F0.073913000000000006
sS'dissertation'
p36
F0.067886000000000002
sS'mathematics physics'
p37
F0.058333000000000003
sS'research'
p38
F0.010265
sS'3'
F0.024059000000000001
sS'progress'
p39
F0.030942999999999998
sS'issue'
p40
F0.015374000000000001
sS'refer'
p41
F0.044053000000000002
sS'creating'
p42
F0.035267
sS'delivering'
p43
F0.020192999999999999
sS'implementing'
p44
F0.021065
sS'job'
p45
F0.010352
sS'software development'
p46
F0.021125000000000001
sS'training'
p47
F0.017304
sS'technical'
p48
F0.0082679999999999993
sS'set expectation'
p49
F0.055830999999999999
sS'experience'
p50
F0.003248
sS'suitable combination'
p51
F0.067886000000000002
sS'software'
p52
F0.017749000000000001
sS'analyze data'
p53
F0.032960999999999997
sS'cambridge'
p54
F0.054807000000000002
sS'solving problem'
p55
F0.037221999999999998
sS'apply'
p56
F0.012212000000000001
sS'02142'
p57
F0.073913000000000006
sS'support'
p58
F0.005953
sS'system'
p59
F0.0079930000000000001
sS'mail resume referencing in27 including'
p60
F0.073913000000000006
sS'priority'
p61
F0.025104000000000001
sS'prototype'
p62
F0.022682000000000001
sS'duties'
p63
F0.027798
sS'relationship'
p64
F0.018145000000000001
sS'acceptable'
p65
F0.051610000000000003
sS'present'
p66
F0.019909
sS'customer'
p67
F0.0075989999999999999
sS'science'
p68
F0.038933000000000002
sS'work'
p69
F0.0030279999999999999
sS'project'
p70
F0.0070410000000000004
sS'operations research'
p71
F0.030284999999999999
sS'following'
p72
F0.015788
sS'problem'
p73
F0.024067999999999999
sS'history'
p74
F0.031323999999999998
sS'university-level course'
p75
F0.073913000000000006
sS'equal opportunity employer'
p76
F0.016291
sS'documenting'
p77
F0.036255000000000003
sS'education'
p78
F0.014212000000000001
sS'inc'
p79
F0.031927999999999998
sS'requirements'
p80
F0.015563
sS'varied'
p81
F0.037615000000000003
sS'using data'
p82
F0.034500000000000003
sS'complex'
p83
F0.013779
sS'inc attn cheryl sanocki 1351 south county trail'
p84
F0.073913000000000006
sS'test'
p85
F0.016924000000000002
sS'gathering requirement'
p86
F0.047863999999999997
sS'development'
p87
F0.011668
sS'product'
p88
F0.0065659999999999998
sS'communicating'
p89
F0.027052
sS'track'
p90
F0.028195999999999999
sS'1 broadway 14th floor'
p91
F0.073913000000000006
sS'mathematical model'
p92
F0.037748999999999998
sS'diagnose science-related bug'
p93
F0.073913000000000006
sS'involving'
p94
F0.037886000000000003
sS'project plan'
p95
F0.034882000000000003
sS'sql'
p96
F0.0096699999999999998
sS'building'
p97
F0.011329000000000001
sS'algorithm'
p98
F0.010805
sS'database'
p99
F0.012832
sS'well'
p100
F0.010277
sS'client'
p101
F0.011110999999999999
sS'solve'
p102
F0.017239000000000001
sS'coordinate'
p103
F0.026476
sS'organization'
p104
F0.0097619999999999998
sS'resolution'
p105
F0.031389
sS'internship thesis'
p106
F0.073913000000000006
s.