(dp1
S'sector'
p2
F0.0083440000000000007
sS''
F0.0046340000000000001
sS'code'
p3
F0.0046230000000000004
sS'next generation'
p4
F0.0065630000000000003
sS'help'
p5
F0.0067530000000000003
sS'in-depth understanding'
p6
F0.010643
sS'global'
p7
F0.011726
sS'defining developing'
p8
F0.012068000000000001
sS'existing'
p9
F0.0047280000000000004
sS'bring'
p10
F0.012158
sS'ge'
p11
F0.058853000000000003
sS'designing developing'
p12
F0.012265
sS'identify'
p13
F0.0031229999999999999
sS'using'
p14
F0.0050350000000000004
sS'go'
p15
F0.020684000000000001
sS'follow'
p16
F0.0086160000000000004
sS'skill'
p17
F0.0020929999999999998
sS'strong understanding'
p18
F0.0074619999999999999
sS'extreme programming'
p19
F0.016131
sS'professional development challenging career'
p20
F0.010229
sS'staff'
p21
F0.010862999999999999
sS'best practice'
p22
F0.0047280000000000004
sS'business perspective'
p23
F0.012481000000000001
sS'knowledge'
p24
F0.0020839999999999999
sS'big data'
p25
F0.0035309999999999999
sS'made without regard'
p26
F0.0093380000000000008
sS'technical expertise'
p27
F0.015765000000000001
sS'responsible'
p28
F0.0083770000000000008
sS'operational'
p29
F0.0048700000000000002
sS'environment'
p30
F0.0026250000000000002
sS'production'
p31
F0.0045059999999999996
sS'technical concept'
p32
F0.021186
sS'project management'
p33
F0.0053369999999999997
sS'equipped'
p34
F0.014291999999999999
sS'fuel'
p35
F0.030943999999999999
sS'relational database'
p36
F0.0056889999999999996
sS'achieve'
p37
F0.005372
sS'stem field'
p38
F0.012165
sS'data structure'
p39
F0.007306
sS'assignment'
p40
F0.0071390000000000004
sS'technical discussion participate'
p41
F0.012598
sS'randolph boston'
p42
F0.019273999999999999
sS'finance'
p43
F0.0059659999999999999
sS'downstream'
p44
F0.026917
sS'practice'
p45
F0.0045120000000000004
sS'customer focus'
p46
F0.0094249999999999994
sS'choice'
p47
F0.0080689999999999998
sS'finding'
p48
F0.0049670000000000001
sS'articulate'
p49
F0.0084189999999999994
sS'logistically difficult'
p50
F0.03125
sS'world'
p51
F0.017173000000000001
sS'cassandra riak couchbase etc'
p52
F0.016782999999999999
sS'hands-on experience'
p53
F0.021988000000000001
sS'net'
p54
F0.010315
sS'possess'
p55
F0.011212
sS'resource'
p56
F0.009724
sS'massachusetts'
p57
F0.013837
sS'level'
p58
F0.003346
sS'university'
p59
F0.0074869999999999997
sS'solution'
p60
F0.0048370000000000002
sS'scale ge delivers better outcome'
p61
F0.010593
sS'eligibility requirements'
p62
F0.010544
sS'fullstream company'
p63
F0.015625
sS'building powering moving'
p64
F0.017703
sS'ge oil gas'
p65
F0.062989000000000003
sS'drug screen'
p66
F0.0094540000000000006
sS'provide feedback'
p67
F0.010746
sS'120 country'
p68
F0.015625
sS'unit testing'
p69
F0.010147
sS'anticipate'
p70
F0.011278
sS'predictive'
p71
F0.00528
sS'code module'
p72
F0.012598
sS'quicker'
p73
F0.015212
sS'highly available'
p74
F0.011212
sS'agile development'
p75
F0.0080370000000000007
sS'people'
p76
F0.005868
sS'energy'
p77
F0.014409
sS'testing'
p78
F0.0043309999999999998
sS'software-defined machine'
p79
F0.010643
sS'scrum'
p80
F0.0093100000000000006
sS'system integration opc hart ff etc'
p81
F0.017703
sS'see'
p82
F0.0060439999999999999
sS'experienced'
p83
F0.0060439999999999999
sS'design'
p84
F0.015007
sS'legally authorized'
p85
F0.0093380000000000008
sS'environmentally sensitive'
p86
F0.03125
sS'home'
p87
F0.007306
sS'employment'
p88
F0.010904
sS'best'
p89
F0.011749000000000001
sS'closer'
p90
F0.015212
sS'employ'
p91
F0.0071170000000000001
sS'scale'
p92
F0.0051019999999999998
sS'sr architects data scientists businesses product managers'
p93
F0.01285
sS'expert'
p94
F0.0043059999999999999
sS'space'
p95
F0.0063559999999999997
sS'agile methodology'
p96
F0.0086999999999999994
sS'review'
p97
F0.0050460000000000001
sS'factory'
p98
F0.013457999999999999
sS'technical topic'
p99
F0.011416000000000001
sS'looking'
p100
F0.003075
sS'outside'
p101
F0.007365
sS'fast paced'
p102
F0.0094249999999999994
sS'health'
p103
F0.005457
sS'adapt'
p104
F0.0077660000000000003
sS'intersect'
p105
F0.017703
sS'innovation'
p106
F0.0035400000000000002
sS'distributed system'
p107
F0.0083260000000000001
sS'new'
p108
F0.0021359999999999999
sS'boundary'
p109
F0.019154000000000001
sS'leader'
p110
F0.0071590000000000004
sS'using apache commons suite maven sql'
p111
F0.014559000000000001
sS'core'
p112
F0.0047210000000000004
sS'infrastructure'
p113
F0.0046439999999999997
sS'transportation'
p114
F0.0094839999999999994
sS'ability'
p115
F0.0038630000000000001
sS'business'
p116
F0.0015579999999999999
sS'opening'
p117
F0.0083440000000000007
sS'oracle mysql postgresql etc'
p118
F0.014559000000000001
sS'commercial'
p119
F0.0063179999999999998
sS'scalability'
p120
F0.0096410000000000003
sS'standard'
p121
F0.0041599999999999996
sS'providing'
p122
F0.0039269999999999999
sS'big plus'
p123
F0.027762999999999999
sS'leadership'
p124
F0.0038700000000000002
sS'latest'
p125
F0.006195
sS'interface'
p126
F0.0063029999999999996
sS'decision'
p127
F0.0038960000000000002
sS'estimate'
p128
F0.008855
sS'strong'
p129
F0.0023
sS'come'
p130
F0.0056600000000000001
sS'provide initial estimate'
p131
F0.01285
sS'software development'
p132
F0.005509
sS'c'
F0.0083079999999999994
sS'engage'
p133
F0.0059979999999999999
sS'installation'
p134
F0.010966999999999999
sS'service'
p135
F0.0048430000000000001
sS'language'
p136
F0.0089110000000000005
sS'technical'
p137
F0.0064679999999999998
sS'engineering math'
p138
F0.014291999999999999
sS'industry'
p139
F0.0077400000000000004
sS'utilizing spring framework'
p140
F0.014559000000000001
sS'experience'
p141
F0.0029650000000000002
sS'thing'
p142
F0.013454000000000001
sS'bachelors degree'
p143
F0.0051469999999999997
sS'ensure'
p144
F0.003803
sS'19 billion'
p145
F0.015625
sS'greater'
p146
F0.0087869999999999997
sS'implement'
p147
F0.003209
sS'support'
p148
F0.0046569999999999997
sS'articulating specific'
p149
F0.012371
sS'software engineer'
p150
F0.012533000000000001
sS'external customer'
p151
F0.0090209999999999995
sS'industrial'
p152
F0.017399999999999999
sS'communication'
p153
F0.0047210000000000004
sS'skilled'
p154
F0.0082900000000000005
sS'coding'
p155
F0.013244000000000001
sS'requirement'
p156
F0.0028649999999999999
sS'ge oilandgas'
p157
F0.015625
sS'highly'
p158
F0.0051830000000000001
sS'united states'
p159
F0.012418
sS'nosql database'
p160
F0.016371
sS'accredited college'
p161
F0.010359
sS'build release deployment'
p162
F0.012598
sS'desired functionality using'
p163
F0.012598
sS'quality'
p164
F0.0037929999999999999
sS'successful completion'
p165
F0.0085950000000000002
sS'changing environment'
p166
F0.011639
sS'provide pre-sales post'
p167
F0.017703
sS'design patterns'
p168
F0.012265
sS'java'
p169
F0.0051419999999999999
sS'technology selected'
p170
F0.012598
sS'working'
p171
F0.0024589999999999998
sS'capable'
p172
F0.0076020000000000003
sS'curing'
p173
F0.017703
sS'create'
p174
F0.0030460000000000001
sS'constantly'
p175
F0.0089969999999999998
sS'next'
p176
F0.0075119999999999996
sS'equipment'
p177
F0.0099900000000000006
sS'brainstorming'
p178
F0.010694
sS'twitter'
p179
F0.010854000000000001
sS'today'
p180
F0.014171
sS'define'
p181
F0.0045909999999999996
sS'function'
p182
F0.004777
sS'domain knowledge'
p183
F0.0089969999999999998
sS'software'
p184
F0.013885
sS'connected responsive'
p185
F0.010593
sS'deeper'
p186
F0.023951
sS'offer'
p187
F0.0036480000000000002
sS'building scalable'
p188
F0.011975
sS'gas'
p189
F0.012598
sS'deeper helping'
p190
F0.015625
sS'great work environment'
p191
F0.0097059999999999994
sS'problem solving ability'
p192
F0.0096729999999999993
sS'competitive compensation ge'
p193
F0.010229
sS'show great'
p194
F0.012598
sS'part'
p195
F0.0031020000000000002
sS'technology solves customer'
p196
F0.012598
sS'push'
p197
F0.011705999999999999
sS'imagining'
p198
F0.014291999999999999
sS'scope'
p199
F0.0063410000000000003
sS'office located'
p200
F0.010229
sS'inventing'
p201
F0.013134
sS'delivers'
p202
F0.0080850000000000002
sS'ha'
p203
F0.0042129999999999997
sS'write code'
p204
F0.011801000000000001
sS'core mvc integration'
p205
F0.014559000000000001
sS'customer'
p206
F0.0079260000000000008
sS'valued'
p207
F0.0076559999999999996
sS'estimate time'
p208
F0.012481000000000001
sS'science'
p209
F0.0050759999999999998
sS'challenge'
p210
F0.021361999999999999
sS'work'
p211
F0.0055279999999999999
sS'assessing application'
p212
F0.01272
sS'us'
p213
F0.0038249999999999998
sS'project'
p214
F0.001836
sS'matter'
p215
F0.0075370000000000003
sS'background investigation'
p216
F0.0089250000000000006
sS'future'
p217
F0.010359999999999999
sS'exploration'
p218
F0.0096410000000000003
sS'speaking'
p219
F0.0096410000000000003
sS'2876543'
p220
F0.019273999999999999
sS'applies'
p221
F0.0073530000000000002
sS'characteristic protected'
p222
F0.0059150000000000001
sS'meet'
p223
F0.0043
sS'problem'
p224
F0.0062760000000000003
sS'race color religion national'
p225
F0.010187999999999999
sS'continuous integration'
p226
F0.0087869999999999997
sS'hotter'
p227
F0.03125
sS'faster simpler'
p228
F0.015625
sS'willingness'
p229
F0.014171
sS'process'
p230
F0.0022950000000000002
sS'conditioned upon'
p231
F0.010229
sS'02368-3902'
p232
F0.017703
sS'drive'
p233
F0.0029120000000000001
sS'equal opportunity employer'
p234
F0.004248
sS'engineering'
p235
F0.0030620000000000001
sS'minimum'
p236
F0.0042360000000000002
sS'expertise'
p237
F0.0030509999999999999
sS'together'
p238
F0.0062300000000000003
sS'field'
p239
F0.0044889999999999999
sS'need'
p240
F0.0048780000000000004
sS'data modeling'
p241
F0.0067010000000000004
sS'help u'
p242
F0.0067910000000000002
sS'seek'
p243
F0.006953
sS'industrial era'
p244
F0.015625
sS'productive'
p245
F0.0098440000000000003
sS'present'
p246
F0.0051919999999999996
sS'digital industrial company transforming industry'
p247
F0.010593
sS'etc'
p248
F0.0032650000000000001
sS'oil gas'
p249
F0.011488
sS'technology'
p250
F0.018100999999999999
sS'make'
p251
F0.0028730000000000001
sS'breaking'
p252
F0.011639
sS'process automation'
p253
F0.024962999999999999
sS'empowered'
p254
F0.011025999999999999
sS'evangelizes'
p255
F0.012371
sS'evolving software'
p256
F0.011639
sS'application'
p257
F0.0098980000000000005
sS'complex'
p258
F0.010779
sS'role'
p259
F0.0023579999999999999
sS'computer science'
p260
F0.003529
sS'digital'
p261
F0.0049789999999999999
sS'today era'
p262
F0.015625
sS'performance'
p263
F0.0033140000000000001
sS'physical'
p264
F0.0070029999999999997
sS'expression age disability protected veteran status'
p265
F0.010187999999999999
sS'help lower cost'
p266
F0.015625
sS'toughest'
p267
F0.012987
sS'development'
p268
F0.0060860000000000003
sS'product'
p269
F0.001712
sS'oil'
p270
F0.011717999999999999
sS'object oriented'
p271
F0.0095149999999999992
sS'comprehensive'
p272
F0.0066740000000000002
sS'collaboration'
p273
F0.0044619999999999998
sS'industrial internet'
p274
F0.013639999999999999
sS'market quicker'
p275
F0.015625
sS'lab'
p276
F0.0097400000000000004
sS'automation'
p277
F0.0070239999999999999
sS'capture system'
p278
F0.011717999999999999
sS'applications'
p279
F0.0095770000000000004
sS'toughest challenge'
p280
F0.013134
sS'designed'
p281
F0.0078379999999999995
sS'develop'
p282
F0.001769
sS'ge offer'
p283
F0.010229
sS'law'
p284
F0.0052940000000000001
sS'data'
p285
F0.0011069999999999999
sS'boston area'
p286
F0.014559000000000001
sS'ethnic origin sex sexual orientation gender identity'
p287
F0.010187999999999999
sS'delivery'
p288
F0.0044920000000000003
sS'tailored'
p289
F0.011887
sS'task'
p290
F0.0047099999999999998
sS'remote'
p291
F0.01753
sS'algorithm'
p292
F0.0028180000000000002
sS'database'
p293
F0.003346
sS'technology solutions'
p294
F0.013457999999999999
sS'required'
p295
F0.0021970000000000002
sS'well'
p296
F0.0053600000000000002
sS'sale'
p297
F0.0056889999999999996
sS'analysis'
p298
F0.0018580000000000001
sS'optimizing improving'
p299
F0.01272
sS'web service rest soap oauth etc'
p300
F0.017703
sS'maintain'
p301
F0.0083960000000000007
sS'solve'
p302
F0.0089910000000000007
sS'principle'
p303
F0.012432
sS'strong knowledge'
p304
F0.013867000000000001
sS'taking'
p305
F0.0084950000000000008
sS'technical idea'
p306
F0.011346
sS'5 year'
p307
F0.0098589999999999997
sS'hadoop'
p308
F0.0043969999999999999
sS'operate side-by-side'
p309
F0.015625
sS'travel'
p310
F0.005169
sS'fact'
p311
F0.010229
sS'justify'
p312
F0.012481000000000001
s.