(dp1
S'code'
p2
F0.011551000000000001
sS'micro-management'
p3
F0.0058520000000000004
sS'global'
p4
F0.0048830000000000002
sS'dynamic'
p5
F0.002147
sS'focus'
p6
F0.0018649999999999999
sS'month'
p7
F0.0037569999999999999
sS'manager'
p8
F0.0037469999999999999
sS'concept'
p9
F0.0036809999999999998
sS'go'
p10
F0.0028709999999999999
sS'data lifecycle management'
p11
F0.0058520000000000004
sS'strong collaborator'
p12
F0.0054689999999999999
sS'environment'
p13
F0.002186
sS'foster'
p14
F0.003222
sS'suite'
p15
F0.0033340000000000002
sS'include'
p16
F0.0052919999999999998
sS'attractive incentive'
p17
F0.0058520000000000004
sS'risk'
p18
F0.0021619999999999999
sS'based vms'
p19
F0.0058520000000000004
sS'servicing'
p20
F0.0051520000000000003
sS'software developer'
p21
F0.003388
sS'micromanage'
p22
F0.0058520000000000004
sS'various flavor'
p23
F0.0058520000000000004
sS'continued'
p24
F0.013927999999999999
sS'entire'
p25
F0.0034160000000000002
sS'on-prem datacenter hosting'
p26
F0.0080260000000000001
sS'open-source'
p27
F0.0049870000000000001
sS'level'
p28
F0.0013929999999999999
sS'solution'
p29
F0.0033570000000000002
sS'leave'
p30
F0.0043319999999999999
sS'happy team'
p31
F0.0058520000000000004
sS'high throughput consistent'
p32
F0.0058520000000000004
sS'team'
p33
F0.0083009999999999994
sS'small'
p34
F0.002647
sS'front-'
p35
F0.0080260000000000001
sS'enjoy'
p36
F0.021399000000000001
sS'folk enjoy'
p37
F0.0058520000000000004
sS'provide code-level guidance'
p38
F0.0080260000000000001
sS'design'
p39
F0.0062490000000000002
sS'perspective'
p40
F0.002702
sS'mid-level'
p41
F0.0073720000000000001
sS'unified platform'
p42
F0.022116
sS'culture fostered'
p43
F0.0058520000000000004
sS'product development'
p44
F0.0020079999999999998
sS'power'
p45
F0.0025309999999999998
sS'clock'
p46
F0.0057619999999999998
sS'video conferencing'
p47
F0.0058520000000000004
sS'across many'
p48
F0.0049870000000000001
sS'direct reflection'
p49
F0.0058520000000000004
sS'physically co-located'
p50
F0.0058520000000000004
sS'designing'
p51
F0.0022720000000000001
sS'new'
p52
F0.00088900000000000003
sS'net'
p53
F0.0042950000000000002
sS'method'
p54
F0.0026410000000000001
sS'supporting'
p55
F0.0044169999999999999
sS'evolving'
p56
F0.0036779999999999998
sS'bring winning team'
p57
F0.0058520000000000004
sS'manage business-critical 24-hour operational'
p58
F0.0058520000000000004
sS'commercial'
p59
F0.0052620000000000002
sS'fun'
p60
F0.0028010000000000001
sS'explore'
p61
F0.0026340000000000001
sS'focused'
p62
F0.0041570000000000001
sS'address'
p63
F0.0022680000000000001
sS'strong'
p64
F0.001916
sS'mindset'
p65
F0.003669
sS'software development'
p66
F0.002294
sS'great'
p67
F0.0022330000000000002
sS'high level'
p68
F0.002879
sS'technical'
p69
F0.00089800000000000004
sS'hard-products business rather'
p70
F0.0058520000000000004
sS'experience'
p71
F0.00035300000000000002
sS'launched'
p72
F0.0040419999999999996
sS"don't like"
p73
F0.0054689999999999999
sS'common thread'
p74
F0.0069890000000000004
sS'sql azure aws rds'
p75
F0.0058520000000000004
sS'via'
p76
F0.0029420000000000002
sS'love'
p77
F0.012598
sS'manage'
p78
F0.003173
sS'machine learning data visualization'
p79
F0.0044530000000000004
sS'numerous perk including conference f2f training'
p80
F0.0058520000000000004
sS'apply'
p81
F0.0013259999999999999
sS'financial trader'
p82
F0.0058520000000000004
sS'establish'
p83
F0.0026689999999999999
sS'market'
p84
F0.0035530000000000002
sS'open source'
p85
F0.0024740000000000001
sS'working'
p86
F0.0051209999999999997
sS'complete re-architect'
p87
F0.0080260000000000001
sS'devops'
p88
F0.014637000000000001
sS'captured via patented sensor technology'
p89
F0.0058520000000000004
sS'live'
p90
F0.0030820000000000001
sS'awesome team---if'
p91
F0.0058520000000000004
sS'type'
p92
F0.0025140000000000002
sS'today'
p93
F0.005901
sS"genscape's product offering"
p94
F0.0059519999999999998
sS'significant experience'
p95
F0.004411
sS'successful'
p96
F0.0023570000000000002
sS'company'
p97
F0.0019250000000000001
sS'training'
p98
F0.001879
sS'created within genscape'
p99
F0.0058520000000000004
sS'niche provider'
p100
F0.0058520000000000004
sS'excellent'
p101
F0.003895
sS'continual'
p102
F0.0058520000000000004
sS'90'
p103
F0.0046430000000000004
sS'aligned'
p104
F0.0082279999999999992
sS'must'
p105
F0.0013179999999999999
sS'customer'
p106
F0.0033010000000000001
sS'md'
p107
F0.0050660000000000002
sS'join'
p108
F0.00141
sS'product-types'
p109
F0.0080260000000000001
sS'work'
p110
F0.00296
sS'strategically'
p111
F0.0045430000000000002
sS'dev'
p112
F0.010817
sS'full stack'
p113
F0.0082889999999999995
sS'various mid-tier technology'
p114
F0.0080260000000000001
sS'evolved'
p115
F0.0056800000000000002
sS'following'
p116
F0.0034290000000000002
sS'meet'
p117
F0.003581
sS'exceptional contributor'
p118
F0.011704000000000001
sS'process'
p119
F0.0028670000000000002
sS'high'
p120
F0.0023860000000000001
sS'effectively'
p121
F0.0019910000000000001
sS'product developers'
p122
F0.0061890000000000001
sS'want'
p123
F0.001838
sS'engineering math physics'
p124
F0.0058520000000000004
sS'software engineers forming'
p125
F0.0058520000000000004
sS'huge'
p126
F0.0044530000000000004
sS"genscape's growth"
p127
F0.0059519999999999998
sS'please pas'
p128
F0.0058520000000000004
sS'wall street trader'
p129
F0.0080260000000000001
sS'provide'
p130
F0.00096000000000000002
sS'innovation competitions'
p131
F0.0058520000000000004
sS'discussion'
p132
F0.0034450000000000001
sS'exceptional'
p133
F0.0024919999999999999
sS'amazing'
p134
F0.0042090000000000001
sS"we've consolidated"
p135
F0.0080260000000000001
sS'technologist data scientist'
p136
F0.0052969999999999996
sS'product'
p137
F0.010695
sS'escalate'
p138
F0.0054079999999999996
sS'uptime'
p139
F0.0056800000000000002
sS'sophistication'
p140
F0.0065069999999999998
sS'ensure compatibility'
p141
F0.0060629999999999998
sS"another 'job"
p142
F0.0059519999999999998
sS'value'
p143
F0.001614
sS'communicator'
p144
F0.0044749999999999998
sS'data'
p145
F0.0027650000000000001
sS'huge bonus'
p146
F0.0058520000000000004
sS'varied'
p147
F0.0040850000000000001
sS'paas'
p148
F0.0065069999999999998
sS'work closely'
p149
F0.001915
sS'develop message distribution'
p150
F0.0065069999999999998
sS'rather'
p151
F0.013927999999999999
sS'complexity'
p152
F0.0033809999999999999
sS'maintain'
p153
F0.006992
sS'responsibility'
p154
F0.001869
sS'talk'
p155
F0.003264
sS'typical'
p156
F0.0045919999999999997
sS'feedback'
p157
F0.003264
sS"don't"
p158
F0.0040850000000000001
sS'essence'
p159
F0.0052969999999999996
sS'amplifying'
p160
F0.0080260000000000001
sS'iaas service'
p161
F0.0058520000000000004
sS'application installment'
p162
F0.0080260000000000001
sS'mission'
p163
F0.001699
sS'cross'
p164
F0.0040150000000000003
sS'caching solution'
p165
F0.0073720000000000001
sS'including'
p166
F0.0039940000000000002
sS'innovative'
p167
F0.0016130000000000001
sS'mentioned'
p168
F0.0054689999999999999
sS'fast-paced entrepreneurial environment'
p169
F0.0051520000000000003
sS'left-and-right brain balanced'
p170
F0.0058520000000000004
sS"engineers' activity"
p171
F0.0061890000000000001
sS'group'
p172
F0.0050289999999999996
sS'order amongst'
p173
F0.0080260000000000001
sS'customer-facing web'
p174
F0.0069890000000000004
sS'platform'
p175
F0.014274
sS'production'
p176
F0.0037529999999999998
sS'scrum team'
p177
F0.01409
sS'talent pool'
p178
F0.0056039999999999996
sS'autonomous environment'
p179
F0.0057619999999999998
sS'good'
p180
F0.0020530000000000001
sS'flexible work hour'
p181
F0.0056800000000000002
sS'seeking'
p182
F0.0016999999999999999
sS'framework'
p183
F0.0037269999999999998
sS"you've"
p184
F0.0049500000000000004
sS'larger goal'
p185
F0.0054689999999999999
sS'strategic'
p186
F0.001671
sS'customer enjoy'
p187
F0.0034749999999999998
sS"'support function'"
p188
F0.0059519999999999998
sS'fully'
p189
F0.0039880000000000002
sS"technology'"
p190
F0.0059519999999999998
sS'capability'
p191
F0.0032880000000000001
sS'augmented reality'
p192
F0.0057619999999999998
sS'master data management'
p193
F0.0047540000000000004
sS'self-motivation'
p194
F0.0051980000000000004
sS'30 days'
p195
F0.0058520000000000004
sS'global team'
p196
F0.0070429999999999998
sS'software data-based product'
p197
F0.0058520000000000004
sS'globe'
p198
F0.0046100000000000004
sS'idea'
p199
F0.0021029999999999998
sS'organic development'
p200
F0.0067169999999999999
sS'expect'
p201
F0.0081410000000000007
sS'smart boards'
p202
F0.0080260000000000001
sS'year'
p203
F0.0019
sS'operation'
p204
F0.0034819999999999999
sS'beyond'
p205
F0.003009
sS'space'
p206
F0.002647
sS'quality'
p207
F0.0015790000000000001
sS'looking'
p208
F0.0012800000000000001
sS'much left-'
p209
F0.0061890000000000001
sS'code review'
p210
F0.004176
sS'great opportunity'
p211
F0.0041920000000000004
sS"platform's architecture mitigates many"
p212
F0.0080260000000000001
sS'issue'
p213
F0.003339
sS'expect demand'
p214
F0.0058520000000000004
sS'creating'
p215
F0.001915
sS'remote employee'
p216
F0.0054689999999999999
sS'soft skill'
p217
F0.0056800000000000002
sS'often over-used term'
p218
F0.0058520000000000004
sS'standard'
p219
F0.0051970000000000002
sS'user experience'
p220
F0.002875
sS'imagine'
p221
F0.0046690000000000004
sS'publication'
p222
F0.003467
sS"'who"
p223
F0.0059519999999999998
sS'life balance'
p224
F0.0045430000000000002
sS'written communication skill'
p225
F0.0024580000000000001
sS'created'
p226
F0.0040150000000000003
sS'enjoy working'
p227
F0.0037360000000000002
sS'thing'
p228
F0.0028010000000000001
sS'previously mentioned many'
p229
F0.0058520000000000004
sS'retail'
p230
F0.002908
sS'business vertical'
p231
F0.0065069999999999998
sS'first'
p232
F0.0044819999999999999
sS'hands-on co-development code review'
p233
F0.0080260000000000001
sS'test beta prod etc'
p234
F0.0080260000000000001
sS'latest greatest development'
p235
F0.0058520000000000004
sS'coding'
p236
F0.002758
sS'number'
p237
F0.0029380000000000001
sS'rank'
p238
F0.0061890000000000001
sS'one'
p239
F0.001091
sS'self-driven'
p240
F0.004725
sS'logical'
p241
F0.0037669999999999999
sS'specifically'
p242
F0.003395
sS'open'
p243
F0.0076949999999999996
sS'engineer'
p244
F0.00643
sS"you're"
p245
F0.0058329999999999996
sS'given'
p246
F0.0029250000000000001
sS'management'
p247
F0.0010679999999999999
sS'full spectrum'
p248
F0.010130999999999999
sS'service'
p249
F0.0020170000000000001
sS'overtime'
p250
F0.0044530000000000004
sS'leading'
p251
F0.0027060000000000001
sS'top'
p252
F0.0022599999999999999
sS'system'
p253
F0.0060759999999999998
sS"revolutionary sensor ip genscape's offering"
p254
F0.0059519999999999998
sS'normalization'
p255
F0.0056800000000000002
sS'subject matter experts smes'
p256
F0.0057619999999999998
sS'tool'
p257
F0.00068199999999999999
sS'serve'
p258
F0.0023050000000000002
sS'innovate'
p259
F0.0031879999999999999
sS'part'
p260
F0.001292
sS'team member'
p261
F0.0037750000000000001
sS'believe'
p262
F0.0019550000000000001
sS"simply 'are"
p263
F0.0059519999999999998
sS'app dev team'
p264
F0.0065069999999999998
sS'optimal cloud-sharing'
p265
F0.0080260000000000001
sS'project'
p266
F0.001529
sS'activity relying'
p267
F0.0080260000000000001
sS'computer'
p268
F0.002405
sS'architect'
p269
F0.0047660000000000003
sS'organization nat gas'
p270
F0.0080260000000000001
sS'continuous integration'
p271
F0.0036589999999999999
sS'thoughtfully engineer'
p272
F0.0080260000000000001
sS'outstanding'
p273
F0.0033809999999999999
sS'upcoming year'
p274
F0.0058520000000000004
sS'defect'
p275
F0.0051980000000000004
sS'comfortable'
p276
F0.0026310000000000001
sS'say'
p277
F0.0042420000000000001
sS'need'
p278
F0.0030469999999999998
sS'seen'
p279
F0.0049500000000000004
sS'viewed'
p280
F0.0051520000000000003
sS'composing music rock-climbing leading'
p281
F0.0058520000000000004
sS'built'
p282
F0.0029729999999999999
sS"'clock-puncher'"
p283
F0.0059519999999999998
sS'efficient'
p284
F0.0027230000000000002
sS'able'
p285
F0.0029229999999999998
sS'also'
p286
F0.010949
sS'find'
p287
F0.002258
sS'internal'
p288
F0.001513
sS'best'
p289
F0.0016310000000000001
sS'off-shore'
p290
F0.0060629999999999998
sS'online'
p291
F0.0024710000000000001
sS'performance'
p292
F0.0013799999999999999
sS'data tier'
p293
F0.012378
sS'front-end mid-tier'
p294
F0.0080260000000000001
sS'experienced'
p295
F0.0025170000000000001
sS'multiple'
p296
F0.0036459999999999999
sS'collaboration'
p297
F0.0074330000000000004
sS"technologists'"
p298
F0.0059519999999999998
sS'aws'
p299
F0.002591
sS'paid'
p300
F0.0036229999999999999
sS"company's greatest asset"
p301
F0.0059519999999999998
sS'mid-tiers'
p302
F0.0080260000000000001
sS'plan'
p303
F0.0017960000000000001
sS'organization'
p304
F0.00106
sS'services'
p305
F0.002562
sS'bi-weekly sprint'
p306
F0.0058520000000000004
sS'hands-on'
p307
F0.0052810000000000001
sS'developed classically on-prem'
p308
F0.0080260000000000001
sS'expert'
p309
F0.0017930000000000001
sS'sql server'
p310
F0.0037460000000000002
sS'mobile'
p311
F0.0025709999999999999
sS'cover'
p312
F0.0043140000000000001
sS'love data'
p313
F0.0096939999999999995
sS'principle'
p314
F0.002588
sS'enterprise'
p315
F0.0034989999999999999
sS'bounced around'
p316
F0.0058520000000000004
sS'cloud-based platform'
p317
F0.0065069999999999998
sS'consumer'
p318
F0.0019750000000000002
sS'proven experience'
p319
F0.003777
sS'incorporate'
p320
F0.0040419999999999996
sS'interesting hobby'
p321
F0.0058520000000000004
sS'related field'
p322
F0.001572
sS'team player'
p323
F0.0028869999999999998
sS'top comp-sci program'
p324
F0.0080260000000000001
sS'awesome technology'
p325
F0.0058520000000000004
sS'awesome product'
p326
F0.0063350000000000004
sS'well-run stand-up'
p327
F0.0080260000000000001
sS'bring'
p328
F0.001688
sS'planning'
p329
F0.0043090000000000003
sS'availability'
p330
F0.0038539999999999998
sS'impact'
p331
F0.0033119999999999998
sS'ha'
p332
F0.0035079999999999998
sS'knowledge'
p333
F0.0017359999999999999
sS"you'll get"
p334
F0.0046690000000000004
sS'distributed'
p335
F0.005189
sS'operational'
p336
F0.0020279999999999999
sS'first 60 days'
p337
F0.0058520000000000004
sS'employee'
p338
F0.003385
sS'ensure alignment'
p339
F0.0051520000000000003
sS'also work'
p340
F0.0037360000000000002
sS'handle'
p341
F0.0034450000000000001
sS'get'
p342
F0.0021359999999999999
sS"don't believe"
p343
F0.0054079999999999996
sS'scalable'
p344
F0.002588
sS'geek'
p345
F0.0059519999999999998
sS'remarkably passionate'
p346
F0.0058520000000000004
sS'tech summit'
p347
F0.0058520000000000004
sS'shared'
p348
F0.0037069999999999998
sS'report'
p349
F0.001315
sS'entire systemnot simply'
p350
F0.0080260000000000001
sS'internal contest'
p351
F0.0058520000000000004
sS"enjoy going 'above-and-beyond'"
p352
F0.0059519999999999998
sS'resource'
p353
F0.0020249999999999999
sS'covering'
p354
F0.010050999999999999
sS'adhering'
p355
F0.0051079999999999997
sS'qa'
p356
F0.011428000000000001
sS'architecture'
p357
F0.010971
sS'activity'
p358
F0.0078270000000000006
sS'analytical'
p359
F0.001286
sS'vision'
p360
F0.0020560000000000001
sS'achieved'
p361
F0.0042420000000000001
sS'testing'
p362
F0.0018029999999999999
sS'also moved'
p363
F0.0080260000000000001
sS'culture'
p364
F0.01546
sS'see'
p365
F0.0050340000000000003
sS'individual'
p366
F0.0045059999999999996
sS'result'
p367
F0.0036589999999999999
sS'software dev'
p368
F0.0058520000000000004
sS'consolidated software engineering team'
p369
F0.0080260000000000001
sS'encouraged'
p370
F0.002977
sS'data set'
p371
F0.0030379999999999999
sS'strong verbal'
p372
F0.0040419999999999996
sS'extend'
p373
F0.0039370000000000004
sS'luv'
p374
F0.0080260000000000001
sS'customer-facing'
p375
F0.0051520000000000003
sS'posse'
p376
F0.0033739999999999998
sS'please'
p377
F0.0056709999999999998
sS'master data'
p378
F0.0055339999999999999
sS'various'
p379
F0.0048960000000000002
sS'developer'
p380
F0.0021410000000000001
sS'across'
p381
F0.011609
sS'tactically'
p382
F0.0067169999999999999
sS'also code-related work stream'
p383
F0.0080260000000000001
sS'handful'
p384
F0.0061890000000000001
sS'extremely talented'
p385
F0.0057619999999999998
sS'ability'
p386
F0.001609
sS'vertical'
p387
F0.0042249999999999996
sS'nature'
p388
F0.00349
sS'deliver'
p389
F0.0051510000000000002
sS'sold'
p390
F0.0051079999999999997
sS'javascript'
p391
F0.0031440000000000001
sS'genscape'
p392
F0.035112999999999998
sS'however'
p393
F0.013233
sS'dual-home'
p394
F0.0058520000000000004
sS'reward excellence'
p395
F0.0057619999999999998
sS'job'
p396
F0.001124
sS'succeed'
p397
F0.0035620000000000001
sS'html5'
p398
F0.0052969999999999996
sS'key'
p399
F0.001513
sS'come'
p400
F0.0094289999999999999
sS'talented'
p401
F0.0055440000000000003
sS'career'
p402
F0.0059680000000000002
sS'country'
p403
F0.0030330000000000001
sS'annual'
p404
F0.0035140000000000002
sS'etc'
p405
F0.0027190000000000001
sS'highly collaborative team environment'
p406
F0.0056800000000000002
sS'acquired product'
p407
F0.0058520000000000004
sS'operating'
p408
F0.002908
sS'break-fix'
p409
F0.0080260000000000001
sS'whole'
p410
F0.0038999999999999998
sS'software engineer'
p411
F0.0026099999999999999
sS'embrace scrum'
p412
F0.011704000000000001
sS'large-scale'
p413
F0.0031120000000000002
sS'relational'
p414
F0.0037669999999999999
sS'ha gone'
p415
F0.0056039999999999996
sS'others'
p416
F0.001918
sS'near-term'
p417
F0.0080260000000000001
sS'initiative'
p418
F0.001787
sS'technologist'
p419
F0.013180000000000001
sS'ensures'
p420
F0.003388
sS'keyboard cranking code'
p421
F0.0058520000000000004
sS'java'
p422
F0.0021410000000000001
sS'rebuild'
p423
F0.0080260000000000001
sS'strategy'
p424
F0.0053299999999999997
sS'much'
p425
F0.0076189999999999999
sS'seasoned'
p426
F0.0051079999999999997
sS'basic'
p427
F0.0028159999999999999
sS'highly scalable'
p428
F0.0045919999999999997
sS'direction'
p429
F0.0022230000000000001
sS'enable'
p430
F0.002134
sS'based paas'
p431
F0.0058520000000000004
sS'role requires'
p432
F0.0076189999999999999
sS'development activity'
p433
F0.0042090000000000001
sS'college degree'
p434
F0.004914
sS'understand'
p435
F0.0067260000000000002
sS'product development activity'
p436
F0.0080260000000000001
sS'data flow'
p437
F0.0041599999999999996
sS"next quarter's qa"
p438
F0.0080260000000000001
sS'look'
p439
F0.003009
sS'day-to-day operation'
p440
F0.0052969999999999996
sS'developing'
p441
F0.0012769999999999999
sS'business intelligence'
p442
F0.0023930000000000002
sS'real business problem'
p443
F0.0045919999999999997
sS'employ'
p444
F0.0029640000000000001
sS'optimization'
p445
F0.0039319999999999997
sS'many'
p446
F0.0023640000000000002
sS'entirely new'
p447
F0.0080260000000000001
sS'evangelize enterprise-grade solution'
p448
F0.0080260000000000001
sS'application development'
p449
F0.0033340000000000002
sS'layer'
p450
F0.004725
sS'others attend stand-ups remotely via'
p451
F0.0058520000000000004
sS'encouragement'
p452
F0.0049500000000000004
sS'next gen platform'
p453
F0.012378
sS"you've evolved"
p454
F0.0080260000000000001
sS'embrace'
p455
F0.014086
sS"way'"
p456
F0.0059519999999999998
sS'ready'
p457
F0.002813
sS'partner'
p458
F0.0014970000000000001
sS'technology'
p459
F0.012333999999999999
sS'diagnostic'
p460
F0.0046169999999999996
sS'scrum standups'
p461
F0.0080260000000000001
sS'develop'
p462
F0.0022100000000000002
sS'make'
p463
F0.0023930000000000002
sS'challenge hence'
p464
F0.0080260000000000001
sS'member'
p465
F0.001838
sS'enjoy data-intensive environment'
p466
F0.0080260000000000001
sS'complex'
p467
F0.0014959999999999999
sS'largest'
p468
F0.002908
sS'band restoring snow cat welding artwork'
p469
F0.0058520000000000004
sS'10+ year'
p470
F0.0068459999999999997
sS'development'
p471
F0.010137
sS'evolve'
p472
F0.010494
sS'used'
p473
F0.001983
sS'comprehensive'
p474
F0.0027789999999999998
sS'third-party'
p475
F0.0049500000000000004
sS'want folk'
p476
F0.0058520000000000004
sS'day-to-day basis'
p477
F0.0054079999999999996
sS'back-end development'
p478
F0.0067169999999999999
sS'footprint'
p479
F0.0061890000000000001
sS'changing'
p480
F0.0031020000000000002
sS'mid- long-term'
p481
F0.0080260000000000001
sS'stack'
p482
F0.0032889999999999998
sS'expand'
p483
F0.0068310000000000003
sS'center'
p484
F0.002503
sS'database'
p485
F0.002787
sS'love---explore innovate'
p486
F0.0058520000000000004
sS'variety'
p487
F0.0018710000000000001
sS'well'
p488
F0.0044640000000000001
sS'one configurable platform'
p489
F0.0080260000000000001
sS'client'
p490
F0.001207
sS'solve'
p491
F0.001872
sS'consistency'
p492
F0.0046969999999999998
sS'position'
p493
F0.001856
sS'reward'
p494
F0.0039880000000000002
sS'in-depth understanding'
p495
F0.0044320000000000002
sS'nosql'
p496
F0.0028960000000000001
sS'rest'
p497
F0.0035300000000000002
sS'detail'
p498
F0.0021719999999999999
sS'identify'
p499
F0.0013010000000000001
sS'aspect'
p500
F0.0023999999999999998
sS'day-to-day'
p501
F0.0037989999999999999
sS'skill'
p502
F0.00087100000000000003
sS'discipline'
p503
F0.0023180000000000002
sS'application developer'
p504
F0.0036410000000000001
sS'excellent interpersonal skill'
p505
F0.0045430000000000002
sS'majority'
p506
F0.0044749999999999998
sS'thinking'
p507
F0.0029039999999999999
sS'agile'
p508
F0.010056000000000001
sS'tackling organic development'
p509
F0.0058520000000000004
sS'build'
p510
F0.0027629999999999998
sS'cerebral horsepower'
p511
F0.0080260000000000001
sS'next gen appdev platforms covering'
p512
F0.0080260000000000001
sS'around'
p513
F0.0019090000000000001
sS'big'
p514
F0.0054799999999999996
sS'collaboratively'
p515
F0.0041450000000000002
sS'workload'
p516
F0.0044749999999999998
sS'know'
p517
F0.0094380000000000002
sS'deployment'
p518
F0.004339
sS'using'
p519
F0.0020969999999999999
sS'world-class'
p520
F0.0032699999999999999
sS'necessary'
p521
F0.0025969999999999999
sS'like'
p522
F0.0020330000000000001
sS'success'
p523
F0.0033500000000000001
sS'identifying'
p524
F0.0025249999999999999
sS'new technology prioritizing product'
p525
F0.0058520000000000004
sS'50'
p526
F0.0037669999999999999
sS'benefit'
p527
F0.0039410000000000001
sS'continue'
p528
F0.0068820000000000001
sS'drive toward excellence'
p529
F0.0058520000000000004
sS'bunch'
p530
F0.0073720000000000001
sS'become'
p531
F0.0031710000000000002
sS'crank code'
p532
F0.0080260000000000001
sS'passionate'
p533
F0.0057800000000000004
sS'essential'
p534
F0.0032339999999999999
sS'right-brain thinker'
p535
F0.0061890000000000001
sS'delivery throughput'
p536
F0.0058520000000000004
sS'existing'
p537
F0.0019689999999999998
sS'interact'
p538
F0.0025590000000000001
sS'punching'
p539
F0.0058520000000000004
sS'first 90 days'
p540
F0.0065069999999999998
sS'home'
p541
F0.003042
sS"'srum-of-scrum' dependency"
p542
F0.0080260000000000001
sS'delivered'
p543
F0.003467
sS'trust'
p544
F0.0037260000000000001
sS'lead'
p545
F0.011413
sS'broad'
p546
F0.0029120000000000001
sS'saas'
p547
F0.0036870000000000002
sS'integration'
p548
F0.0041989999999999996
sS'critical'
p549
F0.0082249999999999997
sS'passion'
p550
F0.005522
sS'cloud'
p551
F0.012399
sS'vast majority'
p552
F0.0063350000000000004
sS'provider'
p553
F0.002908
sS'demonstrated'
p554
F0.001941
sS'core'
p555
F0.0078630000000000002
sS'scientific'
p556
F0.0024429999999999999
sS'business'
p557
F0.00064899999999999995
sS'communicate'
p558
F0.001843
sS'leadership'
p559
F0.0032230000000000002
sS'mobile camera bot'
p560
F0.0058520000000000004
sS'assemble'
p561
F0.0051980000000000004
sS'would'
p562
F0.0077120000000000001
sS'extension'
p563
F0.0048799999999999998
sS'industry'
p564
F0.0010740000000000001
sS'development fashion'
p565
F0.0058520000000000004
sS'ensure'
p566
F0.0079179999999999997
sS'leverage'
p567
F0.0021280000000000001
sS'azure'
p568
F0.0042249999999999996
sS'building awesomely engineered'
p569
F0.0080260000000000001
sS'big data blob'
p570
F0.0080260000000000001
sS'software'
p571
F0.0067460000000000003
sS'broad range'
p572
F0.0068900000000000003
sS'manage multiple priority'
p573
F0.0051520000000000003
sS'explore new idea'
p574
F0.0054689999999999999
sS'commitment'
p575
F0.0080569999999999999
sS'problem solving'
p576
F0.0055079999999999999
sS'contributor'
p577
F0.0042599999999999999
sS'next gen'
p578
F0.0061890000000000001
sS'technically'
p579
F0.0049870000000000001
sS'rely'
p580
F0.0044320000000000002
sS'multiple data platform'
p581
F0.0080260000000000001
sS'analyst'
p582
F0.001921
sS'support'
p583
F0.0051710000000000002
sS'data movement'
p584
F0.0060629999999999998
sS'cloud-based'
p585
F0.0043709999999999999
sS'accountability'
p586
F0.010713
sS'start'
p587
F0.003199
sS'product manager'
p588
F0.0025170000000000001
sS"we're"
p589
F0.002859
sS'way'
p590
F0.0014250000000000001
sS'heritage'
p591
F0.0052459999999999998
sS'professional by-product'
p592
F0.0080260000000000001
sS'off-shore strategic'
p593
F0.0058520000000000004
sS'energy'
p594
F0.012
sS'function'
p595
F0.0019889999999999999
sS'real-time'
p596
F0.0030230000000000001
sS'offer'
p597
F0.0045570000000000003
sS'one reason'
p598
F0.0058520000000000004
sS'self-motivated team member'
p599
F0.0058520000000000004
sS'oil'
p600
F0.0048799999999999998
sS'delivery'
p601
F0.0093530000000000002
sS'land'
p602
F0.0056039999999999996
sS'work stream'
p603
F0.010215
sS'line'
p604
F0.0030330000000000001
sS'highest'
p605
F0.0041920000000000004
sS'junior'
p606
F0.0036970000000000002
sS'week'
p607
F0.0032699999999999999
sS'technology hackathons'
p608
F0.0058520000000000004
sS'hire'
p609
F0.002836
sS'gaming go figure'
p610
F0.0058520000000000004
sS'urgent'
p611
F0.012669
sS'characteristic'
p612
F0.0036319999999999998
sS'work ethic'
p613
F0.0040850000000000001
sS'between-teams'
p614
F0.0080260000000000001
sS'demonstrate'
p615
F0.0075589999999999997
sS'detailed'
p616
F0.0033670000000000002
sS'associated'
p617
F0.0029160000000000002
sS'hopefully invited team meeting'
p618
F0.0058520000000000004
sS'as-is'
p619
F0.0080260000000000001
sS'life'
p620
F0.0031220000000000002
sS'deep'
p621
F0.0023760000000000001
sS'day-to-day work'
p622
F0.0052969999999999996
sS'perfect combination'
p623
F0.0057619999999999998
sS'diverse'
p624
F0.0018450000000000001
sS'rule'
p625
F0.0039620000000000002
sS'qa practitioner'
p626
F0.0058520000000000004
sS'mutual'
p627
F0.0065069999999999998
sS'role might'
p628
F0.0058520000000000004
sS'issue resolution'
p629
F0.0051079999999999997
sS'hybrid'
p630
F0.0044970000000000001
sS'distributing workload across'
p631
F0.0058520000000000004
sS'refactor'
p632
F0.0069890000000000004
sS'application'
p633
F0.003091
sS'role'
p634
F0.0088380000000000004
sS'may'
p635
F0.001853
sS'collaborative'
p636
F0.0024759999999999999
sS'support within-'
p637
F0.0080260000000000001
sS'scrum'
p638
F0.0077539999999999996
sS'equivalent experience'
p639
F0.002653
sS'scale'
p640
F0.0042500000000000003
sS'carefulness essential'
p641
F0.0058520000000000004
sS'throughout'
p642
F0.0024789999999999999
sS'team environment'
p643
F0.0030469999999999998
sS'senior'
p644
F0.0019269999999999999
sS'exposure'
p645
F0.002875
sS'excellence'
p646
F0.0044860000000000004
sS'roadmaps'
p647
F0.0042420000000000001
sS'maritime ag bio solar etc'
p648
F0.0080260000000000001
sS'invest'
p649
F0.0040419999999999996
sS'daily'
p650
F0.0031710000000000002
sS'software---not'
p651
F0.0058520000000000004
sS'portion'
p652
F0.010817
sS'u'
F0.0065960000000000003
sS'time'
p653
F0.0028660000000000001
sS'community gaming however'
p654
F0.0058520000000000004
sS'requires'
p655
F0.0029329999999999998
s.