(dp1
S''
F0.0014044186587666417
sS'code'
p2
F0.01009580162711687
sS'consolidated'
p3
F0.0098960004906126706
sS'global'
p4
F0.0072746315480314433
sS'focus'
p5
F0.0017873301328256142
sS'existing'
p6
F0.0017864877483481998
sS'manager'
p7
F0.0049417930166792742
sS'concept'
p8
F0.0035462918302728223
sS'go'
p9
F0.0045826879036025541
sS'country/globe'
p10
F0.0048743731158985828
sS'remarkably'
p11
F0.0048743731158985828
sS'smes'
p12
F0.0037637990001855074
sVBusiness
p13
F0.00075591498754305666
sS'environment'
p14
F0.0050803624649682173
sS'to'
p15
F0.0020765814279239676
sS'foster'
p16
F0.0026391172451161039
sS'suite'
p17
F0.0025738126149965923
sS'include'
p18
F0.0045315159288880488
sS'customer'
p19
F0.003325702210673256
sS'risk'
p20
F0.0020503038707632027
sS'market.'
p21
F0.0035993595370406007
sS'engineered'
p22
F0.0044258384933305948
sS'servicing'
p23
F0.0041066509501660282
sS'artwork'
p24
F0.0046392425339838598
sS'today.'
p25
F0.0038883604841870008
sS'micromanage'
p26
F0.0048743731158985828
sS'month'
p27
F0.0028863268259399313
sS'continued'
p28
F0.0098169842578196397
sS'vast'
p29
F0.0031437454350051008
sS'entire'
p30
F0.0053910527086509837
sS'open-source'
p31
F0.0034948656172483867
sS'level'
p32
F0.0027237746991370603
sS'fast-paced'
p33
F0.002277608169289277
sS'issue'
p34
F0.0034489928938987169
sS'solution'
p35
F0.0046361644728091581
sS'leave'
p36
F0.0033011488998013574
sS'product-types'
p37
F0.006483446667062619
sS'excellence'
p38
F0.007658244172606612
sS'demonstrated'
p39
F0.001587155871271105
sS'do/build'
p40
F0.0048743731158985828
sS'team'
p41
F0.021260044381078872
sS'evangelize'
p42
F0.0036222733287060269
sS'workloads'
p43
F0.006483446667062619
sS'front-'
p44
F0.006483446667062619
sS'product/business'
p45
F0.006483446667062619
sS'enjoy'
p46
F0.022618367658785443
sS'application'
p47
F0.0062965446828252844
sS'work'
p48
F0.0081465127138079969
sS'consistent'
p49
F0.0022427860792533028
sS'direct'
p50
F0.0021662564830021926
sS'thinker'
p51
F0.0028241702987316826
sS'street'
p52
F0.003807948980057296
sS'video'
p53
F0.0026564436586544739
sS'mid-level'
p54
F0.004262585953983729
sS'machine learning'
p55
F0.00045808366305663122
sS'folk'
p56
F0.0078112318266763204
sS'scientific'
p57
F0.0022624714428496479
sS'latest/greatest'
p58
F0.0048743731158985828
sS'junior'
p59
F0.0025660625057897435
sS'clock'
p60
F0.0048077692819859337
sS'product.'
p61
F0.0072919280197123763
sS'standups.'
p62
F0.006483446667062619
sS'availability'
p63
F0.0030660205387997804
sS'ag/bio'
p64
F0.006483446667062619
sS'designing'
p65
F0.0019340437177321908
sS'new'
p66
F0.0036284041723309117
sS'method'
p67
F0.0030542988339899257
sS'movement'
p68
F0.0037089623534059032
sS'10+'
p69
F0.0029500915145181748
sS'evolving'
p70
F0.00266527067925956
sS'full'
p71
F0.0072383855516045736
sS'degree'
p72
F0.00085505499292606521
sS'platform.'
p73
F0.0092138836544729784
sS'commercial'
p74
F0.0043066580778095102
sS'understanding'
p75
F0.0011846660845869638
sS'perspective.'
p76
F0.005123621657836184
sS'explore'
p77
F0.0022525594413390707
sS'test'
p78
F0.001736932874037649
sS'focused'
p79
F0.0038110372923806216
sS'carefulness'
p80
F0.0048743731158985828
sS'address'
p81
F0.0021392402628184373
sS'strong'
p82
F0.0038502522219457003
sS'mindset'
p83
F0.0030819635138824987
sS'software development'
p84
F0.0014816188805543483
sS'great'
p85
F0.0037677909646001389
sS'skills.'
p86
F0.0025949099067466559
sS'talent'
p87
F0.0021490724987369963
sS'rds'
p88
F0.0039989289288860858
sS'technical'
p89
F0.0010749352984771273
sS'larger'
p90
F0.0031861101921648403
sS'bot'
p91
F0.0042923270587661086
sS'experience'
p92
F0.0023664730794670241
sS'throughput'
p93
F0.0077101551234555433
sS'launched'
p94
F0.003457083054445313
sS'handful'
p95
F0.005123621657836184
sS'engineers'
p96
F0.0027175128079533614
sS'via'
p97
F0.0069589592628786032
sS'love'
p98
F0.015688192754628329
sS'expect/demand'
p99
F0.0048743731158985828
sS'process/team'
p100
F0.0048743731158985828
sS'app'
p101
F0.0030504332033060161
sS'manage'
p102
F0.0060946924999831023
sS'logical'
p103
F0.0031093710930451628
sS'highly'
p104
F0.0027292872323561369
sS'punching'
p105
F0.0048743731158985828
sS'apply'
p106
F0.0014297211904760524
sS'establish'
p107
F0.0023819344959519224
sS'cloud'
p108
F0.010360868867526114
sS'open source'
p109
F0.0022347447518644963
sS'figure'
p110
F0.0036107225191488483
sS'working'
p111
F0.0054742855894663999
sS'perk'
p112
F0.0032514666724345908
sS'providers'
p113
F0.004463621252097206
sS'devops'
p114
F0.011545307303759725
sS'next'
p115
F0.010042957186281853
sS'distributing'
p116
F0.0043899941880110246
sS'classically'
p117
F0.006483446667062619
sS'live'
p118
F0.0024352404878920206
sS'program'
p119
F0.001519064812868461
sS'music'
p120
F0.0033389313972837036
sS'asset'
p121
F0.0020920531289924855
sS'type'
p122
F0.0019616163288638708
sS'today'
p123
F0.002298314441786721
sS'upcoming'
p124
F0.0038715208908229148
sS'successful'
p125
F0.0018052589474871375
sS'company'
p126
F0.001956538646806004
sS'line'
p127
F0.0023071264894681826
sS'problem'
p128
F0.001254181590843718
sS'integration.'
p129
F0.0044258384933305948
sS'master data management'
p130
F0.0035046393059275961
sS'continual'
p131
F0.0038715208908229148
sS'90'
p132
F0.0066934787374374159
sS'aligned'
p133
F0.0066320353418781808
sS'must'
p134
F0.001350067612562933
sS'code-level'
p135
F0.006483446667062619
sS'md'
p136
F0.0034300290839655973
sS'excellent'
p137
F0.0042382542836343681
sS'join'
p138
F0.001375311207022886
sS'hour'
p139
F0.0025686363366375789
sS'player'
p140
F0.0023529349649785529
sS'this'
p141
F0.012282478549970548
sS'flow/work'
p142
F0.006483446667062619
sS'challenge'
p143
F0.0016782935351338851
sS'enterprise-grade'
p144
F0.005123621657836184
sS'strategically'
p145
F0.0035145516340318286
sS'dev'
p146
F0.015765840613345374
sS'cat'
p147
F0.0046392425339838598
sS'mid-/long-term.'
p148
F0.006483446667062619
sS'evolved'
p149
F0.0089272425041944121
sS'following'
p150
F0.0033252133928835114
sS'meet'
p151
F0.0032917722832451748
sS'architecture/design'
p152
F0.0053587523703941759
sS'stream'
p153
F0.00284683606736226
sS'ethic.'
p154
F0.0043558991001744103
sS'process'
p155
F0.0011643317099526438
sS'awesome'
p156
F0.01011210236832526
sS'java/.net'
p157
F0.006483446667062619
sS'high'
p158
F0.0044761067617195326
sS'effectively'
p159
F0.0016541964015210824
sS'customer-facing'
p160
F0.0076780245507795646
sS'want'
p161
F0.0037239657658586093
sS'huge'
p162
F0.0060603532508099198
sS'goal'
p163
F0.0017608651724375132
sS'rather'
p164
F0.014308693182781973
sS'discussion'
p165
F0.0029456546632221445
sS'mid-tier'
p166
F0.0098960004906126706
sS'blob'
p167
F0.006483446667062619
sS'traders'
p168
F0.0048743731158985828
sS'amazing'
p169
F0.0032180246362325496
sS'optimal'
p170
F0.0029960819294928029
sS'opportunity'
p171
F0.00088405466990953627
sS'streams.'
p172
F0.0048743731158985828
sS'gaming'
p173
F0.007340972230559943
sS'fostered'
p174
F0.0048743731158985828
sS'attend'
p175
F0.0033626220131130207
sS'may'
p176
F0.0016135996283578665
sS"engineers'"
p177
F0.0050303083810023805
sS'tier'
p178
F0.0069514380308090609
sS'communicator'
p179
F0.0032865899200992697
sS'data'
p180
F0.001077441888447343
sS'compatibility'
p181
F0.0041548638673823985
sS'varied'
p182
F0.0031263469226370799
sS'a'
F0.0026136155047016443
sS'paas'
p183
F0.0040837370931794169
sS'vms.'
p184
F0.0048743731158985828
sS'provide'
p185
F0.0022133117196503392
sS'complexity'
p186
F0.0028663025153942158
sS'maintain'
p187
F0.0072141259305252272
sS'responsibility'
p188
F0.0016458861416225874
sS'on-prem/datacenter/hosting'
p189
F0.006483446667062619
sS'data-intensive'
p190
F0.0045035641733862947
sS'order'
p191
F0.00207276644414126
sS'talk'
p192
F0.0028278972396831741
sS'typical'
p193
F0.003231210029213265
sS'prioritizing'
p194
F0.0034852267432738566
sS'development.'
p195
F0.0083851483204913559
sS'feedback'
p196
F0.0025533336640523197
sS"don't"
p197
F0.0087208257546060076
sS'essence'
p198
F0.004463621252097206
sS'over'
p199
F0.0035348083425738451
sS'mission'
p200
F0.0016640183077441617
sS'left-and-right'
p201
F0.0048743731158985828
sS'brain'
p202
F0.0040837370931794169
sS'interpersonal'
p203
F0.0022674806735018729
sS'including'
p204
F0.0057645207163564138
sS'innovative'
p205
F0.0014157162965430362
sS'mentioned'
p206
F0.0082133019003320564
sS'developer'
p207
F0.005737624453388936
sS'perfect'
p208
F0.0031263469226370799
sS'group'
p209
F0.0049563286546726194
sS'interesting'
p210
F0.0028904014778175524
sS'solving'
p211
F0.0020614448974318133
sS'winning'
p212
F0.0035556698213998548
sS'platform'
p213
F0.021260134991748943
sS'production'
p214
F0.0035217303448750264
sS'might'
p215
F0.0031038029056413489
sS're-architect'
p216
F0.0057157233255410861
sS'good'
p217
F0.0017535990186917331
sS'mitigates'
p218
F0.006483446667062619
sS'love---explore'
p219
F0.0048743731158985828
sS'seeking'
p220
F0.00165072177305412
sS'within-'
p221
F0.006483446667062619
sS'framework'
p222
F0.0018858338051124326
sS"you've"
p223
F0.0063722203843296805
sS'strategic'
p224
F0.00337985501263569
sS'term'
p225
F0.0024395144502067086
sS'workload'
p226
F0.0034757190154045305
sS'installment'
p227
F0.0059990671512802681
sS'technology.'
p228
F0.00303518598669386
sS'system.'
p229
F0.0036107225191488483
sS'fully'
p230
F0.0030202643626211804
sS"technology'"
p231
F0.0049480002453063353
sS'entirely'
p232
F0.0050303083810023805
sS'front-end'
p233
F0.0034389312029751706
sS'development'
p234
F0.015232213866844261
sS'financial'
p235
F0.0017932554338750131
sS'another'
p236
F0.0029545567169114119
sS'develop ... system'
p237
F0.0032723280859398795
sS'globe'
p238
F0.0025922376475116648
sS'idea'
p239
F0.00337985501263569
sS'related'
p240
F0.0010448840297936303
sS'balanced'
p241
F0.0040837370931794169
sS'oil'
p242
F0.0035993595370406007
sS'expect'
p243
F0.0061639270277649974
sS'year'
p244
F0.0022265613997956009
sS'our'
p245
F0.0026680502109264577
sS'operation'
p246
F0.0032076171866443903
sS'beyond'
p247
F0.0026084266750746395
sS"'job"
p248
F0.0049480002453063353
sS'space'
p249
F0.0025188791201228499
sS'cerebral'
p250
F0.006483446667062619
sS'open'
p251
F0.0062489591677568736
sS'looking'
p252
F0.0013655647935567775
sS'escalate'
p253
F0.0038883604841870008
sS'world-class'
p254
F0.0025334378385473396
sS'sensor'
p255
F0.0061425891029819844
sS'math'
p256
F0.0020190819691624381
sS'architecture'
p257
F0.0076415601770952416
sS'code/product/technology'
p258
F0.006483446667062619
sS'data scientist'
p259
F0.00074030165280494634
sS'standard'
p260
F0.0035039890571951534
sS'small'
p261
F0.0020999193719694804
sS'reason'
p262
F0.0036959001315070884
sS'stand-up'
p263
F0.0046392425339838598
sS'imagine'
p264
F0.0038390122753897823
sS'solution/providers'
p265
F0.006483446667062619
sS'leverage'
p266
F0.0019498179455409864
sS'revolutionary'
p267
F0.0035046393059275961
sS"'who"
p268
F0.0049480002453063353
sS'training'
p269
F0.0032890213151954284
sS'organic'
p270
F0.0078466164730903228
sS'thread'
p271
F0.0049480002453063353
sS'created'
p272
F0.0063847550824545152
sS'days'
p273
F0.012251211279538252
sS'thing'
p274
F0.0024288781632412115
sS'critical/urgent'
p275
F0.006483446667062619
sS'hence'
p276
F0.0050303083810023805
sS'retail'
p277
F0.0024080793042742989
sS'first'
p278
F0.0080857389726873546
sS'ability'
p279
F0.0026605084623703866
sS'capability/sophistication'
p280
F0.006483446667062619
sS'coding'
p281
F0.0023799632989782516
sS'number'
p282
F0.0020689721763686511
sS'rank'
p283
F0.0044258384933305948
sS'one'
p284
F0.0034306967215268049
sS'self-driven'
p285
F0.0038715208908229148
sS'cloud-based'
p286
F0.006617087479345478
sS'team---if'
p287
F0.0048743731158985828
sS'thoughtfully'
p288
F0.0055146877008196357
sS'message'
p289
F0.0035451612372700819
sS'self-motivation.'
p290
F0.0048743731158985828
sS'quality'
p291
F0.0015144866980722961
sS'engineer'
p292
F0.008130263318955229
sS"you're"
p293
F0.0047958150300550497
sS'given'
p294
F0.0024590775293373622
sS'management'
p295
F0.00063315783871394278
sS'product/technology'
p296
F0.0048077692819859337
sS'publication'
p297
F0.0029153613113314528
sS'service'
p298
F0.0022751079787739822
sS'start'
p299
F0.0026742106310693493
sS'leading'
p300
F0.0037803033297151211
sS'top'
p301
F0.0036742134136742402
sS'achieved'
p302
F0.0036704861152799715
sS'system'
p303
F0.0033199675794755089
sS'remotely'
p304
F0.0038715208908229148
sS'priority'
p305
F0.0023938798995334775
sS'acquired'
p306
F0.0040615507865131417
sS'master'
p307
F0.0027239238417262608
sS'expand'
p308
F0.0060017038612165821
sS'autonomous'
p309
F0.0038715208908229148
sS'iaas'
p310
F0.004262585953983729
sS'by-product'
p311
F0.006483446667062619
sS'self-motivated'
p312
F0.0027774465181091726
sS'paas/saas'
p313
F0.006483446667062619
sS'continuous'
p314
F0.0025069743543728084
sS'serve'
p315
F0.0020999193719694804
sS'innovate'
p316
F0.0057013724314920102
sS'part'
p317
F0.0014388748883826089
sS'believe'
p318
F0.0039297378976098207
sS'embrace.'
p319
F0.0048743731158985828
sS'project'
p320
F0.0021020534866220638
sS'matter'
p321
F0.0019847091948170972
sS"'srum-of-scrum'"
p322
F0.006483446667062619
sS'architect'
p323
F0.0038701686515117874
sS'design'
p324
F0.0061233493082535756
sS"company's"
p325
F0.0026564436586544739
sS'toward'
p326
F0.0028782481149313591
sS'outstanding'
p327
F0.0025533336640523197
sS'experience.'
p328
F0.0024080793042742989
sS'spectrum'
p329
F0.0066022977996027148
sS'comfortable'
p330
F0.0022379501865700821
sS'say'
p331
F0.0035451612372700819
sS'teams.'
p332
F0.0028506862157460051
sS"'above-and-beyond'"
p333
F0.0049480002453063353
sS'horsepower'
p334
F0.0052313439404021514
sS'seen'
p335
F0.0038715208908229148
sS'viewed'
p336
F0.0042066512784259781
sS'data.'
p337
F0.0021823885527788548
sS'built'
p338
F0.0024309925080658159
sS"'clock-puncher'"
p339
F0.0049480002453063353
sS'efficient'
p340
F0.0023342496915191419
sS'fashion.'
p341
F0.0046392425339838598
sS'able'
p342
F0.0032193334679156186
sS'snow'
p343
F0.0048743731158985828
sS'incentive'
p344
F0.0036581175033830612
sS'also'
p345
F0.014816188805543484
sS'internal'
p346
F0.0031099917394855747
sS'build'
p347
F0.0023750357200520576
sS'off-shore'
p348
F0.0081231015730262833
sS'online'
p349
F0.0021838737420458065
sS'performance'
p350
F0.0013669488410951473
sS'encouraged'
p351
F0.0027080052107239343
sS'right-brain'
p352
F0.005123621657836184
sS'experienced'
p353
F0.0021118873129585647
sS'multiple'
p354
F0.0054475493982741206
sS'collaboration'
p355
F0.0071493205313024567
sS"technologists'"
p356
F0.0049480002453063353
sS'aws'
p357
F0.0036526573707640949
sS'business.'
p358
F0.0025975924244503778
sS'paid'
p359
F0.0023701898715755417
sS'beta'
p360
F0.0050303083810023805
sS'mid-tiers'
p361
F0.006483446667062619
sS'plan'
p362
F0.0016329271005816025
sS'significant'
p363
F0.0022252157412983773
sS'organization'
p364
F0.0024642681191917276
sS'hands-on'
p365
F0.0062335731958377359
sS'work/code'
p366
F0.006483446667062619
sS'bounced'
p367
F0.0048743731158985828
sS'luv'
p368
F0.006483446667062619
sS'software engineering'
p369
F0.0018183528921830968
sS'sql server'
p370
F0.0019551561630179047
sS'mobile'
p371
F0.004215750360151759
sS'cover'
p372
F0.0028945000284663798
sS'drive'
p373
F0.0013309480590030273
sS"you'll"
p374
F0.0019186177571053472
sS'tech'
p375
F0.0023305718556700275
sS'principle'
p376
F0.0023567327350984381
sS'enterprise'
p377
F0.0017047477952509802
sS'caching'
p378
F0.0045459293224716637
sS'professional'
p379
F0.0014805313657959421
sS'senior'
p380
F0.0015127776097884672
sS'consumer'
p381
F0.0018676332928648455
sS'incorporate'
p382
F0.0033160176709390904
sS'stack.'
p383
F0.0037929202506750779
sS'bring'
p384
F0.0034443781224195785
sS'planning'
p385
F0.0040738479354610344
sS'solutions'
p386
F0.0017822909931284236
sS'find'
p387
F0.0019769264623775559
sS'impact'
p388
F0.0031331514594565039
sS'based'
p389
F0.0027866016286562335
sS'knowledge'
p390
F0.0019376064895070878
sS'big data'
p391
F0.00088939561590682561
sS'guidance'
p392
F0.0022204995277691451
sS'distributed'
p393
F0.0021561812061845452
sS'operational'
p394
F0.0039671841088602649
sS'team.'
p395
F0.0067090368934864747
sS'going'
p396
F0.0035246065913884256
sS'developed'
p397
F0.0028131072765126743
sS'employee'
p398
F0.0045061482148046773
sS'amplifying'
p399
F0.006483446667062619
sS'etc..'
p400
F0.0046392425339838598
sS'handle'
p401
F0.0026955263543254919
sS'get'
p402
F0.004061851742114062
sS'scalable'
p403
F0.0041179074339643016
sS'maritime'
p404
F0.0047469647512282023
sS'geek'
p405
F0.0041303416966373928
sS'closely'
p406
F0.0016661410866538136
sS'relational'
p407
F0.0021172729127918372
sS'report'
p408
F0.0014502281063399223
sS'gen'
p409
F0.016521366786549571
sVManagement Science and Engineering
p410
F0.00090114922324870182
sS'resource'
p411
F0.0019247473345031095
sS'covering'
p412
F0.011291397000556523
sS'adhering'
p413
F0.0040400472468963555
sS'teams'
p414
F0.0076600009921569592
sS'qa'
p415
F0.015150883127024799
sS'common'
p416
F0.0025558609505632827
sS'activity'
p417
F0.01523616896814225
sS'analytical'
p418
F0.0012908893676727622
sS'identify'
p419
F0.0014368303434381673
sS'lifecycle'
p420
F0.0026391172451161039
sS'vision'
p421
F0.0018771533866800195
sS'set'
p422
F0.0015031709631823892
sS'supporting'
p423
F0.0041815013104415264
sS'physically'
p424
F0.004262585953983729
sS'intelligence'
p425
F0.0010971758280131231
sS'testing'
p426
F0.001430732365408814
sS'niche'
p427
F0.004262585953983729
sS'bi-weekly'
p428
F0.0045910295514460112
sS'culture'
p429
F0.01464639472211561
sS'see'
p430
F0.004709662539879398
sS'computer'
p431
F0.0018371067068371201
sS'college'
p432
F0.0027468373067913465
sS'result'
p433
F0.0038938978478870114
sS'job.'
p434
F0.0029819642307540436
sS'systemnot'
p435
F0.006483446667062619
sS'back-end'
p436
F0.0036830775981784676
sS'best'
p437
F0.0012863483080931702
sS'subject'
p438
F0.0018926605956866563
sS'hackathons'
p439
F0.0041066509501660282
sS'cloud-sharing'
p440
F0.006483446667062619
sS'expert'
p441
F0.0014601838605081505
sS'tackling'
p442
F0.0034389312029751706
sS'review'
p443
F0.0040428694863436773
sS'posse'
p444
F0.0026002852796864653
sS'please'
p445
F0.0047369280809456413
sS'written'
p446
F0.0014378518679927239
sS'various'
p447
F0.0079675693954784164
sS'captured'
p448
F0.0039792428467815503
sS'hopefully'
p449
F0.0046392425339838598
sS'operations.'
p450
F0.0035451612372700819
sS'numerous'
p451
F0.0034852267432738566
sS'across'
p452
F0.01492321578681227
sS'conferencing'
p453
F0.0048077692819859337
sS'tactically'
p454
F0.0050303083810023805
sS'co-development/code'
p455
F0.006483446667062619
sS'we'
p456
F0.019186815078797253
sS"way'."
p457
F0.0049480002453063353
sS'creating'
p458
F0.001734584119809941
sS'extend'
p459
F0.0033626220131130207
sS'nature'
p460
F0.0028863268259399313
sS'keyboard'
p461
F0.0042923270587661086
sS'genscape'
p462
F0.024371865579492915
sS'sold'
p463
F0.004262585953983729
sS'javascript'
p464
F0.0015495769490020573
sS'deliver'
p465
F0.0057330668972722645
sS'however'
p466
F0.013355725589134814
sS'dual-home'
p467
F0.0048743731158985828
sS'succeed'
p468
F0.0026742106310693493
sS'html5'
p469
F0.0028623656011773106
sS'key'
p470
F0.0013767147183254551
sS'come'
p471
F0.0087653896481555311
sS'relying'
p472
F0.0048077692819859337
sS'patented'
p473
F0.004262585953983729
sS'talented'
p474
F0.0065695388083033546
sS'data visualization'
p475
F0.0013743770968410907
sS'career'
p476
F0.0047920699282110197
sS'many'
p477
F0.0086247248247381808
sS'trader'
p478
F0.0045035641733862947
sS'annual'
p479
F0.0026712179208536781
sS"'support"
p480
F0.0049480002453063353
sS'etc'
p481
F0.0030415787396065154
sS'streams'
p482
F0.005123621657836184
sS'agile'
p483
F0.0045779661901457222
sS'operating'
p484
F0.0019914498071384925
sS'break-fix'
p485
F0.006483446667062619
sS'whole'
p486
F0.0029069419182020024
sS'skill'
p487
F0.0026300732515089839
sS'wall'
p488
F0.0041548638673823985
sS'others'
p489
F0.0037108959527375101
sS'near-term'
p490
F0.0045459293224716637
sS'community'
p491
F0.0018517410033747784
sS'on-prem'
p492
F0.005123621657836184
sS'60'
p493
F0.0031861101921648403
sS'awesomely'
p494
F0.0059990671512802681
sS'simply'
p495
F0.0069141661088906259
sS'variety'
p496
F0.0017657515977928262
sS'trust'
p497
F0.0028058280494611169
sS'conference'
p498
F0.0026802347792853724
sS'ensures'
p499
F0.0029325106719325362
sS'java'
p500
F0.00086601465245861873
sS'hard-products'
p501
F0.0048743731158985828
sS'would'
p502
F0.0064303114459963121
sS'rebuild'
p503
F0.0055146877008196357
sS'strategy'
p504
F0.0022012738381926413
sS'much'
p505
F0.0094847646521473723
sS'seasoned'
p506
F0.0036581175033830612
sS'basic'
p507
F0.0017723204493238249
sS'collaborator'
p508
F0.0036959001315070884
sS'flexible'
p509
F0.0021838737420458065
sS'meeting'
p510
F0.0024701873257765364
sS'attractive'
p511
F0.0040400472468963555
sS'direction'
p512
F0.0020842744570535579
sS'enable'
p513
F0.0020028307087976019
sS'success.'
p514
F0.0026564436586544739
sS'as-is'
p515
F0.006483446667062619
sS'gas'
p516
F0.0032794226198248986
sS'well-run'
p517
F0.006483446667062619
sS'environment.'
p518
F0.0024906412328663686
sS'understand'
p519
F0.007343395574578181
sS'deep'
p520
F0.0017025046120025566
sS'stand-ups'
p521
F0.0048743731158985828
sS'scrum/agile'
p522
F0.0057157233255410861
sS'f2f'
p523
F0.0048077692819859337
sS'look'
p524
F0.0025558609505632827
sS'developing'
p525
F0.0013097800642445628
sS'these'
p526
F0.0025212846062990174
sS'business intelligence'
p527
F0.0014277032206669608
sS'value'
p528
F0.001301741598946065
sS'employ'
p529
F0.0025022686623841972
sS'frameworks'
p530
F0.0038390122753897823
sS'entrepreneurial'
p531
F0.0025686363366375789
sS'optimization'
p532
F0.0027952604575660965
sS'fun'
p533
F0.002492951292029001
sS'balance'
p534
F0.0027111600582997875
sS'invited'
p535
F0.0045910295514460112
sS'application development'
p536
F0.0026772162134774597
sS'welding'
p537
F0.0048743731158985828
sS'layer'
p538
F0.0034212389450891897
sS'30'
p539
F0.0028354112891791072
sS'rock-climbing'
p540
F0.0048743731158985828
sS'ip'
p541
F0.0031861101921648403
sS'it'
p542
F0.0029224802705028244
sS'encouragement'
p543
F0.0041548638673823985
sS'verticals'
p544
F0.0050303083810023805
sS'need'
p545
F0.0037286324786413336
sS'embrace'
p546
F0.014029140247305586
sS'in'
p547
F0.0044253571215528481
sS'ready'
p548
F0.002530990223538059
sS'partner'
p549
F0.001447631581091348
sS'technology'
p550
F0.016832247465719874
sS'diagnostic'
p551
F0.0035993595370406007
sS'if'
p552
F0.0016682703347705326
sS'uptime'
p553
F0.0043233904194199275
sS'pas'
p554
F0.0031798985541894296
sS'develop'
p555
F0.0031922252035001906
sS'combination'
p556
F0.0020933580351448671
sS'tools/etc'
p557
F0.0048743731158985828
sS'make'
p558
F0.0026435948234843302
sS'cross'
p559
F0.0026278004652230576
sS'configurable'
p560
F0.0053587523703941759
sS'member'
p561
F0.0058555513204575291
sS'complex'
p562
F0.0011503063558433819
sS'largest'
p563
F0.0019015370618174893
sS'between-teams.'
p564
F0.006483446667062619
sS'week'
p565
F0.0026194315549316295
sS'evolve'
p566
F0.009328113279135488
sS'used'
p567
F0.0018761955189897774
sS'practitioner'
p568
F0.0035246065913884256
sS'bonus'
p569
F0.00266527067925956
sS'comprehensive'
p570
F0.0018819625217447291
sS'third-party'
p571
F0.0031149840058494502
sS'code-related'
p572
F0.006483446667062619
sS"quarter's"
p573
F0.006483446667062619
sS'scale'
p574
F0.0034817301918593116
sS'footprint'
p575
F0.0038883604841870008
sS'changing'
p576
F0.0023106826617697246
sVPhysics
p577
F0.0018334955284417124
sS'stack'
p578
F0.0050092350944817253
sS'normalization'
p579
F0.004234059118871882
sS'process development'
p580
F0.0041548638673823985
sS'reflection'
p581
F0.0045035641733862947
sS'database'
p582
F0.0013757787309010585
sS'i'
F0.0058138838364040048
sS'market data'
p583
F0.0042923270587661086
sS'well'
p584
F0.0052579061670245146
sS'user experience'
p585
F0.0023586393886141548
sS'client'
p586
F0.0012802031441902469
sS'solve'
p587
F0.001622863402934381
sS'greatest'
p588
F0.0032865899200992697
sS'consistency'
p589
F0.003457083054445313
sS'position'
p590
F0.0021756454685946738
sS'the'
p591
F0.0068493238315987526
sS'reward'
p592
F0.0058222778693687157
sS'know'
p593
F0.0090901042944495046
sS'unified'
p594
F0.011049232794535404
sS'nosql'
p595
F0.0019125414844629784
sS'being'
p596
F0.0036340182796784134
sS'hybrid'
p597
F0.0036107225191488483
sS'resolution'
p598
F0.0028506862157460051
sS'rest'
p599
F0.0024999276467220911
sS'defect/issue'
p600
F0.006483446667062619
sS'product'
p601
F0.015978252370511314
sS'software/data-based'
p602
F0.0048743731158985828
sS'product strategy'
p603
F0.0033160176709390904
sS'aspect'
p604
F0.0022608096476482327
sS'day-to-day'
p605
F0.011180197760655141
sS'flavor'
p606
F0.0046392425339838598
sS'alignment'
p607
F0.0030453137437547587
sS'discipline'
p608
F0.0017624901867685204
sS'web'
p609
F0.0019135505341505172
sS'work.'
p610
F0.0053848823037094314
sS'majority'
p611
F0.0075564158811924596
sS'thinking'
p612
F0.0023529349649785529
sS"we've"
p613
F0.0032938314949147651
sS'capabilities'
p614
F0.003346739368718708
sVComputer Science
p615
F0.00063267347753472936
sS'standards/work'
p616
F0.0048743731158985828
sS'smart'
p617
F0.0025533336640523197
sS'real'
p618
F0.0020285409754206593
sS'customers'
p619
F0.0052896902278389314
sS'around'
p620
F0.0033379630571383659
sS'rules'
p621
F0.0050303083810023805
sS'big'
p622
F0.0032311488176345444
sS'collaboratively'
p623
F0.0024373742013891111
sS'environments'
p624
F0.0032723280859398795
sS'deployment'
p625
F0.0041972043327230413
sS'using'
p626
F0.0020950200188096968
sS'necessary'
p627
F0.0022965652896230642
sS'like'
p628
F0.0032672063919142172
sS'success'
p629
F0.0017424442021714938
sS'identifying'
p630
F0.0019530159795160707
sS'50'
p631
F0.0028316441646780025
sS'benefit'
p632
F0.0032115117086697529
sS'continue'
p633
F0.0067090368934864747
sS'micro-management.'
p634
F0.0048743731158985828
sS'bunch'
p635
F0.0059990671512802681
sS'initiative'
p636
F0.0019298967144885108
sS'passionate'
p637
F0.007658244172606612
sS'soft'
p638
F0.0037637990001855074
sS'essential'
p639
F0.0043559036642372394
sS'often'
p640
F0.003231210029213265
sS'verbal'
p641
F0.001797518769203383
sS'some'
p642
F0.0026832664411478436
sS'scrum'
p643
F0.016618579979249811
sS'software design'
p644
F0.002809458184613717
sS'urgent'
p645
F0.0043899941880110246
sS'growth'
p646
F0.0017432350956487731
sVMaster
p647
F0.00050823248443338702
sS'band'
p648
F0.0032446490054388924
sS'left-'
p649
F0.005123621657836184
sS'sprint'
p650
F0.0036459640098561882
sS'delivered'
p651
F0.0031038029056413489
sS'technologist'
p652
F0.014662553359662682
sS'collaborative'
p653
F0.0038722529717313712
sS'lead'
p654
F0.013455742822261188
sS'broad'
p655
F0.0064685436185536365
sS'saas'
p656
F0.0021576116675057033
sS'integration'
p657
F0.0032232608276654261
sS'/'
F0.0032232608276654261
sS'competitions'
p658
F0.0042066512784259781
sS'critical'
p659
F0.0057165559385709335
sS'passion'
p660
F0.0056487850007852503
sS'innovation'
p661
F0.0013527775486615818
sS'over-used'
p662
F0.0048743731158985828
sS'prod'
p663
F0.0055146877008196357
sS'restoring'
p664
F0.0045459293224716637
sS'core'
p665
F0.0069729403825950923
sS"'are"
p666
F0.0049480002453063353
sS'product development'
p667
F0.0018263286853820474
sS'business'
p668
F0.0016429550850399492
sS'business-critical'
p669
F0.0041303416966373928
sS'equivalent'
p670
F0.0016438239297183418
sS'communicate'
p671
F0.0014019866403085898
sS'comp-sci'
p672
F0.0048743731158985828
sS'24-hour'
p673
F0.0048077692819859337
sS'leadership'
p674
F0.0023094460114658588
sS'become'
p675
F0.0025764152045269295
sS'assemble'
p676
F0.0041303416966373928
sS'boards'
p677
F0.0053587523703941759
sS'extension'
p678
F0.0039414601533363436
sS'industry'
p679
F0.0011432302362076974
sS'basis'
p680
F0.0022574978667813986
sS'in-depth'
p681
F0.0026863113131922497
sS'dependency'
p682
F0.0037782079405962298
sS'range'
p683
F0.0035729754966963997
sS'ensure'
p684
F0.011383413218413789
sS'azure'
p685
F0.0062412847367279466
sS'shared'
p686
F0.0026306125245008222
sS'software'
p687
F0.01124051041497052
sS'explore/interact'
p688
F0.0048743731158985828
sS'previously'
p689
F0.0034948656172483867
sS'communication'
p690
F0.0011063377771564336
sS'within'
p691
F0.0012741115654801823
sS'commitment'
p692
F0.0072427626536680743
sS'strategy.'
p693
F0.0030504332033060161
sS'problem solving'
p694
F0.0017153122746004549
sS'contributor'
p695
F0.0056483405974633652
sS"platform's"
p696
F0.0059990671512802681
sS'technically'
p697
F0.0036704861152799715
sS'rely'
p698
F0.003457083054445313
sS'extremely'
p699
F0.0030819635138824987
sS'support'
p700
F0.0088570615082312881
sS'there'
p701
F0.0033707007894417532
sS'enterprise/large-scale'
p702
F0.006483446667062619
sS'specifically'
p703
F0.0029196093564763889
sS'accountability'
p704
F0.0091359412312642767
sS'systems.'
p705
F0.0027369251093271587
sS'overtime'
p706
F0.0035246065913884256
sS'camera'
p707
F0.0041548638673823985
sS"we're"
p708
F0.0019725178003833156
sS'way'
p709
F0.0015525822701572584
sS'heritage'
p710
F0.004234059118871882
sS'appdev'
p711
F0.006483446667062619
sS'exceptional'
p712
F0.0063156394993995257
sS'energy'
p713
F0.0086247248247381808
sS'happy'
p714
F0.0032865899200992697
sS'function'
p715
F0.0018975780375975822
sS'system architecture'
p716
F0.0031263469226370799
sS'real-time'
p717
F0.0026002852796864653
sS'complete'
p718
F0.0024225732455737726
sS'offering'
p719
F0.0050329637725672659
sS'offer'
p720
F0.0043868940281933675
sS'forming'
p721
F0.0042066512784259781
sS'amongst'
p722
F0.0049480002453063353
sS'delivery'
p723
F0.01060432818008682
sS'roadmaps'
p724
F0.003457083054445313
sS'crank'
p725
F0.006483446667062619
sS'solar'
p726
F0.0049480002453063353
sS'services.'
p727
F0.0052839506212989384
sS'remote'
p728
F0.0028822757957439726
sS'technologies'
p729
F0.0023454007918726196
sS'highest'
p730
F0.0026535259242469566
sS'analyst'
p731
F0.0015721286441257622
sS'hire'
p732
F0.0024612854027250058
sS'platforms'
p733
F0.0031206423683639733
sS'characteristic'
p734
F0.0020753074509212485
sS'genscape.'
p735
F0.0097487462317971656
sS'us'
p736
F0.0016921306081056208
sV(10, 15]
p737
F0.0013678730651281333
sS'invest'
p738
F0.003161588217382457
sS"genscape's"
p739
F0.014844000735919006
sS'demonstrate'
p740
F0.0070474731724565363
sS'distribution'
p741
F0.0028863268259399313
sS'detailed'
p742
F0.0025188791201228499
sS'gone'
p743
F0.0045459293224716637
sS'associated'
p744
F0.0024019584799048989
sS'contributors'
p745
F0.0057157233255410861
sS'co-located'
p746
F0.0048077692819859337
sS'moved'
p747
F0.0045459293224716637
sS'life'
p748
F0.0046831998048343128
sS'proven'
p749
F0.0018307993402644513
sS'an'
p750
F0.0050473968036465339
sS'engineering'
p751
F0.00085594324044280549
sS'diverse'
p752
F0.0015752327740989607
sS'hobbies'
p753
F0.0048743731158985828
sS'software---not'
p754
F0.0048743731158985828
sS'as'
p755
F0.0028777497767652179
sS'vertical'
p756
F0.0035993595370406007
sS'mutual'
p757
F0.003807948980057296
sS'contest'
p758
F0.0045910295514460112
sS'composing'
p759
F0.0048743731158985828
sS'detail'
p760
F0.0020564713866793034
sS'refactor'
p761
F0.0053587523703941759
sS'reality'
p762
F0.0038390122753897823
sS'power'
p763
F0.0020466293237036831
sS'field'
p764
F0.0011939772422012405
sS'role'
p765
F0.014072091189313154
sS'nat'
p766
F0.006483446667062619
sS'database development'
p767
F0.0038883604841870008
sS'cultures.'
p768
F0.0047469647512282023
sS'you'
p769
F0.0090102023391733944
sS'developers'
p770
F0.0032583515102881776
sS'dynamic/distributed'
p771
F0.0048743731158985828
sS'center'
p772
F0.0022708402225057448
sS'problems'
p773
F0.0024331132699264846
sS'cranking'
p774
F0.0048743731158985828
sS'and/or'
p775
F0.0025425738104922525
sS'sql'
p776
F0.00047655056522225513
sS'throughout'
p777
F0.0022509210252052029
sS'pool'
p778
F0.004234059118871882
sS'exposure'
p779
F0.0025842816434545131
sS'building'
p780
F0.0013278845061815419
sS'land'
p781
F0.0040615507865131417
sS'individual'
p782
F0.0042952350180068847
sS'home'
p783
F0.0027239238417262608
sS'physics'
p784
F0.0017002686075797786
sS'data management'
p785
F0.0019216758243251367
sS'daily'
p786
F0.0025790275236307228
sS'experts'
p787
F0.0026002852796864653
sS'portion'
p788
F0.0082133019003320564
sS'summit'
p789
F0.0045035641733862947
sS'u'
F0.0029298994480744371
sS"function'"
p790
F0.0049480002453063353
sS'time'
p791
F0.0026375472781638726
sS'augmented'
p792
F0.0042066512784259781
sS'requires'
p793
F0.0063640185887749419
sS'code.'
p794
F0.004463621252097206
sS'once'
p795
F0.0040837370931794169
s.