(dp1
S''
F0.0036670110975793734
sS'help'
p2
F0.0048417280871807964
sS'nosql'
p3
F0.0069990296156214743
sS'using'
p4
F0.0021472754047544076
sS'manipulation'
p5
F0.008714126513798227
sS'dynamic'
p6
F0.011425920109121083
sS'valuable'
p7
F0.0091918052216036841
sS'cross'
p8
F0.0086249504390364558
sS'attitude'
p9
F0.0090618259685993473
sS'deadline'
p10
F0.0088769190359357757
sS'aspect'
p11
F0.0073139876529322466
sS'innovative'
p12
F0.0037151194044493904
sS'digital analytics'
p13
F0.013714990190184897
sS'skill'
p14
F0.0056799452823775567
sS'decisions'
p15
F0.01003030565953628
sS'r d'
p16
F0.0012220675948353492
sS'discipline'
p17
F0.0051918240072475327
sS'current'
p18
F0.0054447655590621176
sS'derive'
p19
F0.01026852013214517
sS'knowledge'
p20
F0.0036421427729182399
sS'big data'
p21
F0.0065571021047026151
sS'application'
p22
F0.0030507935504385081
sS'thinking'
p23
F0.0077387617223312697
sS'technique'
p24
F0.0031173083570559348
sS'platform'
p25
F0.0066896665510381807
sS'setting'
p26
F0.0074961707969222096
sS'monday-thursday'
p27
F0.021171885372905486
sS'matlab'
p28
F0.006584220021616855
sS'easy'
p29
F0.010857270270978844
sS'life-cycle'
p30
F0.013014658517566039
sS'transformation'
p31
F0.0072166354230776986
sS'colleague'
p32
F0.0077880883426625774
sS'do'
p33
F0.005958035626854266
sS'team-orientation'
p34
F0.019965145190789475
sS'collaborate'
p35
F0.0049110503366084548
sS'greater'
p36
F0.0094266974833350017
sS'value-creating'
p37
F0.018758405614204068
sS'python'
p38
F0.0021622489980666162
sS'finding'
p39
F0.0057924299001006294
sS'balancing'
p40
F0.012110855131342491
sS'disaggregate'
p41
F0.019108949757650307
sS'applying'
p42
F0.012569087367228979
sS'one'
p43
F0.002556268768511932
sS'you'
p44
F0.012671002652760778
sS'advanced'
p45
F0.016211780078001704
sS'timely'
p46
F0.0079851316441611319
sS'like'
p47
F0.0046429604592808623
sS'database management'
p48
F0.012448137435531255
sS'approach'
p49
F0.0043549134738350538
sS'solution'
p50
F0.0016362185246845461
sS'c++'
p51
F0.008011822297875117
sS'across'
p52
F0.0025748935040897326
sS'capability'
p53
F0.0049205218136940069
sS'either'
p54
F0.0084028352336838214
sS'team'
p55
F0.0024323339217402558
sS'including'
p56
F0.005333666355892404
sS'waltham'
p57
F0.016236693057986629
sS'partnering'
p58
F0.010743229059564713
sS'predictive'
p59
F0.0043864562269399126
sS'set'
p60
F0.012205410527419375
sS'statistical'
p61
F0.0042294765309789711
sS'e.g.'
p62
F0.014629731931961923
sS'people'
p63
F0.0031069779838803721
sS'client'
p64
F0.012552309505477938
sS'group.'
p65
F0.01348144613776007
sS'play'
p66
F0.0077224995569003807
sS'identify'
p67
F0.003702494203746512
sS'roadmap'
p68
F0.0087482687483765326
sS'analytics'
p69
F0.0030222590588604376
sS'professional'
p70
F0.0039911212546907921
sS'alteryx'
p71
F0.013654863690599274
sS'pricing'
p72
F0.020239368877640045
sS'year'
p73
F0.0008473555008853801
sS'understanding/coursework'
p74
F0.016695473026597584
sS'80'
p75
F0.013317579569863056
sS'econometrics'
p76
F0.010047967957357679
sV(2, 5]
p77
F0.0023361123572882849
sS'ability'
p78
F0.0043895371819874596
sS'what'
p79
F0.0053739564144610506
sS'and/or'
p80
F0.003100110949188693
sS'degree'
p81
F0.0013278711497619032
sS'lead'
p82
F0.0068328766530100062
sS'distinctive'
p83
F0.014632545888735471
sS'decision'
p84
F0.0037533197522439565
sS'creative'
p85
F0.0057671040992369723
sS'content'
p86
F0.0065294143894055823
sS'future'
p87
F0.0041527659715142988
sS'stata'
p88
F0.011254675441702671
sS'conduct'
p89
F0.0068381310088978797
sS'problem-solving'
p90
F0.0088060576430681933
sS'cause'
p91
F0.0098097540902393528
sS'method'
p92
F0.004300505863665865
sS'math'
p93
F0.0070117744219103471
sS'consultant'
p94
F0.0085065396886271853
sS'impact'
p95
F0.0043575292997993908
sS'data analysis'
p96
F0.0083006481465818273
sS'assembly'
p97
F0.013162266644859151
sS'creating'
p98
F0.0050729855149827807
sS'business'
p99
F0.0023446764217154559
sS'strategies.'
p100
F0.013839014861276989
sS'marketing'
p101
F0.015228947534905448
sS'communicate'
p102
F0.0036753220627801426
sS'understanding'
p103
F0.0027312739789678649
sS'shape'
p104
F0.0093980812577425538
sS'statistics'
p105
F0.006417507023247916
sS'i.e.'
p106
F0.0092589876763369706
sS'along'
p107
F0.0083124940686187757
sS'strong'
p108
F0.0035711869294270801
sS'generate'
p109
F0.0069990296156214743
sS'improve'
p110
F0.0040050359197196126
sS'c'
F0.0069423440084264865
sS'data visualization'
p111
F0.0050930236448929198
sS'package'
p112
F0.0056557323345410963
sS'technical'
p113
F0.0022640476584147953
sS'marketing analytics'
p114
F0.021714540541957688
sS'programming'
p115
F0.0030932597336361944
sS'through'
p116
F0.0096505676305953143
sS'spss'
p117
F0.0072372301627265231
sS'etc'
p118
F0.012487660977190203
sS'ensure'
p119
F0.0046114424183614239
sS'context'
p120
F0.0086915807194151498
sS'social'
p121
F0.0051165733267400848
sS'promotion'
p122
F0.010857270270978844
sS'create'
p123
F0.010695111572678434
sS'consulting'
p124
F0.018443100541011118
sS'attribution modeling'
p125
F0.016381901274389845
sS'communication'
p126
F0.002333460991442317
sS'within'
p127
F0.0062242773704423776
sS'number'
p128
F0.0064970090942171634
sS'intellectual'
p129
F0.010927853355075946
sS'linking'
p130
F0.016865586747972207
sS'solve'
p131
F0.0046516145594226177
sS'problem solving'
p132
F0.0056155189866690502
sS'data mining'
p133
F0.013207061751681851
sS'apply'
p134
F0.0037747560858792501
sS'next'
p135
F0.0062398682030093966
sS'undergraduate'
p136
F0.011024646146417398
sS'ecommerce'
p137
F0.011972405125943877
sS'management'
p138
F0.0025349226461584095
sS'eye'
p139
F0.012075634136724333
sS'marketing mix modeling'
p140
F0.018444833256467699
sS'analytic'
p141
F0.026687185771543279
sV(5, 10]
p142
F0.0035972900485992808
sS'transfer'
p143
F0.011744611516011584
sS'support'
p144
F0.0018819174512936312
sS'transform'
p145
F0.0077633228277641858
sS'least'
p146
F0.0048641400465886742
sS'strategy'
p147
F0.0083595199768231893
sS'extraction'
p148
F0.0087944097386845228
sS'Bachelor'
p149
F0.0010117713312861449
sS'way'
p150
F0.0085958793621540748
sS'recommend'
p151
F0.0082152303395442994
sS'advanced analytics'
p152
F0.012983284714843241
sS'organization.'
p153
F0.0090745713803340681
sS'data management'
p154
F0.006954847817877397
sS'optimizing'
p155
F0.01003030565953628
sS'buy'
p156
F0.011335480140224324
sS'sql/rdbms'
p157
F0.020507768266192401
sS'business problem'
p158
F0.0055018828086434712
sS'tool'
p159
F0.0070983715303087691
sS'2-9'
p160
F0.021171885372905486
sS'independently'
p161
F0.0062349454153241366
sS'new'
p162
F0.0046483729485177335
sS'understand'
p163
F0.0039911212546907921
sS'dissemination'
p164
F0.014103737099933978
sS'excellent'
p165
F0.003702494203746512
sS'line'
p166
F0.0075112389370163976
sS'calculus'
p167
F0.014318975347577969
sS'with'
p168
F0.0063708058219667024
sS'population'
p169
F0.01214649795155491
sS'customer'
p170
F0.0024290630551667405
sS'wide'
p171
F0.006304616821717202
sS'ma'
p172
F0.010137886889907535
sS'look'
p173
F0.0085705426187981919
sS'developing'
p174
F0.0032640201372790031
sS'linear algebra'
p175
F0.013317579569863056
sS"clients'"
p176
F0.013014658517566039
sS'hands-on'
p177
F0.0065348497497921777
sS'project'
p178
F0.0023308119876410101
sS'r'
F0.0023721391303721489
sS'architect'
p179
F0.0059268285926963931
sS'operations research'
p180
F0.015761400916443988
sS'situation'
p181
F0.010857270270978844
sS'root'
p182
F0.010287659081186619
sS'extracting'
p183
F0.010326310237799601
sS'data-driven'
p184
F0.0064809378356678205
sS'san'
p185
F0.0069485893453843581
sS'willingness'
p186
F0.0092862911566241428
sS'process'
p187
F0.0026653601595456379
sS'measurement'
p188
F0.0089617813757201757
sS'statistical data analysis'
p189
F0.014471632750771958
sS'deep'
p190
F0.0049363749268130572
sS'sale'
p191
F0.01444696902203316
sS'as'
p192
F0.003813735141863811
sS'medium'
p193
F0.0064122816563817343
sS'experience'
p194
F0.00061915330023227047
sS'our'
p195
F0.00336725971425836
sS'sas'
p196
F0.0044076720831472804
sS'modeling'
p197
F0.0028740035056611475
sS'work'
p198
F0.0011556658422611306
sS'technology'
p199
F0.0015811824911699053
sS'preferably'
p200
F0.0080933614144861159
sS'transformative'
p201
F0.013776356510857348
sS'issue'
p202
F0.0050300270909895218
sS'open'
p203
F0.0065676720800237317
sS'insight'
p204
F0.0092951899953129281
sS'travel'
p205
F0.0054789041612206494
sS'excel'
p206
F0.0058009199659424015
sS'tableau'
p207
F0.0059179720873062903
sS'who'
p208
F0.0078721610564851524
sS'data'
p209
F0.00076648143111033185
sS'member'
p210
F0.003920247768403144
sS'also'
p211
F0.0039957522479539404
sS'complex'
p212
F0.0052220830405658464
sS'role'
p213
F0.002680212801938313
sS'digital'
p214
F0.0053924276271010178
sS'database development'
p215
F0.01560105888236483
sS'mathematics'
p216
F0.0048240743170289138
sS'advise'
p217
F0.0115039851202036
sS'mroi'
p218
F0.019506364011120644
sS'channel'
p219
F0.0091131384466878029
sS'development'
p220
F0.001376451684741825
sS'product'
p221
F0.0017040644857314554
sS'multiple'
p222
F0.0034859027365568809
sS'qualification'
p223
F0.0068623253908309447
sS'may'
p224
F0.0045577765105918201
sS'mongodb'
p225
F0.0097610977579538818
sS'reporting'
p226
F0.0057755221032292437
sS'qualifications'
p227
F0.0022666378198485065
sS'proficiency'
p228
F0.0054750915816684084
sS'state-of-the-art'
p229
F0.0097450541710974673
sS'curiosity'
p230
F0.0086469951842228082
sS'quantitative'
p231
F0.013104046998284095
sS'infinite'
p232
F0.019108949757650307
sS'core'
p233
F0.0051098258034567821
sS'opportunity'
p234
F0.0014513368425378911
sS'francisco.'
p235
F0.018161172612580913
sS'expand'
p236
F0.010465684867310971
sS'demand'
p237
F0.0090745713803340681
sS'organization'
p238
F0.0031888762015330314
sS'center'
p239
F0.0073567051910355119
sS'effective'
p240
F0.006119177807373791
sS'java'
p241
F0.0041945879008036136
sS'corporate'
p242
F0.0070568160885398383
sS'statistic'
p243
F0.0026446903038525112
sS'drive'
p244
F0.0031311382423753432
sS'analysis'
p245
F0.0014919940476942623
sS'academic'
p246
F0.0076032861375476051
sS"you'll"
p247
F0.035140223335472426
sS'practices'
p248
F0.011362910055851156
sS"firm's"
p249
F0.014471632750771958
sS'broad'
p250
F0.020605214549200529
sS'every'
p251
F0.0048486662292312951
sS'model'
p252
F0.0021924243217832386
sS'hadoop'
p253
F0.003541075006245703
sS'consumer'
p254
F0.011279163430854916
sS'order'
p255
F0.0065131676278081616
sS'external'
p256
F0.0052231655003695367
s.