(dp1
S'related field'
p2
F0.0086269999999999993
sS'global'
p3
F0.0089309999999999997
sS'communicate complex idea'
p4
F0.019066
sS'major'
p5
F0.013318999999999999
sS'including'
p6
F0.0087670000000000005
sS'next generation'
p7
F0.014996000000000001
sS'skill'
p8
F0.0047809999999999997
sS'developer'
p9
F0.01175
sS'make sure'
p10
F0.024093
sS'delay'
p11
F0.030752000000000002
sS'rapid'
p12
F0.021273
sS'knowledge'
p13
F0.0047629999999999999
sS'also'
p14
F0.0085830000000000004
sS'quantumblack headquarters'
p15
F0.034757999999999997
sS'writing'
p16
F0.012659999999999999
sS'platform'
p17
F0.014241
sS'location'
p18
F0.010427000000000001
sS'colleague'
p19
F0.015035
sS'railway determining optimal crew deployment'
p20
F0.033959000000000003
sS'closely'
p21
F0.017401
sS'hands-on experience'
p22
F0.033494999999999997
sS'work effectively'
p23
F0.018149999999999999
sS'advanced'
p24
F0.032371999999999998
sS'world-leading bank figuring'
p25
F0.032656999999999999
sS'level'
p26
F0.007646
sS'7 year'
p27
F0.016215
sS'advanced degree'
p28
F0.014629
sS'often attend tech meetups hack fests contribute'
p29
F0.034757999999999997
sS'mckinsey'
p30
F0.041225999999999999
sS"additionally you'll"
p31
F0.028785999999999999
sS'etl process'
p32
F0.022828000000000001
sS'team'
p33
F0.0059410000000000001
sS'small'
p34
F0.014522999999999999
sS'london'
p35
F0.030009999999999998
sS'surgery scheduling working'
p36
F0.033959000000000003
sS'mean'
p37
F0.016667999999999999
sS'large quantity data'
p38
F0.034757999999999997
sS'work'
p39
F0.0036089999999999998
sS'people'
p40
F0.0067039999999999999
sS'startup'
p41
F0.016774000000000001
sS'restful apis'
p42
F0.025332
sS'big data technology'
p43
F0.014522999999999999
sS'analytics'
p44
F0.0047520000000000001
sS'result'
p45
F0.0066930000000000002
sS'face new intellectual challenge'
p46
F0.032111000000000001
sS'close'
p47
F0.020181000000000001
sS'best'
p48
F0.0089490000000000004
sS'creating'
p49
F0.010507000000000001
sS'exceptional analytical'
p50
F0.025474
sS'project'
p51
F0.0083909999999999992
sS'verbally'
p52
F0.020338999999999999
sS'provider'
p53
F0.015956000000000001
sS'complex data'
p54
F0.019501999999999999
sS'across'
p55
F0.011582
sS'architecture'
p56
F0.010033
sS'core'
p57
F0.010787
sS'ability'
p58
F0.0088269999999999998
sS'wework south station'
p59
F0.034757999999999997
sS'deliver'
p60
F0.0070660000000000002
sS'data scientist'
p61
F0.0034229999999999998
sS'understanding'
p62
F0.0066579999999999999
sS'across many different'
p63
F0.033266999999999998
sS'management'
p64
F0.017576999999999999
sS'focused'
p65
F0.011405
sS'key'
p66
F0.0083029999999999996
sS'modeling'
p67
F0.0087460000000000003
sS'problem'
p68
F0.0071700000000000002
sS'care'
p69
F0.025368000000000002
sS'great'
p70
F0.012252000000000001
sS'language'
p71
F0.010181000000000001
sS'sql dbms mongodb hadoop'
p72
F0.034757999999999997
sS'industry'
p73
F0.0058950000000000001
sS'etc'
p74
F0.0074599999999999996
sS"client's"
p75
F0.023185000000000001
sS'qualification'
p76
F0.015559
sS'etl'
p77
F0.015602
sS'ingestion'
p78
F0.024204
sS'consulting'
p79
F0.012947
sS'regardless'
p80
F0.022492999999999999
sS'point'
p81
F0.018550000000000001
sS'within'
p82
F0.0062199999999999998
sS'community'
p83
F0.0093620000000000005
sS'high-tech initiative'
p84
F0.034757999999999997
sS'enormous variety'
p85
F0.032656999999999999
sS'cloud'
p86
F0.022678
sS'use'
p87
F0.011207999999999999
sS'exchanging experience'
p88
F0.032111000000000001
sS'open source'
p89
F0.013573
sS'data'
p90
F0.0025279999999999999
sS'support'
p91
F0.0035469999999999998
sS'exposed'
p92
F0.026249000000000001
sS'system'
p93
F0.0095259999999999997
sS"don't believe"
p94
F0.029676000000000001
sS'wework office'
p95
F0.034757999999999997
sS'utilizing'
p96
F0.015538
sS'boston nyc san fran'
p97
F0.034757999999999997
sS'data management'
p98
F0.028147999999999999
sS'co subsidiary'
p99
F0.034757999999999997
sS"you'll work"
p100
F0.037099
sS'methodological knowledge'
p101
F0.032111000000000001
sS'tool'
p102
F0.0074809999999999998
sS'energetic enthusiastic tight-knit team'
p103
F0.034757999999999997
sS'part'
p104
F0.014174000000000001
sS'main driver'
p105
F0.033959000000000003
sS'customer'
p106
F0.0045279999999999999
sS'local office'
p107
F0.022915000000000001
sS'understanding coursework'
p108
F0.029066000000000002
sS'one another'
p109
F0.024204
sS'developing'
p110
F0.0070089999999999996
sS'consultant'
p111
F0.032974000000000003
sS'challenge'
p112
F0.0097619999999999998
sS'math linear algebra calculus'
p113
F0.029676000000000001
sS'programming skill'
p114
F0.015842999999999999
sS'data architecture'
p115
F0.019456999999999999
sS'continuously'
p116
F0.020843
sS'innovation hub'
p117
F0.034757999999999997
sS'extracting'
p118
F0.021023
sS'analytics platform'
p119
F0.020556999999999999
sS'process'
p120
F0.0052440000000000004
sS'boston'
p121
F0.046186999999999999
sS'dissemination'
p122
F0.026595000000000001
sS'work hard'
p123
F0.021208999999999999
sS'topic'
p124
F0.018046
sS'effectively'
p125
F0.010924
sS'business intelligence'
p126
F0.013129
sS'quantumblack'
p127
F0.034757999999999997
sS'work collaboratively'
p128
F0.016049000000000001
sS'information'
p129
F0.0059839999999999997
sS'significant measurable impact'
p130
F0.033266999999999998
sS'efficient'
p131
F0.01494
sS'responsible'
p132
F0.0063800000000000003
sS'member'
p133
F0.010083999999999999
sS'located'
p134
F0.014352
sS'setting'
p135
F0.014576
sS'role'
p136
F0.010776000000000001
sS'computer science'
p137
F0.0080630000000000007
sS'solve'
p138
F0.010272
sS'channel'
p139
F0.016827999999999999
sS'5-7 year'
p140
F0.047338999999999999
sS'strong academic'
p141
F0.025770000000000001
sS'time'
p142
F0.0078619999999999992
sS'qualifications'
p143
F0.0062449999999999997
sS'hierarchy -'
p144
F0.034757999999999997
sS'c++ c'
p145
F0.02852
sS'team environment'
p146
F0.016721
sS'daily basis'
p147
F0.022915000000000001
sS'building'
p148
F0.020251999999999999
sS'java python r'
p149
F0.030009999999999998
sS'quantitative problem-solving skill'
p150
F0.027796000000000001
sS'database'
p151
F0.007646
sS'medical'
p152
F0.016694000000000001
sS'proud'
p153
F0.013886000000000001
sS'person'
p154
F0.014026
sS"you'll"
p155
F0.023809
sS'client'
p156
F0.019862000000000001
sS'tech'
p157
F0.017713
sS'english'
p158
F0.019687
sS'organization'
p159
F0.0058170000000000001
sS'corporate'
p160
F0.013278
sS'strongly preferred'
p161
F0.019025
s.