(dp1
S''
F0.0033328741305059112
sS'breadth'
p2
F0.004113043933819659
sS'concept'
p3
F0.0063118701605975238
sS'flavors---open'
p4
F0.0062073409442085234
sS'global'
p5
F0.0034527355705582072
sS'focus'
p6
F0.0042415744943175024
sS'existing'
p7
F0.0021197877013982374
sS'manager'
p8
F0.0039091795505074856
sS'code'
p9
F0.0019965577844671422
sS'go'
p10
F0.0054376669900955679
sS'country/globe'
p11
F0.0057837710852826473
sS'remarkably'
p12
F0.0057837710852826473
sS'smes'
p13
F0.0044660003061902662
sS'content'
p14
F0.0024640033361187381
sVBusiness
p15
F0.00089694390312944794
sS'environment'
p16
F0.008439467796283023
sS'foster'
p17
F0.0031314898654735863
sS'lead/members'
p18
F0.0062073409442085234
sS'suite'
p19
F0.0030540015357049121
sS'must'
p20
F0.0016019458984888536
sS'replication'
p21
F0.0050931343458493388
sS'artwork'
p22
F0.0055047728574883119
sS'micromanage'
p23
F0.0057837710852826473
sS'month'
p24
F0.0034248206367496203
sS'entire'
p25
F0.0031984230622220389
sS'level'
p26
F0.0016159708103089278
sS'fast-paced'
p27
F0.0027025350665447392
sS'solution'
p28
F0.0055011205311690757
sS'rabbitmq'
p29
F0.015889159233211696
sS'leave'
p30
F0.0039170348885702675
sS'excellence'
p31
F0.0090870210704809811
sS'minimal'
p32
F0.0032752530464775372
sS'do/build'
p33
F0.0057837710852826473
sS'team'
p34
F0.015461385189032086
sS'enjoy'
p35
F0.017892141580830277
sS'application'
p36
F0.0044827639010562095
sS'consistent'
p37
F0.0026612163179199639
sS'direct'
p38
F0.0025704088119205123
sS'thinker'
p39
F0.0033510677425249071
sS'street'
p40
F0.0045183872226052992
sS'design'
p41
F0.012109608706620877
sS'folk'
p42
F0.0092685511973248889
sS'what'
p43
F0.0042841219798575355
sS'latest/greatest'
p44
F0.0057837710852826473
sS'clock'
p45
F0.005704741162953459
sS'product.'
p46
F0.004326181175874134
sS'entrepreneurial'
p47
F0.0030478595337714558
sS'current'
p48
F0.0021617906431417623
sS'version'
p49
F0.0034296554848730664
sS'designing'
p50
F0.0022948727695478979
sS'senior-level.'
p51
F0.0071182960974146472
sS'new'
p52
F0.0043053452492583209
sS'movement'
p53
F0.013202798825183701
sS'supporting'
p54
F0.0024808160759709056
sS'evolving'
p55
F0.0031625226716587317
sS'full'
p56
F0.0021472076543006106
sS'paas.'
p57
F0.0062073409442085234
sS'evolved'
p58
F0.0052963864110705658
sS'platform.'
p59
F0.0036442972663214015
sS'commercial'
p60
F0.0025550695312377323
sS'delivering'
p61
F0.0022005118107814893
sS'hubs'
p62
F0.019630642039484822
sS'explore'
p63
F0.0026728130684545688
sS'focused'
p64
F0.0045220517126008872
sS'carefulness'
p65
F0.0057837710852826473
sS'others'
p66
F0.0044032272872034633
sS'path'
p67
F0.0035494308852346184
sS'along'
p68
F0.0029608042769873242
sS'strong'
p69
F0.0045685828603684057
sS'software development'
p70
F0.0017580403134935926
sS'great'
p71
F0.0022353685200426198
sS'skills.'
p72
F0.0061580697786972885
sS'talent'
p73
F0.00255001886044166
sS'rds'
p74
F0.0047449977589021468
sS'technical'
p75
F0.0012754829287900241
sS'involved'
p76
F0.0034643125946249693
sS'larger'
p77
F0.0037805337354791767
sS'bot'
p78
F0.0050931343458493388
sS'experience'
p79
F0.009125932565780483
sS'mpp/big'
p80
F0.0058711346194306518
sS'throughput'
p81
F0.0091486169002196385
sS'experience/background'
p82
F0.006782089617619648
sS'engineers'
p83
F0.0032245114661536159
sS'via'
p84
F0.0055048483721278499
sS'love'
p85
F0.013296495991396078
sS'expect/demand'
p86
F0.0057837710852826473
sVDoctor
p87
F0.00090313579749292544
sS'process/team'
p88
F0.0057837710852826473
sS'app'
p89
F0.0036195438755646015
sS'manage'
p90
F0.0036158809981243034
sS'logical'
p91
F0.0036894776402550812
sS'highly'
p92
F0.0016192413057635291
sS'flexibility'
p93
F0.0032397961492338467
sS'genscape'
p94
F0.023135084341130589
sS'punching'
p95
F0.0057837710852826473
sS'apply'
p96
F0.003392920437099886
sS'establish'
p97
F0.0028263252601220573
sS'cloud'
p98
F0.0081959111937146868
sS'flavors'
p99
F0.0071182960974146472
sS'use'
p100
F0.0014485655650663838
sS'dna'
p101
F0.0039083522962048336
sS'working'
p102
F0.0032478037638998414
sS'perk'
p103
F0.003858083588933582
sS'providers'
p104
F0.0052963864110705658
sS'next'
p105
F0.011916643228498615
sS'distributing'
p106
F0.0052090229544309915
sS'live'
p107
F0.0028895763998121743
sS'program'
p108
F0.001802472427209592
sS'music'
p109
F0.0039618663594634994
sS'asset'
p110
F0.002482361548580636
sS'type'
p111
F0.0023275895245474291
sS'today'
p112
F0.0027271044495827514
sS'optimizing'
p113
F0.003439410588216122
sS'upcoming'
p114
F0.0045938195644839065
sS'definition'
p115
F0.0032475454655449122
sS'started'
p116
F0.0037805337354791767
sS'company'
p117
F0.0023215645137474226
sS'line'
p118
F0.002737560536010754
sS'app-dev'
p119
F0.0058711346194306518
sS'master data management'
p120
F0.0041584899227051332
sS'subscription'
p121
F0.0045938195644839065
sS'customer'
p122
F0.0026307793606818292
sS'market.'
p123
F0.0042708818387272801
sS"'data"
p124
F0.0062073409442085234
sS'excellent'
p125
F0.0050289733664019738
sS'join'
p126
F0.0032637982375617746
sS'hour'
p127
F0.0030478595337714558
sS'this'
p128
F0.010599262357912169
sS'science'
p129
F0.00058294683929858407
sS'work'
p130
F0.0064442563258481174
sS'dev'
p131
F0.0093536143937384877
sS'cat'
p132
F0.0055047728574883119
sS'mq'
p133
F0.0053437813699135882
sS'ms'
p134
F0.0022729560410091189
sS'learn'
p135
F0.0020731737657575639
sS'following'
p136
F0.0019727945129420833
sS'embrace'
p137
F0.006658606863646532
sS'mongo'
p138
F0.0045743084501098192
sS'figure'
p139
F0.0042843647801840811
sS'ethic.'
p140
F0.0051685668427442627
sS'process'
p141
F0.0013815577752423164
sS'awesome'
p142
F0.0079991257540483404
sS'high'
p143
F0.0053112013068164592
sS'effectively'
p144
F0.0019628151331481502
sS'minimum'
p145
F0.0020425823733910505
sS'want'
p146
F0.0066281032474423754
sS'huge'
p147
F0.0035955080853685719
sS'goal'
p148
F0.0020893847941609298
sS'dependency'
p149
F0.0044830974817522433
sS'provide'
p150
F0.0026262430106298801
sS'discussion'
p151
F0.0034952171003904552
sS'mid-tier'
p152
F0.011742269238861304
sS'traders'
p153
F0.0057837710852826473
sS'net-net'
p154
F0.0062073409442085234
sS'gaming'
p155
F0.0087105566019330671
sS'fostered'
p156
F0.0057837710852826473
sS'attend'
p157
F0.0039899768663057486
sS'may'
p158
F0.0038292886702821017
sS'9+'
p159
F0.0057837710852826473
sS"engineers'"
p160
F0.0059687987505923773
sS'tier'
p161
F0.01237252216677583
sS'communicator'
p162
F0.0038997596813118204
sS'message-based'
p163
F0.0071182960974146472
sS'data'
p164
F0.0016718286018789716
sS'compatibility'
p165
F0.0049300250366701602
sS'a'
F0.0031012303376683694
sS'paas'
p166
F0.0048456283419069206
sS'supervision'
p167
F0.0033599359864462867
sS'vms.'
p168
F0.0057837710852826473
sS'rather'
p169
F0.012733669119751868
sS'maintain'
p170
F0.0064200337105606974
sS'operate'
p171
F0.0033466689375863299
sS'opportunity'
p172
F0.0020979804853077056
sS'talk'
p173
F0.0033554900082807815
sS'fixes/enhancements'
p174
F0.0058711346194306518
sS'software/data-based'
p175
F0.0057837710852826473
sS'prioritizing'
p176
F0.0041354556132876356
sS'development.'
p177
F0.0033165138879555365
sS'feedback'
p178
F0.0060594037699152068
sS"don't"
p179
F0.01034784548494295
sS'essence'
p180
F0.0052963864110705658
sS'over'
p181
F0.0041942875109644883
sS'mission'
p182
F0.0039489389691242053
sS'balanced'
p183
F0.0048456283419069206
sS'kafka'
p184
F0.010786524256105715
sS'left-and-right'
p185
F0.0057837710852826473
sS'course'
p186
F0.0030297018849576034
sS'interpersonal'
p187
F0.0026905181125880437
sS'including'
p188
F0.0034199954996293647
sS'innovative'
p189
F0.0016798424712712147
sS'mentioned'
p190
F0.0097456343444238588
sS'developer'
p191
F0.0068080767767823933
sS'perfect'
p192
F0.0037096206022335502
sS'left-'
p193
F0.0060795212208653235
sS'interesting'
p194
F0.0034296554848730664
sS'winning'
p195
F0.0042190410567356489
sS'platform'
p196
F0.011036627913160714
sS'might'
p197
F0.00368287061191772
sS'love---explore'
p198
F0.0057837710852826473
sS'seeking'
p199
F0.0019586922531015308
sS'practice'
p200
F0.0018189860488781594
sS'band'
p201
F0.0038499939691401786
sS'queues/topics'
p202
F0.0071182960974146472
sS'eai/custom'
p203
F0.0071182960974146472
sS'strategic'
p204
F0.0040104249776796623
sS'term'
p205
F0.0028946477431557216
sS'pre-alpha/beta'
p206
F0.0062073409442085234
sS'always'
p207
F0.0098257591394326112
sS'early-stage'
p208
F0.0052963864110705658
sS"technology'"
p209
F0.0058711346194306518
sS'capability'
p210
F0.0040314376517478498
sS'end-to-end'
p211
F0.0063250453433174635
sS'here---we'
p212
F0.0062073409442085234
sS'development'
p213
F0.01004113600675057
sS'financial'
p214
F0.0021278180148218443
sS'another'
p215
F0.0035057799849918993
sS'community-based'
p216
F0.0059687987505923773
sS'evolve'
p217
F0.011068432920765243
sS'generation'
p218
F0.0049159463315299502
sS'energy'
p219
F0.0076753614578360307
sS'principles/architectures'
p220
F0.0071182960974146472
sS'idea'
p221
F0.0040104249776796623
sS'related'
p222
F0.0024796501602565258
sS'iot-intensive'
p223
F0.0071182960974146472
sS'design/modify/enhance'
p224
F0.0071182960974146472
sS'enterprise software'
p225
F0.0033599359864462867
sS'expect'
p226
F0.0073139134135420496
sS'hosted'
p227
F0.0047937874048994064
sS'our'
p228
F0.0015829103863332342
sS'operation'
p229
F0.001903026614464396
sS'beyond'
p230
F0.0030950734428124454
sS'event'
p231
F0.0087379373197001894
sS"'job"
p232
F0.0058711346194306518
sS'mid-'
p233
F0.0071182960974146472
sS'3rd'
p234
F0.0080580086861094958
sS'space'
p235
F0.0059776385089482563
sS'quality'
p236
F0.0017970401865186202
sS'create.'
p237
F0.0054475649155217602
sS'publish'
p238
F0.0043120067646930434
sS'looking'
p239
F0.0016203343445934898
sS'test/critique'
p240
F0.0062073409442085234
sS'got'
p241
F0.0044830974817522433
sS'sensor'
p242
F0.0072885945326428029
sS'math'
p243
F0.0023957763663942362
sS'data scientist'
p244
F0.00087841763280586927
sS'standard'
p245
F0.0062365775383660012
sS'reason'
p246
F0.0043854337381315457
sS'base'
p247
F0.002850085061976709
sS'imagine'
p248
F0.0045552459088580256
sS'ask'
p249
F0.0035896064483083106
sS'seniority'
p250
F0.0062073409442085234
sS'revolutionary'
p251
F0.0041584899227051332
sS"'who"
p252
F0.0058711346194306518
sS'training'
p253
F0.0039026446948960685
sS'organic'
p254
F0.0093105374568758312
sS'created'
p255
F0.007575940732166179
sS'days'
p256
F0.0096912566838138411
sS'retail'
p257
F0.002857347831191146
sS'first'
p258
F0.0095942723631141005
sS'feed'
p259
F0.0034542618702597984
sS'coding'
p260
F0.0028239863025189705
sS'architect/developer'
p261
F0.0071182960974146472
sS'one'
p262
F0.0013569173600068705
sS'self-driven'
p263
F0.0045938195644839065
sS'team---if'
p264
F0.0057837710852826473
sS'message'
p265
F0.016826287663460986
sS'self-motivation.'
p266
F0.0057837710852826473
sS'open'
p267
F0.0098864130116750534
sS'engineer'
p268
F0.012862804653869466
sS"you're"
p269
F0.0028452783200699737
sS'given'
p270
F0.0087535819514471779
sS'management'
p271
F0.00075128430116057398
sS'product/technology'
p272
F0.005704741162953459
sS'service'
p273
F0.0040493526338626473
sS'start'
p274
F0.0031731305249255715
sS'leading'
p275
F0.0014951946005589657
sS'top'
p276
F0.0043597009908522711
sS'engagement'
p277
F0.002419811149046222
sS'system'
p278
F0.0052524860212597602
sS'least'
p279
F0.0020000088317694703
sS'remotely'
p280
F0.0045938195644839065
sS'priority'
p281
F0.0028404992837747977
sS'needed'
p282
F0.0022480979403816503
sS'master'
p283
F0.0032321185883169815
sS'iaas'
p284
F0.0050578445274881562
sS'store'
p285
F0.0031874887969967742
sS'exploring'
p286
F0.002758876806317583
sS'self-motivated'
p287
F0.0032956268386519286
sS'relationship'
p288
F0.0021138156023225909
sS'tool'
p289
F0.0034172398951540723
sS'innovate'
p290
F0.0067650613179644006
sS'released'
p291
F0.0048193027989223095
sS'part'
p292
F0.0017073216959166779
sS'believe'
p293
F0.006994346929701062
sS'embrace.'
p294
F0.0057837710852826473
sS'roles'
p295
F0.0042576146348536721
sS'culture'
p296
F0.010861831906792829
sS'feeds-projects'
p297
F0.0071182960974146472
sS'require'
p298
F0.0027188334950477839
sS'solutions.'
p299
F0.0029257449851018366
sS'matter'
p300
F0.002354990761014317
sS'compensation'
p301
F0.0027567203484170845
sS'future'
p302
F0.0018017914472613864
sS'architect'
p303
F0.0022961075208596054
sS'video'
p304
F0.0031520488188512045
sS"company's"
p305
F0.0031520488188512045
sS'toward'
p306
F0.0034152347035379563
sS'eai'
p307
F0.0071182960974146472
sS"pro's"
p308
F0.0062073409442085234
sS'customers.'
p309
F0.0029126457732333967
sS'event/message'
p310
F0.0071182960974146472
sS'experience.'
p311
F0.002857347831191146
sS'comfortable'
p312
F0.0026554782064525605
sS'say'
p313
F0.0042065719158652466
sS"'above-and-beyond'"
p314
F0.0058711346194306518
sS'need'
p315
F0.0029495152442983682
sS'architected'
p316
F0.0059687987505923773
sS'viewed'
p317
F0.0049914742781323185
sS'data.'
p318
F0.0025895505962077459
sS'built'
p319
F0.0028845358864363043
sS'depending'
p320
F0.0078872837640853177
sS'customer-based'
p321
F0.0071182960974146472
sS'fashion.'
p322
F0.0055047728574883119
sS'responsible'
p323
F0.0016436275187511392
sS'able'
p324
F0.0019099776917857589
sS'snow'
p325
F0.0057837710852826473
sS'incentive'
p326
F0.0043406021122231854
sS'also'
p327
F0.0052741209404807777
sS'emphasis'
p328
F0.0035896064483083106
sS'client'
p329
F0.0015190470143749946
sS'build'
p330
F0.0014090696995831238
sS'which'
p331
F0.0060795212208653235
sS'online'
p332
F0.0025913128730245022
sS'objective'
p333
F0.0025533825534378432
sS'encouraged'
p334
F0.0032132300634709369
sV(5, 10]
p335
F0.00099970502618313339
sS'multiple'
p336
F0.0016159708103089278
sS'collaboration'
p337
F0.0063623617414762532
sS"technologists'"
p338
F0.0058711346194306518
sS'aws'
p339
F0.0043341232981454567
sS'business.'
p340
F0.0030822178767732095
sS'paid'
p341
F0.0028123894744814266
sS'plan'
p342
F0.0019375776790483193
sS'organization'
p343
F0.0029240196339663039
sS'acquired'
p344
F0.0048193027989223095
sS'extremely'
p345
F0.0036569567067710248
sS'the'
p346
F0.0030476935332766839
sS'bounced'
p347
F0.0057837710852826473
sS'bug'
p348
F0.0046768071968692438
sS'sql server'
p349
F0.0023199241038794542
sS'mobile'
p350
F0.0025011354748661558
sS'drive'
p351
F0.0031585185280818113
sS'traditional'
p352
F0.0031417056233244782
sS"you'll"
p353
F0.002276568831192166
sS'tech'
p354
F0.0027653800376980179
sS'professional'
p355
F0.0017567499041907075
sS'senior'
p356
F0.0017950122384803456
sS'consumer'
p357
F0.0022160723400411228
sS'currently'
p358
F0.0024549744480792204
sS'bring'
p359
F0.0040869859810799478
sS'messaging/event-based'
p360
F0.0071182960974146472
sS'planning'
p361
F0.0024169470960384498
sS'solutions'
p362
F0.0021148079694583537
sS'find'
p363
F0.0023457560262539661
sS'impact'
p364
F0.0037176946421909264
sS'based'
p365
F0.003306489992211501
sS'knowledge'
p366
F0.0045982004750989101
sS'big data'
p367
F0.0010553276337998902
sS'implementation'
p368
F0.001973631575740251
sS'distributed'
p369
F0.0051169076385573541
sS'enough'
p370
F0.0041354556132876356
sS'operational'
p371
F0.0023536651989133663
sS'going'
p372
F0.0041821824479907439
sS'employee'
p373
F0.0053468475086115201
sS'enthusiasm'
p374
F0.0041821824479907439
sS'demonstrated'
p375
F0.005649801123853113
sS'data modeling'
p376
F0.0021660047635309048
sS'get'
p377
F0.004819659902956238
sS'db'
p378
F0.0045938195644839065
sS'preferred'
p379
F0.0012944576082433946
sS"con's"
p380
F0.0062073409442085234
sS'movement/messaging'
p381
F0.0071182960974146472
sS'cannot'
p382
F0.0041942875109644883
sS'closely'
p383
F0.0019769883043131071
sS'relational'
p384
F0.0025122865159246427
sS'gen'
p385
F0.014702783502209228
sVManagement Science and Engineering
p386
F0.001069274078332415
sS'held'
p387
F0.0044492485534186783
sS'undergrad'
p388
F0.0055047728574883119
sS'teams'
p389
F0.0060594037699152068
sS'qa'
p390
F0.0035955080853685719
sS'models/patterns'
p391
F0.0071182960974146472
sS'architecture'
p392
F0.0054403346335439254
sS'activity'
p393
F0.0022598422256852779
sS'lifecycle'
p394
F0.0031314898654735863
sS'vision'
p395
F0.0022273685707621129
sS'set'
p396
F0.0017836133070597007
sS'physically'
p397
F0.0050578445274881562
sS'testing'
p398
F0.0016976600455223987
sS'niche'
p399
F0.0050578445274881562
sS'bi-weekly'
p400
F0.0054475649155217602
sS'analytics'
p401
F0.00072117534161154776
sS'see'
p402
F0.005588330924185256
sS'individual'
p403
F0.0050965848347992136
sS'result'
p404
F0.0046203713269704081
sS'flavor'
p405
F0.0055047728574883119
sS'best'
p406
F0.003052677328161404
sS'subject'
p407
F0.0022457689157774504
sS'hackathons'
p408
F0.0048728171722119294
sS'expert'
p409
F0.0017326062225432534
sS'tackling'
p410
F0.0040805228453212848
sS"master's"
p411
F0.0023161178076112287
sS'pattern'
p412
F0.0021713027160647977
sS'away'
p413
F0.0044009329417279003
sS'posse'
p414
F0.0030854131303742391
sS'please'
p415
F0.0056206833199280368
sS'written'
p416
F0.0017061078135137545
sS'various'
p417
F0.015126489956788874
sS'hopefully'
p418
F0.0055047728574883119
sS'full-stack'
p419
F0.0048728171722119294
sS'numerous'
p420
F0.0041354556132876356
sS'across'
p421
F0.0040863225776747725
sS'conferencing'
p422
F0.005704741162953459
sS'we'
p423
F0.018627091165372367
sS"way'."
p424
F0.0058711346194306518
sS'ability'
p425
F0.0042091626419591185
sS'nature'
p426
F0.0034248206367496203
sS'keyboard'
p427
F0.0050931343458493388
sS'ph.d.'
p428
F0.0028971950943699827
sS'sold'
p429
F0.0050578445274881562
sS'deliver'
p430
F0.001700667232586362
sS'however'
p431
F0.0039618663594634994
sS'dual-home'
p432
F0.0057837710852826473
sS'succeed'
p433
F0.0031731305249255715
sS'modeling'
p434
F0.00067342096933793738
sS'understanding'
p435
F0.0014056858764875169
sS'come'
p436
F0.010400723537736786
sS'distribution'
p437
F0.010274461910248861
sS'received'
p438
F0.0041942875109644883
sS'c'
F0.0010369999368972614
sS'talented'
p439
F0.0077951990337330841
sS'career'
p440
F0.0056861128252653145
sS'many'
p441
F0.015350722915672061
sS'invited'
p442
F0.0054475649155217602
sS'annual'
p443
F0.0031695794732517525
sS"'support"
p444
F0.0058711346194306518
sS'etc'
p445
F0.007218074919364716
sS'operating'
p446
F0.0047259779005226913
sS'asked'
p447
F0.0035218809845233285
sS'etl'
p448
F0.0023629889502613456
sS'load'
p449
F0.0036074388900980059
sS'white-board'
p450
F0.0062073409442085234
sS'wall'
p451
F0.0049300250366701602
sS'app-dev/data'
p452
F0.0071182960974146472
sS'community'
p453
F0.006591645213505741
sS'60'
p454
F0.0037805337354791767
sS'initiative'
p455
F0.0022899520716692036
sS'capabilities'
p456
F0.011913393125961371
sS'learning'
p457
F0.0015089452761089686
sS'technologist'
p458
F0.0139184834876798
sS'conference'
p459
F0.0031802785813908529
sS'custom/derived'
p460
F0.0062073409442085234
sS'eai/high-performance'
p461
F0.0071182960974146472
sS'java'
p462
F0.0010275845503053761
sS'hard-products'
p463
F0.0057837710852826473
sS'addition'
p464
F0.0028100894467778946
sS'outstanding'
p465
F0.0060594037699152068
sS'strategy'
p466
F0.0013059796278829478
sS'much'
p467
F0.0037514367654015728
sS'interest'
p468
F0.0024342817255363796
sS'basic'
p469
F0.0021029772495708074
sS'collaborator'
p470
F0.0043854337381315457
sS'flexible'
p471
F0.0025913128730245022
sS'covering'
p472
F0.0044660003061902662
sS'meeting'
p473
F0.0029310431701378304
sS'4'
F0.0028946477431557216
sS'life'
p474
F0.0055569311117063848
sS'data-movement/data'
p475
F0.0071182960974146472
sS'patented'
p476
F0.0050578445274881562
sVData Science
p477
F0.00085181507678695084
sS'ecosystem'
p478
F0.002955313104669796
sS'environment.'
p479
F0.002955313104669796
sS'understand'
p480
F0.0052280592374235706
sS'deep'
p481
F0.0060604082083971604
sS'tibco'
p482
F0.020836091817723966
sS'stand-ups'
p483
F0.0057837710852826473
sS'f2f'
p484
F0.005704741162953459
sS"journey'"
p485
F0.0062073409442085234
sS'look'
p486
F0.0030327006801459853
sS'developing'
p487
F0.0015541420165289962
sS'these'
p488
F0.0029916735253846553
sS'messaging/pub-sub'
p489
F0.0058711346194306518
sS'as'
p490
F0.0034146433918333559
sS'value'
p491
F0.0015446038375554058
sS'infrastructure'
p492
F0.0042296159389167073
sS'ongoing'
p493
F0.0029471439371534232
sS'fun'
p494
F0.0029580541450194863
sS'balance'
p495
F0.0032169735020124348
sS'trader'
p496
F0.0053437813699135882
sS'application development'
p497
F0.0031766968503202696
sS'welding'
p498
F0.0057837710852826473
sS'layer'
p499
F0.0040595297930535908
sS'30'
p500
F0.0033644059326826724
sS'rock-climbing'
p501
F0.0057837710852826473
sS'ip'
p502
F0.0037805337354791767
sS'it'
p503
F0.0034677191269399188
sS'encouragement'
p504
F0.0049300250366701602
sS'player'
p505
F0.002791915368892462
sS'experts'
p506
F0.0030854131303742391
sS'in'
p507
F0.0052509834502007672
sS'change/evolution'
p508
F0.0071182960974146472
sS'technology'
p509
F0.014716646841591687
sS'diagnostic'
p510
F0.0042708818387272801
sS'if'
p511
F0.0019795148002127966
sS'uptime'
p512
F0.0051299931096102126
sS'pas'
p513
F0.0037731632098217858
sS'develop'
p514
F0.0050503861428510474
sS'combination'
p515
F0.0024839099073733872
sS'tools/etc'
p516
F0.0057837710852826473
sS'make'
p517
F0.0031368028129403623
sS'hadoop'
p518
F0.001065345357711082
sS'maintain/modify'
p519
F0.0071182960974146472
sS'member'
p520
F0.0052110036937653755
sS'party'
p521
F0.006216262943792971
sS'document'
p522
F0.0025366989145583366
sS'week'
p523
F0.0031081314718964855
sS'independent'
p524
F0.0029100505829047869
sS'used'
p525
F0.0022262319964132435
sS'practitioner'
p526
F0.0041821824479907439
sS'bonus'
p527
F0.0031625226716587317
sS'architectures'
p528
F0.0039805004132800678
sS'ownership'
p529
F0.0032672416667391276
sS'dev/architect'
p530
F0.0071182960974146472
sS'changing'
p531
F0.0027417801732939275
sVPhysics
p532
F0.0021755655897181514
sS'expand'
p533
F0.0071214247308465425
sS'organically'
p534
F0.0057837710852826473
sS'center'
p535
F0.0026945044431224887
sS'i'
F0.0068985636566286333
sS"'clock-puncher'"
p536
F0.0058711346194306518
sS'well'
p537
F0.0077985735126576295
sS'customized'
p538
F0.0041584899227051332
sS'analysis'
p539
F0.0002840951258326119
sS'user experience'
p540
F0.0027986840506690346
sS'practices'
p541
F0.0038106890176293059
sS'solve'
p542
F0.0019256364258699
sS'greatest'
p543
F0.0038997596813118204
sS'consistency'
p544
F0.0082041224724896233
sS'position'
p545
F0.0051630989478590027
sS'model'
p546
F0.001283093567082621
sS'reward'
p547
F0.0069085237405195968
sS'unified'
p548
F0.0043702189411222118
sS'being'
p549
F0.0043120067646930434
sS'performance testing'
p550
F0.0052090229544309915
sS'hybrid'
p551
F0.0042843647801840811
sS'product'
p552
F0.010037260378490646
sS'embrace/grow'
p553
F0.0062073409442085234
sS'aspect'
p554
F0.0026826024923587237
sS'day-to-day'
p555
F0.0033165138879555365
sS'skill'
p556
F0.0020805057064175545
sS'speed'
p557
F0.0035721494592740491
sS'captured'
p558
F0.0047216389002855711
sS'work.'
p559
F0.0063895245245507446
sS'field'
p560
F0.0014167341903731138
sS"one-platform'"
p561
F0.0062073409442085234
sS'add'
p562
F0.0034952171003904552
sS'internal'
p563
F0.003690214078941839
sS'attractive'
p564
F0.0047937874048994064
sS'standards/work'
p565
F0.0057837710852826473
sS'role'
p566
F0.0069572838902387793
sV(2, 5]
p567
F0.0010273171048351042
sS'majority'
p568
F0.0089661949635044865
sS'real'
p569
F0.0024070001126260065
sS'vendor'
p570
F0.0063040976377024089
sS'around'
p571
F0.0019803586794216428
sS'big'
p572
F0.001916987544790644
sS'workload'
p573
F0.0041241740555919429
sS'know'
p574
F0.013482524093446562
sS'deployment'
p575
F0.002490132421279715
sS'tibco/other'
p576
F0.0071182960974146472
sS'world-class'
p577
F0.0030060941517091569
sS'necessary'
p578
F0.0027250289630602032
sS'like'
p579
F0.0019383799116207483
sS'success'
p580
F0.0020675270757109518
sS'identifying'
p581
F0.0023173846324108602
sS'server'
p582
F0.0032207339180090363
sS'benefit'
p583
F0.0038106743408842592
sS'continue'
p584
F0.0079607228810772337
sS'micro-management.'
p585
F0.0057837710852826473
sS'simply'
p586
F0.0041020612362448116
sS'environments'
p587
F0.0038828370571973199
sS'passionate'
p588
F0.0045435105352404906
sS'soft'
p589
F0.0044660003061902662
sS'essential'
p590
F0.002584286129155676
sS'often'
p591
F0.0076680954424613312
sS'verbal'
p592
F0.0021328767485323725
sS'some'
p593
F0.0031838758518097552
sS'back'
p594
F0.0031802785813908529
sS'growth'
p595
F0.0020684655239414547
sVMaster
p596
F0.00060305197779782498
sS'home'
p597
F0.0032321185883169815
sS'sprint'
p598
F0.004326181175874134
sS'and/or'
p599
F0.0090508037880955555
sS'collaborative'
p600
F0.0022973441138257017
sS'broad'
p601
F0.002558453819278677
sS'saas'
p602
F0.0025601511577119911
sS'integration'
p603
F0.0019123077298462791
sS'/'
F0.0057369231895388366
sS'competitions'
p604
F0.0049914742781323185
sS'critical'
p605
F0.0090441034252017743
sS'passion'
p606
F0.0044684418662928101
sS'innovation'
p607
F0.0016051614196805337
sS'over-used'
p608
F0.0057837710852826473
sS'restoring'
p609
F0.0053940504647238402
sS'core'
p610
F0.0062053965718243641
sS"'are"
p611
F0.0058711346194306518
sS'business'
p612
F0.00097473827806474609
sS"platform---we've"
p613
F0.0071182960974146472
sS'equivalent'
p614
F0.0019505074986956447
sS'reflection'
p615
F0.0053437813699135882
sS'communicate'
p616
F0.0016635513120079536
sS'comp-sci'
p617
F0.0057837710852826473
sS'24-hour'
p618
F0.005704741162953459
sS'found'
p619
F0.0039995628770241702
sS'assemble'
p620
F0.0049009278340697432
sS'includes'
p621
F0.0024504966099628753
sS'off-shore'
p622
F0.0048193027989223095
sS'computer-science'
p623
F0.006358519603676672
sS'platforms/environments'
p624
F0.0071182960974146472
sS'postgresql'
p625
F0.0028216539244888669
sS'would'
p626
F0.0076299964172642804
sS'guidance/feedback'
p627
F0.0062073409442085234
sS'range'
p628
F0.0021197877013982374
sS'ensure'
p629
F0.0038591955260720524
sS'azure'
p630
F0.007405703530893609
sS'messaging'
p631
F0.05018618937588893
sS'software'
p632
F0.013337620567017261
sS'heavy'
p633
F0.0041468927846454746
sS'explore/interact'
p634
F0.0057837710852826473
sS'previously'
p635
F0.0041468927846454746
sS'communication'
p636
F0.0013127440788647234
sS'within'
p637
F0.003023637894199239
sS'commitment'
p638
F0.0057293495618568344
sS'recognize'
p639
F0.0038912551981504393
sS'strategy.'
p640
F0.0036195438755646015
sS'contributor'
p641
F0.0067021354850498142
sS'area'
p642
F0.0016385807291772103
sS'support'
p643
F0.0046708881585697344
sS'there'
p644
F0.0039995628770241702
sS'cloud-based'
p645
F0.0039258093627460118
sS'accountability'
p646
F0.0036134692929627363
sS'systems.'
p647
F0.0032475454655449122
sS'overtime'
p648
F0.0041821824479907439
sS'camera'
p649
F0.0049300250366701602
sS'way'
p650
F0.0036844862829105091
sS'exceptional'
p651
F0.01248988408463339
sS'business-critical'
p652
F0.0049009278340697432
sS'happy'
p653
F0.0038997596813118204
sS'function'
p654
F0.0022516037908807134
sS'real-time'
p655
F0.009256239391122717
sS'complete'
p656
F0.0028745458660166408
sS'offering'
p657
F0.0059719495510313081
sS'offer'
p658
F0.0052053444065876513
sS'forming'
p659
F0.0049914742781323185
sS'sophisticated'
p660
F0.0032514474535746416
sS'delivery'
p661
F0.006291373808335091
sS'brain'
p662
F0.0048456283419069206
sS'technologies'
p663
F0.0027829755664757205
sS'true'
p664
F0.0072029040579749811
sS'analyst'
p665
F0.0018654362269850465
sS'characteristic'
p666
F0.0024624916768393916
sS'genscape.'
p667
F0.011567542170565295
sS'us'
p668
F0.0020078266170805502
sS'data management'
p669
F0.0022801974333410205
sS"genscape's"
p670
F0.017613403858291955
sS'demonstrate'
p671
F0.0055748668379133788
sS'autonomous'
p672
F0.0045938195644839065
sS'etc.'
p673
F0.0021950245052272587
sS'detailed'
p674
F0.0029888192544741282
sS'migrate'
p675
F0.0050239955216464871
sS'co-located'
p676
F0.005704741162953459
sS'year'
p677
F0.0026419646460261233
sS'moved'
p678
F0.0053940504647238402
sS'direction'
p679
F0.0024731316318769834
sS'proven'
p680
F0.0043447327627171312
sS'an'
p681
F0.0059890753117895438
sS'globally'
p682
F0.0035494308852346184
sS'engineering'
p683
F0.0010156341435104931
sS'expertise'
p684
F0.0015653251057829505
sS'hobbies'
p685
F0.0057837710852826473
sS'stack.'
p686
F0.0045005546258010251
sS'technologies.'
p687
F0.0036318282029581899
sS'right-brain'
p688
F0.0060795212208653235
sS'ideally'
p689
F0.00347962087191995
sS'contest'
p690
F0.0054475649155217602
sS'composing'
p691
F0.0057837710852826473
sS'detail'
p692
F0.0024401414215075318
sS'successful'
p693
F0.0021420609899287677
sS'etl/elt'
p694
F0.005704741162953459
sS'5'
F0.0021565529374545662
sS'cultures.'
p695
F0.0056325925033230166
sS'you'
p696
F0.018327788979896415
sS'developers'
p697
F0.0038662529114613453
sS'dynamic/distributed'
p698
F0.0057837710852826473
sS'java/c'
p699
F0.0055047728574883119
sS'scrum'
p700
F0.0056340175196177402
sS'problems'
p701
F0.0028870523128232172
sS'cranking'
p702
F0.0057837710852826473
sS"'a"
p703
F0.0062073409442085234
sS'sql'
p704
F0.0011309185055274414
sS'throughout'
p705
F0.0026708689776688607
sS'pool'
p706
F0.0050239955216464871
sS'exposure'
p707
F0.0030664237411139371
sS'land'
p708
F0.0048193027989223095
sS'remote'
p709
F0.0034200138173379976
sS'existing/heritage'
p710
F0.0071182960974146472
sS'physics'
p711
F0.0020174829000386926
sS'software---not'
p712
F0.0057837710852826473
sS'portion'
p713
F0.0048728171722119294
sS'summit'
p714
F0.0053437813699135882
sS'u'
F0.0034765224794316082
sS"function'"
p715
F0.0058711346194306518
sS'time'
p716
F0.0015648134971196111
sS'once'
p717
F0.0048456283419069206
s.