(dp1
S'breadth'
p2
F0.0054710000000000002
sS'concept'
p3
F0.0070619999999999997
sS'hadoop postgresql'
p4
F0.0094289999999999999
sS'micro-management'
p5
F0.0074850000000000003
sS'global'
p6
F0.0041640000000000002
sS'dynamic'
p7
F0.0027460000000000002
sS'focus'
p8
F0.0047710000000000001
sS'existing'
p9
F0.0025179999999999998
sS'strong verbal'
p10
F0.0051700000000000001
sS'go'
p11
F0.0036719999999999999
sS'related field'
p12
F0.0020110000000000002
sS'mpp big data'
p13
F0.0076119999999999998
sS'looking'
p14
F0.0016379999999999999
sS'data tier excellence'
p15
F0.0081019999999999998
sS'exceptional 3rd party vendor'
p16
F0.0081019999999999998
sS'strong collaborator'
p17
F0.0069950000000000003
sS'environment'
p18
F0.0083879999999999996
sS'foster'
p19
F0.0041209999999999997
sS'suite'
p20
F0.0042640000000000004
sS'must'
p21
F0.0016850000000000001
sS"next generation unified platform---we've released"
p22
F0.0094289999999999999
sS'attractive incentive'
p23
F0.0074850000000000003
sS'software engineers forming'
p24
F0.0074850000000000003
sS'based vms'
p25
F0.0074850000000000003
sS'software developer'
p26
F0.004333
sS'various message distribution'
p27
F0.0083219999999999995
sS'micromanage'
p28
F0.0074850000000000003
sS'tibco kafka mq rabbitmq event hubs etc'
p29
F0.0094289999999999999
sS'entire'
p30
F0.0043689999999999996
sS'level'
p31
F0.0017819999999999999
sS'manager'
p32
F0.0023960000000000001
sS'leave'
p33
F0.0055409999999999999
sS'tibco kafka rabbitmq event'
p34
F0.0094289999999999999
sS'high throughput consistent'
p35
F0.0074850000000000003
sS'team'
p36
F0.0060010000000000003
sS'enhance'
p37
F0.0031540000000000001
sS'enjoy'
p38
F0.019549
sS'application'
p39
F0.003954
sS'bug fix enhancement'
p40
F0.0076119999999999998
sS'design pattern'
p41
F0.0054710000000000002
sS'folk enjoy'
p42
F0.0074850000000000003
sS'data technology'
p43
F0.005084
sS'often asked'
p44
F0.0081019999999999998
sS'design'
p45
F0.0079930000000000001
sS'value'
p46
F0.0020639999999999999
sS'culture fostered'
p47
F0.0074850000000000003
sS'clock'
p48
F0.0073699999999999998
sS'video conferencing'
p49
F0.0074850000000000003
sS'others attend stand-ups remotely via'
p50
F0.0074850000000000003
sS'current'
p51
F0.0025539999999999998
sS'real-time wall street trader'
p52
F0.0076119999999999998
sS'direct reflection'
p53
F0.0074850000000000003
sS'physically co-located'
p54
F0.0074850000000000003
sS'designing'
p55
F0.0029060000000000002
sS'relational'
p56
F0.0048180000000000002
sS'hard-products business rather'
p57
F0.0074850000000000003
sS'evolving'
p58
F0.0047039999999999998
sS'full'
p59
F0.003137
sS'bring winning team'
p60
F0.0074850000000000003
sS'manage business-critical 24-hour operational'
p61
F0.0074850000000000003
sS'commercial'
p62
F0.0033649999999999999
sS'delivering'
p63
F0.0028050000000000002
sS'explore'
p64
F0.003369
sS'focused'
p65
F0.0053169999999999997
sS'others'
p66
F0.0024529999999999999
sS'path'
p67
F0.0048450000000000003
sS'along'
p68
F0.003627
sS'strong'
p69
F0.0024499999999999999
sS'tibco rabbitmq kafka'
p70
F0.0094289999999999999
sS'change'
p71
F0.0022000000000000001
sS'software development'
p72
F0.005868
sS'involved'
p73
F0.0040920000000000002
sS'experience'
p74
F0.0024810000000000001
sS"don't like"
p75
F0.0069950000000000003
sS'sql azure aws rds'
p76
F0.0074850000000000003
sS'technical expertise'
p77
F0.0041980000000000003
sS'love'
p78
F0.0096679999999999995
sS"'data model journey' enough"
p79
F0.0081019999999999998
sS'logical'
p80
F0.0048180000000000002
sS'flexibility'
p81
F0.0040140000000000002
sS'punching'
p82
F0.0074850000000000003
sS'apply'
p83
F0.003392
sS'financial trader'
p84
F0.0074850000000000003
sS'establish'
p85
F0.0034139999999999999
sS'cloud'
p86
F0.010572
sS'use'
p87
F0.0013060000000000001
sS'dna'
p88
F0.0067099999999999998
sS'data feed'
p89
F0.006378
sS'would'
p90
F0.0098639999999999995
sS'captured via patented sensor technology'
p91
F0.0074850000000000003
sS'live'
p92
F0.0039420000000000002
sS'awesome team---if'
p93
F0.0074850000000000003
sS'type'
p94
F0.003215
sS'today'
p95
F0.003774
sS"genscape's product offering"
p96
F0.0076119999999999998
sS'optimizing'
p97
F0.0041900000000000001
sS'qa practitioner'
p98
F0.0074850000000000003
sS"'who"
p99
F0.0076119999999999998
sS'started'
p100
F0.006241
sS'company'
p101
F0.0024620000000000002
sS'training'
p102
F0.0024030000000000002
sS'created within genscape'
p103
F0.0074850000000000003
sS'app-dev'
p104
F0.0081019999999999998
sS'excellent'
p105
F0.0049820000000000003
sS'subscription'
p106
F0.0067099999999999998
sS'customer'
p107
F0.002111
sS'join'
p108
F0.0036080000000000001
sS'message hubs etc'
p109
F0.0094289999999999999
sS'next gen data movement capabilities covering'
p110
F0.0094289999999999999
sS'work'
p111
F0.002944
sS'dev'
p112
F0.0069170000000000004
sS'evolved'
p113
F0.0072649999999999998
sS'learn'
p114
F0.0023
sS'following'
p115
F0.0021930000000000001
sS'process'
p116
F0.0024450000000000001
sS'high'
p117
F0.0061019999999999998
sS'effectively'
p118
F0.0025460000000000001
sS'minimum'
p119
F0.0022560000000000002
sS'product developers'
p120
F0.0079159999999999994
sS'want'
p121
F0.0047010000000000003
sS'engineering math physics'
p122
F0.0074850000000000003
sS'app dev'
p123
F0.0094289999999999999
sS"genscape's growth"
p124
F0.0076119999999999998
sS'minimal supervision'
p125
F0.0047530000000000003
sS'please pas'
p126
F0.0074850000000000003
sS'provide'
p127
F0.0012279999999999999
sS'innovation competitions'
p128
F0.0074850000000000003
sS'discussion'
p129
F0.0044060000000000002
sS'exceptional'
p130
F0.0063749999999999996
sS'technologist data scientist'
p131
F0.0067749999999999998
sS'product'
p132
F0.0045599999999999998
sS'may'
p133
F0.0047390000000000002
sS'ensure compatibility'
p134
F0.0077539999999999996
sS"another 'job"
p135
F0.0076119999999999998
sS'various message'
p136
F0.0094289999999999999
sS'communicator'
p137
F0.0057229999999999998
sS'data'
p138
F0.001768
sS'grow'
p139
F0.0027290000000000001
sS'huge bonus'
p140
F0.0074850000000000003
sS'cloud-based data paas'
p141
F0.0081019999999999998
sS'work closely'
p142
F0.0024489999999999998
sS'got here---we require'
p143
F0.0081019999999999998
sS'exceptional contributor'
p144
F0.014970000000000001
sS'rather'
p145
F0.011875999999999999
sS'maintain'
p146
F0.0089429999999999996
sS'9+ year'
p147
F0.0076119999999999998
sS'operate'
p148
F0.0038730000000000001
sS'talk'
p149
F0.0041749999999999999
sS'feedback'
p150
F0.0083490000000000005
sS'experience working'
p151
F0.0022550000000000001
sS'essence'
p152
F0.0067749999999999998
sS'iaas service'
p153
F0.0074850000000000003
sS'mission'
p154
F0.002173
sS'course'
p155
F0.0037910000000000001
sS'including'
p156
F0.0020439999999999998
sS'innovative'
p157
F0.0020630000000000002
sS'mentioned'
p158
F0.0069950000000000003
sS'fast-paced entrepreneurial environment'
p159
F0.0065890000000000002
sS'left-and-right brain balanced'
p160
F0.0074850000000000003
sS'developer'
p161
F0.0082159999999999993
sS'various flavor'
p162
F0.014970000000000001
sS'new data management'
p163
F0.0071679999999999999
sS'data store'
p164
F0.0054710000000000002
sS'platform'
p165
F0.011618
sS'interesting hobby'
p166
F0.0074850000000000003
sS'end-to-end feeds-projects customized'
p167
F0.0094289999999999999
sS'talent pool'
p168
F0.0071679999999999999
sS'autonomous environment'
p169
F0.0073699999999999998
sS'flexible work hour'
p170
F0.0072649999999999998
sS'seeking'
p171
F0.0021749999999999999
sS'larger goal'
p172
F0.0069950000000000003
sS'5 comp-sci program'
p173
F0.0076119999999999998
sS"'support function'"
p174
F0.0076119999999999998
sS'always'
p175
F0.0138
sS'received outstanding'
p176
F0.0081019999999999998
sS"technology'"
p177
F0.0076119999999999998
sS'capability'
p178
F0.0063080000000000002
sS'eai custom'
p179
F0.0094289999999999999
sS"undergrad master's"
p180
F0.0085909999999999997
sS'master data management'
p181
F0.0060800000000000003
sS'self-motivation'
p182
F0.0066480000000000003
sS'found'
p183
F0.0051879999999999999
sS'30 days'
p184
F0.0074850000000000003
sS'heavy'
p185
F0.0064790000000000004
sS'software data-based product'
p186
F0.0074850000000000003
sS'evolve'
p187
F0.013421000000000001
sS'energy'
p188
F0.011511
sS'idea'
p189
F0.0026900000000000001
sS'solution'
p190
F0.0042940000000000001
sS'expect'
p191
F0.010411999999999999
sS'hosted'
p192
F0.0071679999999999999
sS'seniority'
p193
F0.0081019999999999998
sS'beyond'
p194
F0.003849
sS'event'
p195
F0.003522
sS'migrate away'
p196
F0.0081019999999999998
sS'mid-'
p197
F0.0094289999999999999
sS'space'
p198
F0.0067710000000000001
sS'quality'
p199
F0.0020200000000000001
sS'publish'
p200
F0.0061180000000000002
sS'content'
p201
F0.0029060000000000002
sS'much left-'
p202
F0.0079159999999999994
sS'happy team'
p203
F0.0074850000000000003
sS'world-class'
p204
F0.0041830000000000001
sS'expect demand'
p205
F0.0074850000000000003
sS'remote employee'
p206
F0.0069950000000000003
sS'soft skill'
p207
F0.0072649999999999998
sS'standard'
p208
F0.0088620000000000001
sS'deliver'
p209
F0.001647
sS'imagine'
p210
F0.0059719999999999999
sS'ask'
p211
F0.0043239999999999997
sS'etl elt real-time'
p212
F0.0094289999999999999
sS'definition'
p213
F0.004535
sS'life balance'
p214
F0.0058110000000000002
sS'written communication skill'
p215
F0.0031440000000000001
sS'created'
p216
F0.0051349999999999998
sS'enjoy working'
p217
F0.0047790000000000003
sS'previously mentioned many'
p218
F0.0074850000000000003
sS'retail'
p219
F0.0037190000000000001
sS'interact'
p220
F0.0032729999999999999
sS'first'
p221
F0.0085990000000000007
sS'ability'
p222
F0.0027430000000000002
sS'ha architected'
p223
F0.0081019999999999998
sS'latest greatest development'
p224
F0.0074850000000000003
sS'coding'
p225
F0.0035270000000000002
sS'strategic'
p226
F0.002137
sS'self-driven'
p227
F0.0060429999999999998
sS'ms sql server'
p228
F0.0061580000000000003
sS'message'
p229
F0.0058409999999999998
sS'open'
p230
F0.013122
sS'engineer'
p231
F0.0082240000000000004
sS"you're"
p232
F0.0037299999999999998
sS'given'
p233
F0.011223
sS'overtime'
p234
F0.0056950000000000004
sS'top'
p235
F0.0057800000000000004
sS'engagement'
p236
F0.0032079999999999999
sS'system'
p237
F0.0033310000000000002
sS'least'
p238
F0.00428
sS"revolutionary sensor ip genscape's offering"
p239
F0.0076119999999999998
sS'needed'
p240
F0.0025240000000000002
sS'master'
p241
F0.0046680000000000003
sS'organically create'
p242
F0.0081019999999999998
sS'subject matter experts smes'
p243
F0.0073699999999999998
sS'exploring'
p244
F0.0054260000000000003
sS'relationship'
p245
F0.0025200000000000001
sS'month'
p246
F0.0048050000000000002
sS'tool'
p247
F0.0034870000000000001
sS'innovate'
p248
F0.0040769999999999999
sS'part'
p249
F0.001652
sS'team member'
p250
F0.0024139999999999999
sS'believe'
p251
F0.0050010000000000002
sS"simply 'are"
p252
F0.0076119999999999998
sS'culture'
p253
F0.012357999999999999
sS'compensation'
p254
F0.0047790000000000003
sS'future'
p255
F0.0018389999999999999
sS'architect'
p256
F0.0060959999999999999
sS'event hubs etc'
p257
F0.0094289999999999999
sS"pro's"
p258
F0.0081019999999999998
sS'held back'
p259
F0.0081019999999999998
sS'upcoming year'
p260
F0.0074850000000000003
sS'comfortable'
p261
F0.0033649999999999999
sS'say'
p262
F0.0054260000000000003
sS'need'
p263
F0.002598
sS'knowledge base'
p264
F0.0060429999999999998
sS'viewed'
p265
F0.0065890000000000002
sS'embrace new'
p266
F0.0073699999999999998
sS'built'
p267
F0.0038019999999999998
sS'depending'
p268
F0.010895999999999999
sS'user experience'
p269
F0.0036770000000000001
sS'responsible'
p270
F0.001487
sS'able'
p271
F0.001869
sS'majority'
p272
F0.011447000000000001
sS'emphasis'
p273
F0.0043600000000000002
sS'internal'
p274
F0.0019350000000000001
sS'provide guidance'
p275
F0.0043509999999999998
sS'build'
p276
F0.002356
sS"enjoy going 'above-and-beyond'"
p277
F0.0076119999999999998
sS'online'
p278
F0.00316
sS'objective'
p279
F0.0028249999999999998
sS'performance'
p280
F0.0017650000000000001
sS'data tier'
p281
F0.0079159999999999994
sS'collaboration'
p282
F0.0071300000000000001
sS"technologists'"
p283
F0.0076119999999999998
sS'aws'
p284
F0.0033140000000000001
sS'paid'
p285
F0.0046340000000000001
sS"company's greatest asset"
p286
F0.0076119999999999998
sS'plan'
p287
F0.002297
sS'organization'
p288
F0.001356
sS'message queues topics'
p289
F0.0094289999999999999
sS'bi-weekly sprint'
p290
F0.0074850000000000003
sS'sql server'
p291
F0.0047920000000000003
sS'drive'
p292
F0.0015510000000000001
sS'app-dev data tier'
p293
F0.0094289999999999999
sS'traditional'
p294
F0.0042059999999999997
sS'love data'
p295
F0.0061989999999999996
sS'principle'
p296
F0.0033110000000000001
sS'enterprise'
p297
F0.0022369999999999998
sS'bounced around'
p298
F0.0074850000000000003
sS'senior'
p299
F0.002464
sS'consumer'
p300
F0.002526
sS'proven experience'
p301
F0.0096620000000000004
sS'speed message-based mission'
p302
F0.0094289999999999999
sS'data lifecycle management'
p303
F0.0074850000000000003
sS'team player'
p304
F0.0036930000000000001
sS'awesome technology'
p305
F0.0074850000000000003
sS'bring'
p306
F0.0021589999999999999
sS'planning'
p307
F0.0027550000000000001
sS'across many'
p308
F0.006378
sS'find'
p309
F0.0028879999999999999
sS'detailed design'
p310
F0.0072649999999999998
sS'impact'
p311
F0.0042360000000000002
sS'knowledge'
p312
F0.0033310000000000002
sS'implementation'
p313
F0.0020600000000000002
sS"you'll get"
p314
F0.0059719999999999999
sS"don't"
p315
F0.0052240000000000003
sS'distributed'
p316
F0.0066369999999999997
sS'first 60 days'
p317
F0.0074850000000000003
sS'version'
p318
F0.0055170000000000002
sS'employee'
p319
F0.0043290000000000004
sS'enthusiasm'
p320
F0.0054710000000000002
sS'also work'
p321
F0.0047790000000000003
sS'data modeling'
p322
F0.0035690000000000001
sS'get'
p323
F0.0027320000000000001
sS"don't believe"
p324
F0.0069170000000000004
sS'preferred'
p325
F0.001737
sS"con's"
p326
F0.0081019999999999998
sS'cannot'
p327
F0.0065329999999999997
sS'remarkably passionate'
p328
F0.0074850000000000003
sS'internal contest'
p329
F0.0074850000000000003
sS'portion'
p330
F0.0069170000000000004
sS'evolution'
p331
F0.0051879999999999999
sS'architecture'
p332
F0.0093539999999999995
sS'ecosystem'
p333
F0.0042550000000000001
sS'vision'
p334
F0.00263
sS'true iot-intensive organization'
p335
F0.0094289999999999999
sS'set'
p336
F0.0025769999999999999
sS'customer feedback'
p337
F0.0064279999999999997
sS'supporting'
p338
F0.0028249999999999998
sS'testing'
p339
F0.0046129999999999999
sS'analytics'
p340
F0.001108
sS'see'
p341
F0.0064380000000000001
sS'individual'
p342
F0.0057629999999999999
sS'result'
p343
F0.0046800000000000001
sS'software dev'
p344
F0.0074850000000000003
sS'encouraged'
p345
F0.0038080000000000002
sS'saas solution'
p346
F0.0035409999999999999
sS'test critique early-stage software'
p347
F0.0081019999999999998
sS'expert'
p348
F0.0022929999999999999
sS'pattern'
p349
F0.002957
sS'currently'
p350
F0.0039100000000000003
sS'please'
p351
F0.0072529999999999999
sS'customer-based distribution'
p352
F0.0094289999999999999
sS'various'
p353
F0.0083490000000000005
sS'want folk'
p354
F0.0074850000000000003
sS"engineers' activity"
p355
F0.0079159999999999994
sS'across'
p356
F0.0013500000000000001
sS'messaging event-based service'
p357
F0.0094289999999999999
sS'infrastructure'
p358
F0.004947
sS'extremely talented'
p359
F0.0073699999999999998
sS'existing heritage design modify'
p360
F0.0094289999999999999
sS'nature'
p361
F0.0044640000000000001
sS'modify'
p362
F0.0067099999999999998
sS'sold'
p363
F0.0065329999999999997
sS'genscape'
p364
F0.022454999999999999
sS'dual-home'
p365
F0.0074850000000000003
sS'succeed'
p366
F0.0045560000000000002
sS'understanding'
p367
F0.001552
sS'come'
p368
F0.012059
sS'talented'
p369
F0.0070910000000000001
sS'career'
p370
F0.007633
sS'many'
p371
F0.012095
sS'annual'
p372
F0.0044939999999999997
sS'etc'
p373
F0.0052170000000000003
sS'highly collaborative team environment'
p374
F0.0072649999999999998
sS'acquired product'
p375
F0.0074850000000000003
sS'custom derived solution'
p376
F0.0081019999999999998
sS'operating'
p377
F0.0074390000000000003
sS"way'"
p378
F0.0076119999999999998
sS'software engineer'
p379
F0.0066750000000000004
sS'load'
p380
F0.0049439999999999996
sS'embrace scrum'
p381
F0.0074850000000000003
sS'community'
p382
F0.0043639999999999998
sS'initiative'
p383
F0.0022850000000000001
sS'learning'
p384
F0.0026559999999999999
sS'technologist'
p385
F0.012643
sS'keyboard cranking code'
p386
F0.0074850000000000003
sS'addition'
p387
F0.003212
sS'outstanding'
p388
F0.0043239999999999997
sS'strategy'
p389
F0.003408
sS'community-based development'
p390
F0.0081019999999999998
sS'interest'
p391
F0.0030730000000000002
sS'basic'
p392
F0.0036020000000000002
sS'direction'
p393
F0.002843
sS'based paas'
p394
F0.0074850000000000003
sS'community gaming however'
p395
F0.0074850000000000003
sS'tibco'
p396
F0.016643999999999999
sS'application development teams'
p397
F0.0081019999999999998
sS'system dependency'
p398
F0.0085909999999999997
sS'look'
p399
F0.003849
sS'day-to-day operation'
p400
F0.0067749999999999998
sS'developing'
p401
F0.001634
sS'related mid-tier service'
p402
F0.0094289999999999999
sS'real business problem'
p403
F0.0058729999999999997
sS'ongoing'
p404
F0.003431
sS'country'
p405
F0.0038790000000000001
sS'fun'
p406
F0.0035829999999999998
sS'layer'
p407
F0.0060429999999999998
sS'encouragement'
p408
F0.0063309999999999998
sS'next gen platform'
p409
F0.0079159999999999994
sS'embrace'
p410
F0.0090080000000000004
sS'technology'
p411
F0.010517
sS'diagnostic'
p412
F0.0059049999999999997
sS'uptime'
p413
F0.0072649999999999998
sS'develop'
p414
F0.0037680000000000001
sS'java c'
p415
F0.0055900000000000004
sS'make'
p416
F0.0030599999999999998
sS'full-stack engineer architect'
p417
F0.0094289999999999999
sS'member'
p418
F0.0023509999999999998
sS'band restoring snow cat welding artwork'
p419
F0.0074850000000000003
sS'document'
p420
F0.0028960000000000001
sS'development'
p421
F0.0040509999999999999
sS'independent'
p422
F0.0041749999999999999
sS'used'
p423
F0.0025360000000000001
sS'great opportunity'
p424
F0.0053619999999999996
sS'composing music rock-climbing leading'
p425
F0.0074850000000000003
sS'phd'
p426
F0.001939
sS'ownership'
p427
F0.0041139999999999996
sS'changing'
p428
F0.0039680000000000002
sS'opportunity'
p429
F0.001212
sS'stack'
p430
F0.0042059999999999997
sS'expand'
p431
F0.008737
sS'center'
p432
F0.0032009999999999999
sS'love---explore innovate'
p433
F0.0074850000000000003
sS"'clock-puncher'"
p434
F0.0076119999999999998
sS'well'
p435
F0.0071370000000000001
sS'analysis'
p436
F0.00098999999999999999
sS'client'
p437
F0.0015430000000000001
sS'solve'
p438
F0.0023939999999999999
sS'consistency'
p439
F0.012014
sS'position'
p440
F0.0047479999999999996
sS'model'
p441
F0.0012030000000000001
sS'reward'
p442
F0.0051009999999999996
sS'tech summit'
p443
F0.0074850000000000003
sS'aspect'
p444
F0.0030699999999999998
sS'true passion'
p445
F0.0076119999999999998
sS'skill'
p446
F0.0011150000000000001
sS'best practice'
p447
F0.0050359999999999997
sS'excellent interpersonal skill'
p448
F0.0058110000000000002
sS'also'
p449
F0.0040010000000000002
sS'data movement replication capability'
p450
F0.0083219999999999995
sS'tackling organic development'
p451
F0.0074850000000000003
sS'add'
p452
F0.0048859999999999997
sS'love data mid-tier'
p453
F0.0083219999999999995
sS'vendor'
p454
F0.0037629999999999999
sS'big'
p455
F0.0070089999999999996
sS'know'
p456
F0.015089
sS'background'
p457
F0.0022139999999999998
sS'deployment'
p458
F0.0027750000000000001
sS'eai engineer'
p459
F0.0094289999999999999
sS'necessary'
p460
F0.0033219999999999999
sS'success'
p461
F0.0021419999999999998
sS'identifying'
p462
F0.0032299999999999998
sS'new technology prioritizing product'
p463
F0.0074850000000000003
sS'includes mongo db'
p464
F0.0094289999999999999
sS'benefit'
p465
F0.0050400000000000002
sS'continue'
p466
F0.0088020000000000008
sS'drive toward excellence'
p467
F0.0074850000000000003
sS'computer-science'
p468
F0.0083219999999999995
sS'passionate'
p469
F0.002464
sS'right-brain thinker'
p470
F0.0079159999999999994
sS'etl messaging pub-sub system'
p471
F0.0076119999999999998
sS'delivery throughput'
p472
F0.0074850000000000003
sS'numerous perk including conference f2f training'
p473
F0.0074850000000000003
sS'hopefully invited team meeting'
p474
F0.0074850000000000003
sS'home'
p475
F0.0038909999999999999
sS'throughout'
p476
F0.0031710000000000002
sS"'a one-platform' professional"
p477
F0.0081019999999999998
sS'integration'
p478
F0.0026849999999999999
sS'critical'
p479
F0.01052
sS'passion'
p480
F0.0023540000000000002
sS'market'
p481
F0.0022720000000000001
sS'demonstrated'
p482
F0.0074489999999999999
sS'core'
p483
F0.0075430000000000002
sS'senior-level'
p484
F0.0076119999999999998
sS'white-board'
p485
F0.0081019999999999998
sS'communicate'
p486
F0.0023570000000000002
sS'mobile camera bot'
p487
F0.0074850000000000003
sS'end-to-end'
p488
F0.0039870000000000001
sS'assemble'
p489
F0.0066480000000000003
sS'working'
p490
F0.00131
sS'genscape data platform'
p491
F0.0081019999999999998
sS'development fashion'
p492
F0.0074850000000000003
sS'ensure'
p493
F0.0020249999999999999
sS'azure'
p494
F0.0054039999999999999
sS'messaging'
p495
F0.069976999999999998
sS'software'
p496
F0.0049300000000000004
sS'broad range'
p497
F0.0044060000000000002
sS'globally distributed'
p498
F0.006378
sS'manage multiple priority'
p499
F0.0065890000000000002
sS'explore new idea'
p500
F0.0069950000000000003
sS'within'
p501
F0.0014499999999999999
sS'commitment'
p502
F0.0068700000000000002
sS'flavors---open 3rd party'
p503
F0.0081019999999999998
sS'organic net-net development'
p504
F0.0081019999999999998
sS'posse 9+ year'
p505
F0.0081019999999999998
sS'next gen'
p506
F0.0079159999999999994
sS'often over-used term'
p507
F0.0074850000000000003
sS'area'
p508
F0.00164
sS'pre-alpha beta'
p509
F0.0081019999999999998
sS'support'
p510
F0.003307
sS'data movement'
p511
F0.015509
sS'accountability'
p512
F0.0045669999999999999
sS'start'
p513
F0.0040920000000000002
sS'product manager'
p514
F0.0032190000000000001
sS'way'
p515
F0.0036449999999999998
sS'off-shore strategic'
p516
F0.0074850000000000003
sS'globe'
p517
F0.0029480000000000001
sS'function'
p518
F0.0025439999999999998
sS'4 year'
p519
F0.00777
sS'real-time'
p520
F0.0038670000000000002
sS'complete'
p521
F0.0036219999999999998
sS'offer'
p522
F0.0058279999999999998
sS'one reason'
p523
F0.0074850000000000003
sS'eai high-performance'
p524
F0.0094289999999999999
sS'self-motivated team member'
p525
F0.0074850000000000003
sS'sophisticated'
p526
F0.0043239999999999997
sS'delivery'
p527
F0.0047850000000000002
sS'line'
p528
F0.0038790000000000001
sS'ha'
p529
F0.0022439999999999999
sS'analyst'
p530
F0.002457
sS'week'
p531
F0.0041830000000000001
sS'technology hackathons'
p532
F0.0074850000000000003
sS'lead members'
p533
F0.0081019999999999998
sS'gaming go figure'
p534
F0.0074850000000000003
sS'data genscape'
p535
F0.0076119999999999998
sS'characteristic'
p536
F0.0046449999999999998
sS'work ethic'
p537
F0.0052240000000000003
sS'data-movement data'
p538
F0.0094289999999999999
sS'reward excellence'
p539
F0.0073699999999999998
sS'demonstrate'
p540
F0.0064450000000000002
sS'distribution'
p541
F0.0042389999999999997
sS'recognize'
p542
F0.0052240000000000003
sS'moved'
p543
F0.0073699999999999998
sS'life'
p544
F0.003993
sS'deep'
p545
F0.0091170000000000001
sS'perfect combination'
p546
F0.0073699999999999998
sS'role might'
p547
F0.0074850000000000003
sS'ideally'
p548
F0.004444
sS'niche provider'
p549
F0.0074850000000000003
sS'hybrid'
p550
F0.0057520000000000002
sS'detail'
p551
F0.002777
sS'successful'
p552
F0.0030149999999999999
sS'role'
p553
F0.00628
sS'scrum'
p554
F0.0049579999999999997
sS'equivalent experience'
p555
F0.0033930000000000002
sS'carefulness essential'
p556
F0.0074850000000000003
sS'team environment'
p557
F0.0038969999999999999
sS'next generation'
p558
F0.003496
sS'exposure'
p559
F0.0036770000000000001
sS'excellence'
p560
F0.002869
sS'land'
p561
F0.0071679999999999999
sS'software---not'
p562
F0.0074850000000000003
sS'distributing workload across'
p563
F0.0074850000000000003
sS'u'
F0.0084360000000000008
sS'time'
p564
F0.001833
sS'understand'
p565
F0.0051609999999999998
s.