(dp1
S'communicate effectively'
p2
F0.030020000000000002
sS'every aspect'
p3
F0.037116999999999997
sS'focus'
p4
F0.01474
sS'efficiently monetize'
p5
F0.058259999999999999
sS'query'
p6
F0.020968000000000001
sS'skill'
p7
F0.0068869999999999999
sS'provide weekly'
p8
F0.051422000000000002
sS'group'
p9
F0.013247999999999999
sS'analyst'
p10
F0.030359000000000001
sS'better'
p11
F0.016923000000000001
sS'source'
p12
F0.016865000000000002
sS'complex'
p13
F0.011825
sS'insight'
p14
F0.0099100000000000004
sS'seeking'
p15
F0.013438
sS'propose'
p16
F0.031113999999999999
sS'providing'
p17
F0.012923
sS'traffic'
p18
F0.034091000000000003
sS'level'
p19
F0.011011999999999999
sS'masters degree'
p20
F0.017207
sS'team'
p21
F0.0028519999999999999
sS'analytical'
p22
F0.030498000000000001
sS'study'
p23
F0.020480000000000002
sS'design implement'
p24
F0.029066000000000002
sS'people'
p25
F0.0096559999999999997
sS'work independently'
p26
F0.020745
sS'analytics'
p27
F0.0068450000000000004
sS'action item'
p28
F0.044888999999999998
sS'vacation rentals analytics'
p29
F0.063433000000000003
sS'recommendation'
p30
F0.014951000000000001
sS'recently concluded'
p31
F0.058259999999999999
sS'massive quantity'
p32
F0.058259999999999999
sS'expert'
p33
F0.014171
sS'can-do mindset'
p34
F0.058259999999999999
sS'experiment'
p35
F0.019446000000000001
sS'new'
p36
F0.014059
sS'ad hoc'
p37
F0.034238999999999999
sS'numerous'
p38
F0.036485999999999998
sS'decision-making'
p39
F0.026717000000000001
sS'turning'
p40
F0.036093
sS'ability'
p41
F0.012714
sS'business'
p42
F0.020506
sS'marketing'
p43
F0.012958000000000001
sS'applied math'
p44
F0.036901000000000003
sS'data scientist'
p45
F0.0049300000000000004
sS'monthly management-level report synthesized'
p46
F0.058259999999999999
sS'sort order'
p47
F0.055234999999999999
sS'quick'
p48
F0.033003999999999999
sS'focused'
p49
F0.016427000000000001
sS'strong'
p50
F0.0075700000000000003
sS'improve'
p51
F0.011233999999999999
sS'search'
p52
F0.020993999999999999
sS'interaction'
p53
F0.021994
sS'acquiring'
p54
F0.039412000000000003
sS'technical'
p55
F0.0070959999999999999
sS'hands-on practitioner'
p56
F0.051422000000000002
sS'taking'
p57
F0.027959000000000001
sS'experience'
p58
F0.0027880000000000001
sS'li-db2'
p59
F0.053088000000000003
sS'etc'
p60
F0.010744999999999999
sS'action'
p61
F0.020480000000000002
sS'support'
p62
F0.015325
sS'3+ year'
p63
F0.019675000000000002
sS'traveler'
p64
F0.040365999999999999
sS'use'
p65
F0.0080719999999999993
sS'revenue management'
p66
F0.078238000000000002
sS'java'
p67
F0.016923000000000001
sS'platform'
p68
F0.010255
sS'create'
p69
F0.010024999999999999
sS'question'
p70
F0.016677999999999998
sS'system'
p71
F0.0068599999999999998
sS'fast'
p72
F0.027643999999999998
sS'strategy'
p73
F0.010529999999999999
sS'analyze'
p74
F0.026442
sS'function'
p75
F0.015720999999999999
sS'optimizing'
p76
F0.025892999999999999
sS'excellent problem-solving'
p77
F0.039412000000000003
sS'b test'
p78
F0.037116999999999997
sS'analytical skill'
p79
F0.025652999999999999
sS'ha'
p80
F0.013864
sS'design implement trouble-shoot test'
p81
F0.058259999999999999
sS'customer'
p82
F0.006522
sS'evolves'
p83
F0.058259999999999999
sS'algorithm'
p84
F0.009273
sS'whether'
p85
F0.027342000000000002
sS'work'
p86
F0.0025990000000000002
sS'investigating'
p87
F0.034543999999999998
sS'bidding algorithm'
p88
F0.050062000000000002
sS'display'
p89
F0.031835000000000002
sS'proactive'
p90
F0.030106000000000001
sS'statistic'
p91
F0.013662000000000001
sS'raw data'
p92
F0.033945999999999997
sS'comfortable'
p93
F0.020794
sS'engineering'
p94
F0.010078
sS'need'
p95
F0.016053999999999999
sS'different'
p96
F0.018251
sS'reactive'
p97
F0.058259999999999999
sS'provide'
p98
F0.007587
sS'3+ year experience'
p99
F0.039119000000000001
sS'excel'
p100
F0.020671999999999999
sS'internal'
p101
F0.011958999999999999
sS'role'
p102
F0.0077609999999999997
sS'objective'
p103
F0.017454999999999998
sS'across multiple'
p104
F0.024277
sS'assist'
p105
F0.016317999999999999
sS'paid'
p106
F0.028632000000000001
sS'hand'
p107
F0.022564000000000001
sS'fast-growing'
p108
F0.038566000000000003
sS'fast-paced environment'
p109
F0.028153999999999998
sS'sql'
p110
F0.0082990000000000008
sS'data'
p111
F0.0036419999999999998
sS'senior'
p112
F0.030452
sS'vacation rental sort order'
p113
F0.058259999999999999
sS'effective'
p114
F0.016537
sS'actionable'
p115
F0.021250999999999999
sS"you'll"
p116
F0.017146000000000002
sS'provide timely'
p117
F0.041459999999999997
sS'model'
p118
F0.0074330000000000004
sS'strongly preferred'
p119
F0.027400999999999998
s.