(dp1
S'responsible'
p2
F0.012233000000000001
sS'inspire'
p3
F0.013514
sS'office'
p4
F0.0064120000000000002
sS'executive'
p5
F0.0093259999999999992
sS'hiring'
p6
F0.010096000000000001
sS'manager'
p7
F0.0065700000000000003
sS'including'
p8
F0.0028010000000000001
sS'aspect'
p9
F0.0084159999999999999
sS'innovative'
p10
F0.0056550000000000003
sS'portfolio'
p11
F0.008914
sS'research'
p12
F0.011727
sS'help'
p13
F0.003287
sS'posting referral'
p14
F0.022817
sS'candidate cultivation'
p15
F0.023555
sS'1 000 dedicated professional'
p16
F0.016670000000000001
sS'least 5 year'
p17
F0.014223
sS'candidate'
p18
F0.030952
sS'title'
p19
F0.013894
sS"we're hiring"
p20
F0.014375000000000001
sS'methodology'
p21
F0.01163
sS'high attention'
p22
F0.017763000000000001
sS'highly responsive'
p23
F0.023555
sS'screening'
p24
F0.017357000000000001
sS'ambiguity'
p25
F0.012132
sS'inquiry'
p26
F0.015692000000000001
sS'chicago waltham'
p27
F0.028146000000000001
sS'colleague'
p28
F0.019216
sS'tracked updated'
p29
F0.023555
sS'global'
p30
F0.0057080000000000004
sS'handle'
p31
F0.01208
sS'exceptional'
p32
F0.0087399999999999995
sS'practice'
p33
F0.013178
sS'experience preferably gained'
p34
F0.02087
sS'relevant experience'
p35
F0.0098370000000000003
sS'closely'
p36
F0.011121000000000001
sS'using'
p37
F0.003676
sS'new ventures'
p38
F0.032377999999999997
sS'maintaining'
p39
F0.018474999999999998
sS'timely'
p40
F0.011101
sS'necessary'
p41
F0.0091079999999999998
sS'exciting new'
p42
F0.018575000000000001
sS'executing'
p43
F0.011362000000000001
sS'level'
p44
F0.0048859999999999997
sS'entrepreneurial culture'
p45
F0.017357000000000001
sS'solution'
p46
F0.0023549999999999999
sS'method'
p47
F0.0046309999999999997
sS'either'
p48
F0.010569
sS'team'
p49
F0.0025309999999999998
sS'direct sourcing'
p50
F0.044426
sS'crm'
p51
F0.014078
sS'foundation'
p52
F0.010789
sS'maintained'
p53
F0.016775000000000002
sS'play'
p54
F0.0088940000000000009
sS"using mckinsey's proprietary"
p55
F0.023555
sS'analytics'
p56
F0.0030370000000000002
sS'general manager'
p57
F0.015931000000000001
sS'new ventures ep recruiting team continues'
p58
F0.023555
sS'ground-breaking talent'
p59
F0.023555
sS'investment'
p60
F0.010536
sS'analysis'
p61
F0.0027130000000000001
sS'driving'
p62
F0.016243
sS'managing'
p63
F0.0074450000000000002
sS'handle multiple task'
p64
F0.020521000000000001
sS'feedback'
p65
F0.011446
sS'integration'
p66
F0.0073629999999999998
sS'creative'
p67
F0.0074570000000000001
sS'various'
p68
F0.0057229999999999998
sS'meaningful'
p69
F0.0096830000000000006
sS'innovation'
p70
F0.005169
sS'solutions business'
p71
F0.023555
sS'new'
p72
F0.0031189999999999998
sS'new ventures foster innovation'
p73
F0.018065000000000001
sS'leader'
p74
F0.0052269999999999999
sS'supporting'
p75
F0.0077450000000000001
sS'ability'
p76
F0.003761
sS'business'
p77
F0.0045490000000000001
sS'sensitive information'
p78
F0.019179000000000002
sS"bachelor's degree"
p79
F0.0059379999999999997
sS'activity'
p80
F0.0068609999999999999
sS'data scientist'
p81
F0.0043750000000000004
sS'keep abreast'
p82
F0.017763000000000001
sS'understanding'
p83
F0.0042550000000000001
sS'efficiency'
p84
F0.0097719999999999994
sS'demand varies'
p85
F0.023555
sS'interview process'
p86
F0.018763999999999999
sS'dedication'
p87
F0.014999
sS'strong'
p88
F0.006718
sS"mckinsey's overall"
p89
F0.023555
sS'change'
p90
F0.0060330000000000002
sS'knowledge'
p91
F0.0060879999999999997
sS'software development'
p92
F0.0080440000000000008
sS'targeted ep recruiting'
p93
F0.023555
sS'search'
p94
F0.018630000000000001
sS'referral'
p95
F0.016884
sS'talent'
p96
F0.022605
sS'service'
p97
F0.010607999999999999
sS'across'
p98
F0.011102000000000001
sS'ep team serf'
p99
F0.023555
sS'identifying attracting'
p100
F0.023555
sS'likely shift'
p101
F0.023555
sS'explore'
p102
F0.0092370000000000004
sS'experience'
p103
F0.001237
sS'wide variety'
p104
F0.010895999999999999
sS'leadership'
p105
F0.0056519999999999999
sS'plus'
p106
F0.0050829999999999998
sS'comfort handling'
p107
F0.021260000000000001
sS'recruiting team'
p108
F0.017357000000000001
sS'executive presence'
p109
F0.020521000000000001
sS'powerpoint'
p110
F0.011006
sS'design thinking mobile'
p111
F0.017763000000000001
sS'software'
p112
F0.0033790000000000001
sS'consulting'
p113
F0.0082740000000000001
sS'alliance'
p114
F0.016101000000000001
sS'confidentiality'
p115
F0.018964999999999999
sS'within'
p116
F0.0079509999999999997
sS'one'
p117
F0.0038240000000000001
sS'appropriate'
p118
F0.0068560000000000001
sS'initiative'
p119
F0.0062659999999999999
sS'non-campus hire'
p120
F0.023555
sS'experienced professional ep recruiting represents'
p121
F0.023555
sS'redefining'
p122
F0.0093720000000000001
sS'mathematician data scientist designer software engineer'
p123
F0.016372999999999999
sS'landscape'
p124
F0.013514
sS'confidence'
p125
F0.012930000000000001
sS'handling client'
p126
F0.023555
sS'working'
p127
F0.003591
sS'area'
p128
F0.0044980000000000003
sS'high-performing experienced professional'
p129
F0.023555
sS'recruiting'
p130
F0.097054000000000001
sS'carry'
p131
F0.015259
sS'strategy'
p132
F0.014017
sS'new york'
p133
F0.010585000000000001
sS'previous experience'
p134
F0.026793000000000001
sS'interest'
p135
F0.0084250000000000002
sS"you'll also"
p136
F0.012997999999999999
sS'mean'
p137
F0.010652
sS'scope'
p138
F0.0092589999999999999
sS'analyze'
p139
F0.0058659999999999997
sS'assessment'
p140
F0.011341
sS'assessor'
p141
F0.023555
sS'leading'
p142
F0.0094900000000000002
sS'function'
p143
F0.0069750000000000003
sS'professional service'
p144
F0.015327
sS'sharing'
p145
F0.012266000000000001
sS'relationship'
p146
F0.0069100000000000003
sS'mckinsey'
p147
F0.039518999999999999
sS'company'
p148
F0.0033760000000000001
sS'required'
p149
F0.0064159999999999998
sS'appreciation'
p150
F0.017763000000000001
sS'part'
p151
F0.004529
sS'team member'
p152
F0.0066189999999999999
sS'line'
p153
F0.010635
sS'experienced professional'
p154
F0.034974999999999999
sS'fastest-growing part'
p155
F0.016372999999999999
sS'5 year'
p156
F0.0071989999999999997
sS'scheduling'
p157
F0.016015000000000001
sS'join'
p158
F0.0049459999999999999
sS'integrating'
p159
F0.0091079999999999998
sS'across north america'
p160
F0.020205999999999998
sS'work'
p161
F0.0046129999999999999
sS'lead'
p162
F0.0040020000000000003
sS'preparation'
p163
F0.013067
sS'sourcing'
p164
F0.014877
sS'minimal direction'
p165
F0.018575000000000001
sS'tracking system'
p166
F0.020521000000000001
sS'evaluating'
p167
F0.010988
sS'shift'
p168
F0.012003
sS'growing'
p169
F0.018133
sS'problem'
p170
F0.0045820000000000001
sS'providing'
p171
F0.0057340000000000004
sS'firm'
p172
F0.073986999999999997
sS'tenure'
p173
F0.023555
sS'developing'
p174
F0.017916999999999999
sS'orientation'
p175
F0.014126
sS'provide guidance'
p176
F0.011927999999999999
sS'800 analyst'
p177
F0.016469000000000001
sS'share'
p178
F0.0089639999999999997
sS'expands'
p179
F0.016996000000000001
sS'crm system'
p180
F0.019653
sS'strictest level'
p181
F0.023555
sS'need'
p182
F0.007123
sS'collaborate'
p183
F0.00564
sS'administrative skill'
p184
F0.022817
sS'organizational'
p185
F0.010168
sS'partner'
p186
F0.0052500000000000003
sS'product manager'
p187
F0.0088260000000000005
sS'goal'
p188
F0.0059300000000000004
sS'ensuring'
p189
F0.0091719999999999996
sS'comfort'
p190
F0.013435000000000001
sS'excel'
p191
F0.0091719999999999996
sS'detail'
p192
F0.0076150000000000002
sS'ideal'
p193
F0.014701000000000001
sS'internal'
p194
F0.010612999999999999
sS'role'
p195
F0.010330000000000001
sS'take'
p196
F0.006829
sS'online'
p197
F0.0086650000000000008
sS'interview'
p198
F0.012831
sS'ensure'
p199
F0.0055529999999999998
sS'development'
p200
F0.002222
sS'evolve'
p201
F0.012266000000000001
sS'product'
p202
F0.0025000000000000001
sS'new ventures ha'
p203
F0.016372999999999999
sS'recruitment'
p204
F0.014534
sS'social'
p205
F0.0093039999999999998
sS'qualifications'
p206
F0.0039909999999999998
sS'mapping'
p207
F0.014817
sS'includes'
p208
F0.0081689999999999992
sS'helping'
p209
F0.0071339999999999997
sS'driven'
p210
F0.013318
sS'additionally'
p211
F0.013677999999999999
sS'organization'
p212
F0.0037169999999999998
sS'changing'
p213
F0.010878000000000001
sS'overseeing applicant'
p214
F0.023555
sS'opportunity'
p215
F0.0033219999999999999
sS'grow'
p216
F0.014966
sS'vibrant ecosystem'
p217
F0.017763000000000001
sS"you'll work"
p218
F0.011854999999999999
sS'independently'
p219
F0.0093039999999999998
sS'model toward asset-based consulting'
p220
F0.017911
sS'prioritize'
p221
F0.0095960000000000004
sS'applicant'
p222
F0.0083649999999999992
sS'well'
p223
F0.0078270000000000006
sS'strategic acquisition'
p224
F0.017623
sS"you'll"
p225
F0.022824000000000001
sS'client'
p226
F0.016924000000000002
sS'solve'
p227
F0.0065649999999999997
sS'time'
p228
F0.005025
sS'position'
p229
F0.0032550000000000001
sS'senior'
p230
F0.0067559999999999999
sS'corporate'
p231
F0.0084849999999999995
sS'planning coordinating'
p232
F0.021260000000000001
s.