(dp1
S'responsible'
p2
F0.0053777313086700342
sS'cincinnati'
p3
F0.013082572659341842
sS'r d'
p4
F0.00091655069612651193
sS'nosql'
p5
F0.0052492722117161057
sS'developed'
p6
F0.0072495813937730009
sS'global'
p7
F0.0029132385852934702
sS'competitive'
p8
F0.0039331835769422048
sS'characteristic'
p9
F0.0048929917047206631
sS'ge'
p10
F0.057728648018912358
sS'industrial'
p11
F0.0075897633291150167
sS'through'
p12
F0.0072379257229464849
sS'ga'
p13
F0.0090567256025432512
sS'using'
p14
F0.001610456553565806
sS'responsive'
p15
F0.0074069189671869149
sS'frontend'
p16
F0.012400919462331577
sS'skill'
p17
F0.0053249487022289594
sS'decisions'
p18
F0.0075227292446522097
sS'atlanta'
p19
F0.017616917274017378
sS'resourceful'
p20
F0.0089540820770498807
sS'developer'
p21
F0.013119361743752318
sS'impact'
p22
F0.0032681469748495431
sS'machine'
p23
F0.0042785377239204442
sS'knowledge'
p24
F0.0068290176992217011
sS'candidate'
p25
F0.0026305917513075629
sS'religion'
p26
F0.0029065523279072471
sS'implementation'
p27
F0.0035771060120113737
sS'agile'
p28
F0.0085201857635668361
sS'technique'
p29
F0.0023379812677919512
sS'disability'
p30
F0.0025282604621089584
sS'methodology'
p31
F0.00365509733756321
sS'including'
p32
F0.001333416588973101
sS'better'
p33
F0.0042940257506294795
sS'platform'
p34
F0.0050172499132786355
sS'willing'
p35
F0.0069340719780425783
sS'tool'
p36
F0.0053237786477315771
sS'automation'
p37
F0.024907870159609241
sS'30005-4154'
p38
F0.018973319723303673
sS'defining'
p39
F0.0066487432547440934
sS'drug'
p40
F0.0067121317600599981
sS'staffing'
p41
F0.0083245232499235787
sS'2+'
p42
F0.0063799047664703894
sS'customer'
p43
F0.0018217972913750554
sS'collaborate'
p44
F0.0036832877524563411
sS'predictive.'
p45
F0.010379261145957741
sS'around'
p46
F0.0071904263429077263
sS'without'
p47
F0.003227305696401088
sS'qualifications'
p48
F0.0016999783648863798
sS'professional'
p49
F0.0029933409410180943
sS'advocate'
p50
F0.0085850626012712299
sS'design/architectural'
p51
F0.018973319723303673
sS'space.'
p52
F0.010684114526011049
sS'choice'
p53
F0.0073573155676795142
sS'refactoring'
p54
F0.012928571168206235
sS'oauth2'
p55
F0.016521061058681629
sS'we'
p56
F0.0010504191261138625
sS'background'
p57
F0.0030336134948301813
sS'shared'
p58
F0.0066666713011732876
sS'anticipates'
p59
F0.010684114526011049
sS'world'
p60
F0.0029015507528340478
sS'hmac'
p61
F0.018973319723303673
sS'yr'
p62
F0.011974458696860622
sS'required.'
p63
F0.0066938363129466511
sS'assessment'
p64
F0.0069647183674681071
sS'alpharetta'
p65
F0.011616552812387139
sS'school'
p66
F0.0075761944839712846
sS'resolve'
p67
F0.0065355948853486707
sS'like'
p68
F0.0034822203444606469
sS'opening.'
p69
F0.0099881846773972917
sS'level'
p70
F0.0052288541048353216
sS'2768859'
p71
F0.018973319723303673
sS'gender'
p72
F0.0030656462004717677
sS'communicates'
p73
F0.0078492636504832285
sS'framework'
p74
F0.0042909195335675129
sS'solution'
p75
F0.003681491680540229
sS'integrated'
p76
F0.013037371079122723
sS'audience'
p77
F0.0047588804814208902
sS'race'
p78
F0.0028488868991397979
sS'openid'
p79
F0.014629773008340483
sS'architecture'
p80
F0.0080114917399399452
sS'team'
p81
F0.00045606261032629799
sS'analytical'
p82
F0.0024022827909846219
sS'ohio'
p83
F0.011700794161773623
sS'aws/cloudfoundry/azure'
p84
F0.018973319723303673
sS'aws/cloudfoundry'
p85
F0.018973319723303673
sS'system'
p86
F0.0037495241993259383
sS'application'
p87
F0.004576190325657762
sS'diploma/ged'
p88
F0.015380826199644301
sS'people'
p89
F0.0023302334879102791
sS'spring'
p90
F0.0088320789626239772
sS'national'
p91
F0.0026994881338454632
sS'testing'
p92
F0.011178757922128947
sS'back'
p93
F0.0068251703570039327
sS'related'
p94
F0.0016020708667876791
sS'sex'
p95
F0.0034309644632611229
sS'chef'
p96
F0.0097252792946695543
sS'across'
p97
F0.0019311701280672995
sS'individual'
p98
F0.0028375305471435058
sS'sponsor'
p99
F0.0066666713011732876
sS'configuration'
p100
F0.0072033195261081021
sS'year'
p101
F0.0012710332513280701
sS'employment'
p102
F0.00741371319457927
sS'back-end'
p103
F0.010028404101607507
sV(2, 5]
p104
F0.0017520842679662136
sS'scale'
p105
F0.0038247998442565482
sS'business'
p106
F0.00087925365814329603
sS'expert'
p107
F0.00292835633763135
sS'decision'
p108
F0.0056299796283659342
sS'learner'
p109
F0.0090048138720660448
sS'integration'
p110
F0.0086005023728184769
sS'legal'
p111
F0.0078492636504832285
sS'lua'
p112
F0.015878914029679114
sS'investigation'
p113
F0.0060021740904794146
sS'sdlc'
p114
F0.0094584410736838972
sS'designing'
p115
F0.0044417977835391224
sS'relational'
p116
F0.0050270297784382511
sS'technology'
p117
F0.0047435474735097157
sS'web-token'
p118
F0.018973319723303673
sS'method'
p119
F0.0032253793977493985
sS'demonstrated'
p120
F0.0033338758907053919
sS'science/engineering'
p121
F0.011381374452376053
sS'entry-level'
p122
F0.014973858893092107
sS'infrastructure'
p123
F0.0039597841528271668
sS'ability'
p124
F0.0021947685909937298
sS'degree'
p125
F0.00099590336232142744
sS'database'
p126
F0.0053175829827962129
sS'eligibility'
p127
F0.005779744334865413
sS'upon'
p128
F0.0055719695600308086
sS'u.s.'
p129
F0.0048447327252938033
sS'deliver'
p130
F0.0028423904781583109
sS'scalability'
p131
F0.0086497655622303962
sS'standard'
p132
F0.0038603460022525937
sS'maven'
p133
F0.0097252792946695543
sS'quick'
p134
F0.007788933609016206
sS'job'
p135
F0.0014501935569698032
sS'leadership'
p136
F0.0034016000954691346
sS'georgia'
p137
F0.010577802824950484
sS'saltstack'
p138
F0.014629773008340483
sS'consideration'
p139
F0.0040332311207247349
sS'appropriate'
p140
F0.0042296862865705935
sS'strong'
p141
F0.0066959754926757759
sS'security'
p142
F0.014245527593496992
sS'information technology'
p143
F0.011323869782607252
sS'software development'
p144
F0.0049175182693599355
sS'c'
F0.0052067580063198645
sS'logging'
p145
F0.011974458696860622
sS'service'
p146
F0.0037960076220368228
sS'language'
p147
F0.0050340380363372086
sS'environment'
p148
F0.0045301978085284947
sS'career'
p149
F0.0033664552317904557
sS'industry'
p150
F0.0038408346636946578
sS'jwt'
p151
F0.016521061058681629
sS'federated'
p152
F0.015878914029679114
sS'experience'
p153
F0.0026314015259871495
sS'visa'
p154
F0.0071356763814837557
sS'iaas/paas'
p155
F0.016521061058681629
sS'dtr'
p156
F0.010427265614181154
sS'implement'
p157
F0.0029708957008305835
sS'expression'
p158
F0.0058348576866443487
sS'create'
p159
F0.0026737778931696086
sS'python/java'
p160
F0.016521061058681629
sS'evolving'
p161
F0.0067773733095527148
sS'origin'
p162
F0.0028816558358233466
sS'ci'
p163
F0.0090831413485068686
sS'relevant'
p164
F0.0031571175712702391
sS'ws-trust'
p165
F0.018973319723303673
sS'facility'
p166
F0.0079112697895361763
sS'matrixed'
p167
F0.0092485582043574099
sS'ethnic'
p168
F0.0094584410736838972
sS'build'
p169
F0.0041219749009624449
sS'highly'
p170
F0.0026232296370513153
sS'color'
p171
F0.0027239597206402174
sS'api'
p172
F0.0070592662308366578
sS'puppet'
p173
F0.009621441336485393
sS'fast'
p174
F0.0056277714970464111
sS'problem solving'
p175
F0.0042116392400017881
sS'compensation.'
p176
F0.0099881846773972917
sS'cs'
p177
F0.0091098734636661828
sS'apply'
p178
F0.0056621341288188749
sS'strategy'
p179
F0.0031348199913086962
sS'engineer'
p180
F0.0052611835026151257
sV(15, 20]
p181
F0.0097972892395484703
sS'sexual'
p182
F0.0030460160650882607
sS'git'
p183
F0.0076171510203822262
sS'working'
p184
F0.0023579056835980124
sS'area'
p185
F0.0026752820855624341
sS'challenging'
p186
F0.0050227169116666571
sS'hands-on'
p187
F0.0049011373123441331
sS'support'
p188
F0.0028228761769404469
sS'devops'
p189
F0.0076729556819820268
sS'submit'
p190
F0.008287008269100735
sS'logstash'
p191
F0.014973858893092107
sS'-'
F0.0027040561548884704
sS'needed'
p192
F0.0043158911864339339
sS'json'
p193
F0.0080742677816870792
sS'authorized'
p194
F0.0068839116240155445
sS'nginx'
p195
F0.013833624942350775
sS'basic'
p196
F0.003925264849744258
sS'legally'
p197
F0.0073087906283231001
sS'obstacle'
p198
F0.0093964340263726527
sS'lean/agile/xp/ci'
p199
F0.018973319723303673
sS'type'
p200
F0.0045298637378269205
sS'speaking'
p201
F0.0093065382925092768
sS'function'
p202
F0.0043253280744277285
sS'tailored'
p203
F0.010476325219676374
sS'offering'
p204
F0.0063021264252628665
sS'offer'
p205
F0.0058702167257099289
sS'successful'
p206
F0.0080609346216915772
sS'ws-security'
p207
F0.018973319723303673
sS'regard'
p208
F0.0035997630148767445
sS'great'
p209
F0.0042816267414138437
sS'new'
p210
F0.0011620932371294334
sVBachelor
p211
F0.00075882849846460869
sS'information systems'
p212
F0.0070273031874786979
sS'data scientist'
p213
F0.0004130966396579946
sS'automated'
p214
F0.0046578396820997079
sS'log4j'
p215
F0.018973319723303673
sS'delivers'
p216
F0.0061614227546582245
sS'aligned'
p217
F0.0088559519216905372
sS'ee computer science'
p218
F0.005044365081089428
sS'must'
p219
F0.0077300366122196769
sS'extend'
p220
F0.0090048138720660448
sS'high'
p221
F0.0030728274729377694
sS'debugging/troubleshooting'
p222
F0.018973319723303673
sS'made'
p223
F0.0059888487331208485
sS'xacml'
p224
F0.018973319723303673
sS'full'
p225
F0.0040443207203257631
sS'completion'
p226
F0.0060907839678421812
sS'18'
p227
F0.009621441336485393
sS'work'
p228
F0.0026002481450875434
sS'eclipse'
p229
F0.013247991785894257
sS'employ'
p230
F0.0062567280691075301
sS'self-motivated/able'
p231
F0.018973319723303673
sS'states'
p232
F0.0098268234874444096
sS'future'
p233
F0.0031145744786357241
sS'bachelors'
p234
F0.0044752592796869252
sS'authorization'
p235
F0.0065440978428681655
sS'learn'
p236
F0.0038450425442378014
sS'evaluates'
p237
F0.0084812255513534978
sS'1+'
p238
F0.0090048138720660448
sS'outcome'
p239
F0.010653825053116427
sS'restful'
p240
F0.0085429463570847134
sS'age'
p241
F0.0065717637308828443
sS'connect'
p242
F0.0068155287103626389
sS'polymer'
p243
F0.014973858893092107
sS'non-technical'
p244
F0.0056221280976916574
sS'developing'
p245
F0.0073440453088777571
sS'orientation'
p246
F0.0029640346587894843
sS'nodejs'
p247
F0.011535375489366572
sS'is'
p248
F0.0074964693458217154
sS'modern'
p249
F0.0060631427950341389
sS'it'
p250
F0.0029401858263023582
sS'conditioned'
p251
F0.0086064225288642587
sS'golang'
p252
F0.015878914029679114
sS'effectively'
p253
F0.014191966901571797
sS'engineering'
p254
F0.002326369666475109
sS'ansible'
p255
F0.010476325219676374
sS'expertise'
p256
F0.0074343425444394502
sS'manner'
p257
F0.0045929344421362719
sS'angularjs'
p258
F0.0099881846773972917
sS'software-defined'
p259
F0.010476325219676374
sS'need'
p260
F0.0022343556349847843
sS'seek'
p261
F0.0064935593248708944
sS'any'
p262
F0.00734508507144429
sS'law'
p263
F0.0039894157689255505
sS'foundational'
p264
F0.0095878751000825057
sS'information'
p265
F0.0014029164794491919
sS'united'
p266
F0.0087269596854731846
sS'requirements'
p267
F0.0033177628981385676
sS'saml'
p268
F0.013426658089946163
sS'cos'
p269
F0.018973319723303673
sS'make'
p270
F0.0024863940007771937
sS'screen'
p271
F0.008287008269100735
sS'able'
p272
F0.0034057714182228658
sS'owner'
p273
F0.0064279069640986435
sS'member'
p274
F0.0029401858263023582
sS'.'
F0.0037480493630394872
sS'ideal'
p275
F0.0050012767227845985
sS'internal'
p276
F0.0032311632903269478
sS'computer science'
p277
F0.0036910555689958083
sS'apis'
p278
F0.0068740134239744727
sS'digital'
p279
F0.020221603601628817
sS'jenkins'
p280
F0.0085639051447977677
sS'you'
p281
F0.0023758129973926461
sS'company'
p282
F0.0013893492851694844
sS'web development'
p283
F0.018672206153296882
sS'principle'
p284
F0.0057918746676752855
sS'development'
p285
F0.0072263713448945813
sS'information/data'
p286
F0.014331712318237729
sS'product'
p287
F0.0012780483642985917
sS'transforming'
p288
F0.0071468088325117446
sS'reactjs'
p289
F0.012784512423386117
sS'leadership development'
p290
F0.0090306188250701899
sS'diplomatically'
p291
F0.018973319723303673
sS'containerization'
p292
F0.013247991785894257
sS'interpersonal'
p293
F0.0055067983247834591
sS'develops'
p294
F0.0051016532553231856
sS'information system'
p295
F0.0061758228180277619
sS'connected'
p296
F0.0073087906283231001
sS'plan'
p297
F0.0034800610084501347
sS'splunk'
p298
F0.010332267383143011
sS'previous'
p299
F0.0066938363129466511
sS'end'
p300
F0.0053768461501107982
sS'protected'
p301
F0.0061528535921277728
sS'data'
p302
F0.00057486107333274891
sS'the'
p303
F0.00099944924646508675
sS'identity'
p304
F0.0032918249618319332
sS'succinct'
p305
F0.012286425955792385
sS'independently'
p306
F0.0046762090614931029
sS'no'
p307
F0.0050055483137335073
sS'older'
p308
F0.013620879459435686
sS'considered'
p309
F0.0054124765673082735
sS'clear'
p310
F0.0054907985945285903
sS'documentation'
p311
F0.0050141161026457754
sS'flow'
p312
F0.0066847445229042436
sS'predix'
p313
F0.014068804210653051
sS'or'
p314
F0.0070062459880739876
sS'gecareers.com'
p315
F0.018973319723303673
sS'practices'
p316
F0.0085221825418883655
sS'status'
p317
F0.0025680577223964811
sS'presenting'
p318
F0.0067585374574368976
sS'time'
p319
F0.0024836306448235983
sS'customers.'
p320
F0.006104733997873573
sS'management'
p321
F0.0019011919846188071
sS'docker'
p322
F0.008785085653945186
sS'software'
p323
F0.015389101845865508
sS'requires'
p324
F0.0050400186149134217
sS'veteran'
p325
F0.0026439050966450806
sS'paced'
p326
F0.0075095606761803229
sS'latest'
p327
F0.004448450063173238
s.