(dp1
S'jira'
p2
I1
sS'code'
p3
I1
sS'focus'
p4
I1
sS'hadoop'
p5
I1
sS'held'
p6
I1
sS'reviews.'
p7
I1
sS'concurrency'
p8
I1
sS'participate'
p9
I1
sS'skill'
p10
I1
sS'oriented'
p11
I1
sS'feeding'
p12
I1
sS'knowledge'
p13
I1
sS'big data'
p14
I1
sS'implementation'
p15
I1
sS'agile'
p16
I1
sS'temporal'
p17
I1
sS'technique'
p18
I1
sS'distributed'
p19
I1
sS'operational'
p20
I1
sS'analytic'
p21
I1
sS'include'
p22
I1
sS'computer science'
p23
I1
sS'seeking'
p24
I1
sS'science/software'
p25
I1
sS'practice'
p26
I1
sS'using'
p27
I1
sS'desire'
p28
I1
sS'level'
p29
I1
sS'lisp'
p30
I1
sS'c++'
p31
I1
sS'large'
p32
I1
sS'geospatial'
p33
I1
sS'source'
p34
I1
sS'team'
p35
I1
sS'analytical'
p36
I1
sS'requirement'
p37
I1
sS'software design'
p38
I1
sS'analytics'
p39
I1
sS'growth'
p40
I1
sS'design'
p41
I1
sS'year'
p42
I1
sS'implemented'
p43
I1
sV(2, 5]
p44
I1
sS'scale'
p45
I1
sS'business'
p46
I1
sS'scala'
p47
I1
sS'broad'
p48
I1
sS'+'
I1
sS'integration'
p49
I1
sS'adhere'
p50
I1
sS'3'
I1
sS'version'
p51
I1
sS'new'
p52
I1
sS'body'
p53
I1
sS'comparable'
p54
I1
sS'data analysis'
p55
I1
sS'distributed computing'
p56
I1
sS'degree'
p57
I1
sS'stakeholder'
p58
I1
sS'data scientist'
p59
I1
sS'understanding'
p60
I1
sS'desired'
p61
I1
sS'management'
p62
I1
sS'operating'
p63
I1
sS'members'
p64
I1
sS'software engineering'
p65
I1
sS'spark'
p66
I1
sS'strong'
p67
I1
sS'software development'
p68
I1
sS'pipeline'
p69
I1
sS'language'
p70
I1
sS'technical'
p71
I1
sS'etc.'
p72
I1
sS'programming'
p73
I1
sS'ocaml'
p74
I1
sS'experience'
p75
I1
sS'ensure'
p76
I1
sS'clojure'
p77
I1
sS'programing'
p78
I1
sS'software'
p79
I1
sS'strongly'
p80
I1
sS'coding'
p81
I1
sS'functional'
p82
I1
sS'test driven development'
p83
I1
sS'strategic'
p84
I1
sS'weather'
p85
I1
sS'quality'
p86
I1
sS'engineer'
p87
I1
sS'git'
p88
I1
sS'java'
p89
I1
sS'platform'
p90
I1
sS'system'
p91
I1
sVBachelor
p92
I1
sS'objectives.'
p93
I1
sS'company'
p94
I1
sS'continuous'
p95
I1
sS'c'
I1
sS'sophisticated'
p96
I1
sS'part'
p97
I1
sS'data processing'
p98
I1
sS'ruby'
p99
I1
sS'consumers.responsibilities'
p100
I1
sS'ibm'
p101
I1
sS'f'
I1
sS'solid'
p102
I1
sS'ml'
p103
I1
sS'functional programming'
p104
I1
sS'work'
p105
I1
sS'machine learning'
p106
I1
sS'reviews'
p107
I1
sS'bachelors'
p108
I1
sS'learn'
p109
I1
sS'similar'
p110
I1
sS'engineers'
p111
I1
sS'control'
p112
I1
sS'stream'
p113
I1
sS'computing'
p114
I1
sS'process'
p115
I1
sS'contribute'
p116
I1
sS'share'
p117
I1
sS'general'
p118
I1
sS'high'
p119
I1
sS'expertise'
p120
I1
sS'statistical analysis'
p121
I1
sS'in'
p122
I1
sS'analysis'
p123
I1
sS'technology'
p124
I1
sS'cassandra'
p125
I1
sS'data.'
p126
I1
sS'unit testing'
p127
I1
sS'-'
I1
sS'utilize'
p128
I1
sS'member'
p129
I1
sS'methodology'
p130
I1
sS'5'
I1
sS'build'
p131
I1
sS'plus'
p132
I1
sS'tool'
p133
I1
sS'higher'
p134
I1
sS'development'
p135
I1
sS'object'
p136
I1
sS'processing'
p137
I1
sS'proficiency'
p138
I1
sS'concurrent'
p139
I1
sS'data'
p140
I1
sS'structure'
p141
I1
sS'independently'
p142
I1
sS'algorithm'
p143
I1
sS'well'
p144
I1
sS'stash'
p145
I1
sS'object-oriented'
p146
I1
sS'maintain'
p147
I1
sS'professional'
p148
I1
sS'the'
p149
I1
s.