(dp1
S'experience working'
p2
F0.0085249999999999996
sS'insight'
p3
F0.0060629999999999998
sS'documentation outlining design'
p4
F0.038813
sS'assigned'
p5
F0.013084
sS'support vector machine kernel based'
p6
F0.038813
sS'statistical'
p7
F0.01396
sS'predictive modeling technique'
p8
F0.02086
sS'skill'
p9
F0.0042139999999999999
sS'machine learning technique'
p10
F0.01325
sS'- internships'
p11
F0.038813
sS'group'
p12
F0.0081060000000000004
sS'knowledge'
p13
F0.016789999999999999
sS'big data'
p14
F0.00711
sS'anomaly detection'
p15
F0.018421
sS'technique'
p16
F0.0061910000000000003
sS'environment'
p17
F0.0052859999999999999
sS'matlab'
p18
F0.016990999999999999
sS'integrate'
p19
F0.011974
sS'data structure'
p20
F0.014711999999999999
sS'global'
p21
F0.0078709999999999995
sS'finance'
p22
F0.012012999999999999
sS'engineering computer science'
p23
F0.019099000000000001
sS'senior data scientists statisticians'
p24
F0.038813
sS'evaluate'
p25
F0.01051
sS'financial service'
p26
F0.015204000000000001
sS'preferred'
p27
F0.019699999999999999
sS'datasets'
p28
F0.013712
sS'existing'
p29
F0.0095209999999999999
sS'advanced'
p30
F0.021396999999999999
sS'level'
p31
F0.0067380000000000001
sS'skills'
p32
F0.0099270000000000001
sS'scripting language'
p33
F0.015842999999999999
sS'usa-atlanta jv white'
p34
F0.038813
sS'solution'
p35
F0.0097409999999999997
sS'method'
p36
F0.0063860000000000002
sS'perl python scala'
p37
F0.038813
sS'world-class'
p38
F0.015813000000000001
sS'logistic'
p39
F0.025876
sS'data analytics'
p40
F0.010135999999999999
sS'analytics team'
p41
F0.014082000000000001
sS'prediction'
p42
F0.016840000000000001
sS'feasibility'
p43
F0.024115000000000001
sS'intern'
p44
F0.018860999999999999
sS'full time'
p45
F0.014354
sS'process improvement'
p46
F0.016056999999999998
sS'credit bureau'
p47
F0.031463999999999999
sS'manipulating'
p48
F0.021430999999999999
sS'tableau spotfire'
p49
F0.032482999999999998
sS'event'
p50
F0.013318
sS'telecommunication'
p51
F0.026446999999999998
sS'specific'
p52
F0.0099190000000000007
sS'communicate complex'
p53
F0.017923999999999999
sS'network'
p54
F0.0095659999999999999
sS'space'
p55
F0.012799
sS'familiarity'
p56
F0.0085850000000000006
sS'research'
p57
F0.010781000000000001
sS'access'
p58
F0.0095580000000000005
sS'experiment'
p59
F0.011898000000000001
sS'decision tree random forest boosting'
p60
F0.038813
sS'large datasets'
p61
F0.015842999999999999
sS'innovation'
p62
F0.0071279999999999998
sS'new'
p63
F0.017204000000000001
sS'across'
p64
F0.0051029999999999999
sS'math'
p65
F0.014226000000000001
sS'programming language'
p66
F0.0099190000000000007
sS'equifax'
p67
F0.033797000000000001
sS'ability'
p68
F0.0051859999999999996
sS'schedule'
p69
F0.012678
sS'diverse data source'
p70
F0.022846999999999999
sS'deliver'
p71
F0.0062269999999999999
sS'apache'
p72
F0.021042000000000002
sS'data type'
p73
F0.024910999999999999
sS'manipulate large data set'
p74
F0.026446999999999998
sS'strong consultative'
p75
F0.032482999999999998
sS'primary location'
p76
F0.013903
sS'rare'
p77
F0.030630999999999999
sS'pmml'
p78
F0.032482999999999998
sS'preferred skills'
p79
F0.017475999999999998
sS'java c c++'
p80
F0.023436999999999999
sS'experience'
p81
F0.0059699999999999996
sS'etc'
p82
F0.019723000000000001
sS'weka'
p83
F0.026446999999999998
sS'plus'
p84
F0.056079999999999998
sS'supervision'
p85
F0.019479
sS'powerpoint'
p86
F0.015178000000000001
sS'experience manipulating'
p87
F0.029318
sS'software'
p88
F0.0046600000000000001
sS'researching'
p89
F0.020431999999999999
sS'technical specification'
p90
F0.023597
sS'within'
p91
F0.010964
sS'functional'
p92
F0.011811
sS'appropriate'
p93
F0.0094540000000000006
sS'initiative'
p94
F0.0086400000000000001
sS'quantitative analysis'
p95
F0.014711999999999999
sS'spark'
p96
F0.011168000000000001
sS'clustering'
p97
F0.014185
sS'acumen'
p98
F0.022203000000000001
sS'statistics'
p99
F0.011911
sS'sas r'
p100
F0.019479
sS'exciting'
p101
F0.014619999999999999
sS'data'
p102
F0.0022279999999999999
sS'create'
p103
F0.0061339999999999997
sS'analytical solution'
p104
F0.031866999999999999
sS'genetic'
p105
F0.023436999999999999
sS'strong'
p106
F0.0046319999999999998
sS'certification'
p107
F0.015204000000000001
sS'prototype'
p108
F0.011911
sS'operations research'
p109
F0.015903
sS'function'
p110
F0.019238000000000002
sS'building'
p111
F0.0059490000000000003
sS'actionable manner'
p112
F0.021746000000000001
sS'business problem'
p113
F0.011701
sS'clear precise'
p114
F0.021430999999999999
sS'lift'
p115
F0.022846999999999999
sS'understand'
p116
F0.0065040000000000002
sS'ms office word excel'
p117
F0.032482999999999998
sS'bayesian network'
p118
F0.029318
sS'fraud'
p119
F0.055580999999999998
sS'join'
p120
F0.0068199999999999997
sS'work'
p121
F0.0015900000000000001
sS'machine learning'
p122
F0.014848999999999999
sS'project'
p123
F0.0073949999999999997
sS'unix environment'
p124
F0.026446999999999998
sS'optimization'
p125
F0.0095060000000000006
sS'design'
p126
F0.003777
sS'similar'
p127
F0.020691999999999999
sS'mahout etc'
p128
F0.033797000000000001
sS'detailed'
p129
F0.016281
sS'challenging'
p130
F0.012692999999999999
sS'process'
p131
F0.0046220000000000002
sS'contribute'
p132
F0.021378999999999999
sS'package'
p133
F0.013422
sS'graph theory'
p134
F0.027101
sS'analysis'
p135
F0.0074830000000000001
sS'formulation'
p136
F0.026152999999999999
sS'sas'
p137
F0.010059999999999999
sS'neural network'
p138
F0.018860999999999999
sS'preferably'
p139
F0.013511
sS'variety'
p140
F0.0090460000000000002
sS'predictive modeling'
p141
F0.010748000000000001
sS'graduate'
p142
F0.019546000000000001
sS'sciences'
p143
F0.021968999999999999
sS'complex'
p144
F0.0072350000000000001
sS'role'
p145
F0.0047479999999999996
sS'visualization tool'
p146
F0.016552000000000001
sS'unstructured data'
p147
F0.01259
sS'product'
p148
F0.0068960000000000002
sS'assist'
p149
F0.0099850000000000008
sS'spark mapreduce hive'
p150
F0.032482999999999998
sS'cleaning'
p151
F0.022578999999999998
sS'sql'
p152
F0.005078
sS'improving'
p153
F0.012907999999999999
sS'opportunity'
p154
F0.004581
sS'identity'
p155
F0.039503999999999997
sS'exposure'
p156
F0.111225
sS'new data asset'
p157
F0.035647999999999999
sS'hive impala'
p158
F0.029928
sS'algorithm'
p159
F0.011348
sS'coursework'
p160
F0.019613999999999999
sS'scala'
p161
F0.013884000000000001
sS'various dimension'
p162
F0.030630999999999999
sS'linear regression'
p163
F0.026446999999999998
sS'deliverable'
p164
F0.013565000000000001
sS'distributed computing tool'
p165
F0.022846999999999999
sS'quantitative'
p166
F0.0084770000000000002
sS'model'
p167
F0.0090959999999999999
sS'looking'
p168
F0.0061910000000000003
s.