(dp1
S'r d'
p2
F0.001176546452334319
sS'codification'
p3
F0.021207551158422263
sS'detailing'
p4
F0.015249278181182204
sS'text'
p5
F0.0094443477774224134
sS'dynamic'
p6
F0.0055001563849064235
sS'obtain'
p7
F0.0080605492687283037
sS'course'
p8
F0.0082409337618720869
sS'planning'
p9
F0.0061236015134165985
sS'including'
p10
F0.0017116637016044392
sS'participate'
p11
F0.006371093918233442
sS'initiatives.'
p12
F0.010452844730799117
sS'data'
p13
F0.00073793054685693834
sS'scale'
p14
F0.0049097717198479471
sS'sciences'
p15
F0.01099320775034212
sS'hold'
p16
F0.011368098741883555
sS'group'
p17
F0.009091772725100122
sS'knowledge'
p18
F0.0017532377818059151
sS'wallace'
p19
F0.040766495617743516
sS'title'
p20
F0.0070551901382883931
sS'description'
p21
F0.0036073488178072414
sS'multidisciplinary'
p22
F0.011592312990347981
sS'environment'
p23
F0.0019384227490169682
sS'foster'
p24
F0.0085926609404014323
sS'candidates'
p25
F0.0084556539691419044
sS'biomedical'
p26
F0.11334569838680765
sS'medicine.'
p27
F0.019221457834112502
sS'appointments.'
p28
F0.02435543620641847
sS'details'
p29
F0.012576462977987722
sS'appointment'
p30
F0.016237355722976108
sS'md'
p31
F0.011835573791490658
sS'assistant'
p32
F0.01408749403614647
sS'preferred'
p33
F0.0022452657918867426
sS'health informatics'
p34
F0.037559531849493046
sS'unstructured'
p35
F0.0078007462016951258
sS'joint'
p36
F0.027865149594609617
sS'five'
p37
F0.0087612502003947337
sS'closely'
p38
F0.0046034133760328349
sS'h.'
p39
F0.039487737177310293
sS'applicants'
p40
F0.0084445270448489061
sS'school'
p41
F0.019450631110711381
sS'several'
p42
F0.0079277037893307652
sS'committees'
p43
F0.020383247808871758
sS'university'
p44
F0.02487937225399009
sS'list'
p45
F0.010343051472818748
sS'math'
p46
F0.0067505908474552343
sS'biological'
p47
F0.014168212298350956
sS'peer-reviewed'
p48
F0.028017975059508839
sS'signal'
p49
F0.010887074633256066
sS'outstanding'
p50
F0.0082409337618720869
sS'requirement'
p51
F0.0032418317019793953
sS'set'
p52
F0.0078338451522691702
sS'foundation'
p53
F0.007765482494264727
sS'translational'
p54
F0.03282212931620046
sS'related'
p55
F0.0061695794984602892
sS'funding.'
p56
F0.018779765924746523
sS'//www.atlantactsi.org/areas/bip/'
p57
F0.021207551158422263
sS'computer'
p58
F0.0089403834631109225
sS'design'
p59
F0.0019522024531140533
sS'year'
p60
F0.00081579211546558086
sS'multiple'
p61
F0.0033560553566851351
sV(2, 5]
p62
F0.002249093845412217
sS'ability'
p63
F0.0014086766887753453
sS'rt'
p64
F0.022369341716157128
sS'technology/emory'
p65
F0.040766495617743516
sS'necessary.'
p66
F0.016793674932335662
sS'lead'
p67
F0.0032891784461480836
sS'regular/temporary'
p68
F0.018779765924746523
sS'familiarity'
p69
F0.0053229692605682279
sS'integration'
p70
F0.016560279640498617
sS'publish'
p71
F0.012671981640895917
sS'research'
p72
F0.024587752311308442
sS'track'
p73
F0.0062395275437948068
sS'contained'
p74
F0.013714851884392407
sS'medicine'
p75
F0.013323521471028849
sS'across'
p76
F0.0024789805655419774
sS'demonstrated'
p77
F0.0085591770718396309
sS'discovery'
p78
F0.0084556539691419044
sS'supporting'
p79
F0.0063442928065318947
sS'infrastructure'
p80
F0.0050830467062079393
sS'scientific'
p81
F0.0071596399673270333
sS'tenure'
p82
F0.014911792721918163
sS'journal'
p83
F0.011494065245038241
sS'processing'
p84
F0.0045658896522061286
sS'possibility'
p85
F0.01292571338891638
sS'724200'
p86
F0.022369341716157128
sS'implementing'
p87
F0.0063177401138429677
sS'job'
p88
F0.007446266057564147
sS'radiology'
p89
F0.017757776430295552
sS'operating'
p90
F0.0059371567133630872
sS'imaging'
p91
F0.030498556362364409
sS'references'
p92
F0.019221457834112502
sS'statistical inference'
p93
F0.011872074715049053
sS'informatics'
p94
F0.13732428757630818
sS'teach'
p95
F0.010497967796876635
sS'ontology'
p96
F0.014515948811745035
sS'biomedical engineering'
p97
F0.035515552860591104
sS'regular'
p98
F0.0071809948106742062
sS'publication'
p99
F0.019450631110711381
sS'software development'
p100
F0.00631245898187178
sS'unit/division'
p101
F0.020383247808871758
sS'search'
p102
F0.007224188053515164
sS'engage'
p103
F0.0072606866453909921
sS'candidate'
p104
F0.013507221829063474
sS'admin'
p105
F0.015019930614540352
sS'many'
p106
F0.0066125616891417171
sS'study'
p107
F0.007458358800015317
sS'area'
p108
F0.0068683459847104326
sS'experience'
p109
F0.00059609028331817444
sS'medical informatics'
p110
F0.016073578615864722
sS'mhealth.'
p111
F0.020383247808871758
sS'information system'
p112
F0.0079277037893307652
sS'massive'
p113
F0.0081795349917499031
sS'professor'
p114
F0.018059668442328272
sS'engineering.'
p115
F0.02757120754605271
sS'multi-disciplinary'
p116
F0.011160163874688137
sS'coulter'
p117
F0.040766495617743516
sS'software'
p118
F0.0024693114709698235
sS'relevant'
p119
F0.0081053792087625622
sS'projection'
p120
F0.016073578615864722
sVDoctor
p121
F0.0036466036028120121
sS'researcher'
p122
F0.016735651127355245
sS'recruiting'
p123
F0.0079463087246271769
sS'data science'
p124
F0.0053324573418553163
sS'faculty'
p125
F0.02817498807229294
sS'som'
p126
F0.021207551158422263
sS'highly'
p127
F0.003367354949567304
sS'interface'
p128
F0.0066717589890737958
sS'healthcare.'
p129
F0.010386465220996201
sS'data warehousing'
p130
F0.0094286478854069961
sS'data mining'
p131
F0.012715108162077656
sS'informatics.'
p132
F0.018059668442328272
sS'image processing'
p133
F0.013146229799545434
sS'cv'
p134
F0.018059668442328272
sS'conference'
p135
F0.0087612502003947337
sS'management'
p136
F0.0024404985934361762
sS'additional'
p137
F0.0052969416151982989
sS'service'
p138
F0.0024364060382127458
sS'privacy'
p139
F0.0097778901350465252
sS'leading'
p140
F0.0029387778903449289
sS'support'
p141
F0.0036236347486226939
sS'there'
p142
F0.011592312990347981
sS'they'
p143
F0.0081293557216702509
sS'system'
p144
F0.0024065714058710891
sS'submit'
p145
F0.010637764196438766
sS'nationally.'
p146
F0.021207551158422263
sS'extraction'
p147
F0.0084668242756389678
sS'regulation'
p148
F0.0089403834631109225
sS'clinical'
p149
F0.067824306431424938
sS"institute's"
p150
F0.020383247808871758
sS'interest'
p151
F0.0061834990595450168
sS'imaging science'
p152
F0.018779765924746523
sS'expected'
p153
F0.007765482494264727
sS'proposal'
p154
F0.010613985974774344
sS'important'
p155
F0.0068506905503887714
sS'clinical research'
p156
F0.014424978912441069
sS'field'
p157
F0.0026706635628194839
sS'enable'
p158
F0.0059838185203568966
sS'successful'
p159
F0.010347560775122711
sS'tool'
p160
F0.0034169811377990638
sS'bmi'
p161
F0.022369341716157128
sS'enormous'
p162
F0.015498593281680587
sS'informatics-related'
p163
F0.021207551158422263
sS'technique'
p164
F0.0030011908537845105
sS'atlanta'
p165
F0.011307133150085653
sS'aligned'
p166
F0.011368098741883555
sS'effort'
p167
F0.0053948316051850749
sS'must'
p168
F0.0066151984761688926
sS'10'
p169
F0.0057971544675280654
sS'georgia'
p170
F0.027156765991849952
sS'streaming'
p171
F0.010115366849980595
sS'these'
p172
F0.0081095275384298494
sS'science'
p173
F0.0084106204229674429
sS'extramural'
p174
F0.021207551158422263
sS'mhealth'
p175
F0.021207551158422263
sS'machine learning'
p176
F0.004541766747883918
sS'project'
p177
F0.0022439909107374771
sS'record'
p178
F0.005504132665267082
sS'future'
p179
F0.0079961568276722319
sS'full/part'
p180
F0.018779765924746523
sS'three'
p181
F0.017448558885096738
sS'of'
p182
F0.012223365520179479
sS'following'
p183
F0.0045889229386749256
sS'locally'
p184
F0.014515948811745035
sS'institute'
p185
F0.024788956947966512
sS'program'
p186
F0.0080008625690699518
sS'computing'
p187
F0.0061039107811847347
sS'well'
p188
F0.0031616911639405216
sS'65751br'
p189
F0.044738683432314255
sS'proven'
p190
F0.0052784941792449582
sS'emory'
p191
F0.08878888215147776
sS'comparative'
p192
F0.01659598820445958
sS'signal processing'
p193
F0.012182137629072954
sS'plan'
p194
F0.004467241638354328
sS'create'
p195
F0.0034322421092836241
sS'technology'
p196
F0.0030445691520520814
sS'id'
p197
F0.0088366544629196672
sS'information'
p198
F0.0036017569214512207
sS'strength'
p199
F0.018983940660186126
sS'develop'
p200
F0.0019625809391297182
sS'journals/conferences'
p201
F0.020383247808871758
sS'-'
F0.0034711093334958013
sS'detail'
p202
F0.006203746490724393
sS'member'
p203
F0.0037742213472305342
sS'also'
p204
F0.0038469133390043667
sS'potential'
p205
F0.0051631632376518107
sS'computer science'
p206
F0.0047380885240977709
sS'natural language processing'
p207
F0.014610215502124563
sS'department'
p208
F0.058327905894543404
sS'full-time'
p209
F0.0072314506671561883
sS'development'
p210
F0.0026503596909642018
sS'http'
p211
F0.0075462773467771483
sS'intended'
p212
F0.012223365520179479
sS'collaborative'
p213
F0.0057103313131851305
sS'provide leadership'
p214
F0.012671981640895917
sS'time'
p215
F0.0031881562432119542
sS'qualifications'
p216
F0.0021822071847252098
sS'phd'
p217
F0.0048269128358712646
sS'and/or'
p218
F0.0059692680740825264
sS'bd2k'
p219
F0.021207551158422263
sS'letter'
p220
F0.010861144455417405
sS'bioinformatics'
p221
F0.020351380111646746
sS'services'
p222
F0.0062653618603304706
sS'hipaa'
p223
F0.016073578615864722
sS'a'
F0.0039583725603818372
sS'sources.'
p224
F0.010809977663177634
sS'processing.'
p225
F0.01641106465810023
sS'database'
p226
F0.0034130045505626123
sS'cloud computing'
p227
F0.010135333800878114
sS'desirable.'
p228
F0.017235366258727455
sS'cover'
p229
F0.0096397798937787535
sS'analysis'
p230
F0.0028728366763625911
sS'contact'
p231
F0.0072828111031725228
sS'high-throughput'
p232
F0.017006018109113546
sS'healthcare'
p233
F0.0061186661269504849
sS'biomedical informatics'
p234
F0.03319197640891916
sS'position'
p235
F0.0022325424576089465
sS'the'
p236
F0.010263685098369257
sS'clinician'
p237
F0.01287313764332425
sS'requisition'
p238
F0.0088751140903795423
s.