(dp1
S'communicate effectively'
p2
F0.013409000000000001
sS'help'
p3
F0.0066179999999999998
sS'tech associate service solutions business intelligence bi system'
p4
F0.015292999999999999
sS'business need'
p5
F0.010236
sS'move'
p6
F0.010826000000000001
sS'mission'
p7
F0.0059979999999999999
sS'bring'
p8
F0.0059579999999999998
sS'planning'
p9
F0.0076049999999999998
sS'including'
p10
F0.00282
sS'committed'
p11
F0.010833000000000001
sS'ground'
p12
F0.0099830000000000006
sS'looking'
p13
F0.0045199999999999997
sS'inspiring'
p14
F0.0094339999999999997
sS'sale collateral etc'
p15
F0.020341000000000001
sS'adp'
p16
F0.038443999999999999
sS'adp totalsource'
p17
F0.026023000000000001
sS'implementation'
p18
F0.0056849999999999999
sS'agile'
p19
F0.0088749999999999992
sS'certification'
p20
F0.011098999999999999
sS'sell idea internally'
p21
F0.019536999999999999
sS'production'
p22
F0.013246000000000001
sS'employee'
p23
F0.0059740000000000001
sS'excellent oral'
p24
F0.013769
sS'team'
p25
F0.0025479999999999999
sS'written communication'
p26
F0.012983
sS'inclusive workplace'
p27
F0.010494
sS'operations information'
p28
F0.015292999999999999
sS'someone'
p29
F0.010107
sS'comprehensive solution'
p30
F0.010791
sS'miami florida location 10200 sunset drive'
p31
F0.026023000000000001
sS'hiring'
p32
F0.010163999999999999
sS'cloud experts'
p33
F0.010914
sS'performance'
p34
F0.0048719999999999996
sS'execution'
p35
F0.015184
sS'strive'
p36
F0.0092119999999999997
sS'elevate'
p37
F0.012213
sS'course'
p38
F0.020924999999999999
sS"set forth you'll also"
p39
F0.022969
sS'solution'
p40
F0.0071110000000000001
sS'equal employment opportunity regardless'
p41
F0.010843999999999999
sS'specific'
p42
F0.007241
sS'continue'
p43
F0.0080979999999999993
sS'activity'
p44
F0.0069069999999999999
sS'release'
p45
F0.012375000000000001
sS'business objective'
p46
F0.011375
sS'user champion'
p47
F0.020341000000000001
sS'recommend alternative technical'
p48
F0.021402000000000001
sS'vision'
p49
F0.014517
sS'clarify requirement'
p50
F0.017881999999999999
sS'requirement'
p51
F0.021055000000000001
sS'pragmatic'
p52
F0.017739999999999999
sS'people'
p53
F0.004313
sS'product definition'
p54
F0.018030000000000001
sS'innovative'
p55
F0.0056930000000000001
sS'business stakeholder'
p56
F0.012239
sS'brilliant engineer architect data scientist infrastructure expert'
p57
F0.0098370000000000003
sS'located'
p58
F0.0092329999999999999
sS'unlock'
p59
F0.0089239999999999996
sS'adp power'
p60
F0.010914
sS'design'
p61
F0.0082730000000000008
sS'career potential technology'
p62
F0.0099419999999999994
sS'combining'
p63
F0.013188999999999999
sS'innovative companies adp ha'
p64
F0.010914
sS'product roadmap'
p65
F0.015875
sS'product development'
p66
F0.0070889999999999998
sS'saas solution'
p67
F0.0097730000000000004
sS'user story'
p68
F0.017739999999999999
sS'vital asset employee'
p69
F0.0099419999999999994
sS'job performance'
p70
F0.010808999999999999
sS'program programmer'
p71
F0.015292999999999999
sS'managing'
p72
F0.0074939999999999998
sS'personal merit qualification experience'
p73
F0.010843999999999999
sS'research'
p74
F0.0039350000000000001
sS'modern value-added experience'
p75
F0.026023000000000001
sS'working world'
p76
F0.010879
sS'r'
F0.0050090000000000004
sS'phr sphr gphr'
p77
F0.026023000000000001
sS"bachelor's degree"
p78
F0.0059779999999999998
sS'approach'
p79
F0.005476
sS'coordinating product development'
p80
F0.020341000000000001
sS'externally'
p81
F0.013684999999999999
sS'stakeholder'
p82
F0.0068640000000000003
sS'ability'
p83
F0.0037859999999999999
sS'business'
p84
F0.0045799999999999999
sS'associate'
p85
F0.01025
sS'market-facing software'
p86
F0.021402000000000001
sS'marketing'
p87
F0.017363
sS'equivalent'
p88
F0.014988
sS'million'
p89
F0.0068690000000000001
sS'deliver'
p90
F0.0090919999999999994
sS'refinement working day-to-day'
p91
F0.020341000000000001
sS'delivering'
p92
F0.0077409999999999996
sS'following'
p93
F0.0060520000000000001
sS'exciting'
p94
F0.010673
sS'every interaction'
p95
F0.010325000000000001
sS'associate excel based'
p96
F0.010843999999999999
sS'production qa quality assurance release service statutory ux ui user experience interface researcher designer service'
p97
F0.015292999999999999
sS'driven'
p98
F0.0067029999999999998
sS'training'
p99
F0.019899
sS'candidate'
p100
F0.0062319999999999997
sS'business goal'
p101
F0.013050000000000001
sS'technical'
p102
F0.0031689999999999999
sS'mental disability'
p103
F0.010050999999999999
sS'industry'
p104
F0.0037919999999999998
sS'experience'
p105
F0.0043579999999999999
sS"world's"
p106
F0.0085509999999999996
sS'prioritization'
p107
F0.014522999999999999
sS'workplace'
p108
F0.0069119999999999997
sS'leading'
p109
F0.004777
sS'totalsource strategy'
p110
F0.026023000000000001
sS'software'
p111
F0.0068040000000000002
sS'3+ year'
p112
F0.017576999999999999
sS'conceptualize negotiate'
p113
F0.019536999999999999
sS'person counts results-driven social responsibility'
p114
F0.010623
sS'core value insightful expertise integrity'
p115
F0.010477999999999999
sS'manage'
p116
F0.011200999999999999
sS'one'
p117
F0.01155
sS'preferred qualifications preference'
p118
F0.016122000000000001
sS'related searches engineer'
p119
F0.017739999999999999
sS'analyzing'
p120
F0.0092010000000000008
sS'application developer'
p121
F0.012852000000000001
sS'redefining'
p122
F0.0094339999999999997
sS'everything service excellence inspiring innovation'
p123
F0.010477999999999999
sS'latest innovation'
p124
F0.0098759999999999994
sS'quality'
p125
F0.0055750000000000001
sS'presentation skill'
p126
F0.010574
sS'market'
p127
F0.018814999999999998
sS'product manager'
p128
F0.017769
sS'comprised'
p129
F0.0089929999999999993
sS'research empowering'
p130
F0.0099150000000000002
sS'given'
p131
F0.010325000000000001
sS'service'
p132
F0.0035599999999999998
sS'capable'
p133
F0.011174999999999999
sS'product owner'
p134
F0.01282
sS'support'
p135
F0.0045640000000000003
sS'product road map'
p136
F0.020341000000000001
sS'transform'
p137
F0.0096229999999999996
sS'strategy'
p138
F0.0047029999999999997
sS'priority'
p139
F0.0096229999999999996
sS'needed'
p140
F0.0069670000000000001
sS'drive business success consistently named one'
p141
F0.010914
sS'forbes'
p142
F0.010541999999999999
sS'way'
p143
F0.0050299999999999997
sS'articulating'
p144
F0.018030000000000001
sS'agile development methodology'
p145
F0.016677999999999998
sS'product backlog grooming prioritization'
p146
F0.020341000000000001
sS'globe'
p147
F0.0081370000000000001
sS'life'
p148
F0.016532999999999999
sS'offer'
p149
F0.0053619999999999996
sS'65 year'
p150
F0.021829000000000001
sS'serve'
p151
F0.0081370000000000001
sS'way business manage'
p152
F0.0099150000000000002
sS'engineering team'
p153
F0.0094339999999999997
sS'design implementation chief principal enterprise specialist infrastructure'
p154
F0.015361
sS'part'
p155
F0.0045589999999999997
sS'accomplish project'
p156
F0.018889
sS'line'
p157
F0.010706
sS'believe'
p158
F0.0069020000000000001
sS'end user'
p159
F0.011631000000000001
sS'project management'
p160
F0.0078460000000000005
sS'customer'
p161
F0.0029129999999999998
sS'practicality'
p162
F0.019784
sS'diversity fuel innovation adp'
p163
F0.010843999999999999
sS'align'
p164
F0.013525000000000001
sS'work'
p165
F0.0023219999999999998
sS'project'
p166
F0.005398
sS'future'
p167
F0.0050769999999999999
sS'evaluating'
p168
F0.011061
sS'product management'
p169
F0.0099830000000000006
sS'meet'
p170
F0.0063210000000000002
sS'distribution'
p171
F0.011698999999999999
sS'balance'
p172
F0.011861
sS'achieved'
p173
F0.014976
sS'central resource'
p174
F0.019307000000000001
sS'protected veteran status'
p175
F0.0085419999999999992
sS'possible named one'
p176
F0.0099419999999999994
sS'solution world-wide'
p177
F0.010914
sS'process'
p178
F0.0033739999999999998
sS'forever change'
p179
F0.0099150000000000002
sS'industry certification'
p180
F0.017472999999999999
sS'sale'
p181
F0.0083619999999999996
sS'product positioning demo design'
p182
F0.020341000000000001
sS'collaborate'
p183
F0.0056779999999999999
sS'highly automated intelligent'
p184
F0.0098630000000000002
sS'recognized'
p185
F0.0083540000000000003
sS"computerworld's 100 best places"
p186
F0.0099150000000000002
sS'need'
p187
F0.0035850000000000001
sS'education'
p188
F0.0054479999999999997
sS'technology'
p189
F0.0024190000000000001
sS'action'
p190
F0.0091479999999999999
sS'analyst architect data scientist'
p191
F0.015720000000000001
sS'end'
p192
F0.010370000000000001
sS'goal'
p193
F0.0059699999999999996
sS"world's largest b2b cloud company"
p194
F0.0098370000000000003
sS'latest operating platform'
p195
F0.0098630000000000002
sS'admired companies'
p196
F0.01074
sS'responsible'
p197
F0.0082089999999999993
sS'able'
p198
F0.0051580000000000003
sS'also'
p199
F0.005522
sS'responsibilities'
p200
F0.0041399999999999996
sS'potential'
p201
F0.0080599999999999995
sS'role'
p202
F0.0069329999999999999
sS'best'
p203
F0.005757
sS'test'
p204
F0.0064879999999999998
sS'ensure'
p205
F0.011180000000000001
sS'enjoy exploring identifying'
p206
F0.0098759999999999994
sS'development activity'
p207
F0.014857
sS'largest provider'
p208
F0.010861000000000001
sS'development'
p209
F0.0089460000000000008
sS'product'
p210
F0.022651999999999999
sS'multiple'
p211
F0.0064359999999999999
sS'race color genetic information creed religion sex sexual orientation gender identity lawful alien status national origin age marital status non-job related physical'
p212
F0.010843999999999999
sS'analyst disaster recovery change control'
p213
F0.015292999999999999
sS'predictive solution'
p214
F0.0097599999999999996
sS'act'
p215
F0.0095510000000000005
sS'qualifications'
p216
F0.0040179999999999999
sS'envelope utilizing'
p217
F0.0098630000000000002
sS'delight'
p218
F0.014976
sS'simplify'
p219
F0.017226000000000002
sS'fortune magazine'
p220
F0.010656000000000001
sS'human capital management'
p221
F0.021548000000000001
sS'develop'
p222
F0.0025999999999999999
sS'sr'
p223
F0.013942
sS'required'
p224
F0.0032299999999999998
sS'innovative companies'
p225
F0.0098499999999999994
sS'drive'
p226
F0.0042810000000000001
sS'analysis'
p227
F0.005463
sS"you'll"
p228
F0.007659
sS'client'
p229
F0.0042589999999999998
sS'half-million client around'
p230
F0.010914
sS'enterprise'
p231
F0.0061749999999999999
sS'push'
p232
F0.0086040000000000005
sS'position'
p233
F0.0065529999999999998
sS'senior'
p234
F0.013602
sS'first'
p235
F0.0079109999999999996
sS"forbes'"
p236
F0.0097470000000000005
s.