(dp1
S'limited'
p2
F0.0090430000000000007
sS'concept'
p3
F0.0038830000000000002
sS'focus'
p4
F0.0039350000000000001
sS'manages'
p5
F0.0063879999999999996
sS'program'
p6
F0.003117
sS'help shape'
p7
F0.010029
sS'include'
p8
F0.007443
sS'division'
p9
F0.0060650000000000001
sS'risk'
p10
F0.0091219999999999999
sS'every'
p11
F0.0055050000000000003
sS'timely'
p12
F0.0066779999999999999
sS'turner data'
p13
F0.016931999999999999
sS'solution'
p14
F0.0014170000000000001
sS'roadblock'
p15
F0.0096340000000000002
sS'team'
p16
F0.0053299999999999997
sS'cms'
p17
F0.011982
sS"hear won't"
p18
F0.016931999999999999
sS'cost'
p19
F0.0060569999999999999
sS'process improvement'
p20
F0.0070049999999999999
sS'business unit'
p21
F0.0062529999999999999
sS'platform ios'
p22
F0.016931999999999999
sS'experience developing'
p23
F0.013198
sS'folk'
p24
F0.011289
sS'method'
p25
F0.0027859999999999998
sS'full'
p26
F0.010349000000000001
sS'understanding'
p27
F0.0025600000000000002
sS'desired'
p28
F0.0056379999999999998
sS'ms project2000 experience'
p29
F0.016931999999999999
sS'strong'
p30
F0.0020209999999999998
sS'change'
p31
F0.0072579999999999997
sS'software development'
p32
F0.0048390000000000004
sS'technical'
p33
F0.0037880000000000001
sS'experience'
p34
F0.002977
sS'periodic'
p35
F0.015552
sS'mentor'
p36
F0.0054419999999999998
sS'action'
p37
F0.0054669999999999996
sS'implement'
p38
F0.0028189999999999999
sS'love'
p39
F0.0053150000000000003
sS"wait there's"
p40
F0.015552
sS'multiple inter-dependencies among'
p41
F0.016931999999999999
sS'establish'
p42
F0.011261999999999999
sS'cloud'
p43
F0.004359
sS'use'
p44
F0.0021549999999999998
sS'working'
p45
F0.0021610000000000002
sS'process'
p46
F0.004032
sS'asset'
p47
F0.0062059999999999997
sS'scope'
p48
F0.016711
sS'tell'
p49
F0.0078820000000000001
sS'loving'
p50
F0.016931999999999999
sS'company'
p51
F0.0020309999999999998
sS'engineering team'
p52
F0.0056379999999999998
sS'business process'
p53
F0.0055240000000000003
sS'known'
p54
F0.0073629999999999998
sS'project management'
p55
F0.028132999999999998
sS'must'
p56
F0.0055589999999999997
sS'customer'
p57
F0.0069629999999999996
sS'sister company hbo'
p58
F0.016931999999999999
sS'work'
p59
F0.002081
sS'ms'
p60
F0.0045970000000000004
sS'meet'
p61
F0.003777
sS'institute'
p62
F0.0096340000000000002
sS'control'
p63
F0.0059500000000000004
sS'implementing contingency plan'
p64
F0.016931999999999999
sS'basic understanding'
p65
F0.0085859999999999999
sS'effectively'
p66
F0.0041999999999999997
sS'want'
p67
F0.0038769999999999998
sS'occur'
p68
F0.0094870000000000006
sS'broadcast technology'
p69
F0.016931999999999999
sS'information'
p70
F0.0023010000000000001
sS'goal'
p71
F0.003568
sS'technology'
p72
F0.0057819999999999998
sS'methodology'
p73
F0.0069969999999999997
sS'plus'
p74
F0.003058
sS'communicating'
p75
F0.0061970000000000003
sS'participant'
p76
F0.010092
sS'acceptance closeout action item'
p77
F0.016931999999999999
sS'data'
p78
F0.00097199999999999999
sS'grow'
p79
F0.0045019999999999999
sS'experienced professional'
p80
F0.01052
sS'documentation'
p81
F0.0046759999999999996
sS'turner follow u'
p82
F0.015552
sS'maintain'
p83
F0.0036879999999999999
sS'today turner continues'
p84
F0.016931999999999999
sS'jira'
p85
F0.010602
sS'experience working'
p86
F0.0037190000000000001
sS'in-house'
p87
F0.010092
sS'including'
p88
F0.0033709999999999999
sS'innovative'
p89
F0.0068040000000000002
sS'facilitates'
p90
F0.0099080000000000001
sS'agile methodology'
p91
F0.0076429999999999996
sS'warner bros'
p92
F0.016931999999999999
sS'responsibilities'
p93
F0.0024740000000000001
sS'better'
p94
F0.0045170000000000002
sS'systems'
p95
F0.006398
sS'2016'
p96
F0.0082539999999999992
sS'may include'
p97
F0.007587
sS'good'
p98
F0.0043309999999999998
sS'finance'
p99
F0.005241
sS'practice'
p100
F0.0039639999999999996
sS'comprised'
p101
F0.0053740000000000003
sS'execute'
p102
F0.0047190000000000001
sS'reporting mechanism'
p103
F0.013056
sS'7 year'
p104
F0.012468
sS'identifies'
p105
F0.0074460000000000004
sS'development'
p106
F0.0066829999999999997
sS'financial'
p107
F0.0038319999999999999
sS'related'
p108
F0.0083090000000000004
sS'sponsor'
p109
F0.006398
sS'year'
p110
F0.0040090000000000004
sS'sprint planning'
p111
F0.011409000000000001
sS'collaborative environment'
p112
F0.0084980000000000003
sS'correct deficiency'
p113
F0.016931999999999999
sS'network'
p114
F0.0041729999999999996
sS'open'
p115
F0.005411
sS'content'
p116
F0.0095879999999999993
sS'sdlc'
p117
F0.010366999999999999
sS'issue'
p118
F0.014088
sS'viable'
p119
F0.013726
sS'lesson learned'
p120
F0.012555
sS'reporting'
p121
F0.0081980000000000004
sS'data scientist'
p122
F0.0013159999999999999
sS'standard'
p123
F0.0036540000000000001
sS'cutting-edge'
p124
F0.0068479999999999999
sS'definition'
p125
F0.0074799999999999997
sS'training'
p126
F0.019820000000000001
sS'interaction'
p127
F0.0058710000000000004
sS'optimization seo'
p128
F0.013726
sS'could'
p129
F0.0071320000000000003
sS'transition'
p130
F0.0083049999999999999
sS'programming'
p131
F0.0036800000000000001
sS'qualified applicant'
p132
F0.0036619999999999999
sS'facilitate'
p133
F0.012063000000000001
sS'frequent'
p134
F0.01052
sS'first'
p135
F0.0047280000000000004
sS'structured'
p136
F0.0095790000000000007
sS'strategic'
p137
F0.0035239999999999998
sS'quality'
p138
F0.0066639999999999998
sS'story'
p139
F0.012638
sS'management'
p140
F0.015768000000000001
sS'service'
p141
F0.002127
sS'leading'
p142
F0.0028549999999999999
sS'engagement'
p143
F0.0052919999999999998
sS'system'
p144
F0.0018309999999999999
sS'lifecycle'
p145
F0.0080129999999999993
sS'draft'
p146
F0.012789999999999999
sS'statement'
p147
F0.0079469999999999992
sS'project prioritization'
p148
F0.013056
sS'part'
p149
F0.0081740000000000007
sS'team member'
p150
F0.0039820000000000003
sS'television'
p151
F0.011289
sS'grew'
p152
F0.014171
sS'ms office'
p153
F0.0083859999999999994
sS'require'
p154
F0.010481000000000001
sS'project'
p155
F0.027421999999999998
sS'video'
p156
F0.0071609999999999998
sS'interacts'
p157
F0.0073140000000000002
sS'outcome'
p158
F0.0053990000000000002
sS'acquisition'
p159
F0.0073299999999999997
sS'function'
p160
F0.0083929999999999994
sS'project scope'
p161
F0.010775
sS'business operation'
p162
F0.0084980000000000003
sS'turner'
p163
F0.015552
sS'5 to 7 year'
p164
F0.013726
sS'responsible'
p165
F0.0024529999999999999
sS'-'
F0.020865000000000002
sS'internal'
p166
F0.0063850000000000001
sS'receive consideration'
p167
F0.0038939999999999999
sS'objective'
p168
F0.0046589999999999999
sS'resource allocation'
p169
F0.009306
sS'play'
p170
F0.0053509999999999999
sS'multiple'
p171
F0.003846
sS'track'
p172
F0.0064590000000000003
sS'collaboration'
p173
F0.0039199999999999999
sS'resolve problem'
p174
F0.011289
sS'plan'
p175
F0.0075760000000000003
sS'ad serving'
p176
F0.010685999999999999
sS'hands-on'
p177
F0.0055700000000000003
sS'class'
p178
F0.0067980000000000002
sS'achievement'
p179
F0.0083320000000000009
sS'turner broadcasting system'
p180
F0.015552
sS'mobile'
p181
F0.0054229999999999999
sS'request'
p182
F0.0049969999999999997
sS'drive'
p183
F0.0025579999999999999
sS'search engine'
p184
F0.0093489999999999997
sS'gold'
p185
F0.012789999999999999
sS'show'
p186
F0.0072059999999999997
sS'bring'
p187
F0.0035599999999999998
sS'planning'
p188
F0.0045450000000000004
sS'wide range'
p189
F0.0055770000000000004
sS'powerhouse'
p190
F0.016931999999999999
sS'staff'
p191
F0.0047720000000000002
sS'impact'
p192
F0.0034940000000000001
sS'knowledge'
p193
F0.0054929999999999996
sS'implementation'
p194
F0.023784
sS'tool ie'
p195
F0.012345999999999999
sS'working knowledge'
p196
F0.0050379999999999999
sS'operational'
p197
F0.012834
sS'experience managing'
p198
F0.007515
sS'shepherding'
p199
F0.016931999999999999
sS'preferred'
p200
F0.011459
sS'coordinating'
p201
F0.0077990000000000004
sS'report'
p202
F0.0027750000000000001
sS'resource'
p203
F0.012813
sS'activity'
p204
F0.0041279999999999997
sS'requirement'
p205
F0.0075490000000000002
sS'time frame'
p206
F0.012156
sS'turner story'
p207
F0.016931999999999999
sS'see'
p208
F0.0053090000000000004
sS'alternative'
p209
F0.0084410000000000006
sS'best'
p210
F0.003441
sS'review'
p211
F0.0044330000000000003
sS'sponsorship'
p212
F0.0088789999999999997
sS'score'
p213
F0.010442
sS'identification'
p214
F0.0068479999999999999
sS'cooperation'
p215
F0.012345999999999999
sS'problem resolution'
p216
F0.011174999999999999
sS'progress'
p217
F0.0070889999999999998
sS'across'
p218
F0.0022260000000000001
sS'stakeholder'
p219
F0.0082039999999999995
sS"bachelor's degree"
p220
F0.0035720000000000001
sS'high quality'
p221
F0.0066100000000000004
sS'rationalization'
p222
F0.013726
sS'story up-to-the-minute sport'
p223
F0.016931999999999999
sS'configuration'
p224
F0.0075510000000000004
sS'oversee'
p225
F0.0075329999999999998
sS'budgeting'
p226
F0.011538
sS'etc'
p227
F0.0028679999999999999
sS'life cycle'
p228
F0.0072830000000000004
sS'proactive'
p229
F0.0080359999999999997
sS'forecasting'
p230
F0.0061700000000000001
sS'unclear'
p231
F0.016931999999999999
sS'customer relationship'
p232
F0.0093939999999999996
sS'delivering'
p233
F0.0092519999999999998
sS'initiative'
p234
F0.0075389999999999997
sS'learning'
p235
F0.0043810000000000003
sS'throughout'
p236
F0.0052290000000000001
sS'business process improvement'
p237
F0.013056
sS"it's"
p238
F0.0062059999999999997
sS'much'
p239
F0.0080359999999999997
sS'information technology'
p240
F0.0053039999999999997
sS'define'
p241
F0.0040330000000000001
sS'volunteer'
p242
F0.012789999999999999
sS'within budget'
p243
F0.010156999999999999
sS'developing'
p244
F0.0026949999999999999
sS'budget'
p245
F0.0069249999999999997
sS'career'
p246
F0.0041960000000000001
sS'optimization'
p247
F0.0082939999999999993
sS'equal opportunity employers'
p248
F0.012156
sS'protected veteran status'
p249
F0.0051050000000000002
sS'ie'
p250
F0.0067369999999999999
sS'develop'
p251
F0.0031080000000000001
sS'perform'
p252
F0.0035460000000000001
sS'work flow'
p253
F0.011409000000000001
sS'performance measure'
p254
F0.011538
sS'android'
p255
F0.010442
sS'document'
p256
F0.0095519999999999997
sS'status'
p257
F0.0045019999999999999
sS'conflicting'
p258
F0.012789999999999999
sS'time warner along'
p259
F0.016931999999999999
sS'assist'
p260
F0.0087119999999999993
sS'user'
p261
F0.0037450000000000001
sS'opportunity'
p262
F0.0019980000000000002
sS'instagram twitter'
p263
F0.015552
sS'employment without regard'
p264
F0.0040930000000000003
sS'database'
p265
F0.0029390000000000002
sS'well'
p266
F0.0023540000000000002
sS'deliverable'
p267
F0.017753000000000001
sS'coordinate'
p268
F0.0060650000000000001
sS'position'
p269
F0.0019580000000000001
sS'model'
p270
F0.0019840000000000001
sS'provide focal point'
p271
F0.016931999999999999
sS'business need'
p272
F0.006117
sS'assigned'
p273
F0.0057080000000000004
sS'identify'
p274
F0.0082319999999999997
sS'skill'
p275
F0.001838
sS'guides'
p276
F0.013726
sS'character'
p277
F0.014744
sS'role'
p278
F0.006215
sS'administrative'
p279
F0.0095350000000000001
sS'hardware software'
p280
F0.0097940000000000006
sS'evaluate'
p281
F0.0045849999999999997
sS'video cmss analytics'
p282
F0.016931999999999999
sS'traffic'
p283
F0.0091000000000000004
sS'deployment'
p284
F0.0045770000000000003
sS'world'
p285
F0.0030170000000000002
sS'execution'
p286
F0.0045370000000000002
sS'race color religion sex national origin sexual orientation gender identity disability'
p287
F0.0088439999999999994
sS'like'
p288
F0.0042880000000000001
sS'success'
p289
F0.014135
sS'identifying'
p290
F0.0053270000000000001
sS'project closeout'
p291
F0.016931999999999999
sS'often'
p292
F0.0085570000000000004
sS'streaming'
p293
F0.0084980000000000003
sS'external stakeholder'
p294
F0.009306
sS'pmp certification'
p295
F0.012555
sS'decision'
p296
F0.0034220000000000001
sS'legal'
p297
F0.0084130000000000003
sS'creative'
p298
F0.0044860000000000004
sS'working mothers'
p299
F0.013726
sS'leader'
p300
F0.0062890000000000003
sS'demonstrated'
p301
F0.020479000000000001
sS'core'
p302
F0.0041469999999999996
sS'product development'
p303
F0.0042370000000000003
sS'business'
p304
F0.006842
sS'schedule'
p305
F0.011062000000000001
sS'equivalent'
p306
F0.0044790000000000003
sS'leadership'
p307
F0.0033999999999999998
sS'although'
p308
F0.013726
sS'consumption'
p309
F0.0090229999999999998
sS'constraint'
p310
F0.0081060000000000004
sS'exchange semi-complex information'
p311
F0.016931999999999999
sS'ensure'
p312
F0.010022
sS'multi-disciplinary'
p313
F0.010965000000000001
sS'consulting'
p314
F0.0049779999999999998
sS'communication'
p315
F0.012441000000000001
sS'prepare'
p316
F0.0067730000000000004
sS'continuous improvement'
p317
F0.007515
sS'way'
p318
F0.003006
sS'breaking news'
p319
F0.014744
sS'paid time'
p320
F0.0074980000000000003
sS'medium'
p321
F0.0051370000000000001
sS'brand'
p322
F0.0098960000000000003
sS'delivery'
p323
F0.0039459999999999999
sS'subsidiary'
p324
F0.0089499999999999996
sS'promote'
p325
F0.0066550000000000003
sS'analyst'
p326
F0.004052
sS'operating system'
p327
F0.0071170000000000001
sS'consultants'
p328
F0.012345999999999999
sS'e-verify'
p329
F0.0089859999999999992
sS'propose solution'
p330
F0.012156
sS'demonstrate'
p331
F0.0053150000000000003
sS'similar'
p332
F0.0045129999999999997
sS'detailed'
p333
F0.0071029999999999999
sS'human resources'
p334
F0.0095350000000000001
sS'diverse'
p335
F0.0038909999999999999
sS'education'
p336
F0.0032560000000000002
sS'inc'
p337
F0.0073140000000000002
sS'facebook'
p338
F0.0092630000000000004
sS'on-time'
p339
F0.013363
sS'time warner family'
p340
F0.016931999999999999
sS'project manager'
p341
F0.007515
sS'third-party vendor'
p342
F0.023351
sS'5'
F0.0062249999999999996
sS'digital'
p343
F0.0087480000000000006
sS'http wwwturnercom'
p344
F0.015552
sS'turner stakeholder'
p345
F0.016931999999999999
sS'equivalent experience'
p346
F0.0055970000000000004
sS'project plan'
p347
F0.023973000000000001
sS'coverage'
p348
F0.0084410000000000006
sS'cnn hln tcm tnt tbs adult swim cartoon network turner sports'
p349
F0.016931999999999999
sS'required'
p350
F0.0019300000000000001
sS'resolving'
p351
F0.010029
sS'time'
p352
F0.006045
sS'resolution'
p353
F0.0071910000000000003
s.