(dp1
S'use cordova'
p2
F0.053124999999999999
sS'help'
p3
F0.0062049999999999996
sS'api design'
p4
F0.037094000000000002
sS'rest'
p5
F0.023362000000000001
sS'bring'
p6
F0.022341
sS'hard-core mobile'
p7
F0.053124999999999999
sS'committed'
p8
F0.020313000000000001
sS'skill'
p9
F0.0057679999999999997
sS'developer'
p10
F0.014173
sS'inspiring'
p11
F0.017689
sS'adp'
p12
F0.054061999999999999
sS'forbes'
p13
F0.019765999999999999
sS'excited'
p14
F0.021176
sS'computer science'
p15
F0.0097260000000000003
sS'comprehensive solution'
p16
F0.020233999999999999
sS'read'
p17
F0.021564
sS'enrich'
p18
F0.033528000000000002
sS'know'
p19
F0.031234000000000001
sS'using'
p20
F0.0069389999999999999
sS'one'
p21
F0.021656000000000002
sS'strive'
p22
F0.017271999999999999
sS'7 year'
p23
F0.019559
sS'least 7 year'
p24
F0.029333999999999999
sS'user behave'
p25
F0.053124999999999999
sS'equal employment opportunity regardless'
p26
F0.020331999999999999
sS'continue'
p27
F0.015184
sS'team'
p28
F0.0023890000000000001
sS'passionate'
p29
F0.012751999999999999
sS'domain'
p30
F0.016604000000000001
sS'- cordova native'
p31
F0.053124999999999999
sS'people'
p32
F0.0080870000000000004
sS'globe'
p33
F0.015256
sS'innovative'
p34
F0.010673999999999999
sS'brilliant engineer architect data scientist infrastructure expert'
p35
F0.018443999999999999
sS'unlock'
p36
F0.016732
sS'adp power'
p37
F0.020465000000000001
sS'career potential technology'
p38
F0.018641999999999999
sS'mobile apps'
p39
F0.029617999999999998
sS'product development'
p40
F0.013292999999999999
sS'saas solution'
p41
F0.018322999999999999
sS'vital asset employee'
p42
F0.018641999999999999
sS'job performance'
p43
F0.020265999999999999
sS'technology'
p44
F0.0090709999999999992
sS'personal merit qualification experience'
p45
F0.020331999999999999
sS'looking'
p46
F0.0084740000000000006
sS'everything'
p47
F0.019529999999999999
sS'design mobile-first experience'
p48
F0.053124999999999999
sS'innovation'
p49
F0.0097560000000000008
sS'architect'
p50
F0.015774
sS'boundary'
p51
F0.026395999999999999
sS'ground'
p52
F0.018717000000000001
sS'million'
p53
F0.012880000000000001
sS'creating'
p54
F0.012674
sS'working world'
p55
F0.020397999999999999
sS'65 year'
p56
F0.040929
sS'pushing'
p57
F0.032299000000000001
sS'deliver'
p58
F0.0085240000000000003
sS'bs'
p59
F0.018898000000000002
sS'strong'
p60
F0.0063400000000000001
sS'every interaction'
p61
F0.019359000000000001
sS'associate excel based'
p62
F0.020331999999999999
sS'driven'
p63
F0.025137
sS'mental disability'
p64
F0.018846000000000002
sS'brilliant'
p65
F0.031272000000000001
sS'industry'
p66
F0.0071110000000000001
sS'recognized'
p67
F0.015664000000000001
sS'workplace'
p68
F0.012961
sS'iphone android'
p69
F0.053124999999999999
sS'support'
p70
F0.0042779999999999997
sS'software'
p71
F0.006378
sS'ability'
p72
F0.0035490000000000001
sS'person counts results-driven social responsibility'
p73
F0.019918000000000002
sS'core value insightful expertise integrity'
p74
F0.019647000000000001
sS'mobility'
p75
F0.029333999999999999
sS'coding'
p76
F0.036505000000000003
sS'comprised'
p77
F0.016861999999999999
sS'human capital management'
p78
F0.020201
sS'design principle'
p79
F0.031662999999999997
sS'solution world-wide'
p80
F0.020465000000000001
sS'redefining'
p81
F0.017689
sS'everything service excellence inspiring innovation'
p82
F0.019647000000000001
sS'latest innovation'
p83
F0.018516999999999999
sS'empathetic'
p84
F0.037595000000000003
sS'research empowering'
p85
F0.018592000000000001
sS'leading'
p86
F0.0089560000000000004
sS'interact'
p87
F0.016938000000000002
sS"world's"
p88
F0.016032999999999999
sS'json'
p89
F0.026939999999999999
sS'way'
p90
F0.0094319999999999994
sS'diversity fuel innovation adp'
p91
F0.020331999999999999
sS'life'
p92
F0.030998999999999999
sS'principal appl developer'
p93
F0.053124999999999999
sS'offer'
p94
F0.010054
sS'envelope utilizing'
p95
F0.018492999999999999
sS'believe'
p96
F0.01294
sS'pull'
p97
F0.035417999999999998
sS'work'
p98
F0.0021770000000000001
sS'cloud experts'
p99
F0.020465000000000001
sS'inclusive workplace'
p100
F0.019675999999999999
sS'future'
p101
F0.0095189999999999997
sS'wow factor'
p102
F0.053124999999999999
sS'protected veteran status'
p103
F0.016015999999999999
sS'possible named one'
p104
F0.018641999999999999
sS'forever change'
p105
F0.018592000000000001
sS'highly automated intelligent'
p106
F0.018492999999999999
sS'experience'
p107
F0.0011670000000000001
sS"computerworld's 100 best places"
p108
F0.018592000000000001
sS'need'
p109
F0.0067229999999999998
sS'latest operating platform'
p110
F0.018492999999999999
sS'drive business success consistently named one'
p111
F0.020465000000000001
sS"world's largest b2b cloud company"
p112
F0.018443999999999999
sS'user experience'
p113
F0.019029999999999998
sS'seek'
p114
F0.019165000000000001
sS'make'
p115
F0.0079179999999999997
sS'fortune magazine'
p116
F0.019980000000000001
sS'-'
F0.037407000000000003
sS'feature'
p117
F0.016133000000000002
sS'innovative companies adp ha'
p118
F0.020465000000000001
sS'application'
p119
F0.013641
sS'build'
p120
F0.0060959999999999999
sS'enjoy exploring identifying'
p121
F0.018516999999999999
sS'native'
p122
F0.03007
sS'largest provider'
p123
F0.020365000000000001
sS'development'
p124
F0.0083870000000000004
sS'race color genetic information creed religion sex sexual orientation gender identity lawful alien status national origin age marital status non-job related physical'
p125
F0.020331999999999999
sS'predictive solution'
p126
F0.0183
sS'way business manage'
p127
F0.018592000000000001
sS'delight'
p128
F0.028080000000000001
sS'user'
p129
F0.011750999999999999
sS'device'
p130
F0.022284999999999999
sS'mobile'
p131
F0.034030999999999999
sS'object oriented design'
p132
F0.033806000000000003
sS'enthusiastic'
p133
F0.028080000000000001
sS'innovative companies'
p134
F0.018467999999999998
sS'daily'
p135
F0.020990000000000002
sS'fluent'
p136
F0.026484000000000001
sS'half-million client around'
p137
F0.020465000000000001
sS'push'
p138
F0.016133000000000002
sS'first'
p139
F0.014833000000000001
sS'admired companies'
p140
F0.020136999999999999
sS"forbes'"
p141
F0.018276000000000001
s.