(dp1
S'knowledge skills'
p2
F0.012656000000000001
sS'agency'
p3
F0.0085059999999999997
sS'related field'
p4
F0.0093810000000000004
sS'help'
p5
F0.0027959999999999999
sS'contacted'
p6
F0.015110999999999999
sS'largest independent'
p7
F0.018897000000000001
sS'guided'
p8
F0.0099839999999999998
sS'every aspect'
p9
F0.01401
sS'dynamic'
p10
F0.0064050000000000001
sS'obtain'
p11
F0.0081530000000000005
sS'competitive'
p12
F0.0087760000000000008
sS'entity'
p13
F0.012142
sS'assigned'
p14
F0.008071
sS'course'
p15
F0.0088419999999999992
sS'attitude'
p16
F0.0099839999999999998
sS'including'
p17
F0.0071500000000000001
sS'data'
p18
F0.0041240000000000001
sS'march 1'
p19
F0.021991
sS'discipline'
p20
F0.013832000000000001
sS'increase'
p21
F0.0097009999999999996
sS'5-10 year'
p22
F0.031604
sS'phd degree'
p23
F0.0097920000000000004
sS'majority'
p24
F0.013349
sS'agile'
p25
F0.0074999999999999997
sS"change healthcare's business"
p26
F0.023944
sS'working knowledge'
p27
F0.0071240000000000001
sS'operational'
p28
F0.0060489999999999997
sS'potential'
p29
F0.0068110000000000002
sS'r python'
p30
F0.0088950000000000001
sS'4'
F0.0095779999999999997
sS'predictive analytics team'
p31
F0.018461999999999999
sS'enable improved efficiency'
p32
F0.021991
sS'include'
p33
F0.010525
sS'setting'
p34
F0.0079240000000000005
sS'exchange mission-critical information'
p35
F0.021991
sS'insight'
p36
F0.011221999999999999
sS'performs'
p37
F0.018568999999999999
sS'technology-enabled service'
p38
F0.021991
sS'provider'
p39
F0.0086750000000000004
sS'preferred'
p40
F0.0040509999999999999
sS'test'
p41
F0.0054819999999999999
sS'machine learning'
p42
F0.0061069999999999996
sS'community'
p43
F0.0050899999999999999
sS'background'
p44
F0.0051640000000000002
sS'work experience preferably'
p45
F0.018461999999999999
sS'exploratory data analysis generates'
p46
F0.020039000000000001
sS'advanced'
p47
F0.0044000000000000003
sS'cash flow'
p48
F0.018461999999999999
sS'named entity recognition'
p49
F0.018461999999999999
sS'ability'
p50
F0.003199
sS'model structured data'
p51
F0.018086000000000001
sS'skills'
p52
F0.0061240000000000001
sS'key catalyst'
p53
F0.021991
sS'position description'
p54
F0.0098480000000000009
sS'2017 mckesson corporation nyse mck'
p55
F0.021991
sS'across'
p56
F0.0031480000000000002
sS'excellence'
p57
F0.0066909999999999999
sS'demonstrated'
p58
F0.0057920000000000003
sS'team'
p59
F0.002153
sS'become'
p60
F0.0094599999999999997
sS'passionate'
p61
F0.0057470000000000004
sS'woven'
p62
F0.020848999999999999
sS'business decision'
p63
F0.0098860000000000007
sS'mathematical'
p64
F0.0074349999999999998
sS'manage multiple priority'
p65
F0.015368
sS'requirement'
p66
F0.0035590000000000001
sS'verbal'
p67
F0.0091190000000000004
sS'statistics mathematics econometrics'
p68
F0.018897000000000001
sS'incredibly exciting'
p69
F0.01941
sS'healthcare holdings inc'
p70
F0.021991
sS'related'
p71
F0.0039170000000000003
sS'applicable'
p72
F0.0092230000000000003
sS'operation research econometrics'
p73
F0.018086000000000001
sS'culture'
p74
F0.0057650000000000002
sS'structure data-based solution'
p75
F0.020039000000000001
sS'cost'
p76
F0.0085649999999999997
sS'operation research'
p77
F0.0089090000000000003
sS'accelerate'
p78
F0.011146
sS'criminal history'
p79
F0.0087250000000000001
sS'laboratory'
p80
F0.012605
sS'statistical analysis'
p81
F0.0055560000000000002
sS'computer science physics engineering'
p82
F0.020039000000000001
sS'employment'
p83
F0.013545
sS'econometrics'
p84
F0.013039
sS'creating'
p85
F0.011424
sS'newly formed'
p86
F0.017188999999999999
sS'towards improved'
p87
F0.020848999999999999
sS'ultimately'
p88
F0.012814000000000001
sS'capacity'
p89
F0.0099439999999999997
sS'uncovers noteworthy trend'
p90
F0.020848999999999999
sS'lead'
p91
F0.003405
sS'leverage data'
p92
F0.012656000000000001
sS'please'
p93
F0.0084589999999999995
sS'8 year experience'
p94
F0.017188999999999999
sS'written'
p95
F0.0068050000000000003
sS'critical'
p96
F0.0061339999999999997
sS'effective communication skill'
p97
F0.016944000000000001
sS'ha considerable expertise'
p98
F0.021991
sS'working hypothesis'
p99
F0.017188999999999999
sS'new'
p100
F0.010612999999999999
sS'10 overnight travel required'
p101
F0.021991
sS'method'
p102
F0.0078799999999999999
sS'thrive'
p103
F0.0074269999999999996
sS'cross-functional team'
p104
F0.0087250000000000001
sS'supporting'
p105
F0.0065890000000000002
sS'approached'
p106
F0.021991
sS'business'
p107
F0.0096749999999999996
sS'visualization'
p108
F0.0058139999999999997
sS'commercial'
p109
F0.0078490000000000001
sS'8 year'
p110
F0.0094929999999999997
sS'stakeholder'
p111
F0.0058009999999999997
sS'data scientist'
p112
F0.001861
sS'use'
p113
F0.0030469999999999998
sS'analyzes'
p114
F0.010703000000000001
sS'job'
p115
F0.0033530000000000001
sS'key'
p116
F0.0045139999999999998
sS'ask'
p117
F0.010085
sS'consideration'
p118
F0.011299999999999999
sS'strong'
p119
F0.0028570000000000002
sS'optimize'
p120
F0.0069899999999999997
sS'change'
p121
F0.030792
sS'stage'
p122
F0.011115999999999999
sS'work environment'
p123
F0.0087250000000000001
sS'interaction'
p124
F0.0083020000000000004
sS'benefits'
p125
F0.0082579999999999997
sS'career'
p126
F0.005934
sS'shift'
p127
F0.010211
sS'completing'
p128
F0.012506
sS'current'
p129
F0.0059579999999999998
sS'in-depth'
p130
F0.012409999999999999
sS'data analyst'
p131
F0.0093950000000000006
sS'qualified applicant'
p132
F0.0051780000000000003
sS'turn'
p133
F0.0097009999999999996
sS'aggregate organize'
p134
F0.018086000000000001
sS'healthier'
p135
F0.015650000000000001
sS'plus'
p136
F0.012973
sS'please note'
p137
F0.011782000000000001
sS'implement'
p138
F0.0039870000000000001
sS'extracting'
p139
F0.011429
sS'recruiter'
p140
F0.010703000000000001
sS'business leader'
p141
F0.0095270000000000007
sS'prepare data'
p142
F0.01401
sS'duty'
p143
F0.0080309999999999999
sS'major'
p144
F0.007241
sS'relevant'
p145
F0.0051209999999999997
sS'classification'
p146
F0.0092230000000000003
sS'revenue'
p147
F0.008855
sS'disability'
p148
F0.0064099999999999999
sS'data science'
p149
F0.0066810000000000003
sS'within'
p150
F0.003382
sS'hospital physician'
p151
F0.018897000000000001
sS'entrepreneurial spirit'
p152
F0.013098
sS'one'
p153
F0.0032539999999999999
sS'united states'
p154
F0.0077130000000000002
sS'using advanced statistical'
p155
F0.016944000000000001
sS'modeling'
p156
F0.0095090000000000001
sS'apply'
p157
F0.0039560000000000003
sS'quickly'
p158
F0.0076600000000000001
sS'quantitative analysis'
p159
F0.0090760000000000007
sS'large complex data'
p160
F0.018086000000000001
sS'ideal candidate'
p161
F0.0069360000000000003
sS'clustering'
p162
F0.0087510000000000001
sS'combined substantially'
p163
F0.021991
sS'additional'
p164
F0.0076519999999999999
sS'working'
p165
F0.003055
sS'area'
p166
F0.003826
sS'capitalize'
p167
F0.015963000000000001
sS'create'
p168
F0.003784
sS'support'
p169
F0.0038570000000000002
sS'question'
p170
F0.0062950000000000002
sS'system'
p171
F0.012947
sS'feel free'
p172
F0.017753999999999999
sS'least one'
p173
F0.0079240000000000005
sS'following field'
p174
F0.012185
sS'statement'
p175
F0.022474000000000001
sS'advanced analytics'
p176
F0.013200999999999999
sS'knowledge'
p177
F0.0025890000000000002
sS'today'
p178
F0.0088020000000000008
sS'insightful'
p179
F0.011364000000000001
sS'affirmative action employer minority female veteran'
p180
F0.01941
sS'life'
p181
F0.0046569999999999997
sS'champion'
p182
F0.010944000000000001
sS'form'
p183
F0.0090760000000000007
sS'core value'
p184
F0.013624000000000001
sS'company'
p185
F0.0086149999999999994
sS'formed'
p186
F0.020039000000000001
sS'based upon'
p187
F0.014180999999999999
sS'technique'
p188
F0.0038189999999999999
sS'understand'
p189
F0.0040130000000000001
sS'team member'
p190
F0.011261
sS'information retrieval'
p191
F0.010578000000000001
sS'customer'
p192
F0.0073850000000000001
sS'10 year'
p193
F0.0091640000000000003
sS'quantitative'
p194
F0.0052290000000000001
sS'join'
p195
F0.0084150000000000006
sS'software engineering'
p196
F0.0080809999999999996
sS'analytics'
p197
F0.0051669999999999997
sS'pursue'
p198
F0.011708
sS'employer'
p199
F0.0093950000000000006
sS'mine unstructured data using'
p200
F0.018897000000000001
sS'mckesson technology solutions mts'
p201
F0.021991
sS'fabric'
p202
F0.017753999999999999
sS'project'
p203
F0.002281
sS'innovation earn trust'
p204
F0.021991
sS'growth'
p205
F0.005855
sS'ms'
p206
F0.0065009999999999998
sS'self-starter'
p207
F0.0092849999999999999
sS'external stakeholder'
p208
F0.013159000000000001
sS'control'
p209
F0.0084130000000000003
sS'required'
p210
F0.0054580000000000002
sS'person'
p211
F0.007626
sS'working alongside'
p212
F0.013849
sS'navigate'
p213
F0.012057999999999999
sS'deep'
p214
F0.0070879999999999997
sS'technology company'
p215
F0.010807000000000001
sS'topic'
p216
F0.019621
sS'actionable insight'
p217
F0.0092849999999999999
sS'business intelligence'
p218
F0.014276
sS'minimum'
p219
F0.0052630000000000003
sS'experience'
p220
F0.001052
sS'mckesson corporation'
p221
F0.021991
sS'need'
p222
F0.0060600000000000003
sS'partner'
p223
F0.0044660000000000004
sS'strong mathematical background'
p224
F0.012605
sS'better coordinated increasingly'
p225
F0.021991
sS'bs degree'
p226
F0.010703000000000001
sS'engages'
p227
F0.014659999999999999
sS'requirements'
p228
F0.010083
sS'relationship'
p229
F0.0058780000000000004
sS'software package'
p230
F0.010944000000000001
sS'provide'
p231
F0.0057270000000000003
sS'power bi'
p232
F0.013553000000000001
sS'information technology company'
p233
F0.020848999999999999
sS'value-based healthcare'
p234
F0.040077000000000002
sS'excel'
p235
F0.007803
sS'tableau'
p236
F0.0072040000000000003
sS'application'
p237
F0.0030739999999999999
sS'internal'
p238
F0.0045139999999999998
sS'role'
p239
F0.0029290000000000002
sS'natural language processing'
p240
F0.016102999999999999
sS'objective'
p241
F0.0065890000000000002
sS'performance'
p242
F0.004117
sS'document'
p243
F0.013507
sS'solution'
p244
F0.004006
sS'tool'
p245
F0.0040670000000000003
sS'opportunity'
p246
F0.0056519999999999999
sS'used'
p247
F0.0059150000000000001
sS'complex business problem'
p248
F0.014877
sS'collaborative'
p249
F0.0073870000000000003
sS'cleaning preparing'
p250
F0.018897000000000001
sS'governmental payer'
p251
F0.021991
sS'oracle dba certification'
p252
F0.021991
sS'data engineer'
p253
F0.010126
sS'effectively'
p254
F0.0059389999999999998
sS'equivalent experience'
p255
F0.0079150000000000002
sS'ba'
p256
F0.012605
sS'journey'
p257
F0.011495999999999999
sS'purpose'
p258
F0.0077850000000000003
sS'organization'
p259
F0.0063249999999999999
sS'services'
p260
F0.0076429999999999996
sS'future'
p261
F0.0042900000000000004
sS'agency please'
p262
F0.011745
sS'disqualified'
p263
F0.01941
sS'network'
p264
F0.005901
sS'statistic data mining'
p265
F0.031926000000000003
sS'physical'
p266
F0.0086999999999999994
sS'expert'
p267
F0.0053489999999999996
sS'algorithm'
p268
F0.0035000000000000001
sS'sql server'
p269
F0.022352
sS'receives assignment'
p270
F0.021991
sS'location alpharetta ga'
p271
F0.021991
sS'education'
p272
F0.0046039999999999996
sS'analysis'
p273
F0.0092329999999999999
sS'efficient'
p274
F0.0081220000000000007
sS'cultivating'
p275
F0.01651
sS'healthcare'
p276
F0.058198
sS'position'
p277
F0.0027690000000000002
sS'model'
p278
F0.0028059999999999999
sS'software'
p279
F0.002875
sS'consumer'
p280
F0.0058919999999999997
sS'equal opportunity'
p281
F0.010276
s.