(dp1
S'background'
p2
F0.013727867128120418
sS'scientist'
p3
F0.0061079327472867056
sS'thorough'
p4
F0.016932260353884024
sS'ga'
p5
F0.020491985201714025
sS'follow'
p6
F0.014787608629475783
sS'skill'
p7
F0.0048193475123203518
sS'row'
p8
F0.025586192602520291
sS'whose'
p9
F0.025586192602520291
sS'position'
p10
F0.0078702759364194189
sS'20'
p11
F0.017081248470741505
sS'knowledge'
p12
F0.0030903029588397195
sS'candidate'
p13
F0.011904091965513014
sS'nervous'
p14
F0.034801061300205292
sS'writing'
p15
F0.010597234919115994
sS'blog'
p16
F0.022973807544451781
sS'program'
p17
F0.0070512652439530654
sS'candidates'
p18
F0.014904157753689522
sS'screening'
p19
F0.017297503890027901
sS'staffing'
p20
F0.037670569858240036
sS'virtually'
p21
F0.027799590041388832
sS'it.'
p22
F0.019721956185176671
sS'good'
p23
F0.0087461152243636948
sS'get'
p24
F0.01075027374578005
sS'possible'
p25
F0.013781167765622715
sS'engine/rating'
p26
F0.042929531495151753
sS'preparing'
p27
F0.019620944772058748
sS'they'
p28
F0.014329015893247058
sS'day'
p29
F0.009402195322513629
sS'name'
p30
F0.020147505255776688
sS'like'
p31
F0.007878963203628131
sS'ctp/perm'
p32
F0.042929531495151753
sS'fully'
p33
F0.017900246796526301
sS'next.'
p34
F0.035928047905536588
sS'manual'
p35
F0.022877605567108002
sS'qa'
p36
F0.035943768624224624
sS'skills'
p37
F0.0070140622498399263
sS'benefit'
p38
F0.015299243734559508
sS'planning'
p39
F0.010793620849406027
sS'collective'
p40
F0.022422302134220192
sS'vision'
p41
F0.0096389980355503606
sS'mean'
p42
F0.015334662841816246
sS'trend'
p43
F0.0099239693679585538
sS'testing'
p44
F0.0084311170860501168
sS'see'
p45
F0.013091105881049269
sS'cost'
p46
F0.013828587614173802
sS'video'
p47
F0.015270869222831425
sS'pricing'
p48
F0.017172797835573374
sS'year'
p49
F0.0043138098226892085
sS'click'
p50
F0.015486725353569484
sS'best'
p51
F0.005369626662068752
sS'really'
p52
F0.01870849043028407
sS'desires.'
p53
F0.039428789186559794
sS'lead'
p54
F0.0057975923116448547
sS'interviewing'
p55
F0.021057217954768469
sS'please'
p56
F0.0074842043998524215
sS'forecast'
p57
F0.019053950527520177
sS'outings'
p58
F0.039428789186559794
sS'3'
F0.009779473474417627
sS"there's"
p59
F0.029252524663416133
sS'provides'
p60
F0.0085974186973551171
sS'firms'
p61
F0.031832445890770548
sS'math'
p62
F0.011898768715969076
sS'full'
p63
F0.0091507862762926374
sS'intimate'
p64
F0.029252524663416133
sS'dental'
p65
F0.012836874116198034
sS'data scientist'
p66
F0.00093468330589283641
sS'desired'
p67
F0.010133473080573963
sS'job'
p68
F0.0065624920557825449
sS'strong'
p69
F0.003030098000726008
sS'information technology'
p70
F0.02562168516468712
sS'care'
p71
F0.010656200099034849
sS'last'
p72
F0.018965344958112359
sS'packages/survival'
p73
F0.039428789186559794
sS'career'
p74
F0.0076170300194046683
sS'industry'
p75
F0.0086903733804808425
sS'experience'
p76
F0.0017511406471215731
sS'veredus'
p77
F0.23657273511935872
sS'000'
p78
F0.010392094091298232
sS'plus'
p79
F0.0073415833412743565
sS'analysts'
p80
F0.016324385574475256
sS'action'
p81
F0.0086540925769037057
sS'lunches'
p82
F0.034801061300205292
sS'industry.'
p83
F0.018193103513827573
sS'consulting'
p84
F0.020864921824174196
sS'eeo/affirmative'
p85
F0.031832445890770548
sS'one'
p86
F0.0043379106374747938
sS'web-site'
p87
F0.039428789186559794
sS'//atlanta.vereduscorp.com/'
p88
F0.042929531495151753
sS'employer'
p89
F0.007232898304551965
sS'your'
p90
F0.0094553508051814887
sS'market'
p91
F0.0098295780122919785
sS"you're"
p92
F0.013402417433285189
sV(5, 10]
p93
F0.0061044922036836285
sS'opportunity'
p94
F0.0024628746418824819
sS'recruiter'
p95
F0.056505854787360053
sS'.'
F0.0084804349224327797
sS'Bachelor'
p96
F0.0017169452894552765
sS'hundred'
p97
F0.019930249845352997
sS'prep'
p98
F0.031300323101884589
sS'engine'
p99
F0.015948259104047974
sS'life'
p100
F0.0074213113227060788
sS'upcoming'
p101
F0.024052454341065514
sS'that'
p102
F0.02208548112071813
sS'atop'
p103
F0.031832445890770548
sS'link'
p104
F0.018193103513827573
sS'representative'
p105
F0.02043291532137094
sS'demand'
p106
F0.015399272645415392
sS'atlanta'
p107
F0.019930249845352997
sS'counsel'
p108
F0.0270937247282503
sS'consultant'
p109
F0.028870680155340757
sS'work'
p110
F0.0019611299141401007
sS'resume'
p111
F0.013505635835128196
sS'accrued'
p112
F0.034801061300205292
sS'average'
p113
F0.024052454341065514
sS'pack'
p114
F0.037380986637825103
sS'dedicated'
p115
F0.013301266636491036
sS'process'
p116
F0.0045230354222592648
sS'need'
p117
F0.0050555117397635529
sS'drug'
p118
F0.015187045598519593
sS'want'
p119
F0.01905873110627072
sS'sas'
p120
F0.0074796859592802349
sS'information'
p121
F0.0031742756706729194
sS'requirements'
p122
F0.0075068574664953463
sS'corporation'
p123
F0.014525686277239186
sS'm/f/d/v'
p124
F0.025923015671124115
sS'-'
F0.036709610830001051
sS'access'
p125
F0.0092077025483525872
sS'insurance'
p126
F0.012759178670826621
sS'401k'
p127
F0.016298419937860759
sS'also'
p128
F0.006780670481376384
sS'contact'
p129
F0.012836874116198034
sV(2, 5]
p130
F0.0039643118790346652
sS'interview'
p131
F0.056634801548177828
sS'plates'
p132
F0.039428789186559794
sS'you'
p133
F0.005375576882989422
sS'//vereduscorp.com/career-center/'
p134
F0.039428789186559794
sS'http'
p135
F0.026602533272982072
sS'may'
p136
F0.0077344086240346051
sS'prepared'
p137
F0.050540870557905397
sS'important'
p138
F0.012075207081240815
sS'eight'
p139
F0.022510138191065895
sS'additionally'
p140
F0.01808128272838494
sS'sql'
p141
F0.0047703579623672495
sS'services'
p142
F0.011043491359875427
sS'culled'
p143
F0.039428789186559794
sS'data'
p144
F0.0013006957618841995
sS'why'
p145
F0.016702660624264613
sS'understand'
p146
F0.0067728118261419518
sS'recognized'
p147
F0.012246411627040944
sS'off'
p148
F0.021693778004227084
sS'for'
p149
F0.0092204382179523498
sS'sql server'
p150
F0.01650998213029517
sS'medical'
p151
F0.011287135522454462
sS'required'
p152
F0.0042968766722113584
sS'analysis'
p153
F0.0050637373739926481
sS'1'
F0.009779473474417627
sS'u'
F0.0066602151540717048
sS'time'
p154
F0.0056195279236412737
sS'professional'
p155
F0.0067728118261419518
sS'starting'
p156
F0.020316808698571432
sS'order'
p157
F0.011052648095674458
s.