(dp1
S''
F0.011105
sS'in-depth understanding'
p2
F0.025507999999999999
sS'concept'
p3
F0.021186
sS'next generation'
p4
F0.015730000000000001
sS'competitive'
p5
F0.033864999999999999
sS'amerihealth caritas'
p6
F0.042429000000000001
sS'establishes fact'
p7
F0.036457999999999997
sS'statistical'
p8
F0.024923000000000001
sS'innovative'
p9
F0.018564000000000001
sS'impact'
p10
F0.019063
sS'based'
p11
F0.016107
sS'methodology'
p12
F0.0095440000000000004
sS'operational'
p13
F0.035014000000000003
sS'predictive model'
p14
F0.012886
sS'setting'
p15
F0.015289000000000001
sS'advanced'
p16
F0.008489
sS'various'
p17
F0.0093930000000000003
sS'get'
p18
F0.012293
sS'evaluate'
p19
F0.025017999999999999
sS'overall'
p20
F0.01333
sS'five'
p21
F0.022051000000000001
sS'mathematics'
p22
F0.015932999999999999
sS'report'
p23
F0.0075700000000000003
sS'using'
p24
F0.012067
sS'mission-driven organization'
p25
F0.038662000000000002
sS'complex problem'
p26
F0.038835000000000001
sS'sas jmp'
p27
F0.036457999999999997
sS'solution'
p28
F0.0038649999999999999
sS'philadelphia amerihealth caritas'
p29
F0.040224999999999997
sS'leader'
p30
F0.017159000000000001
sS'benefit'
p31
F0.011341
sS'enterprise miner'
p32
F0.027532999999999998
sS'team'
p33
F0.0020769999999999999
sS'passionate'
p34
F0.022176999999999999
sS'mathematical'
p35
F0.014344000000000001
sS'difference wed like'
p36
F0.042429000000000001
sS'people'
p37
F0.014064999999999999
sS'30 year'
p38
F0.055791
sS'discover'
p39
F0.018478999999999999
sS'individual'
p40
F0.0086440000000000006
sS'design'
p41
F0.004496
sS'statistic'
p42
F0.0099500000000000005
sS'operation'
p43
F0.030057
sS'quantify'
p44
F0.048446000000000003
sS'managed care'
p45
F0.033681999999999997
sS'looking'
p46
F0.0073689999999999997
sS'health'
p47
F0.013079
sS'new'
p48
F0.015357000000000001
sS'approach'
p49
F0.0089280000000000002
sS'integrated'
p50
F0.016570999999999999
sS'business'
p51
F0.0074669999999999997
sS'associate'
p52
F0.016712999999999999
sS'million'
p53
F0.0112
sS'deliver'
p54
F0.0074120000000000002
sS'science'
p55
F0.012167000000000001
sS"nation's"
p56
F0.030193999999999999
sS'statistics'
p57
F0.014177
sS'analyzes'
p58
F0.020650000000000002
sS'change'
p59
F0.019803000000000001
sS'care'
p60
F0.013305000000000001
sS'talented'
p61
F0.015953999999999999
sS'career'
p62
F0.011449000000000001
sS'experience'
p63
F0.0010150000000000001
sS'healthier'
p64
F0.030193999999999999
sS'software'
p65
F0.0055459999999999997
sS'master degree'
p66
F0.025388000000000001
sS'business segment'
p67
F0.063705999999999999
sS'community'
p68
F0.019640000000000001
sS'one'
p69
F0.0062769999999999996
sS'pharmacy'
p70
F0.029397
sS'u'
F0.012655
sS'market'
p71
F0.020451
sS'pharmaceutical'
p72
F0.024035000000000001
sS'education experience'
p73
F0.022245999999999998
sS'management'
p74
F0.012291
sS'service'
p75
F0.017412
sS'opportunity'
p76
F0.0054520000000000002
sS'strategy'
p77
F0.015337
sS'start'
p78
F0.018414
sS'life'
p79
F0.017971000000000001
sS'offer'
p80
F0.017485000000000001
sS'tool'
p81
F0.0039230000000000003
sS'specialty'
p82
F0.023344
sS'collect data'
p83
F0.025270999999999998
sS'ten year experience'
p84
F0.040224999999999997
sS'hear'
p85
F0.021988000000000001
sS'potential'
p86
F0.026282
sS'national footprint'
p87
F0.040224999999999997
sS'join'
p88
F0.0081169999999999992
sS'developing'
p89
F0.007352
sS'characteristic'
p90
F0.020903000000000001
sS'healthy'
p91
F0.024826999999999998
sS'economic'
p92
F0.065041000000000002
sS'historical'
p93
F0.028489
sS'applies'
p94
F0.035246
sS'draw valid conclusion'
p95
F0.031852999999999999
sS'problem'
p96
F0.0075209999999999999
sS'metric'
p97
F0.01362
sS'measure'
p98
F0.014779
sS'health care'
p99
F0.031702000000000001
sS'together'
p100
F0.014932000000000001
sS'want'
p101
F0.010577
sS'need'
p102
F0.0058459999999999996
sS'defines'
p103
F0.025388000000000001
sS'information'
p104
F0.0062769999999999996
sS'comprehensive outcomes-driven care'
p105
F0.040224999999999997
sS'develop'
p106
F0.012718
sS'administrative service'
p107
F0.037449000000000003
sS'software package'
p108
F0.021114000000000001
sS'make'
p109
F0.0068849999999999996
sS'seeking'
p110
F0.0097859999999999996
sS'responsibilities'
p111
F0.0067499999999999999
sS'complex'
p112
F0.017222999999999999
sS'build'
p113
F0.010600999999999999
sS'advanced mathematical'
p114
F0.028701999999999998
sS'performance'
p115
F0.023828999999999999
sS'product'
p116
F0.0082070000000000008
sS'healthcare'
p117
F0.012475999999999999
sS'headquartered'
p118
F0.017510999999999999
sS'award-winning program amerihealth caritas'
p119
F0.040224999999999997
sS'stay'
p120
F0.020903000000000001
sS'helping'
p121
F0.011709000000000001
sS'develops'
p122
F0.052713000000000003
sS'data'
p123
F0.0053039999999999997
sS'ten year'
p124
F0.031852999999999999
sS'predict future outcome'
p125
F0.033681999999999997
sS'well'
p126
F0.0064229999999999999
sS'analysis'
p127
F0.0089060000000000007
sS'solve'
p128
F0.021548999999999999
sS'behavioral'
p129
F0.021167999999999999
sS'organization'
p130
F0.0061009999999999997
sS'model'
p131
F0.016240000000000001
s.