(dp1
S'analyst'
p2
F0.0074229999999999999
sS'responsible'
p3
F0.0044939999999999997
sS'help'
p4
F0.0036229999999999999
sS'aggregating'
p5
F0.031022000000000001
sS'able'
p6
F0.016944000000000001
sS'insight'
p7
F0.0048459999999999996
sS'dynamic'
p8
F0.0082979999999999998
sS'data acquisition'
p9
F0.015414000000000001
sS'existing'
p10
F0.0076099999999999996
sS'arriving'
p11
F0.027012999999999999
sS'preferred qualifications'
p12
F0.0078499999999999993
sS'including'
p13
F0.0061749999999999999
sS'statistical'
p14
F0.011158
sS'committed'
p15
F0.0059309999999999996
sS'skill'
p16
F0.010104
sS'developer'
p17
F0.016552999999999998
sS'knowledge'
p18
F0.0033549999999999999
sS'sr data scientist'
p19
F0.016671999999999999
sS'experience working'
p20
F0.013627
sS'disability'
p21
F0.0083049999999999999
sS'improvement'
p22
F0.0084749999999999999
sS'environment'
p23
F0.0042249999999999996
sS'run turn-key analytics'
p24
F0.031022000000000001
sS'easy'
p25
F0.013769
sS'deeper understanding'
p26
F0.019578999999999999
sS'future sponsorship'
p27
F0.024483000000000001
sS'real'
p28
F0.012130999999999999
sS'collaborate'
p29
F0.0062170000000000003
sS'practice'
p30
F0.0072630000000000004
sS'overall'
p31
F0.0089519999999999999
sS'advanced statistical technique'
p32
F0.017944000000000002
sS'report'
p33
F0.0050829999999999998
sS'multiple'
p34
F0.0070460000000000002
sS'advanced'
p35
F0.0057010000000000003
sS'sas jmp'
p36
F0.024483000000000001
sS'level'
p37
F0.016156
sS'scripting language'
p38
F0.012663000000000001
sS'solution'
p39
F0.010381
sS'team'
p40
F0.0027899999999999999
sS'path'
p41
F0.01464
sS'etl data prep expert'
p42
F0.031022000000000001
sS'quantitative discipline'
p43
F0.011239000000000001
sS'good understanding'
p44
F0.013899999999999999
sS'back'
p45
F0.014071999999999999
sS'analytics'
p46
F0.0033470000000000001
sS'computer'
p47
F0.0092949999999999994
sS'design'
p48
F0.003019
sS'result'
p49
F0.014142999999999999
sS'legally authorized'
p50
F0.015029000000000001
sS'patient'
p51
F0.013736999999999999
sS'project manager'
p52
F0.013769
sS'multi-task'
p53
F0.016265999999999999
sS'expert'
p54
F0.0069309999999999997
sS'collaborates'
p55
F0.013370999999999999
sS'decision'
p56
F0.0062700000000000004
sS'research'
p57
F0.0043080000000000002
sS'looking'
p58
F0.0049490000000000003
sS'critical'
p59
F0.0079469999999999992
sS'translate business objective'
p60
F0.021139000000000002
sS'business partner'
p61
F0.010193000000000001
sS'cause'
p62
F0.015786999999999999
sS'across'
p63
F0.0081580000000000003
sS'reporting'
p64
F0.0075100000000000002
sS'ass'
p65
F0.011337
sS'working'
p66
F0.0039579999999999997
sS'data science team'
p67
F0.010756
sS'ability'
p68
F0.014508
sS'utilize'
p69
F0.010418
sS'attention'
p70
F0.012009000000000001
sS'data scientist'
p71
F0.0024109999999999999
sS'understanding'
p72
F0.0046899999999999997
sS'proper data preparation'
p73
F0.031022000000000001
sS'key'
p74
F0.005849
sS'modeling'
p75
F0.0061599999999999997
sS'strong'
p76
F0.007404
sS'interpret'
p77
F0.0109
sS'requesting anonymized patient'
p78
F0.031022000000000001
sS'prepare'
p79
F0.012409999999999999
sS'language'
p80
F0.0071710000000000003
sS'package'
p81
F0.010728
sS'technical'
p82
F0.010410000000000001
sS'study'
p83
F0.010016000000000001
sS'experience'
p84
F0.0013630000000000001
sS'etc'
p85
F0.0052550000000000001
sS'action'
p86
F0.020032000000000001
sS'professional experience'
p87
F0.012454
sS'powerpoint'
p88
F0.012130999999999999
sS'etl'
p89
F0.021978999999999999
sS'5+ year'
p90
F0.074897000000000005
sS'automating'
p91
F0.018733
sS'overview'
p92
F0.012387
sS'articulate'
p93
F0.01355
sS'system'
p94
F0.0033549999999999999
sS'united states'
p95
F0.0099930000000000001
sS'minority woman'
p96
F0.023002999999999999
sS'determine'
p97
F0.01077
sS'eeo aa employer'
p98
F0.021139000000000002
sS'data prep analysis'
p99
F0.031022000000000001
sS'computer science engineering economics'
p100
F0.024483000000000001
sS'create visualizations'
p101
F0.031022000000000001
sS'patient-level data'
p102
F0.031022000000000001
sS'better'
p103
F0.0082760000000000004
sS'management'
p104
F0.0041269999999999996
sS'python r'
p105
F0.011577
sS'service'
p106
F0.0038969999999999999
sS'leading'
p107
F0.0052300000000000003
sS'create'
p108
F0.0049030000000000002
sS'question'
p109
F0.0081560000000000001
sS'transform'
p110
F0.010536
sS'customer profile'
p111
F0.021661
sS'priority'
p112
F0.010536
sS'least one'
p113
F0.010267
sS'clinical'
p114
F0.011560000000000001
sS'way'
p115
F0.0055079999999999999
sS'recommend'
p116
F0.011853000000000001
sS'advanced analytics'
p117
F0.0085520000000000006
sS'non-technical audience'
p118
F0.012070000000000001
sS'utilizing'
p119
F0.010945
sS'analyze'
p120
F0.012931
sS'regression classification clustering'
p121
F0.024483000000000001
sS'communicate finding'
p122
F0.015622
sS'text mining'
p123
F0.013642
sS'customer satisfaction'
p124
F0.015029000000000001
sS'qualify applicant'
p125
F0.024483000000000001
sS'recommends'
p126
F0.016532000000000002
sS'would like'
p127
F0.016396999999999998
sS'open source'
p128
F0.0095610000000000001
sS'clearly'
p129
F0.011872000000000001
sS'tool'
p130
F0.0026350000000000002
sS'programming experience'
p131
F0.011990000000000001
sS'outcome'
p132
F0.0098910000000000005
sS'understand'
p133
F0.020795000000000001
sS'particular'
p134
F0.014252000000000001
sS'team member'
p135
F0.0072950000000000003
sS'delivers'
p136
F0.013013
sS'correct conclusion'
p137
F0.024483000000000001
sS'must'
p138
F0.0050920000000000002
sS'customer'
p139
F0.019136
sS'applying'
p140
F0.0095499999999999995
sS'ms office'
p141
F0.015363999999999999
sS'effectively'
p142
F0.015389
sS'require'
p143
F0.0096019999999999994
sS'work'
p144
F0.0063550000000000004
sS'iteration'
p145
F0.020088999999999999
sS'project'
p146
F0.0029550000000000002
sS'r'
F0.0054840000000000002
sS'dashboard'
p147
F0.010496999999999999
sS'behavior'
p148
F0.011065999999999999
sS'entire data flow'
p149
F0.031022000000000001
sS'problem'
p150
F0.010101000000000001
sS'providing'
p151
F0.0063200000000000001
sS'business unit'
p152
F0.011455
sS'business analyst'
p153
F0.013672999999999999
sS'pra'
p154
F0.028492
sS'organized'
p155
F0.013370999999999999
sS'sale'
p156
F0.018311000000000001
sS'consider'
p157
F0.0099590000000000008
sS'expertise'
p158
F0.0049109999999999996
sS'statistical analysis'
p159
F0.0071980000000000004
sS'actionable insight'
p160
F0.012029
sS'work collaboratively'
p161
F0.011304
sS'preferably'
p162
F0.010799
sS'minimal supervision'
p163
F0.014364
sS'software package'
p164
F0.014179000000000001
sS'provide'
p165
F0.0037100000000000002
sS'make'
p166
F0.009247
sS'predictive modeling'
p167
F0.0085909999999999997
sS'excel'
p168
F0.010109999999999999
sS'detail'
p169
F0.0083929999999999994
sS'machine learning technique'
p170
F0.01059
sS'responsibilities'
p171
F0.0045329999999999997
sS'potential'
p172
F0.026474000000000001
sS'employment visa status'
p173
F0.027012999999999999
sS'meet deadline'
p174
F0.016330999999999998
sS'team player'
p175
F0.011159000000000001
sS'company'
p176
F0.0037200000000000002
sS'development'
p177
F0.0048970000000000003
sS'product'
p178
F0.008267
sS'statistics applied mathematics operations research'
p179
F0.025963
sS'complex business problem'
p180
F0.019273999999999999
sS'collaboration'
p181
F0.007182
sS'assist'
p182
F0.015960999999999999
sS'qualifications'
p183
F0.0043990000000000001
sS'effect'
p184
F0.016532000000000002
sS'proficiency'
p185
F0.0070569999999999999
sS'work independently'
p186
F0.010145
sS'uses'
p187
F0.015075
sS'data driven'
p188
F0.012500000000000001
sS'sql'
p189
F0.0040590000000000001
sS'domain expert'
p190
F0.017651
sS'data'
p191
F0.012467000000000001
sS'flexible'
p192
F0.01055
sS'individual'
p193
F0.0058050000000000003
sS'bs ms'
p194
F0.016671999999999999
sS'java'
p195
F0.0082760000000000004
sS'drive business'
p196
F0.017559000000000002
sS'text analysis'
p197
F0.020903000000000001
sS'drive'
p198
F0.0046870000000000002
sS'analysis'
p199
F0.0089709999999999998
sS'actionable'
p200
F0.010392999999999999
sS'efficient'
p201
F0.010522999999999999
sS'enterprise'
p202
F0.013521999999999999
sS'professional'
p203
F0.0064270000000000004
sS'analyzing data'
p204
F0.015677
sS'opportunity'
p205
F0.0036610000000000002
sS'veteran'
p206
F0.015265000000000001
s.