(dp1
S''
F0.050144754469397396
sS'limited'
p2
F0.0029702904763656036
sS'externally'
p3
F0.0023430450277086455
sS'kaplan-meier'
p4
F0.0045390470550717259
sS'pks'
p5
F0.0045390470550717259
sS'global'
p6
F0.0050929538871002907
sS'desirable'
p7
F0.0019184176267177189
sS'results'
p8
F0.0018701139162140966
sS'pvas'
p9
F0.0045390470550717259
sS'four'
p10
F0.0018129562811377922
sS'manager'
p11
F0.0023064924353777042
sS'deadline'
p12
F0.0018397174489893323
sS'/'
F0.0045131959338446425
sS'follow'
p13
F0.0018129562811377922
sS'post-marketing'
p14
F0.0045390470550717259
sS'issues'
p15
F0.0044699532891352301
sS'candidates.'
p16
F0.0033233398038197445
sS'relationships'
p17
F0.0026154555878677693
sS'looking'
p18
F0.003824115889588549
sVBusiness
p19
F0.00052921445556463513
sS'graph'
p20
F0.0040023904238844594
sS'send'
p21
F0.00192073076161125
sS'environment'
p22
F0.0071135016510464957
sS'to'
p23
F0.0014538101875534236
sS'program'
p24
F0.0031904820164600309
sS'safety'
p25
F0.025499126107390881
sS'include'
p26
F0.0063450090941671198
sS'presentation'
p27
F0.001205163572558516
sS'define.xml'
p28
F0.0040015655963059173
sS'activities'
p29
F0.0023952020207547117
sS'updated'
p30
F0.0029450675046123168
sS'collaborate'
p31
F0.0011877564373020432
sS'role'
p32
F0.0016419734582442205
sS'mph'
p33
F0.0037516509990381925
sS'focus'
p34
F0.0025026119570190353
sS'updates'
p35
F0.0029842272505629726
sS'bringing'
p36
F0.0017215948847758148
sS'minute'
p37
F0.0028750574900624202
sS'timetable'
p38
F0.0034125381256608963
sS'timely'
p39
F0.0067724703216722948
sS'school'
p40
F0.0020293195544954221
sS'internally'
p41
F0.002217656902320452
sS'level'
p42
F0.0047672720088859262
sS'skills'
p43
F0.0052994485442486184
sS'positions'
p44
F0.0025199038637500489
sS'collating'
p45
F0.0036624526314654984
sS'standards'
p46
F0.012037941662077958
sS'repository'
p47
F0.0021214201325609086
sS'item'
p48
F0.0023771914078884668
sS'adjust'
p49
F0.0027996415348512664
sS'team'
p50
F0.0091225198326676579
sS'biological'
p51
F0.0027996415348512664
sS'setup'
p52
F0.0026059555915947091
sS'application'
p53
F0.0044081973782402056
sS'software.'
p54
F0.0023771914078884668
sS'clients'
p55
F0.0020207111976125449
sS'enduser'
p56
F0.0045390470550717259
sS'consistent'
p57
F0.0031403394123399962
sS'guidelines'
p58
F0.0022959167167169421
sS'cros'
p59
F0.0038608209881961343
sS'professionalism'
p60
F0.0029088112496204561
sS'rate'
p61
F0.0023375786837147652
sS'accessing'
p62
F0.0026766897278403851
sS'process improvement'
p63
F0.0015781617634195036
sS'established'
p64
F0.0018129562811377922
sS'stressful'
p65
F0.0035870364933285612
sS'winnonlin'
p66
F0.0045390470550717259
sS'product.'
p67
F0.0051050631096910028
sS'specification'
p68
F0.0075227230707986485
sS'clinical development'
p69
F0.0028916433306693293
sS'adhoc'
p70
F0.0030267963259246163
sS'time management'
p71
F0.0021076380860491697
sS'current'
p72
F0.0051019951382171528
sS'version'
p73
F0.0040471277052416023
sS'conduct'
p74
F0.00150456103018231
sS'disbursed'
p75
F0.0045390470550717259
sS'new'
p76
F0.0038103569255911454
sS'contributes'
p77
F0.0024819597507502382
sS'equivalent'
p78
F0.0034525127838947365
sS'supporting'
p79
F0.0014637300330826381
sVEconomics
p80
F0.00080272580602957968
sS'degree'
p81
F0.0077820880789645748
sS'tabulation'
p82
F0.0032841800121376358
sS'learn'
p83
F0.0036696392781364316
sS'supervision.'
p84
F0.0030267963259246163
sS'understanding'
p85
F0.0033175287026300298
sS'met'
p86
F0.0020235638526208011
sS'field'
p87
F0.0025077026911790243
sS'operating'
p88
F0.0013942097230994043
sS'biostatistician'
p89
F0.0092202764428235447
sS'active'
p90
F0.0016239841332647228
sS'techdataservice.com'
p91
F0.0045390470550717259
sS'interpret'
p92
F0.0016703590089521597
sS'box'
p93
F0.0023655424540017958
sS'search'
p94
F0.0030352150466240388
sS'skills.'
p95
F0.0036333816796031942
sS'accomplishes'
p96
F0.0045390470550717259
sS'technical'
p97
F0.0037627994425654819
sS'study'
p98
F0.024809385351714973
sS'compliance'
p99
F0.0017501939640211898
sS'experience'
p100
F0.01863858047361534
sS'example'
p101
F0.0018556935816644059
sS'trial'
p102
F0.021080220623348186
sS'requirements'
p103
F0.0011076323637677834
sS'3.'
p104
F0.0070966273620053878
sS'published'
p105
F0.0026059555915947091
sS'action'
p106
F0.002437551812402483
sS'implement'
p107
F0.0041445463309581357
sS'studies'
p108
F0.0025696994280653813
sS'industry.'
p109
F0.0021428497127042941
sS'confidentiality'
p110
F0.002785859351146966
sVDoctor
p111
F0.00053286779441118789
sS'manage'
p112
F0.0032001608246608926
sS'regulatory'
p113
F0.0083376641193042434
sS'unix'
p114
F0.0012632528320866193
sS'analyzing'
p115
F0.0027256692210785504
sS'aptitude'
p116
F0.0020909391922141504
sS'lodging'
p117
F0.0045390470550717259
sS'apply'
p118
F0.0010009447277745749
sS'establish'
p119
F0.0033351744263279853
sS'plot'
p120
F0.013650152502643585
sS'use'
p121
F0.0017093640621037758
sS'capacity.'
p122
F0.0038608209881961343
sS'figure'
p123
F0.0025278590630636016
sS'working'
p124
F0.0083038270401861892
sV(5, 10]
p125
F0.0005898455291471911
sS'positive'
p126
F0.0017893527496360361
sS'comparing'
p127
F0.0029450675046123168
sS'call'
p128
F0.0034370360102930295
sS'6'
F0.0036002107300749991
sS'taken'
p129
F0.0028590155481114216
sS'scope'
p130
F0.0017154603567121063
sS'exhaustive'
p131
F0.0027724548106807145
sS'assessment'
p132
F0.0019070132179600191
sS'msb'
p133
F0.013617141165215178
sS'data management'
p134
F0.0013453611079301715
sS'please'
p135
F0.0011054377175200932
sS'company'
p136
F0.00068488424745092745
sS'about'
p137
F0.0012094784434504144
sS'phone'
p138
F0.0020470044631414682
sS'primarily'
p139
F0.0041753334776996444
sS'carrying'
p140
F0.0030495555833412822
sS'8'
F0.0036561373560467336
sS'data processing'
p141
F0.0017982967699258197
sS'excellent'
p142
F0.006923449634567101
sS'documents.'
p143
F0.006495847422828673
sS'iii'
p144
F0.0029450675046123168
sS'project management'
p145
F0.00093026092139165658
sS'must'
p146
F0.00094517942934322762
sS'organizations'
p147
F0.0024467478954415078
sS'effectively'
p148
F0.0023161986796249208
sS'this'
p149
F0.0007817215266415164
sS'recall'
p150
F0.0033659089249128528
sS'challenge'
p151
F0.0011749696911822845
sS'ata'
p152
F0.0035217080690872833
sS'duties/responsibilities'
p153
F0.0029642556747092284
sS'programs'
p154
F0.0024013559780600635
sS'ms'
p155
F0.0053643541789765116
sS'determining'
p156
F0.0023430450277086455
sS'following'
p157
F0.0023279747383641411
sS'applies'
p158
F0.0018185688646714729
sS'scatter'
p159
F0.0045390470550717259
sS'attain'
p160
F0.0040015655963059173
sS'activities.'
p161
F0.0053108306053972956
sS'e.g.'
p162
F0.0070925342807685041
sS'process'
p163
F0.0040757306187432325
sS'validates'
p164
F0.0026989315023642083
sS'in-depth'
p165
F0.0018806807676996621
sS'high'
p166
F0.005222854514041626
sS'weighting'
p167
F0.0032141699061248737
sS'minimum'
p168
F0.0084361450079096113
sS'reviewing'
p169
F0.0056568567615544853
sS'documenting'
p170
F0.0022529321205718095
sS'pharmaceutic'
p171
F0.0045390470550717259
sS'ptogrammer'
p172
F0.0045390470550717259
sS'educational'
p173
F0.0018701139162140966
sS'sas-base'
p174
F0.0045390470550717259
sS'monitoring'
p175
F0.0032684063684578204
sS'hoc'
p176
F0.0020380821015329336
sS'provide'
p177
F0.0030990695409194085
sS'travel'
p178
F0.0012811110937251203
sS'stewardship'
p179
F0.0034125381256608963
sS'1'
F0.0066389991008634014
sS'located'
p180
F0.0015921737273638891
sS'responsibilities'
p181
F0.0033145423051742329
sS'forest'
p182
F0.0031249716300152165
sS'emphasizing'
p183
F0.0031529355832269016
sS'interview'
p184
F0.0022092216677384062
sS'preferably'
p185
F0.0017109094211717349
sS'product'
p186
F0.0059221800471916438
sS'description'
p187
F0.0019927360928926291
sS'escalate'
p188
F0.0027222328047317016
sS'advice'
p189
F0.0022575258812740375
sS'mapping'
p190
F0.0020909391922141504
sS'hazard'
p191
F0.0036624526314654984
sS'produce'
p192
F0.0017634618497533261
sS'demonstrating'
p193
F0.0023541644328594581
sS'such'
p194
F0.0036624526314654984
sS'core'
p195
F0.0012204351379028347
sS'law'
p196
F0.0012548594979072817
sS'data'
p197
F0.0016246779160886699
sS'response'
p198
F0.0019877169906119562
sS'contractor.'
p199
F0.0041999339987681327
sS'efficiently'
p200
F0.0019518412741476262
sS'a'
F0.0045744664716585778
sS'natural'
p201
F0.0018958686186624019
sS'effective'
p202
F0.0013863696794026311
sS'telecommuting'
p203
F0.0083575780534408985
sS'attracts'
p204
F0.0032141699061248737
sS'applicant'
p205
F0.0074529095485906223
sS'powerpoint'
p206
F0.0011971743673846636
sS'maintain'
p207
F0.0050505940345311161
sS'responsibility'
p208
F0.0023045626894930751
sS'agenda'
p209
F0.002489316787878274
sS'discussion'
p210
F0.0020622464887822354
sS'survival analysis'
p211
F0.0022134211052222586
sS'biostatistician/phd'
p212
F0.0045390470550717259
sS'serving'
p213
F0.0020094640624221754
sS'feedback'
p214
F0.0017875834017900534
sS'office'
p215
F0.0011028170742346443
sS'developed'
p216
F0.0019694503486739909
sS'coordinating'
p217
F0.0043153520434108172
sS'mission'
p218
F0.0011649756352161914
sS'course'
p219
F0.0017875834017900534
sS'attitude'
p220
F0.0018701139162140966
sS'scientist'
p221
F0.0058106804286842248
sS'statistical'
p222
F0.011192411089494208
sS'innovative'
p223
F0.00099113993167959137
sS'converting'
p224
F0.0027104434416671186
sS'cold'
p225
F0.0059684545011259452
sS'first-line'
p226
F0.0041999339987681327
sS'position'
p227
F0.0053310764821215377
sS'group'
p228
F0.0046265533625808987
sS'monitor'
p229
F0.0017911285199773128
sS'personal'
p230
F0.0013576733793221423
sS'solving'
p231
F0.0014432131351393958
sS'r programming'
p232
F0.0015437191298718585
sS'writing'
p233
F0.0021986891644642788
sS'forms'
p234
F0.0027343132935356688
sS'coaching'
p235
F0.0018893017204668289
sS'permanent'
p236
F0.0064506201123047113
sS'biomedical'
p237
F0.0081313303250013565
sS'listing'
p238
F0.0072803292331504515
sS'policy'
p239
F0.0013354492309397012
sS'2.'
p240
F0.0091836668668677686
sS'main'
p241
F0.0022575258812740375
sS'conformance'
p242
F0.0080031311926118346
sS'2+'
p243
F0.0017788313971981229
sS'physicians'
p244
F0.0040015655963059173
sS'designs'
p245
F0.0020470044631414682
sS'good'
p246
F0.0085938362868077742
sS'practice'
p247
F0.0042929494617359298
sS'evolution'
p248
F0.0024819597507502382
sS'functional'
p249
F0.00138949063492332
sS'dat'
p250
F0.0045390470550717259
sS'milestone'
p251
F0.0025359457599698262
sS'swps'
p252
F0.0045390470550717259
sS'maintaining'
p253
F0.0084366395563047723
sS'masters'
p254
F0.0037539179355285525
sS'workload'
p255
F0.0024333434007064005
sS'mcmc'
p256
F0.0035217080690872833
sS'verifying'
p257
F0.0028284283807772427
sS'always'
p258
F0.0019324633923933022
sS'database management'
p259
F0.0023713322603483348
sS'statistical/sas'
p260
F0.0045390470550717259
sS'labeling'
p261
F0.0038608209881961343
sS'pharmaceutical industry'
p262
F0.0026989315023642083
sS'doesnt'
p263
F0.0035217080690872833
sS'logistic regression'
p264
F0.0016017430904166066
sS'computer'
p265
F0.0051446178032953406
sS'1/1a/1b'
p266
F0.0045390470550717259
sS'theoretical/technical'
p267
F0.0045390470550717259
sS'significantly'
p268
F0.003005048933999169
sS'house'
p269
F0.0027724548106807145
sS'eg'
p270
F0.0028138232586272633
sS'communication'
p271
F0.0061963575699055043
sS'idea'
p272
F0.0011831146093644013
sS'related'
p273
F0.010241294839963595
sS'solution'
p274
F0.0012983075069647563
sS'clinical/medical'
p275
F0.0045390470550717259
sS'year'
p276
F0.009352865058045513
sS'programmer'
p277
F0.031351657558504602
sS'plans'
p278
F0.0023321727430533363
sS'accomplish'
p279
F0.0022959167167169421
sS'network'
p280
F0.0012823670666057593
sS'quality'
p281
F0.0021205777543458473
sS'smt'
p282
F0.0045390470550717259
sS'work'
p283
F0.0038022373429416972
sS'content'
p284
F0.0014538101875534236
sS'may'
p285
F0.0022593552526224141
sS'health'
p286
F0.0064212854661480469
sS'adapt'
p287
F0.0019643541774847645
sS'7'
F0.0016620902956602237
sS'comprehensive'
p288
F0.0013175579102821463
sS'problem-solving'
p289
F0.0018280686780233668
sS'evaluation'
p290
F0.003310609768910643
sS'integrated'
p291
F0.0036185000310992249
sS'assurance'
p292
F0.0026876842299817898
sS'assist'
p293
F0.0085970447031897372
sS'resume'
p294
F0.0050663067525068949
sS'timeline'
p295
F0.0021214201325609086
sS'enforcing'
p296
F0.0040015655963059173
sS'data scientist'
p297
F0.00051828359352440229
sS'departments.'
p298
F0.0028916433306693293
sS'standard'
p299
F0.022078216764978661
sS'attending'
p300
F0.0027466996509276547
sS'base'
p301
F0.0033632119224500101
sS'members'
p302
F0.0021214201325609086
sS'collation'
p303
F0.0045390470550717259
sS'onsite'
p304
F0.0023655424540017958
sS'training'
p305
F0.0046052734853665933
sS'benefits'
p306
F0.0032709914134585343
sS'language'
p307
F0.00089941871842541923
sS'e.g'
p308
F0.0033659089249128528
sS'iss'
p309
F0.0034640843204664213
sS'biostatistical'
p310
F0.010392252961399263
sS'area'
p311
F0.0029003840891209131
sS'programming'
p312
F0.014021622360913293
sS'biologics'
p313
F0.0080031311926118346
sS'products.'
p314
F0.0019115431291467802
sS'qualification'
p315
F0.0060341536162258763
sS'relational'
p316
F0.0014822982085152246
sS'support'
p317
F0.013779577101847112
sS'ise'
p318
F0.0045390470550717259
sS'first'
p319
F0.0014152021122695211
sS'ability'
p320
F0.0080713370719954821
sS'organize'
p321
F0.0019047638951737598
sS'medidata'
p322
F0.011254952997114577
sS'sas base'
p323
F0.0025610401895015465
sS'pkdm'
p324
F0.0045390470550717259
sS'electronic'
p325
F0.0022009294116889918
sS'priority'
p326
F0.0033519003289945262
sS'management'
p327
F0.0031029070794508632
sS'publication'
p328
F0.0040820763566685996
sS'requirement'
p329
F0.0037357924186259888
sS'leading'
p330
F0.0017643881489961962
sS'interact'
p331
F0.0017094018022554788
sS'recruiting'
p332
F0.0016873279112609545
sS'system'
p333
F0.0030990695409194085
sS'least'
p334
F0.0023600886997201384
sS'annotation'
p335
F0.0069281686409328426
sS'1a'
p336
F0.0045390470550717259
sS'needed'
p337
F0.0039792653367420787
sS'regulation'
p338
F0.0019070132179600191
sS'2'
F0.011210998623491189
sS'draft'
p339
F0.0057180310962228432
sS'operating systems'
p340
F0.0023163043500350729
sS'tfl'
p341
F0.0090780941101434517
sS'shell'
p342
F0.0050087426478867417
sS'option'
p343
F0.001898077320659
sS'prescribed'
p344
F0.0038608209881961343
sS'tool'
p345
F0.00067207947057335471
sS'serve'
p346
F0.0014701490319414515
sS'task'
p347
F0.0026793452195395208
sS'part'
p348
F0.0010073532119743217
sS'consult'
p349
F0.0024399997405209826
sS'representing'
p350
F0.0026989315023642083
sS'updating'
p351
F0.0028916433306693293
sS'techdata'
p352
F0.018156188220286903
sS'king'
p353
F0.0035217080690872833
sS'12'
p354
F0.0022668448675860226
sS'determines'
p355
F0.0045818996976320619
sS'require'
p356
F0.0032083299364262497
sS'database'
p357
F0.0057790783676695146
sS'ba/bs'
p358
F0.0022959167167169421
sS'preparation'
p359
F0.011910392039575253
sS'compensation'
p360
F0.0016265189531267142
sS'r'
F0.00054304530979837687
sS'macro'
p361
F0.0078754311478810065
sS'bmds'
p362
F0.018156188220286903
sS'contribution'
p363
F0.0018701139162140966
sS'doctorate'
p364
F0.0026350275779185232
sS'providing'
p365
F0.0057350414934897167
sS'acquisition'
p366
F0.0019957592831372473
sS'1.'
p367
F0.0069028035846311958
sS'clinical data management'
p368
F0.0028590155481114216
sS'addressing'
p369
F0.0023111272385595606
sS'documentation'
p370
F0.0028370263786145111
sS'willingness'
p371
F0.0019070132179600191
sS'experience.'
p372
F0.0016858911371900791
sS'alongside'
p373
F0.0020747915263150756
sS'1b'
p374
F0.0036624526314654984
sS'well-written'
p375
F0.0034640843204664213
sS'manner'
p376
F0.0013871480535524927
sS'challenging/conflicting'
p377
F0.0045390470550717259
sS'close'
p378
F0.0020293195544954221
sS'need'
p379
F0.0017402717145909158
sS'sap'
p380
F0.003928708354969529
sS'clearly'
p381
F0.0016367916532554214
sS'data.'
p382
F0.0015278855278994818
sS'0-2'
p383
F0.0033659089249128528
sS'studying'
p384
F0.0032841800121376358
sS'responsible'
p385
F0.0048488620049263057
sS'upgrading'
p386
F0.0035217080690872833
sS'cdisc'
p387
F0.054051493834745883
sS'thorough'
p388
F0.0020207111976125449
sS'sciences'
p389
F0.0020942336827754157
sS'internal'
p390
F0.0010886492610576951
sS'best'
p391
F0.0018011393628975796
sS'objective'
p392
F0.0015065456748757529
sS'tfls.'
p393
F0.0045390470550717259
sS'repsentatives.'
p394
F0.0045390470550717259
sS'worldwide'
p395
F0.0019025248670162722
sS'multiple'
p396
F0.003813817607108741
sS'attractiveness'
p397
F0.0040015655963059173
sS'collaboration'
p398
F0.0012513059785095176
sS'sets'
p399
F0.0020293195544954221
sS'7+'
p400
F0.0023771914078884668
sS'involving'
p401
F0.0019324633923933022
sS'experiences'
p402
F0.0022909498488160309
sS'plan'
p403
F0.0080024612360694285
sS'significant'
p404
F0.0015578687503904002
sS'organization'
p405
F0.0043130720138984373
sS'phase'
p406
F0.021320175965328082
sS'librarian'
p407
F0.0040015655963059173
sS'statistical programming'
p408
F0.002059159856825663
sS'the'
p409
F0.0029969980439756038
sS'sources.'
p410
F0.0022262401326052219
sS'expert'
p411
F0.0020445431549776551
sS'harmonization'
p412
F0.0034125381256608963
sS'windows'
p413
F0.0016486123029763743
sS'medical'
p414
F0.0029421458928624322
sS'request'
p415
F0.0047105091185099942
sS'order'
p416
F0.0014511393256194437
sS'principle'
p417
F0.0032998870292816683
sS'databases'
p418
F0.0011264668166970598
sS'professional'
p419
F0.0031095504664197548
sS'senior'
p420
F0.0010590923481444698
sS'science'
p421
F0.0024076503020345631
sS'ta-related'
p422
F0.0045390470550717259
sS'certification'
p423
F0.0018092500155496125
sS'text'
p424
F0.001993063802541778
sS'word.'
p425
F0.0045390470550717259
sS'oncology'
p426
F0.0026251437159603356
sS'sites'
p427
F0.0030734254809411817
sS'guiding/coaching'
p428
F0.0045390470550717259
sS'participate'
p429
F0.0058732256857816105
sS'pmda'
p430
F0.0045390470550717259
sS'principal'
p431
F0.0018436628369004051
sS'xml'
p432
F0.0016115033832953005
sS'access'
p433
F0.001134766157092199
sS'upgrade'
p434
F0.0024467478954415078
sS'based'
p435
F0.00097544690083343198
sS'knowledge'
p436
F0.0088173418601517495
sS'implementation'
p437
F0.0058224062630693315
sS'guidance'
p438
F0.0031091338789018068
sS'3'
F0.0053111992806907206
sS'databases-'
p439
F0.0045390470550717259
sS'candidates'
p440
F0.0036484931752341749
sS'summarizing'
p441
F0.0029842272505629726
sS'enthusiasm'
p442
F0.0024675694874152824
sS'drug'
p443
F0.0037033007417013263
sS'achieve'
p444
F0.0013957929236078073
sS'pharmacology'
p445
F0.0098525400364129073
sS'10'
p446
F0.0013703035623170918
sS'familiar'
p447
F0.0018936698436553729
sS'overall'
p448
F0.0030311551673633712
sS'preferred'
p449
F0.0061100425657202879
sS'recruiting/staffing'
p450
F0.0045390470550717259
sS'recruiters'
p451
F0.0029842272505629726
sS'data collection'
p452
F0.0035473087543652086
sS'closely'
p453
F0.0023329235763225121
sS'ged'
p454
F0.002926603593405045
sS'report'
p455
F0.01421422205597554
sS'during'
p456
F0.0027594077687985849
sS'procedures'
p457
F0.0024202964045554028
sVManagement Science and Engineering
p458
F0.00063089263134485929
sS'regarding'
p459
F0.0018037427385900371
sS'resolve'
p460
F0.0036259125622755844
sS'resource'
p461
F0.0013475114655939089
sS'ad-hoc'
p462
F0.0021284595408308194
sS'drug development'
p463
F0.0030267963259246163
sS'interpersonal'
p464
F0.0015874583384448044
sS'crf'
p465
F0.016006262385223669
sS'common'
p466
F0.0017893527496360361
sS'activity'
p467
F0.018666915919016747
sS'discussing'
p468
F0.0034640843204664213
sS'cro'
p469
F0.0030734254809411817
sS'ongoing'
p470
F0.0017388725969701704
sS'rmp'
p471
F0.0090780941101434517
sS'set'
p472
F0.0042094670221408982
sS'reference'
p473
F0.0025441683748629205
sS'10+'
p474
F0.0020653527188236338
sS'intelligence'
p475
F0.00076813043536535174
sS'testing'
p476
F0.0010016526491683038
sS'quality control'
p477
F0.0023541644328594581
sS'see'
p478
F0.0016486123029763743
sS'individual'
p479
F0.001002361596667947
sS'pharmd/md/phd.'
p480
F0.0045390470550717259
sS'japan'
p481
F0.0033659089249128528
sS'sdtms/adams'
p482
F0.0045390470550717259
sS'needs.'
p483
F0.0021284595408308194
sV(2, 5]
p484
F0.00060613719590564357
sS'subject'
p485
F0.0013250476088197676
sS'project'
p486
F0.0051507509235550917
sS'stats'
p487
F0.0029642556747092284
sS'pharmaceutical/biotech'
p488
F0.0041999339987681327
sS'pharmacoepidemiology.'
p489
F0.0045390470550717259
sS'managing'
p490
F0.0027138809718033467
sS'review'
p491
F0.011321616898156169
sS'interviewing'
p492
F0.0072608892136662075
sS'familiarity'
p493
F0.0012893331598815925
sS'sr./principal'
p494
F0.0045390470550717259
sS'coordination'
p495
F0.0020844160298260609
sS'completion'
p496
F0.0017154603567121063
sS'written'
p497
F0.0080530959808124761
sS'i-iv'
p498
F0.0045390470550717259
sS'identification'
p499
F0.0019824279841752549
sS'progress'
p500
F0.0040189281248443507
sS'reading'
p501
F0.0027724548106807145
sS'approach'
p502
F0.0010963262435278211
sS'thrive'
p503
F0.0016731465990548701
sS'various'
p504
F0.0011156156364901773
sS'creating'
p505
F0.0024287572166810426
sS'he/she'
p506
F0.0024605300334146511
sS'ph.d.'
p507
F0.0017094018022554788
sS'attention'
p508
F0.0034971209928244583
sS'deliver'
p509
F0.0020068538967702079
sS'agencies'
p510
F0.002489316787878274
sS'implementing'
p511
F0.0014591960606867131
sS'job'
p512
F0.0076804617523371921
sS'mentoring'
p513
F0.0016830301866335394
sS'key'
p514
F0.0009638350107258935
sS'modeling'
p515
F0.00039733155040193367
sS'optional'
p516
F0.0025874917261187102
sS'improve'
p517
F0.001038804487060985
sS'sdtm'
p518
F0.064025049540894677
sS'commenting'
p519
F0.0083998679975362655
sS'efficiency'
p520
F0.0016090449932469656
sS'goal'
p521
F0.0012327779167113902
sS'sharing.'
p522
F0.0033659089249128528
sS'contract'
p523
F0.0037319005303526717
sS'sas programming'
p524
F0.0015289253057081944
sS'participating'
p525
F0.0046018690564207975
sS'etc'
p526
F0.0010647013640843746
sS'involve'
p527
F0.0022668448675860226
sS'improves'
p528
F0.0030734254809411817
sS'proactive'
p529
F0.0042358761024068707
sS'websdm'
p530
F0.0045390470550717259
sS'acceptable'
p531
F0.0028284283807772427
sS'duty'
p532
F0.0016214623800139337
sS'among'
p533
F0.0018871321981603613
sS'exploratory analysis'
p534
F0.0026251437159603356
sS'others'
p535
F0.0012989951341407476
sS'non-technical'
p536
F0.0016127372267203289
sS's-plus'
p537
F0.0030495555833412822
sS'initiative'
p538
F0.0027022330708738346
sS'rave'
p539
F0.01500660399615277
sS'table'
p540
F0.0041753334776996444
sS'cv'
p541
F0.0034640843204664213
sS'discipline.'
p542
F0.0024819597507502382
sS'pv'
p543
F0.015443283952784537
sS'site/remote'
p544
F0.0045390470550717259
sS'create'
p545
F0.00096646495658550752
sS'table/figures/listings'
p546
F0.0045390470550717259
sS'three'
p547
F0.0018701139162140966
sS'consultancy'
p548
F0.0052119111831894181
sS'.'
F0.0036058566459652875
sS'pc'
p549
F0.0052902304921655626
sS'pa'
p550
F0.002785859351146966
sS'pf'
p551
F0.0041999339987681327
sS'change'
p552
F0.0022099999348638741
sS'pd'
p553
F0.0068250762513217926
sS'basic'
p554
F0.0024815954628007765
sS'collected'
p555
F0.0024139011070541281
sS'pk'
p556
F0.013617141165215178
sS'ph'
p557
F0.0038608209881961343
sS'meeting'
p558
F0.0086468641467373365
sS'duties'
p559
F0.0017078988151887477
sS'define'
p560
F0.0013665548316923394
sS'firm'
p561
F0.0014388645636791513
sS'software development'
p562
F0.0010372781888812487
sS'life'
p563
F0.0010928993673708252
sS'enable'
p564
F0.0014021774678519413
sS'diversity'
p565
F0.0012339155857464543
sS'efficacy'
p566
F0.0029088112496204561
sS'proprietary'
p567
F0.0019824279841752549
sS'issue'
p568
F0.0036219487508579234
sS'player'
p569
F0.003294569407910283
sS'environment.'
p570
F0.0034873851313422443
sS'understand'
p571
F0.0010282190868122678
sS'external'
p572
F0.0049562723846459759
sS'bayesian'
p573
F0.0068434946348665095
sS'prussia'
p574
F0.0040015655963059173
sS'fih'
p575
F0.0090780941101434517
sS'present'
p576
F0.0013695515144456856
sS'case'
p577
F0.0080636861336016441
sS'look'
p578
F0.0017893527496360361
sS'developing'
p579
F0.003667896813960801
sS'solid'
p580
F0.00150456103018231
sS'consultant'
p581
F0.0035576627943962459
sS'winburgs'
p582
F0.0045390470550717259
sS'bachelors'
p583
F0.0054454176320254859
sS'cox'
p584
F0.0029642556747092284
sS'evaluates'
p585
F0.0022394041113217573
sS'guide'
p586
F0.0016526168549185457
sS'procedure'
p587
F0.0049064871201878009
sS'programmer.'
p588
F0.0077216419763922687
sS'study-specific'
p589
F0.0040015655963059173
sV(0, 2]
p590
F0.0011142760098288421
sS'support/problem'
p591
F0.0045390470550717259
sS'health-care'
p592
F0.0035217080690872833
sS'site'
p593
F0.0015933597107981817
sS'etc.'
p594
F0.001295107413553852
sS'ii'
p595
F0.0026876842299817898
sS'sas'
p596
F0.010843341343854533
sS'statistical analysis'
p597
F0.0012596380398300429
sS'management.'
p598
F0.004435313804640904
sS'result'
p599
F0.00090870316704603918
sS'education'
p600
F0.0041069016630396653
sS'develop'
p601
F0.0022348699932528242
sS'prior'
p602
F0.0016227216317375888
sS'perform'
p603
F0.0068791904260485327
sS'pay'
p604
F0.0018871321981603613
sS'make'
p605
F0.00092538752260422612
sS'administration'
p606
F0.0018785490593358925
sS'submission'
p607
F0.015215674559818955
sS'surveillance'
p608
F0.0093749148900456481
sS'member'
p609
F0.0010248647186368303
sS'complex'
p610
F0.00080532700352831685
sS'incumbent'
p611
F0.0025199038637500489
sS'avoids'
p612
F0.0045390470550717259
sS'document'
p613
F0.005986808005787385
sS'higher'
p614
F0.0018001053650374996
sS'development'
p615
F0.0071093600924507939
sS'sops'
p616
F0.0067318178498257056
sS'temporary'
p617
F0.0029088112496204561
sS'assignment'
p618
F0.001898077320659
sS'reporting'
p619
F0.0013223107955572196
sS'qualifications'
p620
F0.0045179146561036597
sS'diploma'
p621
F0.0024819597507502382
sS'phd'
p622
F0.0036235677096710267
sS'driven'
p623
F0.0012204351379028347
sS'running'
p624
F0.004024503396508494
sS'advertisement'
p625
F0.0035217080690872833
sS'aggregate'
p626
F0.015215674559818955
sS'changing'
p627
F0.0016177039574327182
sS'opportunity'
p628
F0.00061892477135056087
sS'raritan'
p629
F0.0041999339987681327
sS'cycle'
p630
F0.0017736543771826043
sS'audit'
p631
F0.0021179380512034354
sS'gcps'
p632
F0.0045390470550717259
sS'supports'
p633
F0.0022959167167169421
sS'qualifications.'
p634
F0.0032841800121376358
sS'oc/rdc'
p635
F0.0045390470550717259
sS'well'
p636
F0.0018405243945724267
sS'analysis'
p637
F0.0030171903089894025
sS'deliverable'
p638
F0.0018019206712622915
sS'academic'
p639
F0.0016303459811428658
sS'directly'
p640
F0.0076707880299110593
sS'client'
p641
F0.0017925349308573809
sS'cci'
p642
F0.016006262385223669
sS'english'
p643
F0.0016526168549185457
sS'coordinate'
p644
F0.0036002107300749991
sS'entry'
p645
F0.0052902304921655626
sS'model'
p646
F0.0022711509421256956
sS'people skills'
p647
F0.0033659089249128528
sS'latest'
p648
F0.0013554779849676106
sS'techd'
p649
F0.0045390470550717259
sS'abilities'
p650
F0.0022050579709705399
sS'biostatistics'
p651
F0.013477730723621536
sS'-'
F0.0029193070908259452
sS'accurate'
p652
F0.0018037427385900371
sS'competitive'
p653
F0.0012425335042242681
sS'supervisor.'
p654
F0.0045390470550717259
sS'assigned'
p655
F0.0097062237445963099
sS'human'
p656
F0.0031749166768896089
sS'skill'
p657
F0.0092065431088780725
sS'summaries'
p658
F0.0080031311926118346
sS'data quality'
p659
F0.0017293728293474673
sS'previous'
p660
F0.0018476403022314799
sS'discipline'
p661
F0.0012339155857464543
sS'candidate'
p662
F0.0066989855876957386
sS'also'
p663
F0.0020745563777624975
sS'recommending'
p664
F0.004907180867693141
sS'improvement'
p665
F0.0013141910451756886
sS'source'
p666
F0.0020204572068018593
sS'department.'
p667
F0.0061468509618823634
sS'adoption'
p668
F0.0021076380860491697
sVComputer Science
p669
F0.00044293333970264076
sS'harmonize'
p670
F0.0036624526314654984
sS'input'
p671
F0.0038987532913908728
sS'extensive'
p672
F0.0031223859965911266
sS'has'
p673
F0.0047904040415094233
sS'advanced'
p674
F0.0034719001641525466
sS'real'
p675
F0.0014201771701697473
sS'liaise'
p676
F0.003005048933999169
sS'vendor'
p677
F0.0092988524352606468
sS'plsql'
p678
F0.0036624526314654984
sS'format'
p679
F0.0018496412277589974
sS'opencdisc'
p680
F0.0045390470550717259
sS'required.'
p681
F0.0036952806044629597
sS'early'
p682
F0.011530021695751048
sS'using'
p683
F0.0014667190053408395
sS'inter-departmental'
p684
F0.0083998679975362655
sS'pharmacovigilance'
p685
F0.010237614376982689
sS'necessary'
p686
F0.0032156408311649755
sS'adams'
p687
F0.0041999339987681327
sS'standardization'
p688
F0.0025785146981376649
sS'telecommute'
p689
F0.0030267963259246163
sS'poise.'
p690
F0.0045390470550717259
sS'edit'
p691
F0.002926603593405045
sS'5.'
p692
F0.0053533794556807702
sS'output'
p693
F0.0019138239117457378
sS'outsourced'
p694
F0.0040015655963059173
sS'terminology'
p695
F0.011037631075194339
sS'verbal'
p696
F0.0075506341254306482
sS'staff'
p697
F0.0014520279936506531
sS'some'
p698
F0.0056356471780076777
sS'stat'
p699
F0.0098525400364129073
sS'library'
p700
F0.0018476403022314799
sS'consultants'
p701
F0.0060991111666825644
sS'offer'
p702
F0.0020475033771509155
sVMaster
p703
F0.00035581246830928415
sS'communication skills'
p704
F0.0018019206712622915
sS'statistic'
p705
F0.0031198570333283342
sS'employment'
p706
F0.00092206500897408842
sS'specific'
p707
F0.0013569404859016733
sS'and/or'
p708
F0.0035601009029495234
sS'represent'
p709
F0.0043537280177569741
sS'lead'
p710
F0.0056522019506817294
sS'collect'
p711
F0.0019138239117457378
sS'demonstrates'
p712
F0.0018722091061938546
sS'decision'
p713
F0.0011080724771264879
sS'sr.'
p714
F0.0061867394663467053
sS'legal'
p715
F0.0021008899768593273
sS'programmers'
p716
F0.007503301998076385
sS'critical'
p717
F0.0013340495022985982
sS'provides'
p718
F0.0048531417310798469
sS'provider'
p719
F0.0014110945351649019
sS'judgment'
p720
F0.0044018588233779837
sS'demonstrated'
p721
F0.0033334932266961123
sS'be'
p722
F0.0014908894931001089
sS'biology'
p723
F0.0016620902956602237
sS'data analysis'
p724
F0.0007259109662258635
sS'scientific'
p725
F0.0095037083210895677
sS'business'
p726
F0.00057511465917127382
sS'schedule'
p727
F0.0015206683145060635
sS'marketing'
p728
F0.00093210103839410404
sS'statistician'
p729
F0.0021042523965333084
sS'processing'
p730
F0.00079896677430074366
sS'communicate'
p731
F0.00098152782890488835
sS'graduates'
p732
F0.0037516509990381925
sS'epidemiology'
p733
F0.0022349766445676151
sS'leadership'
p734
F0.003233676362434094
sS'john.zhang'
p735
F0.0045390470550717259
sS'bs'
p736
F0.0017469324647978045
sVBiological Engineering
p737
F0.0012867885423075785
sS'i.e.'
p738
F0.0038050497340325444
sS'reports.'
p739
F0.0031529355832269016
sS'rdbms'
p740
F0.0021887487506329069
sS'conducting'
p741
F0.0019593105460212518
sS'package'
p742
F0.002620362318932536
sS'industry'
p743
F0.001600746054807451
sS'location'
p744
F0.0010610881924186233
sS'ensure'
p745
F0.003415501324199776
sS'or'
p746
F0.0076644615096813388
sS'software'
p747
F0.0031477828578909618
sS'consulting'
p748
F0.0011054377175200932
sS'librarians'
p749
F0.0045390470550717259
sS'within'
p750
F0.0035680110571470469
sS'commitment'
p751
F0.0016902141809196042
sVStatistics
p752
F0.00088136241188262231
sS'references'
p753
F0.0036624526314654984
sS'problem solving'
p754
F0.0012008864309947412
sS'strategy'
p755
F0.0015411070755644175
sS'pharmaceutical'
p756
F0.0096811856182216112
sS'statistics'
p757
F0.00091243919256614925
sS'networking'
p758
F0.0017770996294720091
sS'additional'
p759
F0.0012848887284032742
sS'risk management'
p760
F0.0015458695332623465
sS'completing'
p761
F0.0022529321205718095
sS'recruiter'
p762
F0.0066151739129116198
sS'placing'
p763
F0.0031249716300152165
sS'legislation'
p764
F0.0045390470550717259
sS'deadlines'
p765
F0.002785859351146966
sS'accountability'
p766
F0.0021320175965328079
sS'compliant'
p767
F0.0025785146981376649
sS'clinical'
p768
F0.032905236204420603
sS'author'
p769
F0.0025610401895015465
sS'strong'
p770
F0.0020216649692775062
sS'series'
p771
F0.0019824279841752549
sS'analyze'
p772
F0.0010781828078606005
sS'quality/compliance'
p773
F0.0045390470550717259
sS'function'
p774
F0.0013284902993161154
sS'tight'
p775
F0.0047543828157769336
sS'toward'
p776
F0.0020150553094260152
sS'maintenance'
p777
F0.0017109094211717349
sS'form'
p778
F0.0016801858701361817
sS'sds'
p779
F0.0037516509990381925
sS'applicable'
p780
F0.0014908894931001089
sS'expected'
p781
F0.0034128008631974733
sVBachelor
p782
F0.0004458800526760796
sS'junior'
p783
F0.0017964948364897859
sS'databases.'
p784
F0.0026451152460827813
sS'fda'
p785
F0.0028590155481114216
sS'life sciences'
p786
F0.0020716249798221442
sS'datasets'
p787
F0.0041637830046379254
sS'proactively'
p788
F0.0035370631384664245
sS'inside'
p789
F0.0022715717841404379
sS'official'
p790
F0.0033233398038197445
sS'implementers'
p791
F0.0073249052629309969
sS'dmp'
p792
F0.006495847422828673
sS'record'
p793
F0.0013202681874343891
sS'arranges'
p794
F0.0090780941101434517
sV(10, 15]
p795
F0.00095764498835536143
sS'problem'
p796
F0.00087804983194587102
sS'similar'
p797
F0.0042308314273714698
sS'microsoft word'
p798
F0.0015690385680649382
sS'detailed'
p799
F0.0035269236995066522
sS'required'
p800
F0.0095595836153965011
sS'ad'
p801
F0.0016593648269200587
sS'defined'
p802
F0.0021144805787235367
sS'contribute'
p803
F0.0029973099073236924
sS'proven'
p804
F0.0025634773541276224
sS'general'
p805
F0.0015125483812186852
sS'coordinator'
p806
F0.0031825953329045749
sS'as'
p807
F0.0010073532119743217
sS'associates'
p808
F0.0025610401895015465
sS'expertise'
p809
F0.0018471448899943623
sS'at'
p810
F0.0010127585124798224
sS'file'
p811
F0.0038938487431033277
sS'studies.'
p812
F0.006495847422828673
sS'organizational'
p813
F0.0030683152119644237
sVMathematics
p814
F0.0008386851905980684
sS'format.'
p815
F0.0045390470550717259
sS'check'
p816
F0.010005976059711149
sS'stages.'
p817
F0.0045390470550717259
sS'organizing'
p818
F0.005122080379003093
sS'overseeing'
p819
F0.0080300691835211557
sS'excel'
p820
F0.0015821469929609251
sS'detail'
p821
F0.0043191935729032533
sS'graduate'
p822
F0.0018743133079678301
sS'4.'
p823
F0.0078178667747841272
sS'geographically'
p824
F0.002785859351146966
sS'other'
p825
F0.0016773579953951278
sS'5'
F0.0038172253070991292
sS'computer science'
p826
F0.0006878587393283858
sS'department'
p827
F0.0029741050100972966
sS'mathematics'
p828
F0.0035770905715769193
sS'researching'
p829
F0.0023321727430533363
sS'proposal'
p830
F0.002192775367884453
sS'pharmaceutical/cro'
p831
F0.013617141165215178
sS'contacting'
p832
F0.0035870364933285612
sS'particular'
p833
F0.0083506669553992888
sS'newsgroups'
p834
F0.0045390470550717259
sS'phoenix'
p835
F0.0030495555833412822
sS'stay'
p836
F0.0019070132179600191
sS'develops'
p837
F0.0014986549536618462
sS'sql'
p838
F0.00033363202486939679
sS'sdtms'
p839
F0.0045390470550717259
sS'structure'
p840
F0.0028453676051036518
sS'matrix'
p841
F0.0023655424540017958
sS'independently'
p842
F0.0042162037868218784
sS'remote'
p843
F0.0080715003203710861
sS'functions.'
p844
F0.0027104434416671186
sS'liaising'
p845
F0.0040015655963059173
sS'controlled'
p846
F0.009295560005806381
sS'oral'
p847
F0.0030831562757349571
sS'contacts'
p848
F0.0033233398038197445
sS'reports'
p849
F0.0043459314657267809
sS'depth'
p850
F0.0021042523965333084
sS'adam'
p851
F0.015443283952784537
sS'oracle'
p852
F0.0038527712796888281
sS'fresh'
p853
F0.0026659368837876666
sS'validation'
p854
F0.0061877931606166272
sS'resolution'
p855
F0.0019957592831372473
s.