(dp1
S''
F0.059594000000000001
sS'limited'
p2
F0.0029420000000000002
sS'externally'
p3
F0.0026610000000000002
sS'sdtm implementation'
p4
F0.011018
sS'global'
p5
F0.0044679999999999997
sS'desirable'
p6
F0.002395
sS'focus'
p7
F0.0012800000000000001
sS'development pharmacology biostatistics'
p8
F0.005509
sS'four'
p9
F0.0028340000000000001
sS'manager'
p10
F0.0025720000000000001
sS'0-2 year experience'
p11
F0.005509
sS'deadline'
p12
F0.0022279999999999999
sS'proprietary data'
p13
F0.0039550000000000002
sS'follow'
p14
F0.0024620000000000002
sS'ensure compliance'
p15
F0.003673
sS'principal relationships'
p16
F0.005509
sS'looking'
p17
F0.0035149999999999999
sS'technical leadership'
p18
F0.0025999999999999999
sS'required qualifications'
p19
F0.002078
sS'graph'
p20
F0.0053709999999999999
sS'send'
p21
F0.0028549999999999999
sS'environment'
p22
F0.003751
sS'program'
p23
F0.0040569999999999998
sS'edit check'
p24
F0.004797
sS'health'
p25
F0.0062389999999999998
sS'include'
p26
F0.0060540000000000004
sS'written communication'
p27
F0.0025240000000000002
sS'positive attitude'
p28
F0.0032230000000000002
sS'validates data'
p29
F0.005509
sS'updated'
p30
F0.0044660000000000004
sS'statistics computer science mathematics'
p31
F0.0040169999999999997
sS'role'
p32
F0.001348
sS'definexml'
p33
F0.005509
sS'bringing'
p34
F0.002212
sS'programming skill'
p35
F0.0039630000000000004
sS'minute'
p36
F0.0037980000000000002
sS'timely'
p37
F0.0065180000000000004
sS'- medidata rave remote'
p38
F0.005509
sS'oral communication skill'
p39
F0.0025110000000000002
sS'internally'
p40
F0.0025850000000000001
sS'level'
p41
F0.0047819999999999998
sS'skills'
p42
F0.0084539999999999997
sS'supports'
p43
F0.002614
sS'8 year'
p44
F0.008737
sS'statistical programmer'
p45
F0.013043000000000001
sS'preferred qualifications'
p46
F0.0013940000000000001
sS'masters degree'
p47
F0.0029889999999999999
sS'guiding'
p48
F0.0032230000000000002
sS'team'
p49
F0.002477
sS'biological'
p50
F0.0034229999999999998
sS'setup'
p51
F0.0033969999999999998
sS'fih phase'
p52
F0.005509
sS'cdisc sdtm standard'
p53
F0.011018
sS'consistent'
p54
F0.0044070000000000003
sS'pharmaceutical cro programming'
p55
F0.005509
sS'global librarian activity'
p56
F0.005509
sS'professionalism'
p57
F0.003712
sS'accessing'
p58
F0.0031510000000000002
sS'process improvement'
p59
F0.0022790000000000002
sS'techd'
p60
F0.005509
sS'staffing firm'
p61
F0.0040169999999999997
sS'experience developing'
p62
F0.002147
sS'established'
p63
F0.0019650000000000002
sS'clinical data'
p64
F0.0032049999999999999
sS'statistic biostatistics'
p65
F0.0046100000000000004
sS'study-specific procedure'
p66
F0.005509
sS'specification'
p67
F0.009188
sS'submission data standards sds team'
p68
F0.005509
sS'2 year experience'
p69
F0.003712
sS'access'
p70
F0.0013569999999999999
sS'version'
p71
F0.005921
sS'data collected'
p72
F0.0034229999999999998
sS'new'
p73
F0.003052
sS'contributes'
p74
F0.0029480000000000001
sS'statistician'
p75
F0.0025999999999999999
sS'basic qualifications'
p76
F0.0014630000000000001
sS'supporting'
p77
F0.001516
sS'extensive experience implementing sdtms'
p78
F0.005509
sS'degree'
p79
F0.002934
sS'primarily responsible'
p80
F0.003712
sS'understanding'
p81
F0.0024989999999999999
sS'using newsgroups'
p82
F0.005509
sS'biostatistician'
p83
F0.0046100000000000004
sS'active'
p84
F0.002457
sS'0-2 year'
p85
F0.0046100000000000004
sS'data quality'
p86
F0.0020019999999999999
sS'interpret'
p87
F0.001936
sS'software development'
p88
F0.0015740000000000001
sS'search'
p89
F0.0036459999999999999
sS'technical'
p90
F0.003081
sS'study'
p91
F0.026679000000000001
sS'compliance'
p92
F0.001923
sS'experience'
p93
F0.0013320000000000001
sS'prior'
p94
F0.0022920000000000002
sS'bachelors degree'
p95
F0.0058840000000000003
sS'high quality'
p96
F0.0021510000000000001
sS'published'
p97
F0.003754
sS'action'
p98
F0.001779
sS'raritan'
p99
F0.005509
sS'work well'
p100
F0.002493
sS'changing priority'
p101
F0.0036359999999999999
sS'confidentiality'
p102
F0.003712
sS'manage'
p103
F0.0010889999999999999
sS'prussia pa'
p104
F0.0050600000000000003
sS'analyzing'
p105
F0.003578
sS'aptitude'
p106
F0.00248
sS'lodging'
p107
F0.005509
sS'leading provider'
p108
F0.0029870000000000001
sS'establish'
p109
F0.0036640000000000002
sS'comprehensive listing'
p110
F0.004248
sS'use'
p111
F0.001402
sS'working'
p112
F0.0021090000000000002
sS'particular focus'
p113
F0.0039550000000000002
sS'comparing'
p114
F0.0050600000000000003
sS'tight timeline'
p115
F0.0046100000000000004
sS'taken'
p116
F0.0037980000000000002
sS'scope'
p117
F0.001812
sS'exhaustive'
p118
F0.003673
sS'theoretical'
p119
F0.0029610000000000001
sS'associates degree'
p120
F0.0043480000000000003
sS'summarizing'
p121
F0.0041609999999999998
sS'fda guideline'
p122
F0.005509
sS'biostatistical programming'
p123
F0.011018
sS'clinical data management pkdm'
p124
F0.005509
sS'phone'
p125
F0.0028769999999999998
sS'carrying'
p126
F0.003601
sS'converting data'
p127
F0.0050600000000000003
sS'excellent'
p128
F0.0053470000000000002
sS'iii'
p129
F0.003673
sS'project management'
p130
F0.0045760000000000002
sS'good judgment'
p131
F0.0040169999999999997
sS'science'
p132
F0.0043530000000000001
sS'challenge'
p133
F0.0012210000000000001
sS'work'
p134
F0.00090300000000000005
sS'discussing job'
p135
F0.005509
sS'draft report'
p136
F0.010119
sS'biomedical data stewardship bmds leadership'
p137
F0.005509
sS'ms'
p138
F0.0029910000000000002
sS'learn'
p139
F0.0037030000000000001
sS'following'
p140
F0.0011770000000000001
sS'example'
p141
F0.0020279999999999999
sS'statistical analysis'
p142
F0.0038349999999999999
sS'5 year experience'
p143
F0.003186
sS'challenging'
p144
F0.001802
sS'figure'
p145
F0.0033730000000000001
sS'process'
p146
F0.0032799999999999999
sS'controlled terminology'
p147
F0.004797
sS'high'
p148
F0.0049119999999999997
sS'minimum'
p149
F0.0084749999999999999
sS'documenting'
p150
F0.002702
sS'pv experience'
p151
F0.005509
sS'preferably'
p152
F0.001918
sS'educational'
p153
F0.0027190000000000001
sS'monitoring'
p154
F0.0036419999999999998
sS'goal'
p155
F0.0011609999999999999
sS'maintaining sops swps'
p156
F0.005509
sS'provide'
p157
F0.001977
sS'discussion'
p158
F0.0023640000000000002
sS'arranges management'
p159
F0.005509
sS'bayesian modeling'
p160
F0.0040169999999999997
sS'located'
p161
F0.0017949999999999999
sS'responsibilities'
p162
F0.0016100000000000001
sS'inter-departmental meeting'
p163
F0.011018
sS'interview'
p164
F0.0025110000000000002
sS'product'
p165
F0.0053829999999999998
sS'plans'
p166
F0.0037980000000000002
sS'escalate'
p167
F0.003712
sS'advice'
p168
F0.0028890000000000001
sS'mapping'
p169
F0.0028999999999999998
sS'work efficiently'
p170
F0.0034229999999999998
sS'familiarity'
p171
F0.0012179999999999999
sS'maintain pk pd data repository pks'
p172
F0.005509
sS'interpersonal communication skill'
p173
F0.0032629999999999998
sS'law'
p174
F0.001513
sS'data'
p175
F0.002846
sS'response'
p176
F0.0022200000000000002
sS'represent biostatistical programming'
p177
F0.005509
sS'collaborate'
p178
F0.0011039999999999999
sS'natural'
p179
F0.0029870000000000001
sS'work closely'
p180
F0.0013140000000000001
sS'telecommuting'
p181
F0.012482999999999999
sS'sr'
p182
F0.0081320000000000003
sS'applicant'
p183
F0.0098239999999999994
sS'maintain'
p184
F0.0023999999999999998
sS'responsibility'
p185
F0.003849
sS'agenda'
p186
F0.003186
sS'5 year'
p187
F0.0056360000000000004
sS'order'
p188
F0.001428
sS'excellent verbal'
p189
F0.0022920000000000002
sS'survival analysis'
p190
F0.0039550000000000002
sS'serving'
p191
F0.0024510000000000001
sS'feedback'
p192
F0.0022399999999999998
sS'experience working'
p193
F0.0072589999999999998
sS'developed'
p194
F0.0022659999999999998
sS'mission'
p195
F0.0011659999999999999
sS'course'
p196
F0.0020339999999999998
sS'quality control'
p197
F0.0029729999999999999
sS'statistical'
p198
F0.0069350000000000002
sS'early development'
p199
F0.021738
sS'efficacy ise electronic'
p200
F0.005509
sS'attain maintain'
p201
F0.005509
sS'implementation cci'
p202
F0.005509
sS'cold call'
p203
F0.011018
sS'1'
F0.010515
sS'group'
p204
F0.0046020000000000002
sS'monitor'
p205
F0.001866
sS'solid knowledge'
p206
F0.0031510000000000002
sS'personal'
p207
F0.001781
sS'cdisc consultancy'
p208
F0.011018
sS'writing'
p209
F0.0031670000000000001
sS'coaching'
p210
F0.0023900000000000002
sS'permanent'
p211
F0.003349
sS'experience using sas-base macro'
p212
F0.005509
sS'pharmacovigilance plan rmp product recall'
p213
F0.005509
sS'schedule arranges travel'
p214
F0.005509
sS'listing'
p215
F0.0061729999999999997
sS'policy'
p216
F0.0016980000000000001
sS'johnzhang techdataservicecom'
p217
F0.005509
sS'designs'
p218
F0.002794
sS'placing job advertisement contacting recruiter'
p219
F0.005509
sS'practice'
p220
F0.0025790000000000001
sS'commitment'
p221
F0.001843
sS'data base'
p222
F0.003349
sS'milestone'
p223
F0.0030860000000000002
sS'operating procedures'
p224
F0.005509
sS'provide smt support'
p225
F0.005509
sS'maintaining'
p226
F0.0072319999999999997
sS'masters'
p227
F0.0018140000000000001
sS'workload'
p228
F0.0030709999999999999
sS'verifying'
p229
F0.0033730000000000001
sS'always'
p230
F0.0024680000000000001
sS'discipline'
p231
F0.001591
sS'2+ year'
p232
F0.00189
sS'significantly'
p233
F0.0046100000000000004
sS'house'
p234
F0.004248
sS'eg'
p235
F0.006424
sS'timetable regarding'
p236
F0.005509
sS'related'
p237
F0.0054070000000000003
sS'solution'
p238
F0.00046099999999999998
sS'programmer'
p239
F0.040930000000000001
sS'similar field'
p240
F0.0029480000000000001
sS'accomplish'
p241
F0.0028999999999999998
sS'network'
p242
F0.001358
sS'labeling support'
p243
F0.005509
sS'2+ year experience'
p244
F0.003506
sS'content'
p245
F0.00156
sS'windows operating system'
p246
F0.0040169999999999997
sS'adjust'
p247
F0.0033730000000000001
sS'safety'
p248
F0.024393000000000001
sS'adapt'
p249
F0.0022200000000000002
sS'evaluation'
p250
F0.001846
sS'creating'
p251
F0.0026280000000000001
sS'reporting'
p252
F0.0013339999999999999
sS'resume'
p253
F0.0056340000000000001
sS'detailed well-written sdtm'
p254
F0.005509
sS'data scientist'
p255
F0.00085599999999999999
sS'10 year'
p256
F0.0042170000000000003
sS'standard'
p257
F0.015455999999999999
sS'attending'
p258
F0.0040169999999999997
sS'base'
p259
F0.0052139999999999999
sS'regulatory'
p260
F0.005306
sS'rmp activity'
p261
F0.005509
sS'onsite'
p262
F0.003349
sS'training'
p263
F0.003869
sS'phoenix winnonlin'
p264
F0.005509
sS'written communication skill'
p265
F0.0033739999999999998
sS'ata'
p266
F0.004248
sS'determining'
p267
F0.0031020000000000002
sS'area'
p268
F0.00088000000000000003
sS'programming'
p269
F0.02155
sS'following area'
p270
F0.0022790000000000002
sS'pharmaceutic area'
p271
F0.005509
sS'produce'
p272
F0.0019620000000000002
sS'qualification'
p273
F0.0097310000000000001
sS'recruiter'
p274
F0.0049249999999999997
sS'first'
p275
F0.0015380000000000001
sS'organize'
p276
F0.002395
sS'science pharmd md'
p277
F0.005509
sS'7+ year'
p278
F0.002637
sS'form crf data management'
p279
F0.005509
sS'stressful environment'
p280
F0.005509
sS'candidates must'
p281
F0.0028029999999999999
sS'manage multiple'
p282
F0.0034229999999999998
sS'integrated summaries'
p283
F0.005509
sS'problem solving skill'
p284
F0.0017619999999999999
sS'quality'
p285
F0.0021679999999999998
sS'resolve issue'
p286
F0.0032429999999999998
sS'management'
p287
F0.0043969999999999999
sS'publication'
p288
F0.0047590000000000002
sS'phase 1b study'
p289
F0.005509
sS'leading'
p290
F0.00092900000000000003
sS'interact'
p291
F0.001756
sS'general supervision'
p292
F0.003898
sS'recruiting'
p293
F0.0047489999999999997
sS'system'
p294
F0.0023830000000000001
sS'high school diploma ged'
p295
F0.004248
sS'priority'
p296
F0.0018710000000000001
sS'needed'
p297
F0.0040639999999999999
sS'2'
F0.016310000000000002
sS'extensive experience'
p298
F0.0022750000000000001
sS'responsibilities include'
p299
F0.0023900000000000002
sS'location king'
p300
F0.005509
sS'clinical trial data'
p301
F0.010119
sS'option'
p302
F0.0024450000000000001
sS'gcps'
p303
F0.005509
sS'tool'
p304
F0.00046799999999999999
sS'serve'
p305
F0.0015820000000000001
sS'r winburgs'
p306
F0.005509
sS'part'
p307
F0.00088599999999999996
sS'consult'
p308
F0.002813
sS'team member'
p309
F0.0012949999999999999
sS'sr biostatistician'
p310
F0.0050600000000000003
sS'updating'
p311
F0.003846
sS'involve close collaboration'
p312
F0.004797
sS'techdata'
p313
F0.016525999999999999
sS'standard annotation'
p314
F0.005509
sS'determines'
p315
F0.0064850000000000003
sS'bmds team'
p316
F0.005509
sS'tight deadline'
p317
F0.0030560000000000001
sS'japan providing'
p318
F0.005509
sS'require'
p319
F0.0034099999999999998
sS'accomplishes human'
p320
F0.005509
sS'compensation'
p321
F0.0025639999999999999
sS'r'
F0.00097400000000000004
sS'rave certification'
p322
F0.005509
sS'providing'
p323
F0.0044889999999999999
sS'expert knowledge'
p324
F0.0024510000000000001
sS'acquisition'
p325
F0.002385
sS'data standards librarians'
p326
F0.005509
sS'addressing'
p327
F0.0030270000000000002
sS'documentation'
p328
F0.0030430000000000001
sS'bmds cci meeting'
p329
F0.005509
sS'working alongside'
p330
F0.003186
sS'also harmonize analysis'
p331
F0.005509
sS'responsibilities weighting may'
p332
F0.005509
sS'sas'
p333
F0.021416999999999999
sS'sas mcmc'
p334
F0.005509
sS'sap'
p335
F0.0061419999999999999
sS'pk pd software'
p336
F0.005509
sS'clearly'
p337
F0.0021080000000000001
sS'issue'
p338
F0.0045830000000000003
sS'form'
p339
F0.002088
sS'macro sas stat'
p340
F0.005509
sS'responsible'
p341
F0.003192
sS'upgrading'
p342
F0.005509
sS'cdisc'
p343
F0.025298000000000001
sS'table figures listings tfl shell'
p344
F0.005509
sS'regulatory submission'
p345
F0.0089309999999999997
sS'also'
p346
F0.0010740000000000001
sS'internal'
p347
F0.001039
sS'timely manner'
p348
F0.0025929999999999998
sS'objective'
p349
F0.001516
sS'data sharing collation'
p350
F0.005509
sS'clinical trial'
p351
F0.010607
sS'worldwide'
p352
F0.002075
sS'main duty'
p353
F0.0043480000000000003
sS'multiple'
p354
F0.002503
sS'permanent position'
p355
F0.0075069999999999998
sS'current legislation enforcing regulation'
p356
F0.005509
sS'new idea'
p357
F0.0025110000000000002
sS'communication skill'
p358
F0.0018619999999999999
sS'involving'
p359
F0.0028240000000000001
sS'experiences'
p360
F0.0034229999999999998
sS'plan'
p361
F0.0073949999999999997
sS'significant'
p362
F0.0019
sS'position'
p363
F0.0025479999999999999
sS'phase'
p364
F0.011950000000000001
sS'stats'
p365
F0.0040850000000000001
sS'oncology experience'
p366
F0.004797
sS'pharmacoepidemiology basic knowledge'
p367
F0.005509
sS'adam principle'
p368
F0.005509
sS'demonstrating'
p369
F0.0028890000000000001
sS'entry biostatistician phd'
p370
F0.005509
sS'microsoft word'
p371
F0.0046100000000000004
sS'request'
p372
F0.0032520000000000001
sS'innovative solution'
p373
F0.0024450000000000001
sS'support physicians'
p374
F0.005509
sS'principle'
p375
F0.0017769999999999999
sS'eg cros'
p376
F0.005509
sS'professional'
p377
F0.0022820000000000002
sS'senior'
p378
F0.001322
sS'cdisc implementers'
p379
F0.005509
sS'proven experience'
p380
F0.0025929999999999998
sS'ba bs'
p381
F0.0028999999999999998
sS'knowledge skills'
p382
F0.0029120000000000001
sS'related field'
p383
F0.0010790000000000001
sS'team player'
p384
F0.0039630000000000004
sS'text'
p385
F0.0025179999999999998
sS'industry techdata offer'
p386
F0.005509
sS'participate'
p387
F0.006025
sS'principal'
p388
F0.0023440000000000002
sS'completion'
p389
F0.0020590000000000001
sS'current'
p390
F0.0027409999999999999
sS'based'
p391
F0.00096000000000000002
sS'knowledge'
p392
F0.0029789999999999999
sS'implementation'
p393
F0.0022109999999999999
sS'guidance'
p394
F0.0038560000000000001
sS'working knowledge'
p395
F0.0049170000000000004
sS'written'
p396
F0.0046969999999999998
sS'adam programming'
p397
F0.005509
sS'support ta-related business'
p398
F0.005509
sS'experience representing'
p399
F0.004797
sS'pharmacovigilance scientist'
p400
F0.011018
sS'excellent written'
p401
F0.002019
sS'networking'
p402
F0.0026940000000000002
sS'enthusiasm'
p403
F0.0029359999999999998
sS'achieve'
p404
F0.0015349999999999999
sS'pharmaceutical biotech industry experience'
p405
F0.005509
sS'familiar'
p406
F0.002088
sS'conduct'
p407
F0.0016850000000000001
sS'overall'
p408
F0.003179
sS'preferred'
p409
F0.0055919999999999997
sS'computer science statistics mathematics'
p410
F0.0039550000000000002
sS'recruiters'
p411
F0.003846
sS'cdisc consultants'
p412
F0.011018
sS'closely'
p413
F0.0021770000000000001
sS'coordinating'
p414
F0.0050749999999999997
sS'report'
p415
F0.0099299999999999996
sS'work effectively'
p416
F0.0022699999999999999
sS'sdtm standard'
p417
F0.004797
sS'ms office'
p418
F0.002728
sS'evolution'
p419
F0.002784
sS'resolve'
p420
F0.0022000000000000001
sS'resource'
p421
F0.00139
sS'ad-hoc'
p422
F0.0029610000000000001
sS'related experience'
p423
F0.0019759999999999999
sS'data tabulation model'
p424
F0.005509
sS'experience reviewing'
p425
F0.0095940000000000001
sS'1 year'
p426
F0.0042030000000000001
sS'activity'
p427
F0.016115000000000001
sS'eg pvas assessment'
p428
F0.005509
sS'requirement'
p429
F0.0040940000000000004
sS'set'
p430
F0.0027659999999999998
sS'reference'
p431
F0.0067939999999999997
sS'intelligence'
p432
F0.0016609999999999999
sS'testing'
p433
F0.001238
sS'statistic'
p434
F0.0023730000000000001
sS'practice emphasizing benefit'
p435
F0.005509
sS'pay rate'
p436
F0.0046100000000000004
sS'see'
p437
F0.001727
sS'computer'
p438
F0.0016509999999999999
sS'action item'
p439
F0.003898
sS'result'
p440
F0.00083699999999999996
sS'multiple source'
p441
F0.0024510000000000001
sS'best'
p442
F0.001119
sS'ability'
p443
F0.0044169999999999999
sS'standardization harmonization liaising problem-solving'
p444
F0.005509
sS'preparation'
p445
F0.015344999999999999
sS'pv scientist'
p446
F0.011018
sS'expert'
p447
F0.0012310000000000001
sS'managing'
p448
F0.0029139999999999999
sS'review'
p449
F0.011538
sS'interviewing'
p450
F0.0096699999999999998
sS'please'
p451
F0.001946
sS'3'
F0.012552000000000001
sS'adhoc report'
p452
F0.0043480000000000003
sS'identification'
p453
F0.0022279999999999999
sS'databases- assist'
p454
F0.005509
sS'progress'
p455
F0.0046119999999999998
sS'approach'
p456
F0.001065
sS'thrive'
p457
F0.001709
sS'sciences'
p458
F0.0031180000000000001
sS'demonstrated experience'
p459
F0.0024120000000000001
sS'2 year'
p460
F0.0068050000000000003
sS'liaise'
p461
F0.0035360000000000001
sS'deliver'
p462
F0.001768
sS'least 6 year pf post-marketing safety'
p463
F0.005509
sS'attention'
p464
F0.0021329999999999999
sS'subject'
p465
F0.0018810000000000001
sS'agencies'
p466
F0.0040169999999999997
sS'safety iss integrated summaries'
p467
F0.005509
sS'efficiency'
p468
F0.001913
sS'job'
p469
F0.0046290000000000003
sS'mentoring'
p470
F0.001944
sS'2 positions'
p471
F0.005509
sS'key'
p472
F0.001039
sS'optional'
p473
F0.003506
sS'previous experience'
p474
F0.0026220000000000002
sS'tfl shell'
p475
F0.005509
sS'sdtm'
p476
F0.023983999999999998
sS'ms mph etc'
p477
F0.005509
sS'toward'
p478
F0.0027550000000000001
sS'met'
p479
F0.0024510000000000001
sS'drug'
p480
F0.0090410000000000004
sS'participating'
p481
F0.0054209999999999996
sS'etc'
p482
F0.00093300000000000002
sS'life cycle'
p483
F0.002369
sS'crf dmp'
p484
F0.005509
sS'proactive'
p485
F0.0052290000000000001
sS'contribution'
p486
F0.002091
sS'phase 1a'
p487
F0.005509
sS'duty'
p488
F0.001848
sS'among'
p489
F0.0024620000000000002
sS'exploratory analysis'
p490
F0.0030709999999999999
sS'bayesian analysis'
p491
F0.0041609999999999998
sS'effective'
p492
F0.001436
sS'check dat websdm opencdisc'
p493
F0.005509
sS'non-technical'
p494
F0.0022160000000000001
sS'improves organization attractiveness'
p495
F0.005509
sS'initiative'
p496
F0.0024529999999999999
sS'table'
p497
F0.0050480000000000004
sS'sdtm controlled terminology'
p498
F0.011018
sS'dmp'
p499
F0.0043480000000000003
sS'strong'
p500
F0.00065700000000000003
sS'willingness'
p501
F0.0020249999999999999
sS'create'
p502
F0.00087100000000000003
sS'three'
p503
F0.002578
sS'strategy'
p504
F0.0018289999999999999
sS'pc'
p505
F0.0068450000000000004
sS'health hazard evaluation'
p506
F0.005509
sS'change'
p507
F0.0023609999999999998
sS'maintenance'
p508
F0.0018569999999999999
sS'expected'
p509
F0.0036510000000000002
sS'proposal'
p510
F0.002578
sS'improve'
p511
F0.00097599999999999998
sS'meeting'
p512
F0.001915
sS'duties'
p513
F0.0020720000000000001
sS'biomedical'
p514
F0.0075069999999999998
sS'enable'
p515
F0.0014649999999999999
sS'diversity'
p516
F0.0014920000000000001
sS'capacity oc rdc experience'
p517
F0.005509
sS'various'
p518
F0.0011199999999999999
sS'related pv activity'
p519
F0.005509
sS'opportunity reading professional'
p520
F0.0044660000000000004
sS'commenting'
p521
F0.010119
sS'understand'
p522
F0.00092299999999999999
sS'external'
p523
F0.0015
sS'input'
p524
F0.0047080000000000004
sS'bayesian'
p525
F0.003186
sS'applicable sops'
p526
F0.0050600000000000003
sS'present'
p527
F0.0014840000000000001
sS'case'
p528
F0.011821
sS'surveillance activity'
p529
F0.011018
sS'look'
p530
F0.002065
sS'attracts applicant'
p531
F0.005509
sS'developing'
p532
F0.00263
sS'consultant'
p533
F0.002062
sS'phase i-iv clinical trial'
p534
F0.005509
sS'ongoing'
p535
F0.001841
sS'applies'
p536
F0.002101
sS'evaluates'
p537
F0.002728
sS'directly related experience'
p538
F0.018991999999999998
sS'guide'
p539
F0.00183
sS'procedure'
p540
F0.0031949999999999999
sS'site'
p541
F0.0059449999999999998
sS'matrix environment'
p542
F0.003754
sS'ii'
p543
F0.003506
sS'need'
p544
F0.002091
sS'leadership'
p545
F0.002212
sS'good'
p546
F0.0084539999999999997
sS'contract'
p547
F0.0043080000000000002
sS'ie'
p548
F0.0043839999999999999
sS'education'
p549
F0.0042370000000000003
sS'develop'
p550
F0.0015169999999999999
sS'trial'
p551
F0.003846
sS'perform'
p552
F0.0069220000000000002
sS'make'
p553
F0.00082100000000000001
sS'administration'
p554
F0.0023249999999999998
sS'surveillance'
p555
F0.004797
sS'member'
p556
F0.001261
sS'complex'
p557
F0.0010269999999999999
sS'incumbent'
p558
F0.0028999999999999998
sS'document'
p559
F0.0093229999999999997
sS'10+ year'
p560
F0.0046979999999999999
sS'development'
p561
F0.0030439999999999998
sS'conflicting'
p562
F0.0041609999999999998
sS'stage msb programming'
p563
F0.005509
sS'temporary'
p564
F0.0039550000000000002
sS'assignment'
p565
F0.0020400000000000001
sS'assist'
p566
F0.0070860000000000003
sS'qualifications'
p567
F0.002343
sS'phd'
p568
F0.0041619999999999999
sS'running'
p569
F0.0049249999999999997
sS'job function'
p570
F0.0031689999999999999
sS'aggregate'
p571
F0.020535999999999999
sS'judgment'
p572
F0.0028029999999999999
sS'implement'
p573
F0.003669
sS'audit'
p574
F0.002774
sS'prescribed'
p575
F0.0050600000000000003
sS'task'
p576
F0.0026919999999999999
sS'database'
p577
F0.0066940000000000003
sS'well'
p578
F0.00076599999999999997
sS'analysis'
p579
F0.0069030000000000003
sS'deliverable'
p580
F0.0019250000000000001
sS'academic'
p581
F0.001933
sS'client'
p582
F0.0024840000000000001
sS'cci'
p583
F0.0050600000000000003
sS'english'
p584
F0.0024620000000000002
sS'coordinate'
p585
F0.003947
sS'organization'
p586
F0.0036380000000000002
sS'model'
p587
F0.00064599999999999998
sS'latest'
p588
F0.0017700000000000001
sS'box plot forest plot kaplan-meier plot scatter plot cox ph model logistic regression'
p589
F0.005509
sS'communicate effectively'
p590
F0.0026069999999999999
sS'abilities'
p591
F0.0029120000000000001
sS'biologics clinical pharmacology department'
p592
F0.005509
sS'biostatistics'
p593
F0.016522999999999999
sS'-'
F0.001939
sS'accurate'
p594
F0.0021120000000000002
sS'particular cv trial'
p595
F0.005509
sS'competitive'
p596
F0.002019
sS'assigned'
p597
F0.011142000000000001
sS'data management pk scientist repsentatives'
p598
F0.005509
sS'verbal communication skill'
p599
F0.002062
sS'sdtm standard official training'
p600
F0.005509
sS'skill'
p601
F0.003588
sS'coordination'
p602
F0.0026689999999999999
sS'experience conformance assurance'
p603
F0.005509
sS'best practice'
p604
F0.001351
sS'least 5 year'
p605
F0.002784
sS'candidate'
p606
F0.010905
sS'field'
p607
F0.0012830000000000001
sS'medidata rave'
p608
F0.011018
sS'recommending'
p609
F0.0064850000000000003
sS'contractor'
p610
F0.0028449999999999999
sS'source'
p611
F0.0029290000000000002
sS'adoption'
p612
F0.0023540000000000002
sS'4'
F0.0066109999999999997
sS'eg r s-plus'
p613
F0.005509
sS'real'
p614
F0.0021540000000000001
sS'higher degree'
p615
F0.0036359999999999999
sS'vendor'
p616
F0.0040379999999999999
sS'plsql'
p617
F0.0044660000000000004
sS'format'
p618
F0.0042300000000000003
sS'12 year'
p619
F0.0060270000000000002
sS'ad hoc request'
p620
F0.003898
sS'sdtm ptogrammer'
p621
F0.005509
sS'advanced'
p622
F0.0030370000000000002
sS'collating report'
p623
F0.005509
sS'avoids legal'
p624
F0.005509
sS'msb programming'
p625
F0.005509
sS'necessary'
p626
F0.003565
sS'adams'
p627
F0.005509
sS'submission'
p628
F0.010347
sS'programming sdtms adams tfls'
p629
F0.005509
sS'position description'
p630
F0.0022659999999999998
sS'unix'
p631
F0.0025439999999999998
sS'external vendor'
p632
F0.010702
sS'telecommute'
p633
F0.0046100000000000004
sS'specific'
p634
F0.001408
sS'7 year'
p635
F0.0040559999999999997
sS'benefit'
p636
F0.0013519999999999999
sS'team meeting'
p637
F0.0040169999999999997
sS'output'
p638
F0.0021800000000000001
sS'crf development'
p639
F0.005509
sS'terminology'
p640
F0.003898
sS'organizational skill'
p641
F0.0024620000000000002
sS'verbal'
p642
F0.0062940000000000001
sS'people'
p643
F0.00083900000000000001
sS'staff'
p644
F0.001552
sS'1 year experience'
p645
F0.006953
sS'library'
p646
F0.0021619999999999999
sS'presentation'
p647
F0.00124
sS'data management'
p648
F0.0017600000000000001
sS'apply'
p649
F0.00091
sS'stay current'
p650
F0.0030000000000000001
sS'employment'
p651
F0.0015579999999999999
sS'cdisc standard'
p652
F0.005509
sS'represent'
p653
F0.0026849999999999999
sS'lead'
p654
F0.0047000000000000002
sS'collect'
p655
F0.0022699999999999999
sS'demonstrates'
p656
F0.0024390000000000002
sS'decision'
p657
F0.0011130000000000001
sS'in-depth knowledge'
p658
F0.0027460000000000002
sS'provides'
p659
F0.0042729999999999999
sS'1 1a 1b study'
p660
F0.005509
sS'demonstrated'
p661
F0.0026649999999999998
sS'programming language'
p662
F0.001408
sS'core'
p663
F0.0013489999999999999
sS'biology'
p664
F0.0032230000000000002
sS'data analysis'
p665
F0.0037620000000000002
sS'scientific'
p666
F0.010057999999999999
sS'department cci'
p667
F0.005509
sS'equivalent'
p668
F0.0029139999999999999
sS'epidemiology'
p669
F0.0035360000000000001
sS'provides first-line enduser'
p670
F0.005509
sS'strong attention'
p671
F0.003042
sS'pharmaceutical cro environment'
p672
F0.011018
sS'health-care discipline'
p673
F0.005509
sS'results driven'
p674
F0.0032230000000000002
sS'rdbms'
p675
F0.0028999999999999998
sS'conducting'
p676
F0.002457
sS'acceptable doesnt'
p677
F0.005509
sS'package'
p678
F0.00381
sS'industry'
p679
F0.001475
sS'ensure'
p680
F0.0021740000000000002
sS'conformance check'
p681
F0.005509
sS'software'
p682
F0.0019840000000000001
sS'consulting'
p683
F0.001619
sS'strong verbal written'
p684
F0.004248
sS'communication'
p685
F0.0013489999999999999
sS'within'
p686
F0.0031120000000000002
sS'data set'
p687
F0.0041700000000000001
sS'functional'
p688
F0.001676
sS'adam data set'
p689
F0.005509
sS'proven record'
p690
F0.0028890000000000001
sS'relational database'
p691
F0.0016260000000000001
sS'primarily'
p692
F0.0024989999999999999
sS'adam standard'
p693
F0.005509
sS'7+ year experience'
p694
F0.0046100000000000004
sS'pharmaceutical'
p695
F0.014331
sS'implementers statistical programmers'
p696
F0.005509
sS'excellent communication skill'
p697
F0.0021359999999999999
sS'additional'
p698
F0.0017600000000000001
sS'risk management'
p699
F0.0021120000000000002
sS'completing'
p700
F0.0028769999999999998
sS'support'
p701
F0.0075420000000000001
sS'updates job'
p702
F0.0044660000000000004
sS'doctorate degree'
p703
F0.003601
sS'accountability'
p704
F0.0024510000000000001
sS'compliant'
p705
F0.003754
sS'clinical'
p706
F0.022579999999999999
sS'author'
p707
F0.0032429999999999998
sS'series'
p708
F0.0031180000000000001
sS'analyze'
p709
F0.0011479999999999999
sS'function'
p710
F0.0013649999999999999
sS'project'
p711
F0.002624
sS'contacts inside'
p712
F0.005509
sS'studying job description'
p713
F0.005509
sS'offer'
p714
F0.0010430000000000001
sS'poise ability'
p715
F0.005509
sS'advanced degree preferred'
p716
F0.003042
sS'common data processing'
p717
F0.004797
sS'thorough understanding'
p718
F0.002784
sS'ha'
p719
F0.002408
sS'junior'
p720
F0.0025370000000000002
sS'life sciences'
p721
F0.003673
sS'datasets'
p722
F0.0058380000000000003
sS'proactively'
p723
F0.0046499999999999996
sS'msb'
p724
F0.005509
sS'bmds consultant'
p725
F0.005509
sS'critical'
p726
F0.0014109999999999999
sS'problem'
p727
F0.00089700000000000001
sS'define'
p728
F0.001312
sS'similar'
p729
F0.0029369999999999999
sS'medical'
p730
F0.0062639999999999996
sS'software upgrade'
p731
F0.004248
sS'detailed'
p732
F0.0023110000000000001
sS'required'
p733
F0.0081630000000000001
sS'supervisor'
p734
F0.0032230000000000002
sS'defined'
p735
F0.0024989999999999999
sS'contribute'
p736
F0.0030339999999999998
sS'human fih phase'
p737
F0.005509
sS'6 year'
p738
F0.0070629999999999998
sS'coordinator'
p739
F0.004248
sS'problem solving'
p740
F0.00189
sS'excel powerpoint'
p741
F0.0033969999999999998
sS'expertise'
p742
F0.0017440000000000001
sS'file'
p743
F0.0051999999999999998
sS'organizational'
p744
F0.00199
sS'computer science mathematics'
p745
F0.0028240000000000001
sS'check'
p746
F0.0048669999999999998
sS'manage outsourced data collection'
p747
F0.005509
sS'bs degree'
p748
F0.0024620000000000002
sS'cdisc sdtm'
p749
F0.005509
sS'organizing'
p750
F0.0064469999999999996
sS'individual'
p751
F0.001031
sS'overseeing'
p752
F0.010347
sS'excel'
p753
F0.0017949999999999999
sS'detail'
p754
F0.0044710000000000001
sS'graduate'
p755
F0.002774
sS'application'
p756
F0.0035360000000000001
sS'5'
F0.0040499999999999998
sS'computer science'
p757
F0.0010089999999999999
sS'department'
p758
F0.0044749999999999998
sS'mathematics'
p759
F0.0019
sS'researching'
p760
F0.0028999999999999998
sS'standard crf annotation'
p761
F0.005509
sS'particular'
p762
F0.0025309999999999998
sS'stat'
p763
F0.004797
sS'may'
p764
F0.0012719999999999999
sS'equivalent experience'
p765
F0.0018209999999999999
sS'develops'
p766
F0.0015709999999999999
sS'sql'
p767
F0.00072099999999999996
sS'particular pmda'
p768
F0.005509
sS'team environment'
p769
F0.0062740000000000001
sS'structure'
p770
F0.00382
sS'independently'
p771
F0.005463
sS'remote'
p772
F0.010019999999999999
sS'company biologics clinical pharmacology'
p773
F0.005509
sS'resolution'
p774
F0.0023389999999999999
sS'geographically disbursed study'
p775
F0.005509
sS'macro sas stat sas'
p776
F0.005509
sS'reports'
p777
F0.0054559999999999999
sS'depth'
p778
F0.0027550000000000001
sS'entry biostatistician phd graduates'
p779
F0.005509
sS'time'
p780
F0.00098299999999999993
sS'oracle'
p781
F0.0062740000000000001
sS'fresh'
p782
F0.003846
sS'validation'
p783
F0.007456
sS'oral'
p784
F0.00263
sS'others'
p785
F0.0013159999999999999
s.