(dp1
S'strongly'
p2
F0.044738747910294759
sS'major'
p3
F0.037963683298808754
sVStatistics
p4
F0.02170487674563952
sS'financial'
p5
F0.030917452118977638
sS'projection'
p6
F0.076957132671700026
sVDoctor
p7
F0.013122671949114073
sS'model validation'
p8
F0.064648117535215974
sS'loan'
p9
F0.067336582795022984
sS'data mining'
p10
F0.025566016008218527
sS'edge'
p11
F0.035243811376156883
sS'challenger'
p12
F0.080877878853124446
sS'engineering'
p13
F0.014757286470766923
sVMaster
p14
F0.0087624178942671913
sS'quantitative/statistical'
p15
F0.090193411791752762
sS'year'
p16
F0.012796021538584357
sS'sas'
p17
F0.016689600682860444
sS'portfolio'
p18
F0.083462960699763764
sS'indirect'
p19
F0.068945389123325165
sS'econometrics'
p20
F0.036954922406508925
sS'champion'
p21
F0.054000395806696661
sS'statistics'
p22
F0.01123509463617596
sS'knowledge'
p23
F0.0167031017258111
sS'service'
p24
F0.019612527214611857
sS"master's"
p25
F0.033653470794929419
sS'industrial engineering'
p26
F0.055594974714748592
sS'solving'
p27
F0.035541296966565362
sS'35k'
p28
F0.11178086964538082
sS'forecast'
p29
F0.054718364998040288
sS'field'
p30
F0.020585318476987653
sS'statistical model'
p31
F0.043263425368902354
sS'pa'
p32
F0.068605982093306012
sVComputer Science
p33
F0.010907900558460214
sS'000-120'
p34
F0.11178086964538082
sS'apply'
p35
F0.024649771368328088
sS'//www.allinanalytics.com/application'
p36
F0.080877878853124446
sS'exercise'
p37
F0.061303174872568589
sS'lease'
p38
F0.16175575770624889
sS'segmentation'
p39
F0.034892184483494473
sS'testing'
p40
F0.024667204998795336
sS'http'
p41
F0.041100928029341587
sS'risk'
p42
F0.035349214928459563
sS'business problem'
p43
F0.034315067013622226
sS'bonus'
p44
F0.045951835446029286
sS'auto'
p45
F0.16817525812965903
sVData Science
p46
F0.012376975694036899
sS'qualifications'
p47
F0.018543408749148355
sS'here'
p48
F0.047415630979487824
sS'phd'
p49
F0.029745270676978228
sS'cutting'
p50
F0.037575432668597711
sS'gain'
p51
F0.041912653964363653
sS'sql'
p52
F0.0082161910702776755
sS'100'
p53
F0.03363509176072281
sS'credit risk'
p54
F0.054000395806696661
sS'valuation'
p55
F0.10645811424061402
sS'loss'
p56
F0.064175581074934762
sS'stress'
p57
F0.067954572041256725
sS'plus.'
p58
F0.067954572041256725
sVBusiness
p59
F0.013032702978001376
sS'scientistphiladelphia'
p60
F0.11178086964538082
sS'analytics'
p61
F0.010478764602211164
sV(5, 10]
p62
F0.014525834476829624
sS'degree.'
p63
F0.073491090363261652
sS'study'
p64
F0.040731231854542499
sS'developing'
p65
F0.022581870746192403
sS'statistic'
p66
F0.025610392675193237
sS'solution'
p67
F0.015986388820698569
sS'analysis'
p68
F0.0041279364066762643
sS'experience'
p69
F0.010200069206979856
sS'000'
p70
F0.034160609897124043
sS'plus'
p71
F0.026882797671422504
sS'5+'
p72
F0.039807701329947764
sS'recommended/preferred.'
p73
F0.11178086964538082
sS'quantitative'
p74
F0.026977531349391942
sS'model'
p75
F0.01864350411929688
sS'validation'
p76
F0.03809593138644695
sS'ccar/economic'
p77
F0.11178086964538082
sVIndustrial Engineering
p78
F0.048312916410772795
s.