(dp1
S'5+ year'
p2
F0.051305000000000003
sS'major'
p3
F0.051410999999999998
sS'projection'
p4
F0.13108300000000001
sS'stress testing'
p5
F0.156138
sS'35k bonus'
p6
F0.17000100000000001
sS'data mining'
p7
F0.037470000000000003
sS'100 000-120 000'
p8
F0.17000100000000001
sS"master's degree"
p9
F0.044734999999999997
sS'analytics'
p10
F0.018343999999999999
sS'loan portfolio valuation'
p11
F0.17000100000000001
sS'statistic'
p12
F0.036614000000000001
sS'sas'
p13
F0.044061000000000003
sS'apply'
p14
F0.028087999999999998
sS'indirect'
p15
F0.13416600000000001
sS'cutting edge'
p16
F0.058788
sS'auto lease knowledge'
p17
F0.17000100000000001
sS'phd strongly'
p18
F0.17000100000000001
sS'industrial engineering'
p19
F0.090976000000000001
sS'solving'
p20
F0.053601000000000003
sS'forecast'
p21
F0.080683000000000005
sS'field'
p22
F0.039591000000000001
sS'recommended'
p23
F0.112194
sS'portfolio valuation'
p24
F0.156138
sS'exercise'
p25
F0.095247999999999999
sS'segmentation analysis'
p26
F0.126056
sS'http wwwallinanalyticscom application'
p27
F0.126056
sS'risk'
p28
F0.045790999999999998
sS'business problem'
p29
F0.051251999999999999
sS'auto'
p30
F0.21458199999999999
sS'qualifications'
p31
F0.024105999999999999
sS'financial service'
p32
F0.066591999999999998
sS'preferred'
p33
F0.028761999999999999
sS'statistical model'
p34
F0.056398999999999998
sS'data scientistphiladelphia pa'
p35
F0.17000100000000001
sS'sql'
p36
F0.022241
sS'credit risk'
p37
F0.096224000000000004
sS'loss'
p38
F0.11584
sS'developing'
p39
F0.027054999999999999
sS'model validation ccar economic'
p40
F0.17000100000000001
sS'study'
p41
F0.054886999999999998
sS'solution'
p42
F0.014222
sS'5+ year experience'
p43
F0.094316999999999998
sS'plus'
p44
F0.061407000000000003
sS'statistics econometrics'
p45
F0.111112
sS'quantitative'
p46
F0.074257000000000004
sS'champion challenger model lease'
p47
F0.17000100000000001
sS'gain'
p48
F0.074085999999999999
s.