(dp1
S'incorporate'
p2
F0.010415000000000001
sS'related field'
p3
F0.0040509999999999999
sS'help'
p4
F0.002415
sS'mechanism satisfy analytics'
p5
F0.018995000000000001
sS'entity'
p6
F0.020975000000000001
sS'assigned'
p7
F0.0069719999999999999
sS'course'
p8
F0.0076369999999999997
sS'manages'
p9
F0.0078019999999999999
sS'including'
p10
F0.0020579999999999999
sS'mechanism'
p11
F0.012174000000000001
sS'participate'
p12
F0.011310000000000001
sS'skill'
p13
F0.002245
sS'rdbms data lake'
p14
F0.020681000000000001
sS'impact'
p15
F0.004267
sS'summarizes data'
p16
F0.018995000000000001
sS'data asset'
p17
F0.011419
sS'group'
p18
F0.0043189999999999999
sS'knowledge'
p19
F0.0089460000000000008
sS'implementation'
p20
F0.0083000000000000001
sS'representing'
p21
F0.013051999999999999
sS'escalates communicates'
p22
F0.018995000000000001
sS'small team'
p23
F0.0097879999999999998
sS'improvement'
p24
F0.0056499999999999996
sS'environment'
p25
F0.0028170000000000001
sS'platform'
p26
F0.0033440000000000002
sS'enhancement modification'
p27
F0.018995000000000001
sS'coaching'
p28
F0.0089730000000000001
sS'helps'
p29
F0.018995000000000001
sS'transformation'
p30
F0.0071900000000000002
sS'exploration'
p31
F0.010344000000000001
sS'build'
p32
F0.0023730000000000001
sS'may include'
p33
F0.0092669999999999992
sS'reuse'
p34
F0.015335
sS'data transformation'
p35
F0.010802000000000001
sS'analyzes data inaccuracy'
p36
F0.018995000000000001
sS'data dictionary'
p37
F0.015335
sS'overall'
p38
F0.0059680000000000002
sS'unit testing'
p39
F0.010887000000000001
sS'domain expertise'
p40
F0.010276
sS'congruent'
p41
F0.014847000000000001
sS'report'
p42
F0.0067780000000000002
sS'using'
p43
F0.0027009999999999998
sS'one'
p44
F0.00281
sS'well'
p45
F0.002875
sS'regarding'
p46
F0.0084740000000000006
sS'resolve'
p47
F0.0082579999999999997
sS'necessary'
p48
F0.0066930000000000002
sS'name'
p49
F0.010113
sS'process improvement'
p50
F0.0085559999999999994
sS'skills'
p51
F0.0052900000000000004
sS'issue'
p52
F0.0086029999999999995
sS'communicates'
p53
F0.0099590000000000008
sS'conducts'
p54
F0.012488000000000001
sS'solution'
p55
F0.0051900000000000002
sS'position summary'
p56
F0.0070689999999999998
sS'7 year'
p57
F0.0076140000000000001
sS'planning'
p58
F0.0055510000000000004
sS'orks'
p59
F0.018995000000000001
sS'team'
p60
F0.0046499999999999996
sS'small'
p61
F0.0068199999999999997
sS'enhance'
p62
F0.012707
sS'identifies'
p63
F0.0090950000000000007
sS'works'
p64
F0.040575
sS'business decision'
p65
F0.0085389999999999997
sS'existing data platform'
p66
F0.017308
sS'requirement'
p67
F0.009221
sS'leverages enterprise'
p68
F0.018995000000000001
sS'initiative'
p69
F0.0046039999999999996
sS'complex datasets'
p70
F0.013649
sS'trend'
p71
F0.0104
sS'consistent'
p72
F0.0082730000000000008
sS'testing'
p73
F0.023234999999999999
sS'analytics team member'
p74
F0.01426
sS'analytics'
p75
F0.013390000000000001
sS'leverages knowledge'
p76
F0.018995000000000001
sS'design'
p77
F0.002013
sS'alternative'
p78
F0.01031
sS'best'
p79
F0.004202
sS'creating'
p80
F0.004934
sS'hdfs'
p81
F0.010276
sS'enterprise data asset'
p82
F0.018995000000000001
sS'conduct research'
p83
F0.011768000000000001
sS'pattern'
p84
F0.011913
sS'specification'
p85
F0.0086230000000000005
sS'posse'
p86
F0.0086929999999999993
sS'data steward'
p87
F0.015622
sS'integration'
p88
F0.0054099999999999999
sS'transfers knowledge'
p89
F0.018995000000000001
sS'consistently'
p90
F0.0093120000000000008
sS'defined'
p91
F0.0093810000000000004
sS'individuals'
p92
F0.010488000000000001
sS'various'
p93
F0.0042050000000000004
sS'provides'
p94
F0.010694
sS'problem resolution'
p95
F0.013649
sS'new'
p96
F0.0022920000000000002
sS'approach'
p97
F0.0079939999999999994
sS'correct'
p98
F0.011896
sS'data access'
p99
F0.036304000000000003
sS'consults delivery'
p100
F0.018995000000000001
sS'specialist'
p101
F0.017316000000000002
sS'infrastructure'
p102
F0.0049829999999999996
sS'integrated'
p103
F0.0074190000000000002
sS'ability'
p104
F0.0027629999999999998
sS'business'
p105
F0.010029
sS"bachelor's degree"
p106
F0.0043629999999999997
sS'interfaces'
p107
F0.01285
sS'maintains'
p108
F0.017420999999999999
sS'data scientist'
p109
F0.003215
sS'ensures'
p110
F0.017457
sS'standard'
p111
F0.0044640000000000001
sS'release'
p112
F0.0090329999999999994
sS'assists'
p113
F0.0096270000000000001
sS'mentoring'
p114
F0.0072960000000000004
sS'easily accessible'
p115
F0.015622
sS'around wanting'
p116
F0.018995000000000001
sS'based'
p117
F0.0036059999999999998
sS'appropriate'
p118
F0.0050379999999999999
sS'data quality'
p119
F0.022543000000000001
sS'optimize'
p120
F0.006038
sS'change'
p121
F0.0088660000000000006
sS'monitor'
p122
F0.014012999999999999
sS'definition'
p123
F0.0091369999999999993
sS'scheduling'
p124
F0.011768000000000001
sS'high level'
p125
F0.0074190000000000002
sS'consumption'
p126
F0.033064000000000003
sS'data visualization'
p127
F0.011370999999999999
sS'technical'
p128
F0.00694
sS'across'
p129
F0.0054390000000000003
sS'programming'
p130
F0.0044949999999999999
sS'experience'
p131
F0.00090899999999999998
sS'etc'
p132
F0.003503
sS'life cycle'
p133
F0.0088950000000000001
sS'ensure'
p134
F0.0040800000000000003
sS'w'
F0.011646
sS'action'
p135
F0.0066769999999999998
sS'recognizes'
p136
F0.01426
sS'estimation'
p137
F0.010843999999999999
sS'whole'
p138
F0.01005
sS'identify weakness'
p139
F0.015946999999999999
sS'plan'
p140
F0.004627
sS'named'
p141
F0.011261999999999999
sS'data integrity'
p142
F0.021951999999999999
sS'identifies problematic area'
p143
F0.018995000000000001
sS'primary'
p144
F0.0083029999999999996
sS'logical'
p145
F0.019411999999999999
sS'strategic'
p146
F0.0043049999999999998
sS'design principle'
p147
F0.012326
sS'data warehousing'
p148
F0.0090530000000000003
sS'drive incremental business value'
p149
F0.018995000000000001
sS'determine'
p150
F0.02154
sS'throughout'
p151
F0.0063870000000000003
sS'quality'
p152
F0.0081390000000000004
sS'3-7 year'
p153
F0.037990000000000003
sS'analyzes data'
p154
F0.013934999999999999
sS'use'
p155
F0.0026319999999999998
sS'management'
p156
F0.0082539999999999992
sS'working'
p157
F0.0026389999999999999
sS'area'
p158
F0.0033050000000000002
sS'leading'
p159
F0.0034870000000000001
sS'support'
p160
F0.0066620000000000004
sS'moderately'
p161
F0.018995000000000001
sS'system'
p162
F0.0044730000000000004
sS'needed'
p163
F0.01017
sS'optimal approach'
p164
F0.015622
sS'interpret'
p165
F0.007267
sS'semantic data access'
p166
F0.018995000000000001
sS'recommend'
p167
F0.015803999999999999
sS'enterprise data'
p168
F0.011705999999999999
sS'improve'
p169
F0.003663
sS'eg'
p170
F0.0048240000000000002
sS'duties'
p171
F0.0077780000000000002
sS'data sourcing'
p172
F0.030158000000000001
sS'recommends'
p173
F0.011021
sS'option'
p174
F0.0091789999999999997
sS'relationship'
p175
F0.010154
sS'specific business'
p176
F0.028881
sS'relevant'
p177
F0.004424
sS'tool'
p178
F0.0035130000000000001
sS'solid understanding'
p179
F0.0080870000000000004
sS'business requirement'
p180
F0.0086230000000000005
sS'delivery'
p181
F0.0096399999999999993
sS'analytical skill'
p182
F0.0083639999999999999
sS'works closely'
p183
F0.012949
sS'understand'
p184
F0.010397999999999999
sS'analyzes'
p185
F0.0092449999999999997
sS'gather requirement'
p186
F0.013788
sS'automated'
p187
F0.0071520000000000004
sS'team member'
p188
F0.0097269999999999995
sS'daily exception report'
p189
F0.018995000000000001
sS'identify'
p190
F0.0067029999999999998
sS'effort'
p191
F0.0048859999999999997
sS'potential'
p192
F0.0058830000000000002
sS'must'
p193
F0.003395
sS'analyze'
p194
F0.0086210000000000002
sS'reliable'
p195
F0.0094520000000000003
sS'work'
p196
F0.00084699999999999999
sS'data duplicate'
p197
F0.018995000000000001
sS'project'
p198
F0.011821
sS'ongoing'
p199
F0.0069109999999999996
sS'error'
p200
F0.010562
sS'meet'
p201
F0.004614
sS'properly'
p202
F0.013649
sS'enables'
p203
F0.0098720000000000006
sS'documentation'
p204
F0.0057109999999999999
sS'process'
p205
F0.0049249999999999997
sS'attribute'
p206
F0.011212
sS'resolve conflict'
p207
F0.015622
sS'turned'
p208
F0.015946999999999999
sS'define'
p209
F0.0049259999999999998
sS'systems'
p210
F0.0078150000000000008
sS'preventative procedure'
p211
F0.018995000000000001
sS'minimum'
p212
F0.0045450000000000004
sS'data profiling'
p213
F0.012949
sS'need'
p214
F0.0052339999999999999
sS'technology'
p215
F0.001766
sS'data dictionary statistic'
p216
F0.018995000000000001
sS'increased'
p217
F0.013051999999999999
sS'helps translate business'
p218
F0.018995000000000001
sS'information'
p219
F0.014050999999999999
sS'educational'
p220
F0.010208999999999999
sS'develop'
p221
F0.0056940000000000003
sS'key business process'
p222
F0.018008
sS'leverages master data'
p223
F0.018995000000000001
sS'provide'
p224
F0.0024729999999999999
sS'working relationship'
p225
F0.0092890000000000004
sS'ensuring'
p226
F0.0067400000000000003
sS'remediation plan'
p227
F0.018008
sS'virtual'
p228
F0.012031
sS'monitors'
p229
F0.026105
sS'also'
p230
F0.0040299999999999997
sS'responsibilities'
p231
F0.0030219999999999999
sS'verifies'
p232
F0.016322
sS'role'
p233
F0.0025300000000000001
sS'computer science'
p234
F0.0037859999999999999
sS'department'
p235
F0.0055999999999999999
sS'performance'
p236
F0.0035560000000000001
sS'physical'
p237
F0.0075139999999999998
sS'complex'
p238
F0.0038549999999999999
sS'opportunity'
p239
F0.002441
sS'accuracy'
p240
F0.0080470000000000003
sS'development'
p241
F0.0032650000000000001
sS'less-experienced team member'
p242
F0.018995000000000001
sS'business stakeholder'
p243
F0.017867000000000001
sS'hadoop mdm metadata'
p244
F0.020681000000000001
sS'multiple'
p245
F0.0046979999999999999
sS'may'
p246
F0.023869000000000001
sS'test plan'
p247
F0.010344000000000001
sS'assist'
p248
F0.01064
sS'conceptual logical'
p249
F0.014441000000000001
sS'business process'
p250
F0.013495
sS'innate curiosity'
p251
F0.017308
sS'develops'
p252
F0.017698999999999999
sS'validates data source'
p253
F0.018995000000000001
sS'user'
p254
F0.0091489999999999991
sS'establish'
p255
F0.0068780000000000004
sS'sql'
p256
F0.0027060000000000001
sS'requirements'
p257
F0.0087089999999999997
sS'data'
p258
F0.01306
sS'mass update'
p259
F0.018995000000000001
sS'independently'
p260
F0.0068360000000000001
sS'task'
p261
F0.01516
sS'batch bulk data load'
p262
F0.018995000000000001
sS'effective'
p263
F0.0053920000000000001
sS'identifies opportunity'
p264
F0.026105
sS'typically'
p265
F0.0098440000000000003
sS'required'
p266
F0.0023570000000000002
sS'flow'
p267
F0.01031
sS'business strategy'
p268
F0.0090740000000000005
sS'rule'
p269
F0.010208999999999999
sS'physical data'
p270
F0.025898000000000001
sS'maintain'
p271
F0.0090080000000000004
sS'underlying data source'
p272
F0.018995000000000001
sS'collects analyzes'
p273
F0.018995000000000001
sS'framework'
p274
F0.0048019999999999998
sS'enterprise'
p275
F0.0090150000000000004
sS'merging de-duping cleansing'
p276
F0.018995000000000001
sS'organization'
p277
F0.0027309999999999999
sS'model'
p278
F0.014541
sS'translates business requirement'
p279
F0.018995000000000001
sS'data element'
p280
F0.012754
sS'aggregation logic'
p281
F0.037990000000000003
sS'equivalent work experience'
p282
F0.0094280000000000006
s.