(dp1
S'biostatistics'
p2
F0.027413
sS'global'
p3
F0.0092669999999999992
sS'existing'
p4
F0.022419999999999999
sS'sexual orientation gender identity'
p5
F0.019571000000000002
sS'statistical'
p6
F0.0082179999999999996
sS'formulating'
p7
F0.028183
sS'develop test'
p8
F0.023777
sS'skill'
p9
F0.0049610000000000001
sS'impact'
p10
F0.0094289999999999999
sS'knowledge'
p11
F0.0049420000000000002
sS'implementation'
p12
F0.0091699999999999993
sS'working knowledge'
p13
F0.013596
sS'platform'
p14
F0.0073879999999999996
sS'key role'
p15
F0.018314
sS'combine'
p16
F0.019327
sS'location'
p17
F0.01082
sS'improve top-line growth'
p18
F0.045698999999999997
sS'transformation'
p19
F0.015886999999999998
sS'2-5 year'
p20
F0.054132
sS'customer'
p21
F0.0046979999999999999
sS'insight'
p22
F0.014278000000000001
sS'python'
p23
F0.0080300000000000007
sS'practice'
p24
F0.010699
sS'preferred'
p25
F0.0077320000000000002
sS'industry weve'
p26
F0.039793000000000002
sS"metlife's policy"
p27
F0.038246000000000002
sS'key responsibilities'
p28
F0.019741000000000002
sS'using'
p29
F0.0059690000000000003
sS'difference'
p30
F0.013303000000000001
sS'junior data scientists'
p31
F0.039793000000000002
sS'skills'
p32
F0.011688
sS'button'
p33
F0.032339
sS'status genetic information'
p34
F0.038246000000000002
sS'solution'
p35
F0.011469
sS'applied'
p36
F0.01329
sS'including pregnancy childbirth'
p37
F0.036066000000000001
sS'analytical'
p38
F0.014648
sS'essential'
p39
F0.018412999999999999
sS'validating model'
p40
F0.041973000000000003
sS'business impact'
p41
F0.024354000000000001
sS'work experience'
p42
F0.014009000000000001
sS'domestic civil partnership'
p43
F0.036066000000000001
sS'race color religion sex'
p44
F0.029869
sS'play'
p45
F0.014441000000000001
sS'related'
p46
F0.014951000000000001
sS'advanced degree'
p47
F0.015179
sS'analytics'
p48
F0.029586999999999999
sS'design'
p49
F0.0088950000000000001
sS'perspective'
p50
F0.015386
sS'quantitative field'
p51
F0.015124
sS'spss sas r'
p52
F0.037046000000000003
sS'monitors'
p53
F0.028842
sS'harassment based'
p54
F0.033320000000000002
sS'collaborative'
p55
F0.014099
sS'specification'
p56
F0.019054999999999999
sS'derive insight'
p57
F0.026141999999999999
sS'automated confirmation email verifying'
p58
F0.038246000000000002
sS'data scientists'
p59
F0.014099
sS'method'
p60
F0.0075189999999999996
sS'metlife maintains'
p61
F0.039793000000000002
sS'completion'
p62
F0.017080999999999999
sS'solution measuring'
p63
F0.045698999999999997
sS'data science team'
p64
F0.015845000000000001
sS'business'
p65
F0.01108
sS'interfaces'
p66
F0.028393000000000002
sS'citizenship status uniformed service'
p67
F0.038246000000000002
sS'understanding'
p68
F0.013818
sS'implementing'
p69
F0.013024000000000001
sS'job'
p70
F0.0064000000000000003
sS'hypothesis'
p71
F0.042208000000000002
sS'strong'
p72
F0.010907
sS'change'
p73
F0.0097949999999999999
sS'5 year'
p74
F0.011688
sS'convert'
p75
F0.025734
sS'undergraduate degree'
p76
F0.021628000000000001
sS'acquiring'
p77
F0.028393000000000002
sS'technical'
p78
F0.010224
sS'economics'
p79
F0.017107000000000001
sS'experience'
p80
F0.0010039999999999999
sS'proud'
p81
F0.014409
sS'turn'
p82
F0.018515
sS'on-line profile'
p83
F0.038246000000000002
sS'ensure'
p84
F0.0090159999999999997
sS'senior data scientists'
p85
F0.034519000000000001
sS'implement'
p86
F0.0076090000000000003
sS'relevant'
p87
F0.0097750000000000007
sS'data science'
p88
F0.0063749999999999996
sS'veteran status'
p89
F0.016900999999999999
sS'characteristic protected'
p90
F0.014024
sS'united states'
p91
F0.014721
sS'apply'
p92
F0.0075510000000000004
sS'expression age disability'
p93
F0.038246000000000002
sS'law'
p94
F0.012552000000000001
sS'leading'
p95
F0.0077039999999999999
sS'create'
p96
F0.0072220000000000001
sS'medical condition'
p97
F0.026141999999999999
sS'creativity'
p98
F0.016393000000000001
sS'long'
p99
F0.025000000000000001
sS'defined'
p100
F0.020729000000000001
sS'advanced analytics'
p101
F0.012598
sS'emerging technology'
p102
F0.020577000000000002
sS'without discrimination'
p103
F0.035236999999999997
sS'function'
p104
F0.011325999999999999
sS'bottom-line earnings'
p105
F0.045698999999999997
sS'life'
p106
F0.0088889999999999993
sS'successfully'
p107
F0.019016999999999999
sS'complete'
p108
F0.016122999999999998
sS'business problem'
p109
F0.013776999999999999
sS'successful'
p110
F0.013421000000000001
sS'tool'
p111
F0.0038809999999999999
sS'delivery'
p112
F0.010651000000000001
sS'business process'
p113
F0.01491
sS'part'
p114
F0.0073540000000000003
sS'marital'
p115
F0.030793000000000001
sS'directed'
p116
F0.02674
sS'keen business acumen'
p117
F0.037046000000000003
sS'machine learning'
p118
F0.0058279999999999998
sS'receive'
p119
F0.018216
sS'making'
p120
F0.013596
sS'dedicated'
p121
F0.015443
sS'national origin'
p122
F0.025232999999999998
sS'value proposition'
p123
F0.026002999999999998
sS'inclusive'
p124
F0.022487
sS'process'
p125
F0.0054409999999999997
sS'influence'
p126
F0.013993999999999999
sS'need'
p127
F0.0057829999999999999
sS'diverse'
p128
F0.021003999999999998
sS'north carolina cary'
p129
F0.039793000000000002
sS'organizational'
p130
F0.016508999999999999
sS'drug-free workplace'
p131
F0.02674
sS'united'
p132
F0.032807000000000003
sS'goal'
p133
F0.0096290000000000004
sS'conducts analysis'
p134
F0.037046000000000003
sS'click'
p135
F0.021814
sS'member'
p136
F0.010463999999999999
sS'role'
p137
F0.0055909999999999996
sS'performance'
p138
F0.015715
sS'development'
p139
F0.003607
sS'attracting retaining'
p140
F0.035236999999999997
sS'deep understanding'
p141
F0.016629000000000001
sS'upon'
p142
F0.021160000000000002
sS'workforce'
p143
F0.019698
sS'manipulating data'
p144
F0.028393000000000002
sS'develops'
p145
F0.013037
sS'purpose'
p146
F0.014858
sS'metlife'
p147
F0.076492000000000004
sS'data'
p148
F0.0052469999999999999
sS'job requisition 49002'
p149
F0.045698999999999997
sS'building'
p150
F0.0070049999999999999
sS'equal opportunity affirmative action employer committed'
p151
F0.037046000000000003
sS'maximizing'
p152
F0.031140000000000001
sS'algorithm'
p153
F0.0066810000000000003
sS'equal employment opportunity'
p154
F0.018183000000000001
sS'required'
p155
F0.0052090000000000001
sS'mentors'
p156
F0.033885999999999999
sS'immediate consideration'
p157
F0.028613
sS'model'
p158
F0.026775
sS'opportunity'
p159
F0.0053940000000000004
sS'decision'
p160
F0.0092370000000000004
s.