(dp1
S'startup-like'
p2
F0.017035293774577628
sS'all'
p3
F0.0050430571541233366
sS'code'
p4
F0.00479467509533886
sS'curate'
p5
F0.01380409911298534
sS'r d'
p6
F0.001207690329013757
sS'constituents'
p7
F0.016667168080349005
sS'insight'
p8
F0.0091858348188974814
sS'data acquisition'
p9
F0.011606439615823213
sS'departmentdescription'
p10
F0.01769159654204671
sS'employer.'
p11
F0.006447236128573109
sS'identify'
p12
F0.0036589354484083182
sS'initiatives.'
p13
F0.010729537679555564
sS'skill'
p14
F0.0028065611983512633
sS'data'
p15
F0.0030298560100361352
sS'make'
p16
F0.0032761897422005377
sS'alltypes'
p17
F0.01769159654204671
sS'longitudinal'
p18
F0.016499055696872905
sS'pharma'
p19
F0.014716312309507746
sS'big data'
p20
F0.0064799597270002313
sS'title'
p21
F0.0072419451713607325
sS'ourteam'
p22
F0.017456177412001846
sS'disability'
p23
F0.0033313549618376867
sS'written'
p24
F0.0037710225690575352
sS'the'
p25
F0.0013169213600481143
sS'environment'
p26
F0.0039794678788642466
sS'source'
p27
F0.0075723025190036703
sS'program'
p28
F0.0082126501076629811
sS'positionoverview'
p29
F0.01769159654204671
sS'integrate'
p30
F0.0070385749813752898
sS'8'
F0.0087024569649144495
sS'2.'
p31
F0.011514998507865519
sS'population'
p32
F0.012003597975654265
sS'interprets'
p33
F0.011019060124756326
sS'ocrc.'
p34
F0.01769159654204671
sS'designs'
p35
F0.010018617632379212
sS'collaborate'
p36
F0.0048532732738248256
sS'assay'
p37
F0.016045673139657376
sS'around'
p38
F0.004737222061209796
sS'disparate'
p39
F0.0091100435810072371
sS'evaluate'
p40
F0.0060425158353682364
sS'providing'
p41
F0.0046083315699822075
sS'preferred'
p42
F0.0023046992981425683
sS'unstructured'
p43
F0.0080072365423282318
sS'finding'
p44
F0.0057242836659817985
sS'cutting'
p45
F0.0068854349278563336
sS'closely'
p46
F0.0047252684359866456
sS'forgenomic'
p47
F0.020266500404237196
sS'report'
p48
F0.0037516851080426155
sS'individually'
p49
F0.010342559162989666
sS'law'
p50
F0.0052566419543489604
sS'advanced'
p51
F0.0064084213014218502
sS'service'
p52
F0.0075026974176727792
sS'necessary'
p53
F0.0073784231343578324
sS'payer'
p54
F0.012504605978077826
sS'afirm'
p55
F0.020266500404237196
sS'gender'
p56
F0.0040394396994451525
sS'experiments.'
p57
F0.013676202921732555
sS'anonymize'
p58
F0.016845475193167592
sS'solution'
p59
F0.0016169688949823752
sS'informaticscapabilities'
p60
F0.020266500404237196
sS'method'
p61
F0.0042499116770345017
sS'large'
p62
F0.0057849641101689773
sS'skills'
p63
F0.004084659780789133
sS'race'
p64
F0.00375382744357244
sS'team'
p65
F0.0024037182285433119
sS'initiative'
p66
F0.017505807222611681
sS'identifies'
p67
F0.0091233214542569292
sS'passionate'
p68
F0.0057707287910654815
sS'communicates'
p69
F0.010342559162989666
sS'mean'
p70
F0.0089301860078812249
sS'consolidate'
p71
F0.012768167560294095
sS'cliniciansproviding'
p72
F0.01769159654204671
sS'set'
p73
F0.0040206058207969712
sS'widevariety'
p74
F0.020266500404237196
sS'national'
p75
F0.003556972599890493
sS'sex'
p76
F0.0045208002339440683
sS'bs/ba'
p77
F0.012504605978077826
sS'infrastructure'
p78
F0.0052175979425487379
sS'design'
p79
F0.0020038784004023664
sS'enhancement'
p80
F0.0082639641183779571
sS'year'
p81
F0.00083738661263966976
sS'our'
p82
F0.0033276448940906147
sS'others.'
p83
F0.010166627797878542
sS'sexual'
p84
F0.0040135741092927673
sS'itinto'
p85
F0.01769159654204671
sS'and/or'
p86
F0.0061272781113376525
sS'funding'
p87
F0.013057693595810582
sS'driving'
p88
F0.0070847855154401104
sS'thecandidate'
p89
F0.019730261129721365
sS'characteristic'
p90
F0.006447236128573109
sS'decision'
p91
F0.0037091630492763804
sS'familiarity'
p92
F0.0054638713880538576
sS'dataanalytics'
p93
F0.020266500404237196
sS'/'
F0.0045041556104672108
sS'research'
p94
F0.014021446987984715
sS'current'
p95
F0.005380709493661387
sS'religion'
p96
F0.0038298101261836667
sS'outside'
p97
F0.0089301860078812249
sS'experiment'
p98
F0.0079531065221197551
sS'years.'
p99
F0.012768167560294095
sS'conduct'
p100
F0.006757682408793199
sS'metabolomics'
p101
F0.017035293774577628
sS'issue'
p102
F0.0099417006033675256
sS'across'
p103
F0.0025446006393357356
sS'thrive'
p104
F0.0077711326063009175
sS'metadata'
p105
F0.010729537679555564
sS'available'
p106
F0.011465347697392041
sS'supporting'
p107
F0.006512229969057739
sS'we'
p108
F0.0013840816720559132
sS'profiling'
p109
F0.010968783576369892
sS'patient'
p110
F0.0099827503788798115
sS'complex'
p111
F0.0025803233847501829
sS'business'
p112
F0.0023170919932246859
sS'exchange'
p113
F0.010639035194693563
sS'cancer research'
p114
F0.015532871453441528
sS'aggregate'
p115
F0.012957984346507736
sS'theecosystem'
p116
F0.01769159654204671
sS'data scientist'
p117
F0.00054431557225523991
sS'ocrc'
p118
F0.017456177412001846
sS'mentoring'
p119
F0.008234306739768632
sS'cancer-related'
p120
F0.040533000808474391
sS'based'
p121
F0.0035770841821399133
sS'bestoptions'
p122
F0.016845475193167592
sS'meaningful'
p123
F0.0074755913970800305
sS'generate'
p124
F0.0069166880907318108
sS'care'
p125
F0.0062056694694379412
sS'pathway-based'
p126
F0.020266500404237196
sS'skills.'
p127
F0.0086340580193981359
sS'candidate'
p128
F0.0069323829681516951
sS'theirresearch.'
p129
F0.01769159654204671
sS'receive'
p130
F0.0051239049730532555
sS'curation'
p131
F0.014543253212130835
sS'study'
p132
F0.0076557859447216048
sS'equal'
p133
F0.0026266914284035375
sS'7'
F0.0077046672993477767
sS'ensure'
p134
F0.0045571901546159954
sS'massive'
p135
F0.0083960520944726946
sS'leading'
p136
F0.0030165690697952358
sS'willanchor'
p137
F0.020266500404237196
sS'therapeutic'
p138
F0.014460398290044465
sS'analysisand'
p139
F0.020266500404237196
sS'software'
p140
F0.0025346755981425543
sS'origin'
p141
F0.0037970053366142924
sS'integration'
p142
F0.0056662133279745258
sS'relevant'
p143
F0.0041599666821443152
sS'managers'
p144
F0.0083140675593171183
sS'researcher'
p145
F0.017178653657197
sS'question'
p146
F0.0057664760604189489
sS'data science'
p147
F0.00547361062443384
sS'private'
p148
F0.0091906252089181423
sS'informatics'
p149
F0.025628971317717412
sS'qualified'
p150
F0.0043010964172333953
sS'cloud/saas'
p151
F0.01769159654204671
sS'consideration'
p152
F0.005314375123778475
sS'contributor'
p153
F0.009598950939041527
sS'.'
F0.0098772124390687655
sS'theideal'
p154
F0.017456177412001846
sS'cloud'
p155
F0.0049805928883278547
sS'candidateprofile'
p156
F0.01769159654204671
sS'management'
p157
F0.0025051000267918401
sS'leverage'
p158
F0.0059191078752783115
sS'working'
p159
F0.0015534437444881023
sS'area'
p160
F0.0070501551431292383
sV(5, 10]
p161
F0.0035549689892039951
sS'cancer.'
p162
F0.016045673139657376
sS'support'
p163
F0.0037195544919685886
sS'they'
p164
F0.0083445445495968166
sS'system'
p165
F0.0024702747666147358
sS'strategy'
p166
F0.0041305863414891055
sS'technical/business'
p167
F0.012768167560294095
sS'intention'
p168
F0.016667168080349005
sVBachelor
p169
F0.00099986813915336667
sS'thecorporation'
p170
F0.01769159654204671
sS'experiencespanning'
p171
F0.018227835218156317
sS'asset'
p172
F0.013046406648348597
sS'clinical'
p173
F0.0087024569649144495
sS'analyze'
p174
F0.0041946190363601329
sS'knowledge'
p175
F0.0017996470172066598
sS'data management'
p176
F0.0068730260788435454
sS'externalsubject'
p177
F0.018227835218156317
sS'head'
p178
F0.011514998507865519
sS'enable'
p179
F0.0061422137164839916
sS'onlyprovide'
p180
F0.01769159654204671
sS'brings'
p181
F0.010073252265369188
sS'company'
p182
F0.0018306719992821443
sS'regard'
p183
F0.0047432171490140633
sS'improve'
p184
F0.0039579178500758526
sS'it'
p185
F0.003874127206421931
sS'delivery'
p186
F0.0051513559423162353
sS'automated'
p187
F0.0061373887575902038
sS'willbe'
p188
F0.016845475193167592
sS'worked'
p189
F0.010943963972864098
sS'cleanse'
p190
F0.012148868391853647
sS'must'
p191
F0.010185460006689457
sS'multi-omicsamples'
p192
F0.020266500404237196
sS'datasets'
p193
F0.0060565530955279433
sS'he/she'
p194
F0.012504605978077826
sS'science'
p195
F0.0043166272464935851
sS'inside'
p196
F0.011368644118789441
sS'work'
p197
F0.0017131046602929701
sS'project'
p198
F0.0023033906701393513
sS'matter'
p199
F0.0060659486367948276
sS'protected'
p200
F0.0081072894390389477
sS'accessed'
p201
F0.016845475193167592
sS'outcome'
p202
F0.007018990623229646
sS'etc.'
p203
F0.010997163863635485
sS'1.'
p204
F0.011545164086431477
sS'exhibit'
p205
F0.01437981367024792
sS'oracleis'
p206
F0.01769159654204671
sS'orientation'
p207
F0.0039055515504049679
sS'outstanding'
p208
F0.0084590761261569367
sS'process'
p209
F0.0079020089435941267
sS'experience.'
p210
F0.0078477468598287317
sS'internals'
p211
F0.015417517013160537
sS'top3'
p212
F0.01769159654204671
sS'direction'
p213
F0.0064849744109741056
sS'deep'
p214
F0.0097565998553481598
sS'player'
p215
F0.0076156631235873686
sS'diverse'
p216
F0.0043426956940477062
sS'experts'
p217
F0.0086566813685954331
sS'analysis'
p218
F0.0029488823530898363
sS'in'
p219
F0.0039213905985740335
sS'need'
p220
F0.0029440921308034806
sS'technology'
p221
F0.0046877410326448959
sS'thebioinformatics'
p222
F0.020266500404237196
sS'withinthe'
p223
F0.020266500404237196
sS'mix'
p224
F0.010919352072226851
sS'color'
p225
F0.0035892175142553454
sS'academic'
p226
F0.0075138357123999871
sS'efficient'
p227
F0.0075370233394441034
sS'interacts'
p228
F0.0099649794641621225
sS'veteran'
p229
F0.0034837337744029299
sS'able'
p230
F0.0044876046922465995
sS'client'
p231
F0.0031011588190004323
sS'member'
p232
F0.003874127206421931
sS'also'
p233
F0.0039487433979780119
sS'ideal'
p234
F0.006589917564139707
sS'internal'
p235
F0.0042575328060778612
sS'build'
p236
F0.0027156540523987876
sS'ambitious'
p237
F0.011831553300932773
sS'warehouse'
p238
F0.0082639641183779571
sS'applications.'
p239
F0.010204824235001958
sS'you'
p240
F0.0031304830083291337
sS'tool'
p241
F0.0017537153192527547
sS'opportunity'
p242
F0.00143426229144921
sS'3.'
p243
F0.011933567852762872
sS'development'
p244
F0.0013602581355095682
sS'curation/enrichment'
p245
F0.020266500404237196
sS'product'
p246
F0.0067360666730090476
sS'andwork'
p247
F0.020266500404237196
sS'multiple'
p248
F0.0034448921161268002
sS'collaboration'
p249
F0.0053289873020763
sS'center'
p250
F0.0072701557181997995
sS'wewill'
p251
F0.01769159654204671
sS'develops'
p252
F0.01344435681402816
sS'involving'
p253
F0.0093300375747826392
sS'accelerateresearch'
p254
F0.01769159654204671
sS'data analysis'
p255
F0.0082029934625043946
sS'bioinformatics'
p256
F0.020890093114602101
sS'influence'
p257
F0.0069356006790018661
sS'proteomic'
p258
F0.017035293774577628
sS'impeccable'
p259
F0.01380409911298534
sS'extremely'
p260
F0.010683938327705429
sS'non-routine'
p261
F0.014716312309507746
sS'identity'
p262
F0.0043374634791197237
sS'specialization.'
p263
F0.014996634572542564
sS'sources.'
p264
F0.011096124130732337
sS'providethe'
p265
F0.01769159654204671
sS'algorithm'
p266
F0.0032780119990024653
sS'oral'
p267
F0.0069995358326454286
sS'employment'
p268
F0.0065124382571990448
sS'applicant'
p269
F0.0041135824395450082
sS'life'
p270
F0.0043218224761641276
sS'anunderstanding'
p271
F0.020266500404237196
sS'without'
p272
F0.0042524498587873166
sS'actionable'
p273
F0.0055931980340462656
sS'provide'
p274
F0.002370885075565743
sS'edge'
p275
F0.006316277690569967
sS'status'
p276
F0.0033837937048047748
sS'credibility'
p277
F0.012677663878663106
sS'oracle'
p278
F0.015475424360405379
sS'model'
p279
F0.0021666310944681417
sS'application'
p280
F0.0030149018616098199
sS'defend'
p281
F0.015532871453441528
s.