(dp1
S'urgent business need'
p2
F0.026707999999999999
sS'works independently'
p3
F0.020792999999999999
sS'concept'
p4
F0.0075550000000000001
sS'mathematics actuarial statistic economics'
p5
F0.032946000000000003
sS'guided'
p6
F0.013736999999999999
sS'insight'
p7
F0.0051469999999999997
sS'focus'
p8
F0.015311
sS'leads'
p9
F0.01502
sS'bring'
p10
F0.006927
sS'manages'
p11
F0.012429000000000001
sS'including'
p12
F0.0032789999999999998
sS'sexual orientation gender identity'
p13
F0.014109999999999999
sS'statistical'
p14
F0.0059249999999999997
sS'domestic civil partnership'
p15
F0.026001
sS'go'
p16
F0.011785
sS'skill'
p17
F0.0035769999999999999
sS'resourceful'
p18
F0.017557
sS'completion'
p19
F0.012314
sS'adding'
p20
F0.021145000000000001
sS'style'
p21
F0.017208000000000001
sS'results-oriented creative'
p22
F0.028688000000000002
sS'high performing team'
p23
F0.020628000000000001
sS'explain'
p24
F0.012775
sS'working knowledge'
p25
F0.019604
sS'environment'
p26
F0.0044869999999999997
sS'charge'
p27
F0.020029999999999999
sS'location'
p28
F0.0077999999999999996
sS'ultimately drive brighthouse financials top'
p29
F0.032946000000000003
sS'excellent oral'
p30
F0.01601
sS'minimizing complexity'
p31
F0.032946000000000003
sS'substantial portion'
p32
F0.028688000000000002
sS'highly motivated'
p33
F0.014944000000000001
sS'directed'
p34
F0.019278
sS'6 year'
p35
F0.014080000000000001
sS'finance'
p36
F0.010196999999999999
sS'seeking'
p37
F0.0069800000000000001
sS'mission'
p38
F0.0069750000000000003
sS'finding'
p39
F0.008489
sS'every'
p40
F0.010711
sS'key responsibilities'
p41
F0.014232
sS'brighthouse financial'
p42
F0.065892000000000006
sS'using'
p43
F0.0043030000000000004
sS'advanced'
p44
F0.0060540000000000004
sS'resolve'
p45
F0.013155999999999999
sS'bar'
p46
F0.018106000000000001
sS'level'
p47
F0.011439
sS'large scale'
p48
F0.012352
sS'issue'
p49
F0.0068529999999999997
sS'button'
p50
F0.023314999999999999
sS'status genetic information'
p51
F0.027573
sS'leading'
p52
F0.0055539999999999999
sS'proud'
p53
F0.010388
sS'skills'
p54
F0.0084259999999999995
sS'including pregnancy childbirth'
p55
F0.026001
sS'common'
p56
F0.012468999999999999
sS'team'
p57
F0.0014809999999999999
sS'security'
p58
F0.0087899999999999992
sS'passionate'
p59
F0.015816
sS'essential'
p60
F0.013275
sS'data analytics'
p61
F0.0086040000000000005
sS'referred'
p62
F0.024021000000000001
sS'function'
p63
F0.0081650000000000004
sS'set'
p64
F0.016539999999999999
sS'financial'
p65
F0.007456
sS'quantitative discipline'
p66
F0.011936
sS'successfully'
p67
F0.01371
sS'race color religion sex'
p68
F0.021533
sS'related'
p69
F0.016167999999999998
sS'marital'
p70
F0.022199
sS'january 2016 metlife announced'
p71
F0.032946000000000003
sS'analytics'
p72
F0.00711
sS'cost'
p73
F0.011785
sS'us'
p74
F0.013076000000000001
sS'eliminating'
p75
F0.032946000000000003
sS'beyond'
p76
F0.012352
sS'click'
p77
F0.015726
sS'translate business requirement'
p78
F0.019636000000000001
sS"metlife's policy"
p79
F0.027573
sS'harassment based'
p80
F0.024021000000000001
sS'decision'
p81
F0.006659
sS'research'
p82
F0.0091509999999999994
sS'automated confirmation email verifying'
p83
F0.027573
sS'junior staff'
p84
F0.023004
sS'new'
p85
F0.0036510000000000002
sS'data scientists'
p86
F0.010163999999999999
sS'complexity confusion'
p87
F0.032946000000000003
sS'cross-functional team'
p88
F0.012005
sS'matrix management'
p89
F0.02443
sS'leverage brighthouse financials rich'
p90
F0.032946000000000003
sS'ability'
p91
F0.0066030000000000004
sS'business'
p92
F0.010651000000000001
sS'marketing'
p93
F0.0067299999999999999
sS'stakeholder'
p94
F0.0079819999999999995
sS'deliver'
p95
F0.010572
sS'citizenship status uniformed service'
p96
F0.027573
sS'desired'
p97
F0.010970000000000001
sS'job'
p98
F0.0092280000000000001
sS'bachelors degree'
p99
F0.0087969999999999993
sS'complicated'
p100
F0.019512999999999999
sS'separation'
p101
F0.032946000000000003
sS'strong'
p102
F0.0078630000000000002
sS'high level'
p103
F0.011818
sS'written communication skill'
p104
F0.010089000000000001
sS'technical'
p105
F0.0073709999999999999
sS'experience'
p106
F0.00072400000000000003
sS'simulation'
p107
F0.012928
sS'on-line profile'
p108
F0.027573
sS'ensure'
p109
F0.0064999999999999997
sS'brighthouse financials data science'
p110
F0.032946000000000003
sS'action'
p111
F0.010637000000000001
sS'retail'
p112
F0.011936
sS'software'
p113
F0.0039560000000000003
sS'propensity model'
p114
F0.024885999999999998
sS'medical condition'
p115
F0.018846999999999999
sS'statistical modeling'
p116
F0.0095809999999999992
sS'veteran status'
p117
F0.012184
sS'characteristic protected'
p118
F0.010109999999999999
sS'united states'
p119
F0.010612999999999999
sS'sas spss r'
p120
F0.024885999999999998
sS'least'
p121
F0.013736999999999999
sS'data mining'
p122
F0.021784999999999999
sS'apply'
p123
F0.0054429999999999999
sS'expression age disability'
p124
F0.027573
sS'quickly'
p125
F0.010540000000000001
sS'quantitative analysis'
p126
F0.012488000000000001
sS'market'
p127
F0.0072919999999999999
sS'law'
p128
F0.0090489999999999998
sS'willingness'
p129
F0.012112
sS'data'
p130
F0.0018910000000000001
sS'nimble problem solver'
p131
F0.028688000000000002
sS'related discipline'
p132
F0.012733
sS'question'
p133
F0.017323999999999999
sS'handles'
p134
F0.032946000000000003
sS'north carolina'
p135
F0.024021000000000001
sS'accountability'
p136
F0.014657
sS'many americans'
p137
F0.028688000000000002
sS'successful candidate'
p138
F0.011438
sS'way'
p139
F0.011698
sS'work experience'
p140
F0.020199000000000002
sS'without discrimination'
p141
F0.025403999999999999
sS'separated'
p142
F0.032946000000000003
sS'4 year'
p143
F0.012468999999999999
sS'life'
p144
F0.0064079999999999996
sS'complete'
p145
F0.011623
sS'company'
p146
F0.0039509999999999997
sS'serve'
p147
F0.0094610000000000007
sS'equal opportunity affirmative action employer committed'
p148
F0.026707999999999999
sS'team member'
p149
F0.0077479999999999997
sS'line'
p150
F0.012449
sS'hold'
p151
F0.016424000000000001
sS'customer'
p152
F0.013549
sS'least 6 year'
p153
F0.023651999999999999
sS'datasets'
p154
F0.011639
sS'builds'
p155
F0.017860999999999998
sS'pursue'
p156
F0.016109999999999999
sS'participates'
p157
F0.01371
sS'work'
p158
F0.0013500000000000001
sS'value'
p159
F0.013247999999999999
sS'detailed analysis'
p160
F0.020171000000000001
sS'project'
p161
F0.0062769999999999996
sS'receive'
p162
F0.013132
sS'growth'
p163
F0.0080560000000000007
sS'equal employment opportunity'
p164
F0.013109000000000001
sS'laser-focused'
p165
F0.030259000000000001
sS'meet'
p166
F0.0073499999999999998
sS'distribution'
p167
F0.013603000000000001
sS'insurance industry'
p168
F0.019056
sS'market charlotte'
p169
F0.028688000000000002
sS'charlotte'
p170
F0.026707999999999999
sS'non-technical'
p171
F0.013251000000000001
sS'national origin'
p172
F0.018190999999999999
sS'value proposition'
p173
F0.018745999999999999
sS'inclusive'
p174
F0.016212000000000001
sS'request'
p175
F0.009724
sS'add value'
p176
F0.019512999999999999
sS"master's degree"
p177
F0.0086700000000000006
sS'high'
p178
F0.0097920000000000004
sS'attracting retaining'
p179
F0.025403999999999999
sS'diverse'
p180
F0.0075709999999999996
sS'seeking high-performing team member'
p181
F0.032946000000000003
sS'want'
p182
F0.0075440000000000004
sS'need'
p183
F0.004169
sS'ie'
p184
F0.013109000000000001
sS'develop'
p185
F0.0030230000000000001
sS'deserve'
p186
F0.020965000000000001
sS'predictive modeling'
p187
F0.018246999999999999
sS'able'
p188
F0.0059979999999999999
sS'member'
p189
F0.0075440000000000004
sS'field'
p190
F0.0076730000000000001
sS'complex'
p191
F0.012283000000000001
sS'role'
p192
F0.0040309999999999999
sS'get'
p193
F0.0087670000000000005
sS'answer'
p194
F0.010813
sS'performance'
p195
F0.0056649999999999999
sS'tool'
p196
F0.0027980000000000001
sS'product'
p197
F0.0058529999999999997
sS'collaborative'
p198
F0.010163999999999999
sS'may'
p199
F0.0076049999999999998
sS'upon'
p200
F0.015254999999999999
sS'workforce'
p201
F0.014201
sS'called brighthouse financial'
p202
F0.032946000000000003
sS'data-driven insight'
p203
F0.017860999999999998
sS'important'
p204
F0.010552000000000001
sS'plan'
p205
F0.014742
sS'quantitative'
p206
F0.007195
sS'metlife'
p207
F0.027573
sS'segment'
p208
F0.016424000000000001
sS'building'
p209
F0.0050499999999999998
sS'task'
p210
F0.0080499999999999999
sS'data gathering checking manipulation'
p211
F0.027573
sS'maximizing'
p212
F0.022450000000000001
sS'work closely'
p213
F0.0078600000000000007
sS'prioritize'
p214
F0.011232000000000001
sS'business value'
p215
F0.01601
sS'nearest major'
p216
F0.023004
sS'drive'
p217
F0.0049779999999999998
sS'analysis'
p218
F0.003176
sS'accountable'
p219
F0.01542
sS'3-4 year'
p220
F0.044399000000000001
sS'immediate consideration'
p221
F0.020628000000000001
sS'organization'
p222
F0.0043509999999999998
sS'model'
p223
F0.0038609999999999998
sS'applied'
p224
F0.0095809999999999992
s.