(dp1
S'major'
p2
F0.035701999999999998
sS'employing'
p3
F0.062654000000000001
sS'programming'
p4
F0.025658
sS'data science'
p5
F0.016469000000000001
sS'non-computer science'
p6
F0.11805599999999999
sS'encouraging'
p7
F0.09103
sS'position entail updating revising'
p8
F0.11805599999999999
sS'course'
p9
F0.087189000000000003
sS'proven record'
p10
F0.061903
sS'individual'
p11
F0.022089999999999999
sS'promise'
p12
F0.072804999999999995
sS'north carolina'
p13
F0.086076
sS'participate'
p14
F0.032281999999999998
sS'seek'
p15
F0.042588000000000001
sS'fall 2017'
p16
F0.108429
sS'addition'
p17
F0.036936999999999998
sS'undergraduate'
p18
F0.064003000000000004
sS'review'
p19
F0.030908000000000001
sS'initial'
p20
F0.065817000000000001
sS'four year'
p21
F0.105044
sS'environment'
p22
F0.016077999999999999
sS'application'
p23
F0.015155999999999999
sS'innovative pedagogical method'
p24
F0.11805599999999999
sS'computer science'
p25
F0.043227000000000002
sS'object-oriented programming'
p26
F0.082432000000000005
sS'using well-known design pattern'
p27
F0.11805599999999999
sS'department'
p28
F0.031968000000000003
sS'teaching'
p29
F0.19200999999999999
sS'technology'
p30
F0.010078999999999999
sS'include'
p31
F0.025947000000000001
sS'lecturer'
p32
F0.11805599999999999
sS'begin'
p33
F0.060961000000000001
sS'scientific'
p34
F0.035924999999999999
sS'exceptional'
p35
F0.036657000000000002
sS'assistant'
p36
F0.084751999999999994
sS'curriculum'
p37
F0.075124999999999997
sS'serve'
p38
F0.033903000000000003
sS'instructional'
p39
F0.089175000000000004
sS'science cs1 cs2'
p40
F0.11805599999999999
sS'student'
p41
F0.15610299999999999
sS'position'
p42
F0.054606000000000002
sS'teach'
p43
F0.054663000000000003
sS'ha'
p44
F0.025801999999999999
sS'upon'
p45
F0.054663000000000003
sS'population'
p46
F0.06429
sS'term'
p47
F0.047567999999999999
sS'natural'
p48
F0.064003000000000004
sS'training supervising'
p49
F0.11805599999999999
sS'effective'
p50
F0.030778
sS'developing'
p51
F0.018787999999999999
sS'university'
p52
F0.091711000000000001
sS'periodically renewable'
p53
F0.11805599999999999
sS'programming rudiment'
p54
F0.11805599999999999
sS'responsibility'
p55
F0.027494000000000001
sS'evaluating'
p56
F0.046087000000000003
sS'on-ramps'
p57
F0.11805599999999999
sS'diverse'
p58
F0.054260999999999997
sS'introductory'
p59
F0.23611199999999999
sS'chapel hill invite application'
p60
F0.11805599999999999
s.