(dp1
S'operations'
p2
F0.0075989999999999999
sS'help'
p3
F0.0053369999999999997
sS'experience working'
p4
F0.005019
sS'text'
p5
F0.020886999999999999
sS'clear path'
p6
F0.019123000000000001
sS'move'
p7
F0.017461000000000001
sS'demonstrated ability'
p8
F0.014038999999999999
sS'results'
p9
F0.015233
sS'bring'
p10
F0.0096089999999999995
sS'including'
p11
F0.002274
sS'world'
p12
F0.0040720000000000001
sS'lowering expense'
p13
F0.020986000000000001
sS'skill'
p14
F0.0024810000000000001
sS'delivers'
p15
F0.0095849999999999998
sS'expert'
p16
F0.010208999999999999
sS'beyond border'
p17
F0.020986000000000001
sS'web'
p18
F0.0065310000000000003
sS'unmatched expertise'
p19
F0.020986000000000001
sS'big data'
p20
F0.012558
sS'field'
p21
F0.0053210000000000002
sS"we've"
p22
F0.012933
sS'technique'
p23
F0.0036449999999999998
sS'operational'
p24
F0.0057730000000000004
sS'simplicity'
p25
F0.014197
sS'sets high'
p26
F0.019896
sS'meritocracy'
p27
F0.018523000000000001
sS'collaboratively across'
p28
F0.018523000000000001
sS'passion'
p29
F0.0052399999999999999
sS'presentation'
p30
F0.0051419999999999999
sS'across border'
p31
F0.019896
sS'achieve'
p32
F0.012736000000000001
sS'p l'
p33
F0.014933999999999999
sS'global'
p34
F0.018534999999999999
sS'around'
p35
F0.0054349999999999997
sS'government'
p36
F0.0069389999999999999
sS'python'
p37
F0.0040150000000000003
sS'regional'
p38
F0.012076999999999999
sS'preferred'
p39
F0.0077320000000000002
sS'nation'
p40
F0.011391
sS'test'
p41
F0.0052319999999999997
sS'courage'
p42
F0.028393000000000002
sS'balancing'
p43
F0.013533
sS'know'
p44
F0.0067169999999999999
sS'ambition'
p45
F0.01345
sS'call center'
p46
F0.013070999999999999
sS'using'
p47
F0.0089529999999999992
sS'unique'
p48
F0.0069820000000000004
sS'offline'
p49
F0.011755
sS'bank'
p50
F0.010782999999999999
sS'end'
p51
F0.016726000000000001
sS'level'
p52
F0.003967
sS're-illuminate'
p53
F0.020986000000000001
sS'solution'
p54
F0.003823
sS'detroit'
p55
F0.019896
sS'summary'
p56
F0.0083750000000000005
sS'capability'
p57
F0.0046800000000000001
sS'world-class team'
p58
F0.014796999999999999
sS'component'
p59
F0.0076639999999999998
sS'financial services'
p60
F0.011207999999999999
sS'team'
p61
F0.0010269999999999999
sS'analytical'
p62
F0.014648
sS'business objective'
p63
F0.0091730000000000006
sS'works'
p64
F0.017932
sS'vision'
p65
F0.0058539999999999998
sS'lasting'
p66
F0.016660000000000001
sS'ethical'
p67
F0.016403999999999998
sS'right'
p68
F0.0064689999999999999
sS'maximize'
p69
F0.0093089999999999996
sS'people'
p70
F0.0069569999999999996
sS'encourages'
p71
F0.013216
sS'globe'
p72
F0.0065620000000000001
sS'reduce'
p73
F0.012177
sS'- omni channel servicing'
p74
F0.020986000000000001
sS'past'
p75
F0.011627999999999999
sS'analytics'
p76
F0.019724999999999999
sS'see'
p77
F0.014330000000000001
sS'growth'
p78
F0.005587
sS'design'
p79
F0.0022239999999999998
sS'result'
p80
F0.0069449999999999998
sS'year'
p81
F0.0054099999999999999
sS'technology'
p82
F0.001951
sS'best'
p83
F0.0046430000000000004
sS'celebrating excellence'
p84
F0.020986000000000001
sS'tackling'
p85
F0.012933
sS'pattern'
p86
F0.006581
sS'recommendation'
p87
F0.010770999999999999
sS'r'
F0.0040390000000000001
sS'connecting'
p88
F0.011712
sS'meaningful'
p89
F0.0078609999999999999
sS'progress'
p90
F0.038262999999999998
sS'boundary'
p91
F0.011353
sS'across'
p92
F0.0030040000000000002
sS'demonstrated'
p93
F0.0055269999999999998
sS'masters degree'
p94
F0.0061980000000000004
sS'cross-functional team'
p95
F0.0083260000000000001
sS'demonstrated experience'
p96
F0.010003
sS'men'
p97
F0.01617
sS'creating'
p98
F0.010902
sS'power'
p99
F0.0072040000000000003
sS'marketing'
p100
F0.0046680000000000003
sS'leveraging'
p101
F0.013624000000000001
sS'translate business question'
p102
F0.018033
sS'data scientist'
p103
F0.001776
sS'standard'
p104
F0.0098630000000000002
sS'highly'
p105
F0.012288
sS'sustainable'
p106
F0.012127000000000001
sS'leadership'
p107
F0.0045880000000000001
sS'focused'
p108
F0.0059170000000000004
sS'online'
p109
F0.014069
sS'deeply attuned'
p110
F0.020986000000000001
sS'others'
p111
F0.0054590000000000003
sS'meaningful insight'
p112
F0.014664999999999999
sS'daily basis'
p113
F0.011887999999999999
sS'change'
p114
F0.0048970000000000003
sS'mindset'
p115
F0.010442999999999999
sS'proficiency'
p116
F0.010395
sS'voice'
p117
F0.017028999999999999
sS'talent'
p118
F0.012234
sS'candidate'
p119
F0.010050999999999999
sS'funded'
p120
F0.017260000000000001
sS'experience'
p121
F0.001506
sS'client citicom history'
p122
F0.020986000000000001
sS'survey'
p123
F0.010664999999999999
sS'strong written'
p124
F0.010496999999999999
sS"today's"
p125
F0.011037
sS'social'
p126
F0.0075529999999999998
sS'long-term'
p127
F0.010024999999999999
sS'hadoop spark'
p128
F0.010024999999999999
sS'implement'
p129
F0.0076090000000000003
sS'public lighting authority'
p130
F0.020986000000000001
sS"citi's commercial bank embodies"
p131
F0.022849999999999999
sS'plan'
p132
F0.0051120000000000002
sS'cross-sell marketing'
p133
F0.020986000000000001
sS'revenue'
p134
F0.025350999999999999
sS'drive incremental revenue'
p135
F0.020986000000000001
sS"we're looking"
p136
F0.0092069999999999999
sS'community'
p137
F0.0097140000000000004
sS'one'
p138
F0.0031050000000000001
sS'citi helped devise'
p139
F0.020986000000000001
sS'initiative'
p140
F0.010173
sS'cross-functional'
p141
F0.0084379999999999993
sS'world client-centric solution'
p142
F0.020986000000000001
sS'increasingly complex'
p143
F0.018523000000000001
sS'presentation skill'
p144
F0.0085269999999999999
sS'city'
p145
F0.010214000000000001
sS'statistics'
p146
F0.007012
sS'leverage'
p147
F0.0060590000000000001
sS'create crisp'
p148
F0.020986000000000001
sS'positive'
p149
F0.0088749999999999992
sS'support'
p150
F0.0018400000000000001
sS'financial infrastructurethis give u'
p151
F0.020986000000000001
sS"world's"
p152
F0.0068960000000000002
sS'strategy'
p153
F0.0075859999999999999
sS'citi'
p154
F0.054099000000000001
sS'way'
p155
F0.0040569999999999998
sS'customer behavior'
p156
F0.024153999999999998
sS'forward'
p157
F0.010782999999999999
sS'analyze'
p158
F0.0047619999999999997
sS'company'
p159
F0.0054809999999999998
sS'cards business'
p160
F0.020986000000000001
sS'firm'
p161
F0.0075079999999999999
sS'enable'
p162
F0.018225000000000002
sS'toward'
p163
F0.011429
sS'trade-oriented mid-sized company'
p164
F0.020986000000000001
sS'successful'
p165
F0.013421000000000001
sS'big data analytic'
p166
F0.017260000000000001
sS'local'
p167
F0.0088900000000000003
sS'else'
p168
F0.01337
sS'phone'
p169
F0.011934
sS'part'
p170
F0.0036770000000000001
sS'data scientist-omni channel servicing'
p171
F0.083945000000000006
sS'translation'
p172
F0.015233
sS'ha'
p173
F0.0099880000000000004
sS"what's"
p174
F0.0099579999999999998
sS'project management'
p175
F0.0063270000000000002
sS'customer'
p176
F0.002349
sS'200 year'
p177
F0.019123000000000001
sS'expense'
p178
F0.041675999999999998
sS'join'
p179
F0.0040150000000000003
sS'builds'
p180
F0.012388
sS'culture'
p181
F0.016504000000000001
sS'evaluate incremental p l'
p182
F0.020986000000000001
sS'challenge'
p183
F0.01013
sS'clients'
p184
F0.016403999999999998
sS'achieves performance'
p185
F0.020986000000000001
sS'lead'
p186
F0.019494999999999998
sS'project'
p187
F0.0043530000000000001
sS'economic'
p188
F0.010723999999999999
sS'values'
p189
F0.012801999999999999
sS'client'
p190
F0.017173999999999998
sS'transparency'
p191
F0.012333
sS'following'
p192
F0.0097610000000000006
sS'demonstrate'
p193
F0.0071729999999999997
sS'nurture'
p194
F0.014421
sS'enables'
p195
F0.010907
sS'achieved'
p196
F0.012076999999999999
sS'impact'
p197
F0.0094289999999999999
sS'business outcome'
p198
F0.012076999999999999
sS'point'
p199
F0.0096240000000000006
sS'generate'
p200
F0.0081060000000000004
sS'associated'
p201
F0.0083020000000000004
sS'behavior'
p202
F0.016301
sS'choice'
p203
F0.0095659999999999999
sS'modern'
p204
F0.0083879999999999996
sS'sales'
p205
F0.049244000000000003
sS'ensures systematically responsible'
p206
F0.020986000000000001
sS'high'
p207
F0.0067910000000000002
sS'champions progress champions'
p208
F0.020986000000000001
sS'engineering'
p209
F0.00363
sS'woman'
p210
F0.014664999999999999
sS'embrace'
p211
F0.010024999999999999
sS'build consensus across'
p212
F0.018033
sS'long term'
p213
F0.010442999999999999
sS'need'
p214
F0.0028909999999999999
sS'partner'
p215
F0.012786
sS'work'
p216
F0.001872
sS"lead citi's phone"
p217
F0.020986000000000001
sS'trusted'
p218
F0.010782999999999999
sS'risk'
p219
F0.0061549999999999999
sS'foundational'
p220
F0.013707
sS'verbal communication'
p221
F0.012677000000000001
sS'develop'
p222
F0.0020969999999999999
sS'status quo'
p223
F0.012177
sS'provide'
p224
F0.0027330000000000002
sS'attract'
p225
F0.014090999999999999
sS'make'
p226
F0.0034060000000000002
sS'responsible'
p227
F0.00331
sS'machine learning technique'
p228
F0.0077999999999999996
sS"citi's vision"
p229
F0.022849999999999999
sS'also'
p230
F0.0044530000000000004
sS'methodology'
p231
F0.0047210000000000004
sS'complex'
p232
F0.0042589999999999998
sS'5'
F0.0083999999999999995
sS'digital'
p233
F0.0059020000000000001
sS'objective'
p234
F0.0062870000000000001
sS'mathematics'
p235
F0.0078810000000000009
sS'tool'
p236
F0.001941
sS'channel'
p237
F0.017461000000000001
sS'200'
p238
F0.012617
sS'outcome'
p239
F0.0072849999999999998
sS'reach'
p240
F0.0091079999999999998
sS'drives'
p241
F0.014664999999999999
sS'data-driven insight'
p242
F0.012388
sS'fueled'
p243
F0.013533
sS'develops'
p244
F0.0065180000000000004
sS'pave'
p245
F0.019896
sS'purpose'
p246
F0.0074289999999999998
sS'identify opportunity'
p247
F0.0094900000000000002
sS'requirements'
p248
F0.0048110000000000002
sS'data driven'
p249
F0.018412999999999999
sS'wisdom'
p250
F0.017260000000000001
sS'data'
p251
F0.0039350000000000001
sS'achievement'
p252
F0.011243
sS'web voice'
p253
F0.014664999999999999
sS'value'
p254
F0.009188
sS'independently'
p255
F0.015106
sS'short'
p256
F0.010003
sS'cross functional stake-holders'
p257
F0.020986000000000001
sS'driving'
p258
F0.0065929999999999999
sS'framework'
p259
F0.005306
sS'performance'
p260
F0.0078580000000000004
sS'drive'
p261
F0.0069049999999999997
sS'thought'
p262
F0.010390999999999999
sS'ensuring'
p263
F0.0074460000000000004
sS'u'
F0.0062589999999999998
sS'log'
p264
F0.012279999999999999
sS'push'
p265
F0.013878
sS'lives'
p266
F0.019896
sS'5 year'
p267
F0.011688
sS'diverse'
p268
F0.0052509999999999996
sS'transactional'
p269
F0.012867
sS'offline data'
p270
F0.019123000000000001
sS'servicing'
p271
F0.014664999999999999
s.