(dp1
S'parsing'
p2
F0.020073000000000001
sS'code'
p3
F0.013413
sS'related field'
p4
F0.0054770000000000001
sS'help'
p5
F0.0032659999999999998
sS'cleaning manipulating'
p6
F0.027961
sS'miner'
p7
F0.021559999999999999
sS'global'
p8
F0.017010000000000001
sS'dynamic'
p9
F0.0074790000000000004
sS'produce'
p10
F0.0099600000000000001
sS'quick learner'
p11
F0.016664999999999999
sS'including'
p12
F0.0055659999999999998
sS'innovative'
p13
F0.0056179999999999997
sS'skill'
p14
F0.0030360000000000001
sS'article 49'
p15
F0.027961
sS'find'
p16
F0.0078650000000000005
sS'making sure'
p17
F0.017371999999999999
sS'3 years'
p18
F0.013629
sS'linux unix environment'
p19
F0.022665999999999999
sS'based'
p20
F0.004875
sS'knowledge'
p21
F0.0030240000000000002
sS'critical thinking'
p22
F0.012779
sS'working knowledge'
p23
F0.008319
sS'program'
p24
F0.0051479999999999998
sS'employee'
p25
F0.0058950000000000001
sS'passion'
p26
F0.0064120000000000002
sS'transformation'
p27
F0.0097199999999999995
sS'merchant'
p28
F0.020733000000000001
sS'data structure'
p29
F0.010599000000000001
sS'insight'
p30
F0.0043680000000000004
sS'around'
p31
F0.019951
sS'engineering computer science'
p32
F0.013757999999999999
sS'python'
p33
F0.0098259999999999997
sS'practice'
p34
F0.0065459999999999997
sS'financial service'
p35
F0.010952999999999999
sS'strong sense'
p36
F0.017243000000000001
sS'san francisco police code'
p37
F0.027961
sS'develop new'
p38
F0.010753
sS'using'
p39
F0.0073039999999999997
sS'difference'
p40
F0.0081390000000000004
sS'manner consistent'
p41
F0.010071999999999999
sS'entire'
p42
F0.011899
sS'bar'
p43
F0.015365999999999999
sS'per second'
p44
F0.022067
sS'large scale'
p45
F0.010482999999999999
sS'approach'
p46
F0.0054039999999999999
sS'unstructured data source'
p47
F0.019279999999999999
sS'solution'
p48
F0.0046779999999999999
sS'capability'
p49
F0.0057270000000000003
sS'skill suited'
p50
F0.027961
sS'convenience'
p51
F0.019053
sS'excellence'
p52
F0.0078139999999999998
sS'common'
p53
F0.021163999999999999
sS'team'
p54
F0.0050289999999999996
sS'enhance'
p55
F0.0085900000000000004
sS'security'
p56
F0.0074599999999999996
sS'strong analytical'
p57
F0.011165
sS'vision'
p58
F0.0071630000000000001
sS'hadoop ecosystem'
p59
F0.013424999999999999
sS'requirement'
p60
F0.0041549999999999998
sS'everyone'
p61
F0.011975
sS'financial'
p62
F0.0063280000000000003
sS'experience designing'
p63
F0.013505
sS'people'
p64
F0.012769000000000001
sS'idea'
p65
F0.0073270000000000002
sS'batch'
p66
F0.017118999999999999
sS'analytics'
p67
F0.0030170000000000002
sS'statistic'
p68
F0.0060219999999999996
sS'extract'
p69
F0.0098110000000000003
sS'best'
p70
F0.0056810000000000003
sS'standard'
p71
F0.0060350000000000004
sS'strategic'
p72
F0.0058199999999999997
sS'scale'
p73
F0.0074019999999999997
sS'rest apis'
p74
F0.018275
sS'hadoop mapreduce pig hive'
p75
F0.027961
sS'advocate'
p76
F0.013847
sS're-use existing'
p77
F0.027961
sS'familiarity'
p78
F0.0061850000000000004
sS'critical business process'
p79
F0.022665999999999999
sS'creative'
p80
F0.0074079999999999997
sS'current'
p81
F0.0069569999999999996
sS'written'
p82
F0.0079459999999999999
sS'olympics'
p83
F0.027961
sS'new'
p84
F0.0030980000000000001
sS'kept confidential according'
p85
F0.01413
sS'ideal candidate'
p86
F0.0080999999999999996
sS'everyone everywhere'
p87
F0.024347000000000001
sS'various'
p88
F0.0056849999999999999
sS'ability'
p89
F0.0074720000000000003
sS'business'
p90
F0.0067790000000000003
sS'high quality'
p91
F0.010914999999999999
sS'quick-thinker fast learner'
p92
F0.027961
sS'understanding'
p93
F0.0042269999999999999
sS'company description'
p94
F0.010841999999999999
sS'adept'
p95
F0.014331999999999999
sS'job'
p96
F0.0039160000000000002
sS'production-ready'
p97
F0.025680999999999999
sS'key'
p98
F0.0052719999999999998
sS'address'
p99
F0.0079019999999999993
sS'modeling'
p100
F0.0055519999999999996
sS'spark'
p101
F0.0080450000000000001
sS'english spanish'
p102
F0.027961
sS'problem solver'
p103
F0.014963000000000001
sS'optimize'
p104
F0.016326
sS'improve'
p105
F0.0049519999999999998
sS'excellent spoken'
p106
F0.027961
sS'advance'
p107
F0.0095329999999999998
sS'talented'
p108
F0.0096570000000000007
sS'world'
p109
F0.024912
sS'state-of-the-art'
p110
F0.012409999999999999
sS'data cleaning'
p111
F0.02112
sS'web crawling technique'
p112
F0.027961
sS'technology company'
p113
F0.012619999999999999
sS'experience'
p114
F0.0024580000000000001
sS'practical'
p115
F0.010666
sS'personal'
p116
F0.0090379999999999992
sS'employment qualified applicant'
p117
F0.010189
sS'plus'
p118
F0.0101
sS'additional information'
p119
F0.010753
sS'data driven'
p120
F0.011266
sS'global economy visas sponsorship'
p121
F0.027961
sS'shell scripting'
p122
F0.015826
sS'inclusion'
p123
F0.013984999999999999
sS'including issuer acquirer'
p124
F0.027961
sS'within'
p125
F0.0039490000000000003
sS'delivering'
p126
F0.007639
sS'candidates must'
p127
F0.014229
sS'one'
p128
F0.0075989999999999999
sS'query endpoint'
p129
F0.027961
sS'analyzing'
p130
F0.0090799999999999995
sS'strong thriving career'
p131
F0.027961
sS'data mining'
p132
F0.012326
sS'distributed computing technology'
p133
F0.013847
sS'throughout'
p134
F0.0086350000000000003
sS'consider'
p135
F0.0089759999999999996
sS'eeo guideline'
p136
F0.013984999999999999
sS'analyzing gigabyte'
p137
F0.02112
sS'use'
p138
F0.003558
sS'statistics'
p139
F0.0085810000000000001
sS'java'
p140
F0.0074599999999999996
sS'raise'
p141
F0.016664999999999999
sS'working'
p142
F0.003568
sS"3 years' experience"
p143
F0.020386000000000001
sS'responsible delivery-oriented'
p144
F0.027961
sS'structured'
p145
F0.0079089999999999994
sS'transform'
p146
F0.0094970000000000002
sS'quickly'
p147
F0.0089449999999999998
sS'come'
p148
F0.0082109999999999995
sS'transform data analysis'
p149
F0.027961
sS'way'
p150
F0.0049639999999999997
sS'teamwork'
p151
F0.0099740000000000002
sS'efficiently'
p152
F0.011682
sS'lack access'
p153
F0.027961
sS'life'
p154
F0.0054380000000000001
sS'diversity'
p155
F0.0075709999999999996
sS'large volume'
p156
F0.015027
sS'tool'
p157
F0.0071240000000000001
sS'data analytic'
p158
F0.014179000000000001
sS'apache spark'
p159
F0.013505
sS'job description'
p160
F0.0066550000000000003
sS'visualizing'
p161
F0.018641000000000001
sS'everywhere'
p162
F0.017646999999999999
sS'digital currency'
p163
F0.055920999999999998
sS'general'
p164
F0.0094020000000000006
sS'present'
p165
F0.0075310000000000004
sS'wide'
p166
F0.013195
sS'join'
p167
F0.0098259999999999997
sS'language'
p168
F0.0064640000000000001
sS'streaming'
p169
F0.014033
sS'work'
p170
F0.0022910000000000001
sS'hands-on'
p171
F0.0091979999999999996
sS'cash'
p172
F0.019279999999999999
sS'data set'
p173
F0.010581999999999999
sS'ms'
p174
F0.0075909999999999997
sS'suitable'
p175
F0.019522999999999999
sS'continuously'
p176
F0.026464999999999999
sS'expertise'
p177
F0.0044270000000000004
sS'fifa world cup celebrate'
p178
F0.027961
sS'guide'
p179
F0.0092870000000000001
sS'scripting'
p180
F0.010482999999999999
sS"visa's client"
p181
F0.027961
sS'heart'
p182
F0.011825
sS'processing'
p183
F0.0083859999999999994
sS'process'
p184
F0.0033289999999999999
sS'uncommon opportunity'
p185
F0.055920999999999998
sS'problem solver equipped'
p186
F0.027961
sS'criminal history'
p187
F0.010189
sS'mind'
p188
F0.012845000000000001
sS'enabling'
p189
F0.010684000000000001
sS'comfortable'
p190
F0.0091660000000000005
sS'involve'
p191
F0.014179000000000001
sS'sas'
p192
F0.028986999999999999
sS'least one compiled language eg'
p193
F0.024347000000000001
sS'want'
p194
F0.0064019999999999997
sS'need'
p195
F0.0035379999999999999
sS'partner'
p196
F0.0052160000000000002
sS'check'
p197
F0.012352
sS'preferably'
p198
F0.0097330000000000003
sS'information'
p199
F0.0037989999999999999
sS'develop'
p200
F0.0051320000000000003
sS'goal'
p201
F0.0058910000000000004
sS'etc'
p202
F0.0094719999999999995
sS'pay'
p203
F0.013465
sS'deconstruct problem'
p204
F0.027961
sS'offer'
p205
F0.0052919999999999998
sS'able'
p206
F0.010181000000000001
sS'predictive modeling'
p207
F0.0077429999999999999
sS'java c'
p208
F0.015226
sS'write'
p209
F0.018804000000000001
sS'also'
p210
F0.0054489999999999999
sS'responsibilities'
p211
F0.0040850000000000001
sS'unites'
p212
F0.027961
sS'build'
p213
F0.0032079999999999999
sS'responsibility'
p214
F0.0065120000000000004
sS'manage multiple project'
p215
F0.017243000000000001
sS'instead'
p216
F0.021559999999999999
sS'meet deadline'
p217
F0.014718999999999999
sS'3 year'
p218
F0.015542
sS'unstructured data'
p219
F0.0090690000000000007
sS'terabyte-scale data'
p220
F0.02112
sS'solve business problem'
p221
F0.012652
sS'used'
p222
F0.0069080000000000001
sS'large data set'
p223
F0.0084639999999999993
sS'worker'
p224
F0.020073000000000001
sS'scripting language'
p225
F0.011413
sS'qualifications'
p226
F0.0039649999999999998
sS'paid'
p227
F0.012619999999999999
sS'fueled'
p228
F0.016559999999999998
sS'visa'
p229
F0.160583
sS'purpose'
p230
F0.018180999999999999
sS'13 000'
p231
F0.024347000000000001
sS'sql'
p232
F0.0036579999999999998
sS'validate'
p233
F0.010248999999999999
sS'data'
p234
F0.0016050000000000001
sS'payment'
p235
F0.013195
sS'manipulate large datasets using'
p236
F0.027961
sS'building'
p237
F0.0042859999999999999
sS'transaction'
p238
F0.013424999999999999
sS'e'
F0.037282000000000003
sS'visanet network'
p239
F0.027961
sS'algorithm'
p240
F0.012263
sS'required'
p241
F0.0031870000000000002
sS'order'
p242
F0.007247
sS'complexity'
p243
F0.011776999999999999
sS'tech'
p244
F0.011246000000000001
sS'quantitative'
p245
F0.0061069999999999996
sS'make'
p246
F0.0041669999999999997
sS'aggregating messy incomplete'
p247
F0.027961
s.