(dp1
S'incorporate'
p2
F0.015018999999999999
sS'concept'
p3
F0.0068389999999999996
sS'business need'
p4
F0.010775
sS'resolution'
p5
F0.012666
sS'bring'
p6
F0.0062709999999999997
sS'coach'
p7
F0.013597
sS'including'
p8
F0.0059369999999999996
sS'maintainable easy'
p9
F0.024961000000000001
sS'innovative'
p10
F0.0059930000000000001
sS'develop test'
p11
F0.015518000000000001
sS'skill'
p12
F0.003238
sS'data'
p13
F0.001712
sS'coordination'
p14
F0.014449
sS'staff'
p15
F0.016809000000000001
sS'job responsibilities'
p16
F0.013237000000000001
sS'highest'
p17
F0.015578
sS'knowledge'
p18
F0.003225
sS'big data'
p19
F0.0054640000000000001
sS'total audience measurement'
p20
F0.024961000000000001
sS'technique'
p21
F0.0095149999999999992
sS'3 year experience'
p22
F0.017350000000000001
sS'environment'
p23
F0.016247000000000001
sS'location'
p24
F0.014123
sS'relational database'
p25
F0.0088020000000000008
sS'extensive'
p26
F0.011469999999999999
sS'reusable'
p27
F0.017776
sS'hardware software'
p28
F0.017250999999999999
sS'computer science'
p29
F0.0054599999999999996
sS'data modeling'
p30
F0.010368
sS'nielsen'
p31
F0.073041999999999996
sS'satisfies requirement'
p32
F0.024961000000000001
sS'framework'
p33
F0.0069249999999999997
sS'design end-user environment'
p34
F0.02597
sS'using'
p35
F0.003895
sS'maintaining'
p36
F0.0097879999999999998
sS'new feature'
p37
F0.015344
sS'execute'
p38
F0.0083119999999999999
sS'employ leading-edge technology'
p39
F0.024961000000000001
sS'level'
p40
F0.0051780000000000003
sS'solution'
p41
F0.0099799999999999993
sS'highly-complex'
p42
F0.024961000000000001
sS'architecture'
p43
F0.013587999999999999
sS'team'
p44
F0.0026819999999999999
sS'responsibility include'
p45
F0.014968
sS'large-scale'
p46
F0.011565000000000001
sS'industry standard'
p47
F0.015018999999999999
sS'leaders'
p48
F0.016881
sS'configuration management'
p49
F0.017451999999999999
sS'trend'
p50
F0.0074989999999999996
sS'participate'
p51
F0.0081550000000000008
sS'team environment'
p52
F0.011323
sS'operates'
p53
F0.015401
sS'design'
p54
F0.017416000000000001
sS'result'
p55
F0.0045319999999999996
sS'recommendation'
p56
F0.0070289999999999997
sS'shift day'
p57
F0.017891000000000001
sS'creating'
p58
F0.0071149999999999998
sS'watch cto'
p59
F0.024961000000000001
sS'business'
p60
F0.014461999999999999
sS'expert'
p61
F0.0066629999999999997
sS'technological strategy'
p62
F0.024178000000000002
sS'broad highly-visible strategic'
p63
F0.024961000000000001
sS'familiarity'
p64
F0.0065970000000000004
sS'north america-us-fl-tampa bay'
p65
F0.022114999999999999
sS'research'
p66
F0.0041419999999999998
sS'contributing'
p67
F0.012174000000000001
sS'in-depth knowledge'
p68
F0.014867999999999999
sS'oldsmar fl office'
p69
F0.024961000000000001
sS'innovation'
p70
F0.0054770000000000001
sS'new'
p71
F0.0033050000000000002
sS'data scientists'
p72
F0.0092010000000000008
sS'business-critical application'
p73
F0.024961000000000001
sS'method'
p74
F0.0049069999999999999
sS'demonstrated'
p75
F0.0072139999999999999
sS'ass'
p76
F0.0109
sS'supporting'
p77
F0.0082070000000000008
sS'evolving'
p78
F0.013665999999999999
sS'ability'
p79
F0.001993
sS'degree'
p80
F0.015886000000000001
sS'web'
p81
F0.0085240000000000003
sS"bachelor's degree"
p82
F0.0062919999999999998
sS'component'
p83
F0.010004000000000001
sS'use'
p84
F0.0037950000000000002
sS'standard'
p85
F0.006437
sS'incident'
p86
F0.018393
sS'leadership'
p87
F0.0059890000000000004
sS'hadoop spark'
p88
F0.013086
sS'online'
p89
F0.0091819999999999992
sS'key'
p90
F0.011246000000000001
sS'address'
p91
F0.0084279999999999997
sS'interface'
p92
F0.0097540000000000005
sS'understanding'
p93
F0.004509
sS'software development'
p94
F0.025572999999999999
sS'primary location'
p95
F0.010683
sS'support near-term competitive'
p96
F0.02597
sS'service'
p97
F0.0037469999999999999
sS'technical'
p98
F0.006672
sS'current'
p99
F0.0074209999999999996
sS'job'
p100
F0.0041770000000000002
sS'experience'
p101
F0.0013110000000000001
sS'advertising'
p102
F0.011624000000000001
sS'long-term'
p103
F0.013086
sS'implement'
p104
F0.014897000000000001
sS'practical experience'
p105
F0.015178000000000001
sS'facilitate'
p106
F0.010624
sS'strategic direction'
p107
F0.013920999999999999
sS'software'
p108
F0.010743000000000001
sS'enhancement'
p109
F0.011063
sS'hadoop spark -1704324'
p110
F0.029825000000000001
sS'one'
p111
F0.0040530000000000002
sS'appropriate'
p112
F0.0072649999999999998
sS'initiative'
p113
F0.0066389999999999999
sS'industry experience'
p114
F0.011469999999999999
sS'directly'
p115
F0.010207000000000001
sS'code'
p116
F0.0071529999999999996
sS'big data centric'
p117
F0.027393000000000001
sS'java'
p118
F0.015914000000000001
sS'usa'
p119
F0.017350000000000001
sS'addition'
p120
F0.0093310000000000008
sS'product offering'
p121
F0.017155
sS'support'
p122
F0.0048040000000000001
sS'engagement'
p123
F0.0093209999999999994
sS'system'
p124
F0.012902
sS'strategy'
p125
F0.0049509999999999997
sS'asset'
p126
F0.010932000000000001
sS'fresh idea'
p127
F0.022527999999999999
sS'expected'
p128
F0.0098829999999999994
sS'prototype'
p129
F0.018304999999999998
sS'define'
p130
F0.021312999999999999
sS'4 year'
p131
F0.011287
sS'medium'
p132
F0.0090480000000000005
sS'company'
p133
F0.0035769999999999999
sS'interpersonal skill'
p134
F0.013086
sS'business process'
p135
F0.0097310000000000001
sS'train'
p136
F0.013528999999999999
sS'le experienced'
p137
F0.017663999999999999
sS'behalf'
p138
F0.015518000000000001
sS'analyze'
p139
F0.0062160000000000002
sS'organization'
p140
F0.0039389999999999998
sS'work'
p141
F0.004888
sS'hands-on'
p142
F0.019623000000000002
sS'collaboration'
p143
F0.0069049999999999997
sS'project'
p144
F0.011365
sS'architect'
p145
F0.035421000000000001
sS"company's"
p146
F0.012267
sS'procedure'
p147
F0.0086479999999999994
sS'proof'
p148
F0.015232000000000001
sS'process-oriented focus'
p149
F0.027393000000000001
sS'expanding'
p150
F0.013920999999999999
sS'data enrichment provider'
p151
F0.024961000000000001
sS'share'
p152
F0.0094990000000000005
sS'6 year'
p153
F0.025492000000000001
sS'high'
p154
F0.017729000000000002
sS'engineering'
p155
F0.004738
sS'expertise'
p156
F0.0047219999999999996
sS'audience measurement product'
p157
F0.024961000000000001
sS'need'
p158
F0.007548
sS'technology'
p159
F0.012730999999999999
sS'competency'
p160
F0.013958999999999999
sS'develop'
p161
F0.0054739999999999997
sS'variety'
p162
F0.0069509999999999997
sS'perform'
p163
F0.0062459999999999998
sS'media'
p164
F0.015893999999999998
sS'travel'
p165
F0.0079979999999999999
sS'responsible'
p166
F0.0043210000000000002
sS'market research'
p167
F0.014770999999999999
sS'application'
p168
F0.034459999999999998
sS'methodology'
p169
F0.0061619999999999999
sS'complex'
p170
F0.016678999999999999
sS'role'
p171
F0.0036489999999999999
sS'build'
p172
F0.0034220000000000001
sS'digital'
p173
F0.0077039999999999999
sS'document'
p174
F0.016825
sS'3 year'
p175
F0.024868000000000001
sS'tool'
p176
F0.0025330000000000001
sS'conducive'
p177
F0.024961000000000001
sS'development'
p178
F0.0023540000000000002
sS'product'
p179
F0.0052989999999999999
sS'practice'
p180
F0.013964000000000001
sS'multiple'
p181
F0.0067739999999999996
sS'description'
p182
F0.0072589999999999998
sS'schedule full-time'
p183
F0.012411
sS'comprehensive'
p184
F0.010326999999999999
sS'position requires'
p185
F0.012174000000000001
sS'qualifications'
p186
F0.0042290000000000001
sS'plan'
p187
F0.013344999999999999
sS'quick inexpensive system delivery'
p188
F0.024961000000000001
sS'requirements'
p189
F0.00628
sS'extremely'
p190
F0.016098000000000001
sS'structure'
p191
F0.010340999999999999
sS'network'
p192
F0.0073509999999999999
sS'building'
p193
F0.013715
sS'task'
p194
F0.0072870000000000001
sS'database'
p195
F0.0051780000000000003
sS'properly plan'
p196
F0.024961000000000001
sS'well'
p197
F0.0041469999999999996
sS'4 year experience developing'
p198
F0.02597
sS'conceptual design consisting'
p199
F0.02597
sS'provide'
p200
F0.0035669999999999999
sS'complexity'
p201
F0.012562
sS'client'
p202
F0.004483
sS'principle'
p203
F0.0096179999999999998
sS'position'
p204
F0.0034489999999999998
sS'corporate'
p205
F0.008992
sS'order'
p206
F0.0077299999999999999
sS'equivalent work experience'
p207
F0.013597
s.