(dp1
S'qualitative research'
p2
F0.020548
sS'-'
F0.005777
sS'focus'
p3
F0.007626
sS'leads'
p4
F0.014962
sS'executing'
p5
F0.013247999999999999
sS'including'
p6
F0.0097999999999999997
sS'committed'
p7
F0.0062740000000000001
sS'related field'
p8
F0.0064289999999999998
sS'staff'
p9
F0.018497
sS'group'
p10
F0.0068539999999999998
sS'knowledge'
p11
F0.0035490000000000001
sS'application'
p12
F0.0042129999999999997
sS'implementation'
p13
F0.026342000000000001
sS'writing'
p14
F0.018867999999999999
sS'environment'
p15
F0.0044689999999999999
sS'instrument'
p16
F0.024334999999999999
sS'ri-outcomes research'
p17
F0.032819000000000001
sS'clinical fellowsto ensure'
p18
F0.032819000000000001
sS'include'
p19
F0.0072129999999999998
sS'interprets'
p20
F0.017416999999999998
sS'correspondence'
p21
F0.030141999999999999
sS'designs'
p22
F0.016642000000000001
sS'within'
p23
F0.0046350000000000002
sS'broadly'
p24
F0.021252
sS'professional'
p25
F0.0067990000000000004
sS'preferred'
p26
F0.011105
sS'job requirements'
p27
F0.014367
sS'department'
p28
F0.0088870000000000008
sS'coordinating'
p29
F0.015115999999999999
sS'report'
p30
F0.005378
sS'resource'
p31
F0.0082780000000000006
sS'able tosecure sponsored'
p32
F0.032819000000000001
sS'investigator'
p33
F0.064976999999999993
sS'senior-level audience'
p34
F0.026605
sS'university'
p35
F0.012747
sS'accordance'
p36
F0.015576
sS'serves'
p37
F0.019203000000000001
sS'specific'
p38
F0.0083870000000000004
sS'7 year'
p39
F0.012083
sS"florida-miami-nicklaus children's hospital"
p40
F0.032819000000000001
sS'affiliate'
p41
F0.02479
sS'activity'
p42
F0.016001000000000001
sS'development'
p43
F0.0051809999999999998
sS'achieving excellence'
p44
F0.025305999999999999
sS'work independently'
p45
F0.010732999999999999
sS'researcher biostatisticians data scientist'
p46
F0.032819000000000001
sS'direct'
p47
F0.010900999999999999
sS'related'
p48
F0.0053680000000000004
sS'presentation'
p49
F0.014768999999999999
sS'recruitment'
p50
F0.033893
sS'full time'
p51
F0.012137
sS'design'
p52
F0.0031939999999999998
sS'variety'
p53
F0.0076490000000000004
sS'pursues independent'
p54
F0.032819000000000001
sS'monitors progress'
p55
F0.032819000000000001
sS'scientific'
p56
F0.0099869999999999994
sS'established'
p57
F0.011707
sS'funding'
p58
F0.036775000000000002
sS'psychology'
p59
F0.022629
sS'collaborates'
p60
F0.028292000000000001
sS'managing'
p61
F0.0086800000000000002
sS'protocol'
p62
F0.034417000000000003
sS'research'
p63
F0.031905000000000003
sS'contributing'
p64
F0.013396
sS'provides'
p65
F0.0084849999999999995
sS'designing'
p66
F0.0092919999999999999
sS'complex data'
p67
F0.014532
sS'progress'
p68
F0.013738999999999999
sS'contributes'
p69
F0.017562999999999999
sS'method'
p70
F0.0054000000000000003
sS'prior experience developing'
p71
F0.026605
sS'creating'
p72
F0.0078289999999999992
sS'makes decision'
p73
F0.027466000000000001
sS'ability'
p74
F0.0021930000000000001
sS'subject matter expert'
p75
F0.011690000000000001
sS'team'
p76
F0.0014760000000000001
sS'analyzes'
p77
F0.014670000000000001
sS'implementing'
p78
F0.0093530000000000002
sS'job'
p79
F0.013788999999999999
sS'key'
p80
F0.0061869999999999998
sS'project budget'
p81
F0.021659000000000001
sS'knowledge ofresearch principle'
p82
F0.032819000000000001
sS'publication'
p83
F0.028353
sS'primary location'
p84
F0.011756000000000001
sS'high level'
p85
F0.011771999999999999
sS'epidemiology'
p86
F0.021063999999999999
sS'technical'
p87
F0.0036709999999999998
sS'study'
p88
F0.084767999999999996
sS'health outcome'
p89
F0.018575999999999999
sS'experience'
p90
F0.002163
sS'data interpretation'
p91
F0.02479
sS'mentor'
p92
F0.010547000000000001
sS'oversees'
p93
F0.021252
sS'implement'
p94
F0.0054640000000000001
sS'hospital'
p95
F0.017416999999999998
sS'conduct research'
p96
F0.018674
sS'manuscript'
p97
F0.047121000000000003
sS'researcher'
p98
F0.012460000000000001
sS'manage'
p99
F0.0064869999999999997
sS'collaborating'
p100
F0.012540000000000001
sS'commitment'
p101
F0.010980999999999999
sS'highly'
p102
F0.0088240000000000002
sS'minimum'
p103
F0.0072129999999999998
sS'initiative'
p104
F0.014612
sS'trainee'
p105
F0.032819000000000001
sS'quality'
p106
F0.012916
sS'research focuses'
p107
F0.032819000000000001
sS'ensures'
p108
F0.013851
sS'management'
p109
F0.0043660000000000001
sS'job summary'
p110
F0.014024999999999999
sS'area'
p111
F0.0052440000000000004
sS'leading'
p112
F0.0055329999999999997
sS'support'
p113
F0.002643
sS'question'
p114
F0.017257999999999999
sS'system'
p115
F0.0035490000000000001
sS'strategy'
p116
F0.0054479999999999997
sS'priority'
p117
F0.011147000000000001
sS'clinical'
p118
F0.036687999999999998
sS'time'
p119
F0.0058589999999999996
sS'collaborator'
p120
F0.021063999999999999
sS'developing'
p121
F0.0052230000000000002
sS'eg'
p122
F0.0076540000000000002
sS'knowledge skills abilities'
p123
F0.020390999999999999
sS'clinical research'
p124
F0.020239
sS'function'
p125
F0.0081340000000000006
sS'main'
p126
F0.018207999999999998
sS'life'
p127
F0.012767000000000001
sS'form'
p128
F0.01244
sS'tool'
p129
F0.002787
sS'acquire'
p130
F0.017010000000000001
sS'precision'
p131
F0.017416999999999998
sS'train'
p132
F0.014886999999999999
sS'present'
p133
F0.0088400000000000006
sS'pilot'
p134
F0.018877000000000001
sS'data collection'
p135
F0.039037000000000002
sS'day-to-day operation'
p136
F0.021659000000000001
sS'research expertiseparticipates'
p137
F0.032819000000000001
sS'science'
p138
F0.034574000000000001
sS'preparation'
p139
F0.030473
sS'detail oriented'
p140
F0.016306999999999999
sS'including grantsmanship'
p141
F0.032819000000000001
sS'ongoing'
p142
F0.010968
sS'behavioral'
p143
F0.015037999999999999
sS'irb authoring consent form'
p144
F0.032819000000000001
sS'problem'
p145
F0.0053429999999999997
sS'providing'
p146
F0.0066860000000000001
sS'study design'
p147
F0.020884
sS'personalized medicine'
p148
F0.057154000000000003
sS'highly motivated'
p149
F0.014886999999999999
sS'project coordinator'
p150
F0.032819000000000001
sS'required'
p151
F0.003741
sS'project'
p152
F0.0062529999999999999
sS'resident'
p153
F0.023928000000000001
sS'contribute'
p154
F0.0090390000000000002
sS'research scientist-12227'
p155
F0.032819000000000001
sS'multi-site research'
p156
F0.032819000000000001
sS'contract'
p157
F0.012834
sS'population health'
p158
F0.02145
sS'campus'
p159
F0.019203000000000001
sS'supervising live'
p160
F0.032819000000000001
sS'productivity'
p161
F0.014532
sS'interdisciplinary'
p162
F0.020548
sS'etc'
p163
F0.0055589999999999997
sS'discussion'
p164
F0.014085
sS'agency'
p165
F0.011658
sS'able'
p166
F0.029874999999999999
sS'also'
p167
F0.0063959999999999998
sS'setting'
p168
F0.010862
sS'responsibility'
p169
F0.0076429999999999996
sS'objective'
p170
F0.018061000000000001
sS'consultation'
p171
F0.015576
sS'extramural grant'
p172
F0.032819000000000001
sS'5-7 year experience'
p173
F0.030141999999999999
sS'5-7 year'
p174
F0.017638000000000001
sS'met'
p175
F0.014600999999999999
sS'description'
p176
F0.0079880000000000003
sS'collaborative'
p177
F0.010125
sS'reporting'
p178
F0.0079450000000000007
sS'qualifications'
p179
F0.0046540000000000002
sS'negotiate'
p180
F0.019817999999999999
sS'phd'
p181
F0.0061989999999999996
sS'data analysis'
p182
F0.0074710000000000002
sS'quantitative'
p183
F0.0071679999999999999
sS'develop'
p184
F0.0060239999999999998
sS'team environment'
p185
F0.012460000000000001
sS'graduate student'
p186
F0.027466000000000001
sS'tracking'
p187
F0.013370999999999999
sS'essential duties'
p188
F0.016527
sS'center'
p189
F0.010234999999999999
sS'database'
p190
F0.011395000000000001
sS'medical'
p191
F0.01244
sS'grant'
p192
F0.022363000000000001
sS'academic'
p193
F0.011516
sS'maintain'
p194
F0.0071479999999999998
sS'status'
p195
F0.0087250000000000001
sS'healthcare'
p196
F0.0088629999999999994
sS'organization'
p197
F0.013003000000000001
sS'senior'
p198
F0.0078779999999999996
sS'validation'
p199
F0.011105
sS'resolution'
p200
F0.013937
s.