(dp1
S'code'
p2
F0.0021099999999999999
sS'micro-management'
p3
F0.0064159999999999998
sS'global'
p4
F0.0053530000000000001
sS'dynamic'
p5
F0.0023540000000000002
sS'focus'
p6
F0.0020449999999999999
sS'month'
p7
F0.0041180000000000001
sS'country'
p8
F0.0033249999999999998
sS'strong verbal'
p9
F0.004431
sS'concept'
p10
F0.0060530000000000002
sS'go'
p11
F0.0031480000000000002
sS'follow'
p12
F0.0039329999999999999
sS'spread across multiple geography'
p13
F0.0076620000000000004
sS'mpp big data'
p14
F0.0065250000000000004
sS'technique'
p15
F0.0014040000000000001
sS'strong collaborator'
p16
F0.0059959999999999996
sS'foster'
p17
F0.0035330000000000001
sS'hence improve'
p18
F0.0076620000000000004
sS'suite'
p19
F0.0036549999999999998
sS'collaborate'
p20
F0.001763
sS'attractive incentive'
p21
F0.0064159999999999998
sS'software engineers forming'
p22
F0.0064159999999999998
sS'based vms'
p23
F0.0064159999999999998
sS'relevant experience'
p24
F0.0061500000000000001
sS'achieve swiss-watch level'
p25
F0.0076620000000000004
sS'various message distribution'
p26
F0.0071329999999999996
sS'micromanage'
p27
F0.0064159999999999998
sS'difference'
p28
F0.0025609999999999999
sS'entire'
p29
F0.0037450000000000001
sS'weve embraced'
p30
F0.0087989999999999995
sS'bring'
p31
F0.0037000000000000002
sS'solution'
p32
F0.002944
sS'leave'
p33
F0.0047499999999999999
sS'adjust'
p34
F0.0053870000000000003
sS'high throughput consistent'
p35
F0.0064159999999999998
sS'revolutionary sensor ip genscapes offering'
p36
F0.0087989999999999995
sS'team'
p37
F0.011079
sS'communication removing impediment'
p38
F0.0076620000000000004
sS'planning grooming stand-ups retrospective etc'
p39
F0.0076620000000000004
sS'enjoy'
p40
F0.030162000000000001
sS'bug fix enhancement'
p41
F0.0065250000000000004
sS'intrinsic meaning'
p42
F0.0076620000000000004
sS'folk enjoy'
p43
F0.0064159999999999998
sS'pulse'
p44
F0.0069439999999999997
sS'operation tooling'
p45
F0.0076620000000000004
sS'thinker'
p46
F0.004431
sS'design'
p47
F0.00085599999999999999
sS'value'
p48
F0.0035379999999999999
sS'culture fostered'
p49
F0.0064159999999999998
sS'clock'
p50
F0.0063169999999999997
sS'video conferencing'
p51
F0.0064159999999999998
sS'pure technologist'
p52
F0.0076620000000000004
sS'across many'
p53
F0.010933999999999999
sS'real-time wall street trader'
p54
F0.0065250000000000004
sS'direct reflection'
p55
F0.0064159999999999998
sS'physically co-located'
p56
F0.0064159999999999998
sS'designing'
p57
F0.0024910000000000002
sS'technology'
p58
F0.0090150000000000004
sS'arent satisfied'
p59
F0.0087989999999999995
sS'method'
p60
F0.0014480000000000001
sS'supporting'
p61
F0.0072639999999999996
sS'bring winning team'
p62
F0.0064159999999999998
sS'manage business-critical 24-hour operational'
p63
F0.0064159999999999998
sS'leveraging'
p64
F0.0026229999999999999
sS'commercial'
p65
F0.0028839999999999998
sS'problem amid noise'
p66
F0.0076620000000000004
sS'understanding'
p67
F0.00133
sS'explore'
p68
F0.0028879999999999999
sS'focused'
p69
F0.0068360000000000001
sS'others'
p70
F0.0021020000000000001
sS'strong'
p71
F0.00315
sS'change'
p72
F0.0018860000000000001
sS'software development'
p73
F0.0075449999999999996
sS'agile scrum'
p74
F0.0049059999999999998
sS'technical'
p75
F0.00098400000000000007
sS'allows'
p76
F0.0042890000000000003
sS'experience'
p77
F0.001934
sS'mentor'
p78
F0.0028279999999999998
sS'greatest asset'
p79
F0.0054669999999999996
sS'external customer'
p80
F0.0041180000000000001
sS'love'
p81
F0.008286
sS'detailed knowledge'
p82
F0.0060670000000000003
sS'punching'
p83
F0.0064159999999999998
sS'apply'
p84
F0.001454
sS'financial trader'
p85
F0.0064159999999999998
sS'market'
p86
F0.0019480000000000001
sS'first 60 days'
p87
F0.0064159999999999998
sS'use'
p88
F0.0011199999999999999
sS'honing'
p89
F0.0066470000000000001
sS'working'
p90
F0.0033679999999999999
sS'product owner'
p91
F0.015925999999999999
sS'captured via patented sensor technology'
p92
F0.0064159999999999998
sS'live'
p93
F0.0033790000000000001
sS'awesome team---if'
p94
F0.0064159999999999998
sS'msc'
p95
F0.0055989999999999998
sS'theoretical'
p96
F0.0047289999999999997
sS'today'
p97
F0.003235
sS'qa practitioner'
p98
F0.0064159999999999998
sS'successful'
p99
F0.0025839999999999999
sS'company'
p100
F0.003166
sS'training'
p101
F0.0020600000000000002
sS'created within genscape'
p102
F0.0064159999999999998
sS'niche provider'
p103
F0.0064159999999999998
sS'excellent'
p104
F0.0064050000000000001
sS'effort'
p105
F0.0020790000000000001
sS'must'
p106
F0.004333
sS'customer'
p107
F0.00090499999999999999
sS'join'
p108
F0.0015460000000000001
sS'qa---both local'
p109
F0.0076620000000000004
sS'challenge'
p110
F0.0019499999999999999
sS'work'
p111
F0.0025240000000000002
sS'dev'
p112
F0.0059290000000000002
sS'evolved'
p113
F0.0062269999999999999
sS'learn'
p114
F0.0019710000000000001
sS'following'
p115
F0.0018799999999999999
sS'technology applicationscould'
p116
F0.0076620000000000004
sS'dedicated'
p117
F0.0029740000000000001
sS'challenging'
p118
F0.0028779999999999999
sS'give'
p119
F0.0071840000000000003
sS'process'
p120
F0.0052389999999999997
sS'high'
p121
F0.0026150000000000001
sS'effectively'
p122
F0.004365
sS'want'
p123
F0.0020149999999999999
sS'engineering math physics'
p124
F0.0064159999999999998
sS'information'
p125
F0.001196
sS'minimal supervision'
p126
F0.0040740000000000004
sS'please pas'
p127
F0.0064159999999999998
sS'provide'
p128
F0.001052
sS'innovation competitions'
p129
F0.0064159999999999998
sS'discussion'
p130
F0.0037759999999999998
sS'feature'
p131
F0.0053439999999999998
sS'sharing observation'
p132
F0.0076620000000000004
sS'enjoy going above-and-beyond'
p133
F0.0087989999999999995
sS'plus'
p134
F0.0015889999999999999
sS'across multiple'
p135
F0.0033679999999999999
sS'overall project'
p136
F0.0062269999999999999
sS'technologist data scientist'
p137
F0.0058069999999999997
sS'product'
p138
F0.003908
sS'intended'
p139
F0.0045779999999999996
sS'may'
p140
F0.0020309999999999998
sS'near-'
p141
F0.0076620000000000004
sS'communicator'
p142
F0.0049059999999999998
sS'data'
p143
F0.00050500000000000002
sS'huge bonus'
p144
F0.0064159999999999998
sS'effective'
p145
F0.002294
sS'exceptional contributor'
p146
F0.012831
sS'also savvy'
p147
F0.0076620000000000004
sS'appreciate'
p148
F0.0049810000000000002
sS'multiple os scripting'
p149
F0.0067850000000000002
sS'rather'
p150
F0.010179000000000001
sS'maintain'
p151
F0.001916
sS'embrace continual improvement'
p152
F0.0076620000000000004
sS'talk'
p153
F0.003578
sS'serving'
p154
F0.011743999999999999
sS'feedback'
p155
F0.003578
sS'office'
p156
F0.0020040000000000001
sS'experience working'
p157
F0.0038649999999999999
sS'essence'
p158
F0.0058069999999999997
sS'insight'
p159
F0.0013749999999999999
sS'mission'
p160
F0.0018630000000000001
sS'course'
p161
F0.0032490000000000002
sS'including'
p162
F0.00087600000000000004
sS'innovative'
p163
F0.001768
sS'mentioned'
p164
F0.0059959999999999996
sS'fast-paced entrepreneurial environment'
p165
F0.0056480000000000002
sS'left-and-right brain balanced'
p166
F0.0064159999999999998
sS'developer'
p167
F0.0046950000000000004
sS'various flavor'
p168
F0.0064159999999999998
sS'new data management'
p169
F0.0061440000000000002
sS'platform'
p170
F0.001423
sS'coaching'
p171
F0.0038180000000000002
sS'scrum team'
p172
F0.025744
sS'coordinated'
p173
F0.0071329999999999996
sS'talent pool'
p174
F0.0061440000000000002
sS'autonomous environment'
p175
F0.0063169999999999997
sS'expedient accelerated delivery'
p176
F0.0076620000000000004
sS'good'
p177
F0.002251
sS'flexible work hour'
p178
F0.0062269999999999999
sS'seeking'
p179
F0.001864
sS'pace diligence'
p180
F0.0076620000000000004
sS'practice'
p181
F0.0020600000000000002
sS'framework'
p182
F0.0061289999999999999
sS'well served'
p183
F0.0076620000000000004
sS'larger goal'
p184
F0.0059959999999999996
sS'one'
p185
F0.001196
sS'nucleus'
p186
F0.0076620000000000004
sS'masters'
p187
F0.002898
sS'5 comp-sci program'
p188
F0.0065250000000000004
sS'remove mitigate resolve impediment'
p189
F0.0076620000000000004
sS'always'
p190
F0.0039430000000000003
sS'software development factory'
p191
F0.0076620000000000004
sS'product developers product owners'
p192
F0.0076620000000000004
sS'master data management'
p193
F0.0052119999999999996
sS'business rule intensive system'
p194
F0.0076620000000000004
sS'self-motivation'
p195
F0.0056979999999999999
sS'30 days'
p196
F0.0064159999999999998
sS'mean'
p197
F0.0033300000000000001
sS'software data-based product'
p198
F0.0064159999999999998
sS'directly'
p199
F0.0030119999999999999
sS'coding'
p200
F0.0030230000000000001
sS'eg'
p201
F0.002052
sS'idea'
p202
F0.0046109999999999996
sS'organic development'
p203
F0.0073639999999999999
sS'connect'
p204
F0.0037929999999999999
sS'sprint planning'
p205
F0.0059290000000000002
sS'clock-puncher'
p206
F0.0087989999999999995
sS'operation'
p207
F0.007633
sS'beyond'
p208
F0.0032989999999999998
sS'project manager'
p209
F0.0039050000000000001
sS'living'
p210
F0.0053870000000000003
sS'driving'
p211
F0.002539
sS'space'
p212
F0.0029020000000000001
sS'quality'
p213
F0.0051939999999999998
sS'empirical data'
p214
F0.0066470000000000001
sS'looking'
p215
F0.0014040000000000001
sS'happy team'
p216
F0.0064159999999999998
sS'adapt'
p217
F0.003545
sS'excellence'
p218
F0.0073769999999999999
sS'objectivity'
p219
F0.0056979999999999999
sS'issue'
p220
F0.00183
sS'architecture'
p221
F0.0020040000000000001
sS'remote employee'
p222
F0.0059959999999999996
sS'workflow'
p223
F0.0065779999999999996
sS'soft skill'
p224
F0.0062269999999999999
sS'standard'
p225
F0.0037980000000000002
sS'imagine'
p226
F0.0051190000000000003
sS'certified'
p227
F0.0047699999999999999
sS'life balance'
p228
F0.0049810000000000002
sS'written communication skill'
p229
F0.0026949999999999999
sS'created'
p230
F0.0044010000000000004
sS'enjoy working'
p231
F0.0040959999999999998
sS'keep'
p232
F0.0095639999999999996
sS'previously mentioned many'
p233
F0.0064159999999999998
sS'retail'
p234
F0.0031879999999999999
sS'facilitate'
p235
F0.0031340000000000001
sS'interact'
p236
F0.0028059999999999999
sS'first'
p237
F0.004914
sS'dont'
p238
F0.014441000000000001
sS'latest greatest development'
p239
F0.0064159999999999998
sS'technical acumen'
p240
F0.0055989999999999998
sS'strategic'
p241
F0.0054939999999999998
sS'self-driven'
p242
F0.0051799999999999997
sS'sufficient seniority maturity'
p243
F0.0076620000000000004
sS'app-dev software'
p244
F0.0076620000000000004
sS'accountability'
p245
F0.0039150000000000001
sS'open'
p246
F0.0084360000000000008
sS'engineer'
p247
F0.0070489999999999997
sS'management'
p248
F0.0023410000000000002
sS'overtime'
p249
F0.0048820000000000001
sS'leading'
p250
F0.00445
sS'top'
p251
F0.0049550000000000002
sS'system'
p252
F0.0028549999999999999
sS'subject matter experts smes'
p253
F0.0063169999999999997
sS'agility'
p254
F0.0050070000000000002
sS'relationship'
p255
F0.00216
sS'tool'
p256
F0.0044840000000000001
sS'innovate'
p257
F0.0034949999999999998
sS'part'
p258
F0.0014159999999999999
sS'team member'
p259
F0.0041380000000000002
sS'believe'
p260
F0.00643
sS'work closely'
p261
F0.0020990000000000002
sS'culture'
p262
F0.010593
sS'science engineering'
p263
F0.005751
sS'project'
p264
F0.0033530000000000001
sS'internal external'
p265
F0.0055529999999999998
sS'future'
p266
F0.0015770000000000001
sS'architect'
p267
F0.0026129999999999999
sS'enables'
p268
F0.0041999999999999997
sS'outstanding'
p269
F0.0037060000000000001
sS'upcoming year'
p270
F0.0064159999999999998
sS'comfortable'
p271
F0.0028839999999999998
sS'say'
p272
F0.0046509999999999998
sS'need'
p273
F0.0033400000000000001
sS'viewed'
p274
F0.0056480000000000002
sS'composing music rock-climbing leading'
p275
F0.0064159999999999998
sS'built'
p276
F0.0032590000000000002
sS'user experience'
p277
F0.0063039999999999997
sS'able'
p278
F0.0016019999999999999
sS'majority'
p279
F0.0098110000000000003
sS'high energy'
p280
F0.0054669999999999996
sS'build'
p281
F0.003029
sS'online'
p282
F0.002709
sS'collaboration'
p283
F0.0081480000000000007
sS'aws'
p284
F0.0028410000000000002
sS'paid'
p285
F0.0039719999999999998
sS'plan'
p286
F0.0019689999999999998
sS'organization'
p287
F0.0011620000000000001
sS'bi-weekly sprint'
p288
F0.0064159999999999998
sS'hands-on'
p289
F0.002895
sS'sql server'
p290
F0.0041070000000000004
sS'proud'
p291
F0.002774
sS'drive'
p292
F0.00133
sS'doe'
p293
F0.0035720000000000001
sS'love data'
p294
F0.005313
sS'enterprise'
p295
F0.001918
sS'verbal communication skill'
p296
F0.0032940000000000001
sS'senior'
p297
F0.0021120000000000002
sS'consumer'
p298
F0.0021649999999999998
sS'data lifecycle management'
p299
F0.0064159999999999998
sS'team player'
p300
F0.0031649999999999998
sS'awesome technology'
p301
F0.0064159999999999998
sS'friction'
p302
F0.0073639999999999999
sS'product owners'
p303
F0.013049
sS'find'
p304
F0.0049500000000000004
sS'geography'
p305
F0.0046699999999999997
sS'impact'
p306
F0.0036310000000000001
sS'knowledge'
p307
F0.0047580000000000001
sS'explain'
p308
F0.0034120000000000001
sS'distributed'
p309
F0.0056880000000000003
sS'operational'
p310
F0.0022230000000000001
sS'solidify vague request'
p311
F0.0076620000000000004
sS'empirical evidence'
p312
F0.0073639999999999999
sS'excellent written'
p313
F0.003225
sS'employee'
p314
F0.0037100000000000002
sS'enthusiasm'
p315
F0.0046889999999999996
sS'also work'
p316
F0.0040959999999999998
sS'iaas service'
p317
F0.0064159999999999998
sS'get'
p318
F0.0046829999999999997
sS'overall'
p319
F0.002539
sS'geek'
p320
F0.0065250000000000004
sS'remarkably passionate'
p321
F0.0064159999999999998
sS'internal contest'
p322
F0.0064159999999999998
sS'distraction'
p323
F0.0076620000000000004
sS'portion'
p324
F0.0059290000000000002
sS'manager'
p325
F0.0020539999999999998
sS'expect demand'
p326
F0.0064159999999999998
sS'activity'
p327
F0.0042900000000000004
sS'analytical'
p328
F0.00141
sS'vision'
p329
F0.0022539999999999999
sS'aspect'
p330
F0.0052620000000000002
sS'hard-products business rather'
p331
F0.0064159999999999998
sS'globe'
p332
F0.0025270000000000002
sS'enjoying continual improvement'
p333
F0.0076620000000000004
sS'see'
p334
F0.0082769999999999996
sS'individual'
p335
F0.0065859999999999998
sS'result'
p336
F0.0040119999999999999
sS'software dev'
p337
F0.0064159999999999998
sS'scrum-of-scrums'
p338
F0.0076620000000000004
sS'encouraged'
p339
F0.003264
sS'serf'
p340
F0.0039909999999999998
sS'expert'
p341
F0.0019659999999999999
sS'conduct research'
p342
F0.0050070000000000002
sS'interesting hobby'
p343
F0.0064159999999999998
sS'please'
p344
F0.0031089999999999998
sS'various'
p345
F0.003578
sS'teaching'
p346
F0.0047699999999999999
sS'progress'
p347
F0.0036840000000000002
sS'youll'
p348
F0.0033509999999999998
sS'across'
p349
F0.0046280000000000002
sS'extremely talented'
p350
F0.0063169999999999997
sS'ability'
p351
F0.0029390000000000002
sS'software dev team'
p352
F0.0076620000000000004
sS'deliver'
p353
F0.0014120000000000001
sS'sold'
p354
F0.0055989999999999998
sS'handful'
p355
F0.0067850000000000002
sS'genscape'
p356
F0.019247
sS'however'
p357
F0.009672
sS'dual-home'
p358
F0.0064159999999999998
sS'efficiency'
p359
F0.00611
sS'job'
p360
F0.001232
sS'succeed'
p361
F0.0039050000000000001
sS'key'
p362
F0.0049769999999999997
sS'come'
p363
F0.0077520000000000002
sS'improve'
p364
F0.0015579999999999999
sS'protect'
p365
F0.0086599999999999993
sS'improved'
p366
F0.0042500000000000003
sS'transparency'
p367
F0.0047499999999999999
sS'genscapes product offering'
p368
F0.0087989999999999995
sS'career'
p369
F0.0065420000000000001
sS'many'
p370
F0.0025920000000000001
sS'annual'
p371
F0.003852
sS'participating'
p372
F0.0043299999999999996
sS'etc'
p373
F0.0029810000000000001
sS'highly collaborative team environment'
p374
F0.0062269999999999999
sS'acquired product'
p375
F0.0064159999999999998
sS'tactical'
p376
F0.0039240000000000004
sS'long-term'
p377
F0.0038609999999999998
sS'embrace scrum'
p378
F0.012831
sS'initiative'
p379
F0.0019589999999999998
sS'learning'
p380
F0.0022769999999999999
sS'throughout'
p381
F0.0027179999999999999
sS'related field'
p382
F0.0017240000000000001
sS'scrum master'
p383
F0.034188000000000003
sS'keyboard cranking code'
p384
F0.0064159999999999998
sS'create'
p385
F0.0013910000000000001
sS'globally distributed'
p386
F0.0054669999999999996
sS'strategy'
p387
F0.0014610000000000001
sS'much'
p388
F0.004176
sS'seasoned'
p389
F0.022398000000000001
sS'interest'
p390
F0.0079019999999999993
sS'basic'
p391
F0.003088
sS'high volume'
p392
F0.004561
sS'meeting'
p393
F0.0030590000000000001
sS'direction'
p394
F0.0024369999999999999
sS'enable'
p395
F0.0023389999999999999
sS'based paas'
p396
F0.0064159999999999998
sS'champion'
p397
F0.0040220000000000004
sS'retrospective'
p398
F0.0073639999999999999
sS'way hence'
p399
F0.0076620000000000004
sS'wish'
p400
F0.0064159999999999998
sS'understand'
p401
F0.0029489999999999998
sS'present'
p402
F0.0023700000000000001
sS'talented'
p403
F0.003039
sS'look'
p404
F0.0032989999999999998
sS'day-to-day operation'
p405
F0.0058069999999999997
sS'developing'
p406
F0.0014
sS'real business problem'
p407
F0.0050340000000000003
sS'optimization'
p408
F0.0064650000000000003
sS'applies'
p409
F0.0033570000000000002
sS'fun'
p410
F0.0030709999999999999
sS'ideally suit'
p411
F0.0076620000000000004
sS'balance'
p412
F0.0036840000000000002
sS'guide'
p413
F0.0029229999999999998
sS'layer'
p414
F0.0051799999999999997
sS'would'
p415
F0.011273
sS'metric'
p416
F0.007783
sS'others attend stand-ups remotely via'
p417
F0.0064159999999999998
sS'encouragement'
p418
F0.0054260000000000003
sS'hardware'
p419
F0.0034949999999999998
sS'embrace'
p420
F0.0038609999999999998
sS'environment conducive'
p421
F0.0076620000000000004
sS'diagnostic'
p422
F0.0050610000000000004
sS'continually improve'
p423
F0.0055529999999999998
sS'capture'
p424
F0.0040639999999999999
sS'uptime'
p425
F0.0062269999999999999
sS'develop'
p426
F0.0016149999999999999
sS'java c'
p427
F0.0047920000000000003
sS'working relationship'
p428
F0.0039519999999999998
sS'make'
p429
F0.003934
sS'another'
p430
F0.0046889999999999996
sS'big'
p431
F0.0060080000000000003
sS'band restoring snow cat welding artwork'
p432
F0.0064159999999999998
sS'intermediary'
p433
F0.0076620000000000004
sS'development'
p434
F0.001389
sS'evolve'
p435
F0.0038349999999999999
sS'used'
p436
F0.0021740000000000002
sS'practitioner'
p437
F0.014645999999999999
sS'great opportunity'
p438
F0.0045960000000000003
sS'reporting'
p439
F0.0021299999999999999
sS'want folk'
p440
F0.0064159999999999998
sS'phd'
p441
F0.0033240000000000001
sS'changing'
p442
F0.0034009999999999999
sS'stack'
p443
F0.0036050000000000001
sS'expand'
p444
F0.007489
sS'cycle'
p445
F0.016428000000000002
sS'center'
p446
F0.0027439999999999999
sS'minimize'
p447
F0.0059959999999999996
sS'love---explore innovate'
p448
F0.0064159999999999998
sS'youre'
p449
F0.0085000000000000006
sS'well'
p450
F0.006117
sS'analysis'
p451
F0.00084800000000000001
sS'client'
p452
F0.001323
sS'solve'
p453
F0.0041050000000000001
sS'position'
p454
F0.0020349999999999999
sS'model'
p455
F0.001031
sS'reward'
p456
F0.004372
sS'scrum artifact visible'
p457
F0.0076620000000000004
sS'sql azure aws rds'
p458
F0.0064159999999999998
sS'tech summit'
p459
F0.0064159999999999998
sS'detail'
p460
F0.0023809999999999999
sS'identify'
p461
F0.001426
sS'human'
p462
F0.003441
sS'day-to-day'
p463
F0.0041640000000000002
sS'yet'
p464
F0.0047289999999999997
sS'captured'
p465
F0.0059959999999999996
sS'excellent interpersonal skill'
p466
F0.0049810000000000002
sS'also'
p467
F0.008574
sS'agile'
p468
F0.011024000000000001
sS'help'
p469
F0.002055
sS'tackling organic development'
p470
F0.0064159999999999998
sS'internal'
p471
F0.0033180000000000002
sS'board'
p472
F0.0049810000000000002
sS'love data mid-tier'
p473
F0.0071329999999999996
sS'transformation'
p474
F0.0030590000000000001
sS'kanban'
p475
F0.0063169999999999997
sS'evaluate'
p476
F0.0023830000000000001
sS'injection'
p477
F0.0076620000000000004
sS'possible'
p478
F0.0060540000000000004
sS'know'
p479
F0.010347
sS'world-class'
p480
F0.0035850000000000001
sS'necessary'
p481
F0.0028479999999999998
sS'like'
p482
F0.0022290000000000001
sS'success'
p483
F0.001836
sS'identifying'
p484
F0.0027680000000000001
sS'external interference'
p485
F0.0076620000000000004
sS'manual'
p486
F0.0050340000000000003
sS'benefit'
p487
F0.0043200000000000001
sS'continue'
p488
F0.0025149999999999999
sS'either'
p489
F0.0033040000000000001
sS'drive toward excellence'
p490
F0.0064159999999999998
sS'simply'
p491
F0.005313
sS'computer-science'
p492
F0.0071329999999999996
sS'passionate'
p493
F0.0042240000000000003
sS'essential'
p494
F0.003545
sS'etl messaging pub-sub system'
p495
F0.0065250000000000004
sS'right'
p496
F0.0024910000000000002
sS'delivery throughput'
p497
F0.0064159999999999998
sS'people'
p498
F0.002679
sS'new technology prioritizing product'
p499
F0.0064159999999999998
sS'back'
p500
F0.0039909999999999998
sS'numerous perk including conference f2f training'
p501
F0.0064159999999999998
sS'hopefully invited team meeting'
p502
F0.0064159999999999998
sS'home'
p503
F0.0033349999999999999
sS'sprint'
p504
F0.021706
sS'capability'
p505
F0.001802
sS'technologist'
p506
F0.014449
sS'integration'
p507
F0.0023019999999999998
sS'critical'
p508
F0.0090170000000000007
sS'passion'
p509
F0.0060530000000000002
sS'cloud'
p510
F0.0090620000000000006
sS'innovation'
p511
F0.001616
sS'critical thinking skill'
p512
F0.004431
sS'scrum master possibly dev'
p513
F0.0076620000000000004
sS'demonstrated'
p514
F0.0063850000000000001
sS'core'
p515
F0.0064650000000000003
sS'business'
p516
F0.00071100000000000004
sS'data owners'
p517
F0.0073639999999999999
sS'inspect'
p518
F0.0076620000000000004
sS'communicate'
p519
F0.0020209999999999998
sS'agreement'
p520
F0.004614
sS'leadership'
p521
F0.0017669999999999999
sS'mobile camera bot'
p522
F0.0064159999999999998
sS'assemble'
p523
F0.0056979999999999999
sS'exciting'
p524
F0.0033140000000000001
sS'optimize'
p525
F0.0051380000000000002
sS'across geographically disparate'
p526
F0.0076620000000000004
sS'continuously improve'
p527
F0.0052440000000000004
sS'purist'
p528
F0.0076620000000000004
sS'shield'
p529
F0.0076620000000000004
sS'development fashion'
p530
F0.0064159999999999998
sS'ensure'
p531
F0.0034719999999999998
sS'azure'
p532
F0.0046319999999999998
sS'improvement'
p533
F0.0096159999999999995
sS'software'
p534
F0.0095080000000000008
sS'data movement replication capability'
p535
F0.0071329999999999996
sS'manage multiple priority'
p536
F0.0056480000000000002
sS'explore new idea'
p537
F0.0059959999999999996
sS'commitment'
p538
F0.005888
sS'appropriate'
p539
F0.0021429999999999999
sS'would expect'
p540
F0.0065250000000000004
sS'often over-used term'
p541
F0.0064159999999999998
sS'additional'
p542
F0.0028119999999999998
sS'team environment'
p543
F0.0033409999999999998
sS'support'
p544
F0.0092119999999999997
sS'continuous improvement'
p545
F0.0078110000000000002
sS'start'
p546
F0.0035070000000000001
sS'stealth'
p547
F0.0087989999999999995
sS'product manager'
p548
F0.0027590000000000002
sS'way'
p549
F0.0062490000000000002
sS'off-shore strategic'
p550
F0.0064159999999999998
sS'energy'
p551
F0.0098670000000000008
sS'function'
p552
F0.0065420000000000001
sS'4 year'
p553
F0.0066600000000000001
sS'complete'
p554
F0.003104
sS'offer'
p555
F0.0049959999999999996
sS'one reason'
p556
F0.0064159999999999998
sS'self-motivated team member'
p557
F0.0064159999999999998
sS'sophisticated'
p558
F0.0037060000000000001
sS'delivery'
p559
F0.034862999999999998
sS'line'
p560
F0.0033249999999999998
sS'promote'
p561
F0.0069170000000000004
sS'analyst'
p562
F0.0021059999999999998
sS'week'
p563
F0.0035850000000000001
sS'technology hackathons'
p564
F0.0064159999999999998
sS'undergrad masters'
p565
F0.0087989999999999995
sS'gaming go figure'
p566
F0.0064159999999999998
sS'data genscape'
p567
F0.0065250000000000004
sS'whether'
p568
F0.0037929999999999999
sS'characteristic'
p569
F0.0079629999999999996
sS'smooth'
p570
F0.0076620000000000004
sS'work ethic'
p571
F0.0044780000000000002
sS'organizationally separate'
p572
F0.0076620000000000004
sS'reward excellence'
p573
F0.0063169999999999997
sS'demonstrate'
p574
F0.0055240000000000003
sS'expect'
p575
F0.0089239999999999996
sS'diagnose'
p576
F0.0062269999999999999
sS'usual key'
p577
F0.0076620000000000004
sS'sufficient data-oriented objective'
p578
F0.0076620000000000004
sS'contribute'
p579
F0.0024229999999999998
sS'life'
p580
F0.0034229999999999998
sS'deep'
p581
F0.0078139999999999998
sS'perfect combination'
p582
F0.0063169999999999997
sS'engineering'
p583
F0.0013979999999999999
sS'root cause'
p584
F0.0044939999999999997
sS'role might'
p585
F0.0064159999999999998
sS'variety'
p586
F0.0041019999999999997
sS'hybrid'
p587
F0.0049300000000000004
sS'become excessively short'
p588
F0.0076620000000000004
sS'application'
p589
F0.0011299999999999999
sS'role'
p590
F0.0053829999999999998
sS'diagnose area'
p591
F0.0076620000000000004
sS'ecosystem'
p592
F0.0036470000000000001
sS'sling'
p593
F0.0076620000000000004
sS'scrum'
p594
F0.034001000000000003
sS'equivalent experience'
p595
F0.0029090000000000001
sS'carefulness essential'
p596
F0.0064159999999999998
sS'bounced around'
p597
F0.0064159999999999998
sS'kanban---or'
p598
F0.0076620000000000004
sS'empowers'
p599
F0.0056979999999999999
sS'cto organization'
p600
F0.0071329999999999996
sS'exposure'
p601
F0.0031519999999999999
sS'building'
p602
F0.0013489999999999999
sS'land'
p603
F0.0061440000000000002
sS'ops turned sm'
p604
F0.0076620000000000004
sS'genscapes growth'
p605
F0.0087989999999999995
sS'team self-organization'
p606
F0.0076620000000000004
sS'software---not'
p607
F0.0064159999999999998
sS'distributing workload across'
p608
F0.0064159999999999998
sS'u'
F0.0072309999999999996
sS'time'
p609
F0.0015709999999999999
sS'push'
p610
F0.0026719999999999999
sS'community gaming however'
p611
F0.0064159999999999998
sS'requires'
p612
F0.0032160000000000001
sS'indirectly'
p613
F0.0076620000000000004
s.