(dp1
S''
F0.00091948934984079815
sS'code'
p2
F0.0024331187050973323
sS'evidence'
p3
F0.0033527798787463905
sS'global'
p4
F0.0029219348198764364
sS'focus'
p5
F0.0013283548735582816
sS'month'
p6
F0.002501931007514206
sS'manager'
p7
F0.0023575844938210572
sS'concept'
p8
F0.0039396263827779724
sS'served'
p9
F0.0043738750383471242
sS'go'
p10
F0.0041886198794274521
sS'country/globe'
p11
F0.0046249731150545875
sS'remarkably'
p12
F0.0046249731150545875
sS'smes'
p13
F0.0034389826148523328
sS'expedient/accelerated'
p14
F0.0055234592196189329
sS'environment'
p15
F0.0020194314609161849
sS'foster'
p16
F0.00223793930462694
sS'suite'
p17
F0.0021682017775364656
sS'enjoying'
p18
F0.0047036002137108715
sS'collaborate'
p19
F0.0012314275470898812
sS'replication'
p20
F0.0040034011165623572
sS'artwork'
p21
F0.0043738750383471242
sS'micromanage'
p22
F0.0046249731150545875
sS'entire'
p23
F0.0022981776223437046
sS'organizationally'
p24
F0.0053087712576837635
sS'level'
p25
F0.00087407710409187478
sS'fast-paced'
p26
F0.001851893609071326
sS'cause'
p27
F0.0024597592345674798
sS'solution'
p28
F0.0012308270693149423
sS'leave'
p29
F0.0029449175144626067
sS'adjust'
p30
F0.003690079173227227
sS'excellence'
p31
F0.007321073839411431
sS'minimal'
p32
F0.0023673229667358934
sS'do/build'
p33
F0.0046249731150545875
sS'team'
p34
F0.0060989865500352689
sS'essential.'
p35
F0.004429179343343752
sS'enjoy'
p36
F0.017190040999991125
sS'consistent'
p37
F0.0018147084587135163
sS'direct'
p38
F0.001732985806614778
sS'pulse'
p39
F0.0042742250490126719
sS'thinker'
p40
F0.0024355547158762085
sS'street'
p41
F0.0034861305933978782
sS'video'
p42
F0.0022564418702392701
sS'follow'
p43
F0.0021850347079374662
sS'folk'
p44
F0.0071808592787853702
sS'meetings.'
p45
F0.0044889125554446879
sS'what'
p46
F0.0013474995188499353
sS'latest/greatest'
p47
F0.0046249731150545875
sS'clock'
p48
F0.0045538462670352145
sS'operations/support'
p49
F0.0055234592196189329
sS'product.'
p50
F0.0033131461362504461
sS'while'
p51
F0.0028154344809320857
sS'conduct'
p52
F0.0017146358350669311
sS'new'
p53
F0.0011655621721656407
sS'movement'
p54
F0.0033804223151398388
sS'supporting'
p55
F0.0049570705734618614
sS'niche'
p56
F0.003971640362113873
sS'evolved'
p57
F0.0041863275648781999
sS'leveraging'
p58
F0.0016777975663862649
sS'commercial'
p59
F0.0017191811925879451
sS'understanding'
p60
F0.00068485675890537514
sS'explore'
p61
F0.0018251450417944755
sS'focused'
p62
F0.0043636771087089115
sS'carefulness'
p63
F0.0046249731150545875
sS'others'
p64
F0.0028021846237988946
sS'strong'
p65
F0.0022386544930736922
sS'change'
p66
F0.001105207328311557
sS'software development'
p67
F0.0016440658094576501
sS'great'
p68
F0.0014314692389204493
sS'skills.'
p69
F0.0021907311392502732
sS'talent'
p70
F0.0017146358350669311
sS'rds'
p71
F0.003690079173227227
sS'technical'
p72
F0.001135403004816972
sS'larger'
p73
F0.0028220678719493271
sS'allows'
p74
F0.0026662846450330193
sS'experience'
p75
F0.00077625189879866737
sS'guide'
p76
F0.0019404656258979903
sS'throughput'
p77
F0.0070729189038474883
sS'mentor'
p78
F0.0018428704534320657
sS'cto'
p79
F0.0035540193727843067
sS'via'
p80
F0.0037935836940406124
sS'love'
p81
F0.0090649156655172747
sS'expect/demand'
p82
F0.0046249731150545875
sVDoctor
p83
F0.00094974974431447177
sS'process/team'
p84
F0.0046249731150545875
sS'manage'
p85
F0.0020973552186684006
sS'highly'
p86
F0.00087702005776043972
sS'visible'
p87
F0.0034389826148523328
sS'genscape'
p88
F0.013874919345163763
sS'punching'
p89
F0.0046249731150545875
sS'apply'
p90
F0.00094650600362345381
sS'operational'
p91
F0.0030758567441484391
sS'cloud'
p92
F0.0050549300956163308
sS'architecture/design'
p93
F0.0051422463712243634
sS'intensive'
p94
F0.0035364594519237441
sS'use'
p95
F0.00072344035760551952
sS'honing'
p96
F0.00479149784967948
sS'figure'
p97
F0.0032755116263565036
sS'working'
p98
F0.0027591015760311073
sS'perk'
p99
F0.0028918619193128493
sS'give'
p100
F0.004544438097685643
sS'distributing'
p101
F0.004107700618055962
sS'live'
p102
F0.0020202239973557781
sS'program'
p103
F0.0010419033718676916
sS'music'
p104
F0.0034239061194338482
sS'asset'
p105
F0.0016551411419546728
sS'msc'
p106
F0.00479149784967948
sS'theoretical'
p107
F0.0031213240136854494
sS'today'
p108
F0.0018740050689981479
sS'sharing'
p109
F0.0024805472474377175
sS'upcoming'
p110
F0.0035540193727843067
sS'successful'
p111
F0.0013474995188499353
sS'company'
p112
F0.001393496596468498
sS'line'
p113
F0.0018834151364459028
sS'training'
p114
F0.0026766434498936833
sS'app-dev'
p115
F0.0047036002137108715
sS'master data management'
p116
F0.0034543699907821413
sS'continual'
p117
F0.0071080387455686135
sS'effort'
p118
F0.0014050718135892471
sS'must'
p119
F0.0025843704494585189
sS'customer'
p120
F0.0012181569948298879
sS'market.'
p121
F0.0032633770611210366
sS'excellent'
p122
F0.0046419330315627914
sS'join'
p123
F0.00088841020254573167
sS'trader'
p124
F0.0042289829457601959
sS'hour'
p125
F0.0021626741399374994
sS'this'
p126
F0.0055095567545774141
sS'work'
p127
F0.0011591155910439996
sS'dev'
p128
F0.014514831654505607
sS'cat'
p129
F0.0043738750383471242
sS'transparency'
p130
F0.0029141397945261051
sS'learn'
p131
F0.0012855067610586083
sS'following'
p132
F0.0011951747056698128
sS'embrace'
p133
F0.007247901739821835
sS'root'
p134
F0.0025795921278199286
sS'scripting'
p135
F0.0015833885664050245
sS'dedicated'
p136
F0.0019654110403173322
sS'challenging'
p137
F0.0016792366988258676
sS'e.g.'
p138
F0.0012227835644624892
sS'providers'
p139
F0.0041863275648781999
sS'process'
p140
F0.0026733164585293566
sS'awesome'
p141
F0.0060383839307932025
sS'high'
p142
F0.0041093334563466295
sS'effectively'
p143
F0.0023723884969791662
sS'want'
p144
F0.0028161408649564194
sS'keep'
p145
F0.0060335364396379666
sS'huge'
p146
F0.0026555470849240581
sS'goal'
p147
F0.001300095291670229
sS'provide'
p148
F0.00060156785499429293
sS'r d'
p149
F0.00030642888945125177
sS'discussion'
p150
F0.0025652866757671258
sS'mid-tier'
p151
F0.0047036002137108715
sS'feature'
p152
F0.0033934526987274508
sS'traders'
p153
F0.0046249731150545875
sS'pure'
p154
F0.0040365739218705407
sS'ensure'
p155
F0.0023126039590588635
sS'gaming'
p156
F0.0066786667693641598
sS'fostered'
p157
F0.0046249731150545875
sS'intended'
p158
F0.0031835481839870435
sS'attend'
p159
F0.0030105646378250656
sS'information'
p160
F0.00046903476327853582
sS'may'
p161
F0.0011428454534021281
sS'near-'
p162
F0.0055234592196189329
sS'communicator'
p163
F0.0029293699920796283
sS'data'
p164
F0.0011531541530734545
sS'lifecycle'
p165
F0.00223793930462694
sVphysic
p166
F0.0017011635798666906
sS'a'
F0.0020618985426466585
sS'paas'
p167
F0.0037806463696261326
sS'short'
p168
F0.0024315958735040468
sS'effective'
p169
F0.0015343610024459657
sS'amid'
p170
F0.0055234592196189329
sS'greatest'
p171
F0.0029293699920796283
sS'appreciate'
p172
F0.0035364594519237441
sS'supervision'
p173
F0.0024435359712602603
sS'vms.'
p174
F0.0046249731150545875
sS'rather'
p175
F0.0097190529190298337
sS'maintain'
p176
F0.0013456549051971316
sS'sm'
p177
F0.0034543699907821413
sS'talk'
p178
F0.0024395346729839131
sS'fixes/enhancements'
p179
F0.0047036002137108715
sS'no.'
p180
F0.003971640362113873
sS'serving'
p181
F0.0074543257738449087
sS'feedback'
p182
F0.0021463327484278795
sS'office'
p183
F0.0011018780119225523
sS'essence'
p184
F0.0041863275648781999
sS'over'
p185
F0.0031944426585879307
sVinsight
p186
F0.00077691140259331939
sS'mission'
p187
F0.0011966820160217704
sS'characteristic'
p188
F0.0032717317667385927
sS'left-and-right'
p189
F0.0046249731150545875
sS'course'
p190
F0.0021463327484278795
sS'interpersonal'
p191
F0.001841078842912679
sS'including'
p192
F0.00089159795799992434
sS'innovative'
p193
F0.0009315523282798473
sS'mentioned'
p194
F0.0076102324696484657
sS'developer'
p195
F0.0029241164483587256
sS'perfect'
p196
F0.0027582468727712691
sS'interesting'
p197
F0.0025062822887523348
sS'winning'
p198
F0.0032167206856309376
sS'platform'
p199
F0.00083870446311523465
sS'coordinated'
p200
F0.0047036002137108715
sS'might'
p201
F0.0027341722097835417
sS'good'
p202
F0.0012923364286746353
sS'love---explore'
p203
F0.0046249731150545875
sS'seeking'
p204
F0.0011824840667108863
sS'practice'
p205
F0.0010712880770569748
sS'framework'
p206
F0.0043037282485930885
sS'strategic'
p207
F0.0049036610168287937
sS'term'
p208
F0.002024788042226605
sS'workload'
p209
F0.0031313410412051696
sS'technology.'
p210
F0.0026608965521073319
sS'always'
p211
F0.0023673229667358934
sS'appropriate'
p212
F0.0014141040719280792
sS'capability'
p213
F0.0012338024846277511
sS'sciences/engineering'
p214
F0.0055234592196189329
sS'remove/mitigate/resolve'
p215
F0.0055234592196189329
sS'mean'
p216
F0.0022658680915519525
sS'development'
p217
F0.0031062611154173722
sS'financial'
p218
F0.0013484235388691653
sS'team---if'
p219
F0.0046249731150545875
sS'energy'
p220
F0.008136002980968348
sS'idea'
p221
F0.0036730432978379812
sS'related'
p222
F0.00053561772262752255
sS'balanced'
p223
F0.0037806463696261326
sS'enterprise software'
p224
F0.0034700813383500514
sS'connect'
p225
F0.0022786245240615389
sS'efficiency.'
p226
F0.0042289829457601959
sS'year'
p227
F0.0004249424601455041
sS'our'
p228
F0.00084432780894836497
sS'operation'
p229
F0.0034264316852552134
sS'beyond'
p230
F0.0022051654270134331
sS'living'
p231
F0.0033804223151398388
sS'driving'
p232
F0.0017976321457086849
sS'space'
p233
F0.0021095395299759851
sS'open'
p234
F0.0049404578034805387
sS'interference'
p235
F0.0048911479908481615
sS'research'
p236
F0.00071153611580817959
sS'looking'
p237
F0.00087800362862701766
sS'adapt'
p238
F0.0024159672466072782
sS'world-class'
p239
F0.00212508644506671
sS'objectivity'
p240
F0.0044889125554446879
sS'sensor'
p241
F0.0053989133823818085
sS'math'
p242
F0.0017581762729566245
sS'workflow'
p243
F0.0045317361831039051
sS'data scientist'
p244
F0.00013810992131849372
sS'standard'
p245
F0.0012906231410516136
sS'reason'
p246
F0.0033664731139789678
sS'imagine'
p247
F0.0035193032468732216
sS'certified'
p248
F0.0027643888844748102
sS'additional'
p249
F0.0013795765848538854
sS'revolutionary'
p250
F0.0031622250753808854
sS'owners'
p251
F0.015764705355731701
sS'organic'
p252
F0.0072186467482288413
sS'created'
p253
F0.0056575215148368281
sS'days'
p254
F0.0075612927392522651
sS'teaching/coaching'
p255
F0.0055234592196189329
sS'removing'
p256
F0.0043223879726540255
sS'hence'
p257
F0.00958299569935896
sS'retail'
p258
F0.0021277093843655318
sS'facilitate'
p259
F0.0022318723500105099
sS'sprint.'
p260
F0.0055234592196189329
sS'first'
p261
F0.0047350148000909224
sS'geographically'
p262
F0.0036690562825485956
sS'dont'
p263
F0.0095833279757637918
sS'coding'
p264
F0.0019611951256502981
sS'one'
p265
F0.0012819497107761332
sS'self-driven'
p266
F0.0035540193727843067
sS'embraced'
p267
F0.0051422463712243634
sS'directly'
p268
F0.0017597792767616676
sS'owner'
p269
F0.0085961263281080381
sS'message'
p270
F0.0032054985409231064
sS'self-motivation.'
p271
F0.0046249731150545875
sS'quality'
p272
F0.0031128729225581757
sS'engineer'
p273
F0.0035179256853307109
sS'management'
p274
F0.00063562239485763104
sS'product/technology'
p275
F0.0045538462670352145
sS'service'
p276
F0.00063455649801212567
sS'start'
p277
F0.0022754149132777966
sS'leading'
p278
F0.0030615924887474038
sS'top'
p279
F0.002763014239426187
sS'system'
p280
F0.0025071445392507766
sS'remotely'
p281
F0.0035540193727843067
sS'priority'
p282
F0.0019760562343004405
sS'acquired'
p283
F0.0037569534630163678
sS'master'
p284
F0.016622223734549132
sS'iaas'
p285
F0.003971640362113873
sS'agility'
p286
F0.0031213240136854494
sS'genscapes'
p287
F0.019029956498597119
sS'relationship'
p288
F0.0026441619352076066
sS'business problem'
p289
F0.0013795765848538854
sS'tool'
p290
F0.0022248627184549875
sS'continuous'
p291
F0.0021044283844893065
sS'innovate'
p292
F0.0049277415323583668
sS'work.'
p293
F0.0045897659689266733
sS'part'
p294
F0.00095627985646734364
sS'believe'
p295
F0.0045538055010337425
sS'embrace.'
p296
F0.0046249731150545875
sS'board'
p297
F0.0030279202014472958
sS'project'
p298
F0.002337769635365312
sS'matter'
p299
F0.0015391212959031651
sS'future'
p300
F0.0010412905719617944
sS'architect'
p301
F0.0014861301545865584
sS'toward'
p302
F0.00249330383176958
sS'outstanding'
p303
F0.0021463327484278795
sS'experience.'
p304
F0.0019912193524938573
sS'turned'
p305
F0.0039411763389329254
sS'self-motivated'
p306
F0.0023856589693318827
sS'comfortable'
p307
F0.001809544404592617
sS'say'
p308
F0.0032054985409231064
sS'need'
p309
F0.0022410253532981718
sS'viewed'
p310
F0.0039119073018467039
sS'issue'
p311
F0.0012612605243078204
sS'built'
p312
F0.0020156876994557637
sS'user experience'
p313
F0.0020993520110344612
sS'fashion.'
p314
F0.0043738750383471242
sS'able'
p315
F0.0011386459666894357
sS'snow'
p316
F0.0046249731150545875
sS'incentive'
p317
F0.0033261248968888412
sS'majority'
p318
F0.0069087399815642827
sS'internal'
p319
F0.0032408085538801631
sS'build'
p320
F0.0013780931012172951
sS'off-shore'
p321
F0.0037569534630163678
sS'online'
p322
F0.00175179847682174
sS'objective'
p323
F0.00171766299463322
sS'solve'
p324
F0.0023327499880089544
sS'encouraged'
p325
F0.0023115035951809409
sS'conducive'
p326
F0.00479149784967948
sS'multiple'
p327
F0.0034963084163674991
sS'collaboration'
p328
F0.0054085244259878869
sS'who'
p329
F0.001973915011178367
sS'aws'
p330
F0.0035618758386538503
sS'business.'
p331
F0.0021935957458615787
sS'paid'
p332
F0.0019507583907587079
sS'manager/scrum'
p333
F0.0055234592196189329
sS'artifact'
p334
F0.0034091281911954371
sS'position'
p335
F0.0011629213697097348
sS'possible'
p336
F0.0020363218041741025
sS'extremely'
p337
F0.0027108500234476461
sS'the'
p338
F0.0016707211284192494
sS'delivery'
p339
F0.023527088333563703
sS'bounced'
p340
F0.0046249731150545875
sS'observation'
p341
F0.0035193032468732216
sS'bug'
p342
F0.0036287079136264016
sS'sql server'
p343
F0.0024395346729839131
sS'mobile'
p344
F0.0016706432499914272
sS'proud'
p345
F0.0019363879485959164
sS'request'
p346
F0.0018147084587135163
sS'drive'
p347
F0.0015702424618479335
sS'tech'
p348
F0.0019084516210842249
sS'senior'
p349
F0.0010351901045323989
sS'physics'
p350
F0.0022533260732530052
sS'prioritizing'
p351
F0.003141494361055932
sS'friction'
p352
F0.0050061856597800481
sS'bring'
p353
F0.0037763900674036939
sS'planning'
p354
F0.0031897566092274525
sS'solutions'
p355
F0.0013229740159691964
sS'qa---both'
p356
F0.0055234592196189329
sS'find'
p357
F0.0030616212181034121
sS'geography'
p358
F0.0033804223151398388
sS'impact'
p359
F0.0021852684249740232
sS'based'
p360
F0.0018152367491456277
sS'knowledge'
p361
F0.0027397611306728257
sS'big data'
p362
F0.0016441688859552828
sS'critical thinking'
p363
F0.0025239456695573268
sS'explain'
p364
F0.0022022561456944215
sS'distributed'
p365
F0.0034690710766713015
sS'delivery.'
p366
F0.0035540193727843067
sS'team.'
p367
F0.0018078309651750224
sS'going'
p368
F0.0031835481839870435
sS'swiss-watch'
p369
F0.0055234592196189329
sS'employee'
p370
F0.0030712047041296826
sS'enthusiasm'
p371
F0.0031835481839870435
sS'internal/external'
p372
F0.0034861305933978782
sS'local'
p373
F0.0016170760784967953
sS'achieve'
p374
F0.001548733981251108
sS'demonstrated'
p375
F0.003343827759035856
sS'do'
p376
F0.0014939552019574876
sS'weve'
p377
F0.003287846774487038
sS'get'
p378
F0.0031769465696484325
sS'designing'
p379
F0.001485018960466811
sS'overall'
p380
F0.0034628785741800876
sS'satisfied'
p381
F0.0041863275648781999
sS'geek'
p382
F0.0038304157484198315
sS'closely'
p383
F0.0011989487076384025
sS'distraction'
p384
F0.0048911479908481615
sS'brain'
p385
F0.0037806463696261326
sS'youll'
p386
F0.0022258543254286721
sS'undergrad'
p387
F0.0043738750383471242
sS'teams'
p388
F0.004292665496855759
sS'qa'
p389
F0.0026555470849240581
sS'accountability'
p390
F0.0026717119255374759
sS'activity'
p391
F0.002902736062804002
sS'analytical'
p392
F0.00080315126146351544
sS'management technology'
p393
F0.0027894753001341316
sS'vision'
p394
F0.001424269858984307
sS'differences/benefits/challenges'
p395
F0.0055234592196189329
sS'human'
p396
F0.001841078842912679
sS'physically'
p397
F0.003971640362113873
sS'keyboard'
p398
F0.0040034011165623572
sS'bi-weekly'
p399
F0.0043223879726540255
sS'culture'
p400
F0.0068738599573003384
sS'see'
p401
F0.0058030723084651235
sS'individual'
p402
F0.003794667716776987
sS'result'
p403
F0.0024174802514662554
sS'scrum-of-scrums'
p404
F0.0055234592196189329
sS'skill'
p405
F0.0014242250857304918
sV(2, 5]
p406
F0.00058577145675288336
sS'subject'
p407
F0.0014408288565447823
sS'serf'
p408
F0.0024395346729839131
sS'hackathons'
p409
F0.0038051162348242329
sS'projects.'
p410
F0.0023458984255556388
sS'expert'
p411
F0.00097903256661107827
sS'tackling'
p412
F0.0030920552802627759
sS'please'
p413
F0.0022117499569713124
sS'continually'
p414
F0.0027224200082454418
sS'written'
p415
F0.0019136532439993463
sS'various'
p416
F0.0044855928619640852
sS'hopefully'
p417
F0.0043738750383471242
sS'collaborative'
p418
F0.0014872430061952319
sS'progress'
p419
F0.0024847752579483027
sS'operations.'
p420
F0.0032054985409231064
sS'numerous'
p421
F0.003141494361055932
sS'across'
p422
F0.0064564493833891802
sS'conferencing'
p423
F0.0045538462670352145
sS'we'
p424
F0.0059701433317038638
sS'ability'
p425
F0.0018344334491887894
sS'ph.d.'
p426
F0.0020270805762502195
sS'sold'
p427
F0.003971640362113873
sS'handful'
p428
F0.0048911479908481615
sS'deliver'
p429
F0.00095029174195143543
sS'however'
p430
F0.0089557962836760811
sS'dual-home'
p431
F0.0046249731150545875
sS'efficiency'
p432
F0.0018740050689981479
sS'job'
p433
F0.0004848408309869193
sS'succeed'
p434
F0.0022754149132777966
sS'key'
p435
F0.003563638033765327
sS'come'
p436
F0.0052793378302850033
sS'autonomous'
p437
F0.0035540193727843067
sS'improve'
p438
F0.0040169912508232529
sS'patented'
p439
F0.003971640362113873
sS'protect'
p440
F0.0057984284550263157
sS'enables'
p441
F0.0026293602919787102
sS'improved'
p442
F0.0027582468727712691
sS'talented'
p443
F0.003516352545913249
sS'career'
p444
F0.0033765043518853527
sS'many'
p445
F0.0068889075507774901
sS'invited'
p446
F0.0043223879726540255
sS'annual'
p447
F0.0022722190488428215
sS'participating'
p448
F0.0029293699920796283
sS'etc'
p449
F0.0020874895961870191
sS'way.'
p450
F0.0033003892482631903
sS'tactical'
p451
F0.0025284276252351655
sS'grooming'
p452
F0.0040034011165623572
sS'etl'
p453
F0.001971779915031576
sS'detailed'
p454
F0.0021095395299759851
sS'relevant'
p455
F0.0021110278685508468
sS'wall'
p456
F0.0038566031486837499
sS'applicationscould'
p457
F0.0055234592196189329
sS'community'
p458
F0.0013971339249447274
sS'60'
p459
F0.0028220678719493271
sS'variety'
p460
F0.0026106261280438013
sS'simply'
p461
F0.0031114396679434004
sS'learning'
p462
F0.0011670997268204773
sS'throughout'
p463
F0.0018233954421540961
sS'conference'
p464
F0.0022818479999535536
sS'there.'
p465
F0.0044889125554446879
sS'hard-products'
p466
F0.0046249731150545875
sS'create'
p467
F0.00089391977323879468
sS'.'
F0.0012530791900311122
sS'much'
p468
F0.0027958809271769781
sS'seasoned'
p469
F0.013304499587555365
sS'interest'
p470
F0.0032209569728077776
sS'long-term.'
p471
F0.0055234592196189329
sS'collaborator'
p472
F0.0033664731139789678
sS'flexible'
p473
F0.00175179847682174
sS'meeting'
p474
F0.0020575427775392104
sS'attractive'
p475
F0.0037339896904721149
sS'field'
p476
F0.00069556834583880587
sS'direction'
p477
F0.0016454412684561164
sS'enable'
p478
F0.0015584721370183261
sS'champion'
p479
F0.0027643888844748102
sS'retrospective'
p480
F0.009249946230109175
sS'sufficient'
p481
F0.0069087399815642827
sS'ecosystem'
p482
F0.0020793849799910554
sS'environment.'
p483
F0.0020793849799910554
sS'understand'
p484
F0.0020015175247404572
sS'external'
p485
F0.0026193785195883054
sS'stand-ups'
p486
F0.009249946230109175
sS'stealth'
p487
F0.0055234592196189329
sS'present'
p488
F0.0015087088308061818
sS'f2f'
p489
F0.0045538462670352145
sS'look'
p490
F0.0021490315820270095
sS'developing'
p491
F0.00081844087024309344
sS'these'
p492
F0.0042242165834507732
sS'messaging/pub-sub'
p493
F0.0047036002137108715
sS'empirical'
p494
F0.0061277826237847739
sS'value'
p495
F0.0016197161357366034
sS'entrepreneurial'
p496
F0.0021626741399374994
sS'optimization'
p497
F0.0043099635700780039
sS'applies'
p498
F0.0021935957458615787
sS'fun'
p499
F0.0020818518342359963
sS'balance'
p500
F0.0046297452155930688
sS'mpp/big'
p501
F0.0047036002137108715
sS'engineers'
p502
F0.0023216566113800166
sS'layer'
p503
F0.0030731616973723049
sS'30'
p504
F0.0024475588408003767
sS'rock-climbing'
p505
F0.0046249731150545875
sS'ip'
p506
F0.0034389826148523328
sS'metric'
p507
F0.005293827168016586
sS'hobbies'
p508
F0.0046249731150545875
sS'it'
p509
F0.0029489625004107236
sS'encouragement'
p510
F0.0038566031486837499
sS'hardware'
p511
F0.0024006592421071354
sS'player'
p512
F0.0019323324343430636
sS'excessively'
p513
F0.0055234592196189329
sS'experts'
p514
F0.0021964713920316773
sS'in'
p515
F0.0019899594082315995
sS'technology'
p516
F0.0047577073167142233
sS'diagnostic'
p517
F0.0032633770611210366
sS'if'
p518
F0.0012012223077886319
sS'capture'
p519
F0.0022916028292218026
sS'uptime'
p520
F0.0040365739218705407
sS'pas'
p521
F0.0028154344809320857
sS'develop'
p522
F0.0010222996235168234
sS'disparate'
p523
F0.0023115035951809409
sS'tools/etc'
p524
F0.0046249731150545875
sS'make'
p525
F0.0024938160724213049
sS'intrinsic'
p526
F0.0047036002137108715
sS'member'
p527
F0.0029489625004107236
sS'another'
p528
F0.002574793107761774
sS'intermediary'
p529
F0.0053087712576837635
sS'interests/agreements'
p530
F0.0055234592196189329
sS'week'
p531
F0.0022169173249052213
sS'evolve'
p532
F0.0027401184532130731
sS'used'
p533
F0.0014232470241297005
sS'practitioner'
p534
F0.012734192735948174
sS'bonus'
p535
F0.0022658680915519525
sS'reporting'
p536
F0.0014481906169291239
sS'phd'
p537
F0.0012571586415813967
sS'data.'
p538
F0.0017502125097523457
sS'user'
p539
F0.0011393442413837097
sS'changing'
p540
F0.0018872126458656091
sS'opportunity'
p541
F0.00036391729783039658
sS'expand'
p542
F0.0052484628588305767
sS'cycle'
p543
F0.0042501728901334201
sS'reflection'
p544
F0.0042289829457601959
sS'band'
p545
F0.0028845813435734403
sS'minimize'
p546
F0.0034543699907821413
sS'youre'
p547
F0.0053653727174680192
sS'well'
p548
F0.0049407323114115317
sS'analysis'
p549
F0.00037411194031736726
sS'client'
p550
F0.00078686119288070666
sS'impediment'
p551
F0.0088583586866875039
sS'bot'
p552
F0.0040034011165623572
sS'savvy'
p553
F0.0033527798787463905
sS'organization'
p554
F0.0015991976174852217
sS'model'
p555
F0.00054974221799937927
sS'reward'
p556
F0.005056855250470331
sS'usual'
p557
F0.0047036002137108715
sS'project.'
p558
F0.0031835481839870435
sS'being'
p559
F0.0033003892482631903
sS'hybrid'
p560
F0.0032755116263565036
sS'data-oriented'
p561
F0.0041863275648781999
sS'product'
p562
F0.006836604981561422
sS'software/data-based'
p563
F0.0046249731150545875
sS'identify'
p564
F0.00092838660631255833
sS'aspect'
p565
F0.0036679102259481121
sS'day-to-day'
p566
F0.0048089138066871144
sS'flavor'
p567
F0.0043738750383471242
sS'yet'
p568
F0.0030279202014472958
sS'captured'
p569
F0.0073381125650971912
sS'kanban.'
p570
F0.0055234592196189329
sS'acumen'
p571
F0.0023148726077965344
sS'possible.'
p572
F0.0020868101445538976
sS'agile'
p573
F0.005697079435937228
sS'help'
p574
F0.001214045251711006
sS'above-and-beyond'
p575
F0.0063433188328657067
sS'capabilities'
p576
F0.0029936035600883182
sS'improvement'
p577
F0.010159576219814007
sS'agile/scrum'
p578
F0.0040365739218705407
sS'spread'
p579
F0.0044889125554446879
sS'4'
F0.002024788042226605
sS'standards/work'
p580
F0.0046249731150545875
sS'role'
p581
F0.0040323201557519693
sS'transformation'
p582
F0.001809544404592617
sS'real'
p583
F0.001585926593983059
sS'arent'
p584
F0.004107700618055962
sS'around'
p585
F0.0012019817170233812
sS'ops'
p586
F0.0036287079136264016
sS'evaluate'
p587
F0.0015331756597202989
sS'injection'
p588
F0.0048911479908481615
sS'masters'
p589
F0.0026567097471165632
sS'possibly'
p590
F0.0042289829457601959
sS'know'
p591
F0.0073858665288109642
sS'factory.'
p592
F0.0051422463712243634
sS'necessary'
p593
F0.001872137213195271
sS'vague'
p594
F0.0040365739218705407
sS'ethic.'
p595
F0.0040712901996145575
sS'like'
p596
F0.0011642050106853508
sS'success'
p597
F0.0012804252323507677
sS'identifying'
p598
F0.0015052781599455465
sS'manual'
p599
F0.0033804223151398388
sS'benefit'
p600
F0.0011303172609861128
sS'continue'
p601
F0.0018078309651750224
sS'either'
p602
F0.0021069795809834061
sS'micro-management.'
p603
F0.0046249731150545875
sS'initiative'
p604
F0.0014805906606188985
sS'computer-science'
p605
F0.0051422463712243634
sS'passionate'
p606
F0.0043926443036468588
sS'soft'
p607
F0.0034389826148523328
sS'essential'
p608
F0.001745474735602396
sS'right'
p609
F0.0015225914775567778
sS'often'
p610
F0.0028702298846041128
sS'verbal'
p611
F0.002678468880218728
sS'people'
p612
F0.001558126272513142
sS'combination'
p613
F0.0016551411419546728
sS'some'
p614
F0.002285085461259031
sS'back'
p615
F0.0022818479999535536
sS'scrum'
p616
F0.057289350485420693
sS'pace/diligence'
p617
F0.0055234592196189329
sS'growth'
p618
F0.0012812697537025962
sVMaster
p619
F0.00071984908873425828
sS'home'
p620
F0.0023285028571833673
sS'sprint'
p621
F0.016565730681252229
sS'cycles.'
p622
F0.010284492742448727
sS'technologist'
p623
F0.015307501898180795
sS'sling'
p624
F0.0055234592196189329
sS'integration'
p625
F0.0014376959190383126
sS'/'
F0.0034285363602063845
sS'competitions'
p626
F0.0039119073018467039
sS'critical'
p627
F0.0058225029789146085
sS'passion'
p628
F0.0042913094783202073
sS'innovation'
p629
F0.0018631046565596946
sS'over-used'
p630
F0.0046249731150545875
sS'restoring'
p631
F0.0042742250490126719
sS'core'
p632
F0.0038438092611077887
sS'noise'
p633
F0.0037339896904721149
sS'business'
p634
F0.00058791886395253234
sS'business-critical'
p635
F0.0038304157484198315
sS'equivalent'
p636
F0.0011751186082702833
sS'inspect'
p637
F0.00479149784967948
sS'communicate'
p638
F0.00092157329335382687
sS'comp-sci'
p639
F0.0046249731150545875
sS'24-hour'
p640
F0.0045538462670352145
sS'self-organization'
p641
F0.0050061856597800481
sS'tooling.'
p642
F0.0053087712576837635
sS'leadership'
p643
F0.0011372513752016212
sS'become'
p644
F0.0021709810280165381
sS'assemble'
p645
F0.0038304157484198315
sS'exciting'
p646
F0.0020456789201967547
sS'optimize'
p647
F0.003346993499332256
sS'would'
p648
F0.0085430905705449062
sS'purist'
p649
F0.0055234592196189329
sS'shield'
p650
F0.0050061856597800481
sS'seniority/maturity'
p651
F0.0055234592196189329
sS'plus'
p652
F0.0010848011205763601
sS'solidify'
p653
F0.0053087712576837635
sS'azure'
p654
F0.0055043100034747293
sS'os'
p655
F0.0034389826148523328
sS'software'
p656
F0.009646899664572408
sS'explore/interact'
p657
F0.0046249731150545875
sS'previously'
p658
F0.0031517877332026016
sS'communication'
p659
F0.0017553199099804896
sS'within'
p660
F0.00078035716286143253
sS'commitment'
p661
F0.0039956267221015317
sS'strategy.'
p662
F0.0026771789678053295
sS'contributor'
p663
F0.004871109431752417
sS'your'
p664
F0.0013971339249447274
sS'geographies.'
p665
F0.0044889125554446879
sS'i'
F0.0050478913391146536
sS'area'
p666
F0.00089442266741191834
sS'hands-on'
p667
F0.0016385891909926657
sS'support'
p668
F0.0056626053459820315
sS'continuous improvement'
p669
F0.0025106590917378991
sS'systems.'
p670
F0.0023423867184008559
sS'overtime'
p671
F0.0031835481839870435
sVBachelor
p672
F0.00025369788605383934
sS'camera'
p673
F0.0038566031486837499
sS'way'
p674
F0.0043107693517668204
sS'suit'
p675
F0.0046249731150545875
sS'exceptional'
p676
F0.003335601243949229
sS'welding'
p677
F0.0046249731150545875
sS'happy'
p678
F0.0029293699920796283
sS'function'
p679
F0.0043382395015155737
sS'real-time'
p680
F0.0021964713920316773
sS'complete'
p681
F0.0020066970093543116
sS'offering'
p682
F0.0042139591619668121
sS'offer'
p683
F0.0029438698803560242
sS'forming'
p684
F0.0039119073018467039
sS'basic'
p685
F0.001312327352750319
sS'sophisticated'
p686
F0.0023458984255556388
sS'volume'
p687
F0.0021095395299759851
sS'technologies'
p688
F0.0019242869404404398
sS'promote'
p689
F0.0045380736270328598
sS'analyst'
p690
F0.0012290601465066167
sS'also'
p691
F0.007013439766557961
sS'whether'
p692
F0.0023529718114171407
sS'wish'
p693
F0.0046249731150545875
sS'genscape.'
p694
F0.009249946230109175
sS'smooth'
p695
F0.004429179343343752
sS'us'
p696
F0.0012267002352007381
sS'data management'
p697
F0.001743902139408064
sS'continuously'
p698
F0.0023931214144315405
sS'demonstrate'
p699
F0.0038565976870742784
sS'distribution'
p700
F0.002501931007514206
sS'expect'
p701
F0.0081325500703429386
sS'diagnose'
p702
F0.0075612927392522651
sS'co-located'
p703
F0.0045538462670352145
sS'methods/operations/techniques'
p704
F0.0055234592196189329
sS'contribute'
p705
F0.0017056273570035727
sS'life'
p706
F0.0032897454669309034
sS'deep'
p707
F0.0037133327807668376
sS'an'
p708
F0.0042293718542287901
sS'globally'
p709
F0.0026140782613926399
sS'engineering'
p710
F0.001555542702359476
sS'clock-puncher'
p711
F0.0063433188328657067
sS'plan'
p712
F0.0011634830834221347
sS'as'
p713
F0.0038251194258693746
sS'stack.'
p714
F0.0034700813383500514
sS'ideally'
p715
F0.0025512503163634659
sS'contest'
p716
F0.0043223879726540255
sS'composing'
p717
F0.0046249731150545875
sS'detail'
p718
F0.0016157518845244874
sS'application'
p719
F0.0007649750992144319
sS'5'
F0.0013605411228162776
sS'cultures.'
p720
F0.0044889125554446879
sS'you'
p721
F0.0079430165882978018
sS'developers'
p722
F0.0028992142275131578
sS'dynamic/distributed'
p723
F0.0046249731150545875
sS'separate'
p724
F0.0041459790441227967
sS'java/c'
p725
F0.0043738750383471242
sS'technology management'
p726
F0.0043738750383471242
sS'center'
p727
F0.0018446663762596508
sS'problems'
p728
F0.0020179524011348635
sS'cranking'
p729
F0.0046249731150545875
sS'meaning'
p730
F0.0027166125925823263
sS'and/or'
p731
F0.0038867062646544808
sS'nucleus'
p732
F0.0055234592196189329
sS'sql'
p733
F0.00070487378846919061
sS'kanban---or'
p734
F0.0055234592196189329
sS'empowers'
p735
F0.0033261248968888412
sS'pool'
p736
F0.0039411763389329254
sS'exposure'
p737
F0.0021793814341220076
sS'building'
p738
F0.0008377713473567322
sS'land'
p739
F0.0037569534630163678
sS'remote'
p740
F0.0024976049521166937
sS'consumer'
p741
F0.0014141040719280792
sS'rule'
p742
F0.0024556702328410764
sS'software---not'
p743
F0.0046249731150545875
sS'portion'
p744
F0.0038051162348242329
sS'summit'
p745
F0.0042289829457601959
sS'u'
F0.0019682426873226825
sS'time'
p746
F0.00083034815588132246
sS'push'
p747
F0.0018987225336786267
sS'requires'
p748
F0.0016850211488665769
sS'indirectly'
p749
F0.0047036002137108715
sS'once'
p750
F0.0037806463696261326
s.