(dp1
S''
F0.0010310591872691795
sS'concept'
p2
F0.004417656362278229
sS'platform---the'
p3
F0.0059529317868587802
sS'flavors---open'
p4
F0.0056136307816780449
sS'global'
p5
F0.0021843194748309199
sS'focus'
p6
F0.0014895360088435961
sS'existing'
p7
F0.0044655820627712553
sS'manager'
p8
F0.0026436512315650348
sS'code'
p9
F0.0013641753409332322
sS'go'
p10
F0.0046968624589395691
sS'country/globe'
p11
F0.0051861623214838051
sS'remarkably'
p12
F0.0051861623214838051
sS'smes'
p13
F0.0038562650241858792
sS'environment'
p14
F0.0022644670775127094
sS'foster'
p15
F0.00250948842527205
sS'lead/members'
p16
F0.0056136307816780449
sS'scale/tech'
p17
F0.0059529317868587802
sS'suite'
p18
F0.0024312890225095091
sS'replication'
p19
F0.0089783389057632775
sS'artwork'
p20
F0.0049045962773097453
sS'micromanage'
p21
F0.0051861623214838051
sS'month'
p22
F0.0028055125942000303
sS'entire'
p23
F0.0025770359949293421
sS'fast-paced'
p24
F0.0020766003649837464
sS'solution'
p25
F0.0018402323825740838
sS'large'
p26
F0.0016459312112614662
sS'excellence'
p27
F0.0065675239797900031
sS'restoring'
p28
F0.0047928548666752975
sS'do/build'
p29
F0.0051861623214838051
sS'team'
p30
F0.0034195154715678912
sS'enjoy'
p31
F0.012850574582978022
sS'application'
p32
F0.0025733890366878799
sS'consistent'
p33
F0.0020349032089339845
sS'direct'
p34
F0.0019432644191328891
sS'rate'
p35
F0.0033474942873433599
sS'street'
p36
F0.0039091338871574529
sS'video'
p37
F0.0025302360720674657
sS'folk'
p38
F0.008052176931859745
sS'what'
p39
F0.0030220072891362563
sS'latest/greatest'
p40
F0.0051861623214838051
sS'clock'
p41
F0.0051064050191022489
sS'product.'
p42
F0.0037151596841636797
sS'version'
p43
F0.0028103918551699823
sS'designing'
p44
F0.0016652095456280557
sS'new'
p45
F0.0026139804363212692
sS'supporting'
p46
F0.0037057040828110985
sS'niche'
p47
F0.0044535548830398237
sS'full'
p48
F0.0015161972240217087
sS'paas.'
p49
F0.0056136307816780449
sS'evolved'
p50
F0.0046942919974366426
sS'degree'
p51
F0.00037335958687866066
sS'commercial'
p52
F0.0019277847682576119
sS'understanding'
p53
F0.0007679565329984959
sS'desired'
p54
F0.0016790189706725057
sS'explore'
p55
F0.0020466061556523823
sS'focused'
p56
F0.003262107294655476
sS'carefulness'
p57
F0.0051861623214838051
sS'others'
p58
F0.0031421986576489693
sS'path'
p59
F0.0029312676738628761
sS'along'
p60
F0.0023372368259882083
sS'strong'
p61
F0.0020082323151255211
sS'change'
p62
F0.0012393119832112855
sS'software development'
p63
F0.0018435549662537665
sS'great'
p64
F0.0016051621591241857
sS'skills.'
p65
F0.0024565520724647415
sS'talent'
p66
F0.0019226878819997384
sS'rds'
p67
F0.0041378293657945474
sS'larger'
p68
F0.0031644945174996632
sS'bot'
p69
F0.0044891694528816388
sS'experience'
p70
F0.00081241202909138088
sS'mpp/big'
p71
F0.0052743299467552865
sS'throughput'
p72
F0.0079311391892515765
sS'mentor'
p73
F0.0020664823494552032
sS'engineers'
p74
F0.0026033638989533237
sS'via'
p75
F0.0042538930125643687
sS'love'
p76
F0.01016484267095661
sS'expect/demand'
p77
F0.0051861623214838051
sS'process/team'
p78
F0.0051861623214838051
sS'app'
p79
F0.0030020249513465617
sS'manage'
p80
F0.0058796150481499098
sS'logical'
p81
F0.0092178043363318439
sS'highly'
p82
F0.0019668734349773875
sS'peer'
p83
F0.0065904319592607601
sS'genscape'
p84
F0.02074464928593522
sS'punching'
p85
F0.0051861623214838051
sS'apply'
p86
F0.0010613540124313205
sS'establish'
p87
F0.0022015248044091333
sS'cloud'
p88
F0.0042512173607484622
sS'would'
p89
F0.005747819931981678
sV(5, 10]
p90
F0.0010114556119910948
sS'providers'
p91
F0.0046942919974366426
sS'next'
p92
F0.0052634202080614825
sS'distributing'
p93
F0.0046061245424225848
sS'live'
p94
F0.0022653557794617093
sS'program'
p95
F0.0011683267935587503
sS'music'
p96
F0.003839359163214524
sS'asset'
p97
F0.0018559741675474991
sS'type'
p98
F0.0016982250665660756
sS'data management'
p99
F0.0019555053278718037
sS'9+'
p100
F0.0051861623214838051
sS'upcoming'
p101
F0.0039852602171807291
sS'definition'
p102
F0.0026266093746084907
sS'started'
p103
F0.0031644945174996632
sS'company'
p104
F0.0010417213050308435
sS'line'
p105
F0.0021119466801987528
sS'app-dev'
p106
F0.0052743299467552865
sS'master data management'
p107
F0.0038735194875716057
sS'90'
p108
F0.0033568441594295784
sS'must'
p109
F0.00096598504944893024
sS'customer'
p110
F0.00068298341969541825
sS'market.'
p111
F0.0036593516836001582
sS"'data"
p112
F0.0056136307816780449
sS'join'
p113
F0.001992417860102561
sS'hour'
p114
F0.0024250906673776141
sS'this'
p115
F0.0048051736269582659
sS'work'
p116
F0.0016247017698733884
sS'dev'
p117
F0.0081380227686349421
sS'cat'
p118
F0.0049045962773097453
sS'ms'
p119
F0.0016430927294631033
sS'learn'
p120
F0.0014414887529862217
sS'following'
p121
F0.0013401959042657313
sS'meet'
p122
F0.001320175422984578
sS'scripting'
p123
F0.0017755152125378515
sS'mongo'
p124
F0.0079311391892515765
sS'figure'
p125
F0.0036729586437805146
sS'ethic.'
p126
F0.004565296123417161
sS'process'
p127
F0.00074942344234923378
sS'awesome'
p128
F0.0067710748680024193
sS'high'
p129
F0.0023039777537675657
sS'effectively'
p130
F0.0013301257681807876
sS'minimum'
p131
F0.002821237605208987
sS'want'
p132
F0.0031578483339260266
sS'huge'
p133
F0.002977768279329069
sS'requirements'
p134
F0.0012438140404737058
sS'goal'
p135
F0.0014578474400318885
sS'guidance/feedback'
p136
F0.0056136307816780449
sS'provide'
p137
F0.0020236843322820565
sS'discussion'
p138
F0.0028765557703162746
sS'get'
p139
F0.0035624338103170707
sS'pl/sql'
p140
F0.0039463316743180892
sS'traders'
p141
F0.0051861623214838051
sS'strategy/approach'
p142
F0.0059529317868587802
sS'net-net'
p143
F0.0056136307816780449
sS'gaming'
p144
F0.007489048929663576
sS'fostered'
p145
F0.0051861623214838051
sS'attend'
p146
F0.0033758632758875214
sS'may'
p147
F0.0025630341549102119
sS'db'
p148
F0.0039852602171807291
sS"engineers'"
p149
F0.0053728929862514666
sS'tier'
p150
F0.0070225891133304224
sS'communicator'
p151
F0.0032848165601562359
sS'data'
p152
F0.0036637171000018539
sS'compatibility'
p153
F0.0043245591792771751
sVphysic
p154
F0.0019075809180095107
sS'a'
F0.0023120870687418594
sS'paas'
p155
F0.004239385887279512
sS'backup'
p156
F0.0081380227686349421
sS'supervision'
p157
F0.0027400319677730114
sS'vms.'
p158
F0.0051861623214838051
sS'rather'
p159
F0.010898352227196633
sS'maintain'
p160
F0.0030178704150027719
sS'definitions'
p161
F0.0054846345671435452
sS'optimization/tuning'
p162
F0.0059529317868587802
sS'talk'
p163
F0.002735545156316689
sS'fixes/enhancements'
p164
F0.010548659893510573
sS'prioritizing'
p165
F0.0035226798693012121
sS'development.'
p166
F0.002696211088268089
sS'feedback'
p167
F0.0048135328583989263
sS"don't"
p168
F0.008490595474159375
sS'essence'
p169
F0.0046942919974366426
sS'over'
p170
F0.003582052855655085
sS'manage data'
p171
F0.0036729586437805146
sS'mission'
p172
F0.0013418861100160436
sS'left-and-right'
p173
F0.0051861623214838051
sS'course'
p174
F0.0024067664291994631
sS'interpersonal'
p175
F0.0020644733468644263
sS'including'
p176
F0.0019995669685688678
sS'innovative'
p177
F0.0010445858743891173
sS'mentioned'
p178
F0.0085336497986016266
sS'developer'
p179
F0.0081973138928884779
sS'perfect'
p180
F0.0030929295477100422
sS'group'
p181
F0.0013276270632049969
sS'monitor'
p182
F0.0047835938667426517
sS'interesting'
p183
F0.0028103918551699823
sS'winning'
p184
F0.0036070340742639798
sS'platform'
p185
F0.0047023597513573823
sS'production'
p186
F0.0043735423200956655
sS'systems'
p187
F0.0020233617014130049
sS'might'
p188
F0.0030659336913053939
sS'love---explore'
p189
F0.0051861623214838051
sS'seeking'
p190
F0.0013259653969812449
sS'functional'
p191
F0.00172587659959016
sS'band'
p192
F0.0032345933057643596
sS'strategic'
p193
F0.0013746664775210425
sS'term'
p194
F0.0022704736205720927
sS'workload'
p195
F0.0035112945566652112
sS'technology.'
p196
F0.0029837668450408573
sS'always'
p197
F0.0053091427203784047
sS'troubleshoot'
p198
F0.0027862751846449586
sS'early-stage'
p199
F0.0046942919974366426
sS'strategy.'
p200
F0.0030020249513465617
sS"technology'"
p201
F0.0052743299467552865
sS'capability'
p202
F0.0013835107359005743
sS'found'
p203
F0.0033855374340012096
sS'here---we'
p204
F0.0056136307816780449
sS'development'
p205
F0.0058052857666098731
sS'financial'
p206
F0.0015120397841712815
sS'team---if'
p207
F0.0051861623214838051
sS'community-based'
p208
F0.0053728929862514666
sS'evolve'
p209
F0.0092178043363318439
sS'generation'
p210
F0.0018298002420546731
sS'energy'
p211
F0.0068424125488478578
sS'idea'
p212
F0.0027458175838788808
sS'related'
p213
F0.00060060899441077842
sS'balanced'
p214
F0.004239385887279512
sS'enterprise software'
p215
F0.0038911372329615635
sS'expect'
p216
F0.0060795632325018334
sS'hosted'
p217
F0.0041870679374331659
sS'our'
p218
F0.00094677762677055147
sS'operation'
p219
F0.0012807303928150586
sS'beyond'
p220
F0.0024727378010025104
sS"'job"
p221
F0.0052743299467552865
sS'3rd'
p222
F0.0068304992664810875
sS'space'
p223
F0.0023655087616467111
sS'open'
p224
F0.0092332126313304334
sS'create.'
p225
F0.0048468618270764803
sS'looking'
p226
F0.00098453963377422883
sS'test/critique'
p227
F0.0056136307816780449
sS'got'
p228
F0.0038735194875716057
sS'sensor'
p229
F0.0060540116589051238
sS'math'
p230
F0.0019715114692568005
sS'data scientist'
p231
F0.00015486802892617705
sS'standard'
p232
F0.0043416778468849254
sS'reason'
p233
F0.0037749572993571686
sS'base'
p234
F0.0022255023954692505
sS'imagine'
p235
F0.0039463316743180892
sS'generate'
p236
F0.0019679279923421051
sS'revolutionary'
p237
F0.003545926025950114
sS"'who"
p238
F0.0052743299467552865
sS'training'
p239
F0.0045021366814111327
sS'perform'
p240
F0.0013103420527300611
sS'organic'
p241
F0.0080945494917377785
sS'created'
p242
F0.0063439990208212123
sS'programming'
p243
F0.0017394732560698934
sS'days'
p244
F0.012718157661838538
sS'retail'
p245
F0.0023858833264015166
sS'first'
p246
F0.0088492605747863811
sS'pl/pgsql'
p247
F0.0059529317868587802
sS'simply'
p248
F0.0034889783724218883
sS'structures.'
p249
F0.0049666111465109849
sS'coding'
p250
F0.0021991644086789951
sS'one'
p251
F0.00071875004704603275
sS'self-driven'
p252
F0.0039852602171807291
sS'design/modify'
p253
F0.0059529317868587802
sS'message'
p254
F0.0035944502467254915
sS'self-motivation.'
p255
F0.0051861623214838051
sS'quality'
p256
F0.001163528512197477
sS'engineer'
p257
F0.0059171804414349192
sS"you're"
p258
F0.0022206515914564577
sS'given'
p259
F0.0068816981248459872
sS'product/technology'
p260
F0.0051064050191022489
sS'service'
p261
F0.0014231057863368173
sS'start'
p262
F0.0025515112835081564
sS'leading'
p263
F0.00085827069768232647
sS'top'
p264
F0.0030982753814486111
sS'engagement'
p265
F0.0017912893357161608
sS'system'
p266
F0.0035141984127573644
sS'least'
p267
F0.002735315574315974
sS'remotely'
p268
F0.0039852602171807291
sS'priority'
p269
F0.0022158287480858493
sS'acquired'
p270
F0.0042128181091564288
sS'master'
p271
F0.0053254703656415627
sS'iaas'
p272
F0.0044535548830398237
sS'schema'
p273
F0.0034253928609200082
sS'exploring'
p274
F0.0021334582469629592
sS'excellent'
p275
F0.0031231080814865977
sS'relationship'
p276
F0.0014825008339657711
sS'business problem'
p277
F0.0015469729068654445
sS'tool'
p278
F0.0019958601122876539
sS'continuous'
p279
F0.0023597774353269212
sS'innovate'
p280
F0.0055256683291717247
sS'part'
p281
F0.0010723138139466448
sS'performance improvement'
p282
F0.0040913277388153072
sS'believe'
p283
F0.0051063593065985057
sS'data-tech'
p284
F0.0059529317868587802
sS'embrace.'
p285
F0.0051861623214838051
sS'bi-weekly'
p286
F0.0048468618270764803
sS'require'
p287
F0.0020930480846606727
sS'thinker'
p288
F0.002731082275543196
sS'matter'
p289
F0.0034517531991803199
sS'individual'
p290
F0.0031913314270802275
sS'architect'
p291
F0.0033329111416669256
sS'design'
p292
F0.0034208468090550859
sS"company's"
p293
F0.0025302360720674657
sS'toward'
p294
F0.0027958386063357634
sS'procedural'
p295
F0.008052176931859745
sS"pro's"
p296
F0.0056136307816780449
sS'outstanding'
p297
F0.0048135328583989263
sS'experience.'
p298
F0.002232831742545413
sS'self-motivated'
p299
F0.0026751322333930733
sS'comfortable'
p300
F0.0020291125541038548
sS'say'
p301
F0.0035944502467254915
sS"'above-and-beyond'"
p302
F0.0052743299467552865
sS'need'
p303
F0.00083764964391061362
sS'architected'
p304
F0.0053728929862514666
sS'viewed'
p305
F0.0043865738782214083
sS'complete'
p306
F0.0045003748829033933
sS'data.'
p307
F0.0019625813916888226
sS'built'
p308
F0.0045205381042187839
sS"'clock-puncher'"
p309
F0.0052743299467552865
sS'user experience'
p310
F0.0023540851002394796
sS'fashion.'
p311
F0.0049045962773097453
sS'responsible'
p312
F0.0010080433582778977
sS'able'
p313
F0.0038304240887795243
sS'snow'
p314
F0.0051861623214838051
sS'incentive'
p315
F0.0037297132734987839
sS'also'
p316
F0.0033704755363494323
sS'potential'
p317
F0.0015079029037158844
sS'build'
p318
F0.00077265470946911107
sS'off-shore'
p319
F0.0042128181091564288
sS'online'
p320
F0.0019643597982770974
sS'objective'
p321
F0.0019260823538146566
sS'effectiveness'
p322
F0.0023344614710261381
sS'multiple'
p323
F0.0029404100070705742
sS'collaboration'
p324
F0.004548591672065126
sS"technologists'"
p325
F0.0052743299467552865
sS'aws'
p326
F0.0039940699780721001
sS'business.'
p327
F0.002459764267325954
sS'paid'
p328
F0.0021874612917294296
sS'plan'
p329
F0.0013046588550507617
sS'extremely'
p330
F0.0030397816162509167
sS'model'
p331
F0.0030822367034274815
sS'bounced'
p332
F0.0051861623214838051
sS'sql server'
p333
F0.002735545156316689
sS'mobile'
p334
F0.0018733572845092152
sS'doc'
p335
F0.0049045962773097453
sS'drive'
p336
F0.00088038698697750237
sS'traditional'
p337
F0.0025197979432987272
sS"you'll"
p338
F0.0016467384994028919
sS'tech'
p339
F0.0021400210646467456
sS'enterprise'
p340
F0.0013915513167536517
sS'professional'
p341
F0.0011221897419046913
sS'physics'
p342
F0.0025267422076644575
sS'currently'
p343
F0.0018267741051522736
sS'bring'
p344
F0.0028230754199837929
sS'planning'
p345
F0.0017883991030815003
sS'solutions'
p346
F0.0014835022438483038
sS'find'
p347
F0.0017165575030370596
sS'r d'
p348
F0.00034361063754366304
sS'impact'
p349
F0.0024504265183809128
sS'holistic'
p350
F0.0035698364573578563
sS'based'
p351
F0.002035495601552419
sS'knowledge'
p352
F0.0025601673048128216
sS'big data'
p353
F0.0018436705499414883
sS'distributed'
p354
F0.0038900043872297438
sS'enough'
p355
F0.0035226798693012121
sS'operational'
p356
F0.0017245389276815514
sS'going'
p357
F0.0035698364573578563
sS'employee'
p358
F0.0034438613418692672
sS'enthusiasm'
p359
F0.0035698364573578563
sS'demonstrated'
p360
F0.0037495641816803738
sS'data modeling'
p361
F0.0022451918263080672
sS'exceptional'
p362
F0.0093508486755062067
sS'overall'
p363
F0.0019415302466114298
sS'scalable'
p364
F0.0018147778410009939
sS"con's"
p365
F0.0056136307816780449
sS'cannot'
p366
F0.003582052855655085
sS'closely'
p367
F0.0013444278395275812
sS'relational'
p368
F0.0037692206539587225
sS'gen'
p369
F0.0085903884567072371
sS'processes'
p370
F0.0027178346982513007
sS'covering'
p371
F0.0038562650241858792
sS'teams'
p372
F0.0048135328583989263
sS'qa'
p373
F0.005955536558658138
sS'admins'
p374
F0.0054846345671435452
sS'software/data-based'
p375
F0.0051861623214838051
sS'terabyte'
p376
F0.0035698364573578563
sS'architecture'
p377
F0.0030034713803289499
sS'activity'
p378
F0.0016274754494382268
sS'management technology'
p379
F0.0031279471984767666
sS'lifecycle'
p380
F0.00250948842527205
sS'vision'
p381
F0.0015970892142585533
sS'requirement'
p382
F0.00094677762677055147
sS'physically'
p383
F0.0044535548830398237
sS'testing'
p384
F0.001396954964885291
sS'administrator'
p385
F0.0035112945566652112
sS'culture'
p386
F0.0077079266466798767
sS'see'
p387
F0.0043381405262723927
sS'computer'
p388
F0.0026110408607746545
sS'college'
p389
F0.0026384788512962077
sS'result'
p390
F0.0027108146752843365
sS'flavor'
p391
F0.0049045962773097453
sV(2, 5]
p392
F0.00065684832807436295
sS'encouraged'
p393
F0.0025919789268137742
sS'hackathons'
p394
F0.0042668248993008133
sS'expert'
p395
F0.0010978273131873177
sS'tackling'
p396
F0.0034672419042277151
sS'away'
p397
F0.0037905990814120364
sS'posse'
p398
F0.0024629888412740146
sS'please'
p399
F0.0037201819359935881
sS'database design'
p400
F0.0033291022372942303
sS'written'
p401
F0.0010729269234138594
sS'various'
p402
F0.0050298698201103539
sS'hopefully'
p403
F0.0049045962773097453
sS'numerous'
p404
F0.0035226798693012121
sS'across'
p405
F0.002171960378345147
sS'conferencing'
p406
F0.0051064050191022489
sS'we'
p407
F0.0063007567330411436
sS"way'."
p408
F0.0052743299467552865
sS'ability'
p409
F0.00082280864331815153
sS'nature'
p410
F0.0028055125942000303
sS'keyboard'
p411
F0.0044891694528816388
sS'deliver'
p412
F0.002131198216259286
sS'sold'
p413
F0.0044535548830398237
sS'subject'
p414
F0.0032313149251380889
sS'however'
p415
F0.0033474942873433599
sS'dual-home'
p416
F0.0051861623214838051
sS'job'
p417
F0.00054367088997696387
sS'succeed'
p418
F0.0025515112835081564
sS'modeling'
p419
F0.00080808801498087493
sS'come'
p420
F0.0059199269393990827
sS'distribution'
p421
F0.0028055125942000303
sS'received'
p422
F0.003582052855655085
sS'talented'
p423
F0.0059145344077704016
sS'career'
p424
F0.0037862057167584707
sS'many'
p425
F0.013518400172864615
sS'invited'
p426
F0.0048468618270764803
sS'annual'
p427
F0.0025479276363593144
sS"'support"
p428
F0.0052743299467552865
sS'etc'
p429
F0.0046815666257583356
sS'operating'
p430
F0.0017339478602206842
sS'asked'
p431
F0.0029034646359001387
sS'etl'
p432
F0.0044220670897779273
sS'wall'
p433
F0.0043245591792771751
sS'community'
p434
F0.0046999819065086232
sS'60'
p435
F0.0031644945174996632
sS'data warehousing'
p436
F0.0027536385874535915
sS'learning'
p437
F0.0013087143380246355
sS'technologist'
p438
F0.011443265017329018
sS'100'
p439
F0.0016853721369903933
sS'conference'
p440
F0.0025587249539228132
sS'custom/derived'
p441
F0.0056136307816780449
sS'hard-products'
p442
F0.0051861623214838051
sS'addition'
p443
F0.0021851401842492221
sS'strategy'
p444
F0.0011752295866998292
sS'much'
p445
F0.0031351300773365272
sS'maintenance'
p446
F0.0022756229583827071
sS'basic'
p447
F0.0014715637260965919
sS'collaborator'
p448
F0.0037749572993571686
sS'flexible'
p449
F0.0019643597982770974
sS'meeting'
p450
F0.0023072027798347631
sS'4'
F0.0022704736205720927
sS'direction'
p451
F0.0018450973219507913
sS'patented'
p452
F0.0044535548830398237
sS"'big'"
p453
F0.0059529317868587802
sS'environment.'
p454
F0.0023316952913707226
sS'understand'
p455
F0.0033665692257140744
sS'deep'
p456
F0.004163904540776202
sS'stand-ups'
p457
F0.0051861623214838051
sS'dbdev'
p458
F0.0059529317868587802
sS'f2f'
p459
F0.0051064050191022489
sS"journey'"
p460
F0.0056136307816780449
sS'look'
p461
F0.0024097927363315418
sS'developing'
p462
F0.00091774959508430555
sS'these'
p463
F0.0023683892141523159
sS'leave'
p464
F0.0033022506019915417
sS'messaging/pub-sub'
p465
F0.0052743299467552865
sS'as'
p466
F0.0021446276278932895
sS'value'
p467
F0.00090812536480629636
sS'entrepreneurial'
p468
F0.0024250906673776141
sS'ongoing'
p469
F0.0023234512025804084
sS'fun'
p470
F0.0023344614710261381
sS'balance'
p471
F0.0025957567317551095
sS'trader'
p472
F0.0047421231358315162
sS'application development'
p473
F0.0026793057380462438
sS'welding'
p474
F0.0051861623214838051
sS'layer'
p475
F0.0068921115890860059
sS'30'
p476
F0.0027445429679267817
sS'rock-climbing'
p477
F0.0051861623214838051
sS'ip'
p478
F0.0038562650241858792
sS'it'
p479
F0.0022045242680894667
sS'encouragement'
p480
F0.0043245591792771751
sS'database administration'
p481
F0.0042951942283536186
sS'player'
p482
F0.0021667995498072844
sS'embrace'
p483
F0.0081273542521851528
sS'in'
p484
F0.0044628378360340466
sS'ready'
p485
F0.0023800112211591388
sS'technology'
p486
F0.0066687529334697269
sS'diagnostic'
p487
F0.0036593516836001582
sS'if'
p488
F0.0013469773158466666
sS'uptime'
p489
F0.0045263674102983473
sS'pas'
p490
F0.0031570562380326315
sS'develop'
p491
F0.0022926886954184825
sS'combination'
p492
F0.0018559741675474991
sS'tools/etc'
p493
F0.0051861623214838051
sS'create/modify'
p494
F0.0059529317868587802
sS'make'
p495
F0.001864275334473946
sS'hadoop'
p496
F0.0019912990830101359
sS'member'
p497
F0.0033067864021342004
sS'another'
p498
F0.0028872157024274281
sS'party'
p499
F0.0049718313227999945
sS'pre-alpha/beta'
p500
F0.0056136307816780449
sS'week'
p501
F0.0024859156613999973
sS'independent'
p502
F0.0022860176916184162
sS'used'
p503
F0.0031918845394707926
sS'practitioner'
p504
F0.0035698364573578563
sS'bonus'
p505
F0.0025408060608197625
sS'changing'
p506
F0.0021162049752802645
sS't-sql'
p507
F0.0045263674102983473
sS'opportunity'
p508
F0.00040807462685584216
sS'stack'
p509
F0.0023484312294697845
sS'expand'
p510
F0.0058853056324962112
sS'cycle'
p511
F0.0023829421225015825
sS'organically'
p512
F0.0051861623214838051
sS'reflection'
p513
F0.0047421231358315162
sS'database'
p514
F0.012957993009123489
sS'i'
F0.0056603969827729167
sS'well'
p515
F0.0064636079610934684
sS'analysis'
p516
F0.00041950627617177581
sS'client'
p517
F0.00088233807402522744
sS'solve'
p518
F0.0013079016669171543
sS'greatest'
p519
F0.0032848165601562359
sS'consistency'
p520
F0.0069779567448437765
sS'position'
p521
F0.0013040289836075687
sS'the'
p522
F0.0011240667675724491
sS'reward'
p523
F0.0056704485653809571
sS'latest'
p524
F0.0016677034546456991
sS'unified'
p525
F0.0037596025418578766
sS'being'
p526
F0.0037008548892658367
sS'hybrid'
p527
F0.0036729586437805146
sS'product'
p528
F0.0043122100459011894
sS'embrace/grow'
p529
F0.0056136307816780449
sS'identify'
p530
F0.0010410360271621993
sS'aspect'
p531
F0.0020564852312847156
sS'day-to-day'
p532
F0.002696211088268089
sS'skill'
p533
F0.00079851950413341386
sS'captured'
p534
F0.0041142555804310607
sS'work.'
p535
F0.0051466831785453903
sS'field'
p536
F0.00077996785223765676
sS"one-platform'"
p537
F0.0056136307816780449
sS'improvement'
p538
F0.0016274754494382268
sS'simple'
p539
F0.0025267422076644575
sS'internal'
p540
F0.0024226964921614607
sS'attractive'
p541
F0.0041870679374331659
sS'standards/work'
p542
F0.0051861623214838051
sS'input'
p543
F0.0026835001634629824
sS'real'
p544
F0.0017783612016211705
sS'vendor'
p545
F0.0050604721441349313
sS'around'
p546
F0.001347828870971825
sS'collaboratively'
p547
F0.0022679107870279408
sS'know'
p548
F0.010352574423228757
sS'deployment'
p549
F0.0018622535917375532
sS'using'
p550
F0.00060375274978868702
sS'world-class'
p551
F0.0023829421225015825
sS'process improvement'
p552
F0.0027582237442011904
sS'necessary'
p553
F0.0020993003060097598
sS'like'
p554
F0.0013054683801827364
sS'success'
p555
F0.0014357906371129945
sS'identifying'
p556
F0.0016879269743322444
sS'50'
p557
F0.0027400319677730114
sS'server'
p558
F0.0052143871511746926
sS'collect'
p559
F0.0026226900056859266
sS'benefit'
p560
F0.0025349374556006546
sS'continue'
p561
F0.0060815736234339658
sS'micro-management.'
p562
F0.0051861623214838051
sS'initiative'
p563
F0.0016602439206939948
sS'environments'
p564
F0.0098032150409999505
sS'passionate'
p565
F0.0032837619898950015
sS'soft'
p566
F0.0038562650241858792
sS'essential'
p567
F0.0019572687411775818
sS'often'
p568
F0.0064370009127523199
sS'verbal'
p569
F0.001501735690164475
sS'some'
p570
F0.0025623552452611726
sS'back'
p571
F0.0025587249539228132
sS'scrum'
p572
F0.0087601060841152982
sS'platforms'
p573
F0.0030860984956720236
sS'growth'
p574
F0.0014367376317669278
sVMaster
p575
F0.00080719479406184602
sS'left-'
p576
F0.0054846345671435452
sS'sprint'
p577
F0.0074303193683273594
sS'and/or'
p578
F0.0026149889847549811
sS'collaborative'
p579
F0.0016677034546456991
sS'broad'
p580
F0.0019312000246949448
sS'redis'
p581
F0.0040260884659298725
sS'integration'
p582
F0.0032242887556675126
sS'/'
F0.0025630341549102119
sS'competitions'
p583
F0.0043865738782214083
sS'models'
p584
F0.0024281841053974663
sS'critical'
p585
F0.0048967493672043361
sS'passion'
p586
F0.0032080082013662913
sS'innovation'
p587
F0.0010445858743891173
sS'over-used'
p588
F0.0051861623214838051
sS'minimal'
p589
F0.0026545713601892023
sS'core'
p590
F0.0043102128953007839
sS'data analysis'
p591
F0.002333906089750204
sS'business'
p592
F0.00032962814966376282
sS'business-critical'
p593
F0.0042951942283536186
sS'equivalent'
p594
F0.0013177062218260917
sS'white-board'
p595
F0.0056136307816780449
sS'communicate'
p596
F0.0010333959942210277
sS'comp-sci'
p597
F0.0051861623214838051
sS'24-hour'
p598
F0.0051064050191022489
sS'assemble'
p599
F0.0042951942283536186
sS'includes'
p600
F0.0018222553245057637
sS'pipeline'
p601
F0.0022577372383257785
sS'postgresql'
p602
F0.0067710748680024193
sS'working'
p603
F0.00088396798849532177
sS'perk'
p604
F0.0032427572986436968
sS'range'
p605
F0.0014885273542570849
sS'ensure'
p606
F0.0038898192114713939
sS'azure'
p607
F0.0061721969913440472
sS'os'
p608
F0.0038562650241858792
sS'software'
p609
F0.007211629316890949
sS'explore/interact'
p610
F0.0051861623214838051
sS'previously'
p611
F0.0035342222280263483
sS'communication'
p612
F0.0006561028394348273
sS'within'
p613
F0.0017500897041578568
sS'commitment'
p614
F0.0044804517218544363
sS'recognize'
p615
F0.0032762338850830766
sS'appropriate'
p616
F0.001585689921659938
sS'contributor'
p617
F0.0054621645510863921
sS'analyst'
p618
F0.0027563859352617006
sS'support'
p619
F0.0037039915024624443
sS'cloud-based'
p620
F0.0033111057533519177
sS'accountability'
p621
F0.0029958945441173369
sS'systems.'
p622
F0.0026266093746084907
sS'overtime'
p623
F0.0035698364573578563
sVBachelor
p624
F0.00028448131155828005
sS'camera'
p625
F0.0043245591792771751
sS'way'
p626
F0.0024169167076851625
sS'translate'
p627
F0.0018559741675474991
sS'happy'
p628
F0.0032848165601562359
sS'function'
p629
F0.003243091175470498
sS'real-time'
p630
F0.0024629888412740146
sS'interest'
p631
F0.0018058921939591722
sS'offering'
p632
F0.0047252763824565088
sS'offer'
p633
F0.0033010758491021524
sS'forming'
p634
F0.0043865738782214083
sS'delivery'
p635
F0.0043969732729393805
sS'brain'
p636
F0.004239385887279512
sS'technologies'
p637
F0.0021577778244269365
sS'role'
p638
F0.0030143983312176507
sS'true'
p639
F0.0029837668450408573
sS'bug'
p640
F0.0081380227686349421
sS'partitioning'
p641
F0.0057662009518331774
sS'characteristic'
p642
F0.0018343600700542735
sS'genscape.'
p643
F0.01037232464296761
sS'us'
p644
F0.0013755467072543838
sS'non-relational'
p645
F0.0041620865485693433
sS"genscape's"
p646
F0.015822989840265859
sS'demonstrate'
p647
F0.0043245530549619517
sS'autonomous'
p648
F0.0039852602171807291
sS'required'
p649
F0.0014239022277788267
sS'migrate'
p650
F0.0044193943884268784
sS'co-located'
p651
F0.0051064050191022489
sS'year'
p652
F0.0009530090319581179
sS'moved'
p653
F0.0047928548666752975
sS'life'
p654
F0.0036889196030856991
sS'proven'
p655
F0.0030831706586719504
sS'an'
p656
F0.0047425592340306095
sS'globally'
p657
F0.0029312676738628761
sS'engineering'
p658
F0.00087214528082079398
sS'held'
p659
F0.003839359163214524
sS'hobbies'
p660
F0.0051861623214838051
sS'software---not'
p661
F0.0051861623214838051
sS'physical'
p662
F0.0017783612016211705
sS'stack.'
p663
F0.0038911372329615635
sS'technologies.'
p664
F0.0030144221721655727
sS'right-brain'
p665
F0.0054846345671435452
sS'contest'
p666
F0.0048468618270764803
sS'composing'
p667
F0.0051861623214838051
sS'detail'
p668
F0.0018118054604709733
sS"'are"
p669
F0.0052743299467552865
sS'successful'
p670
F0.0015110036445681282
sS'5'
F0.0015256277025722275
sS'database development'
p671
F0.0043865738782214083
sS'cultures.'
p672
F0.0050335923215865117
sS'you'
p673
F0.013360220370274964
sS'developers'
p674
F0.0032510017279227042
sS'dynamic/distributed'
p675
F0.0051861623214838051
sS'java/c'
p676
F0.0049045962773097453
sS'center'
p677
F0.0020684961876049641
sS'problems'
p678
F0.0022628085502265412
sS'cranking'
p679
F0.0051861623214838051
sS'scale'
p680
F0.0014338998579304884
sS"'a"
p681
F0.0056136307816780449
sS'sql'
p682
F0.0039520120357686836
sS'throughout'
p683
F0.0020446442614949693
sS'pool'
p684
F0.0044193943884268784
sS'exposure'
p685
F0.0024438252064631714
sS'land'
p686
F0.0042128181091564288
sS'remote'
p687
F0.0028006616199467526
sS'home'
p688
F0.0026110408607746545
sS'consumer'
p689
F0.001585689921659938
sS'3-4'
p690
F0.0043549921840581075
sS'experts'
p691
F0.0049259776825480292
sS'portion'
p692
F0.0042668248993008133
sS'summit'
p693
F0.0047421231358315162
sS'u'
F0.0022070671138179035
sS"function'"
p694
F0.0052743299467552865
sS'time'
p695
F0.00093110169780834479
sS'once'
p696
F0.004239385887279512
s.