(dp1
S'move'
p2
F0.014121
sS'dynamic'
p3
F0.0098849999999999997
sS'focus'
p4
F0.0085880000000000001
sS'existing'
p5
F0.0090659999999999994
sS'including'
p6
F0.0073569999999999998
sS'solutions'
p7
F0.014009000000000001
sS'magical hybrid'
p8
F0.033943000000000001
sS'linux shell'
p9
F0.03218
sS'deep understanding'
p10
F0.013447000000000001
sS'multidisciplinary chop'
p11
F0.033943000000000001
sS'skill'
p12
F0.0040119999999999999
sS'discipline'
p13
F0.010673999999999999
sS'group'
p14
F0.007718
sS'knowledge'
p15
F0.0039969999999999997
sS'big data'
p16
F0.00677
sS'data exploration'
p17
F0.019533999999999999
sS'solving'
p18
F0.011651999999999999
sS'small team'
p19
F0.017489999999999999
sS'software developmentif'
p20
F0.033943000000000001
sS'analytic'
p21
F0.031210000000000002
sS'big data 100bs'
p22
F0.033943000000000001
sS"we're looking"
p23
F0.014891
sS'computer science'
p24
F0.0067660000000000003
sS'positive attitude'
p25
F0.021624999999999998
sS'data structure'
p26
F0.014009000000000001
sS'ad tech'
p27
F0.022169000000000001
sS'australia'
p28
F0.026152999999999999
sS'communicate complex idea'
p29
F0.015998999999999999
sS'online'
p30
F0.011377
sS'self-sufficiency'
p31
F0.033943000000000001
sS'multivariate analysis stochastic model'
p32
F0.033943000000000001
sS'framework'
p33
F0.0085810000000000001
sS'strong problem-solving skill'
p34
F0.021888000000000001
sS'application'
p35
F0.0047450000000000001
sS'massive data set'
p36
F0.021028000000000002
sS'one'
p37
F0.0050220000000000004
sS'maintaining'
p38
F0.012128999999999999
sS'business challenge'
p39
F0.020917999999999999
sS'desire'
p40
F0.012305
sS'execute'
p41
F0.0103
sS'business value creation'
p42
F0.025482999999999999
sS'analytic machinery pipeline'
p43
F0.033943000000000001
sS'solution'
p44
F0.0030920000000000001
sS'audience'
p45
F0.010404999999999999
sS'join u'
p46
F0.012351000000000001
sS'frame'
p47
F0.021888000000000001
sS'quick'
p48
F0.019227999999999999
sS'passionate'
p49
F0.0088710000000000004
sS'measurement instrumentation'
p50
F0.033943000000000001
sS'domain'
p51
F0.01155
sS'right'
p52
F0.010463
sS'statistical'
p53
F0.006646
sS'computational biologist bioinformatician data scientist'
p54
F0.033943000000000001
sS'work independently'
p55
F0.012086
sS'machine learning data mining'
p56
F0.015998999999999999
sS'see'
p57
F0.011587999999999999
sS'data analysis'
p58
F0.0084130000000000003
sS'design'
p59
F0.0071939999999999999
sS'python scala java c c++'
p60
F0.033943000000000001
sS'statistic'
p61
F0.015918999999999999
sS'operation'
p62
F0.0080149999999999996
sS'machine learning'
p63
F0.0094260000000000004
sS'theory'
p64
F0.015084999999999999
sS'collaborative'
p65
F0.011402000000000001
sS'record'
p66
F0.01337
sS'industrial engineering'
p67
F0.019776999999999999
sS'benefit'
p68
F0.0090729999999999995
sS'research'
p69
F0.0051330000000000004
sS'passion'
p70
F0.0084740000000000006
sS'new'
p71
F0.0040949999999999997
sS'evaluation'
p72
F0.024761999999999999
sS'method'
p73
F0.030405000000000001
sS'math'
p74
F0.013546000000000001
sS'basic admin'
p75
F0.033943000000000001
sS'2 year'
p76
F0.022828000000000001
sS'data science team'
p77
F0.012814000000000001
sS'creating'
p78
F0.0088170000000000002
sS'business'
p79
F0.0029870000000000001
sS'headquartered'
p80
F0.014009000000000001
sS'equivalent'
p81
F0.0097750000000000007
sS'stakeholder'
p82
F0.017905999999999998
sS'operation research'
p83
F0.01375
sS'leadership'
p84
F0.0074209999999999996
sS'focused'
p85
F0.0095700000000000004
sS'rapidly'
p86
F0.016891
sS'connexity audience'
p87
F0.033943000000000001
sS'computer science mathematics physic electrical engineering'
p88
F0.029959
sS'improve'
p89
F0.0065449999999999996
sS'software development'
p90
F0.010562999999999999
sS'large complex data set'
p91
F0.023931999999999998
sS'economics'
p92
F0.013835
sS'ingest'
p93
F0.021257000000000002
sS'etc'
p94
F0.01252
sS'life cycle'
p95
F0.015894999999999999
sS'plus'
p96
F0.0066750000000000004
sS"drive revenueif you've got"
p97
F0.033943000000000001
sS'implement'
p98
F0.012305999999999999
sS'retail'
p99
F0.013389
sS'top'
p100
F0.010404999999999999
sS'ability'
p101
F0.0049379999999999997
sS'relevant'
p102
F0.0079050000000000006
sS'optimizes audience'
p103
F0.033943000000000001
sS'within'
p104
F0.0052199999999999998
sS'data science'
p105
F0.010311000000000001
sS"across connexity's audience"
p106
F0.033943000000000001
sS'ms degree'
p107
F0.016934000000000001
sS'sampling'
p108
F0.020504000000000001
sS'united states'
p109
F0.011905000000000001
sS'senior data scientist'
p110
F0.013428000000000001
sS'directly'
p111
F0.012648
sS'modeling'
p112
F0.007339
sS'apply'
p113
F0.0061060000000000003
sS'business value-oriented rolethen'
p114
F0.033943000000000001
sS'owning'
p115
F0.053061999999999998
sS'engineer'
p116
F0.014803
sS'use'
p117
F0.0047029999999999997
sS'management'
p118
F0.0049160000000000002
sS'service'
p119
F0.0046430000000000004
sS'create'
p120
F0.0058409999999999998
sS'map reduce hadoop hive spark'
p121
F0.03218
sS'much'
p122
F0.01754
sS'flexible'
p123
F0.012567999999999999
sS'prototype'
p124
F0.011341
sS'quantitative discipline'
p125
F0.013389
sS'work environment'
p126
F0.013467
sS'linear model'
p127
F0.027404000000000001
sS'complete'
p128
F0.013037999999999999
sS'offer'
p129
F0.0069940000000000002
sS'detail'
p130
F0.0099979999999999999
sS'tool'
p131
F0.0062769999999999996
sS'needle'
p132
F0.030929000000000002
sS"right advertisement we're"
p133
F0.033943000000000001
sS'understand'
p134
F0.0061929999999999997
sS'excellent'
p135
F0.0089669999999999993
sS'algorithm'
p136
F0.0054029999999999998
sS'work'
p137
F0.0015139999999999999
sS'3 year relevant'
p138
F0.033943000000000001
sS'value'
p139
F0.014860999999999999
sS'analytic solution'
p140
F0.016480999999999999
sS'production system'
p141
F0.018676000000000002
sS'optimization'
p142
F0.009051
sS'competitive comp free lunch'
p143
F0.033943000000000001
sS'attention'
p144
F0.014307
sS'translate business challenge'
p145
F0.033943000000000001
sS'demonstrate'
p146
F0.011601
sS'problem'
p147
F0.0060169999999999998
sS'scripting'
p148
F0.013856
sS'eg'
p149
F0.017239000000000001
sS'process'
p150
F0.0044010000000000004
sS'site'
p151
F0.013294
sS'deep'
p152
F0.01094
sS'engineering'
p153
F0.0058710000000000004
sS'minimum'
p154
F0.016244999999999999
sS'expertise'
p155
F0.0058510000000000003
sS'experience'
p156
F0.003248
sS'want'
p157
F0.0084620000000000008
sS'fluency'
p158
F0.015029000000000001
sS'advancing'
p159
F0.018303
sS'guarantee'
p160
F0.017691999999999999
sS'high-level programming language'
p161
F0.029959
sS'monitoring'
p162
F0.012215999999999999
sS'feature'
p163
F0.011223
sS'client'
p164
F0.005555
sS'also'
p165
F0.0072020000000000001
sS'responsibilities'
p166
F0.0054000000000000003
sS'demanding fast-paced'
p167
F0.03218
sS'quant'
p168
F0.033943000000000001
sS'build'
p169
F0.0084810000000000007
sS'work experience'
p170
F0.011329000000000001
sS'big'
p171
F0.012616
sS'3 year'
p172
F0.010271000000000001
sS'casual work environment'
p173
F0.028496
sS'development'
p174
F0.0029169999999999999
sS'product'
p175
F0.0065659999999999998
sS'united kingdom italy germany'
p176
F0.033943000000000001
sS'generates'
p177
F0.021624999999999998
sS'computational biology'
p178
F0.022962
sS'qualifications'
p179
F0.0052399999999999999
sS'proficiency'
p180
F0.0084069999999999995
sS'prior experience'
p181
F0.016722000000000001
sS'curiosity'
p182
F0.016891
sS'bioinformatics'
p183
F0.018422999999999998
sS'data'
p184
F0.0042430000000000002
sS'model'
p185
F0.0043309999999999998
sS'building'
p186
F0.011329000000000001
sS'collaborate'
p187
F0.0074060000000000003
sS'especially'
p188
F0.015001
sS'scalable efficient'
p189
F0.023931999999999998
sS'statistician'
p190
F0.017441000000000002
sS'business value'
p191
F0.017958999999999999
sS'design prototype'
p192
F0.022169000000000001
sS'maintain'
p193
F0.0080490000000000006
sS'los angeles'
p194
F0.022315999999999999
sS'time'
p195
F0.0065970000000000004
sS'organization'
p196
F0.0048809999999999999
sS'architect'
p197
F0.010973
sS'operate'
p198
F0.013943000000000001
sS'consumer'
p199
F0.0090939999999999997
sS'talk'
p200
F0.015029000000000001
s.