(dp1
S'advertiser'
p2
F0.019278
sS'world'
p3
F0.0058710000000000004
sS'help'
p4
F0.0076959999999999997
sS'enjoyable'
p5
F0.027573
sS'work done'
p6
F0.026001
sS'attitude'
p7
F0.013736999999999999
sS'nativo platform'
p8
F0.028688000000000002
sS'statistical'
p9
F0.011849999999999999
sS'innovative'
p10
F0.00662
sS'pragmatic polished'
p11
F0.028688000000000002
sS'latest greatest datascience technique'
p12
F0.028688000000000002
sS'20'
p13
F0.014871000000000001
sS'knowledge'
p14
F0.010689000000000001
sS'big data'
p15
F0.0060350000000000004
sS'agile'
p16
F0.010319
sS'predictive model'
p17
F0.0091900000000000003
sS'program'
p18
F0.0060650000000000001
sS'interruptive ad'
p19
F0.028688000000000002
sS'pride'
p20
F0.018279
sS'transformation'
p21
F0.011453
sS'smart'
p22
F0.025989000000000002
sS'good'
p23
F0.0084259999999999995
sS'handle'
p24
F0.01414
sS'competitive compensation'
p25
F0.016264000000000001
sS'get'
p26
F0.0087670000000000005
sS'internet'
p27
F0.012629
sS'big data infrastructure'
p28
F0.020965000000000001
sS'vowpal wabbit h2o tensorflow theano keras'
p29
F0.028688000000000002
sS'traffic'
p30
F0.017706
sS'background'
p31
F0.0071060000000000003
sS'report'
p32
F0.0053990000000000002
sS'using'
p33
F0.0043030000000000004
sS'programming experience ideally'
p34
F0.026707999999999999
sS'advanced'
p35
F0.018162000000000001
sS'evolution'
p36
F0.016649000000000001
sS'experiencing'
p37
F0.024885999999999998
sS'solution'
p38
F0.0027560000000000002
sS'batch stochastic gradient descent neural network svm etc'
p39
F0.028688000000000002
sS'excellence'
p40
F0.0092069999999999999
sS'team'
p41
F0.004444
sS'passionate'
p42
F0.0079080000000000001
sS'machine learning library'
p43
F0.018950000000000002
sS'deal'
p44
F0.016649000000000001
sS'people'
p45
F0.010031
sS'good understanding'
p46
F0.029524999999999999
sS'startup'
p47
F0.012548
sS'elegant'
p48
F0.019278
sS'offer'
p49
F0.01247
sS'connect'
p50
F0.014201
sS'machine learning'
p51
F0.004202
sS'click'
p52
F0.015726
sS'project'
p53
F0.0031389999999999999
sS'scale'
p54
F0.0087220000000000006
sS'space'
p55
F0.010864
sS'rapidly growing'
p56
F0.016948999999999999
sS'research'
p57
F0.0045760000000000002
sS'looking'
p58
F0.010511
sS'r'
F0.0058240000000000002
sS'various'
p59
F0.040193
sS'adapt'
p60
F0.013275
sS'innovation'
p61
F0.0060499999999999998
sS'evaluation'
p62
F0.011037
sS'leader'
p63
F0.0061190000000000003
sS'math'
p64
F0.012076
sS'ability'
p65
F0.0066030000000000004
sS'power'
p66
F0.010388
sS'big data data-science infrastructure'
p67
F0.028688000000000002
sS'attention'
p68
F0.012754
sS'data scientist'
p69
F0.0025609999999999999
sS'rapidly'
p70
F0.015058
sS'spark'
p71
F0.0094789999999999996
sS'improve'
p72
F0.017505
sS'driven'
p73
F0.015589
sS'natural language processing'
p74
F0.011077999999999999
sS'engage'
p75
F0.010252000000000001
sS'fit'
p76
F0.013551000000000001
sS'language'
p77
F0.0076160000000000004
sS'shift'
p78
F0.01405
sS'rethink'
p79
F0.026707999999999999
sS'f1 score auc roc confusion matrix logloss etc'
p80
F0.028688000000000002
sS'programming'
p81
F0.0071599999999999997
sS'experience'
p82
F0.0014480000000000001
sS'enabling'
p83
F0.012588
sS'etc'
p84
F0.005581
sS'amount'
p85
F0.016160000000000001
sS'advertising'
p86
F0.012840000000000001
sS'consume content'
p87
F0.028688000000000002
sS'good communication skill'
p88
F0.019056
sS'start-up environment'
p89
F0.022450000000000001
sS'top'
p90
F0.0092759999999999995
sS'software'
p91
F0.0039560000000000003
sS'offer incredible opportunity'
p92
F0.026707999999999999
sS'brand nativo'
p93
F0.028688000000000002
sS'large-scale'
p94
F0.012775
sS'stock option'
p95
F0.016886999999999999
sS'data science'
p96
F0.0091920000000000005
sS'powerful'
p97
F0.015505
sS'transform'
p98
F0.01119
sS'thought leader'
p99
F0.014657
sS'senior data scientist'
p100
F0.011971000000000001
sS'problem solving'
p101
F0.011305000000000001
sS'immediate impact nativo'
p102
F0.028688000000000002
sS'apply'
p103
F0.0054429999999999999
sS"nativo's big data infrastructure"
p104
F0.030259000000000001
sS'emr'
p105
F0.019762999999999999
sS'open'
p106
F0.010527999999999999
sS'digital advertising'
p107
F0.036382999999999999
sS"you're"
p108
F0.011971000000000001
sS'use'
p109
F0.012577
sS'high volume low latency problem'
p110
F0.028688000000000002
sS'targeting'
p111
F0.014798
sS'publication'
p112
F0.014232
sS'area'
p113
F0.010529
sS'deep learning'
p114
F0.011953
sS'interact'
p115
F0.010503999999999999
sS'engagement'
p116
F0.010297000000000001
sS'system'
p117
F0.0035630000000000002
sS'cutting edge'
p118
F0.011393
sS'process'
p119
F0.0078460000000000005
sS'willing'
p120
F0.012166
sS'way'
p121
F0.011698
sS'utilizing'
p122
F0.011623
sS'engine'
p123
F0.015681
sS'health coverage employer-matched 401k'
p124
F0.028688000000000002
sS'medium'
p125
F0.0099939999999999994
sS'open source'
p126
F0.010153000000000001
sS'thousand'
p127
F0.014834
sS'python scala java'
p128
F0.024021000000000001
sS'part'
p129
F0.010603
sS'excellent'
p130
F0.0079939999999999994
sS'focusing'
p131
F0.015960999999999999
sS'believe'
p132
F0.0080249999999999991
sS'blocking'
p133
F0.028688000000000002
sS'benefit package'
p134
F0.014907
sS'must'
p135
F0.0054079999999999996
sS'made'
p136
F0.01172
sS'join'
p137
F0.0057889999999999999
sS'main focus'
p138
F0.026001
sS'work'
p139
F0.0040499999999999998
sS'proven experience writing'
p140
F0.028688000000000002
sS'value'
p141
F0.0066239999999999997
sS'ad blindness'
p142
F0.028688000000000002
sS'team member'
p143
F0.015495
sS'entrepreneurial'
p144
F0.014692
sS'optimization'
p145
F0.0080689999999999998
sS'learn'
p146
F0.014763
sS'growing'
p147
F0.010612999999999999
sS'problem'
p148
F0.010728
sS'providing'
p149
F0.0067120000000000001
sS'designing'
p150
F0.0093279999999999995
sS'across billion'
p151
F0.026707999999999999
sS'xgboost'
p152
F0.028688000000000002
sS'pageviews'
p153
F0.028688000000000002
sS'ad'
p154
F0.013155999999999999
sS'mindful'
p155
F0.028688000000000002
sS'available anywhere else'
p156
F0.026001
sS'metric'
p157
F0.0097140000000000004
sS'non-sql big data'
p158
F0.028688000000000002
sS'proven'
p159
F0.010877
sS'forcing medium'
p160
F0.028688000000000002
sS'engineering'
p161
F0.0052339999999999999
sS'nativo'
p162
F0.028688000000000002
sS'need'
p163
F0.004169
sS'motivated'
p164
F0.013398
sS'technology'
p165
F0.014063000000000001
sS'everyday'
p166
F0.019165999999999999
sS'native'
p167
F0.018648000000000001
sS'strength'
p168
F0.01295
sS'develop'
p169
F0.0030230000000000001
sS'variety'
p170
F0.0076779999999999999
sS'user experience'
p171
F0.011801000000000001
sS'technology xgboost etc'
p172
F0.028688000000000002
sS'responsible'
p173
F0.0095460000000000007
sS'-'
F0.0057999999999999996
sS'hadoop'
p174
F0.0075160000000000001
sS'event'
p175
F0.011305000000000001
sS'also'
p176
F0.0064200000000000004
sS'potential'
p177
F0.0093720000000000001
sS'role'
p178
F0.0040309999999999999
sS'largest'
p179
F0.011936
sS'minimal supervision'
p180
F0.015254999999999999
sS'company'
p181
F0.0079019999999999993
sS'teamwork skill'
p182
F0.021335
sS'product'
p183
F0.0058529999999999997
sS'used'
p184
F0.0081390000000000004
sS'reach'
p185
F0.013132
sS'content rather'
p186
F0.026707999999999999
sS'includes'
p187
F0.0095619999999999993
sS'director'
p188
F0.011752
sS'mathematical model'
p189
F0.016826000000000001
sS'important'
p190
F0.010552000000000001
sS'user'
p191
F0.0072870000000000001
sS'improving'
p192
F0.010957
sS'changing'
p193
F0.012733
sS'matrix factorization gradient boosting random forest'
p194
F0.028688000000000002
sS'data'
p195
F0.0018910000000000001
sS'stack'
p196
F0.013499000000000001
sS'billion'
p197
F0.011468000000000001
sS'operate'
p198
F0.012429000000000001
sS'algorithm'
p199
F0.004816
sS'consumer'
p200
F0.016213999999999999
sS'well'
p201
F0.004581
sS'daily'
p202
F0.013017000000000001
sS'order'
p203
F0.0085389999999999997
sS'efficient'
p204
F0.011176
sS"you'll"
p205
F0.017811
sS'solve'
p206
F0.0076839999999999999
sS'model'
p207
F0.0038609999999999998
sS'talented'
p208
F0.011377999999999999
sS'opportunity'
p209
F0.003888
sS'make'
p210
F0.0098209999999999999
s.