(dp1
S'atmosphere'
p2
F0.013006999999999999
sS'overseeing'
p3
F0.014079
sS'help'
p4
F0.0052529999999999999
sS'office'
p5
F0.0051229999999999999
sS'business unit'
p6
F0.0083040000000000006
sS'able'
p7
F0.0040940000000000004
sS'executive'
p8
F0.0074510000000000002
sS'focus'
p9
F0.010451
sS'entire ticketmaster ecosystem'
p10
F0.022487
sS'shape'
p11
F0.009358
sS'including'
p12
F0.002238
sS'qa team'
p13
F0.016143000000000001
sS'tag management'
p14
F0.018228999999999999
sS'ad'
p15
F0.0089789999999999991
sS'skill'
p16
F0.002441
sS'qualifications'
p17
F0.003189
sS'ticket'
p18
F0.028618999999999999
sS'consider'
p19
F0.0072189999999999997
sS'web'
p20
F0.0064270000000000004
sS'ha'
p21
F0.0049150000000000001
sS'based'
p22
F0.0039199999999999999
sS'21'
p23
F0.018818999999999999
sS'candidate'
p24
F0.0049459999999999999
sS'everything'
p25
F0.008267
sS'implementation'
p26
F0.0045120000000000004
sS'ease'
p27
F0.012537
sS'ticketmasters client'
p28
F0.022487
sS'operational'
p29
F0.0056810000000000003
sS'environment'
p30
F0.0030620000000000001
sS'platform'
p31
F0.0036350000000000002
sS'compelling'
p32
F0.010076
sS'145 000'
p33
F0.020653000000000001
sS'employee'
p34
F0.0047410000000000004
sS'passion'
p35
F0.005156
sS'new feature'
p36
F0.023137000000000001
sS'presentation'
p37
F0.010120000000000001
sS'third-party'
p38
F0.013868
sS'acceptance criterion'
p39
F0.018818999999999999
sS'division'
p40
F0.0080549999999999997
sS'global'
p41
F0.0045599999999999998
sS'handle'
p42
F0.0096509999999999999
sS'around'
p43
F0.0053480000000000003
sS'seeking'
p44
F0.004764
sS'familiar'
p45
F0.0085240000000000003
sS'tech ticketing company'
p46
F0.020653000000000001
sS'connects'
p47
F0.015152000000000001
sS'truly'
p48
F0.023581999999999999
sS'weigh varied'
p49
F0.022487
sS'fan'
p50
F0.077525999999999998
sS'rest'
p51
F0.0098890000000000002
sS'world'
p52
F0.0040070000000000001
sS'tie u'
p53
F0.020653000000000001
sS'unique'
p54
F0.0068719999999999996
sS'bringing'
p55
F0.0090279999999999996
sS'strive'
p56
F0.0073109999999999998
sS'desire'
p57
F0.0074869999999999997
sS'level'
p58
F0.0039039999999999999
sS'skills'
p59
F0.005751
sS'always'
p60
F0.010076
sS'solution'
p61
F0.0018810000000000001
sS'user story'
p62
F0.028159
sS'multiple factor'
p63
F0.016395
sS'maintain'
p64
F0.014692
sS'evangelize'
p65
F0.012663000000000001
sS'passionate'
p66
F0.010795000000000001
sS'view'
p67
F0.0084180000000000001
sS'requirement'
p68
F0.010026
sS'fun'
p69
F0.0078480000000000008
sS'job summary'
p70
F0.0096100000000000005
sS'people'
p71
F0.0034229999999999998
sS'cross-departmental team'
p72
F0.019581000000000001
sS'globe'
p73
F0.0064580000000000002
sS'day-to-day'
p74
F0.010642
sS'discover'
p75
F0.0089949999999999995
sS'roadmap'
p76
F0.0081239999999999993
sS'culture'
p77
F0.0054140000000000004
sS'every day'
p78
F0.0076470000000000002
sS'individual'
p79
F0.0042079999999999999
sS'video'
p80
F0.0095099999999999994
sS'connect'
p81
F0.0096930000000000002
sS'multiple geographic location'
p82
F0.020653000000000001
sS'year'
p83
F0.0053239999999999997
sS'seo'
p84
F0.014562
sS'event'
p85
F0.054011000000000003
sS'innovator'
p86
F0.012599000000000001
sS'business'
p87
F0.0054520000000000002
sS'directive'
p88
F0.020653000000000001
sS'entertainment'
p89
F0.025073000000000002
sS'managing'
p90
F0.0059480000000000002
sS'quality'
p91
F0.0088500000000000002
sS'specification'
p92
F0.0093760000000000007
sS'proficient'
p93
F0.0075430000000000002
sS'lean'
p94
F0.012933999999999999
sS'increase'
p95
F0.0091109999999999993
sS'perfect candidate'
p96
F0.029395000000000001
sS'rewarding'
p97
F0.011568999999999999
sS'connecting'
p98
F0.011526
sS'adapt'
p99
F0.0090609999999999996
sS'solution-oriented'
p100
F0.020653000000000001
sS'new'
p101
F0.0024919999999999999
sS'epic'
p102
F0.016986000000000001
sS'across'
p103
F0.0059129999999999999
sS'supporting'
p104
F0.0061879999999999999
sS'ensure'
p105
F0.0044359999999999998
sS'run'
p106
F0.0082059999999999998
sS'ability'
p107
F0.0015020000000000001
sS'power'
p108
F0.0070899999999999999
sS'key driver'
p109
F0.016395
sS'client count'
p110
F0.020653000000000001
sS'marketing'
p111
F0.013780000000000001
sS'ticketmaster'
p112
F0.082613000000000006
sS'data scientist'
p113
F0.001748
sS'understanding'
p114
F0.0067990000000000004
sS'product management'
p115
F0.0079229999999999995
sS"improving ticketmaster's data infrastructure"
p116
F0.022487
sS'succeed'
p117
F0.0099810000000000003
sS'online'
p118
F0.0069230000000000003
sS'others'
p119
F0.0053730000000000002
sS'decision'
p120
F0.0045450000000000004
sS'standard'
p121
F0.0048529999999999997
sS'change'
p122
F0.0096399999999999993
sS'improve'
p123
F0.0079649999999999999
sS'definition'
p124
F0.0099340000000000001
sS'engage'
p125
F0.0069969999999999997
sS'product management principle'
p126
F0.022487
sS'work independently'
p127
F0.0073540000000000003
sS'12 000'
p128
F0.015701
sS'technical'
p129
F0.0025149999999999999
sS'country'
p130
F0.0084969999999999993
sS'industry'
p131
F0.0090299999999999998
sS'data sciences'
p132
F0.013237000000000001
sS'csdegree'
p133
F0.022487
sS'experience'
p134
F0.001977
sS'pace'
p135
F0.025455999999999999
sS'multiple project simultaneously'
p136
F0.013971000000000001
sS'data layer'
p137
F0.039161000000000001
sS'prior experience'
p138
F0.010175
sS'implement'
p139
F0.0037439999999999999
sS'introduced'
p140
F0.019581000000000001
sS'common thread'
p141
F0.019581000000000001
sS'support'
p142
F0.0018109999999999999
sS'authoring'
p143
F0.016674000000000001
sS'tracking pixel'
p144
F0.022487
sS'engineer'
p145
F0.0045030000000000001
sS'team-oriented'
p146
F0.016674000000000001
sS'3+ year'
p147
F0.013950000000000001
sS'love'
p148
F0.0070590000000000002
sS'point'
p149
F0.0094710000000000003
sS'marketing channel'
p150
F0.014433
sS'communication'
p151
F0.016521999999999998
sS'within'
p152
F0.003176
sS'nearly 455 million'
p153
F0.020653000000000001
sS'fan experience'
p154
F0.022487
sS'governance'
p155
F0.0096100000000000005
sS'determine'
p156
F0.0078069999999999997
sS'manage'
p157
F0.0044450000000000002
sS"world's leading"
p158
F0.012728
sS'open'
p159
F0.0071859999999999997
sS'ecommerce'
p160
F0.011136999999999999
sS'ideal candidate'
p161
F0.0065139999999999998
sS'use'
p162
F0.0057229999999999998
sS'strong'
p163
F0.0026830000000000001
sS'excellent communication skill'
p164
F0.0087200000000000003
sS'take nothing'
p165
F0.022487
sS'capable'
p166
F0.0088690000000000001
sS'data'
p167
F0.01291
sS'create'
p168
F0.0071079999999999997
sS'agile scrum'
p169
F0.012537
sS'recruiting'
p170
F0.0096930000000000002
sS'fast'
p171
F0.0097999999999999997
sS'accountability'
p172
F0.010004000000000001
sS'anyone'
p173
F0.014079
sS'live'
p174
F0.060437999999999999
sS'various ticketing channel'
p175
F0.022487
sS'collected'
p176
F0.012728
sS'required'
p177
F0.0051260000000000003
sS'mindset'
p178
F0.010278000000000001
sS'work experience'
p179
F0.013787000000000001
sS'selling'
p180
F0.014192
sS'offer'
p181
F0.0042560000000000002
sS'knowledge'
p182
F0.0024320000000000001
sS'company'
p183
F0.0026970000000000002
sS'else'
p184
F0.013158
sS'data-informed culture'
p185
F0.018228999999999999
sS'continuously'
p186
F0.010642
sS'hear'
p187
F0.010703000000000001
sS'see'
p188
F0.007051
sS'bachelors degree mba'
p189
F0.022487
sS'data intelligible'
p190
F0.022487
sS'believe'
p191
F0.0054770000000000001
sS'true'
p192
F0.011485
sS'analyst'
p193
F0.0053810000000000004
sS'must'
p194
F0.018457000000000001
sS'sound'
p195
F0.01044
sS'keeping'
p196
F0.011655
sS'artist team'
p197
F0.020653000000000001
sS'ops'
p198
F0.015913
sS'analytics'
p199
F0.0048529999999999997
sS'challenge'
p200
F0.0049839999999999997
sS'work'
p201
F0.002764
sS'crave'
p202
F0.020653000000000001
sS'value'
p203
F0.0090419999999999997
sS'career'
p204
F0.011146
sS'diverse'
p205
F0.0051679999999999999
sS'methodology'
p206
F0.004646
sS'visit'
p207
F0.010642
sS'growing'
p208
F0.0072439999999999996
sS'making'
p209
F0.0066899999999999998
sS'enables'
p210
F0.010734
sS'broad'
p211
F0.0081589999999999996
sS'insure quality'
p212
F0.022487
sS'plus'
p213
F0.020306999999999999
sS'challenging'
p214
F0.0073540000000000003
sS'programming'
p215
F0.0048869999999999999
sS'rapidly evolving'
p216
F0.013868
sS'accessibility'
p217
F0.016395
sS'work hard'
p218
F0.010829
sS'high'
p219
F0.0066829999999999997
sS'rock-star team'
p220
F0.020653000000000001
sS'collaborate'
p221
F0.0045059999999999996
sS'embrace'
p222
F0.0098659999999999998
sS'analysis'
p223
F0.0021679999999999998
sS'need'
p224
F0.002846
sS'partner'
p225
F0.0041949999999999999
sS'big-picture view'
p226
F0.022487
sS'technology'
p227
F0.0038400000000000001
sS'education'
p228
F0.0086470000000000002
sS'develop'
p229
F0.0082539999999999992
sS'data used'
p230
F0.011934
sS'media'
p231
F0.011984
sS'granted'
p232
F0.018228999999999999
sS'responsible'
p233
F0.003258
sS'cohesive'
p234
F0.016143000000000001
sS'shifting priority'
p235
F0.019581000000000001
sS'mix'
p236
F0.011324000000000001
sS'responsibilities'
p237
F0.0032859999999999999
sS'internal'
p238
F0.0042399999999999998
sS'role'
p239
F0.0055019999999999999
sS'post roll-out'
p240
F0.022487
sS"you'll find"
p241
F0.012728
sS'digital'
p242
F0.0058089999999999999
sS'obsessed'
p243
F0.015701
sS'product roll-out'
p244
F0.022487
sS'marketing attribution'
p245
F0.022487
sS'team player'
p246
F0.0080890000000000007
sS'worldwide'
p247
F0.0084700000000000001
sS'product'
p248
F0.0099880000000000004
sS'deep understanding'
p249
F0.008182
sS'comprehensive'
p250
F0.0077860000000000004
sS'assist'
p251
F0.0057850000000000002
sS'minimum'
p252
F0.0049420000000000002
sS'action versus'
p253
F0.020653000000000001
sS'helping'
p254
F0.0057000000000000002
sS'consistency'
p255
F0.013158
sS'bias'
p256
F0.011984
sS'important'
p257
F0.0072020000000000001
sS'plan'
p258
F0.0050309999999999999
sS'curiosity'
p259
F0.010278000000000001
sS'data driven'
p260
F0.0090609999999999996
sS'nation'
p261
F0.011209999999999999
sS'opportunity'
p262
F0.0026540000000000001
sS'expand'
p263
F0.0095700000000000004
sS'ticketing'
p264
F0.022487
sS'purchase'
p265
F0.011934
sS'stress'
p266
F0.014433
sS'tracking'
p267
F0.018322999999999999
sS'remember'
p268
F0.015323
sS'work closely'
p269
F0.005365
sS'management'
p270
F0.0029910000000000002
sS'clear'
p271
F0.0072769999999999996
sS'proud'
p272
F0.0070899999999999999
sS'well'
p273
F0.0031259999999999999
sS'drive'
p274
F0.010193000000000001
sS'together'
p275
F0.0072690000000000003
sS'person'
p276
F0.007162
sS'client'
p277
F0.010141000000000001
sS'u'
F0.0061599999999999997
sS'ticketmaster business'
p278
F0.022487
sS'data governance'
p279
F0.022273000000000001
sS'product manager'
p280
F0.014102
sS'model'
p281
F0.0026350000000000002
sS'make'
p282
F0.0033519999999999999
sS'joining'
p283
F0.0090939999999999997
s.