(dp1
S'digital marketing'
p2
F0.0093380000000000008
sS'predictive models'
p3
F0.014933999999999999
sS'extract data'
p4
F0.012368000000000001
sS'experience working'
p5
F0.0044990000000000004
sS'influence ten'
p6
F0.016164999999999999
sS'break new'
p7
F0.015793000000000001
sS'insight'
p8
F0.0032000000000000002
sS'desirable'
p9
F0.017812000000000001
sS'machine-to-machine decision'
p10
F0.017142000000000001
sS'bring'
p11
F0.0043070000000000001
sS'quality control'
p12
F0.011056
sS'proprietary data'
p13
F0.014704
sS'best actions'
p14
F0.018811999999999999
sS'go'
p15
F0.014652999999999999
sS'help'
p16
F0.0071760000000000001
sS'best practice'
p17
F0.0050239999999999998
sS'rapid'
p18
F0.0098930000000000008
sS'based'
p19
F0.003571
sS'attribution model'
p20
F0.015793000000000001
sS'application'
p21
F0.00263
sS'experience specifically'
p22
F0.014704
sS'across los angeles new york'
p23
F0.016164999999999999
sS'high-wire act'
p24
F0.016164999999999999
sS'marketshare ha'
p25
F0.016164999999999999
sS'send'
p26
F0.010616
sS'align decision making'
p27
F0.016164999999999999
sS'environment'
p28
F0.0055789999999999998
sS'analytic'
p29
F0.0043239999999999997
sS'willing'
p30
F0.0075630000000000003
sS'easy'
p31
F0.0090910000000000001
sS'include'
p32
F0.0045019999999999999
sS'ensure alignment'
p33
F0.013146
sS'smart'
p34
F0.0080789999999999994
sS'build'
p35
F0.0023500000000000001
sS'colleague'
p36
F0.006992
sS'executive'
p37
F0.0067869999999999996
sS'attribution'
p38
F0.061037000000000001
sS'finance'
p39
F0.006339
sS'interdisciplinary'
p40
F0.012824
sS'get'
p41
F0.00545
sS'decision-making process'
p42
F0.013517
sS'automotive'
p43
F0.0098340000000000007
sS'marketshare employee'
p44
F0.018811999999999999
sS'regional'
p45
F0.010826000000000001
sS'combination'
p46
F0.0066750000000000004
sS'preferred'
p47
F0.0034650000000000002
sS'marketing investment'
p48
F0.025648000000000001
sS'consumer electronics entertainment'
p49
F0.016164999999999999
sS'press'
p50
F0.013655
sS'using'
p51
F0.0026749999999999999
sS'consumer touch point'
p52
F0.015471
sS'marketing effectiveness roi brand equity'
p53
F0.016604000000000001
sS'generating sale'
p54
F0.016164999999999999
sS'growing'
p55
F0.0065979999999999997
sS'ha grown worldwide'
p56
F0.016164999999999999
sS'value-rich'
p57
F0.016164999999999999
sS'success'
p58
F0.0042750000000000002
sS'--'
p59
F0.008345
sS'online advertising'
p60
F0.011915
sS'developing'
p61
F0.0032599999999999999
sS'challenged every day'
p62
F0.016164999999999999
sS'solution'
p63
F0.008567
sS'across'
p64
F0.0053860000000000002
sS'confidence marketshare culture'
p65
F0.016164999999999999
sS'scientist'
p66
F0.0069649999999999998
sS'excellence'
p67
F0.011448
sS'best possible'
p68
F0.011592999999999999
sS'team'
p69
F0.0027629999999999998
sS'fast-growing roster'
p70
F0.016164999999999999
sS'outside recruiters please'
p71
F0.016164999999999999
sS'related'
p72
F0.0033500000000000001
sS'empowers boardroom'
p73
F0.016164999999999999
sS"clients'"
p74
F0.011847
sS'financial'
p75
F0.0046350000000000002
sS'shopping basket analysis'
p76
F0.018811999999999999
sS'work experience'
p77
F0.0062789999999999999
sS'innovative'
p78
F0.0041149999999999997
sS'innovating products'
p79
F0.016164999999999999
sS'information retrieval'
p80
F0.0090489999999999998
sS'global'
p81
F0.0041539999999999997
sS'elegant'
p82
F0.011985000000000001
sS'see'
p83
F0.012845000000000001
sS'growth'
p84
F0.0050090000000000004
sS'pricing'
p85
F0.016785000000000001
sS'recommendation'
p86
F0.014482
sS'rigorous'
p87
F0.011364000000000001
sS'course correction'
p88
F0.015471
sS'click'
p89
F0.0097769999999999992
sS'even'
p90
F0.0096930000000000002
sS'optimizes actionable'
p91
F0.018811999999999999
sS'scale'
p92
F0.0054219999999999997
sS'offline marketing'
p93
F0.015188
sS'u'
F0.011221
sS'driving'
p94
F0.0059100000000000003
sS'space'
p95
F0.0067539999999999996
sS'best-in-class'
p96
F0.01035
sS'broad'
p97
F0.0074310000000000001
sS'decision'
p98
F0.0041399999999999996
sS'sector including'
p99
F0.012725999999999999
sS'1-5 year'
p100
F0.034283000000000001
sS'continually'
p101
F0.010111
sS'highly desirable'
p102
F0.010245000000000001
sS'revenue'
p103
F0.0075750000000000001
sS'adjust'
p104
F0.012540000000000001
sS'travel leisure technology'
p105
F0.016164999999999999
sS'market'
p106
F0.0045339999999999998
sS"bachelor's degree"
p107
F0.0043210000000000002
sS'implementations work'
p108
F0.018811999999999999
sS'new'
p109
F0.0045389999999999996
sS'offline'
p110
F0.010536999999999999
sS'ground'
p111
F0.0072160000000000002
sS'leader'
p112
F0.0076080000000000002
sS'math'
p113
F0.015015000000000001
sS'cross-functional team'
p114
F0.0074640000000000001
sS'impact'
p115
F0.0084519999999999994
sS'data analysis'
p116
F0.0046620000000000003
sS'algorithmic'
p117
F0.011205
sS'ability'
p118
F0.0013680000000000001
sS'power'
p119
F0.0064580000000000002
sS'pharmaceutical'
p120
F0.010657
sS'marketing'
p121
F0.025104000000000001
sS'never'
p122
F0.010782
sS'communicate'
p123
F0.0047039999999999998
sS'analytical'
p124
F0.0065649999999999997
sS'across placement publisher site keywords etc'
p125
F0.016164999999999999
sS'deliver'
p126
F0.0065729999999999998
sS'key'
p127
F0.003862
sS'data-driven decision'
p128
F0.011592999999999999
sS'peer'
p129
F0.0074099999999999999
sS'news'
p130
F0.0098930000000000008
sS'bangalore'
p131
F0.016164999999999999
sS'adserver web'
p132
F0.018811999999999999
sS'optimize'
p133
F0.011958999999999999
sS'improve'
p134
F0.0036280000000000001
sS'next dollar'
p135
F0.016164999999999999
sS'applying data mining machine learning'
p136
F0.018811999999999999
sS'drive roi'
p137
F0.016164999999999999
sS'last'
p138
F0.010576
sS'met'
p139
F0.0091120000000000003
sS'technical'
p140
F0.0022910000000000001
sS'real'
p141
F0.0080090000000000005
sS'analytics logs'
p142
F0.018811999999999999
sS"enhance marketshare's digital"
p143
F0.020482
sS'experience'
p144
F0.0013500000000000001
sS'adtech ecosystem'
p145
F0.018811999999999999
sS'practical'
p146
F0.0078130000000000005
sS'turn'
p147
F0.0082979999999999998
sS'range'
p148
F0.0068529999999999997
sS'ensure'
p149
F0.0040410000000000003
sS'tactical'
p150
F0.0091339999999999998
sS'1-3 year'
p151
F0.024112999999999999
sS'seldom-easy answer'
p152
F0.016164999999999999
sS'implement'
p153
F0.0034099999999999998
sS'digital marketing analytics'
p154
F0.016164999999999999
sS'create'
p155
F0.0032369999999999999
sS'software'
p156
F0.0049179999999999996
sS'visualize data'
p157
F0.012725999999999999
sS'control'
p158
F0.0071970000000000003
sS'major'
p159
F0.0061939999999999999
sS'simplifies'
p160
F0.016164999999999999
sS'love'
p161
F0.0064289999999999998
sS"didn't want"
p162
F0.017142000000000001
sS'large-scale'
p163
F0.0079419999999999994
sS'apps'
p164
F0.0098630000000000002
sS'data science'
p165
F0.0028570000000000002
sS'within'
p166
F0.0028930000000000002
sS'welcome'
p167
F0.0097769999999999992
sS'strategic'
p168
F0.0085260000000000006
sS'order'
p169
F0.0053090000000000004
sS'thought leadership'
p170
F0.0091559999999999992
sS'data mining'
p171
F0.0045139999999999998
sS'manage'
p172
F0.0040489999999999996
sS'quickly'
p173
F0.0065529999999999998
sS'spent'
p174
F0.012824
sS'cloud'
p175
F0.010547000000000001
sS'marketshare decisioncloud'
p176
F0.016164999999999999
sS'expert'
p177
F0.0045760000000000002
sS"you're"
p178
F0.0074419999999999998
sS'use'
p179
F0.0052129999999999998
sS'statistics'
p180
F0.0062849999999999998
sS'targeting'
p181
F0.0091999999999999998
sS'full spectrum'
p182
F0.012926999999999999
sS'working'
p183
F0.002614
sS'platform'
p184
F0.0033110000000000001
sS'make'
p185
F0.0061050000000000002
sS'interact'
p186
F0.0065300000000000002
sS'support'
p187
F0.0016490000000000001
sS'digital adtech industry'
p188
F0.018811999999999999
sS"today's explosion"
p189
F0.017142000000000001
sS'specifically'
p190
F0.0086619999999999996
sS'next'
p191
F0.0079819999999999995
sS'strategy'
p192
F0.0033999999999999998
sS'innovation fight'
p193
F0.016164999999999999
sS'insurance'
p194
F0.0086440000000000006
sS'way'
p195
F0.0036359999999999999
sS'especially'
p196
F0.0083140000000000002
sS'company'
p197
F0.0024559999999999998
sS'adtech'
p198
F0.014704
sS'marketshare'
p199
F0.032328999999999997
sS'firm'
p200
F0.0067299999999999999
sS'billion'
p201
F0.0071300000000000001
sS'project prioritization'
p202
F0.015793000000000001
sS'medium'
p203
F0.0062129999999999998
sS'ambiguity'
p204
F0.0088280000000000008
sS'enhancing'
p205
F0.010387
sS'brand'
p206
F0.0059849999999999999
sS'tv radio'
p207
F0.015793000000000001
sS'search'
p208
F0.0067790000000000003
sS'innovate'
p209
F0.0081349999999999999
sS'understand'
p210
F0.0034320000000000002
sS'thorough understanding'
p211
F0.01035
sS'data processing'
p212
F0.0081499999999999993
sS'marketing spend'
p213
F0.013517
sS'san francisco london tokyo hyderabad'
p214
F0.016164999999999999
sS'believe'
p215
F0.0049890000000000004
sS'center'
p216
F0.0063870000000000003
sS'customer'
p217
F0.0042119999999999996
sS'also'
p218
F0.0039919999999999999
sS'5 year'
p219
F0.0052389999999999997
sS'econometric modeling'
p220
F0.013655
sS'analytics'
p221
F0.019890999999999999
sS'need'
p222
F0.0051840000000000002
sS'challenge'
p223
F0.0045399999999999998
sS'work'
p224
F0.0025179999999999998
sS'single'
p225
F0.011717
sS'us'
p226
F0.0081290000000000008
sS'analytic solution'
p227
F0.0091339999999999998
sS'data set'
p228
F0.0077520000000000002
sS'developing avant-garde saas solution'
p229
F0.016164999999999999
sS'entrepreneurial'
p230
F0.0091339999999999998
sS'r'
F0.0036210000000000001
sS'data management'
p231
F0.0065449999999999996
sS'statistical technique'
p232
F0.0087899999999999992
sS'next-gen marketing'
p233
F0.016164999999999999
sS'meet'
p234
F0.0091389999999999996
sS'problem'
p235
F0.0066689999999999996
sS'balance'
p236
F0.0085749999999999993
sS'similar'
p237
F0.010919
sS'intelligently curious'
p238
F0.016164999999999999
sS'address'
p239
F0.0057879999999999997
sS'connect'
p240
F0.0088280000000000008
sS'detailed'
p241
F0.0085920000000000007
sS'skills talents experience'
p242
F0.016604000000000001
sS'generate'
p243
F0.0072659999999999999
sS'digital attribution thus enabling'
p244
F0.016164999999999999
sS'marketshare team'
p245
F0.016164999999999999
sS'changing'
p246
F0.0079159999999999994
sS'process'
p247
F0.0024390000000000002
sS'metric'
p248
F0.012078
sS'big-data'
p249
F0.013801000000000001
sS'one'
p250
F0.0027829999999999999
sS'operations research economics'
p251
F0.015793000000000001
sS'end-to-end solution'
p252
F0.013263
sS'answer complicated question'
p253
F0.016164999999999999
sS'onboarding'
p254
F0.014300999999999999
sS'engineering'
p255
F0.0065079999999999999
sS'collaborate'
p256
F0.0041050000000000001
sS'embrace'
p257
F0.0089859999999999992
sS'digital'
p258
F0.010581999999999999
sS'behavior'
p259
F0.007306
sS'actionable insight'
p260
F0.0079419999999999994
sS'results-driven'
p261
F0.012926999999999999
sS'technology'
p262
F0.0069940000000000002
sS'work collaboratively'
p263
F0.0074640000000000001
sS'unsolicited resume'
p264
F0.011847
sS'better faster'
p265
F0.014300999999999999
sS'ideally'
p266
F0.0088669999999999999
sS'provide'
p267
F0.0024499999999999999
sS'deep diving'
p268
F0.018811999999999999
sS'comfort'
p269
F0.0097769999999999992
sS'-'
F0.0036059999999999998
sS'complexity'
p270
F0.034507000000000003
sS"we're inventing"
p271
F0.015793000000000001
sS'field'
p272
F0.0047699999999999999
sS'well versed'
p273
F0.012540000000000001
sS'company compare'
p274
F0.015793000000000001
sS'role'
p275
F0.002506
sS'r matlab'
p276
F0.010499
sS'analytics capability'
p277
F0.011056
sS'online'
p278
F0.031528
sS'terrified'
p279
F0.018811999999999999
sS'performance'
p280
F0.003522
sS'effectiveness'
p281
F0.021305000000000001
sS'team player'
p282
F0.0073680000000000004
sS"what's"
p283
F0.0089259999999999999
sS'channel'
p284
F0.015651999999999999
sS'category'
p285
F0.0090069999999999994
sS'product'
p286
F0.0018190000000000001
sS'resulting sale'
p287
F0.016164999999999999
sS'3 year'
p288
F0.0056930000000000001
sS'multiple'
p289
F0.0046519999999999999
sS'collaboration'
p290
F0.0047419999999999997
sS'ideal candidate pose'
p291
F0.018811999999999999
sS'cookie level'
p292
F0.018811999999999999
sS'print medium'
p293
F0.016164999999999999
sS'hand'
p294
F0.0072859999999999999
sS'helping'
p295
F0.0051919999999999996
sS'develops'
p296
F0.0058430000000000001
sS'important'
p297
F0.0065599999999999999
sS'plan'
p298
F0.0045820000000000001
sS'sql'
p299
F0.0026800000000000001
sS'ready'
p300
F0.0071770000000000002
sS'hadoop hive'
p301
F0.011256
sS'summarize'
p302
F0.010177
sS'marketing analytics team'
p303
F0.014300999999999999
sS'data'
p304
F0.0023519999999999999
sS'online-offline mix'
p305
F0.016164999999999999
sS'keep'
p306
F0.0074209999999999996
sS'building'
p307
F0.0031389999999999999
sS'retail'
p308
F0.0074209999999999996
sS'lead'
p309
F0.0058250000000000003
sS'data-mining'
p310
F0.015188
sS'optimization'
p311
F0.015049
sS'well'
p312
F0.0028479999999999998
sS'drive'
p313
F0.0030950000000000001
sS'dollar'
p314
F0.011592999999999999
sS'mathematical background'
p315
F0.014704
sS'actionable'
p316
F0.006862
sS'marketer'
p317
F0.010047
sS"you'll"
p318
F0.0055360000000000001
sS'client'
p319
F0.018474000000000001
sS'solve'
p320
F0.009554
sS'place'
p321
F0.006803
sS'embracing'
p322
F0.014704
sS'professional'
p323
F0.0042430000000000002
sS'model'
p324
F0.0023999999999999998
sS'technical discipline herding cat juggling flaming chainsaw would'
p325
F0.018811999999999999
sS'others'
p326
F0.0048939999999999999
s.