(dp1
S'4+ year experience working'
p2
F0.040866
sS'code'
p3
F0.019602999999999999
sS'help'
p4
F0.0047730000000000003
sS'nosql'
p5
F0.014742
sS'money'
p6
F0.020108999999999998
sS'focus'
p7
F0.0094959999999999992
sS'hiring'
p8
F0.014659
sS'underlying'
p9
F0.021687999999999999
sS'api development'
p10
F0.028919
sS'using'
p11
F0.016011999999999998
sS'tala formerly known'
p12
F0.040866
sS'talented people'
p13
F0.023505000000000002
sS'best practice'
p14
F0.010024
sS'web'
p15
F0.011679999999999999
sS'holistic'
p16
F0.027244000000000001
sS'office'
p17
F0.0093089999999999996
sS'fit'
p18
F0.016808
sS'foster innovation'
p19
F0.028919
sS'working knowledge'
p20
F0.012158
sS'file system hdfs'
p21
F0.040866
sS"world tala's smartphone app instantly evaluates"
p22
F0.040866
sS'environment'
p23
F0.0055649999999999996
sS'platform'
p24
F0.006607
sS'production'
p25
F0.0095530000000000007
sS'2016'
p26
F0.01992
sS'data science'
p27
F0.022804000000000001
sS'computer science'
p28
F0.0074819999999999999
sS'computer science fundamental'
p29
F0.024514000000000001
sS'around'
p30
F0.0097199999999999995
sS'background'
p31
F0.0088140000000000007
sS'scalable'
p32
F0.013179
sS'framework'
p33
F0.018977999999999998
sS'fast pace'
p34
F0.030301999999999999
sS'world'
p35
F0.0072820000000000003
sS'investor'
p36
F0.022058000000000001
sS'minute'
p37
F0.028178000000000002
sS'impact'
p38
F0.0084320000000000003
sS'collective'
p39
F0.029794999999999999
sS'solution'
p40
F0.0034190000000000002
sS'hive'
p41
F0.016872999999999999
sS'craftsmanship'
p42
F0.034201000000000002
sS'ivp ribbit capital lowercase capital'
p43
F0.040866
sS'inventure'
p44
F0.081730999999999998
sS'component'
p45
F0.013707
sS'rds elb'
p46
F0.040866
sS'nairobi'
p47
F0.040866
sS'predictive'
p48
F0.011194000000000001
sS'set'
p49
F0.010258
sS'analytics team'
p50
F0.014827
sS'agile development'
p51
F0.01704
sS'advanced degree'
p52
F0.013573999999999999
sS'design'
p53
F0.0079539999999999993
sS'expect'
p54
F0.020722999999999998
sS'scale'
p55
F0.010817999999999999
sS'lead'
p56
F0.0058110000000000002
sS'decision'
p57
F0.00826
sS'develop'
p58
F0.0037499999999999999
sS'familiarity'
p59
F0.0090390000000000002
sS'backend'
p60
F0.022355
sS'across'
p61
F0.0053730000000000002
sS'math'
p62
F0.014978999999999999
sS'core'
p63
F0.010009000000000001
sS'ability'
p64
F0.0027299999999999998
sS'fintech company'
p65
F0.040866
sS'hbase cassandra'
p66
F0.029794999999999999
sS'million'
p67
F0.0099080000000000001
sS'data scientist'
p68
F0.003176
sS'standard'
p69
F0.0088199999999999997
sS'ranked tala formerly known'
p70
F0.040866
sS'efficiency'
p71
F0.014187999999999999
sS'bonus experience'
p72
F0.027845999999999999
sS'top 10'
p73
F0.027536000000000001
sS'backed'
p74
F0.022459
sS'consideration'
p75
F0.019286000000000001
sS'strong'
p76
F0.014630000000000001
sS'world tala'
p77
F0.040866
sS'proficiency'
p78
F0.0092960000000000004
sS'language'
p79
F0.0094470000000000005
sS'launch'
p80
F0.020045
sS'experience'
p81
F0.0035920000000000001
sS'wide variety'
p82
F0.015820000000000001
sS'mentor'
p83
F0.013134
sS'leading'
p84
F0.0068890000000000002
sS'implement'
p85
F0.013608
sS'java scala python'
p86
F0.026970000000000001
sS'software'
p87
F0.0098130000000000005
sS'santa monica'
p88
F0.034201000000000002
sS'regardless'
p89
F0.020871000000000001
sS'inclusion'
p90
F0.02044
sS'communication'
p91
F0.010009000000000001
sS'loan'
p92
F0.053939000000000001
sS'veteran status'
p93
F0.015113
sS'one'
p94
F0.011106
sS'appropriate'
p95
F0.0099539999999999993
sS'initiative'
p96
F0.0090969999999999992
sS"we're proud"
p97
F0.024677000000000001
sS'solving problem'
p98
F0.020580000000000001
sS'changing'
p99
F0.015793999999999999
sS'mysql postgresql'
p100
F0.035583999999999998
sS"we're looking"
p101
F0.016466000000000001
sS'engineer'
p102
F0.016368000000000001
sS'use'
p103
F0.0051999999999999998
sS'additional'
p104
F0.013058999999999999
sS'service'
p105
F0.0051339999999999997
sS'age marital status'
p106
F0.025389999999999999
sS"teammates' productivity"
p107
F0.040866
sS'fast'
p108
F0.017808999999999998
sS'forbes'
p109
F0.015205
sS'way'
p110
F0.0072550000000000002
sS'enable'
p111
F0.010865
sS'company'
p112
F0.014703000000000001
sS'serve'
p113
F0.011736
sS'fund'
p114
F0.027244000000000001
sS'excellent'
p115
F0.0099150000000000002
sS'delivers'
p116
F0.017142000000000001
sS'believe'
p117
F0.0099539999999999993
sS'data platform'
p118
F0.038900999999999998
sS'analyst'
p119
F0.0097789999999999995
sS'customer'
p120
F0.0042009999999999999
sS'storage solution'
p121
F0.029336999999999998
sS'4+ year'
p122
F0.0184
sS'preferred skills'
p123
F0.0184
sS'value'
p124
F0.0082159999999999993
sS'machine learning'
p125
F0.0052119999999999996
sS'venture'
p126
F0.033127999999999998
sS'headquartered'
p127
F0.01549
sS'race religion color national origin'
p128
F0.025020000000000001
sS'strongly'
p129
F0.022058000000000001
sS'named tala'
p130
F0.040866
sS'process'
p131
F0.0048659999999999997
sS'disability status'
p132
F0.021427999999999999
sS'ec2 s3'
p133
F0.032251000000000002
sS'modern'
p134
F0.015001
sS'customized'
p135
F0.024844999999999999
sS'need'
p136
F0.0051710000000000002
sS'ship'
p137
F0.029794999999999999
sS'work'
p138
F0.003349
sS'technology'
p139
F0.0069779999999999998
sS'work collaboratively'
p140
F0.014891
sS'requirements'
p141
F0.0086040000000000005
sS'credit'
p142
F0.037166999999999999
sS'user experience'
p143
F0.014638
sS'hadoop'
p144
F0.0093229999999999997
sS'responsibilities'
p145
F0.0059709999999999997
sS'vital'
p146
F0.023911999999999999
sS'role'
p147
F0.0050000000000000001
sS'take'
p148
F0.0099150000000000002
sS'manila'
p149
F0.040866
sS'abstraction'
p150
F0.028178000000000002
sS'collaborative'
p151
F0.012607999999999999
sS'deploy'
p152
F0.014300999999999999
sS'reporting'
p153
F0.0098919999999999998
sS'aws'
p154
F0.013194000000000001
sS'financial service'
p155
F0.016008000000000001
sS'driven'
p156
F0.0096679999999999995
sS'user'
p157
F0.0090390000000000002
sS'scoring'
p158
F0.022896
sS'device'
p159
F0.017142000000000001
sS'iterate'
p160
F0.021180999999999998
sS'top 50'
p161
F0.031510000000000003
sS'data'
p162
F0.011730000000000001
sS'transaction'
p163
F0.019621
sS'expert'
p164
F0.0091299999999999992
sS'database'
p165
F0.014189
sS'mobile'
p166
F0.039266000000000002
sS'prioritize'
p167
F0.013932999999999999
sS'diverse team'
p168
F0.020722999999999998
sS'well'
p169
F0.0056820000000000004
sS'drive'
p170
F0.0061749999999999999
sS'analysis'
p171
F0.0039389999999999998
sS'efficient'
p172
F0.013861999999999999
sS'tala'
p173
F0.081730999999999998
sS'clean'
p174
F0.015691
sS'model'
p175
F0.0047889999999999999
sS'gender sexual orientation'
p176
F0.023505000000000002
s.