(dp1
S''
F0.012719766460095344
sS'particularly'
p2
F0.030528309048678159
sS'non-routine analysis problem'
p3
F0.048534016721734595
sS'text'
p4
F0.025783686154401228
sS'insight'
p5
F0.011613249088667628
sS'sources'
p6
F0.025544827460310848
sS'scientist'
p7
F0.012528513498133496
sS'including'
p8
F0.008701507537031675
sS'human'
p9
F0.020536486353045447
sS'data'
p10
F0.0037532116415972443
sS'knowledge'
p11
F0.0087744141977362106
sS'candidate'
p12
F0.012380403744349087
sS'solving'
p13
F0.018670428153322309
sS'responsibilities'
p14
F0.010719817202177424
sS'better'
p15
F0.017097529311009496
sS'complex'
p16
F0.010418280982353669
sS'location'
p17
F0.01372698902090928
sS'orange'
p18
F0.092808893574222534
sS'ca'
p19
F0.048065767058194875
sS'build'
p20
F0.010755304162640806
sS'data-driven'
p21
F0.018704423491235616
sS'seeking'
p22
F0.014950524412914215
sS'report'
p23
F0.013134660887167271
sS'using'
p24
F0.0094872583763185962
sS'advanced'
p25
F0.011228740404316147
sS'term'
p26
F0.022094589735732913
sS'fields'
p27
F0.033591931188125618
sS'identified'
p28
F0.027310005213458444
sS'large'
p29
F0.011012816194605245
sS'individuals'
p30
F0.031831160685440167
sS'analytical'
p31
F0.011691535981896978
sS'end-to-end'
p32
F0.024139255329243232
sS'intelligence'
p33
F0.0099370798094099936
sS'related'
p34
F0.0094634749787005368
sS'intern'
p35
F0.056022706176623339
sS'computer'
p36
F0.03327721136055594
sS'video'
p37
F0.02405930933882628
sS'statistic'
p38
F0.026907121418240993
sS'manipulating'
p39
F0.025995851541714722
sS'machines'
p40
F0.033960719971031179
sS'scale'
p41
F0.015766949065033783
sS'expert'
p42
F0.013224829774602301
sS'research'
p43
F0.016199246993577308
sS'sets.'
p44
F0.029898380225416091
sS'conduct'
p45
F0.019464068010712921
sS'new'
p46
F0.0082155797003252134
sS'perception'
p47
F0.036590554495624587
sS'intelligent.'
p48
F0.054333323376468762
sS'processing'
p49
F0.010336000548548861
sS'data scientist'
p50
F0.0067048839567334069
sS'job'
p51
F0.0090327179641986315
sS'data gathering'
p52
F0.030101469049009157
sS'advance'
p53
F0.022945250297223059
sS'pipeline'
p54
F0.02199825728859604
sS'language'
p55
F0.01163551810418707
sS'technical'
p56
F0.0097356481779795508
sS'programming'
p57
F0.0069766787014865564
sS'approaches'
p58
F0.034219085841729148
sS'experience'
p59
F0.021433056814666531
sS'keen'
p60
F0.02983210676723436
sS'computational'
p61
F0.023034706860787183
sS'data science'
p62
F0.0076129172510164501
sS'reinforcement learning'
p63
F0.032806791983407114
sS'analyzing'
p64
F0.017630594581913156
sS'learning'
p65
F0.023035291177055901
sS'area'
p66
F0.025014283030224248
sS'deep learning'
p67
F0.019712289132237028
sS'question'
p68
F0.017330954521325253
sS'needed'
p69
F0.017159532380381457
sS'Bachelor'
p70
F0.005768220428290549
sS'interest'
p71
F0.018580656715170087
sS'expected'
p72
F0.022075205583467202
sS'iteratively'
p73
F0.038099480882453012
sS'theoretical'
p74
F0.031394499899914607
sS'artificial intelligence'
p75
F0.017516560506802309
sVComputer Science
p76
F0.0057300996604569476
sS'graphical'
p77
F0.033591931188125618
sS'enable'
p78
F0.018139561672717523
sVData Science
p79
F0.0065018290038295103
sS'about'
p80
F0.015646670496282575
sS'understand'
p81
F0.013301770971166299
sS'producing'
p82
F0.029204955071671725
sS'semantics'
p83
F0.040084651164278992
sS'applied'
p84
F0.016940827619632927
sS'prototype'
p85
F0.019956781098415744
sS'applying'
p86
F0.018286748720705372
sS'science'
p87
F0.0088991631416973725
sS'applied mathematics'
p88
F0.01912728319521333
sS'work'
p89
F0.0061485546906430615
sS'empirical'
p90
F0.030907408252523961
sS'machine learning'
p91
F0.0041488463407217679
sS'minimum'
p92
F0.01559085026778232
sS'analytical method'
p93
F0.033960719971031179
sS'behavior'
p94
F0.020992677311845773
sS'problem'
p95
F0.011359075041122534
sS'prospect'
p96
F0.032300195525817331
sS'representation.'
p97
F0.054333323376468762
sS'ai'
p98
F0.028970519009757421
sVrequirement specification
p99
F0.046404446787111267
sS'contract'
p100
F0.048278510658486463
sVMathematics
p101
F0.010849826136597797
sS'technology'
p102
F0.016047265905026739
sS'modality'
p103
F0.045559311982369663
sS'different'
p104
F0.018308057705562666
sS'perform'
p105
F0.029664694579837978
sS'image'
p106
F0.029386662827740856
sS'answering'
p107
F0.030602334025187791
sS'[0]'
p108
F0.013900093231293561
sS'machine'
p109
F0.012871616636126862
sS'ideal'
p110
F0.019103034870087725
sS'ongoing deliverable'
p111
F0.048534016721734595
sS'role'
p112
F0.010620866293199959
sS'computer science'
p113
F0.0088986282480203842
sS'natural language processing'
p114
F0.015860494506077866
sS'mathematics'
p115
F0.011568944823264593
sS'intelligent'
p116
F0.021379423110465239
sS'difficult'
p117
F0.02331092311430458
sS'qualifications'
p118
F0.0097411577606285656
sS'includes'
p119
F0.018704423491235616
sS'presentations'
p120
F0.026840973922708952
sS'position'
p121
F0.0098523691948068943
sS'opportunity'
p122
F0.0080068495736743441
sS'model'
p123
F0.019587479011413174
sS'task'
p124
F0.034661909042650506
sS'analysis'
p125
F0.0065054187674834802
sS'provide'
p126
F0.010022940097530492
sS'devise'
p127
F0.030907408252523961
sS'solve'
p128
F0.014698212212652526
sS'6-month'
p129
F0.09476016681918327
sS'quantitative'
p130
F0.014171741151895767
sS'the'
p131
F0.0077542582302356127
sS'audio'
p132
F0.035216733246022772
sS'make'
p133
F0.01197146896331037
s.