(dp1
S'code'
p2
F0.0069191054254809578
sS'nosql'
p3
F0.0078645024835244885
sS'automated'
p4
F0.0082310636445459742
sS'data acquisition'
p5
F0.013232739236921778
sS'existing'
p6
F0.029384643309037634
sS'bring'
p7
F0.0070817601913540466
sS'identify'
p8
F0.0059083454639655671
sS'computation'
p9
F0.016060161988468123
sS'committed'
p10
F0.0064672497537259432
sS'initiatives.'
p11
F0.012717798241244953
sS'integrity'
p12
F0.0081566673272687341
sS'coordination'
p13
F0.012242949324610543
sS'alignment'
p14
F0.012522540135957069
sS'principal'
p15
F0.010828870225932265
sS'content'
p16
F0.0085390460441356255
sS'inspiring'
p17
F0.0098853841996521686
sS'based'
p18
F0.0057293490382285487
sS'knowledge'
p19
F0.0079675715128869045
sS'adp'
p20
F0.010427771251711947
sS'possible.'
p21
F0.010270280616858037
sS'agile'
p22
F0.0062749708985618087
sS'distributed'
p23
F0.017732731643966
sS'etl/elt'
p24
F0.019769878857821471
sS'should'
p25
F0.012419535353192268
sS'languages'
p26
F0.015786283235870054
sS'platform'
p27
F0.0054639463313923735
sS'complex'
p28
F0.0047301390667008033
sVComputer Science
p29
F0.0026015969722764302
sS'policy'
p30
F0.0078438454828757172
sS'presentation'
p31
F0.0070786044319241575
sS'transformation'
p32
F0.018071592731798081
sS'achieve'
p33
F0.0081982779765929822
sS'do'
p34
F0.007987333343002426
sS'manage'
p35
F0.0062654489708878014
sS'data modeling'
p36
F0.0075063268529260664
sS'around'
p37
F0.0068629671476508648
sS'articulation'
p38
F0.022676776149060055
sS'custodian'
p39
F0.022676776149060055
sS'practice'
p40
F0.0063037275142156903
sS'overall'
p41
F0.0089018407501303617
sS'scaling'
p42
F0.013025548012479895
sS"world's"
p43
F0.0078520904699139367
sS'new'
p44
F0.014920248191395214
sS'using'
p45
F0.004307433400742351
sS'more.'
p46
F0.0095460080416264522
sS'highly'
p47
F0.0056115086630770571
sS'easily'
p48
F0.012040893375751562
sS'blueprints'
p49
F0.020346518250095879
sS'identifying'
p50
F0.0080309363985272917
sS'fully'
p51
F0.012419535353192268
sS'companies'
p52
F0.0090047988837951148
sS'solution'
p53
F0.011438536828603284
sS'teams'
p54
F0.010499484118559969
sS'large'
p55
F0.0050000717205391631
sS'continue'
p56
F0.009196007466071977
sS'common'
p57
F0.010509876494988673
sS'team'
p58
F0.0028200893130630208
sS'release'
p59
F0.011597938904394004
sS'security'
p60
F0.0062797437233327348
sS'constraints.'
p61
F0.019519846433929764
sS'enjoy'
p62
F0.0077506906416958737
sS'predictive'
p63
F0.0061673290446349772
sS'domain'
p64
F0.008312279073215233
sS'work'
p65
F0.0055831703512735842
sS'disaster'
p66
F0.019769878857821471
sS'people'
p67
F0.0052342509332495768
sS'innovative'
p68
F0.011643046093983247
sS'presentation skills'
p69
F0.013314456636051237
sS'roadmap'
p70
F0.010681479193645088
sS'translating'
p71
F0.011970804067624472
sS'unlock'
p72
F0.0099275798442519294
sS'infrastructure'
p73
F0.0073289034803642938
sS'design'
p74
F0.0041966057759151654
sS'query'
p75
F0.0090109716857116121
sS'translates'
p76
F0.015145069089061457
sS'needs.'
p77
F0.012501641670856881
sS'best'
p78
F0.010579105913111071
sS'canonical'
p79
F0.019769878857821471
sS'scale'
p80
F0.007158557334124533
sS'potential'
p81
F0.0074127006858184094
sS'leader'
p82
F0.0061059767431044616
sS'expert'
p83
F0.006004376736744723
sS'collaborates'
p84
F0.012607687905237027
sS'pattern'
p85
F0.0075246869987762813
sS'specification'
p86
F0.011046297382695717
sS'saas'
p87
F0.0088722479775881075
sS'integration'
p88
F0.006627135408605208
sS'research'
p89
F0.0024516101771889032
sS'access'
p90
F0.0066651207617714221
sS'case'
p91
F0.018945028111588231
sS'future'
p92
F0.012488278651708229
sS'various'
p93
F0.0065526389683503525
sS'cloud'
p94
F0.0071007678876579827
sS'innovation'
p95
F0.0055627145750997802
sS'relational'
p96
F0.0087063722362216069
sS'developer'
p97
F0.0078645024835244885
sS'across'
p98
F0.0047204071155898227
sS'architecture'
p99
F0.0062845244904731557
sS'we'
p100
F0.0035862503105745652
sS'centric'
p101
F0.014577947501533009
sS'theory'
p102
F0.0084209087657279753
sS'business'
p103
F0.020267833850794548
sS'database design'
p104
F0.010681479193645088
sS'deliver'
p105
F0.011787383232753751
sS'million'
p106
F0.0072946966762678896
sS'data scientist'
p107
F0.0030441714516203397
sS'intelligent'
p108
F0.0097067495731422634
sS'understanding'
p109
F0.014614285922792632
sS'data structures'
p110
F0.012832296635427719
sS'operating'
p111
F0.0081889789483194902
sS'assesses'
p112
F0.019289838921865886
sS'architectural'
p113
F0.026465478473843555
sS'strategies'
p114
F0.013206008492129145
sS'current/future'
p115
F0.023503448502440502
sS'100'
p116
F0.0080221626900574515
sS'standard'
p117
F0.014408644657604209
sS'b2b'
p118
F0.0099877145160867063
sS'change'
p119
F0.0064902871650312629
sS'empowering'
p120
F0.010251187640498564
sVBusiness
p121
F0.0031083745608451556
sS'warehousing'
p122
F0.017410743100878343
sS'career'
p123
F0.0065684406774616563
sS'industry'
p124
F0.0047010415747506173
sS'compliance'
p125
F0.010279874892124461
sS'experience'
p126
F0.0072983253808562758
sS'methodology'
p127
F0.006937063642558544
sS'implementation'
p128
F0.0068396542538584565
sS'products'
p129
F0.010357804657746548
sS'workplace'
p130
F0.008235778000831518
sS'implement'
p131
F0.0060858137216080674
sS'ensure'
p132
F0.0066870543167282977
sS'support'
p133
F0.0040467608615194677
sS'etl'
p134
F0.0081889789483194902
sS'first'
p135
F0.008312279073215233
sS'named'
p136
F0.0091828566612322752
sS'natural'
p137
F0.011135504185476867
sS'communication'
p138
F0.0045493372388243003
sS'skilled'
p139
F0.011046297382695717
sS'requirement'
p140
F0.010971206470792416
sS'logical'
p141
F0.051143793495949746
sS'one'
p142
F0.0094048410124614127
sS'formulates'
p143
F0.018051958859321194
sS'modeling'
p144
F0.0023337519799469897
sS'redefining'
p145
F0.010367696182798546
sS'improvement'
p146
F0.0077189841848824938
sS'establish'
p147
F0.0097946789186988542
sS'your'
p148
F0.0076144867121531838
sS'unit'
p149
F0.0095460080416264522
sS'engineer'
p150
F0.0055720339125598329
sS'comprised'
p151
F0.0099877145160867063
sS'use'
p152
F0.025100144705029581
sS'strong'
p153
F0.0039581256678191791
sS'leading'
p154
F0.0051816226674543464
sS'pluses'
p155
F0.017650344888202017
sS'convincing'
p156
F0.02004375841623814
sS'system'
p157
F0.0091012904333897578
sS'governance'
p158
F0.010357804657746548
sS'strategy'
p159
F0.0090517898346369821
sS'Bachelor'
p160
F0.0026189046772123756
sS'consultation'
p161
F0.013259720980816472
sS'asset'
p162
F0.0086026667459432379
sS'way'
p163
F0.012768650739051937
sS'utilizing'
p164
F0.0082122831931105995
sS'store'
p165
F0.022092594765391434
sS'define'
p166
F0.0080265461953423611
sS'exploring'
p167
F0.0095609351391350711
sS'direction'
p168
F0.0085706803104702352
sS'offer'
p169
F0.0060130702627822869
sS'company'
p170
F0.0040227109246830338
sS'envelope'
p171
F0.010583694977184263
sS'modelling'
p172
F0.013698164042531666
sS'it'
p173
F0.0060087202113355484
sS'administrators'
p174
F0.019519846433929764
sS'product development'
p175
F0.0075099895079934198
sS'data processing'
p176
F0.010562409763587285
sS'excellent'
p177
F0.011618662605135594
sS'performance improvement'
p178
F0.015596749651482864
sS'requisite'
p179
F0.019769878857821471
sS'representing'
p180
F0.015852344801242649
sS'analyst'
p181
F0.0064647014073102469
sS'databases.'
p182
F0.031072503235593133
sS'customer'
p183
F0.0091170112327077189
sS'aspirational'
p184
F0.021068685610240171
sS'places'
p185
F0.0101209753198261
sS'challenge'
p186
F0.0069012587608522687
sS'solution architecture'
p187
F0.013075962158175499
sS'promotes'
p188
F0.01161318303875011
sS'data architecture'
p189
F0.01165940676671064
sS'brilliant'
p190
F0.010357804657746548
sS'non-relational'
p191
F0.016527168794925651
sS'architect'
p192
F0.023871600604798999
sS'making'
p193
F0.0086187944944855349
sS'employees'
p194
F0.0098770189216779037
sS'persuasive'
p195
F0.017298040170768896
sS'adp.'
p196
F0.01158277521581043
sS'processing'
p197
F0.0046927818582491957
sS'computing'
p198
F0.010499484118559969
sS'modern'
p199
F0.010040279551178732
sS"customers'"
p200
F0.015197796230421392
sS'life'
p201
F0.012838427051183718
sS'deep'
p202
F0.014001632757331371
sS'general'
p203
F0.0088840485379626227
sS'as'
p204
F0.0059167527737802109
sS'expertise'
p205
F0.0054246611424547076
sS'at'
p206
F0.0059485011480136692
sS'plan'
p207
F0.0067147088532536585
sS'technology'
p208
F0.014571655247093248
sS'physical'
p209
F0.016683000780614732
sS'foundational'
p210
F0.014577947501533009
sS'information'
p211
F0.0079718689628126126
sS'develop'
p212
F0.0043755500634183641
sS'recovery'
p213
F0.0150424314578769
sS'turn'
p214
F0.011071503702023271
sS'provide'
p215
F0.0091012904333897578
sS"computerworld's"
p216
F0.010782708649464318
sS'purpose'
p217
F0.010075864853791796
sS'[0]'
p218
F0.00631096186938041
sS'application architecture'
p219
F0.016207555975357207
sS'application'
p220
F0.01035673039209538
sS'responsibilities'
p221
F0.0048670434423679111
sS'vital'
p222
F0.0099106271569465252
sS'largest'
p223
F0.0078192515386805387
sS'database development'
p224
F0.01598920647376896
sS'performance'
p225
F0.0056209879069171144
sS'techniques'
p226
F0.010583694977184263
sS'systems/applications'
p227
F0.020346518250095879
sS'tool'
p228
F0.0039475012581952212
sS'analysts'
p229
F0.011522908224408454
sS'development'
p230
F0.0069595459908857391
sS"adp's"
p231
F0.014665031301951546
sS'product'
p232
F0.0077298441995272797
sS'used'
p233
F0.0077150453668803779
sS'building'
p234
F0.0054603526676603063
sS'track'
p235
F0.0085077562769641946
sS'qualifications'
p236
F0.0044227095579865332
sS'cyber-attacks'
p237
F0.023503448502440502
sS'diagram'
p238
F0.014665031301951546
sS'most'
p239
F0.0093447839406302028
sS'develops'
p240
F0.017604889225774793
sS'waterfall'
p241
F0.018354718424572133
sS'artifact'
p242
F0.015362043740234829
sS'data'
p243
F0.0047713242248351171
sS'structure'
p244
F0.0083562232540687707
sS'a'
F0.0053736836023391566
sS'forever'
p245
F0.010782708649464318
sS'design patterns'
p246
F0.01403267386177812
sS'performance metrics'
p247
F0.015721706332487779
sS'database'
p248
F0.039601079159298572
sS'required'
p249
F0.0093581364510873788
sS'flow'
p250
F0.010840527430594197
sS'drive'
p251
F0.010945900416283518
sS'analysis'
p252
F0.00098453655676474113
sS'maintain'
p253
F0.0074162458380614953
sS'algorithms'
p254
F0.0051556657424288903
sS'databases'
p255
F0.0066163740612896274
sS'push'
p256
F0.0095460080416264522
sS'model'
p257
F0.022232914395138519
sS"forbes'"
p258
F0.010637608221696003
sS'technical'
p259
F0.022101040404034038
sS'latest'
p260
F0.015922971271688482
s.