(dp1
S'limited'
p2
I1
sS'dynamic'
p3
I1
sS'manager'
p4
I1
sS'technique'
p5
I1
sS'disability'
p6
I1
sS'environment'
p7
I1
sS'to'
p8
I1
sS'program'
p9
I1
sS'pride'
p10
I1
sS'presentation'
p11
I1
sS'division'
p12
I1
sS'collaborate'
p13
I1
sS'desirable'
p14
I1
sS'every'
p15
I1
sS'continued'
p16
I1
sS'entire'
p17
I1
sS'level'
p18
I1
sS'solution'
p19
I1
sS'hive'
p20
I1
sS'team'
p21
I1
sS'work'
p22
I1
sS'trend'
p23
I1
sS'measurable'
p24
I1
sS'design'
p25
I1
sS'investment'
p26
I1
sS'what'
p27
I1
sS'business'
p28
I1
sS'investing'
p29
I1
sS'impact.this'
p30
I1
sS'access'
p31
I1
sS'experiment'
p32
I1
sS'new'
p33
I1
sS'10+'
p34
I1
sS'full'
p35
I1
sS'leveraging'
p36
I1
sS'understanding'
p37
I1
sS'along'
p38
I1
sS'managerial'
p39
I1
sS'change'
p40
I1
sS'experience'
p41
I1
sS'3+'
p42
I1
sS'prior'
p43
I1
sS'resulting'
p44
I1
sS'action'
p45
I1
sS'implement'
p46
I1
sS'wif'
p47
I1
sS'family'
p48
I1
sVDoctor
p49
I1
sS'highly'
p50
I1
sS'apply'
p51
I1
sS'employer'
p52
I1
sS'establish'
p53
I1
sS'use'
p54
I1
sS'working'
p55
I1
sS'two'
p56
I1
sS'governance'
p57
I1
sS'risk management'
p58
I1
sS'asset'
p59
I1
sS'tell'
p60
I1
sV(10, 15]
p61
I1
sS'brings'
p62
I1
sS'company'
p63
I1
sS'employees.'
p64
I1
sS'excellent'
p65
I1
sS'effort'
p66
I1
sS'customer'
p67
I1
sS'join'
p68
I1
sS'this'
p69
I1
sS'science'
p70
I1
sS'challenge'
p71
I1
sS'package'
p72
I1
sS'ms'
p73
I1
sS'growing'
p74
I1
sS'making'
p75
I1
sS'challenging'
p76
I1
sS'process'
p77
I1
sS'high'
p78
I1
sS'something'
p79
I1
sS'firmly'
p80
I1
sS'goal'
p81
I1
sS'provide'
p82
I1
sS'discussion'
p83
I1
sS'responsibilities'
p84
I1
sS'beach'
p85
I1
sS'product'
p86
I1
sS'description'
p87
I1
sS'watch'
p88
I1
sS'headquartered'
p89
I1
sS'designed'
p90
I1
sS'data'
p91
I1
sS'grow'
p92
I1
sS'organization'
p93
I1
sS'effective'
p94
I1
sS'correlation'
p95
I1
sS'opportunity'
p96
I1
sS'operations'
p97
I1
sS'help'
p98
I1
sVinsight
p99
I1
sS'company-paid'
p100
I1
sS'insights-driven'
p101
I1
sS'interpersonal'
p102
I1
sS'including'
p103
I1
sS'personal'
p104
I1
sS'holiday'
p105
I1
sS'finance'
p106
I1
sS'seeking'
p107
I1
sS'scaling'
p108
I1
sS'framework'
p109
I1
sS'qualified'
p110
I1
sS'transparent'
p111
I1
sS'term'
p112
I1
sS'newport'
p113
I1
sS'heavy'
p114
I1
sS'financial'
p115
I1
sS'related'
p116
I1
sS'measure'
p117
I1
sS'our'
p118
I1
sS'operation'
p119
I1
sS'insurance'
p120
I1
sS'special'
p121
I1
sS'category'
p122
I1
sS'network'
p123
I1
sS'driving'
p124
I1
sS'factors'
p125
I1
sS'day.'
p126
I1
sS'health'
p127
I1
sS'independence'
p128
I1
sS'provide leadership'
p129
I1
sS'data scientist'
p130
I1
sS'given'
p131
I1
sS'data quality'
p132
I1
sS'put'
p133
I1
sS'accommodation'
p134
I1
sS'benefits'
p135
I1
sS'human resources'
p136
I1
sS'division.they'
p137
I1
sS'counterpart'
p138
I1
sS'saving'
p139
I1
sS'done'
p140
I1
sS'directly'
p141
I1
sS'array'
p142
I1
sS'quality'
p143
I1
sS'story'
p144
I1
sS'management'
p145
I1
sS'leverage'
p146
I1
sS'service'
p147
I1
sS'leading'
p148
I1
sS'approximately'
p149
I1
sS'priority'
p150
I1
sS'statement'
p151
I1
sS'advanced analytics'
p152
I1
sS'data infrastructure'
p153
I1
sS'tool'
p154
I1
sS'part'
p155
I1
sS'succeed.'
p156
I1
sS'believe'
p157
I1
sS'culture'
p158
I1
sS'compensation'
p159
I1
sS'outcome'
p160
I1
sS'impala'
p161
I1
sS'and'
p162
I1
sS'partnership'
p163
I1
sS'business intelligence'
p164
I1
sS'strength'
p165
I1
sS'veteran'
p166
I1
sS'acumen'
p167
I1
sS'emphasis'
p168
I1
sS'potential'
p169
I1
sV(2, 5]
p170
I1
sS'finding'
p171
I1
sS'play'
p172
I1
sS'experienced'
p173
I1
sS'track'
p174
I1
sS'plan'
p175
I1
sS'position'
p176
I1
sS'hands-on'
p177
I1
sS'achievement'
p178
I1
sS'salary'
p179
I1
sS'medical'
p180
I1
sS'request'
p181
I1
sS'drive'
p182
I1
sS'actionable'
p183
I1
sS'analytics data science'
p184
I1
sS'professional'
p185
I1
sS'senior'
p186
I1
sS'li-dd1'
p187
I1
sS'planning'
p188
I1
sS'solutions'
p189
I1
sS'find'
p190
I1
sS'a/b'
p191
I1
sS'impact'
p192
I1
sS'm/f/d/v.'
p193
I1
sS'based'
p194
I1
sS'title'
p195
I1
sS'guidance'
p196
I1
sS'distributed'
p197
I1
sS'operational'
p198
I1
sS'employee'
p199
I1
sS'achieve'
p200
I1
sS'california.'
p201
I1
sS'overall'
p202
I1
sS'ca-newport'
p203
I1
sS'preferred'
p204
I1
sS'courage'
p205
I1
sS'competitive'
p206
I1
sS'shared'
p207
I1
sS'disabled'
p208
I1
sS'/affirmative'
p209
I1
sS'summary'
p210
I1
sS'where'
p211
I1
sS'vision'
p212
I1
sS'set'
p213
I1
sS'intelligence'
p214
I1
sS'testing'
p215
I1
sS'analytics'
p216
I1
sS'individual'
p217
I1
sS'result'
p218
I1
sS'best'
p219
I1
sS'creating'
p220
I1
sS'pattern'
p221
I1
sS'currently'
p222
I1
sS'behind'
p223
I1
sS'unable'
p224
I1
sS'we'
p225
I1
sS'ability'
p226
I1
sS'statistics/math/engineering'
p227
I1
sS'job'
p228
I1
sS'key'
p229
I1
sS'modeling'
p230
I1
sS'improve'
p231
I1
sS'full-time'
p232
I1
sS'providing'
p233
I1
sS'talented'
p234
I1
sS'career'
p235
I1
sS'equal'
p236
I1
sS'etc'
p237
I1
sS'context'
p238
I1
sS'contribution'
p239
I1
sS'relevant'
p240
I1
sS'data science'
p241
I1
sS'initiative'
p242
I1
sS'learning'
p243
I1
sS'2800'
p244
I1
sS'trust'
p245
I1
sS'speak'
p246
I1
sS'strong'
p247
I1
sS'create'
p248
I1
sS'vacation'
p249
I1
sS'much'
p250
I1
sS'interest'
p251
I1
sS'500'
p252
I1
sS'define'
p253
I1
sS'life'
p254
I1
sS'modern'
p255
I1
sS'champion'
p256
I1
sS'gap'
p257
I1
sS'fund'
p258
I1
sS'representative'
p259
I1
sS'developing'
p260
I1
sS'solid'
p261
I1
sS'value'
p262
I1
sS'metric'
p263
I1
sS'avp'
p264
I1
sS'embrace'
p265
I1
sS'partner'
p266
I1
sS'technology'
p267
I1
sS'if'
p268
I1
sS'develop'
p269
I1
sS'pay'
p270
I1
sS'hadoop'
p271
I1
sS'401k'
p272
I1
sS'development'
p273
I1
sS'meets'
p274
I1
sS'bonus'
p275
I1
sS'phd'
p276
I1
sS'purpose'
p277
I1
sS'disability.'
p278
I1
sS'executive-level'
p279
I1
sS'center'
p280
I1
sS'scenario'
p281
I1
sS'purposeful'
p282
I1
sS'analysis'
p283
I1
sS'thought'
p284
I1
sS'contact'
p285
I1
sS'quantitative'
p286
I1
sS'the'
p287
I1
sS'executive'
p288
I1
sS'valuable'
p289
I1
sS'identify'
p290
I1
sS'aspect'
p291
I1
sS'skill'
p292
I1
sS'discipline'
p293
I1
sS'generous'
p294
I1
sS'retirement'
p295
I1
sS'location'
p296
I1
sS'ca'
p297
I1
sS'match'
p298
I1
sS'build'
p299
I1
sS'vendor'
p300
I1
sS'evaluate'
p301
I1
sS'advanced'
p302
I1
sS'fortune'
p303
I1
sS'success'
p304
I1
sS'identifying'
p305
I1
sS'benefit'
p306
I1
sS'right'
p307
I1
sS'pacific'
p308
I1
sS'growth'
p309
I1
sS'recommendation'
p310
I1
sS'lead'
p311
I1
sS'decision'
p312
I1
sS'eeo'
p313
I1
sS'/'
I1
sS'critical'
p314
I1
sS'innovation'
p315
I1
sS'leader'
p316
I1
sS'demonstrated'
p317
I1
sS'teradata'
p318
I1
sS'product development'
p319
I1
sS'analytics.as'
p320
I1
sS'marketing'
p321
I1
sS'dental'
p322
I1
sS'leadership'
p323
I1
sS'peer'
p324
I1
sS'about'
p325
I1
sS'b testing'
p326
I1
sS'constraint'
p327
I1
sS'industry'
p328
I1
sS'in-depth'
p329
I1
sS'presence'
p330
I1
sS'communication'
p331
I1
sS'within'
p332
I1
sS'commitment'
p333
I1
sS'appropriate'
p334
I1
sS'your'
p335
I1
sS'area'
p336
I1
sS'long'
p337
I1
sS'accountability'
p338
I1
sS'offer'
p339
I1
sS'with'
p340
I1
sS'hire'
p341
I1
sS'us'
p342
I1
sS'clear'
p343
I1
sS'inclusive'
p344
I1
sS'year'
p345
I1
sS'sales'
p346
I1
sS'proven'
p347
I1
sS'sale'
p348
I1
sS'at'
p349
I1
sS'results-oriented.'
p350
I1
sS'education'
p351
I1
sS'mutual'
p352
I1
sS'variety'
p353
I1
sS'power'
p354
I1
sS'role'
p355
I1
sS'income'
p356
I1
sS'you'
p357
I1
sS'collaborative'
p358
I1
sS'includes'
p359
I1
sS'building'
p360
I1
sS'for'
p361
I1
sS'annuity'
p362
I1
sS'required'
p363
I1
sS'wellbeing'
p364
I1
sS'together'
p365
I1
sS'u'
I1
sS'time'
p366
I1
sS'intimacy'
p367
I1
sS'businesses.'
p368
I1
s.