(dp1
S'code'
p2
I1
sVinsight
p3
I1
sS'mission'
p4
I1
sS'structuring'
p5
I1
sS'shape'
p6
I1
sS"factual's"
p7
I1
sS'world'
p8
I1
sS'useful'
p9
I1
sS'skill'
p10
I1
sS'looking'
p11
I1
sS'based'
p12
I1
sS'field'
p13
I1
sS'environment'
p14
I1
sS'production'
p15
I1
sS'location'
p16
I1
sS'factual'
p17
I1
sS'advanced'
p18
I1
sS'2+'
p19
I1
sS'real'
p20
I1
sS'global'
p21
I1
sS'format'
p22
I1
sS'propose'
p23
I1
sS'using'
p24
I1
sS'maintaining'
p25
I1
sS'countries'
p26
I1
sS'52'
p27
I1
sS'large'
p28
I1
sS'team'
p29
I1
sS'analytical'
p30
I1
sS'passionate'
p31
I1
sS'enjoy'
p32
I1
sS'set'
p33
I1
sS'portable'
p34
I1
sS'propel'
p35
I1
sS'growth'
p36
I1
sS'variety'
p37
I1
sS'year'
p38
I1
sS'our'
p39
I1
sS'mapping'
p40
I1
sV(2, 5]
p41
I1
sS'thoroughness'
p42
I1
sS'category'
p43
I1
sS'project'
p44
I1
sS'what'
p45
I1
sS'scale'
p46
I1
sS'business'
p47
I1
sS'lead'
p48
I1
sS'specification'
p49
I1
sS'creative'
p50
I1
sS'current'
p51
I1
sS'written'
p52
I1
sS'score'
p53
I1
sS'closed'
p54
I1
sS'across'
p55
I1
sS'math'
p56
I1
sS'we'
p57
I1
sS'million'
p58
I1
sS'build model'
p59
I1
sS'degree'
p60
I1
sS'workflow'
p61
I1
sS'predicting'
p62
I1
sS'data scientist'
p63
I1
sS'use'
p64
I1
sS'understanding'
p65
I1
sS'bachelor'
p66
I1
sS'leadership'
p67
I1
sS'rapidly'
p68
I1
sS'100'
p69
I1
sS'delivering'
p70
I1
sS'optimize'
p71
I1
sS'pipeline'
p72
I1
sS'java/hadoop'
p73
I1
sS'technical'
p74
I1
sS'many'
p75
I1
sS'industry'
p76
I1
sS'scala/spark'
p77
I1
sS'correctness'
p78
I1
sS'experience'
p79
I1
sS'changing'
p80
I1
sS'angeles'
p81
I1
sS'thing'
p82
I1
sS'range'
p83
I1
sS'ensure'
p84
I1
sS'design experiment'
p85
I1
sS'commit'
p86
I1
sS'cleaning'
p87
I1
sS'company.'
p88
I1
sS'organize'
p89
I1
sS'love'
p90
I1
sS'communication'
p91
I1
sS'data science'
p92
I1
sS'skilled'
p93
I1
sS'coding'
p94
I1
sS'thought leadership'
p95
I1
sS'python/scikit'
p96
I1
sS'poi'
p97
I1
sS'engineer'
p98
I1
sS'given'
p99
I1
sS'strong'
p100
I1
sS'working'
p101
I1
sS'opportunity'
p102
I1
sS"world's"
p103
I1
sS'strategy'
p104
I1
sVBachelor
p105
I1
sS"we're"
p106
I1
sS'ranging'
p107
I1
sS'dataset.'
p108
I1
sS'direction'
p109
I1
sS'business problem'
p110
I1
sS'about'
p111
I1
sS'data processing'
p112
I1
sS'excellent'
p113
I1
sS'decisions.'
p114
I1
sS'information.'
p115
I1
sS'wide'
p116
I1
sS'robust'
p117
I1
sS'places'
p118
I1
sS'developing'
p119
I1
sS'ml'
p120
I1
sS'work'
p121
I1
sS'engineering'
p122
I1
sS'machine learning'
p123
I1
sS'solutions.'
p124
I1
sS'statistics computer science'
p125
I1
sS'dirty'
p126
I1
sS'behavior'
p127
I1
sS'problem'
p128
I1
sS'data-driven'
p129
I1
sS'plus'
p130
I1
sS'willingness'
p131
I1
sS'programming'
p132
I1
sS'metric'
p133
I1
sS'statistic'
p134
I1
sS'influence'
p135
I1
sS'fellow'
p136
I1
sS'as'
p137
I1
sS'diverse'
p138
I1
sS'expertise'
p139
I1
sS'at'
p140
I1
sS'normalize'
p141
I1
sS'different'
p142
I1
sS'author'
p143
I1
sS'provide'
p144
I1
sS'feature'
p145
I1
sS'scientistlos'
p146
I1
sS'also'
p147
I1
sS'tech'
p148
I1
sS'computer science'
p149
I1
sS'place'
p150
I1
sS'you'
p151
I1
sS'data-based'
p152
I1
sS'product'
p153
I1
sS'anonymized'
p154
I1
sS'processing'
p155
I1
sS'business.'
p156
I1
sS'produce'
p157
I1
sS'user'
p158
I1
sS'data wrangling'
p159
I1
sS'communicator'
p160
I1
sS'data'
p161
I1
sS'a'
I1
sS'collaborate'
p162
I1
sS'popularity'
p163
I1
sS'cover'
p164
I1
sS'drive'
p165
I1
sS'analysis'
p166
I1
sS"you'll"
p167
I1
sS'practices'
p168
I1
sS'solve'
p169
I1
sS'477'
p170
I1
sS'clean'
p171
I1
sS'time'
p172
I1
sS'quantitative'
p173
I1
sS'model'
p174
I1
sS'software'
p175
I1
sS'oral'
p176
I1
s.