(dp1
S'code'
p2
F0.013837
sS'help'
p3
F0.0022460000000000002
sS'business need'
p4
F0.0069470000000000001
sS'knowledgeable'
p5
F0.0099679999999999994
sS'external data scientist'
p6
F0.019231000000000002
sS'insight'
p7
F0.012017
sS'demonstrated ability'
p8
F0.011816
sS'mission'
p9
F0.004071
sS'acoe management'
p10
F0.019231000000000002
sS'tableau'
p11
F0.011572000000000001
sS'manager'
p12
F0.026932000000000001
sS'concept'
p13
F0.0088190000000000004
sS'including'
p14
F0.0019139999999999999
sS'directs'
p15
F0.012343
sS'query'
p16
F0.0063569999999999998
sS'skill'
p17
F0.0083510000000000008
sS'creative'
p18
F0.0050949999999999997
sS'staff'
p19
F0.0054190000000000002
sS'communicate result'
p20
F0.0086800000000000002
sS'group'
p21
F0.0040159999999999996
sS'knowledge'
p22
F0.0041590000000000004
sS'big data'
p23
F0.0035230000000000001
sS'use case'
p24
F0.01585
sS'analytics'
p25
F0.0062249999999999996
sS'technique'
p26
F0.015337999999999999
sS'operational'
p27
F0.0048589999999999996
sS'environment'
p28
F0.0026189999999999998
sS'platform'
p29
F0.0031089999999999998
sS'critical'
p30
F0.0098530000000000006
sS'r python'
p31
F0.014288
sS'maintaining'
p32
F0.0063109999999999998
sS'primary focus'
p33
F0.010569
sS'usage'
p34
F0.0074570000000000001
sS'include'
p35
F0.0042269999999999999
sS'presentation'
p36
F0.0043270000000000001
sS'regularly'
p37
F0.0088579999999999996
sS'manage'
p38
F0.015206000000000001
sS'data warehouse'
p39
F0.015195999999999999
sS'propose'
p40
F0.0094330000000000004
sS'end'
p41
F0.0070390000000000001
sS'framework'
p42
F0.0044650000000000002
sS'data preparation'
p43
F0.021138000000000001
sS'sustain strong interdepartmental relationship'
p44
F0.019231000000000002
sS'deployment'
p45
F0.015594999999999999
sS'continued'
p46
F0.022246999999999999
sS'advanced'
p47
F0.0070679999999999996
sS'agreed upon'
p48
F0.014021
sS'understanding'
p49
F0.0087220000000000006
sS'data architecture'
p50
F0.0084960000000000001
sS'necessary'
p51
F0.012447
sS'provide'
p52
F0.0023
sS'level'
p53
F0.003339
sS'skills'
p54
F0.0049189999999999998
sS'critical thinking skill'
p55
F0.0096849999999999992
sS'related experience'
p56
F0.0068979999999999996
sS'across'
p57
F0.0050569999999999999
sS'specific'
p58
F0.0098289999999999992
sS'realistic'
p59
F0.015177
sS'audience'
p60
F0.0054140000000000004
sS'minimal'
p61
F0.0098569999999999994
sS'team'
p62
F0.00086499999999999999
sS'analytical'
p63
F0.03082
sS'uncover'
p64
F0.010123999999999999
sS'works'
p65
F0.0075459999999999998
sS'data analytics'
p66
F0.0050220000000000004
sS'tda delivery'
p67
F0.019231000000000002
sS'development'
p68
F0.0030360000000000001
sS'domain'
p69
F0.012021
sS'set'
p70
F0.0048269999999999997
sS'analytics team'
p71
F0.0069769999999999997
sS'core'
p72
F0.0047099999999999998
sS'consistent'
p73
F0.015386
sS'engineer'
p74
F0.0038509999999999998
sS'discover'
p75
F0.0076930000000000002
sS'related'
p76
F0.0031459999999999999
sS'machine learning data mining'
p77
F0.0083250000000000008
sS'core tda data'
p78
F0.019231000000000002
sS'growth'
p79
F0.014108000000000001
sS'accelerate'
p80
F0.0089519999999999999
sS'rapidly evolving'
p81
F0.011860000000000001
sS'stay current'
p82
F0.010473
sS'curious'
p83
F0.0076649999999999999
sS'excellent communication'
p84
F0.0097520000000000003
sS'project'
p85
F0.0091599999999999997
sS'often framed'
p86
F0.019231000000000002
sS'space'
p87
F0.0063420000000000004
sS'civilian'
p88
F0.012958000000000001
sS'schedule'
p89
F0.0062820000000000003
sS'research'
p90
F0.0026710000000000002
sS'self-starter'
p91
F0.0074570000000000001
sS'3'
F0.0062599999999999999
sS'investigation'
p92
F0.0086169999999999997
sS'provider'
p93
F0.0069670000000000001
sS'business partner'
p94
F0.025276
sS'progress'
p95
F0.0080510000000000009
sS'cross functional'
p96
F0.010248
sS'issue'
p97
F0.0040000000000000001
sS'method'
p98
F0.0031640000000000001
sS'demonstrated'
p99
F0.0046519999999999999
sS'programming language'
p100
F0.014744
sS'supporting'
p101
F0.010583
sS'profiling'
p102
F0.019786999999999999
sS'ability'
p103
F0.0051390000000000003
sS'business'
p104
F0.013988
sS'workflow'
p105
F0.0071879999999999999
sS'communicate'
p106
F0.0088319999999999996
sS'continued growth'
p107
F0.011774
sS'key operative'
p108
F0.019231000000000002
sS'deliver'
p109
F0.018513000000000002
sS'solution'
p110
F0.001609
sS'business metric'
p111
F0.012137
sS'focused'
p112
F0.0049800000000000001
sS'brokerage'
p113
F0.016744999999999999
sS'teach'
p114
F0.0089040000000000005
sS'delivering'
p115
F0.005254
sS'additional'
p116
F0.0061450000000000003
sS'advance'
p117
F0.0065570000000000003
sS'training'
p118
F0.0090039999999999999
sS'engage'
p119
F0.0059839999999999997
sS'high level'
p120
F0.0068979999999999996
sS'language'
p121
F0.0044460000000000003
sS'package'
p122
F0.0066499999999999997
sS'receive'
p123
F0.0076649999999999999
sS'area'
p124
F0.0061460000000000004
sS'acoe'
p125
F0.076924000000000006
sS'experience'
p126
F0.00042299999999999998
sS'ensure'
p127
F0.0037940000000000001
sS'mentor'
p128
F0.0061809999999999999
sS'tactical'
p129
F0.0085760000000000003
sS'relational'
p130
F0.009025
sS'predictive analytics'
p131
F0.011741
sS'software'
p132
F0.0023089999999999999
sS'broad range'
p133
F0.0082529999999999999
sS'consulting'
p134
F0.005653
sS'engagement'
p135
F0.036061999999999997
sS'digestible document'
p136
F0.019231000000000002
sS'communication'
p137
F0.0047099999999999998
sS'data science'
p138
F0.0080479999999999996
sS'within'
p139
F0.0054320000000000002
sS'powerful'
p140
F0.0090500000000000008
sS'primary'
p141
F0.0077210000000000004
sS'community'
p142
F0.0040879999999999996
sS'strategic'
p143
F0.0040029999999999996
sS'appropriate'
p144
F0.014053
sS'cross-functional'
p145
F0.0071009999999999997
sS'lieu'
p146
F0.0088350000000000008
sS'mathematical modeling'
p147
F0.010721
sS'writing'
p148
F0.0055279999999999999
sS'establish'
p149
F0.0063949999999999996
sS'presentation skill'
p150
F0.0071770000000000002
sS'often'
p151
F0.0097179999999999992
sS'management'
p152
F0.0025579999999999999
sS'publication'
p153
F0.0083070000000000001
sS'working'
p154
F0.002454
sS'script'
p155
F0.015880999999999999
sS'support'
p156
F0.007744
sS'initial'
p157
F0.021443
sS'approach'
p158
F0.0037169999999999998
sS'strong'
p159
F0.011475000000000001
sS'expected'
p160
F0.0063720000000000001
sS'scope'
p161
F0.012652999999999999
sS'exceptional'
p162
F0.0059709999999999997
sS'military'
p163
F0.0096849999999999992
sS'frame'
p164
F0.022780000000000002
sS'role requires'
p165
F0.0091269999999999997
sS'define'
p166
F0.004581
sS'firm'
p167
F0.006319
sS'field'
p168
F0.0044790000000000003
sS'generating'
p169
F0.01038
sS'maintenance'
p170
F0.006483
sS'relationship'
p171
F0.0094420000000000007
sS'7 year'
p172
F0.0070800000000000004
sS'capability'
p173
F0.0078779999999999996
sS'total experience'
p174
F0.01559
sS'sophisticated'
p175
F0.0080999999999999996
sS'delivery'
p176
F0.0089639999999999997
sS'advanced analytics'
p177
F0.0053010000000000002
sS'train'
p178
F0.0087229999999999999
sS'analytics team member'
p179
F0.013259999999999999
sS'least 2'
p180
F0.01426
sS'team member'
p181
F0.004522
sS'data platform'
p182
F0.018305999999999999
sS'analyst'
p183
F0.0092040000000000004
sS'updating'
p184
F0.013428000000000001
sS'must'
p185
F0.012626999999999999
sS'extend'
p186
F0.0094330000000000004
sS'also'
p187
F0.003748
sS'datasets'
p188
F0.0067939999999999997
sS'personally write'
p189
F0.038462000000000003
sS'using advanced analytics'
p190
F0.014827999999999999
sS'developing'
p191
F0.0091819999999999992
sS'taken'
p192
F0.013259999999999999
sS'college degree'
p193
F0.011774
sS'work'
p194
F0.0031519999999999999
sS'proficient'
p195
F0.0064510000000000001
sS'data set'
p196
F0.014555999999999999
sS'ongoing'
p197
F0.0064270000000000004
sS'demonstrate'
p198
F0.0060369999999999998
sS'problem'
p199
F0.0031310000000000001
sS'ongoing operationalization via'
p200
F0.019231000000000002
sS'proof'
p201
F0.0098219999999999991
sS'result'
p202
F0.0087670000000000005
sS'full'
p203
F0.011753
sS'java bash etc'
p204
F0.019231000000000002
sS'provide guidance'
p205
F0.0081499999999999993
sS'process'
p206
F0.0022899999999999999
sS'programming'
p207
F0.0041799999999999997
sS'etl elt'
p208
F0.017663000000000002
sS'deep'
p209
F0.0056930000000000001
sS'effectively'
p210
F0.0047699999999999999
sS'work directly'
p211
F0.0098930000000000008
sS'good'
p212
F0.0098370000000000003
sS'formulation'
p213
F0.012958000000000001
sS'sas'
p214
F0.0099690000000000004
sS'partner'
p215
F0.010761
sS'modeling'
p216
F0.0038189999999999999
sS'education'
p217
F0.0036979999999999999
sS'technology'
p218
F0.003284
sS'3-5 year'
p219
F0.018151
sS'coach'
p220
F0.017534000000000001
sS'requirements'
p221
F0.0080979999999999993
sS'able'
p222
F0.0070020000000000004
sS'indefinite outcome'
p223
F0.019231000000000002
sS'efficient'
p224
F0.0065230000000000002
sS'consultant striving'
p225
F0.019231000000000002
sS'efficiently manage'
p226
F0.012821000000000001
sS'-'
F0.003385
sS'utilize'
p227
F0.012917
sS'member'
p228
F0.017613
sS'application'
p229
F0.0024689999999999998
sS'responsibilities'
p230
F0.00281
sS'internal'
p231
F0.010877
sS'role'
p232
F0.004705
sS'build'
p233
F0.0022070000000000002
sS'perseverance must'
p234
F0.019231000000000002
sS'extensive knowledge'
p235
F0.0094029999999999999
sS'new'
p236
F0.0042620000000000002
sS'data collection'
p237
F0.0076249999999999998
sS'4 year'
p238
F0.014555999999999999
sS'tool'
p239
F0.014699
sS'5-7 year'
p240
F0.020670999999999998
sS'independent'
p241
F0.0078200000000000006
sS'product'
p242
F0.0017080000000000001
sS'used'
p243
F0.004751
sS'deep understanding'
p244
F0.0069979999999999999
sS'communicating'
p245
F0.0070390000000000001
sS'may'
p246
F0.0044390000000000002
sS'requires'
p247
F0.0070280000000000004
sS'automation'
p248
F0.0070080000000000003
sS'proficiency'
p249
F0.0043740000000000003
sS'regular'
p250
F0.015554
sS'curiosity'
p251
F0.0087889999999999999
sS'sql'
p252
F0.002516
sS'improving'
p253
F0.0063949999999999996
sS'develop'
p254
F0.0035300000000000002
sS'summarize'
p255
F0.0095549999999999993
sS'exploratory data analysis eda data movement'
p256
F0.019231000000000002
sS'data'
p257
F0.0066239999999999997
sS'5 year'
p258
F0.0049189999999999998
sS'address business objective'
p259
F0.019231000000000002
sS'work closely'
p260
F0.0045880000000000001
sS'considered'
p261
F0.0056979999999999999
sS'modeled result'
p262
F0.019231000000000002
sS'required'
p263
F0.0021919999999999999
sS'complex problem'
p264
F0.0080829999999999999
sS'drive'
p265
F0.0058120000000000003
sS'deliverable'
p266
F0.0067210000000000004
sS'inform'
p267
F0.0073480000000000004
sS'directly'
p268
F0.0065820000000000002
sS'maintain'
p269
F0.0041879999999999999
sS'status'
p270
F0.0051130000000000004
sS'across tda'
p271
F0.019231000000000002
sS'hadoop'
p272
F0.0043870000000000003
sS'model'
p273
F0.0045069999999999997
sS'requirement'
p274
F0.0028579999999999999
sS'tdas analytic'
p275
F0.019231000000000002
sS'external'
p276
F0.01047
s.