(dp1
S'limited'
p2
F0.00579
sS'selection'
p3
F0.0095350000000000001
sS'related field'
p4
F0.004248
sS'consider'
p5
F0.020882999999999999
sS'product development effort'
p6
F0.017578
sS'hybrid'
p7
F0.024298
sS'global'
p8
F0.0087939999999999997
sS'existing'
p9
F0.010638
sS'oracle sql postgressql hadoop'
p10
F0.021683999999999998
sS'manager'
p11
F0.015184
sS'including'
p12
F0.0064749999999999999
sS'meet deadline'
p13
F0.011415
sS'committed'
p14
F0.0041450000000000002
sS'agricultural'
p15
F0.014611000000000001
sS'hbase'
p16
F0.0097630000000000008
sS'integrity'
p17
F0.0067920000000000003
sS'retrieving data using'
p18
F0.019916
sS'developer'
p19
F0.0057850000000000002
sS'visualization'
p20
F0.0052649999999999997
sS'position'
p21
F0.0050150000000000004
sS'knowledge'
p22
F0.0070349999999999996
sS'candidate'
p23
F0.0095379999999999996
sS'application'
p24
F0.011135000000000001
sS'apex'
p25
F0.054441999999999997
sS'crop breeder'
p26
F0.019916
sS'solving'
p27
F0.0068370000000000002
sS'advancement'
p28
F0.010262
sS'improvement'
p29
F0.0059239999999999996
sS'high attention'
p30
F0.013684999999999999
sS'production'
p31
F0.015206000000000001
sS'systems'
p32
F0.0081930000000000006
sS'farmer'
p33
F0.013798
sS'employee'
p34
F0.0045719999999999997
sS'include'
p35
F0.0047660000000000003
sS'support corn breeding'
p36
F0.039830999999999998
sS'r shiny'
p37
F0.015141
sS'equal employment opportunity affirmative action employer'
p38
F0.011239000000000001
sS'desired skills'
p39
F0.0094710000000000003
sS'good'
p40
F0.0055459999999999997
sS'functional team'
p41
F0.011917000000000001
sS'seeking'
p42
F0.0091870000000000007
sS'country monsanto ha'
p43
F0.018880999999999998
sS'support corn breeding team'
p44
F0.019916
sS'experimental design'
p45
F0.0091330000000000005
sS'coordinate china project'
p46
F0.019916
sS'department'
p47
F0.0058719999999999996
sS'743243'
p48
F0.021683999999999998
sS'background'
p49
F0.0046769999999999997
sS'software developer'
p50
F0.0091520000000000004
sS'report'
p51
F0.0035530000000000002
sS'using'
p52
F0.0028319999999999999
sS'molecular breeding'
p53
F0.018880999999999998
sS'please submit'
p54
F0.012272999999999999
sS'manner consistent'
p55
F0.0078110000000000002
sS'programming skill'
p56
F0.023401000000000002
sS'maintaining'
p57
F0.0071170000000000001
sS'job description'
p58
F0.0051609999999999998
sS'oral communication skill'
p59
F0.0098849999999999997
sS'resource'
p60
F0.010939000000000001
sS'success'
p61
F0.0045250000000000004
sS'bring'
p62
F0.0045589999999999997
sS'skills'
p63
F0.0055459999999999997
sS'employeeservices apexsystemsinccom'
p64
F0.021683999999999998
sS'solution'
p65
F0.0036280000000000001
sS'teams'
p66
F0.015810000000000001
sS'specific'
p67
F0.011083000000000001
sS'large scale'
p68
F0.0081300000000000001
sS'transform'
p69
F0.007365
sS'masters degree'
p70
F0.0058820000000000001
sS'team'
p71
F0.00097499999999999996
sS'release'
p72
F0.0094710000000000003
sS'become'
p73
F0.008567
sS'roll-out'
p74
F0.018880999999999998
sS'achieving result'
p75
F0.017578
sS'cms'
p76
F0.015344999999999999
sS'essential'
p77
F0.008737
sS'heavy'
p78
F0.013684999999999999
sS'organizational skill'
p79
F0.0096930000000000002
sS'requirement'
p80
F0.0064450000000000002
sS'successful candidate must'
p81
F0.014456
sS'supporting'
p82
F0.0059670000000000001
sS'work independently'
p83
F0.014182999999999999
sS'creation'
p84
F0.0065989999999999998
sS'crop science'
p85
F0.018880999999999998
sS'related'
p86
F0.0035469999999999998
sS'matrix team'
p87
F0.018880999999999998
sS'analytics'
p88
F0.0046800000000000001
sS'design'
p89
F0.0021099999999999999
sS'accelerate'
p90
F0.010094000000000001
sS'criminal history'
p91
F0.0079019999999999993
sS'seed logistics'
p92
F0.019916
sS'server'
p93
F0.0096240000000000006
sS'agriculture'
p94
F0.013094
sS'skill'
p95
F0.0047080000000000004
sS'receive consideration'
p96
F0.0049870000000000001
sS'scientific'
p97
F0.0065989999999999998
sS'data engineer'
p98
F0.0091699999999999993
sS'genetics'
p99
F0.023616999999999999
sS'lead'
p100
F0.0030829999999999998
sS'decision'
p101
F0.0043829999999999997
sS'molecular data'
p102
F0.019916
sS'sql query'
p103
F0.010321
sS'global breeding'
p104
F0.018880999999999998
sS'apply'
p105
F0.0035829999999999998
sS'written'
p106
F0.0061619999999999999
sS'fast paced'
p107
F0.010603
sS'various'
p108
F0.0088179999999999994
sS'new'
p109
F0.0048060000000000004
sS'issue'
p110
F0.0045100000000000001
sS'method'
p111
F0.003568
sS'multidisciplinary'
p112
F0.013372
sS'proven track record'
p113
F0.0085229999999999993
sS'tester'
p114
F0.015344999999999999
sS'core'
p115
F0.010621
sS'molecular marker data analysis qaqc fp project'
p116
F0.019916
sS'integrated'
p117
F0.0077780000000000002
sS'ability'
p118
F0.0057949999999999998
sS'degree'
p119
F0.0057749999999999998
sS'commercial'
p120
F0.0071079999999999997
sS'leveraging'
p121
F0.0064640000000000001
sS'proven ability'
p122
F0.0081419999999999999
sS'data scientist'
p123
F0.0016850000000000001
sS'plant breeding'
p124
F0.065516000000000005
sS'job'
p125
F0.0060740000000000004
sS'leadership'
p126
F0.0043540000000000002
sS'china'
p127
F0.016079
sS'development corn crop'
p128
F0.019916
sS'visited'
p129
F0.013798
sS'participate'
p130
F0.0059290000000000002
sS'training'
p131
F0.0050759999999999998
sS'strong'
p132
F0.0051749999999999999
sS'optimize'
p133
F0.0063299999999999997
sS'information technology'
p134
F0.0067920000000000003
sS'improve'
p135
F0.0076810000000000003
sS'pipeline'
p136
F0.025437999999999999
sS'sustainable agriculture'
p137
F0.018147
sS'technical'
p138
F0.0072769999999999996
sS'across'
p139
F0.0028509999999999998
sS'area'
p140
F0.0034650000000000002
sS'race color religion sex age'
p141
F0.021683999999999998
sS'experience'
p142
F0.00047600000000000002
sS'qualified applicant'
p143
F0.0093790000000000002
sS'implementation'
p144
F0.0043509999999999998
sS'biotech technology'
p145
F0.019916
sS'identify'
p146
F0.0035140000000000002
sS'corp'
p147
F0.014952
sS'implement'
p148
F0.0036099999999999999
sS'china csi organization'
p149
F0.021683999999999998
sS'software'
p150
F0.0026029999999999998
sS'conserving'
p151
F0.018880999999999998
sS'ti team et al'
p152
F0.019916
sS'updated resume'
p153
F0.018880999999999998
sS'communication'
p154
F0.0053109999999999997
sS'within'
p155
F0.0030630000000000002
sS'collaborating'
p156
F0.024856
sS'characteristic protected'
p157
F0.0066540000000000002
sS'highly'
p158
F0.0058300000000000001
sS'60'
p159
F0.012338
sS'services'
p160
F0.0069210000000000001
sS'please contact'
p161
F0.015344999999999999
sS'api'
p162
F0.0099360000000000004
sS'844-463-6178'
p163
F0.021683999999999998
sS'problem solving'
p164
F0.0074400000000000004
sS'hybrid make-up'
p165
F0.019916
sS'neo4j'
p166
F0.015810000000000001
sS'asia africa china'
p167
F0.021683999999999998
sS'csi breeding'
p168
F0.019916
sS'collaborative team'
p169
F0.012272999999999999
sS'global corn breeding'
p170
F0.021683999999999998
sS'genomics'
p171
F0.012763999999999999
sS'use'
p172
F0.0027590000000000002
sS'statistics'
p173
F0.0066540000000000002
sS'working'
p174
F0.0027669999999999999
sS'1-3 year experience'
p175
F0.016379000000000001
sS'addition'
p176
F0.0067840000000000001
sS'team environment'
p177
F0.0082319999999999997
sS'support'
p178
F0.0069849999999999999
sS'people'
p179
F0.0033010000000000001
sS'relocation'
p180
F0.010996000000000001
sS'system'
p181
F0.0046899999999999997
sS'strategy'
p182
F0.0035999999999999999
sS'ccanova apexsystemsinccom'
p183
F0.021683999999999998
sS'program'
p184
F0.0039919999999999999
sS'st louis mo'
p185
F0.015810000000000001
sS'successful candidate'
p186
F0.007528
sS'coordinate ex-china msp'
p187
F0.019916
sS'call'
p188
F0.0093259999999999992
sS'breeding'
p189
F0.096472000000000002
sS'prototype'
p190
F0.0066540000000000002
sS'eeo employer'
p191
F0.015810000000000001
sS'data management'
p192
F0.0069290000000000003
sS'website'
p193
F0.015218000000000001
sS'field'
p194
F0.0101
sS'corn'
p195
F0.019916
sS'testing'
p196
F0.0048719999999999996
sS'3-5 year experience'
p197
F0.030280999999999999
sS'tool'
p198
F0.0018420000000000001
sS'spotfire'
p199
F0.025846999999999998
sS'search'
p200
F0.014352999999999999
sS'interpersonal skill'
p201
F0.0095139999999999999
sS'genetics molecular breeding'
p202
F0.039830999999999998
sS'using data science'
p203
F0.01221
sS'understand'
p204
F0.0036340000000000001
sS'crop'
p205
F0.030280999999999999
sS'chile'
p206
F0.019916
sS'consult'
p207
F0.011074000000000001
sS'excellent'
p208
F0.010522999999999999
sS'hana riak also'
p209
F0.021683999999999998
sS'effort'
p210
F0.0051219999999999998
sS'project management'
p211
F0.0060049999999999999
sS'cross-functional'
p212
F0.0080070000000000002
sS'analyze'
p213
F0.0045189999999999996
sS'employment without regard'
p214
F0.005241
sS'interdisciplinary team'
p215
F0.014775999999999999
sS'developing'
p216
F0.0034510000000000001
sS'mysql'
p217
F0.010233000000000001
sS'require'
p218
F0.006711
sS'develop generalized procedure'
p219
F0.018880999999999998
sS'submission ti'
p220
F0.019916
sS'integral member'
p221
F0.016379000000000001
sS'value'
p222
F0.0043600000000000002
sS'multidisciplinary team'
p223
F0.012338
sS'project'
p224
F0.0041310000000000001
sS'applicable law'
p225
F0.010704
sS'diverse'
p226
F0.0049829999999999996
sS'r'
F0.0115
sS'established industry-leading product'
p227
F0.018880999999999998
sS'demonstrate'
p228
F0.0068069999999999997
sS'arepassionate'
p229
F0.021683999999999998
sS'challenging'
p230
F0.0070910000000000001
sS'process'
p231
F0.0077460000000000003
sS'well'
p232
F0.0030149999999999999
sS'novel'
p233
F0.0094710000000000003
sS'thus'
p234
F0.021683999999999998
sS'specialist'
p235
F0.0090779999999999993
sS'enable'
p236
F0.0057650000000000002
sS'expertise'
p237
F0.0034329999999999999
sS'breeding trait integration'
p238
F0.019916
sS'sas'
p239
F0.00562
sS'employment opportunity'
p240
F0.012614
sS'technology'
p241
F0.0055539999999999999
sS'placement'
p242
F0.012472
sS'3-5 year'
p243
F0.020466000000000002
sS'information'
p244
F0.0029459999999999998
sS'conversion'
p245
F0.010603
sS'strength'
p246
F0.0085229999999999993
sS'develop'
p247
F0.00199
sS'provide'
p248
F0.0025929999999999998
sS'manage china corn data'
p249
F0.019916
sS'responsible'
p250
F0.0031410000000000001
sS'-'
F0.0038170000000000001
sS'detail'
p251
F0.0058659999999999997
sS'coordination et al'
p252
F0.019916
sS'also'
p253
F0.0084510000000000002
sS'responsibilities'
p254
F0.0031679999999999998
sS'client'
p255
F0.0032599999999999999
sS'role'
p256
F0.002653
sS'evaluate'
p257
F0.011743
sS'creatively'
p258
F0.011917000000000001
sS'across multiple'
p259
F0.0082990000000000008
sS'effectiveness'
p260
F0.0075180000000000004
sS'3 year'
p261
F0.0060270000000000002
sS'highly desired'
p262
F0.010996000000000001
sS'nice'
p263
F0.0095790000000000007
sS'strong commitment'
p264
F0.011239000000000001
sS'product'
p265
F0.001926
sS'management'
p266
F0.002885
sS'data management licensing td'
p267
F0.019916
sS'different'
p268
F0.0062389999999999998
sS'phd'
p269
F0.0040959999999999998
sS'communication skill'
p270
F0.0073280000000000003
sS'1-3 year'
p271
F0.012763999999999999
sS'produce'
p272
F0.007724
sS'sql'
p273
F0.0056740000000000002
sS'accommodation'
p274
F0.0081169999999999992
sS'utilize'
p275
F0.0072820000000000003
sS'law'
p276
F0.0059560000000000004
sS'data'
p277
F0.0087139999999999995
sS'needed'
p278
F0.0053319999999999999
sS'sexual orientation gender identity national origin disability protected veteran status'
p279
F0.021683999999999998
sS'china using phenotypic'
p280
F0.019916
sS'organization'
p281
F0.0028639999999999998
sS'natural'
p282
F0.011756000000000001
sS'effective'
p283
F0.005653
sS'database'
p284
F0.018821999999999998
sS'work collaboratively'
p285
F0.0079019999999999993
sS'diverse team'
p286
F0.010996000000000001
sS'complex problem'
p287
F0.0091140000000000006
sS'drive'
p288
F0.0032759999999999998
sS'analysis'
p289
F0.0041809999999999998
sS'person'
p290
F0.0069059999999999998
sS'breeding team'
p291
F0.018880999999999998
sS'strong knowledge'
p292
F0.023401000000000002
sS'oracle'
p293
F0.0082319999999999997
sS'languages java python r sas'
p294
F0.021683999999999998
sS'5 year'
p295
F0.011091999999999999
sS'requires'
p296
F0.0079249999999999998
sS'exceptional'
p297
F0.0067330000000000003
sS'joining'
p298
F0.0087690000000000008
s.