(dp1
S'science'
p2
F0.015177
sS'code'
p3
F0.0069109999999999996
sS'flexible spending accounts -'
p4
F0.026464000000000001
sS'plans -'
p5
F0.026464000000000001
sS'insight'
p6
F0.0090030000000000006
sS'communicate complex idea'
p7
F0.012474000000000001
sS'mission'
p8
F0.0061000000000000004
sS'build trusting relationship'
p9
F0.028813999999999999
sS'gauge'
p10
F0.028813999999999999
sS'solutions'
p11
F0.010921999999999999
sS'aspect'
p12
F0.0086160000000000004
sS'skill'
p13
F0.0031280000000000001
sS'fine'
p14
F0.024114
sS'strong background'
p15
F0.011674
sS'- opts'
p16
F0.028813999999999999
sS'align strategy'
p17
F0.02274
sS'style'
p18
F0.015049999999999999
sS'difference'
p19
F0.0083870000000000004
sS'based'
p20
F0.0050229999999999997
sS'knowledge'
p21
F0.0093480000000000004
sS'phd degree'
p22
F0.011783999999999999
sS'eligible'
p23
F0.012942
sS'personal'
p24
F0.0093139999999999994
sS'send'
p25
F0.014935
sS'web scraping'
p26
F0.024114
sS'willing'
p27
F0.01064
sS'candidates'
p28
F0.024473000000000002
sS'biotechnology'
p29
F0.022217000000000001
sS'employee'
p30
F0.0060749999999999997
sS'two'
p31
F0.010003
sS'might'
p32
F0.013675
sS'staffing'
p33
F0.014317
sS'computer science'
p34
F0.0052750000000000002
sS'highly motivated'
p35
F0.01307
sS'customer'
p36
F0.0029619999999999998
sS'desired skills'
p37
F0.012585000000000001
sS'global'
p38
F0.0058430000000000001
sS'r programmer'
p39
F0.025090000000000001
sS'format'
p40
F0.011063
sS'python'
p41
F0.0050629999999999998
sS'shiny ggplot2 dplyr rcpp'
p42
F0.028813999999999999
sS'account'
p43
F0.011403999999999999
sS'know'
p44
F0.0084700000000000001
sS'critical thinking skill'
p45
F0.01451
sS'using'
p46
F0.0037629999999999999
sS'hands-on experience'
p47
F0.010957
sS'version control'
p48
F0.014364
sS'clear precise'
p49
F0.015910000000000001
sS'masters'
p50
F0.0094900000000000002
sS'ms word'
p51
F0.019415000000000002
sS'bar'
p52
F0.015834999999999998
sS'401 k plan'
p53
F0.016761999999999999
sS'success'
p54
F0.0060140000000000002
sS'developing'
p55
F0.0045859999999999998
sS'solution'
p56
F0.0024099999999999998
sS'summary'
p57
F0.010560999999999999
sS'visualization tool'
p58
F0.012288
sS'synthesizing data'
p59
F0.026464000000000001
sS'either'
p60
F0.01082
sS'sql'
p61
F0.0037699999999999999
sS'consultant'
p62
F0.010786
sS'identifies'
p63
F0.012671
sS'business decision'
p64
F0.011897
sS'digital ag'
p65
F0.028813999999999999
sS'referred'
p66
F0.021007999999999999
sS'disability insurance'
p67
F0.018041000000000001
sS'knowing'
p68
F0.018336000000000002
sS'requirement'
p69
F0.017128999999999998
sS'set'
p70
F0.0072329999999999998
sS'experience designing'
p71
F0.013917000000000001
sS'people'
p72
F0.0043860000000000001
sS'trend'
p73
F0.0072449999999999997
sS'work experience'
p74
F0.0088330000000000006
sS'searching'
p75
F0.014411999999999999
sS'analytics'
p76
F0.0031089999999999998
sS'actively'
p77
F0.011674
sS'fortune 500 company'
p78
F0.015762000000000002
sS'accelerate'
p79
F0.013413
sS'measure'
p80
F0.0092180000000000005
sS'manipulating'
p81
F0.015910000000000001
sS'agriculture'
p82
F0.017399000000000001
sS'insurance'
p83
F0.012161
sS'dental insurance'
p84
F0.018041000000000001
sS'genetics'
p85
F0.015691
sS'extend'
p86
F0.014133
sS'showcase'
p87
F0.01686
sS"master's"
p88
F0.013237000000000001
sS'decision'
p89
F0.0058240000000000002
sS'familiarity'
p90
F0.0063730000000000002
sS'amazon web service'
p91
F0.026464000000000001
sS'restful api'
p92
F0.026464000000000001
sS'positively impact'
p93
F0.019016000000000002
sS'passion'
p94
F0.006607
sS'innovation'
p95
F0.0052919999999999998
sS'relocate'
p96
F0.017284000000000001
sS'available'
p97
F0.0081499999999999993
sS'specialist'
p98
F0.012062
sS'comparable'
p99
F0.016395
sS'full'
p100
F0.0088050000000000003
sS'ability'
p101
F0.0057749999999999998
sS'business'
p102
F0.0023289999999999999
sS'resume'
p103
F0.0098239999999999994
sS'commercial'
p104
F0.0094450000000000003
sS'overcomes obstacle'
p105
F0.028813999999999999
sS'team'
p106
F0.0012960000000000001
sS'data scientist'
p107
F0.0022390000000000001
sS'given'
p108
F0.010500000000000001
sS'understanding'
p109
F0.0043559999999999996
sS'job'
p110
F0.0040350000000000004
sS'succeed'
p111
F0.012789
sS'deliver'
p112
F0.0046230000000000004
sS'advisor'
p113
F0.016961
sS'modeling'
p114
F0.0057219999999999997
sS'strong'
p115
F0.013754000000000001
sS'f2f interview'
p116
F0.028813999999999999
sS'change'
p117
F0.0061760000000000001
sS'care'
p118
F0.0082979999999999998
sS'onsite'
p119
F0.017517999999999999
sS'engage'
p120
F0.008966
sS'candidate'
p121
F0.012675000000000001
sS'duration 12+ months'
p122
F0.028813999999999999
sS'package'
p123
F0.019928000000000001
sS'technical'
p124
F0.0032230000000000002
sS'could'
p125
F0.024271999999999998
sS'programming'
p126
F0.0062620000000000002
sS'experience'
p127
F0.0037989999999999999
sS'thing'
p128
F0.010057
sS'sample project'
p129
F0.023358
sS'resulting'
p130
F0.016483000000000001
sS'fast learner multitasker team-player'
p131
F0.028813999999999999
sS'chesterfield'
p132
F0.025090000000000001
sS'- backfill'
p133
F0.028813999999999999
sS'among'
p134
F0.012880000000000001
sS'manage'
p135
F0.0056959999999999997
sS'gathering'
p136
F0.014716
sS'community'
p137
F0.01225
sS'system'
p138
F0.0031159999999999998
sS'flexibility'
p139
F0.011268
sS'fosters'
p140
F0.028813999999999999
sS'problem solving'
p141
F0.009887
sS'3-5 year'
p142
F0.013598000000000001
sS'apply'
p143
F0.0047609999999999996
sS'open'
p144
F0.0092079999999999992
sS'web crawling'
p145
F0.026464000000000001
sS"you're"
p146
F0.010468999999999999
sS'use'
p147
F0.003666
sS'fee'
p148
F0.018492999999999999
sS'java'
p149
F0.0076870000000000003
sS'additional'
p150
F0.0092079999999999992
sS'would'
p151
F0.0092289999999999994
sS'consider drop one'
p152
F0.028813999999999999
sS'create'
p153
F0.0045539999999999999
sS'recruiting'
p154
F0.01242
sS'location saint louis mo'
p155
F0.028813999999999999
sS'next'
p156
F0.011228999999999999
sS'anyone'
p157
F0.018041000000000001
sS'live'
p158
F0.011063
sS'2'
F0.0094789999999999996
sS'four pillar'
p159
F0.028813999999999999
sS'automate'
p160
F0.011424
sS'breeding'
p161
F0.021366
sS'improve'
p162
F0.0051029999999999999
sS'life'
p163
F0.011209
sS'actionable manner'
p164
F0.016143999999999999
sS'data science statistics mathematics'
p165
F0.026464000000000001
sS'offer'
p166
F0.010906000000000001
sS'company'
p167
F0.0069109999999999996
sS'programming experience'
p168
F0.022272
sS'spotfire'
p169
F0.017173000000000001
sS'phone'
p170
F0.015049999999999999
sS'part'
p171
F0.0046369999999999996
sS'basic understanding'
p172
F0.014612
sS'benefit package'
p173
F0.013037999999999999
sS'must'
p174
F0.0094599999999999997
sS'info'
p175
F0.024114
sS'hire'
p176
F0.010179000000000001
sS'volunteering'
p177
F0.028813999999999999
sS'mbooker strategicstaffcom reference jo 132080'
p178
F0.028813999999999999
sS'u'
F0.0078930000000000007
sS'qualification experience'
p179
F0.026464000000000001
sS'work'
p180
F0.001181
sS'budget'
p181
F0.011783999999999999
sS'project'
p182
F0.002745
sS'r'
F0.015280999999999999
sS'referral'
p183
F0.017284000000000001
sS'similar'
p184
F0.0076800000000000002
sS'example'
p185
F0.010607999999999999
sS'seeking'
p186
F0.0061040000000000001
sS'may include'
p187
F0.012911000000000001
sS'3-5 year experience'
p188
F0.020119000000000001
sS'metric'
p189
F0.016990999999999999
sS'share'
p190
F0.0091769999999999994
sS'general'
p191
F0.0096889999999999997
sS'high'
p192
F0.0085640000000000004
sS'medical'
p193
F0.010921999999999999
sS'good'
p194
F0.0073699999999999998
sS'unlikely'
p195
F0.028813999999999999
sS'sense'
p196
F0.012288
sS'station'
p197
F0.024114
sS'draw conclusion'
p198
F0.017769
sS'large data set'
p199
F0.0087229999999999999
sS's3'
p200
F0.079471
sS'external collaborator'
p201
F0.02274
sS'responsible'
p202
F0.0041739999999999998
sS'-'
F0.081155000000000005
sS'tableau'
p203
F0.0086689999999999996
sS'someone'
p204
F0.010278000000000001
sS'emphasis'
p205
F0.012236
sS'internal'
p206
F0.0054320000000000002
sS'vacation'
p207
F0.015910000000000001
sS'performance'
p208
F0.0049540000000000001
sS'highly desired'
p209
F0.014612
sS'higher'
p210
F0.011651999999999999
sS'development'
p211
F0.002274
sS'independent'
p212
F0.011717
sS'product'
p213
F0.0025600000000000002
sS'bioinformatics'
p214
F0.014364
sS'vision insurance'
p215
F0.017641
sS'phd'
p216
F0.0054429999999999999
sS'monnisha booker sourcing'
p217
F0.028813999999999999
sS'hired'
p218
F0.018658999999999999
sS'business rule'
p219
F0.018658999999999999
sS'quantitative'
p220
F0.006293
sS'changing'
p221
F0.011136
sS'future'
p222
F0.0051630000000000001
sS'data'
p223
F0.0033080000000000002
sS'charitable giving'
p224
F0.028813999999999999
sS'tuition reimbursement'
p225
F0.014768999999999999
sS'github'
p226
F0.042671000000000001
sS'database'
p227
F0.0050020000000000004
sS'cloud computing'
p228
F0.013559999999999999
sS'required'
p229
F0.0098530000000000006
sS'translate data'
p230
F0.018492999999999999
sS'highly motivated individual'
p231
F0.017517999999999999
sS'translating business question'
p232
F0.028813999999999999
sS'strategic'
p233
F0.0059969999999999997
sS'partner'
p234
F0.0053749999999999996
sS'position'
p235
F0.0033319999999999999
sS'5 year'
p236
F0.0073699999999999998
sS'opportunity'
p237
F0.0034009999999999999
sS'urgency'
p238
F0.015486
sS'preference'
p239
F0.014317
s.