(dp1
S''
F0.0099190000000000007
sS'limited'
p2
F0.011018
sS'within scope 5 years'
p3
F0.027803000000000001
sS'gs'
p4
F0.021635999999999999
sS'insightful output'
p5
F0.025835
sS'global leader'
p6
F0.018763999999999999
sS'unstructured data set'
p7
F0.021552000000000002
sS'diverse employee'
p8
F0.021808999999999999
sS'mission'
p9
F0.017471
sS'existing'
p10
F0.010122000000000001
sS'course'
p11
F0.015237000000000001
sS'identify'
p12
F0.020060000000000001
sS'information visit wwwleidoscom'
p13
F0.021898000000000001
sS'research'
p14
F0.011461000000000001
sS'qualified woman minority individual'
p15
F0.021898000000000001
sS'nga'
p16
F0.034533000000000001
sS'implementation'
p17
F0.0082799999999999992
sS'technique'
p18
F0.0065820000000000002
sS'disability'
p19
F0.011047
sS'technique devises modeling'
p20
F0.031168000000000001
sS'operational'
p21
F0.010425
sS"world's toughest challenge"
p22
F0.024143999999999999
sS'location'
p23
F0.0097689999999999999
sS'extensive'
p24
F0.031738000000000002
sS'presentation'
p25
F0.0092849999999999999
sS'domain'
p26
F0.012895999999999999
sS'government'
p27
F0.025059999999999999
sS'approximately 10 billion'
p28
F0.021898000000000001
sS'springfield missouri springfield virginia'
p29
F0.032564999999999997
sS'economic discipline'
p30
F0.060170000000000001
sS'equivalent experience combined education'
p31
F0.032564999999999997
sS'algorithm exploit'
p32
F0.031168000000000001
sS'unique'
p33
F0.012609
sS'job description'
p34
F0.0098209999999999999
sS'high importance without'
p35
F0.031168000000000001
sS'identifying'
p36
F0.012980999999999999
sS'design executive-level briefing'
p37
F0.031168000000000001
sS'recently completed combination'
p38
F0.021898000000000001
sS'solution'
p39
F0.0034520000000000002
sS'predictable interacting operational'
p40
F0.030085000000000001
sS'across'
p41
F0.0054250000000000001
sS'activity'
p42
F0.010059
sS'enhance'
p43
F0.012676
sS'linear programming game theory'
p44
F0.030085000000000001
sS'5 years'
p45
F0.020369000000000002
sS'requirement'
p46
F0.0061320000000000003
sS'set'
p47
F0.010357999999999999
sS'jpas'
p48
F0.027803000000000001
sS'intelligence'
p49
F0.01244
sS'eg'
p50
F0.019248000000000001
sS"company's 33 000"
p51
F0.030596000000000002
sS'active top secret level'
p52
F0.027803000000000001
sS'value'
p53
F0.0082959999999999996
sS'probability theory symbolic language'
p54
F0.030085000000000001
sS'theoretical solution'
p55
F0.031168000000000001
sS'encouraged'
p56
F0.015306
sS'scale'
p57
F0.010923
sS'lead'
p58
F0.011735000000000001
sS'educate leader'
p59
F0.031168000000000001
sS'integration'
p60
F0.010794
sS'contract award'
p61
F0.030596000000000002
sS'access'
p62
F0.010161999999999999
sS'meaning limitation'
p63
F0.025087000000000002
sS'market'
p64
F0.0091330000000000005
sS'complex mission-driven problem'
p65
F0.031168000000000001
sS'enable exploitation'
p66
F0.031168000000000001
sS'method'
p67
F0.027158000000000002
sS'demonstrated'
p68
F0.0099810000000000003
sS'basic qualifications'
p69
F0.010961
sS'scientific'
p70
F0.025113
sS'giving effect'
p71
F0.021898000000000001
sS'data scientist'
p72
F0.0032070000000000002
sS'understanding'
p73
F0.0062379999999999996
sS'refinement'
p74
F0.020851000000000001
sS'statistical method'
p75
F0.015259999999999999
sS'bachelors degree'
p76
F0.011018
sS'address'
p77
F0.023321000000000001
sS'interpret'
p78
F0.014498
sS'written communication skill'
p79
F0.012636
sS'job'
p80
F0.0057790000000000003
sS'good oral'
p81
F0.025446
sS'homeland security'
p82
F0.022676999999999999
sS'range'
p83
F0.027612999999999999
sS'leidos'
p84
F0.042299999999999997
sS'logic'
p85
F0.021149999999999999
sS'professional experience'
p86
F0.016565
sS'organizational holding'
p87
F0.031168000000000001
sS'efficient implementation'
p88
F0.024752
sS'structured'
p89
F0.011671000000000001
sS'directed provide'
p90
F0.031168000000000001
sS'data science'
p91
F0.011513000000000001
sS'wide variety'
p92
F0.015973999999999999
sS'defense intelligence'
p93
F0.025263000000000001
sS'appropriate'
p94
F0.010050999999999999
sS'sci eligibility'
p95
F0.025835
sS'accredited college'
p96
F0.022176000000000001
sS'determine'
p97
F0.014324999999999999
sS'commercial customer'
p98
F0.041848999999999997
sS'decision making'
p99
F0.014577
sS'use'
p100
F0.0052509999999999996
sS"data science community's method"
p101
F0.026969
sS'working'
p102
F0.0052649999999999997
sS'related discipline'
p103
F0.015946999999999999
sS"lockheed martin's information systems global solutions business"
p104
F0.021898000000000001
sS'system'
p105
F0.0044619999999999998
sS'strategy'
p106
F0.0068500000000000002
sS'analyze actual'
p107
F0.030085000000000001
sS'novel solution'
p108
F0.027508999999999999
sS'information technology'
p109
F0.012924
sS'outstanding item must'
p110
F0.031168000000000001
sS'translate'
p111
F0.012389000000000001
sS'minimize gap'
p112
F0.031168000000000001
sS'tool'
p113
F0.0035040000000000002
sS'16 year'
p114
F0.063631999999999994
sS'data science tradecraft within'
p115
F0.031168000000000001
sS'quantitative rational basis'
p116
F0.031168000000000001
sS'scope'
p117
F0.013573999999999999
sS'applied'
p118
F0.011998999999999999
sS'novel'
p119
F0.018022
sS'target'
p120
F0.016303000000000002
sS'us'
p121
F0.0081880000000000008
sS'project'
p122
F0.0039309999999999996
sS'reston virginia leidos reported annual revenue'
p123
F0.030085000000000001
sS'familiar'
p124
F0.015640999999999999
sS'design'
p125
F0.0080319999999999992
sS'problem'
p126
F0.006718
sS'obtain'
p127
F0.01405
sS'evaluate standardized method'
p128
F0.027231000000000002
sS'challenging'
p129
F0.013494000000000001
sS'give'
p130
F0.016843
sS'civil health'
p131
F0.028451000000000001
sS'protected veteran'
p132
F0.018811000000000001
sS'30 country'
p133
F0.028117
sS'equal opportunity employer'
p134
F0.0090950000000000007
sS'effectively'
p135
F0.010234
sS'engineering'
p136
F0.0065550000000000001
sS'fiscal year ended january 1 2016'
p137
F0.021898000000000001
sS'ic'
p138
F0.041848999999999997
sS'technology'
p139
F0.0035230000000000001
sS'result'
p140
F0.012541
sS'etc'
p141
F0.0069890000000000004
sS'investigation must appear'
p142
F0.027803000000000001
sS'discussion'
p143
F0.017708999999999999
sS'application'
p144
F0.015892
sS'complex'
p145
F0.0076920000000000001
sS'support vital mission'
p146
F0.043797000000000003
sS'evaluate'
p147
F0.022346000000000001
sS'mathematics'
p148
F0.014232
sS'data collection'
p149
F0.01636
sS'multiple'
p150
F0.0093720000000000001
sS'apply leidos'
p151
F0.023234999999999999
sS'headquartered'
p152
F0.015640999999999999
sS'productization'
p153
F0.028451000000000001
sS'collection'
p154
F0.016656000000000001
sS'law'
p155
F0.011334
sS'opportunity'
p156
F0.0048700000000000002
sS'unfamiliar domain'
p157
F0.031168000000000001
sS"company's diverse employee"
p158
F0.026483
sS'software package programming language computational environment'
p159
F0.025446
sS'expert'
p160
F0.0092180000000000005
sS'algorithm'
p161
F0.024129000000000001
sS'documentation'
p162
F0.022790000000000001
sS'request'
p163
F0.012178
sS'drive'
p164
F0.0062350000000000001
sS'initiate'
p165
F0.021387
sS'client'
p166
F0.012404999999999999
sS'solve'
p167
F0.0096240000000000006
sS'principle'
p168
F0.013306999999999999
sS'model'
p169
F0.014505000000000001
sS'clearance'
p170
F0.031634000000000002
sS'measuring technique utilizes mathematics'
p171
F0.030085000000000001
sS'contingent'
p172
F0.027508999999999999
s.