(dp1
S''
F0.0051859999999999996
sS'code'
p2
F0.0051739999999999998
sS'help'
p3
F0.010078
sS'office'
p4
F0.0049150000000000001
sS'business need'
p5
F0.0077939999999999997
sS'significant'
p6
F0.0074409999999999997
sS'insight'
p7
F0.0033700000000000002
sS'resolution'
p8
F0.009162
sS'debug software'
p9
F0.014701000000000001
sS'hadoop'
p10
F0.0049220000000000002
sS'serving'
p11
F0.0095980000000000006
sS'identify'
p12
F0.003496
sS'innovative'
p13
F0.0043350000000000003
sS'well-structured'
p14
F0.019813999999999998
sS'javascript jquery'
p15
F0.016296000000000001
sS'software developer dbas'
p16
F0.021573999999999999
sS'medical mutual'
p17
F0.099071999999999993
sS'row'
p18
F0.013304
sS'move'
p19
F0.0082430000000000003
sS'1'
F0.0068630000000000002
sS'based'
p20
F0.003761
sS'knowledge'
p21
F0.004666
sS'big data'
p22
F0.0039519999999999998
sS'entree cooked fresh'
p23
F0.019813999999999998
sS'implementation'
p24
F0.0043290000000000004
sS'race color religion sex sexual orientation gender perception'
p25
F0.019813999999999998
sS'fix'
p26
F0.010978999999999999
sS'ohioans'
p27
F0.019813999999999998
sS'coaching'
p28
F0.0093600000000000003
sS'program'
p29
F0.0079439999999999997
sS'employee'
p30
F0.018193999999999998
sS'health'
p31
F0.012215999999999999
sS'2017'
p32
F0.0094870000000000006
sS'local'
p33
F0.0083940000000000004
sS'achieve'
p34
F0.006012
sS'computer science'
p35
F0.0039500000000000004
sS'corporate-wide program'
p36
F0.019813999999999998
sS'c'
F0.009299
sS'weve'
p37
F0.014701000000000001
sS'finance'
p38
F0.0066769999999999998
sS'data warehouse'
p39
F0.0085240000000000003
sS'big'
p40
F0.007365
sS'overall'
p41
F0.0062249999999999996
sS'scalable'
p42
F0.013915
sS'data modeler'
p43
F0.016635
sS'choice'
p44
F0.0090320000000000001
sS'unstructured'
p45
F0.0081010000000000006
sS'joint'
p46
F0.014876
sS'strongsville -'
p47
F0.021573999999999999
sS'make ohio'
p48
F0.019813999999999998
sS'reliable'
p49
F0.0098600000000000007
sS'report'
p50
F0.0035349999999999999
sS'using'
p51
F0.0028180000000000002
sS'difference'
p52
F0.00628
sS'multiple'
p53
F0.0048999999999999998
sS'celebrate'
p54
F0.011856
sS'strive'
p55
F0.0070140000000000003
sS'timely'
p56
F0.017017999999999998
sS'strongsville rec center'
p57
F0.019813999999999998
sS'6 47 11'
p58
F0.021573999999999999
sS'mutually invested'
p59
F0.019813999999999998
sS'level'
p60
F0.011235999999999999
sS'issue'
p61
F0.0044869999999999997
sS'troubleshoot'
p62
F0.0099889999999999996
sS'solution'
p63
F0.0054140000000000004
sS'proud'
p64
F0.0068019999999999999
sS'continue'
p65
F0.0061659999999999996
sS'team'
p66
F0.0048510000000000003
sS'release'
p67
F0.018846000000000002
sS'restful api webui html'
p68
F0.018785
sS'ohio speed'
p69
F0.019813999999999998
sS'junior team member'
p70
F0.011140000000000001
sS'agile environment'
p71
F0.010043
sS'enjoy'
p72
F0.0082170000000000003
sS'order hot'
p73
F0.019813999999999998
sS'architect'
p74
F0.0064060000000000002
sS'set'
p75
F0.0054149999999999997
sS'challenging problem'
p76
F0.011594
sS'coordinate'
p77
F0.0077279999999999996
sS'people'
p78
F0.003284
sS'r shiny'
p79
F0.015063999999999999
sS'disability insurance'
p80
F0.013507999999999999
sS'401 k'
p81
F0.010298
sS'receive consideration'
p82
F0.0049620000000000003
sS'growth'
p83
F0.0052760000000000003
sS'design'
p84
F0.0041989999999999996
sS'result'
p85
F0.0032780000000000001
sS'measure'
p86
F0.0069020000000000001
sS'sprint planning'
p87
F0.014537
sS'immediate team member'
p88
F0.018785
sS'well-crafted multi-layer warehouse'
p89
F0.019813999999999998
sS'alternative'
p90
F0.010755000000000001
sS'best'
p91
F0.0087670000000000005
sS'regulatory requirement'
p92
F0.013115999999999999
sS'work collaboratively across'
p93
F0.015488
sS'u'
F0.0059100000000000003
sS'conceptualizing'
p94
F0.018055000000000002
sS'data engineering'
p95
F0.0094230000000000008
sS'w sprague'
p96
F0.021573999999999999
sS'headquarter building'
p97
F0.019813999999999998
sS'legal'
p98
F0.010718999999999999
sS'company match'
p99
F0.011594
sS'employment regardless'
p100
F0.0098110000000000003
sS'state'
p101
F0.0065310000000000003
sS'join u'
p102
F0.0072100000000000003
sS'various'
p103
F0.0043870000000000003
sS'ux team'
p104
F0.014701000000000001
sS'provider'
p105
F0.007816
sS'new'
p106
F0.0023909999999999999
sS'data scientists'
p107
F0.0066559999999999996
sS'youll'
p108
F0.016433
sS'infrastructure'
p109
F0.010397
sS'distributed computing'
p110
F0.0086610000000000003
sS'ability'
p111
F0.0028830000000000001
sS'business'
p112
F0.0017440000000000001
sS'schedule'
p113
F0.0070470000000000003
sS'80 year'
p114
F0.016635
sS'high quality'
p115
F0.016844000000000001
sS'deliver'
p116
F0.0069230000000000003
sS'unix linux'
p117
F0.011969
sS'standard'
p118
F0.0046560000000000004
sS'implementing'
p119
F0.0061479999999999998
sS'job'
p120
F0.0060429999999999998
sS'downtown cleveland'
p121
F0.019813999999999998
sS'hadoop spark'
p122
F0.0094649999999999995
sS'employee discount program discounts'
p123
F0.019813999999999998
sS'informatics'
p124
F0.011497
sS'data quality'
p125
F0.015677
sS'security'
p126
F0.0057559999999999998
sS'regular'
p127
F0.0087250000000000001
sS'salad bar'
p128
F0.019813999999999998
sS'advance'
p129
F0.0073550000000000004
sS'life balance'
p130
F0.012211
sS'primary location'
p131
F0.0077279999999999996
sS'talent'
p132
F0.0057759999999999999
sS'affirmative action employer'
p133
F0.011098999999999999
sS'launch'
p134
F0.010581999999999999
sS'technical'
p135
F0.0024130000000000002
sS'many'
p136
F0.0063550000000000004
sS'compliance'
p137
F0.0075300000000000002
sS'experience'
p138
F0.0014220000000000001
sS'work locations'
p139
F0.01397
sS'thing'
p140
F0.0075300000000000002
sS'bachelors degree'
p141
F0.0057609999999999996
sS'ensure'
p142
F0.012769000000000001
sS'mentor'
p143
F0.0069329999999999999
sS'large amount'
p144
F0.0092790000000000008
sS'contribution'
p145
F0.0081910000000000004
sS'mentoring'
p146
F0.0076109999999999997
sS'implement'
p147
F0.0035920000000000001
sS'structured data'
p148
F0.013209
sS'top'
p149
F0.012148000000000001
sS'thats'
p150
F0.011357000000000001
sS'validate'
p151
F0.0079080000000000001
sS'take ownership'
p152
F0.011912000000000001
sS'skill'
p153
F0.0023419999999999999
sS'scale'
p154
F0.0057109999999999999
sS'love'
p155
F0.0067720000000000002
sS'northeast ohio'
p156
F0.018785
sS'cb'
p157
F0.010515999999999999
sS'director data engineering- 1700086'
p158
F0.021573999999999999
sS'within'
p159
F0.0030469999999999998
sS'functional'
p160
F0.0065649999999999997
sS'community'
p161
F0.0045859999999999998
sS'one'
p162
F0.002931
sS'appropriate'
p163
F0.01051
sS'right'
p164
F0.0061079999999999997
sS'done'
p165
F0.010515999999999999
sS'maximize'
p166
F0.0087899999999999992
sS'respect'
p167
F0.007816
sS'trust'
p168
F0.010016000000000001
sS'career'
p169
F0.0053470000000000002
sS'job posting mar'
p170
F0.017489000000000001
sS'ensures'
p171
F0.0091050000000000002
sS'additional'
p172
F0.006894
sS'leading'
p173
F0.003637
sS'create'
p174
F0.010229
sS'transform'
p175
F0.0073270000000000002
sS'plan'
p176
F0.0096530000000000001
sS'job type'
p177
F0.0098600000000000007
sS'live'
p178
F0.0082830000000000004
sS'free membership'
p179
F0.018785
sS'around town'
p180
F0.019813999999999998
sS'healthcare data'
p181
F0.010902
sS'flexible'
p182
F0.014673
sS'exceptional'
p183
F0.013398
sS'translate'
p184
F0.0064770000000000001
sS'80 year weve'
p185
F0.021573999999999999
sS'pm'
p186
F0.012699
sS'excellent'
p187
F0.010468999999999999
sS'lunch choices ranging'
p188
F0.019813999999999998
sS'identity national origin age marital status'
p189
F0.019813999999999998
sS'great work'
p190
F0.018785
sS'relationship'
p191
F0.0052960000000000004
sS'offer'
p192
F0.0081659999999999996
sS'company'
p193
F0.0025869999999999999
sS'technical subject matter expert'
p194
F0.017489000000000001
sS'governed data source'
p195
F0.019813999999999998
sS'full-time'
p196
F0.0083660000000000002
sS'sales'
p197
F0.009299
sS'medical dental vision'
p198
F0.011696
sS'automated'
p199
F0.0074599999999999996
sS'team member'
p200
F0.0050730000000000003
sS'benefits'
p201
F0.0074409999999999997
sS'nicotine testing'
p202
F0.019813999999999998
sS'effort'
p203
F0.0050959999999999998
sS'talented'
p204
F0.0074510000000000002
sS'customer'
p205
F0.0022179999999999999
sS'great place'
p206
F0.0095090000000000001
sS'made'
p207
F0.0076740000000000003
sS'14'
p208
F0.015730000000000001
sS'northeast ohio five year'
p209
F0.019813999999999998
sS'innovative solution'
p210
F0.0095750000000000002
sS'challenge'
p211
F0.0095639999999999996
sS'work'
p212
F0.0026519999999999998
sS'health insurance'
p213
F0.013304
sS'value'
p214
F0.0086750000000000004
sS'cold sandwich'
p215
F0.019813999999999998
sS'production system'
p216
F0.010902
sS'compensation'
p217
F0.010043
sS'data governance'
p218
F0.010684000000000001
sS'ohio community'
p219
F0.019813999999999998
sS'dashboard'
p220
F0.0073000000000000001
sS'business casual attire'
p221
F0.019813999999999998
sS'learn'
p222
F0.0048339999999999998
sS'meet'
p223
F0.0048129999999999996
sS'5k per year'
p224
F0.019813999999999998
sS'recognition'
p225
F0.010684000000000001
sS'career development'
p226
F0.012148000000000001
sS'heart'
p227
F0.0091240000000000002
sS'15885 w sprague road'
p228
F0.021573999999999999
sS'us-oh-strongsville'
p229
F0.021573999999999999
sS'process'
p230
F0.0025690000000000001
sS'disability status'
p231
F0.011311999999999999
sS'metric'
p232
F0.0063610000000000003
sS'received'
p233
F0.012940999999999999
sS'mind'
p234
F0.0099109999999999997
sS'near'
p235
F0.015730000000000001
sS'package'
p236
F0.0074599999999999996
sS'high'
p237
F0.0064120000000000002
sS'on-site cafeteria serving hot breakfast'
p238
F0.019813999999999998
sS'diverse'
p239
F0.0049579999999999997
sS'embrace'
p240
F0.0094649999999999995
sS'want'
p241
F0.0049399999999999999
sS'actionable insight'
p242
F0.0083660000000000002
sS'leverage'
p243
F0.0057210000000000004
sS'personal trainer towel service locker room weight room elliptical machine'
p244
F0.019813999999999998
sS'qualified applicant'
p245
F0.004666
sS'technology'
p246
F0.0055250000000000004
sS'help u'
p247
F0.0076010000000000001
sS'competitive compensation'
p248
F0.01065
sS'veteran status'
p249
F0.0079780000000000007
sS'drug-free workplace'
p250
F0.012624
sS'education'
p251
F0.0041479999999999998
sS'productivity'
p252
F0.0095530000000000007
sS'variety'
p253
F0.010056000000000001
sS'efficient'
p254
F0.0073179999999999999
sS'five year'
p255
F0.0088730000000000007
sS'responsible'
p256
F0.0031250000000000002
sS'-'
F0.0037980000000000002
sS'detail'
p257
F0.0058370000000000002
sS'investment'
p258
F0.0080759999999999998
sS'member'
p259
F0.014819000000000001
sS'located'
p260
F0.0070299999999999998
sS'complex'
p261
F0.0040220000000000004
sS'5'
F0.0079310000000000005
sS'build'
p262
F0.0049509999999999997
sS'get'
p263
F0.0057409999999999996
sS'propose'
p264
F0.010581999999999999
sS'test'
p265
F0.0049399999999999999
sS'place'
p266
F0.014331999999999999
sS'advise'
p267
F0.010328
sS'effectiveness'
p268
F0.0074799999999999997
sS'maintain'
p269
F0.0046990000000000001
sS'cultivates strong'
p270
F0.019813999999999998
sS'workplace'
p271
F0.0052630000000000003
sS'development'
p272
F0.0017030000000000001
sS'business stakeholder'
p273
F0.0093189999999999992
sS'used'
p274
F0.0053299999999999997
sS'contribute'
p275
F0.011882999999999999
sS'description'
p276
F0.0052509999999999996
sS'bonus'
p277
F0.0096439999999999998
sS'day job'
p278
F0.014383
sS'accurate unambiguous technical'
p279
F0.018785
sS'act'
p280
F0.0072719999999999998
sS'qualifications'
p281
F0.0030590000000000001
sS'modern js framework'
p282
F0.018785
sS'includes'
p283
F0.0062620000000000002
sS'director'
p284
F0.023087
sS'design specification'
p285
F0.012777
sS'produce'
p286
F0.007685
sS'driven'
p287
F0.005104
sS'preferred'
p288
F0.00365
sS'ownership'
p289
F0.0086459999999999992
sS'perform pre-employment substance abuse'
p290
F0.019813999999999998
sS'throughout'
p291
F0.0066629999999999997
sS'robust'
p292
F0.0088909999999999996
sS'shift'
p293
F0.0091999999999999998
sS'truly'
p294
F0.011311999999999999
sS'data'
p295
F0.0037160000000000001
sS'class'
p296
F0.017322000000000001
sS'structure'
p297
F0.0074799999999999997
sS'status'
p298
F0.0057359999999999998
sS'reimbursement'
p299
F0.013115999999999999
sS'collaborate'
p300
F0.0086470000000000002
sS'lead'
p301
F0.003068
sS'software engineering'
p302
F0.0072810000000000001
sS'ms sql db2 nosql'
p303
F0.019813999999999998
sS'equal employment opportunity'
p304
F0.0085839999999999996
sS'develop visible'
p305
F0.039628999999999998
sS'required'
p306
F0.0024589999999999998
sS'request'
p307
F0.0063670000000000003
sS'object oriented programing relational database'
p308
F0.018785
sS'daily'
p309
F0.0085240000000000003
sS'strongsville44136'
p310
F0.021573999999999999
sS'modern programming language'
p311
F0.014701000000000001
sS'tech'
p312
F0.0086770000000000007
sS'create peace'
p313
F0.019813999999999998
sS'healthcare'
p314
F0.011653
sS'road mapping'
p315
F0.017489000000000001
sS'organization'
p316
F0.011396999999999999
sS'model'
p317
F0.0025279999999999999
sS'opportunity'
p318
F0.0025460000000000001
sS'order'
p319
F0.0055909999999999996
sS'business analysts'
p320
F0.014876
s.