(dp1
S'serving'
p2
F0.01248
sS'related field'
p3
F0.0054949999999999999
sS'biostatistics'
p4
F0.016827999999999999
sS'including'
p5
F0.0055840000000000004
sS'strongly support'
p6
F0.020801
sS'statistical'
p7
F0.01009
sS'participate'
p8
F0.0076709999999999999
sS'query'
p9
F0.009273
sS'skill'
p10
F0.0060910000000000001
sS'microsoft sql server'
p11
F0.018005
sS'previous'
p12
F0.012854000000000001
sS'big data analyst'
p13
F0.028053000000000002
sS'current'
p14
F0.0069800000000000001
sS'healthcare data analysis'
p15
F0.023477999999999999
sS'knowledge'
p16
F0.0060679999999999996
sS'rocky mountain'
p17
F0.028053000000000002
sS'severe traumatic injury'
p18
F0.028053000000000002
sS'writes'
p19
F0.019342999999999999
sS'disability'
p20
F0.0075100000000000002
sS'denver'
p21
F0.060416999999999998
sS'mission-driven organization'
p22
F0.023477999999999999
sS'platform'
p23
F0.004535
sS'approximately 185 000'
p24
F0.028053000000000002
sS'program'
p25
F0.0051650000000000003
sS'minute'
p26
F0.019342999999999999
sS'employee'
p27
F0.011828999999999999
sS'safety'
p28
F0.012422000000000001
sS'include'
p29
F0.0061659999999999996
sS'presentation'
p30
F0.0063119999999999999
sS'license registration none'
p31
F0.028053000000000002
sS'minimum qualifications'
p32
F0.012451
sS'public health'
p33
F0.017852
sS'regional'
p34
F0.014827
sS'nation'
p35
F0.013984999999999999
sS'cultural'
p36
F0.018702
sS'67 000'
p37
F0.025765
sS'coordinating'
p38
F0.012921
sS'report'
p39
F0.022984999999999998
sS'using'
p40
F0.0073280000000000003
sS'continued employment'
p41
F0.021631000000000001
sS'condition'
p42
F0.012822
sS'formal'
p43
F0.013939
sS'regarding'
p44
F0.011494000000000001
sS'resource'
p45
F0.0070759999999999998
sS'investigator'
p46
F0.018513999999999999
sS'services ssrs'
p47
F0.022741000000000001
sS'performing'
p48
F0.010134000000000001
sS'integrated'
p49
F0.010063000000000001
sS'trauma center'
p50
F0.028053000000000002
sS'nationally recognized'
p51
F0.019342999999999999
sS'academic'
p52
F0.0098440000000000003
sS'recommendation'
p53
F0.0066119999999999998
sS'federal state'
p54
F0.015209
sS'qi'
p55
F0.028053000000000002
sS'financially secure'
p56
F0.028053000000000002
sS'essential'
p57
F0.011303000000000001
sS'recreational activity'
p58
F0.028053000000000002
sS'status'
p59
F0.0074580000000000002
sS'rocky mountain poison'
p60
F0.028053000000000002
sS"colorado's primary"
p61
F0.028053000000000002
sS'job summary'
p62
F0.011989
sS'committed'
p63
F0.0053629999999999997
sS'surgical disease'
p64
F0.028053000000000002
sS'interpret result'
p65
F0.017852
sS'located'
p66
F0.0091420000000000008
sS'full time'
p67
F0.010375000000000001
sS'design'
p68
F0.0027299999999999998
sS'statistic'
p69
F0.0060419999999999996
sS'licenses'
p70
F0.02214
sS'surgery'
p71
F0.028053000000000002
sS'employment'
p72
F0.0079349999999999993
sS'provided'
p73
F0.012014
sS'sex age national origin religion'
p74
F0.020139000000000001
sS'clinical data'
p75
F0.032638
sS'managing'
p76
F0.0074200000000000004
sS'broad'
p77
F0.030535
sS'away'
p78
F0.020139000000000001
sS'lean'
p79
F0.016136000000000001
sS'525-bed acute care'
p80
F0.028053000000000002
sS'research'
p81
F0.0038960000000000002
sS'looking'
p82
F0.0044749999999999998
sS'health'
p83
F0.0079419999999999994
sS'trauma'
p84
F0.028053000000000002
sS'provides'
p85
F0.0072529999999999999
sS'conduct'
p86
F0.0085819999999999994
sS'net'
p87
F0.015013
sS'leader'
p88
F0.0052100000000000002
sS'foundation'
p89
F0.010754
sS'comparable'
p90
F0.015962
sS'2 year'
p91
F0.0086639999999999998
sS'ability'
p92
F0.0056230000000000004
sS'statistician'
p93
F0.013239000000000001
sS'pose'
p94
F0.023477999999999999
sS'15 school-based health'
p95
F0.028053000000000002
sS'statistical method'
p96
F0.010375000000000001
sS'biostatistician'
p97
F0.023477999999999999
sS'r'
F0.0049589999999999999
sS'sexual orientation gender identity'
p98
F0.012014
sS'generate'
p99
F0.0099509999999999998
sS'care'
p100
F0.0080789999999999994
sS'conducting'
p101
F0.01251
sS'certifications'
p102
F0.017056000000000002
sS'last'
p103
F0.014486000000000001
sS'certificate'
p104
F0.019342999999999999
sS'33'
p105
F0.023477999999999999
sS'many'
p106
F0.0082629999999999995
sS'study'
p107
F0.018114999999999999
sS'compliance'
p108
F0.019581999999999999
sS'funded'
p109
F0.021190000000000001
sS'job'
p110
F0.0039290000000000002
sS'drug'
p111
F0.015346
sS'spss'
p112
F0.025909999999999999
sS'implementation'
p113
F0.0056290000000000003
sS'sas spss'
p114
F0.021631000000000001
sS'improvement qi research'
p115
F0.028053000000000002
sS'denver health'
p116
F0.308583
sS'high-quality'
p117
F0.014276
sS'implement'
p118
F0.0046709999999999998
sS'create'
p119
F0.0088669999999999999
sS'south'
p120
F0.025765
sS'software'
p121
F0.0067359999999999998
sS'major'
p122
F0.0084840000000000002
sS'family'
p123
F0.010375000000000001
sS'facility'
p124
F0.012955
sS'data science'
p125
F0.0039139999999999999
sS'within'
p126
F0.0039620000000000002
sS'community'
p127
F0.0059630000000000004
sS'due'
p128
F0.014652
sS'appropriate'
p129
F0.0068329999999999997
sS'dependent'
p130
F0.015417
sS'table'
p131
F0.025708999999999999
sS'improvement'
p132
F0.0076639999999999998
sS'quality'
p133
F0.011039999999999999
sS'equal'
p134
F0.016414999999999999
sS'ideal candidate'
p135
F0.0081259999999999995
sS'manuscript'
p136
F0.020139000000000001
sS'statistics'
p137
F0.0086090000000000003
sS'prepare'
p138
F0.011221999999999999
sS'basis'
p139
F0.010076999999999999
sS'remains'
p140
F0.022741000000000001
sS'support'
p141
F0.0022590000000000002
sS'participates'
p142
F0.011674
sS'system'
p143
F0.0091009999999999997
sS'ad hoc analysis'
p144
F0.015141999999999999
sS'clinical'
p145
F0.031359999999999999
sS'experience'
p146
F0.0018489999999999999
sS'scope'
p147
F0.0092289999999999994
sS'ranging'
p148
F0.014652
sS'knowledge skills abilities'
p149
F0.017430000000000001
sS'define'
p150
F0.0066819999999999996
sS'race color'
p151
F0.016319
sS'generating'
p152
F0.015141999999999999
sS'diversity'
p153
F0.0075960000000000003
sS'offer'
p154
F0.0053090000000000004
sS'study examining driver'
p155
F0.028053000000000002
sS"center denver's 911 emergency"
p156
F0.028053000000000002
sS'downtown'
p157
F0.019116000000000001
sS'hmo'
p158
F0.028053000000000002
sS'least 2 year'
p159
F0.013939
sS'8'
F0.012888
sS'child'
p160
F0.017852
sS'ten year'
p161
F0.038685999999999998
sS'ha'
p162
F0.012262
sS'end user'
p163
F0.011516
sS'institution'
p164
F0.014540000000000001
sS'present'
p165
F0.0075560000000000002
sS'must'
p166
F0.0046049999999999997
sS'merging large complex'
p167
F0.028053000000000002
sS'level'
p168
F0.0048700000000000002
sS'datasets'
p169
F0.0099109999999999997
sS'join'
p170
F0.0049290000000000002
sS'surgery staff'
p171
F0.028053000000000002
sS'acute care surgery'
p172
F0.028053000000000002
sS'local'
p173
F0.010914999999999999
sS'work'
p174
F0.0022989999999999998
sS'preparation'
p175
F0.013024000000000001
sS'actively'
p176
F0.011365999999999999
sS'crystal reports'
p177
F0.02214
sS'evaluates'
p178
F0.013893000000000001
sS'outcome'
p179
F0.0089440000000000006
sS'applicant'
p180
F0.016674999999999999
sS'provide guidance'
p181
F0.011889
sS'request'
p182
F0.0082789999999999999
sS'year'
p183
F0.0066420000000000003
sS"master's degree"
p184
F0.0073819999999999997
sS'equal opportunity employer'
p185
F0.0061830000000000001
sS'health care'
p186
F0.0096259999999999991
sS'diverse'
p187
F0.0064469999999999996
sS'expertise'
p188
F0.0088819999999999993
sS'statistical analysis'
p189
F0.019526999999999999
sS'sas'
p190
F0.014541999999999999
sS'education'
p191
F0.010788000000000001
sS'operation'
p192
F0.012168
sS'preferably'
p193
F0.0097649999999999994
sS'develop'
p194
F0.0051489999999999999
sS'grant'
p195
F0.019116000000000001
sS'efficient'
p196
F0.0095160000000000002
sS'veteran'
p197
F0.013804
sS'responsible'
p198
F0.0040639999999999999
sS'treatment'
p199
F0.017056000000000002
sS'write'
p200
F0.0094330000000000004
sS'skillset'
p201
F0.019342999999999999
sS'complex'
p202
F0.010459
sS'department'
p203
F0.022789
sS'performance'
p204
F0.004823
sS'across multiple'
p205
F0.010736000000000001
sS'development'
p206
F0.0022139999999999998
sS'protected class'
p207
F0.014432
sS'stored procedure'
p208
F0.019342999999999999
sS'multiple'
p209
F0.0063720000000000001
sS'may'
p210
F0.0064749999999999999
sS'workforce'
p211
F0.012092
sS'includes'
p212
F0.0081419999999999999
sS'individual'
p213
F0.0052490000000000002
sS'plan'
p214
F0.0062760000000000003
sS'additionally'
p215
F0.013632
sS'sql'
p216
F0.0036700000000000001
sS'discriminate'
p217
F0.011963
sS'data'
p218
F0.0016100000000000001
sS'response'
p219
F0.022606999999999999
sS'billion'
p220
F0.0097649999999999994
sS'assisting'
p221
F0.013847999999999999
sS'kept'
p222
F0.018335000000000001
sS'center'
p223
F0.026245000000000001
sS'considered'
p224
F0.0083129999999999992
sS'equal employment opportunity'
p225
F0.011162
sS'medical'
p226
F0.021267000000000001
sS'required'
p227
F0.0063949999999999996
sS'well'
p228
F0.0078009999999999998
sS'equal opportunity employer eoe'
p229
F0.019588000000000001
sS'analysis'
p230
F0.0054089999999999997
sS'doe'
p231
F0.011387
sS'provide'
p232
F0.0067099999999999998
sS'part'
p233
F0.0045139999999999998
sS'principle'
p234
F0.0090469999999999995
sS'healthcare'
p235
F0.0075760000000000003
sS'uninsured'
p236
F0.028053000000000002
sS'position'
p237
F0.0064879999999999998
sS'model'
p238
F0.003287
sS'typically'
p239
F0.013351999999999999
s.