(dp1
S'code'
p2
F0.024861999999999999
sS'team player'
p3
F0.018644000000000001
sS'experience working'
p4
F0.011383000000000001
sS'including'
p5
F0.0051590000000000004
sS'google adwords facebook'
p6
F0.051830000000000001
sS'zero-tolerance'
p7
F0.051830000000000001
sS'developer'
p8
F0.013827000000000001
sS'web'
p9
F0.014813
sS'ads'
p10
F0.043376999999999999
sS'located'
p11
F0.016889999999999999
sS'denver'
p12
F0.037207999999999998
sS'source'
p13
F0.013780000000000001
sS'production'
p14
F0.012116
sS'include'
p15
F0.011391
sS'seeking'
p16
F0.01098
sS'python'
p17
F0.0091070000000000005
sS'test plan'
p18
F0.025923999999999999
sS'amazon'
p19
F0.029336000000000001
sS'background'
p20
F0.011178
sS'performance tuning'
p21
F0.027177
sS'adjusting sql'
p22
F0.051830000000000001
sS'hands-on experience'
p23
F0.019709000000000001
sS'data discrepancy'
p24
F0.051830000000000001
sS'desire'
p25
F0.017257000000000002
sS'reading'
p26
F0.068411
sS'name'
p27
F0.025343000000000001
sS'identifying'
p28
F0.016306000000000001
sS'scripting language'
p29
F0.021156000000000001
sS'manual'
p30
F0.029648999999999998
sS'applicable'
p31
F0.019965
sS'qa'
p32
F0.147591
sS'riting complex'
p33
F0.051830000000000001
sS'full-time position'
p34
F0.030696999999999999
sS'strong analytical'
p35
F0.020695999999999999
sS'agile environment'
p36
F0.024126999999999999
sS'medianews group'
p37
F0.051830000000000001
sS'set'
p38
F0.013010000000000001
sS'eg'
p39
F0.012088
sS'testing'
p40
F0.011646
sS'easily noticed'
p41
F0.051830000000000001
sS'identified'
p42
F0.021874999999999999
sS'culture'
p43
F0.012479000000000001
sS'data engineer'
p44
F0.021919999999999999
sS'validating data'
p45
F0.040904000000000003
sS'review'
p46
F0.013568999999999999
sS'written'
p47
F0.014729000000000001
sS'work alongside'
p48
F0.028483999999999999
sS'print'
p49
F0.037789000000000003
sS'ideal candidate'
p50
F0.015014
sS'issue'
p51
F0.010781000000000001
sS'business'
p52
F0.004189
sS'data scientist'
p53
F0.0040280000000000003
sS'company description'
p54
F0.020098000000000001
sS'news'
p55
F0.025034000000000001
sS'eeo guideline'
p56
F0.025923999999999999
sS'strong'
p57
F0.012370000000000001
sS'bash'
p58
F0.029186
sS'pipeline'
p59
F0.020268000000000001
sS'postgresql'
p60
F0.028098999999999999
sS'inspection'
p61
F0.036678000000000002
sS'experience'
p62
F0.0068329999999999997
sS'prior'
p63
F0.021568
sS'youll'
p64
F0.019740000000000001
sS'advertising'
p65
F0.020199000000000002
sS'w'
F0.029186
sS'large amount'
p66
F0.022291999999999999
sS'test case'
p67
F0.031732999999999997
sS'additional information'
p68
F0.019932999999999999
sS'mix'
p69
F0.026100999999999999
sS'etl'
p70
F0.018360999999999999
sS'purpose'
p71
F0.016851000000000001
sS'redshift'
p72
F0.026471000000000001
sS'fostering'
p73
F0.030890999999999998
sS'collaborating'
p74
F0.019803999999999999
sS'troubleshooting'
p75
F0.041616
sS'problem solving skill'
p76
F0.016582
sS'quality'
p77
F0.010199
sS'engineer'
p78
F0.020760000000000001
sS'git'
p79
F0.025034000000000001
sS'tradedesk google analytics'
p80
F0.051830000000000001
sS'product owner'
p81
F0.023452000000000001
sS'system'
p82
F0.011209999999999999
sS'adtech'
p83
F0.037207999999999998
sS'offer'
p84
F0.009809
sS'job description'
p85
F0.012337000000000001
sS'understand'
p86
F0.0086859999999999993
sS'automated'
p87
F0.035846999999999997
sS'end user'
p88
F0.021277000000000001
sS'analyst'
p89
F0.012403000000000001
sS'must'
p90
F0.0085079999999999999
sS'buggy software'
p91
F0.051830000000000001
sS'developing'
p92
F0.0082480000000000001
sS'checking'
p93
F0.047602999999999999
sS'optimization'
p94
F0.012694
sS'learn'
p95
F0.011612000000000001
sS'following'
p96
F0.011070999999999999
sS'expert knowledge'
p97
F0.023057999999999999
sS'process'
p98
F0.0061710000000000003
sS'defect'
p99
F0.033563000000000003
sS'minimum'
p100
F0.011391
sS'documenting'
p101
F0.025423000000000001
sS'800 multi-platform product'
p102
F0.051830000000000001
sS'mobile tablet'
p103
F0.045130999999999998
sS'information'
p104
F0.0070429999999999998
sS'media'
p105
F0.055240999999999998
sS'data warehouse'
p106
F0.061434000000000002
sS'able'
p107
F0.0094359999999999999
sS'application'
p108
F0.0066540000000000002
sS'methodology'
p109
F0.010708000000000001
sS'build'
p110
F0.005947
sS'linux macos'
p111
F0.051830000000000001
sS'digital'
p112
F0.026776999999999999
sS'test'
p113
F0.035602000000000002
sS'3 year'
p114
F0.028809999999999999
sS'accuracy'
p115
F0.020164999999999999
sS'development'
p116
F0.008182
sS'deep understanding'
p117
F0.018859000000000001
sS'may'
p118
F0.011964000000000001
sS'collaboration'
p119
F0.011998999999999999
sS'reporting'
p120
F0.012547000000000001
sS'qualifications'
p121
F0.0073489999999999996
sS'kept confidential according'
p122
F0.026190999999999999
sS'sql'
p123
F0.0067809999999999997
sS'robust'
p124
F0.021359
sS'data driven'
p125
F0.020884
sS'data'
p126
F0.0059509999999999997
sS'delivery'
p127
F0.024159
sS'database'
p128
F0.026993
sS'resolution'
p129
F0.022010999999999999
sS'drive'
p130
F0.0078309999999999994
sS'third party'
p131
F0.026376
sS'directory'
p132
F0.051830000000000001
sS'first'
p133
F0.028941999999999999
sS'opportunity'
p134
F0.006117
s.