(dp1
S'breadth'
p2
I1
sS'concept'
p3
I1
sS'help'
p4
I1
sS'money'
p5
I1
sS'insight'
p6
I1
sS'focus'
p7
I1
sS'valuable'
p8
I1
sS'tableau'
p9
I1
sS'area'
p10
I1
sS'identify'
p11
I1
sS'solutions'
p12
I1
sS'broader'
p13
I1
sS'skill'
p14
I1
sS'research'
p15
I1
sS'find'
p16
I1
sS'inspire'
p17
I1
sS'discipline'
p18
I1
sS'multi-dimensional'
p19
I1
sS'big data'
p20
I1
sS'technique'
p21
I1
sS'data-fuelled'
p22
I1
sS'source'
p23
I1
sS'adoption'
p24
I1
sS'matlab'
p25
I1
sS'microstrategy'
p26
I1
sS'fraud detection'
p27
I1
sS'interprets'
p28
I1
sS'achieve'
p29
I1
sS'data mining machine learning'
p30
I1
sS'applied'
p31
I1
sS'good'
p32
I1
sS'python'
p33
I1
sS'familiar'
p34
I1
sS'practice'
p35
I1
sS'datasets'
p36
I1
sS'relational'
p37
I1
sS'using'
p38
I1
sS'outcomes'
p39
I1
sS'procedures'
p40
I1
sS'areas'
p41
I1
sS'entire'
p42
I1
sS'level'
p43
I1
sS'skills'
p44
I1
sS'solution'
p45
I1
sS'large'
p46
I1
sS'this'
p47
I1
sS'world-class'
p48
I1
sS'team'
p49
I1
sS'evangelize'
p50
I1
sS'become'
p51
I1
sS'data analytics'
p52
I1
sS'mathematical'
p53
I1
sS'financial'
p54
I1
sS'statistical'
p55
I1
sS'trend'
p56
I1
sS'product'
p57
I1
sS'related'
p58
I1
sS'design'
p59
I1
sS'result'
p60
I1
sS'year'
p61
I1
sS'operation'
p62
I1
sS'comfort'
p63
I1
sV(2, 5]
p64
I1
sS'optimization algorithms'
p65
I1
sS'ultimately'
p66
I1
sS'degree'
p67
I1
sS'lead'
p68
I1
sS"master's"
p69
I1
sS'pattern'
p70
I1
sS'leveraged'
p71
I1
sVapplied statistic
p72
I1
sS'creative'
p73
I1
sS'big data analytics'
p74
I1
sS'optimization'
p75
I1
sS'new'
p76
I1
sS'approach'
p77
I1
sS'across'
p78
I1
sS'core'
p79
I1
sS'data analysis'
p80
I1
sS'ability'
p81
I1
sS'business'
p82
I1
sS'database'
p83
I1
sS'targeted'
p84
I1
sS'leveraging'
p85
I1
sS'bi'
p86
I1
sS'deliverables'
p87
I1
sS'delivering'
p88
I1
sS'job'
p89
I1
sS'key'
p90
I1
sS'enhance'
p91
I1
sS'modeling'
p92
I1
sS'understanding'
p93
I1
sS'problem'
p94
I1
sS'improve'
p95
I1
sS'working'
p96
I1
sS'compliance'
p97
I1
sS'iterative'
p98
I1
sS'experience'
p99
I1
sS'spss'
p100
I1
sS'3+'
p101
I1
sS'accomplished'
p102
I1
sS'massive'
p103
I1
sS'leading'
p104
I1
sS'implement'
p105
I1
sS'support'
p106
I1
sS'research design'
p107
I1
sS'via'
p108
I1
sS'cutting-edge'
p109
I1
sS'classification'
p110
I1
sS'simple'
p111
I1
sS'data science'
p112
I1
sS'within'
p113
I1
sS'dataset'
p114
I1
sS'initiative'
p115
I1
sS'cross-functional'
p116
I1
sS'data mining'
p117
I1
sS'tools'
p118
I1
sS'synthesizing'
p119
I1
sS'clustering'
p120
I1
sS'environment'
p121
I1
sS'use'
p122
I1
sS'strong'
p123
I1
sS"field's"
p124
I1
sS'prepare'
p125
I1
sS'analytic'
p126
I1
sS'transfer'
p127
I1
sS'objectives'
p128
I1
sS'structured'
p129
I1
sS'quantitative'
p130
I1
sVBachelor
p131
I1
sS'mitigation'
p132
I1
sS'advanced analytics'
p133
I1
sS'utilizing'
p134
I1
sS'analyze'
p135
I1
sS'ranging'
p136
I1
sS'tool'
p137
I1
sS'part'
p138
I1
sS'hadoop-based'
p139
I1
sS'customer'
p140
I1
sS'fraud'
p141
I1
sS'algorithm'
p142
I1
sS'high-impact'
p143
I1
sS'work'
p144
I1
sS'machine learning'
p145
I1
sS'project'
p146
I1
sS'r'
I1
sVMaster
p147
I1
sS"company's"
p148
I1
sS'recommendation'
p149
I1
sS'familiarity'
p150
I1
sS'deep'
p151
I1
sS'problem solving'
p152
I1
sS'diverse'
p153
I1
sS'expertise'
p154
I1
sS'statistical analysis'
p155
I1
sS'sas'
p156
I1
sS'develop'
p157
I1
sS'variety'
p158
I1
sS'provide'
p159
I1
sS'transactional'
p160
I1
sS'responsible'
p161
I1
sS'predictive modeling'
p162
I1
sS'member'
p163
I1
sS'field'
p164
I1
sS'responsibilities'
p165
I1
sS'complex'
p166
I1
sS'role'
p167
I1
sS'build'
p168
I1
sS'machine-learning'
p169
I1
sS'performance'
p170
I1
sS'unstructured data'
p171
I1
sS'development'
p172
I1
sS"bachelor's"
p173
I1
sS'advocate'
p174
I1
sS'multiple'
p175
I1
sS'frameworks.'
p176
I1
sS'mitigation.'
p177
I1
sS'analytics data science'
p178
I1
sS'produce'
p179
I1
sS'purpose'
p180
I1
sS'sql'
p181
I1
sS'requirements'
p182
I1
sS'validate'
p183
I1
sS'model'
p184
I1
sS'cycle'
p185
I1
sS'independently'
p186
I1
sS'organization'
p187
I1
sS'expert'
p188
I1
sS'analyzing'
p189
I1
sS'java'
p190
I1
sS'prioritize'
p191
I1
sS'analysis'
p192
I1
sS'actionable'
p193
I1
sS'person'
p194
I1
sS'agenda'
p195
I1
sS'c/c++'
p196
I1
sS'position'
p197
I1
sS'the'
p198
I1
sS'data aggregation'
p199
I1
s.