(dp1
S'limited'
p2
F0.0071260000000000004
sS'relational database querying'
p3
F0.013344
sS'concept'
p4
F0.0030599999999999998
sS'particular'
p5
F0.00613
sS'discount program'
p6
F0.012256
sS'existing'
p7
F0.0032729999999999999
sS'query'
p8
F0.004411
sS'educate others'
p9
F0.0068399999999999997
sS'charge'
p10
F0.0081130000000000004
sS'program'
p11
F0.0073699999999999998
sS'director attn appeals processing 1525 sherman street 4th floor'
p12
F0.013344
sS'include'
p13
F0.0029329999999999998
sS'division'
p14
F0.0047800000000000004
sS'unfamiliar'
p15
F0.012256
sS'relevant experience'
p16
F0.0046639999999999997
sS'also centrally located'
p17
F0.013344
sS'condition'
p18
F0.0060990000000000003
sS'level'
p19
F0.002317
sS'refer'
p20
F0.007953
sS'section'
p21
F0.034886
sS'produce valid'
p22
F0.013344
sS'access'
p23
F0.0065719999999999997
sS'staff'
p24
F0.011280999999999999
sS'public'
p25
F0.0048840000000000003
sS'experience difficulty'
p26
F0.013344
sS'component'
p27
F0.0044759999999999999
sS'understanding'
p28
F0.0020170000000000001
sS'plan acuity data'
p29
F0.013344
sS'via email'
p30
F0.0082909999999999998
sS'operating'
p31
F0.0048339999999999998
sS'address'
p32
F0.003771
sS'consideration'
p33
F0.0062969999999999996
sS'tobacco free'
p34
F0.011619000000000001
sS'position summarizes'
p35
F0.013344
sS'technical'
p36
F0.001493
sS'minimum qualifications substitutions conditions'
p37
F0.013344
sS'employees'
p38
F0.017982999999999999
sS'experience'
p39
F0.001173
sS'credit'
p40
F0.0060679999999999996
sS'amount'
p41
F0.0065449999999999996
sS"personnel director's administrative procedures 4 ccr 801"
p42
F0.013344
sS'action'
p43
F0.012925000000000001
sS'colorado residency'
p44
F0.013344
sS'external customer'
p45
F0.0062449999999999997
sS'ground'
p46
F0.0047010000000000003
sS'must disclose'
p47
F0.013344
sS'highly'
p48
F0.003588
sS'accredited college'
p49
F0.014343
sS'apply'
p50
F0.0044089999999999997
sS'unit'
p51
F0.0061460000000000004
sS'affordable eco pass ha'
p52
F0.013344
sS'use'
p53
F0.0016980000000000001
sS'substitutions'
p54
F0.013344
sS'may protest'
p55
F0.013344
sS'6'
F0.018204000000000001
sS'8'
F0.00613
sS'hour'
p56
F0.0062620000000000002
sS'challenge'
p57
F0.0029580000000000001
sS'work'
p58
F0.00164
sS'following'
p59
F0.0028500000000000001
sS'meet'
p60
F0.002977
sS'specialized'
p61
F0.0063879999999999996
sS'claim'
p62
F0.013833
sS'challenging'
p63
F0.0043639999999999998
sS'process'
p64
F0.011122
sS'selection process'
p65
F0.019458
sS'minimum'
p66
F0.0029329999999999998
sS'information'
p67
F0.010879
sS'six'
p68
F0.0073000000000000001
sS'tableau'
p69
F0.0040150000000000003
sS'answer'
p70
F0.0043790000000000001
sS'product'
p71
F0.0011850000000000001
sS'paramount'
p72
F0.011168000000000001
sS'description'
p73
F0.003248
sS'may'
p74
F0.015401
sS'advice'
p75
F0.0069969999999999997
sS'applications'
p76
F0.0066299999999999996
sS'date'
p77
F0.0060530000000000002
sS'meaningful'
p78
F0.0045909999999999996
sS'work closely'
p79
F0.0031830000000000001
sS'developmental disabilities'
p80
F0.013344
sS'perform'
p81
F0.002794
sS'background check'
p82
F0.0073330000000000001
sS'order'
p83
F0.0034580000000000001
sS'mmis medicaid management'
p84
F0.013344
sS'extract data'
p85
F0.0080579999999999992
sS'office'
p86
F0.0091190000000000004
sS'difference-join hcpf'
p87
F0.013344
sS'developed'
p88
F0.0054879999999999998
sS'high-profile stakeholder'
p89
F0.013344
sS'utilize'
p90
F0.0044809999999999997
sS'including'
p91
F0.0066410000000000002
sS'statistical'
p92
F0.0047990000000000003
sS'fitness center'
p93
F0.010289
sS'medicaid data'
p94
F0.013344
sS'negotiated'
p95
F0.011619000000000001
sS'position'
p96
F0.027774
sS'group'
p97
F0.005574
sS'please note'
p98
F0.0065659999999999998
sS'expert level'
p99
F0.0066080000000000002
sS'writing'
p100
F0.003836
sS'occupational field'
p101
F0.013344
sS'disciplinary termination'
p102
F0.013344
sS'policy'
p103
F0.012337000000000001
sS'criminal'
p104
F0.0088059999999999996
sS'disciplinarily terminated resigned'
p105
F0.013344
sS'preferred qualification'
p106
F0.016115000000000001
sS'hcpf'
p107
F0.013344
sS'combination'
p108
F0.0043489999999999996
sS'interview'
p109
F0.0060829999999999999
sS'comprised'
p110
F0.004235
sS'day'
p111
F0.013395000000000001
sS'applicants'
p112
F0.013885
sS'masters'
p113
F0.0043949999999999996
sS'document'
p114
F0.003764
sS'877-204-4442 anytime'
p115
F0.013344
sS'notified'
p116
F0.010817
sS'university'
p117
F0.010366
sS'writes complex'
p118
F0.012256
sS'status'
p119
F0.0035479999999999999
sS'financial'
p120
F0.0030200000000000001
sS'chief nursing officer'
p121
F0.013344
sS'receipt'
p122
F0.023238000000000002
sS"agency's discretion"
p123
F0.013344
sS'measurement'
p124
F0.0048840000000000003
sS'operation'
p125
F0.0028939999999999999
sS'project manager'
p126
F0.0059230000000000003
sS'research'
p127
F0.0074130000000000003
sS'health'
p128
F0.0037780000000000001
sS'complex data'
p129
F0.0059090000000000002
sS'evaluation'
p130
F0.0089409999999999993
sS'appeal must'
p131
F0.013344
sS'theory'
p132
F0.0054469999999999996
sS'resume'
p133
F0.013648
sS'wwwcoloradogov spb'
p134
F0.026688
sS'standard'
p135
F0.0028800000000000002
sS'appeal procedure'
p136
F0.013344
sS'care'
p137
F0.0076860000000000001
sS'director'
p138
F0.0095200000000000007
sS'benefits'
p139
F0.0046020000000000002
sS'quantitative field'
p140
F0.0044159999999999998
sS'determining'
p141
F0.0075139999999999998
sS'year-for-year basis'
p142
F0.013344
sS'sas spss'
p143
F0.010289
sS'paid sick'
p144
F0.013344
sS'coding'
p145
F0.0045849999999999997
sS'one'
p146
F0.0018129999999999999
sS'improving'
p147
F0.0044380000000000001
sS'utilized'
p148
F0.0092010000000000008
sS'experience designing'
p149
F0.0064450000000000002
sS'demonstrating stewardship'
p150
F0.013344
sS'quality'
p151
F0.0078770000000000003
sS'information visit http wwwcoloradogov hcpf'
p152
F0.013344
sS'size'
p153
F0.0056550000000000003
sS'management'
p154
F0.0017750000000000001
sS'service'
p155
F0.0050289999999999996
sS'utilization'
p156
F0.0068149999999999999
sS'executive-level'
p157
F0.010078999999999999
sS'top'
p158
F0.0075139999999999998
sS'system'
p159
F0.0043290000000000004
sS'least'
p160
F0.0055640000000000004
sS'attach'
p161
F0.010078999999999999
sS'influencing'
p162
F0.0066080000000000002
sS'on-site'
p163
F0.0083549999999999996
sS'final'
p164
F0.007633
sS'call neogov technical'
p165
F0.013344
sS'tool'
p166
F0.0011329999999999999
sS'serve'
p167
F0.0038319999999999999
sS'rejected'
p168
F0.013344
sS'many different'
p169
F0.0084910000000000003
sS'eliminated'
p170
F0.013344
sS'00 am-6 00 pm pacific time'
p171
F0.013344
sS'completes'
p172
F0.010289
sS'benefit package'
p173
F0.006038
sS'10'
p174
F0.013395000000000001
sS'kind'
p175
F0.0076750000000000004
sS'two year'
p176
F0.010793000000000001
sS'require'
p177
F0.00413
sS'system mmis data extraction'
p178
F0.013344
sS'submitted'
p179
F0.0084910000000000003
sS'project'
p180
F0.0038140000000000001
sS'outcome'
p181
F0.0042550000000000001
sS'experience incorporating'
p182
F0.013344
sS'write complex'
p183
F0.0081700000000000002
sS'business intelligence'
p184
F0.0079559999999999995
sS"colorado's work-life"
p185
F0.013344
sS'need'
p186
F0.001689
sS'clearly'
p187
F0.0051070000000000004
sS'consist primarily'
p188
F0.013344
sS'depending'
p189
F0.0070819999999999998
sS'agency'
p190
F0.0047400000000000003
sS'multiple resource'
p191
F0.0098949999999999993
sS'internal'
p192
F0.005032
sS'finding'
p193
F0.0034380000000000001
sS'doctoral degree'
p194
F0.0088959999999999994
sS'encouraged'
p195
F0.0049500000000000004
sS'completed'
p196
F0.0067669999999999996
sS'closing date'
p197
F0.010078999999999999
sS'retirement account pera 401k 457 health dental insurance option'
p198
F0.013344
sS'position requires'
p199
F0.0054469999999999996
sS'interpersonal skill'
p200
F0.005855
sS'quantitative'
p201
F0.005829
sS'medicaid program'
p202
F0.021635000000000001
sS'acquired'
p203
F0.010817
sS'ccms community'
p204
F0.013344
sS'health insurance industry'
p205
F0.013344
sS'considered'
p206
F0.003954
sS"personnel director's administrative procedures"
p207
F0.013344
sS'gather'
p208
F0.0055640000000000004
sS'ten-day deadline'
p209
F0.013344
sS'principle'
p210
F0.0043030000000000004
sS'professional'
p211
F0.0055290000000000001
sS'filing'
p212
F0.011168000000000001
sS'selection'
p213
F0.005868
sS'relation'
p214
F0.0080040000000000007
sS'data'
p215
F0.00076599999999999997
sS'feedback'
p216
F0.0054260000000000003
sS'knowledge'
p217
F0.0057720000000000002
sS'guidance'
p218
F0.0046699999999999997
sS'experience working'
p219
F0.002931
sS'working knowledge'
p220
F0.0039699999999999996
sS'employee'
p221
F0.0084399999999999996
sS'relational database'
p222
F0.0039379999999999997
sS'comparative analysis'
p223
F0.049022999999999997
sS'regularly'
p224
F0.0061460000000000004
sS'also work'
p225
F0.0062119999999999996
sS'applications left blank'
p226
F0.013344
sS'familiar'
p227
F0.005058
sS'financing'
p228
F0.0085640000000000004
sS'initial screening'
p229
F0.010817
sS'tailor'
p230
F0.010531
sS'report'
p231
F0.0021870000000000001
sS'regarding'
p232
F0.0054679999999999998
sS'appeal'
p233
F0.036767000000000001
sS'resource'
p234
F0.0033660000000000001
sS'communicates'
p235
F0.0064260000000000003
sS'flex time'
p236
F0.013344
sS'method'
p237
F0.002196
sS'supplemental information'
p238
F0.011168000000000001
sS'analytical'
p239
F0.0085540000000000008
sS'cognos'
p240
F0.017443
sS'requirement'
p241
F0.001983
sS'encourages'
p242
F0.007718
sS'work experience'
p243
F0.0081810000000000008
sS'analytics'
p244
F0.0028800000000000002
sS'result'
p245
F0.0040559999999999997
sS'manipulate data'
p246
F0.0082909999999999998
sS'medicaid management'
p247
F0.013344
sS'subject'
p248
F0.004555
sS"master's"
p249
F0.00613
sS'review'
p250
F0.0034940000000000001
sS'appeal process'
p251
F0.013344
sS'state'
p252
F0.060593000000000001
sS'conditions'
p253
F0.00958
sS'available'
p254
F0.011323
sS'notice'
p255
F0.018886
sS'ability'
p256
F0.000892
sS'statistic data science'
p257
F0.009443
sS"bachelor's degree"
p258
F0.0084460000000000004
sS'stakeholder'
p259
F0.0032330000000000002
sS'job'
p260
F0.005607
sS'individual undergo'
p261
F0.013344
sS'received'
p262
F0.0080040000000000007
sS'three year'
p263
F0.012456999999999999
sS'invited'
p264
F0.024511000000000002
sS'annual'
p265
F0.0058409999999999998
sS'contract'
p266
F0.0052180000000000004
sS'sensitive'
p267
F0.0093170000000000006
sS'workplace'
p268
F0.0032550000000000001
sS'data science'
p269
F0.0018619999999999999
sS'others'
p270
F0.0031879999999999999
sS'please read carefully'
p271
F0.013344
sS'improvement'
p272
F0.0036459999999999999
sS'described'
p273
F0.0088959999999999994
sS'discrimination'
p274
F0.0078549999999999991
sS'creativity'
p275
F0.0047869999999999996
sS'vacation'
p276
F0.0073680000000000004
sS'resourcefulness'
p277
F0.00958
sS'applicant pool'
p278
F0.026688
sS'describe'
p279
F0.0074390000000000003
sS'online application'
p280
F0.007267
sS'external'
p281
F0.0036329999999999999
sS'data analysts'
p282
F0.01634
sS'applied'
p283
F0.0077609999999999997
sS'developing'
p284
F0.002124
sS'dashboard'
p285
F0.0045149999999999999
sS'situation'
p286
F0.0061789999999999996
sS'procedure'
p287
F0.0077380000000000001
sS'attaching document'
p288
F0.013344
sS'sas'
p289
F0.0034580000000000001
sS'statistical analysis'
p290
F0.0092879999999999994
sS'partner'
p291
F0.0024889999999999999
sS'position exists'
p292
F0.013344
sS'chapters 4'
p293
F0.013344
sS'make'
p294
F0.0019889999999999999
sS'standard appeal form'
p295
F0.013344
sS'complex'
p296
F0.0049750000000000003
sS'potentially'
p297
F0.0080040000000000007
sS'several'
p298
F0.0051830000000000001
sS'development'
p299
F0.0010529999999999999
sS'used'
p300
F0.003297
sS'experience respectively'
p301
F0.013344
sS'reporting'
p302
F0.009691
sS'negotiate'
p303
F0.0080579999999999992
sS'employment appeal rights'
p304
F0.013344
sS'documents'
p305
F0.0092010000000000008
sS'medicaid'
p306
F0.013344
sS'denver co 80203 fax 303-866-5038 phone 303-866-3300'
p307
F0.013344
sS'judgment'
p308
F0.0067910000000000002
sS'database'
p309
F0.0069499999999999996
sS'coursework'
p310
F0.0067429999999999999
sS'uploading'
p311
F0.011619000000000001
sS'analysis'
p312
F0.003859
sS'client'
p313
F0.0060179999999999999
sS'termination'
p314
F0.0087220000000000006
sS'model'
p315
F0.003127
sS'competitive'
p316
F0.0048910000000000004
sS'reviewed'
p317
F0.033686000000000001
sS'assigned'
p318
F0.0044980000000000003
sS'identify'
p319
F0.0043249999999999999
sS'official appeal form signed'
p320
F0.013344
sS'announcement'
p321
F0.011168000000000001
sS'candidate'
p322
F0.0058700000000000002
sS'application'
p323
F0.013705
sS'help'
p324
F0.0015579999999999999
sS'pharmacy'
p325
F0.0084910000000000003
sS'combine'
p326
F0.0056429999999999996
sS'board'
p327
F0.022658999999999999
sS'negotiating'
p328
F0.011168000000000001
sS'around'
p329
F0.0031740000000000002
sS'format'
p330
F0.0051229999999999999
sS'minimum qualifications'
p331
F0.0059230000000000003
sS'waiver data'
p332
F0.013344
sS'collaboratively'
p333
F0.0068900000000000003
sS'performance'
p334
F0.002294
sS'unique'
p335
F0.004078
sS'advanced'
p336
F0.0073559999999999997
sS'specific'
p337
F0.0034099999999999998
sS'security'
p338
F0.0035599999999999998
sS'appeal rights'
p339
F0.013344
sS'contractor auditor federal'
p340
F0.013344
sS'people'
p341
F0.0020309999999999998
sS'work independently'
p342
F0.0043639999999999998
sS'statistic'
p343
F0.0057479999999999996
sS'employment'
p344
F0.011323
sS'provided'
p345
F0.0057149999999999996
sS'demonstrates'
p346
F0.0059090000000000002
sS'provides'
p347
F0.0034499999999999999
sS'provider'
p348
F0.0048339999999999998
sS'time flex place'
p349
F0.013344
sS'programming language'
p350
F0.0034099999999999998
sS'data analysis'
p351
F0.0030379999999999999
sS'business'
p352
F0.001078
sS'selecting'
p353
F0.0084910000000000003
sS'tuition'
p354
F0.012256
sS'discount'
p355
F0.010289
sS'substituted'
p356
F0.016226000000000001
sS'minimum qualification'
p357
F0.015266999999999999
sS'stage'
p358
F0.006195
sS'comparison'
p359
F0.0098949999999999993
sS'graduation'
p360
F0.0089910000000000007
sS'spss'
p361
F0.0061619999999999999
sS'software'
p362
F0.0048060000000000004
sS'mathematics economics'
p363
F0.010289
sS'colorado'
p364
F0.034257999999999997
sS'within'
p365
F0.0075389999999999997
sS'intellectual'
p366
F0.0090930000000000004
sS'primarily'
p367
F0.0060530000000000002
sS'lieu'
p368
F0.00613
sS'guideline'
p369
F0.0060530000000000002
sS'additional'
p370
F0.0042640000000000004
sS'area'
p371
F0.0021320000000000002
sS'support'
p372
F0.0021489999999999999
sS'question'
p373
F0.0035079999999999998
sS'doctorate degree'
p374
F0.0087220000000000006
sS'submit'
p375
F0.013885
sS'clinical'
p376
F0.014917
sS'sensitive position'
p377
F0.010817
sS'therefore'
p378
F0.0074029999999999999
sS'complete'
p379
F0.0047080000000000004
sS'offer'
p380
F0.0050509999999999999
sS'bus'
p381
F0.011619000000000001
sS'failure'
p382
F0.0070530000000000002
sS'10 holiday accrual'
p383
F0.013344
sS'properly'
p384
F0.0088059999999999996
sS'understandable'
p385
F0.0081130000000000004
sS'elimination'
p386
F0.012256
sS'ha'
p387
F0.0029160000000000002
sS'provide actionable'
p388
F0.0086409999999999994
sS'also'
p389
F0.0078009999999999998
sS'cover letter'
p390
F0.012666
sS'wish'
p391
F0.0097289999999999998
sS'us'
p392
F0.0052960000000000004
sS'record'
p393
F0.0048279999999999998
sS'later'
p394
F0.00958
sS'offer reduced college'
p395
F0.013344
sS'measure'
p396
F0.0085380000000000005
sS'general'
p397
F0.0044869999999999997
sS'equal opportunity employer'
p398
F0.002941
sS'health care'
p399
F0.013736
sS'expertise'
p400
F0.0021129999999999999
sS'file'
p401
F0.0062969999999999996
sS'plan'
p402
F0.0029849999999999998
sS'education'
p403
F0.0051310000000000001
sS'variety'
p404
F0.0031099999999999999
sS'personnel'
p405
F0.044962000000000002
sS'excel'
p406
F0.0043489999999999996
sS'field'
p407
F0.0031080000000000001
sS'csu global'
p408
F0.013344
sS'department'
p409
F0.036132999999999998
sS'receive notice'
p410
F0.026688
sS'toad'
p411
F0.022335000000000001
sS'includes'
p412
F0.0038730000000000001
sS'sql'
p413
F0.0017459999999999999
sS'independently'
p414
F0.004411
sS'required'
p415
F0.0045630000000000002
sS'microsoft'
p416
F0.0060990000000000003
sS'marked see'
p417
F0.013344
sS'board rules'
p418
F0.026688
sS'take advantage'
p419
F0.007234
sS'representative'
p420
F0.0068649999999999996
s.