(dp1
S'shop'
p2
F0.019986
sS'serving'
p3
F0.015626000000000001
sS'related field'
p4
F0.0068799999999999998
sS'help'
p5
F0.0082039999999999995
sS'office'
p6
F0.0080009999999999994
sS'pervasive component'
p7
F0.030584
sS'concept'
p8
F0.0080540000000000004
sS'including'
p9
F0.003496
sS'innovative'
p10
F0.0070569999999999999
sS'high-level'
p11
F0.019394000000000002
sS'data science toolkit like'
p12
F0.030584
sS'extracting data'
p13
F0.025609
sS'position'
p14
F0.0040619999999999996
sS'software engineers'
p15
F0.021069999999999998
sS'source'
p16
F0.0093380000000000008
sS'shopping experience'
p17
F0.024856
sS'continuously striving'
p18
F0.030584
sS'easy'
p19
F0.01559
sS'equity'
p20
F0.017174999999999999
sS'employee'
p21
F0.0074050000000000001
sS'include'
p22
F0.0077200000000000003
sS"we're looking"
p23
F0.014153000000000001
sS'communicate complex data science'
p24
F0.030584
sS'data-driven'
p25
F0.023192999999999998
sS'desire'
p26
F0.011695000000000001
sS'collaborate'
p27
F0.0070390000000000001
sS'seeking'
p28
F0.0074409999999999997
sS'python'
p29
F0.0061720000000000004
sS'big'
p30
F0.011990000000000001
sS'possible'
p31
F0.012083
sS'unstructured'
p32
F0.013188999999999999
sS'framework'
p33
F0.0081560000000000001
sS'race color religion sex national origin age disability'
p34
F0.024525000000000002
sS'shown'
p35
F0.030584
sS'using'
p36
F0.0045880000000000001
sS'unique'
p37
F0.010732999999999999
sS'product enhancement'
p38
F0.018641000000000001
sS'large scale'
p39
F0.013169
sS'solution'
p40
F0.0088149999999999999
sS'leader'
p41
F0.0065230000000000002
sS'capability'
p42
F0.0071939999999999999
sS'competitive pay'
p43
F0.021822999999999999
sS'team'
p44
F0.0015790000000000001
sS'analytical'
p45
F0.0056290000000000003
sS'business objective'
p46
F0.028202000000000001
sS'passionate'
p47
F0.0084309999999999993
sS'21 million downloads'
p48
F0.030584
sS'currently authorized'
p49
F0.018204999999999999
sS'2+ year'
p50
F0.024104
sS'maximize'
p51
F0.01431
sS'additional details'
p52
F0.027720000000000002
sS'equal employment opportunity eeo'
p53
F0.02121
sS'integral role'
p54
F0.021822999999999999
sS'testing'
p55
F0.0078919999999999997
sS'play'
p56
F0.011098999999999999
sS'analytics'
p57
F0.00379
sS'design'
p58
F0.003418
sS'result'
p59
F0.0053379999999999999
sS'recommendation'
p60
F0.0082789999999999999
sS'comfort'
p61
F0.016766
sS"users' pocket"
p62
F0.030584
sS'project'
p63
F0.003346
sS'since launching'
p64
F0.030584
sS'scale'
p65
F0.0092980000000000007
sS'genetics'
p66
F0.019127999999999999
sS'lead'
p67
F0.0099889999999999996
sS'employment without regard'
p68
F0.008489
sS'leveraged'
p69
F0.020552000000000001
sS'unmatched access'
p70
F0.030584
sS'content'
p71
F0.0099439999999999997
sS'optimization'
p72
F0.0086029999999999995
sS'various'
p73
F0.014283000000000001
sS'provides'
p74
F0.0090810000000000005
sS'routine'
p75
F0.020316000000000001
sS'new'
p76
F0.0038920000000000001
sS'think critically leverage'
p77
F0.030584
sS'approach'
p78
F0.0067879999999999998
sS'integrated'
p79
F0.012599000000000001
sS'math'
p80
F0.012874
sS'core'
p81
F0.0086029999999999995
sS'ability'
p82
F0.0023470000000000001
sS'experience using'
p83
F0.011753
sS'real-time user-specific pricing'
p84
F0.030584
sS'deliver'
p85
F0.011271
sS'loyal millennial audience'
p86
F0.030584
sS'standard'
p87
F0.0075810000000000001
sS'key'
p88
F0.0066220000000000003
sS'product managers'
p89
F0.017812000000000001
sS'put'
p90
F0.014734000000000001
sS'modeling'
p91
F0.0069750000000000003
sS'spark'
p92
F0.010106
sS'distributed big-data tool like'
p93
F0.030584
sS'improve'
p94
F0.006221
sS'earn cash back'
p95
F0.030584
sS'tangible'
p96
F0.024525000000000002
sS'smarter'
p97
F0.020676
sS'cross functional team'
p98
F0.018003999999999999
sS'product feature'
p99
F0.018565000000000002
sS"user's propensity"
p100
F0.030584
sS'basis'
p101
F0.012617
sS'ibotta provides'
p102
F0.030584
sS'tool like'
p103
F0.017451999999999999
sS'etc'
p104
F0.0059500000000000004
sS'like grocery electronics clothing gift home'
p105
F0.030584
sS'ensure'
p106
F0.013859
sS'action'
p107
F0.011339999999999999
sS'experience working'
p108
F0.0077140000000000004
sS'professional experience'
p109
F0.014101000000000001
sS"app's"
p110
F0.030584
sS'relevant'
p111
F0.0075129999999999997
sS'shopper'
p112
F0.026044999999999999
sS'supply'
p113
F0.019678999999999999
sS'data analyst'
p114
F0.013782000000000001
sS'data science'
p115
F0.0147
sS'within'
p116
F0.0049610000000000001
sS'something bigger ibotta'
p117
F0.030584
sS'one'
p118
F0.0047730000000000003
sS'united states'
p119
F0.011313999999999999
sS'initiative'
p120
F0.015637999999999999
sS'platform'
p121
F0.011357000000000001
sS'determine'
p122
F0.012194
sS'manage'
p123
F0.0069430000000000004
sS'throughout'
p124
F0.010848
sS'establish'
p125
F0.011681
sS'statistics'
p126
F0.010779
sS'leverage'
p127
F0.0093139999999999994
sS'analytic'
p128
F0.0074159999999999998
sS'tired'
p129
F0.030584
sS'apps'
p130
F0.016914999999999999
sS'system'
p131
F0.0037980000000000002
sS'quickly'
p132
F0.011237
sS"we're"
p133
F0.025023
sS'advanced analytics'
p134
F0.0096819999999999996
sS'benefit package including medical dental vision'
p135
F0.027720000000000002
sS'translate'
p136
F0.010546
sS'empowers user'
p137
F0.028473999999999999
sS'efficacy'
p138
F0.022745000000000001
sS'brand'
p139
F0.010264000000000001
sS'full-time'
p140
F0.01362
sS'robust granular customer'
p141
F0.030584
sS'oop'
p142
F0.028473999999999999
sS'world-class data scientist'
p143
F0.028473999999999999
sS'ha'
p144
F0.0076769999999999998
sS'analyst'
p145
F0.0084049999999999993
sS'algorithm'
p146
F0.01027
sS'denver co'
p147
F0.027082999999999999
sS'cloud-based infrastructure'
p148
F0.027082999999999999
sS'structured'
p149
F0.0099349999999999994
sS'spark ml'
p150
F0.026530999999999999
sS'presto'
p151
F0.029395999999999999
sS'us'
p152
F0.013939999999999999
sS'machine learning'
p153
F0.0044790000000000003
sS'data set'
p154
F0.013292999999999999
sS'technical'
p155
F0.0039290000000000002
sS'r'
F0.0062090000000000001
sS'ms'
p156
F0.0095359999999999993
sS'learn'
p157
F0.0078689999999999993
sS'making'
p158
F0.010449999999999999
sS'headquartered'
p159
F0.013313999999999999
sS'example'
p160
F0.012932000000000001
sS'interactive'
p161
F0.017283
sS'denver ibotta'
p162
F0.030584
sS'spark hive'
p163
F0.023667000000000001
sS'401k commuter stipend'
p164
F0.030584
sS'data structure'
p165
F0.013313999999999999
sS'partnership'
p166
F0.013735000000000001
sS'engaged'
p167
F0.017451999999999999
sS'150 million'
p168
F0.026044999999999999
sS'engineering'
p169
F0.0055799999999999999
sS'manner'
p170
F0.013575
sS'want'
p171
F0.0080420000000000005
sS'2012 ibotta ha'
p172
F0.030584
sS'take'
p173
F0.0085220000000000001
sS'work'
p174
F0.001439
sS'technology'
p175
F0.0029989999999999999
sS'everyday'
p176
F0.020433
sS'develop'
p177
F0.0032230000000000002
sS'enhancing'
p178
F0.017812000000000001
sS'user experience'
p179
F0.012581999999999999
sS'strong knowledge'
p180
F0.012635
sS'responsible'
p181
F0.0050889999999999998
sS'information please visit wwwibottacom career'
p182
F0.030584
sS'data engineers'
p183
F0.020676
sS'located'
p184
F0.011446
sS'build'
p185
F0.0040299999999999997
sS'potential'
p186
F0.0099909999999999999
sS'associate data scientist'
p187
F0.046360999999999999
sS'computer science'
p188
F0.012860999999999999
sS'world class'
p189
F0.016815
sS'effectiveness'
p190
F0.012178
sS'product'
p191
F0.0031199999999999999
sS'used'
p192
F0.0086770000000000007
sS'transforming'
p193
F0.015239000000000001
sS'aws'
p194
F0.011339999999999999
sS'multivariate testing'
p195
F0.020552000000000001
sS'includes'
p196
F0.010194
sS'empirically evaluates'
p197
F0.030584
sS'comfort working'
p198
F0.022957000000000002
sS'look-alike modeling'
p199
F0.030584
sS'user'
p200
F0.0077689999999999999
sS'sql'
p201
F0.0045950000000000001
sS'frequently'
p202
F0.019394000000000002
sS'future'
p203
F0.006293
sS'ideally'
p204
F0.015206000000000001
sS'building'
p205
F0.0053839999999999999
sS'purchase'
p206
F0.018641000000000001
sS'effective'
p207
F0.0091570000000000002
sS'domain expertise'
p208
F0.017451999999999999
sS'sr'
p209
F0.017283
sS'clear'
p210
F0.011367
sS'applicant'
p211
F0.010439
sS'analysis'
p212
F0.0033860000000000001
sS'applicants must'
p213
F0.017628000000000001
sS'business stakeholder'
p214
F0.015173000000000001
sS"you'll"
p215
F0.0094940000000000007
sS'principle'
p216
F0.011327
sS'back'
p217
F0.015932999999999999
sS'organization'
p218
F0.0046389999999999999
sS'model'
p219
F0.0041159999999999999
sS'validation'
p220
F0.011885
sS'consumer'
p221
F0.0086429999999999996
sS'strongly preferred'
p222
F0.030345
s.