(dp1
S''
F0.0016692052331354356
sS'concept'
p2
F0.00632235499475134
sS'platform---the'
p3
F0.0065544170264725072
sS'flavors---open'
p4
F0.006217652141790265
sS'global'
p5
F0.0034584710117053141
sS'focus'
p6
F0.0021243101495626695
sS'existing'
p7
F0.0063699268302814136
sS'manager'
p8
F0.0039156732042458699
sS'code'
p9
F0.0019998743256373535
sS'go'
p10
F0.0054466996595143313
sS'country/globe'
p11
F0.0057933786784475682
sS'remarkably'
p12
F0.0057933786784475682
sS'smes'
p13
F0.0044734189113500508
sVBusiness
p14
F0.00089843384316786899
sS'environment'
p15
F0.0048305639118734348
sS'foster'
p16
F0.0031366916758813501
sS'lead/members'
p17
F0.006217652141790265
sS'scale/tech'
p18
F0.0065544170264725072
sS'suite'
p19
F0.0030590746279569136
sS'replication'
p20
F0.010203189403811133
sS'artwork'
p21
F0.0055139169984475952
sS'micromanage'
p22
F0.0057933786784475682
sS'month'
p23
F0.0034305097075747856
sS'entire'
p24
F0.0032037360573420092
sS'fast-paced'
p25
F0.0027070243274526207
sS'solution'
p26
F0.0044082068841128936
sS'large'
p27
F0.0028904069082186521
sS'excellence'
p28
F0.0091021157898671622
sS'restoring'
p29
F0.0054030106814426503
sS'do/build'
p30
F0.0057933786784475682
sS'team'
p31
F0.016302177424351021
sS'enjoy'
p32
F0.017921862746246939
sS'application'
p33
F0.0044902103527190932
sS'consistent'
p34
F0.0026656369430327876
sS'direct'
p35
F0.0025746785940001142
sS'rate'
p36
F0.0039684475328180899
sS'street'
p37
F0.0045258928492209229
sS'video'
p38
F0.0031572847803443128
sS'folk'
p39
F0.0092839474617722722
sS'what'
p40
F0.0042912384615516512
sS'business'
p41
F0.001952714889279209
sS'clock'
p42
F0.0057142174771776348
sS'product.'
p43
F0.0043333675233423637
sS'version'
p44
F0.0034353525870074071
sS'designing'
p45
F0.0022986848505604364
sS'new'
p46
F0.0064687454783291538
sS'supporting'
p47
F0.0049698740658154685
sS'niche'
p48
F0.0050662462625836518
sS'full'
p49
F0.0021507744444240334
sS'paas.'
p50
F0.006217652141790265
sS'evolved'
p51
F0.0053051843951421119
sS'degree'
p52
F0.001016265527306644
sS'commercial'
p53
F0.0025593138327846387
sS'understanding'
p54
F0.0014080209028604197
sS'desired'
p55
F0.0023123920536384625
sS'explore'
p56
F0.0026772529572725999
sS'focused'
p57
F0.0045295634264091948
sS'carefulness'
p58
F0.0057933786784475682
sS'others'
p59
F0.0044105416182453295
sS'path'
p60
F0.0035553269498280315
sS'along'
p61
F0.0029657225565172035
sS'strong'
p62
F0.0045761718684421077
sS'change'
p63
F0.0018759301772681724
sS'software development'
p64
F0.0017609606462402597
sS'great'
p65
F0.0022390817567868766
sS'skills.'
p66
F0.0030841495652445721
sS'talent'
p67
F0.0025542547721699683
sS'rds'
p68
F0.0047528798149800572
sS'larger'
p69
F0.0037868136918504046
sS'bot'
p70
F0.0051015947019055667
sS'experience'
p71
F0.0098442528392945119
sS'mpp/big'
p72
F0.0058808873347453204
sS'throughput'
p73
F0.0091638139382598707
sS'mentor'
p74
F0.0026969814882449681
sS'engineers'
p75
F0.0032298677974927415
sS'via'
p76
F0.0055139926385267338
sS'love'
p77
F0.013318583194039594
sS'expect/demand'
p78
F0.0057933786784475682
sS'process/team'
p79
F0.0057933786784475682
sS'app'
p80
F0.00362555640691936
sS'manage'
p81
F0.010865662334895124
sS'logical'
p82
F0.011086819021962527
sS'highly'
p83
F0.003243862150748864
sS'peer'
p84
F0.0084790231717613955
sS'genscape'
p85
F0.023173514713790273
sS'punching'
p86
F0.0057933786784475682
sS'apply'
p87
F0.0016992782587800924
sS'establish'
p88
F0.002831020152580732
sS'cloud'
p89
F0.0061571442481021038
sS'would'
p90
F0.0076426708299175425
sV(5, 10]
p91
F0.0010013656657615105
sS'providers'
p92
F0.0053051843951421119
sS'next'
p93
F0.0071618629901508283
sS'distributing'
p94
F0.0052176758164815418
sS'live'
p95
F0.0028943763606092045
sS'program'
p96
F0.0018054665674541262
sS'music'
p97
F0.0039684475328180899
sS'asset'
p98
F0.0024864850727477133
sS'type'
p99
F0.0023314559523290694
sS'data management'
p100
F0.0022839851367186634
sS'9+'
p101
F0.0057933786784475682
sS'upcoming'
p102
F0.0046014504939930157
sS'definition'
p103
F0.0032529400593414985
sS'started'
p104
F0.0037868136918504046
sS'company'
p105
F0.0023254209332054751
sS'line'
p106
F0.0027421079787616027
sS'problem'
p107
F0.0014906427379546183
sS'app-dev'
p108
F0.0058808873347453204
sS'master data management'
p109
F0.0041653977132744104
sS'90'
p110
F0.0039777276051797938
sS'must'
p111
F0.0016046069381873401
sS'customer'
p112
F0.0013175747130325108
sS'market.'
p113
F0.0042779763268314787
sS"'data"
p114
F0.006217652141790265
sS'join'
p115
F0.0032692198293185217
sS'hour'
p116
F0.003052922423362438
sS'this'
p117
F0.0092897604677631366
sS'work'
p118
F0.0080687013382193008
sS'dev'
p119
F0.0093691519591765915
sS'cat'
p120
F0.0055139169984475952
sS'ms'
p121
F0.002276731715495845
sS'learn'
p122
F0.0020766175759996861
sS'following'
p123
F0.0019760715802393295
sS'meet'
p124
F0.0019561985620115637
sS'scripting'
p125
F0.0020208342005370956
sS'mongo'
p126
F0.0091638139382598707
sS'figure'
p127
F0.0042914816652009982
sS'ethic.'
p128
F0.0051771525019514795
sS'process'
p129
F0.0013838527217128185
sS'awesome'
p130
F0.0080124133383573919
sS'high'
p131
F0.0035466826002329183
sS'effectively'
p132
F0.0019660756234025491
sS'minimum'
p133
F0.0040919507347335661
sS'want'
p134
F0.0044260755904847755
sS'huge'
p135
F0.0036014806901615432
sS'requirements'
p136
F0.0018803991291871673
sS'goal'
p137
F0.0020928555330216626
sS'guidance/feedback'
p138
F0.006217652141790265
sS'provide'
p139
F0.0039459083108218046
sS'discussion'
p140
F0.0035010231088628647
sS'get'
p141
F0.0048276659825292551
sS'pl/sql'
p142
F0.0045628127625272248
sS'traders'
p143
F0.0057933786784475682
sS'strategy/approach'
p144
F0.0065544170264725072
sS'net-net'
p145
F0.006217652141790265
sS'gaming'
p146
F0.0087250259650592018
sS'fostered'
p147
F0.0057933786784475682
sS'attend'
p148
F0.0039966047348544299
sS'may'
p149
F0.0038356496149171216
sS'db'
p150
F0.0046014504939930157
sS"engineers'"
p151
F0.0059787136986830629
sS'tier'
p152
F0.0082620496861194083
sS'communicator'
p153
F0.0039062376874269564
sS'data'
p154
F0.0018716181641320476
sS'compatibility'
p155
F0.0049382144470300777
sS'a'
F0.0031063818830797786
sS'paas'
p156
F0.0048536775584217158
sS'backup'
p157
F0.0093691519591765915
sS'supervision'
p158
F0.003365517275460317
sS'vms.'
p159
F0.0057933786784475682
sS'rather'
p160
F0.012754821394037169
sS'maintain'
p161
F0.0042871321455903661
sS'definitions'
p162
F0.0060896200933252325
sS'opportunity'
p163
F0.0010507327513625802
sS'optimization/tuning'
p164
F0.0065544170264725072
sS'talk'
p165
F0.003361063911949022
sS'fixes/enhancements'
p166
F0.011761774669490641
sS'prioritizing'
p167
F0.0041423251408844591
sS'development.'
p168
F0.0033220230472378546
sS'feedback'
p169
F0.0060694692246825079
sS"don't"
p170
F0.010365034597044184
sS'essence'
p171
F0.0053051843951421119
sS'over'
p172
F0.0042012547659660907
sS'mission'
p173
F0.0019777493342042324
sS'left-and-right'
p174
F0.0057933786784475682
sS'course'
p175
F0.003034734612341254
sS'interpersonal'
p176
F0.002694987411778389
sS'including'
p177
F0.0045675687403687864
sS'innovative'
p178
F0.0016826329072700042
sS'mentioned'
p179
F0.0097618231057933335
sS'developer'
p180
F0.011365643124030409
sS'perfect'
p181
F0.0037157827627023769
sS'group'
p182
F0.0019635953224907306
sS'monitor'
p183
F0.0060815061375973879
sS'interesting'
p184
F0.0034353525870074071
sS'winning'
p185
F0.0042260494305840475
sS'platform'
p186
F0.0078964008443710397
sS'production'
p187
F0.006278566599064987
sS'systems'
p188
F0.0023736499594705059
sS'might'
p189
F0.0036889883371866864
sS'love---explore'
p190
F0.0057933786784475682
sS'seeking'
p191
F0.0019619458947179786
sS'functional'
p192
F0.0023589027058000551
sS'band'
p193
F0.0038563893079593481
sS'strategic'
p194
F0.0020085434065953791
sS'term'
p195
F0.0028994561281111297
sS'workload'
p196
F0.0041310248430597041
sS'technology.'
p197
F0.0036074345074409583
sS'always'
p198
F0.0065613873323121432
sS'troubleshoot'
p199
F0.0034114157338795072
sS'early-stage'
p200
F0.0053051843951421119
sS'strategy.'
p201
F0.00362555640691936
sS"technology'"
p202
F0.0058808873347453204
sS'capability'
p203
F0.0020190671960165726
sS'found'
p204
F0.004006206669178696
sS'here---we'
p205
F0.006217652141790265
sS'development'
p206
F0.01508672345200314
sS'financial'
p207
F0.0021313525962418142
sS'team---if'
p208
F0.0057933786784475682
sS'community-based'
p209
F0.0059787136986830629
sS'evolve'
p210
F0.011086819021962527
sS'generation'
p211
F0.0024620561776682393
sS'energy'
p212
F0.0076881112276995451
sS'idea'
p213
F0.0040170868131907582
sS'related'
p214
F0.0012418845902281437
sS'balanced'
p215
F0.0048536775584217158
sS'enterprise software'
p216
F0.003365517275460317
sS'expect'
p217
F0.0073260627713718539
sS'hosted'
p218
F0.0048017505069009011
sS'our'
p219
F0.0015855398055796349
sS'operation'
p220
F0.001906187788242576
sS'beyond'
p221
F0.0031002147608237621
sS"'job"
p222
F0.0058808873347453204
sS'3rd'
p223
F0.0080713940825980508
sS'space'
p224
F0.0029937840705114606
sS'open'
p225
F0.012378544530814073
sS'create.'
p226
F0.0054566140266771113
sS'looking'
p227
F0.0016230259298835121
sS'test/critique'
p228
F0.006217652141790265
sS'got'
p229
F0.0044905444875358849
sS'sensor'
p230
F0.0073007018325309146
sS'math'
p231
F0.0023997560613550238
sS'data scientist'
p232
F0.00087987679830886902
sS'standard'
p233
F0.0062469373017187682
sS'reason'
p234
F0.0043927185117829271
sS'base'
p235
F0.0028548194225447763
sS'imagine'
p236
F0.0045628127625272248
sS'generate'
p237
F0.0025991590836473176
sS'revolutionary'
p238
F0.0041653977132744104
sS"'who"
p239
F0.0058808873347453204
sS'training'
p240
F0.0058636912400888601
sS'perform'
p241
F0.0019464376011687711
sS'organic'
p242
F0.0093260034659404106
sS'created'
p243
F0.0075885253513226008
sS'programming'
p244
F0.0018310884299582656
sS'days'
p245
F0.014561032675265146
sS'retail'
p246
F0.0028620942561599022
sS'first'
p247
F0.012012762115776168
sS'pl/pgsql'
p248
F0.0065544170264725072
sS'simply'
p249
F0.0041088752914545208
sS'structures.'
p250
F0.0055754683926987772
sS'coding'
p251
F0.0028286773096660119
sS'one'
p252
F0.0013591713755550547
sS'self-driven'
p253
F0.0046014504939930157
sS'design/modify'
p254
F0.0065544170264725072
sS'message'
p255
F0.0042135595768550554
sS'self-motivation.'
p256
F0.0057933786784475682
sS'quality'
p257
F0.0018000253031075215
sS'engineer'
p258
F0.0096631285792565871
sS"you're"
p259
F0.0028500046960169339
sS'given'
p260
F0.0087681227852535685
sS'management'
p261
F0.00075253228172728591
sS'product/technology'
p262
F0.0057142174771776348
sS'service'
p263
F0.0027040527555029638
sS'start'
p264
F0.0031784015058639861
sS'leading'
p265
F0.0014976783125200271
sS'top'
p266
F0.0043669430190762778
sS'engagement'
p267
F0.002423830768895136
sS'system'
p268
F0.0052612110810957404
sS'least'
p269
F0.0040066622111527934
sS'remotely'
p270
F0.0046014504939930157
sS'priority'
p271
F0.0028452177211232611
sS'acquired'
p272
F0.0048273082852992571
sS'master'
p273
F0.0064749751121433215
sS'iaas'
p274
F0.0050662462625836518
sS'schema'
p275
F0.0040457645388552125
sS'exploring'
p276
F0.00276345965815532
sS'excellent'
p277
F0.0050373271427581233
sS'relationship'
p278
F0.0021173269239211333
sS'tool'
p279
F0.0045638884978469671
sS'continuous'
p280
F0.0029796348015842934
sS'innovate'
p281
F0.0067762989613497238
sS'part'
p282
F0.0017101577784680345
sS'performance improvement'
p283
F0.0045080306301628209
sS'believe'
p284
F0.0070059654461955816
sS'data-tech'
p285
F0.0065544170264725072
sS'embrace.'
p286
F0.0057933786784475682
sS'bi-weekly'
p287
F0.0054566140266771113
sS'require'
p288
F0.0027233498297571657
sS'thinker'
p289
F0.0033566343002367424
sS'matter'
p290
F0.0047178054116001102
sS'individual'
p291
F0.0051050509225646608
sS'architect'
p292
F0.0045998433059081132
sS'design'
p293
F0.0072778346014209846
sS"company's"
p294
F0.0031572847803443128
sS'toward'
p295
F0.0034209078508860256
sS'procedural'
p296
F0.0092839474617722722
sS"pro's"
p297
F0.006217652141790265
sS'outstanding'
p298
F0.0060694692246825079
sS'experience.'
p299
F0.0028620942561599022
sS'self-motivated'
p300
F0.0033011013018390579
sS'comfortable'
p301
F0.0026598892998187609
sS'say'
p302
F0.0042135595768550554
sS"'above-and-beyond'"
p303
F0.0058808873347453204
sS'need'
p304
F0.0014772073856411261
sS'architected'
p305
F0.0059787136986830629
sS'viewed'
p306
F0.0049997657636441659
sS'complete'
p307
F0.0057586417182991182
sS'data.'
p308
F0.0025938521752712136
sS'built'
p309
F0.0057786549485750547
sS"'clock-puncher'"
p310
F0.0058808873347453204
sS'user experience'
p311
F0.0028033330274973883
sS'fashion.'
p312
F0.0055139169984475952
sS'responsible'
p313
F0.00164635779702149
sS'able'
p314
F0.0057394512366120221
sS'snow'
p315
F0.0057933786784475682
sS'incentive'
p316
F0.0043478124147351841
sS'also'
p317
F0.0052828819387207787
sS'potential'
p318
F0.0021425413942398725
sS'build'
p319
F0.0014114103469246239
sS'off-shore'
p320
F0.0048273082852992571
sS'online'
p321
F0.0025956173794580979
sS'objective'
p322
F0.002557624052696046
sS'effectiveness'
p323
F0.0029629678562238374
sS'multiple'
p324
F0.0048559654416093856
sS'collaboration'
p325
F0.0063729304486880075
sS"technologists'"
p326
F0.0058808873347453204
sS'aws'
p327
F0.0043413228385078238
sS'business.'
p328
F0.0030873378400236634
sS'paid'
p329
F0.0028170612177945186
sS'plan'
p330
F0.0019407962466214893
sS'extremely'
p331
F0.003663031385685927
sS'the'
p332
F0.003052756147119336
sS'bounced'
p333
F0.0057933786784475682
sS'bug'
p334
F0.0093691519591765915
sS'sql server'
p335
F0.0023237777984041709
sS'mobile'
p336
F0.0025052901849572954
sS'doc'
p337
F0.0055139169984475952
sS'drive'
p338
F0.0015818826183001096
sS'traditional'
p339
F0.0031469244034296683
sS"you'll"
p340
F0.0022803505069914883
sS'tech'
p341
F0.0027699736922456889
sS'enterprise'
p342
F0.0020261578862160738
sS'professional'
p343
F0.0017596680934003266
sS'senior'
p344
F0.0035959879727695959
sS'consumer'
p345
F0.0022197535233302278
sS'currently'
p346
F0.0024590524787238706
sS'bring'
p347
F0.0040937749943375555
sS'planning'
p348
F0.0024209619583242283
sS'solutions'
p349
F0.0021183209395072879
sS'find'
p350
F0.0023496526309487401
sS'impact'
p351
F0.0037238702146862603
sS'holistic'
p352
F0.0041891295949143172
sS'based'
p353
F0.0033119825005042112
sS'knowledge'
p354
F0.0057572983523352219
sS'big data'
p355
F0.0010570806697364349
sS'distributed'
p356
F0.0051254074851330303
sS'enough'
p357
F0.0041423251408844591
sS'operational'
p358
F0.0023575749417687041
sS'going'
p359
F0.0041891295949143172
sS'employee'
p360
F0.0053557293151042301
sS'enthusiasm'
p361
F0.0041891295949143172
sS'demonstrated'
p362
F0.0056591861755538649
sS'data modeling'
p363
F0.0021696027780882653
sS'exceptional'
p364
F0.012510631400388595
sS'overall'
p365
F0.002572957293227048
sS'scalable'
p366
F0.0024471451569779549
sS"con's"
p367
F0.006217652141790265
sS'cannot'
p368
F0.0042012547659660907
sS'closely'
p369
F0.0019802723380412022
sS'relational'
p370
F0.0050329194986795996
sS'gen'
p371
F0.0098181378204121421
sVManagement Science and Engineering
p372
F0.0010710502811203425
sS'processes'
p373
F0.0033434854756558452
sS'covering'
p374
F0.0044734189113500508
sS'teams'
p375
F0.0060694692246825079
sS'qa'
p376
F0.0072029613803230863
sS'admins'
p377
F0.0060896200933252325
sS'software/data-based'
p378
F0.0057933786784475682
sS'terabyte'
p379
F0.0041891295949143172
sS'architecture'
p380
F0.0036329144895093993
sS'activity'
p381
F0.0022635961164256188
sS'lifecycle'
p382
F0.0031366916758813501
sS'vision'
p383
F0.0022310685185540765
sS'requirement'
p384
F0.0015855398055796349
sS'physically'
p385
F0.0050662462625836518
sS'testing'
p386
F0.0017004800788206088
sS'administrator'
p387
F0.0041310248430597041
sS'culture'
p388
F0.010879874816937002
sS'see'
p389
F0.0055976138659197833
sS'computer'
p390
F0.0021834715095381389
sS'college'
p391
F0.0032647210847329042
sS'result'
p392
F0.0046280463623972696
sS'flavor'
p393
F0.0055139169984475952
sV(2, 5]
p394
F0.0010290236116537671
sS'encouraged'
p395
F0.0032185676549384965
sS'hackathons'
p396
F0.0048809115528966667
sS'expert'
p397
F0.001735484305969405
sS'tackling'
p398
F0.0040873011224729812
sS'away'
p399
F0.0044082434615646572
sS'posse'
p400
F0.003090538401354927
sS'please'
p401
F0.0056300200031837305
sS'database design'
p402
F0.0030873378400236634
sS'written'
p403
F0.0017089418796491593
sS'various'
p404
F0.0075758085082588801
sS'hopefully'
p405
F0.0055139169984475952
sS'numerous'
p406
F0.0041423251408844591
sS'across'
p407
F0.0040931104889333682
sS'conferencing'
p408
F0.0057142174771776348
sS'we'
p409
F0.016584918379799984
sS"way'."
p410
F0.0058808873347453204
sS'ability'
p411
F0.0021080773032403229
sS'nature'
p412
F0.0034305097075747856
sS'keyboard'
p413
F0.0051015947019055667
sS'deliver'
p414
F0.0034069845224238417
sS'sold'
p415
F0.0050662462625836518
sS'subject'
p416
F0.004498998857853165
sS'however'
p417
F0.0039684475328180899
sS'dual-home'
p418
F0.0057933786784475682
sS'job'
p419
F0.0011853566763649368
sS'succeed'
p420
F0.0031784015058639861
sS'modeling'
p421
F0.00067453960882188748
sS'come'
p422
F0.0078135003653512641
sS'distribution'
p423
F0.0034305097075747856
sS'received'
p424
F0.0042012547659660907
sS'c'
F0.0010387225281545658
sS'talented'
p425
F0.0078081478693372919
sS'career'
p426
F0.0056955581954069509
sS'many'
p427
F0.017938926197965607
sS'invited'
p428
F0.0054566140266771113
sS'annual'
p429
F0.0031748445554332341
sS"'support"
p430
F0.0058808873347453204
sS'etc'
p431
F0.007230065077038079
sS'operating'
p432
F0.0023669141810757333
sS'asked'
p433
F0.0035277312851620716
sS'etl'
p434
F0.0047338283621514666
sS'wall'
p435
F0.0049382144470300777
sS'community'
p436
F0.0066025947902723621
sS'60'
p437
F0.0037868136918504046
sS'data warehousing'
p438
F0.0025261547023955927
sS'learning'
p439
F0.0015114518297237676
sS'technologist'
p440
F0.013941603892144385
sS'100'
p441
F0.002318698186162785
sS'conference'
p442
F0.0031855614361772163
sS'custom/derived'
p443
F0.006217652141790265
sS'java'
p444
F0.0010292915013856176
sS'hard-products'
p445
F0.0057933786784475682
sS'addition'
p446
F0.0028147573694469611
sS'strategy'
p447
F0.0013081490292581686
sS'much'
p448
F0.0037576683879354624
sS'maintenance'
p449
F0.0029045671568729454
sS'basic'
p450
F0.0021064705672611244
sS'collaborator'
p451
F0.0043927185117829271
sS'flexible'
p452
F0.0025956173794580979
sS'meeting'
p453
F0.0029359120126131425
sS'pl'
p454
F0.0030937513442990824
sS'4'
F0.0028994561281111297
sS'direction'
p455
F0.0024772398239565133
sS'patented'
p456
F0.0050662462625836518
sS"'big'"
p457
F0.0065544170264725072
sS'environment.'
p458
F0.002960222262650975
sS'understand'
p459
F0.0052367437212066659
sS'deep'
p460
F0.0060704753316669227
sS'stand-ups'
p461
F0.0057933786784475682
sS'dbdev'
p462
F0.0065544170264725072
sS'f2f'
p463
F0.0057142174771776348
sS"journey'"
p464
F0.006217652141790265
sS'look'
p465
F0.0030377383889169918
sS'developing'
p466
F0.0015567236477856889
sS'these'
p467
F0.0029966430827357924
sS'leave'
p468
F0.0039235415910429759
sS'messaging/pub-sub'
p469
F0.0058808873347453204
sS'as'
p470
F0.003420315556936069
sS'value'
p471
F0.0015471696246609793
sS'entrepreneurial'
p472
F0.003052922423362438
sS'optimization'
p473
F0.001661136924741314
sS'ongoing'
p474
F0.0029520395250888939
sS'fun'
p475
F0.0029629678562238374
sS'balance'
p476
F0.0032223173118164422
sS'trader'
p477
F0.0053526580831526477
sS'application development'
p478
F0.0031819737553872469
sS'welding'
p479
F0.0057933786784475682
sS'layer'
p480
F0.0081325463960508822
sS'30'
p481
F0.0033699946468565638
sS'rock-climbing'
p482
F0.0057933786784475682
sS'ip'
p483
F0.0037868136918504046
sS'it'
p484
F0.0034734794577155662
sS'encouragement'
p485
F0.0049382144470300777
sS'database administration'
p486
F0.0040662731980254411
sS'player'
p487
F0.0027965531020633797
sS'embrace'
p488
F0.010004501508585196
sS'in'
p489
F0.0070129413520953771
sS'ready'
p490
F0.0030081785796370122
sS'technology'
p491
F0.016846963541489866
sS'diagnostic'
p492
F0.0042779763268314787
sS'if'
p493
F0.001982803030777934
sS'uptime'
p494
F0.0051385146928487673
sS'pas'
p495
F0.003779430922794912
sS'develop'
p496
F0.0037940816164524689
sS'combination'
p497
F0.0024880360035650375
sS'tools/etc'
p498
F0.0057933786784475682
sS'create/modify'
p499
F0.0065544170264725072
sS'make'
p500
F0.0031420134488422567
sS'hadoop'
p501
F0.0021342300687700413
sS'member'
p502
F0.0052196598460806003
sS'another'
p503
F0.0035116035397842449
sS'party'
p504
F0.0062265889619720297
sS'pre-alpha/beta'
p505
F0.006217652141790265
sS'week'
p506
F0.0031132944809860149
sS'independent'
p507
F0.0029148845539727353
sS'used'
p508
F0.0044598601124158999
sS'practitioner'
p509
F0.0041891295949143172
sS'bonus'
p510
F0.0031677760315784306
sS'changing'
p511
F0.0027463346254090336
sS't-sql'
p512
F0.0039966047348544299
sVPhysics
p513
F0.0021791794860465869
sS'stack'
p514
F0.0029768336462638496
sS'expand'
p515
F0.0071332543400339952
sS'cycle'
p516
F0.0030110876635890725
sS'organically'
p517
F0.0057933786784475682
sS'reflection'
p518
F0.0053526580831526477
sS'database'
p519
F0.021257152600458799
sS'i'
F0.006910023064696123
sS'well'
p520
F0.010936139135191977
sS'analysis'
p521
F0.00028456704464628732
sS'client'
p522
F0.0015215703482859165
sS'solve'
p523
F0.0019288351574743348
sS'greatest'
p524
F0.0039062376874269564
sS'consistency'
p525
F0.0082177505829090416
sS'position'
p526
F0.0025858377620921746
sS'model'
p527
F0.0064261247587277448
sS'reward'
p528
F0.0069199996935769377
sS'latest'
p529
F0.0023011603000612927
sS'unified'
p530
F0.0043774784410244077
sS'being'
p531
F0.0043191695666277494
sS'hybrid'
p532
F0.0042914816652009982
sS'product'
p533
F0.01005393356848814
sS'embrace/grow'
p534
F0.006217652141790265
sS'identify'
p535
F0.0017077277586877221
sS'aspect'
p536
F0.0026870586426782565
sS'day-to-day'
p537
F0.0033220230472378546
sS'skill'
p538
F0.0020839616959630984
sS'captured'
p539
F0.0047294821542727562
sS'work.'
p540
F0.0064001383526646159
sS'field'
p541
F0.0014190875694268896
sS"one-platform'"
p542
F0.006217652141790265
sS'improvement'
p543
F0.0022310685185540765
sS'simple'
p544
F0.0031538169415260757
sS'internal'
p545
F0.0036963440026610114
sS'attractive'
p546
F0.0048017505069009011
sS'standards/work'
p547
F0.0057933786784475682
sS'input'
p548
F0.0033094068636224851
sS'real'
p549
F0.0024109984516835245
sS'vendor'
p550
F0.0063145695606886256
sS'around'
p551
F0.0019836483117794861
sS'big'
p552
F0.0019201719094829874
sS'collaboratively'
p553
F0.0028969123606211113
sS'know'
p554
F0.013504920312870893
sS'deployment'
p555
F0.0024942688538732031
sS'using'
p556
F0.0012450056673242011
sS'world-class'
p557
F0.0030110876635890725
sS'process improvement'
p558
F0.0026792048541772972
sS'necessary'
p559
F0.0027295555892446885
sS'like'
p560
F0.0019415998118061648
sS'success'
p561
F0.0020709615060692755
sS'identifying'
p562
F0.0023212341085444331
sS'50'
p563
F0.003365517275460317
sS'server'
p564
F0.0064521679487024881
sS'collect'
p565
F0.0032490498966846249
sS'benefit'
p566
F0.003817004364706326
sS'continue'
p567
F0.0079739466732384919
sS'micro-management.'
p568
F0.0057933786784475682
sS'initiative'
p569
F0.0022937559787649994
sS'environments'
p570
F0.011667860857923507
sS'passionate'
p571
F0.0045510578949335811
sS'soft'
p572
F0.0044734189113500508
sS'essential'
p573
F0.0025885789632572637
sS'often'
p574
F0.0076808331425318645
sS'verbal'
p575
F0.0021364197331644858
sS'some'
p576
F0.0031891646821283759
sS'back'
p577
F0.0031855614361772163
sS'scrum'
p578
F0.0084650645290602084
sS'platforms'
p579
F0.0037090026820007027
sS'growth'
p580
F0.0020719015131838822
sVMaster
p581
F0.00060405372526924994
sS'left-'
p582
F0.0060896200933252325
sS'sprint'
p583
F0.0086667350466847273
sS'and/or'
p584
F0.0045329191729415446
sS'collaborative'
p585
F0.0023011603000612927
sS'broad'
p586
F0.0025627037425665152
sS'redis'
p587
F0.0040559555680222473
sS'integration'
p588
F0.0038309686415192901
sS'/'
F0.0038309686415192901
sS'competitions'
p589
F0.0049997657636441659
sS'models'
p590
F0.0030559928290171505
sS'critical'
p591
F0.0067943451396137913
sS'passion'
p592
F0.0044758645272002726
sS'innovation'
p593
F0.0016078278007763485
sS'over-used'
p594
F0.0057933786784475682
sS'minimal'
p595
F0.0032806936661560716
sS'core'
p596
F0.0062157045395516463
sS'data analysis'
p597
F0.0012323604775462335
sS'latest/greatest'
p598
F0.0057933786784475682
sS'business-critical'
p599
F0.004909068910206071
sS'equivalent'
p600
F0.0019537475443745411
sS'white-board'
p601
F0.006217652141790265
sS'communicate'
p602
F0.0016663146862803922
sS'comp-sci'
p603
F0.0057933786784475682
sS'24-hour'
p604
F0.0057142174771776348
sS'assemble'
p605
F0.004909068910206071
sS'includes'
p606
F0.0024545672023382286
sS'pipeline'
p607
F0.002886814494682869
sS'postgresql'
p608
F0.005652682114507597
sS'working'
p609
F0.0021687991911756416
sS'perk'
p610
F0.0038644923656593853
sS'range'
p611
F0.002123308943427138
sS'ensure'
p612
F0.0057984092248042707
sS'azure'
p613
F0.0074180053640014055
sS'os'
p614
F0.0044734189113500508
sS'software'
p615
F0.013359776082909315
sS'explore/interact'
p616
F0.0057933786784475682
sS'previously'
p617
F0.0041537813108658153
sS'communication'
p618
F0.001314924716869482
sS'within'
p619
F0.0030286605485085401
sS'commitment'
p620
F0.005738866753820052
sS'recognize'
p621
F0.0038977190772171346
sS'appropriate'
p622
F0.0022197535233302278
sS'contributor'
p623
F0.0067132686004734848
sS'develop ... system'
p624
F0.0038892869526411691
sS'support'
p625
F0.0081876324407486913
sS'cloud-based'
p626
F0.0039323306407572176
sS'accountability'
p627
F0.0036194717336487207
sS'systems.'
p628
F0.0032529400593414985
sS'overtime'
p629
F0.0041891295949143172
sS'camera'
p630
F0.0049382144470300777
sS'way'
p631
F0.0036906066920183341
sS'translate'
p632
F0.0024880360035650375
sS'happy'
p633
F0.0039062376874269564
sS'function'
p634
F0.0045106879930268112
sS'real-time'
p635
F0.003090538401354927
sS'interest'
p636
F0.0024383253828877691
sS'offering'
p637
F0.0059818697330097656
sS'offer'
p638
F0.0052139911580936105
sS'forming'
p639
F0.0049997657636441659
sS'delivery'
p640
F0.0063018245953921255
sS'brain'
p641
F0.0048536775584217158
sS'technologies'
p642
F0.0027875984494765103
sS'role'
p643
F0.0055750726721780514
sS'true'
p644
F0.0036074345074409583
sS'analyst'
p645
F0.0037370699165182159
sS'partitioning'
p646
F0.0063690819285997227
sS'characteristic'
p647
F0.0024665821945750056
sS'genscape.'
p648
F0.011586757356895136
sS'us'
p649
F0.0020111618772418135
sS'non-relational'
p650
F0.0047769557646462841
sS"genscape's"
p651
F0.017642662004235959
sS'demonstrate'
p652
F0.0055841274140560927
sS'autonomous'
p653
F0.0046014504939930157
sS'required'
p654
F0.002704843426061801
sS'migrate'
p655
F0.005032341029157528
sS'co-located'
p656
F0.0057142174771776348
sS'year'
p657
F0.0035284710554900388
sS'moved'
p658
F0.0054030106814426503
sS'life'
p659
F0.0055661618942839707
sS'proven'
p660
F0.0043519499267748009
sS'an'
p661
F0.0059990239418755732
sS'globally'
p662
F0.0035553269498280315
sS'engineering'
p663
F0.0010173212434166567
sS'held'
p664
F0.0044566393317466164
sS'hobbies'
p665
F0.0057933786784475682
sS'software---not'
p666
F0.0057933786784475682
sS'physical'
p667
F0.0024109984516835245
sS'stack.'
p668
F0.0045080306301628209
sS'technologies.'
p669
F0.0036378611401724063
sS'right-brain'
p670
F0.0060896200933252325
sS'contest'
p671
F0.0054566140266771113
sS'composing'
p672
F0.0057933786784475682
sS'detail'
p673
F0.0024441948125731592
sS"'are"
p674
F0.0058808873347453204
sS'successful'
p675
F0.0021456192307758256
sS'5'
F0.0021601352513041586
sS'database development'
p676
F0.0046214649940794009
sS'cultures.'
p677
F0.0056419489692753804
sS'you'
p678
F0.022947792265111167
sS'developers'
p679
F0.003872675258490351
sS'dynamic/distributed'
p680
F0.0057933786784475682
sS'java/c'
p681
F0.0055139169984475952
sS'center'
p682
F0.0026989803641243532
sS'problems'
p683
F0.0028918480807847177
sS'cranking'
p684
F0.0057933786784475682
sS'scale'
p685
F0.0020690846779695495
sS"'a"
p686
F0.006217652141790265
sS'sql'
p687
F0.002831992769240229
sS'throughout'
p688
F0.002675305637100204
sS'pool'
p689
F0.005032341029157528
sS'exposure'
p690
F0.0030715174682586447
sS'land'
p691
F0.0048273082852992571
sS'remote'
p692
F0.0034256949034133098
sS'home'
p693
F0.0032374875560716608
sS'physics'
p694
F0.0020208342005370956
sS'3-4'
p695
F0.0049684200539201933
sS'experts'
p696
F0.0061810768027098541
sS'portion'
p697
F0.0048809115528966667
sS'summit'
p698
F0.0053526580831526477
sS'u'
F0.0034822974337163784
sS"function'"
p699
F0.0058808873347453204
sS'time'
p700
F0.0015674128550882483
sS'once'
p701
F0.0048536775584217158
s.