(dp1
S'code'
p2
F0.017728000000000001
sS'application server servlet container tomcat administration'
p3
F0.029959
sS'bring'
p4
F0.0077710000000000001
sS'solutions'
p5
F0.056034
sS'committed'
p6
F0.014130999999999999
sS'-- mq webservices service'
p7
F0.029959
sS'scripting ant maven'
p8
F0.029959
sS'ground'
p9
F0.013021
sS'git jenkins ansible terraform cloudformation etc'
p10
F0.029166000000000001
sS'inspiring'
p11
F0.012305
sS'knowledge'
p12
F0.0079930000000000001
sS'adp'
p13
F0.037608999999999997
sS'environment'
p14
F0.010066
sS'automation hudson jenkins'
p15
F0.029959
sS'forbes'
p16
F0.01375
sS'experience managing'
p17
F0.016403000000000001
sS'include'
p18
F0.016244999999999999
sS'shell scripting wsadmin jython scripting'
p19
F0.029959
sS'automated testing'
p20
F0.020216999999999999
sS'audit trail'
p21
F0.029166000000000001
sS'cloud trail etc'
p22
F0.029166000000000001
sS'fortune magazine'
p23
F0.013899
sS'watch'
p24
F0.018610999999999999
sS'preferred'
p25
F0.0062529999999999999
sS'cloud experts'
p26
F0.014236
sS'deployment'
p27
F0.019979
sS'using'
p28
F0.019307999999999999
sS'one'
p29
F0.015065
sS'strive'
p30
F0.012015
sS'resource'
p31
F0.0093220000000000004
sS'ci cd tool'
p32
F0.026945
sS'--'
p33
F0.015056999999999999
sS'aws'
p34
F0.011932
sS'solution'
p35
F0.0061830000000000001
sS'equal employment opportunity regardless'
p36
F0.014144
sS'continue'
p37
F0.010562999999999999
sS'masters degree'
p38
F0.010024999999999999
sS'team'
p39
F0.0016620000000000001
sS'continuous delivery'
p40
F0.041411999999999997
sS'people'
p41
F0.0056259999999999999
sS'globe'
p42
F0.010612999999999999
sS'related'
p43
F0.006045
sS'brilliant engineer architect data scientist infrastructure expert'
p44
F0.012831
sS'unlock'
p45
F0.011639
sS'adp power'
p46
F0.014236
sS'design'
p47
F0.0035969999999999999
sS'career potential technology'
p48
F0.012968
sS'system administration'
p49
F0.021499000000000001
sS'monitoring tool wily introscope suite dyna trace sitescope'
p50
F0.030929000000000002
sS'largest provider'
p51
F0.014167000000000001
sS'click'
p52
F0.017641
sS'product development'
p53
F0.009247
sS'saas solution'
p54
F0.012747
sS'vital asset employee'
p55
F0.012968
sS'job performance'
p56
F0.014097999999999999
sS'personal merit qualification experience'
p57
F0.014144
sS'looking'
p58
F0.0058950000000000001
sS'db build packaging --'
p59
F0.029959
sS'provider'
p60
F0.026779000000000001
sS'position summary'
p61
F0.012632000000000001
sS'industry standard'
p62
F0.074443999999999996
sS'infrastructure'
p63
F0.0089049999999999997
sS'ability'
p64
F0.0024689999999999998
sS'workflow'
p65
F0.013813000000000001
sS'working world'
p66
F0.014189999999999999
sS'65 year'
p67
F0.028472999999999998
sS'million'
p68
F0.0089599999999999992
sS'deliver'
p69
F0.0059300000000000004
sS'notification process'
p70
F0.029166000000000001
sS'release'
p71
F0.016142
sS'management'
p72
F0.0049160000000000002
sS'provider agnostic'
p73
F0.029166000000000001
sS'known baseline'
p74
F0.029166000000000001
sS'using terraform cloudformation'
p75
F0.029166000000000001
sS'hand'
p76
F0.026291999999999999
sS'every interaction'
p77
F0.013467
sS'change'
p78
F0.0079209999999999992
sS'associate excel based'
p79
F0.014144
sS'pipeline'
p80
F0.028903999999999999
sS'service'
p81
F0.0046430000000000004
sS'mental disability'
p82
F0.01311
sS'industry'
p83
F0.004947
sS'programming'
p84
F0.0080319999999999992
sS'experience'
p85
F0.0024359999999999998
sS"world's"
p86
F0.011153
sS'ensure'
p87
F0.014581999999999999
sS'git jenkins'
p88
F0.029166000000000001
sS'webtier knowledge loadbalancers layer7 apache'
p89
F0.029166000000000001
sS'implement'
p90
F0.0061529999999999996
sS'software'
p91
F0.004437
sS'5+ year'
p92
F0.022305999999999999
sS'architect scm branching strategy'
p93
F0.029166000000000001
sS'core value insightful expertise integrity'
p94
F0.013667
sS'build'
p95
F0.016962000000000001
sS'measurable risk'
p96
F0.029166000000000001
sS'unix'
p97
F0.017066999999999999
sS'solution world-wide'
p98
F0.014236
sS'troubleshooting'
p99
F0.014836999999999999
sS'redefining'
p100
F0.012305
sS'everything service excellence inspiring innovation'
p101
F0.013667
sS'latest innovation'
p102
F0.012881999999999999
sS'quality'
p103
F0.0072719999999999998
sS'post'
p104
F0.019612999999999998
sS'cloud'
p105
F0.038059999999999997
sS'engineer'
p106
F0.0074009999999999996
sS'comprised'
p107
F0.011730000000000001
sS'research empowering'
p108
F0.012933
sS'git'
p109
F0.017850000000000001
sS'java'
p110
F0.019719
sS'working'
p111
F0.0047159999999999997
sS'leading'
p112
F0.0062300000000000003
sS'support'
p113
F0.0029759999999999999
sS'configuration management'
p114
F0.021624999999999998
sS'on-prem iaas offering'
p115
F0.029166000000000001
sS'specifically'
p116
F0.015630000000000002
sS'strategy'
p117
F0.01227
sS'drive business success consistently named one'
p118
F0.014236
sS'way'
p119
F0.006561
sS'docker maven sonarcube blackduck nexus etc'
p120
F0.029166000000000001
sS'diversity fuel innovation adp'
p121
F0.014144
sS'100 uptime using blue green'
p122
F0.029166000000000001
sS'industry standard toolsets'
p123
F0.029166000000000001
sS'integration bus wmb'
p124
F0.03218
sS'life'
p125
F0.014376
sS'offer'
p126
F0.0069940000000000002
sS'tool'
p127
F0.0094160000000000008
sS'way business manage'
p128
F0.012933
sS'engineering team'
p129
F0.012305
sS'integration soa knowledge'
p130
F0.029959
sS'believe'
p131
F0.0090019999999999996
sS'architect fault tolerant self-healing cloud'
p132
F0.029166000000000001
sS'b'
F0.019082999999999999
sS'work'
p133
F0.0015139999999999999
sS'innovative companies'
p134
F0.012847000000000001
sS'inclusive workplace'
p135
F0.013688000000000001
sS'future'
p136
F0.0066220000000000003
sS'architect'
p137
F0.043892
sS'verification'
p138
F0.020504000000000001
sS'following'
p139
F0.007894
sS'scripting'
p140
F0.013856
sS'protected veteran status'
p141
F0.011142000000000001
sS'possible named one'
p142
F0.012968
sS'designing viable continuous integration'
p143
F0.029166000000000001
sS'forever change'
p144
F0.012933
sS'appdynamics ca wily sitescope cloud'
p145
F0.029166000000000001
sS'single'
p146
F0.021141
sS'ansible'
p147
F0.022627000000000001
sS'highly automated intelligent'
p148
F0.012865
sS'recognized'
p149
F0.010895999999999999
sS"computerworld's 100 best places"
p150
F0.012933
sS'technology'
p151
F0.0031549999999999998
sS'monitoring'
p152
F0.012215999999999999
sS"world's largest b2b cloud company"
p153
F0.012831
sS'latest operating platform'
p154
F0.012865
sS'admired companies'
p155
F0.014009000000000001
sS'comprehensive solution'
p156
F0.014076
sS'-'
F0.0065059999999999996
sS'virtualization vmware z os'
p157
F0.029166000000000001
sS'innovative companies adp ha'
p158
F0.014236
sS'application'
p159
F0.0047450000000000001
sS'responsibilities'
p160
F0.0054000000000000003
sS'computer science'
p161
F0.0067660000000000003
sS'performance'
p162
F0.012709
sS'enjoy exploring identifying'
p163
F0.012881999999999999
sS'workplace'
p164
F0.0090159999999999997
sS'deviation'
p165
F0.025805000000000002
sS"bachelor's"
p166
F0.018015
sS'race color genetic information creed religion sex sexual orientation gender identity lawful alien status national origin age marital status non-job related physical'
p167
F0.014144
sS'predictive solution'
p168
F0.01273
sS'qualifications'
p169
F0.0052399999999999999
sS'google cloud'
p170
F0.023139
sS'envelope utilizing'
p171
F0.012865
sS'driven'
p172
F0.0087430000000000008
sS'docker mesos marathon kube'
p173
F0.030929000000000002
sS'person counts results-driven social responsibility'
p174
F0.013856
sS'sql'
p175
F0.0048349999999999999
sS'human capital management'
p176
F0.014053
sS'cloud native application'
p177
F0.029166000000000001
sS'continuous integration loop using'
p178
F0.029166000000000001
sS'well'
p179
F0.0051380000000000002
sS'cluster compute --'
p180
F0.029166000000000001
sS'devops engineer'
p181
F0.023324000000000001
sS'half-million client around'
p182
F0.014236
sS'push'
p183
F0.011223
sS'first'
p184
F0.010319
sS"forbes'"
p185
F0.012714
s.