(dp1
S'shop'
p2
F0.011392099192523406
sS'automation/scripting'
p3
F0.019468579199348721
sS'r d'
p4
F0.0010239768375677738
sS'nosql'
p5
F0.0058645235682015353
sS'telemetry'
p6
F0.011936367350755485
sS'ingesting'
p7
F0.014131763459647537
sS'global'
p8
F0.0065093809786108464
sS'contemporary'
p9
F0.012260686829464134
sS'invent'
p10
F0.010397329563701138
sS'131'
p11
F0.016728899710985696
sS'member'
p12
F0.003284796135120839
sS'including'
p13
F0.0044691069715208174
sS'aspect'
p14
F0.0061284285570704115
sS'participate'
p15
F0.0055449171507817238
sS'follow'
p16
F0.007301612240988041
sS'yes'
p17
F0.0087185312756544783
sS'plains'
p18
F0.016344484557946477
sS'developer'
p19
F0.014657042546636006
sS'discipline'
p20
F0.0043502565247759877
sS'oriented'
p21
F0.0066248698413275148
sS'technical leadership'
p22
F0.010003563018748994
sS'group'
p23
F0.0039563948641645171
sS'analytic'
p24
F0.018634443930254659
sS'big data'
p25
F0.0054942301924690243
sS'title'
p26
F0.0061403026390589753
sS'siebel'
p27
F0.01845744477378895
sS'guidance'
p28
F0.005984585583713114
sS'responsible'
p29
F0.0030040194841448572
sS'operational'
p30
F0.0051392120164076164
sS'environment'
p31
F0.0016870562079973116
sS'platform'
p32
F0.0084079599544220531
sS'production'
p33
F0.017377832327562164
sS'location'
p34
F0.0034694107133489264
sS'integrate'
p35
F0.011935738123030417
sS'computer science applied math'
p36
F0.012330937885597217
sS'defining'
p37
F0.014856044778680069
sS'computer science'
p38
F0.0041236730546387089
sS'do'
p39
F0.0099845385068480473
sS'around'
p40
F0.0040165972588811242
sS'productivity.'
p41
F0.014443889983432403
sS'get'
p42
F0.0053081152161208222
sS'preferred'
p43
F0.001954109130594696
sS'results'
p44
F0.0075929514350358629
sS'collaboratively'
p45
F0.0067584872581007219
sS"world's"
p46
F0.0048749101484937491
sS'closely'
p47
F0.0040064620155497738
sS'focus'
p48
F0.0044388915974266771
sS'using'
p49
F0.0017992133067268855
sS'execution'
p50
F0.011194029861569421
sS'well'
p51
F0.0027516962997886337
sS'fortune'
p52
F0.0049365686882939302
sS'like'
p53
F0.0077807217671739147
sS'performing'
p54
F0.0061403026390589753
sS'solution'
p55
F0.0095969724939103558
sS'hive'
p56
F0.0049255763691097298
sS'specific'
p57
F0.0049772936665530097
sS'morris'
p58
F0.016344484557946477
sS'architecture'
p59
F0.0089504945124516087
sS'team'
p60
F0.0025475816636680985
sS'implication'
p61
F0.0093428439960527437
sS'passionate'
p62
F0.0048928872542699838
sS'challenge'
p63
F0.0040498243212855074
sS'versioning'
p64
F0.016011489073741902
sS'enjoy'
p65
F0.0047869191479609522
sS'predictive'
p66
F0.0036754346440194779
sS'u'
F0.0032885850386688213
sS'billion'
p67
F0.0059623217009617986
sS"honeywell's"
p68
F0.01372648086831668
sS'energy'
p69
F0.013593820442016942
sS'innovative'
p70
F0.003112918004725674
sS'begin'
p71
F0.010986819645418032
sS'related'
p72
F0.0017898447589049383
sS'analytics'
p73
F0.012661833463554952
sS'thinker'
p74
F0.0081387613946985512
sS'actively'
p75
F0.0074581270548979622
sS'design'
p76
F0.0067961960711900712
sS'result'
p77
F0.0053855752900495131
sS'system administration'
p78
F0.01082587773192018
sS'year'
p79
F0.00071000361171443319
sS'curious'
p80
F0.0077581542624668882
sS'activities'
p81
F0.010269418140845109
sS'skill'
p82
F0.0011898139743633785
sV(2, 5]
p83
F0.0019574407781767175
sS'creating'
p84
F0.0042506811297611333
sS'educate'
p85
F0.0086852815899580091
sS'and/or'
p86
F0.0025975991993202018
sS'degree'
p87
F0.0011126301903241881
sS'lead'
p88
F0.0057253031307016511
sS'best-in-class'
p89
F0.0091366353144886423
sS'please'
p90
F0.0036954425714982027
sS'/'
F0.0038189848068799293
sS'implementation.'
p91
F0.012125856868477253
sS'attitude'
p92
F0.0075929514350358629
sS'critical'
p93
F0.0048641857803900096
sS'safety'
p94
F0.008891774014523254
sS'productive.'
p95
F0.014800748927881862
sS'international'
p96
F0.0077810319915853163
sS'boundary'
p97
F0.010060240934378024
sS'staff'
p98
F0.0054619467591868493
sS'leader'
p99
F0.0067194782253877077
sS"years'"
p100
F0.043142122960389662
sS'we'
p101
F0.0023470711645835933
sS'provide'
p102
F0.0020102267473624752
sS'distributed computing'
p103
F0.0070493340901940649
sS'capabilities.'
p104
F0.0098147590348315293
sS'business'
p105
F0.00098230832630472964
sS'visualization'
p106
F0.004133552052539644
sS'deliver'
p107
F0.0031755384893140236
sS'pushing'
p108
F0.010787214432469217
sS'data scientist'
p109
F0.00046151445029122591
sS'governing'
p110
F0.010602409058719354
sS'understanding'
p111
F0.0022885487704069891
sS'implementing'
p112
F0.016495446132652337
sS'management'
p113
F0.0063720748811164005
sS'address'
p114
F0.0056946205964094696
sS'modeling'
p115
F0.0096325703531386087
sS'100'
p116
F0.01004498605338414
sS'configuration'
p117
F0.0080475988720609213
sS'security'
p118
F0.0039788007243682375
sS'change'
p119
F0.0036932115210411131
sS'world'
p120
F0.0032416327612709559
sS'plug-in'
p121
F0.019468579199348721
sS'country'
p122
F0.0066104559858997242
sS'taking'
p123
F0.0088561492007041328
sS'seamlessly'
p124
F0.011491862104494079
sS'experience'
p125
F0.0015563753781399716
sS'globalization'
p126
F0.016728899710985696
sS'creates'
p127
F0.0069403520716643345
sS'000'
p128
F0.0051312584291198253
sS'ensure'
p129
F0.0038639517520434874
sS'data analytics'
p130
F0.0076285965814803141
sS'jersey'
p131
F0.012715351009138334
sS'software'
p132
F0.0021491015046595226
sS'negotiation'
p133
F0.010177614243696884
sS'ability'
p134
F0.0012260053974628318
sS'love'
p135
F0.006058347626829501
sS'secure'
p136
F0.0076468120199669762
sS'effective'
p137
F0.0051272911303680644
sS'data science'
p138
F0.0046409666142331807
sS'honeywellnow'
p139
F0.014800748927881862
sS'environments'
p140
F0.019476046507057261
sS'highly'
p141
F0.0029306904673291499
sS'unix'
p142
F0.016838489943502146
sS'safer'
p143
F0.012260686829464134
sS'cloud'
p144
F0.0042229465886071587
sS'manufacturing'
p145
F0.0085722796646582246
sS'open source'
p146
F0.006293706440991296
sS'rdbms'
p147
F0.0098147590348315293
sS'working'
p148
F0.0052685373877900728
sS'script'
p149
F0.016663476980405174
sS'positive'
p150
F0.0071813025434319016
sS'support'
p151
F0.0031537369757339657
sS'employee'
p152
F0.0034209595208094549
sS'visit'
p153
F0.0053252231379194992
sS'system'
p154
F0.0041889946167032923
sS'strategy'
p155
F0.007004485566614942
sS'mathematics'
p156
F0.0040421171334706109
sVBachelor
p157
F0.00084776849703776733
sS'2'
F0.026018855082053233
sS'development'
p158
F0.0057666803749782201
sS'strong'
p159
F0.0029923162301433888
sS'basic'
p160
F0.0043853332984674
sS'advanced analytics'
p161
F0.010878762254831245
sS'trend'
p162
F0.0049001145507625776
sS'applied math'
p163
F0.00620664056339676
sS'data management'
p164
F0.005827503408495774
sS'manufacture'
p165
F0.013488800636674625
sS'building'
p166
F0.0027995351757057882
sS'maintenance'
p167
F0.0067814699133848747
sS'big-data-processing'
p168
F0.019468579199348721
sS'successful'
p169
F0.0045028662225908064
sS'company'
p170
F0.0015521907225833642
sS'serialization/deserialization'
p171
F0.019468579199348721
sS'delivery'
p172
F0.00436773321792399
sS'visualizing'
p173
F0.011441481795614354
sS'part'
p174
F0.0031955486475467344
sS'understand'
p175
F0.0033441814004391678
sS'energy efficiency'
p176
F0.015717766300180968
sS'excellent'
p177
F0.0031023392829397211
sS'delivers'
p178
F0.0068835845239074425
sS'ee computer science'
p179
F0.005635599891092428
sS'functions.'
p180
F0.011876274213294192
sS'customer'
p181
F0.0040706493094066079
sS'intriguing'
p182
F0.013989224281637876
sS'honeywell.com'
p183
F0.014800748927881862
sS'developing'
p184
F0.0054698791327967341
sS'world.'
p185
F0.0077467936313293639
sS'applied mathematics'
p186
F0.014133063054031367
sS'work'
p187
F0.0019366769226919693
sS'hands-on'
p188
F0.0054755848277560394
sS'engineering'
p189
F0.0025990364353637128
sS'value'
p190
F0.0027062588801584145
sS'project'
p191
F0.0058589987120751582
sS'architect'
p192
F0.0049661207160747838
sS'making'
p193
F0.0045214503375576162
sS'problem'
p194
F0.0026250494436406845
sS'similar'
p195
F0.0052491453836932831
sS'are'
p196
F0.0068359345462933952
sS'control'
p197
F0.0059512638700700239
sS'function'
p198
F0.0048322867265427
sS'serde'
p199
F0.019468579199348721
sS'e.g.'
p200
F0.0040861096667823829
sS'computing'
p201
F0.0053123812035747444
sS'process'
p202
F0.0044666384718570293
sV(0, 2]
p203
F0.0046036219051475338
sS'generation'
p204
F0.0054528959831803853
sS'honeywell'
p205
F0.051912375660343527
sS'it'
p206
F0.003284796135120839
sS'proven'
p207
F0.0091880023369401032
sS'comfortable'
p208
F0.0060468566138506402
sS'high'
p209
F0.0034329843089180067
sS'raw'
p210
F0.0097380232535286305
sS'leadership'
p211
F0.0038002913784792327
sS'application'
p212
F0.0051125517852735102
sS'in'
p213
F0.0033248698342024227
sS'sas'
p214
F0.0036932115210411131
sS'take'
p215
F0.0040191375216515101
sS'activity'
p216
F0.004849958010171275
sS'technology'
p217
F0.0026497621797161508
sS'linked'
p218
F0.011543281265955285
sS'standardized'
p219
F0.011543281265955285
sS'information'
p220
F0.0015673480867661796
sS'answer'
p221
F0.0064911900778188165
sS'develop'
p222
F0.0017080816652276102
sS'floor'
p223
F0.012260686829464134
sS'efficient'
p224
F0.0063904936045161972
sS'predictive modeling'
p225
F0.0053948534889024079
sS'storage'
p226
F0.0076036308822749303
sS'hadoop'
p227
F0.0089012558760490496
sS'40'
p228
F0.0090779572919209902
sS'for'
p229
F0.0045527350801859478
sS'write'
p230
F0.006293706440991296
sS'also'
p231
F0.0033480617339464438
sS'responsibilities'
p232
F0.0022847439840173634
sS'architectures.'
p233
F0.01372648086831668
sS'5'
F0.0090928932896449464
sS'build'
p234
F0.0046050991412248769
sS'field'
p235
F0.00232434310080798
sS'new'
p236
F0.0038948960366632377
sS'you'
p237
F0.015925649219430005
sS'if'
p238
F0.0040140595821365754
sS'tool'
p239
F0.00297388133938123
sS'expected'
p240
F0.0067584872581007219
sS'toughest'
p241
F0.007792550052449298
sS"bachelor's"
p242
F0.0041846294256820222
sS'diversified'
p243
F0.012978093915085882
sS'models'
p244
F0.0072361097405236217
sS'collaboration'
p245
F0.0045183433483938704
sS'qualifications'
p246
F0.0037984553988483698
sS'driven'
p247
F0.0085630996008053805
sS'commercial'
p248
F0.005744894758273931
sS'connected'
p249
F0.0081654319239120917
sS'sql'
p250
F0.002355438594884577
sS'device'
p251
F0.007996964327526843
sS'data'
p252
F0.0038534328307192741
sS'lifecycle'
p253
F0.0074784006688281791
sS'efficiently'
p254
F0.0080095268975502211
sS'analytics/modeling'
p255
F0.017740033629167689
sS'volume'
p256
F0.0070493340901940649
sS'remote'
p257
F0.0083461113113126421
sS'especially'
p258
F0.0076468120199669762
sS'software engineering'
p259
F0.013687626483333271
sS'business process'
p260
F0.0065961249750100034
sS'macro'
p261
F0.011441481795614354
sS'data science analytics'
p262
F0.0091765354003719123
sS'extraction'
p263
F0.014737763951112219
sS'managing'
p264
F0.0099545873331060193
sS'depth'
p265
F0.0087863910006271122
sS'ingestion'
p266
F0.018041256689255918
sS'used'
p267
F0.0047559875619296726
sS'clean'
p268
F0.0075717287847371978
sS'oracle'
p269
F0.0065606537188750988
sS'organization'
p270
F0.0053439521382299179
sS'model'
p271
F0.0018370438207460553
sS'opportunity'
p272
F0.0012160827408796294
sS"that's"
p273
F0.0082059803291946176
s.