(dp1
S'all'
p2
F0.0072662016454950731
sS'lexicon'
p3
F0.023007341399046352
sS'closely'
p4
F0.0069511600437364646
sS'office'
p5
F0.019715668510807111
sS'diplomacy'
p6
F0.02033594148353024
sS'money'
p7
F0.012580119019610595
sS'global'
p8
F0.018209908592244306
sS'mission'
p9
F0.013884607570739916
sS'merit'
p10
F0.011391236606344078
sS'report'
p11
F0.012100737143862559
sS'proposition'
p12
F0.01558598023790589
sS'including'
p13
F0.0080165492177901136
sS'colleague'
p14
F0.0098965692586419889
sS'skill'
p15
F0.014630261702271549
sS'surveillance'
p16
F0.055866839752925099
sS'integrity'
p17
F0.0082755691833513688
sS'coordination'
p18
F0.012421417973657345
sS'staff'
p19
F0.0086529015131834846
sS'impact'
p20
F0.0065357722135309868
sS'based'
p21
F0.011625734491565802
sS'candidate'
p22
F0.011405853012286622
sS'explain'
p23
F0.01087102048130999
sS'relevant'
p24
F0.0063907356256831891
sS'state'
p25
F0.0081748745217902399
sS'improvement'
p26
F0.0078315058202306359
sS'source'
p27
F0.012040275599717203
sS'serve.'
p28
F0.018037235248367103
sVComputer Science
p29
F0.002639521126391247
sS'employee'
p30
F0.012533135267999014
sS'input'
p31
F0.011616693480470765
sS'strive'
p32
F0.010268511403205491
sS'oversight'
p33
F0.01319018291275305
sS'it.'
p34
F0.013652190935801655
sS'customer'
p35
F0.0046249561355426912
sS'supported'
p36
F0.015473834191614716
sS'provides'
p37
F0.0072301907422209974
sS'government'
p38
F0.0076009315324459623
sS'familiar'
p39
F0.011284726415252426
sS'practices.'
p40
F0.015112166569616106
sS'capital'
p41
F0.0090619417925667453
sS'execute'
p42
F0.0090987674079553924
sS'preferred'
p43
F0.0091027164754608376
sS'jurisdictions.'
p44
F0.02098650522803034
sS'every'
p45
F0.02806776558276328
sS'background'
p46
F0.0062294023825731782
sS'progress'
p47
F0.011974765433209697
sS'front'
p48
F0.025761001405163159
sS'strategic'
p49
F0.0070503972639674528
sS'day'
p50
F0.0076947979900656776
sS'bank'
p51
F0.02532566266448346
sVManagement Science and Engineering
p52
F0.0037596050684224266
sS'earn'
p53
F0.017334140507942311
sS'resolve'
p54
F0.010803739471270109
sS'system.'
p55
F0.015063976457440238
sS'reasonably'
p56
F0.025028178115108057
sS'developing'
p57
F0.0054644177024313978
sS'policies/scenarios'
p58
F0.025028178115108057
sS'applicable'
p59
F0.0088844843262292205
sS'standards'
p60
F0.028694522165932768
sS'large'
p61
F0.0050729590634041649
sS'banking'
p62
F0.01001253620570949
sS'safeguarding'
p63
F0.023007341399046352
sS'progress.'
p64
F0.021375809307182449
sS'common'
p65
F0.010663081691708624
sS'activity'
p66
F0.0079456843270450297
sS"public's"
p67
F0.027049015103692734
sS'security'
p68
F0.006371285177025632
sS'experienced'
p69
F0.0088108184980866065
sS'making'
p70
F0.017488865796390474
sS'ethical'
p71
F0.015824107518122556
sS'set'
p72
F0.0062712467880874602
sS'financial'
p73
F0.014962965165452735
sS'verbal'
p74
F0.0074992692674345218
sS'people'
p75
F0.0053105519672619617
sS'adhering'
p76
F0.016855124228305204
sS"clients'"
p77
F0.015016569963571719
sS'some'
p78
F0.011194618884205728
sS'maintain'
p79
F0.0075243543779749279
sS'professionalism'
p80
F0.017334140507942311
sS'growth'
p81
F0.0072727971483189336
sS'trading'
p82
F0.012270911799859053
sS'levels.'
p83
F0.016768089622840019
sS'year'
p84
F0.006192826750451904
sS'our'
p85
F0.022262273188546709
sS"citi's"
p86
F0.11178388691011758
sV(2, 5]
p87
F0.0036120828817234269
sS'project'
p88
F0.0043848958299652673
sS'detect'
p89
F0.013593880499190619
sS'judgment'
p90
F0.013115742616595625
sS'business'
p91
F0.0102816416619191
sS'trusted'
p92
F0.012041789177609452
sS'broad'
p93
F0.0089956131371722575
sS'legal'
p94
F0.012519589249855584
sS'written'
p95
F0.011997469522434915
sS'critical'
p96
F0.0079498460136977703
sS'imperative'
p97
F0.018788922251066435
sS'performs'
p98
F0.01087102048130999
sS'conduct'
p99
F0.01793191105360141
sS'new'
p100
F0.0037844361301789609
sS'origin.'
p101
F0.021375809307182449
sS'issue'
p102
F0.0071946192874184599
sS'email'
p103
F0.010037998011982116
sS'available'
p104
F0.0079498460136977703
sS'core'
p105
F0.0072727971483189336
sS'we'
p106
F0.0072770560237897875
sS'accessing'
p107
F0.015950885725089643
sS'ability'
p108
F0.0073997815542313364
sS'degree'
p109
F0.0071345988039486843
sS'team'
p110
F0.0085835954601684965
sS'communicate'
p111
F0.0058491046130658662
sS'standard'
p112
F0.007309341604732165
sVMaster
p113
F0.0021203518519655302
sS'leadership'
p114
F0.0096350356921505662
sS'key'
p115
F0.0057436698598359367
sS'others'
p116
F0.015481901190575442
sS'brokerage'
p117
F0.01713299565506585
sS'understanding'
p118
F0.0098848814404894764
sS'reflect'
p119
F0.017783558309477306
sS'about'
p120
F0.0072075041936228773
sS'providing'
p121
F0.0068352331269346828
sVBusiness
p122
F0.0031536861433647642
sS'country'
p123
F0.0099956843807219881
sS'compliance'
p124
F0.041718909183198975
sS'exceptionally'
p125
F0.015529368015217449
sS'priorities'
p126
F0.014834295960417472
sS'7'
F0.0099047013537303125
sS'investment'
p127
F0.01087102048130999
sS'credit'
p128
F0.0092639499248910982
sS'range'
p129
F0.0074532477197850559
sS'role'
p130
F0.0048924107123195148
sS'citi.'
p131
F0.023846064369823016
sS'strengthens'
p132
F0.023007341399046352
sS'positive'
p133
F0.010663081691708624
sS'powerpoint'
p134
F0.0071341819444147294
sS'constantly'
p135
F0.011131919940024848
sS'communication'
p136
F0.013846962324584751
sS'lending'
p137
F0.016016403982748628
sS'within'
p138
F0.005315608309627233
sS'primary'
p139
F0.0080906250359605216
sS'community'
p140
F0.0077254850607268452
sS'walk'
p141
F0.01644381772426912
sS'respect'
p142
F0.010986725477039149
sS'trust'
p143
F0.011705947343378596
sS'market'
p144
F0.015874757471364055
sS'illustrate'
p145
F0.017037398776500717
sS'investment banking'
p146
F0.014461606367890694
sS'wealth'
p147
F0.013292488877515706
sS'service'
p148
F0.014237665528974789
sV(5, 10]
p149
F0.0035149978471628535
sS'leading'
p150
F0.0052571565255805034
sS'engagement'
p151
F0.0085081406581625184
sS"department's"
p152
F0.021825227926284194
sS'regulation'
p153
F0.011364242033557665
sS'approximately'
p154
F0.010951529264751875
sS'priority'
p155
F0.0099872948578204265
sS'citi'
p156
F0.10912613963142097
sVBachelor
p157
F0.0026570811302329641
sS'foster'
p158
F0.011010427923501881
sS'asset'
p159
F0.0087280700512776879
sS'strong'
p160
F0.0040158242927145022
sS'expected'
p161
F0.010168753592384309
sS'analyze'
p162
F0.012850178771236545
sS'markets'
p163
F0.031171960475811781
sS'life'
p164
F0.0065127880667812449
sS'enable'
p165
F0.0083558330737299371
sS'diversity'
p166
F0.014706259226039376
sS'successful'
p167
F0.007531561381498816
sS'serve'
p168
F0.017521776217424647
sS'follow-through'
p169
F0.018788922251066435
sS'economic'
p170
F0.01266283133224173
sS'behalf'
p171
F0.015161166642040261
sS'excellent'
p172
F0.0058940154323428385
sS'highest'
p173
F0.01107054110086704
sS'160'
p174
F0.018037235248367103
sS'institution'
p175
F0.012835647256835458
sS'project management'
p176
F0.005543595694823749
sS'must'
p177
F0.01126499564768255
sS'sound'
p178
F0.011646142194870566
sS'account'
p179
F0.01072715850185612
sS'made'
p180
F0.020179197284982756
sS'word'
p181
F0.0081302293314813902
sS'culture'
p182
F0.0076381161980129154
sS'clients'
p183
F0.012041789177609452
sS'attention'
p184
F0.010419993162293285
sS'value'
p185
F0.01086176226292606
sS'machine learning'
p186
F0.0019111303843557998
sS'compile'
p187
F0.016683578126052444
sS'future'
p188
F0.0063351617650065067
sS'ms'
p189
F0.0079917929605160271
sS'promoted'
p190
F0.018315106947649491
sS'demonstrate'
p191
F0.0098007134205882439
sS'voice'
p192
F0.010974946129914509
sS'procedure'
p193
F0.0097462193135703264
sS'e-comm/voice'
p194
F0.025028178115108057
sS'constant'
p195
F0.015824107518122556
sS'behavior'
p196
F0.0096700962544362442
sS'process'
p197
F0.0048576054721347914
sS'project planning'
p198
F0.012145305584645237
sS'fixed income'
p199
F0.013995578712582396
sS'sales'
p200
F0.0096927251900612351
sS'globally'
p201
F0.012479923170824926
sS'need'
p202
F0.0051852993944953817
sS'im'
p203
F0.022356777382023515
sS'experience'
p204
F0.0049364766424450611
sS'want'
p205
F0.0077682143016671572
sS'arise'
p206
F0.016768089622840019
sS'organizational'
p207
F0.0091423269580980793
sS'partner'
p208
F0.0060395358383140496
sS"bachelors'"
p209
F0.023846064369823016
sS'work'
p210
F0.0084968365112676712
sS'management.'
p211
F0.013215424805664735
sS'strength'
p212
F0.011925489834431247
sS'develop'
p213
F0.0088786671840792464
sS'goal'
p214
F0.007346350034280121
sS'able'
p215
F0.0134310967713914
sS'provide'
p216
F0.0046169811527983027
sS'corporation'
p217
F0.010652537822912155
sS'excel'
p218
F0.0047141522647407156
sS'detail'
p219
F0.0085796226073996604
sS'graduate'
p220
F0.011169377263808294
sS'member'
p221
F0.0061073570988153967
sS'application'
p222
F0.0052538515691679189
sS'client'
p223
F0.010682044894088883
sS'5'
F0.0075825155760064333
sS'best'
p224
F0.010733320285022312
sS'widely'
p225
F0.016944837246356575
sS'responsibly'
p226
F0.023846064369823016
sS'program.'
p227
F0.014704699802556377
sS'explains'
p228
F0.017783558309477306
sS'corporate'
p229
F0.0091611964452453631
sS'development'
p230
F0.0035304985493122992
sS'200'
p231
F0.012345193757307473
sS'product'
p232
F0.011763786216190205
sS'used'
p233
F0.0078275095850564771
sS'multiple'
p234
F0.0056818099044681249
sS'collaborate/communicate'
p235
F0.025028178115108057
sS'may'
p236
F0.0067319564669973972
sS'tact'
p237
F0.021375809307182449
sS'workforce'
p238
F0.012216416602803334
sS'proficiency'
p239
F0.0076306412212440063
sS'produce'
p240
F0.010508793063836147
sS'identify opportunity'
p241
F0.01207588787386411
sS'america'
p242
F0.009738516934588607
sS'opportunity'
p243
F0.0036882863925380362
sS'payment'
p244
F0.013240887156960184
sS'million'
p245
F0.0074010333625108612
sS'demand'
p246
F0.011156837938951135
sS'transaction'
p247
F0.011798020262351669
sS'individual'
p248
F0.011946513723552677
sS'effective'
p249
F0.0082616315588891487
sS'consumer'
p250
F0.015583575755624454
sS'required'
p251
F0.009494552434339382
sS'region.'
p252
F0.023007341399046352
sS'data'
p253
F0.00069155386515727646
sS'practices'
p254
F0.013398515904550852
sS'responsibility'
p255
F0.0068666561768569176
sS'equities'
p256
F0.013865982827240369
sS'north'
p257
F0.012270911799859053
sS'the'
p258
F0.021431594175694933
sS'requires'
p259
F0.0088502532561097573
sS'scientists'
p260
F0.0086265185156121291
s.