(dp1
S'routinely'
p2
F0.0223
sS'office'
p3
F0.0062659999999999999
sS'accurate'
p4
F0.010545000000000001
sS'new hire'
p5
F0.017361000000000001
sS'anticipates'
p6
F0.016292000000000001
sS'provide feedback'
p7
F0.015336000000000001
sS'aspect'
p8
F0.016451
sS'cds'
p9
F0.138131
sS'skill'
p10
F0.0029859999999999999
sS'integrity'
p11
F0.0086160000000000004
sS'impact'
p12
F0.0056759999999999996
sS'study endpoint'
p13
F0.082525000000000001
sS'knowledge'
p14
F0.0089250000000000006
sS'drive'
p15
F0.004156
sS'state'
p16
F0.0083269999999999993
sS'coaching'
p17
F0.011934999999999999
sS'edit check'
p18
F0.071859000000000006
sS'listing'
p19
F0.015412
sS'relational database'
p20
F0.0081189999999999995
sS'extensive'
p21
F0.010579
sS'team'
p22
F0.001237
sS'awareness'
p23
F0.012181000000000001
sS'division'
p24
F0.0098539999999999999
sS'concise crfs targeted'
p25
F0.027508000000000001
sS'evaluate'
p26
F0.0074489999999999999
sS'define'
p27
F0.0065529999999999998
sS'data collection'
p28
F0.032719999999999999
sS'clinical affairs team'
p29
F0.027508000000000001
sS'report'
p30
F0.0090150000000000004
sS'provide input'
p31
F0.045784999999999999
sS'resource'
p32
F0.013877
sS'follows'
p33
F0.016395
sS'identified'
p34
F0.011610000000000001
sS'serves'
p35
F0.016095999999999999
sS'various data point'
p36
F0.043418999999999999
sS'discipline'
p37
F0.0079450000000000007
sS'environment cath lab'
p38
F0.027508000000000001
sS'monitoring committee'
p39
F0.055016000000000002
sS'requirement'
p40
F0.012265
sS'lab nursing'
p41
F0.027508000000000001
sS'verbal'
p42
F0.010477
sS'trend'
p43
F0.0069160000000000003
sS'consistent'
p44
F0.011004
sS'participate'
p45
F0.007522
sS'related'
p46
F0.0044999999999999997
sS'2 year'
p47
F0.0084960000000000001
sS'design'
p48
F0.0053540000000000003
sS'effective communication skill'
p49
F0.019466000000000001
sS'supportive'
p50
F0.014599000000000001
sS'ability'
p51
F0.003676
sS'project'
p52
F0.0026210000000000001
sS'clinical data'
p53
F0.016001999999999999
sS'collaborates'
p54
F0.011856999999999999
sS'managing'
p55
F0.0072760000000000003
sS'demonstrates'
p56
F0.012181000000000001
sS'review'
p57
F0.057615
sS'current'
p58
F0.0068450000000000004
sS'correlation among'
p59
F0.044599
sS'written'
p60
F0.0078180000000000003
sS'critical'
p61
F0.0070470000000000003
sS'safety'
p62
F0.036541999999999998
sS'provides'
p63
F0.0071120000000000003
sS'data collected'
p64
F0.017090999999999999
sS'new'
p65
F0.0030479999999999999
sS'clinicajiy meaningful'
p66
F0.027508000000000001
sS'issue'
p67
F0.0057219999999999997
sS'across'
p68
F0.007234
sS'core'
p69
F0.0067369999999999999
sS'dry run'
p70
F0.055016000000000002
sS'scientific'
p71
F0.033484
sS'associate'
p72
F0.0099520000000000008
sS'high quality'
p73
F0.010739
sS'understanding'
p74
F0.0083180000000000007
sS'accountable'
p75
F0.012874999999999999
sS'leadership'
p76
F0.0055240000000000003
sS'mentoring'
p77
F0.0097050000000000001
sS'bs'
p78
F0.0097850000000000003
sS'data quality'
p79
F0.019990000000000001
sS'released'
p80
F0.017812999999999999
sS'monitor'
p81
F0.018638999999999999
sS'proactively identify'
p82
F0.015911000000000002
sS'cross functional team'
p83
F0.0141
sS'technical'
p84
F0.0030769999999999999
sS'study'
p85
F0.071052000000000004
sS'programming'
p86
F0.0059779999999999998
sS'experience'
p87
F0.001209
sS'prior'
p88
F0.011447000000000001
sS'conducted'
p89
F0.012296
sS'ensure'
p90
F0.043416000000000003
sS'therapeutic area'
p91
F0.020778999999999999
sS'multi-disciplinary'
p92
F0.017812999999999999
sS'facilitate'
p93
F0.039195000000000001
sS'support'
p94
F0.002215
sS'may adversely impact'
p95
F0.055016000000000002
sS'relevant'
p96
F0.0058840000000000003
sS'ms degree'
p97
F0.012605
sS'2 year experience working'
p98
F0.025264999999999999
sS'clear'
p99
F0.017804
sS'appropriate'
p100
F0.0067000000000000002
sS'apply'
p101
F0.0045450000000000004
sS'identify th'
p102
F0.027508000000000001
sS'quality'
p103
F0.010826000000000001
sS'pharmaceutical'
p104
F0.014312
sS'ensures'
p105
F0.011610000000000001
sS'management'
p106
F0.0036589999999999999
sS'working'
p107
F0.0035100000000000001
sS'basis'
p108
F0.0098809999999999992
sS'performs medora coding'
p109
F0.027508000000000001
sS'leading'
p110
F0.0046369999999999996
sS'interact'
p111
F0.017541000000000001
sS'participates'
p112
F0.011447000000000001
sS'regulation'
p113
F0.013018999999999999
sS'clinical'
p114
F0.092254000000000003
sS'examination'
p115
F0.023952999999999999
sS'collected'
p116
F0.031140000000000001
sS'study protocol'
p117
F0.063631999999999994
sS'meeting'
p118
F0.0095630000000000003
sS'work independently'
p119
F0.0089960000000000005
sS'data management'
p120
F0.043952999999999999
sS'communicate finding'
p121
F0.013853000000000001
sS'function'
p122
F0.0068170000000000001
sS'complete'
p123
F0.0097050000000000001
sS'relationship'
p124
F0.0067530000000000003
sS'acquire'
p125
F0.014258
sS'accurately'
p126
F0.0141
sS'collect data'
p127
F0.015048000000000001
sS'phone'
p128
F0.014368000000000001
sS'thorough understanding'
p129
F0.013901
sS'team member'
p130
F0.0064689999999999999
sS'functional area'
p131
F0.012573000000000001
sS'junior'
p132
F0.012670000000000001
sS'standard'
p133
F0.0059369999999999996
sS'regulatory requirement'
p134
F0.016723999999999999
sS'b'
F0.014204
sS'look'
p135
F0.010314
sS'proactively'
p136
F0.011610000000000001
sS'adverse event'
p137
F0.055016000000000002
sS'serf'
p138
F0.012478
sS'record'
p139
F0.0099520000000000008
sS'computer'
p140
F0.0082419999999999993
sS'establishes rapport'
p141
F0.027508000000000001
sS'independent research'
p142
F0.015911000000000002
sS'problem'
p143
F0.0044790000000000003
sS'clinical research'
p144
F0.016964
sS'industry'
p145
F0.0036819999999999999
sS'constructive'
p146
F0.025264999999999999
sS'procedural'
p147
F0.018967999999999999
sS'detailed'
p148
F0.023078000000000001
sS'concurrently'
p149
F0.0223
sS'associated'
p150
F0.0099950000000000004
sS'delay'
p151
F0.019206999999999998
sS'process'
p152
F0.0032750000000000001
sS'proactively identify trend'
p153
F0.027508000000000001
sS'medical'
p154
F0.020854000000000001
sS'examine'
p155
F0.018154
sS'clinical data scientist cds draw'
p156
F0.027508000000000001
sS'statistical analysis'
p157
F0.0063829999999999998
sS'ms word excel'
p158
F0.023952999999999999
sS'activity'
p159
F0.0067060000000000002
sS'technology'
p160
F0.0023479999999999998
sS'result'
p161
F0.0041799999999999997
sS'sap'
p162
F0.030672000000000001
sS'develop'
p163
F0.0025240000000000002
sS'maintains'
p164
F0.023172000000000002
sS'perform meddra coding'
p165
F0.027508000000000001
sS'perform'
p166
F0.017281999999999999
sS'personnel'
p167
F0.011586000000000001
sS'travel'
p168
F0.0073769999999999999
sS'responsible'
p169
F0.0039849999999999998
sS'able'
p170
F0.0050080000000000003
sS'detail'
p171
F0.0074419999999999998
sS'member'
p172
F0.0062989999999999999
sS'internal'
p173
F0.010371999999999999
sS'build'
p174
F0.003156
sS'user acceptance testing'
p175
F0.019466000000000001
sS'accuracy'
p176
F0.021405
sS'development'
p177
F0.0065139999999999998
sS'continuous'
p178
F0.012840000000000001
sS'multiple'
p179
F0.0062480000000000001
sS'actively participate'
p180
F0.016292000000000001
sS'collaboration'
p181
F0.0063680000000000004
sS'minimum'
p182
F0.012092
sS'examine medically meaningful'
p183
F0.027508000000000001
sS'hand'
p184
F0.0097850000000000003
sS'reflect'
p185
F0.020056999999999998
sS'minimal supervision'
p186
F0.012737
sS'plan'
p187
F0.0061539999999999997
sS'statistics'
p188
F0.0084419999999999999
sS'data'
p189
F0.012633999999999999
sS'medical device'
p190
F0.019466000000000001
sS'understands'
p191
F0.011705999999999999
sS'task'
p192
F0.0067210000000000004
sS'effective'
p193
F0.0071720000000000004
sS'database'
p194
F0.0095510000000000005
sS'minimize'
p195
F0.018744
sS'clinically plausible'
p196
F0.027508000000000001
sS'required'
p197
F0.0031359999999999999
sS'well'
p198
F0.0076490000000000004
sS'disease'
p199
F0.016611000000000001
sS'powerpoint'
p200
F0.010756999999999999
sS'clinically meaningfully'
p201
F0.027508000000000001
sS'used'
p202
F0.006796
sS'gain'
p203
F0.011988
sS'5 year'
p204
F0.014071
sS'data element'
p205
F0.016964
sS'specification'
p206
F0.011469999999999999
sS'high quality crfs'
p207
F0.027508000000000001
sS'external'
p208
F0.0074879999999999999
s.