(dp1
S'emerging'
p2
F0.009797422702774769
sS'code'
p3
F0.0067636199103016104
sS'svn'
p4
F0.01864819119699692
sS'nosql'
p5
F0.0076877720906362978
sS'boot'
p6
F0.016074346340550529
sS'executive'
p7
F0.0086556568951480471
sS'merit'
p8
F0.010975264483078704
sS'alien'
p9
F0.011293074893770306
sS'bring'
p10
F0.0069226195128966527
sS'maintain'
p11
F0.007249588628217416
sS'including'
p12
F0.0038619050304803497
sS'human'
p13
F0.0091145079881493826
sS'committed'
p14
F0.012643836597172069
sS'integrity'
p15
F0.015946742864547864
sS'web 2.0'
p16
F0.017942252841997477
sS'alignment'
p17
F0.012241134739643425
sS'ground'
p18
F0.010233282743527826
sS'inspiring'
p19
F0.01932648146898289
sS'compose'
p20
F0.022167185673800278
sS'based'
p21
F0.0056005996216391433
sS'knowledge'
p22
F0.0038942624810177563
sS'adp'
p23
F0.050967196567356148
sS'consistently'
p24
F0.0093977588181294418
sS'possible.'
p25
F0.010039487794007294
sS'disability'
p26
F0.0053658751933010245
sS'responsible'
p27
F0.005568019066331106
sS'the'
p28
F0.0034414966302731089
sS'platform'
p29
F0.016023483061723704
sS'forbes'
p30
F0.01071348972477649
sVComputer Science
p31
F0.0025431341189668475
sS'fuel'
p32
F0.0099203318930568482
sS'cloud.'
p33
F0.010835107339999378
sS'bitbucket/github'
p34
F0.024114227790679954
sS'do'
p35
F0.0078078427060810232
sS'around'
p36
F0.006708743166804778
sS'entire'
p37
F0.021670214679998755
sS'practice'
p38
F0.0061620707161434271
sS'every'
p39
F0.0067607047716908737
sS'deployment'
p40
F0.0084356733147846526
sS'world'
p41
F0.0058357091105607356
sS'more.'
p42
F0.0093314910069831614
sS'highly'
p43
F0.0054854073448056626
sS'servlet'
p44
F0.022975281120363188
sS'strive'
p45
F0.0098935376721895601
sS'node.js'
p46
F0.012454036157134739
sS'fortune'
p47
F0.0077450967059713959
sS'like'
p48
F0.019699602584954682
sS'identifying'
p49
F0.0078504659176615085
sS'skills'
p50
F0.0060854341710360541
sS'gender'
p51
F0.0060422405851516823
sS'covering'
p52
F0.015129203284453543
sS'companies'
p53
F0.026407331558095784
sS'solution'
p54
F0.022362982114347993
sS'server'
p55
F0.010910688497524993
sS'couchbase'
p56
F0.019593336878794585
sS'continue'
p57
F0.0089893556129018205
sS'excellence'
p58
F0.0076958900358146502
sS'architecture'
p59
F0.0061432992210243209
sS'enterprise'
p60
F0.020557534508461962
sS'each'
p61
F0.010463136568921616
sS'sonar'
p62
F0.022167185673800278
sS'security'
p63
F0.0061386258868533477
sS'half-million'
p64
F0.011382255055208486
sS'enjoy'
p65
F0.0075765178182869777
sS'predictive'
p66
F0.006028737380710596
sS'mental'
p67
F0.0095984794184216342
sS'containerization'
p68
F0.018856359395531819
sS'people'
p69
F0.0051166273167720586
sS"forbes'"
p70
F0.010398560845927555
sS'spring'
p71
F0.023788772240204849
sS'creed'
p72
F0.010039487794007294
sS'innovative'
p73
F0.011381404608725196
sS'related'
p74
F0.0042000815916704631
sS'sex'
p75
F0.0065020249995923797
sS'unlock'
p76
F0.0097044881623586272
sVMaster
p77
F0.0020429232731016202
sS'year'
p78
F0.0029833421002879259
sS'expertise'
p79
F0.005302758644871456
sS'employment'
p80
F0.005294103590851227
sS'best'
p81
F0.010341373195962508
sS'ability'
p82
F0.0035647824060412196
sS'blue'
p83
F0.017509246102105566
sS'in-memory'
p84
F0.018856359395531819
sS'potential'
p85
F0.007246123142316872
sS'business'
p86
F0.016510314091939378
sS'expert'
p87
F0.0058694469224358529
sS'consistency'
p88
F0.013896308569975402
sS"master's"
p89
F0.0078461743707279267
sS'kube'
p90
F0.024114227790679954
sS'redis'
p91
F0.013717332876120186
sS'tool'
p92
F0.011576380094257896
sS'research'
p93
F0.0047930356273131365
sS'everything'
p94
F0.0089382837833776128
sS'race'
p95
F0.0057694256147555146
sS'adp.'
p96
F0.011322488132309072
sS'innovation'
p97
F0.010875419506374851
sS'approach'
p98
F0.006294637195985579
sS'across'
p99
F0.0092286611023890928
sS'optima'
p100
F0.024114227790679954
sS'core'
p101
F0.0070072174771724557
sS'we'
p102
F0.010516981247864736
sS'infrastructure'
p103
F0.0071642090201313883
sS'product development'
p104
F0.0073412256988250281
sS'degree'
p105
F0.0034370328507786498
sS'associate'
p106
F0.0084783132288591585
sS'websphere'
p107
F0.016909320166931391
sS'deliver'
p108
F0.0057612491081436871
sS'team'
p109
F0.0027567165195110429
sS'data scientist'
p110
F0.0029757631043929164
sS'technical leadership'
p111
F0.012636796959248032
sS'js'
p112
F0.016155771743354287
sS'job'
p113
F0.0080178058333897958
sS'leadership'
p114
F0.004641597250572534
sS'operating'
p115
F0.0080049569494808504
sS'architectural'
p116
F0.038806122930748137
sS"computerworld's"
p117
F0.010540400589925794
sS'100'
p118
F0.0078418893711797565
sS'standard'
p119
F0.0070424274450087993
sS'b2b'
p120
F0.009763271493253298
sS'change'
p121
F0.0063444380152552797
sS'empowering'
p122
F0.010020823873296348
sS'pipeline'
p123
F0.009763271493253298
sS'interaction'
p124
F0.0086671216462081008
sS'your'
p125
F0.0074433746512059208
sS'service'
p126
F0.004572583592170742
sS'career'
p127
F0.0064208352689793715
sS'industry'
p128
F0.0045954001910483563
sS'bachelor'
p129
F0.011876322083989411
sS'experience'
p130
F0.0071343180689269212
sS'implementation'
p131
F0.0066859541582661311
sS'magazine'
p132
F0.0097463503481455705
sS'ensure'
p133
F0.0065367834332063128
sS'workplace'
p134
F0.016101408675782969
sS'qualification'
p135
F0.0086613834210433234
sS'social'
p136
F0.0069881964824985944
sS'azure'
p137
F0.012543930418901252
sS'status.'
p138
F0.0093607505209438689
sS'non-job'
p139
F0.011322488132309072
sS'road'
p140
F0.014087468670737052
sS'software'
p141
F0.0045183062932086559
sS'origin'
p142
F0.0058106691046785064
sS'named'
p143
F0.01795300066353276
sS'regardless'
p144
F0.0091620596954466484
sS'ucp'
p145
F0.024114227790679954
sS'color'
p146
F0.0056121894883097564
sS'manage'
p147
F0.006124652364800435
sS'qualifications'
p148
F0.0043233228263463855
sS'one'
p149
F0.022983740676520866
sS'capital'
p150
F0.0087310281877820053
sS'65'
p151
F0.011068240028335358
sS'national'
p152
F0.0055813888426466032
sS'lawful'
p153
F0.011068240028335358
sS'redefining'
p154
F0.010134714246106444
sS'counts'
p155
F0.010936341016110015
sS'quality'
p156
F0.0060877260251164496
sS'angular'
p157
F0.014704399290284159
sS'cloud'
p158
F0.013882400139915606
sS'engineer'
p159
F0.0054468196673337693
sS'comprised'
p160
F0.009763271493253298
sS'strong'
p161
F0.0077383580471970474
sS'java'
p162
F0.003481086987832257
sS'working'
p163
F0.003667463800808248
sS'source'
p164
F0.0058003013071671354
sS'xap'
p165
F0.024114227790679954
sS'leading'
p166
F0.0050651817086351473
sS'support'
p167
F0.0079116448303863749
sS"world's"
p168
F0.01535127799735983
sS'genetic'
p169
F0.0083522876809398877
sS'asset'
p170
F0.0084093483921018168
sS'way'
p171
F0.012481714767387847
sS'recommend'
p172
F0.0099383377678195998
sS'utilizing'
p173
F0.008027737503377777
sVBusiness
p174
F0.0030385234471182981
sS'globe'
p175
F0.010419921555025821
sS'containers'
p176
F0.022167185673800278
sS'insightful'
p177
F0.0099113720562719505
sS'exploring'
p178
F0.0093460826640983288
sS'direction'
p179
F0.0083780807529315778
sS'diversity'
p180
F0.0070846164529936879
sS'success.'
p181
F0.010678008077344248
sS'believe'
p182
F0.0078981108588197391
sS'findbug'
p183
F0.024114227790679954
sS'envelope'
p184
F0.010345859135000347
sVManagement Science and Engineering
p185
F0.0036223161192946414
sS'it'
p186
F0.0058736927908560983
sS'innovation.'
p187
F0.010253418424799331
sS'push'
p188
F0.0093314910069831614
sS'automated'
p189
F0.008046095922196626
sS'marital'
p190
F0.0076918281302510959
sS'provider'
p191
F0.0081019023311153359
sS'aspirational'
p192
F0.020595232001021292
sS'compute'
p193
F0.015629898463122467
sS'places'
p194
F0.0098935376721895601
sS'this'
p195
F0.0044883112372338749
sS'science'
p196
F0.0019748142926800348
sS'blackduck'
p197
F0.020220144082062942
sS'work'
p198
F0.0054577058489977733
sS'value'
p199
F0.0052325624384601662
sS'brilliant'
p200
F0.010125045002516288
sS'protected'
p201
F0.0060558090303266142
sS'architect'
p202
F0.023335160141769808
sS'following'
p203
F0.0066831184904723381
sS'religion'
p204
F0.0058420041539648014
sS'define'
p205
F0.0078461743707279267
sS'similar'
p206
F0.008097209211186597
sS'employees'
p207
F0.009655063440291883
sS'control'
p208
F0.0088881240372315658
sS'admired'
p209
F0.010596920072603315
sVBachelor
p210
F0.0025600528867132212
sS'orientation'
p211
F0.0059143519691475348
sS'e.g.'
p212
F0.0067870505945181753
sS'inclusive'
p213
F0.0094202001372785255
sS'modern'
p214
F0.0098146552916016823
sS'life'
p215
F0.012549923072505432
sS'equal'
p216
F0.0046927494656256721
sS'cluster'
p217
F0.0098669966362906637
sS'experts'
p218
F0.010452270323683517
sS'at'
p219
F0.011629653929824476
sS'world-wide'
p220
F0.011235156597961732
sS'need'
p221
F0.0049959485739098763
sS'results-driven'
p222
F0.010701612638719828
sS'technology'
p223
F0.017805252900240345
sS'marathon'
p224
F0.018454391258761915
sS'physical'
p225
F0.0081540509433341672
sS'information'
p226
F0.0038963629200263893
sS'develop'
p227
F0.0042772230957010974
sS'design'
p228
F0.0041023000281417907
sS'provide'
p229
F0.0044483835264320717
sS'sexual'
p230
F0.006017534096331636
sS'veteran'
p231
F0.0055114302239482943
sS'offer'
p232
F0.0058779450883377415
sS'-'
F0.016761414869798406
sS'excel'
p233
F0.0045420062550732172
sS'data'
p234
F0.00033315024683840708
sS'power'
p235
F0.0082267600062358726
sS'application'
p236
F0.01012399487766627
sS'responsibilities'
p237
F0.0047576716796180699
sS'vital'
p238
F0.0096879164343185147
sS'computer science'
p239
F0.0039493911887281477
sS'responsibility'
p240
F0.006615907496241356
sS'largest'
p241
F0.01528707604191476
sS'objective'
p242
F0.0086499420209158392
sS'performance'
p243
F0.010989347143860425
sS'intelligent'
p244
F0.009488620369251426
sS'company'
p245
F0.0039323129263755504
sS'development'
p246
F0.0034015758494778613
sS'map'
p247
F0.010962229971609691
sS'product'
p248
F0.0037780699177464793
sS'comprehensive'
p249
F0.0075648549680244585
sS'reactjs'
p250
F0.018273103540609414
sS'aws'
p251
F0.0073412256988250281
sS'architects'
p252
F0.042262406012211151
sS'hand'
p253
F0.010398560845927555
sS'driven'
p254
F0.0070072174771724557
sS'most'
p255
F0.02740436638769082
sS'public'
p256
F0.0090943725694321523
sS'organization'
p257
F0.004952763593487868
sS'future'
p258
F0.006103821588194472
sS'hands-on'
p259
F0.0083522876809398877
sS'stack'
p260
F0.010067718286802457
sS'identity'
p261
F0.0063269070976593473
sS'status'
p262
F0.01083193157035732
sS'million'
p263
F0.0071307709082618692
sS'forever'
p264
F0.010540400589925794
sS'github'
p265
F0.010474045014295863
sS'database'
p266
F0.005530166752582626
sS'saas'
p267
F0.0086728716185411839
sS'tomcat'
p268
F0.013971218851246863
sS'recognized'
p269
F0.0089958053847803022
sS'age'
p270
F0.0063194272183819261
sS'required'
p271
F0.009147841249939349
sS'drive'
p272
F0.0053499625630149773
sS'person'
p273
F0.008182909095453
sS'chief'
p274
F0.010409220895072043
sS'client'
p275
F0.0051459851104950658
sS'personal'
p276
F0.0077951808632990413
sS'gemfire'
p277
F0.01932561191719627
sS'databases'
p278
F0.0064676914981145793
sS'oracle'
p279
F0.0073736558948351736
sS'management'
p280
F0.0025450810876394723
sS'docker'
p281
F0.012024195639306038
sS'first'
p282
F0.0081254862850530934
sS'opportunity'
p283
F0.0035536017770801866
sS'latest'
p284
F0.015565151692549416
s.