(dp1
S'staffingaadar merckcom'
p2
F0.027782999999999999
sS'help'
p3
F0.0035330000000000001
sS'phone call'
p4
F0.014744999999999999
sS'show'
p5
F0.012873000000000001
sS'please'
p6
F0.010687
sS'global'
p7
F0.012267999999999999
sS'competitive'
p8
F0.011088000000000001
sS'data discovery'
p9
F0.016119999999999999
sS'scientist'
p10
F0.010286999999999999
sS'including'
p11
F0.0030109999999999998
sS'innovative'
p12
F0.0060780000000000001
sS'deep learning technique'
p13
F0.021715999999999999
sS'machine learning technique'
p14
F0.010326
sS'integrity'
p15
F0.0094750000000000008
sS'eeoc poster'
p16
F0.026339999999999999
sS'integrative analytical solution'
p17
F0.030249000000000002
sS'impact'
p18
F0.006241
sS'knowledge'
p19
F0.013084999999999999
sS'candidate'
p20
F0.013306
sS'personal'
p21
F0.0097780000000000002
sS'effort'
p22
F0.0071459999999999996
sS'technique'
p23
F0.0048250000000000003
sS'ideation'
p24
F0.017212000000000002
sS'environment'
p25
F0.0041200000000000004
sS'source'
p26
F0.0080420000000000005
sS'program'
p27
F0.0055690000000000002
sS'r python'
p28
F0.011238
sS'matlab'
p29
F0.013242
sS'turn data'
p30
F0.015861
sS'employee'
p31
F0.031888
sS'resume submitted'
p32
F0.025316000000000002
sS'written communication'
p33
F0.013861
sS'colleague'
p34
F0.020653000000000001
sS'collaborate'
p35
F0.0060619999999999997
sS'signal processing'
p36
F0.016327999999999999
sS'demonstrated experience applying'
p37
F0.025316000000000002
sS'merck co'
p38
F0.055565000000000003
sS'big'
p39
F0.010326
sS'preferred'
p40
F0.0051180000000000002
sS'number'
p41
F0.011070999999999999
sS'goal realizing'
p42
F0.030249000000000002
sS'predictive translatable biomarkers'
p43
F0.030249000000000002
sS'valuable'
p44
F0.012539
sS'working closely'
p45
F0.012187999999999999
sS'developing solution'
p46
F0.012689000000000001
sS'advanced'
p47
F0.0055589999999999997
sS'strive'
p48
F0.009835
sS'like'
p49
F0.0076610000000000003
sS'skills'
p50
F0.015473000000000001
sS'sole property'
p51
F0.024521999999999999
sS'benefit'
p52
F0.0074260000000000003
sS'common'
p53
F0.011448
sS'global team'
p54
F0.013272000000000001
sS'analytical'
p55
F0.0048479999999999999
sS'wide range'
p56
F0.0099629999999999996
sS'passionate'
p57
F0.0072610000000000001
sS'towards'
p58
F0.039546999999999999
sS'adapts'
p59
F0.022849000000000001
sS'design implement'
p60
F0.013861
sS'requirement'
p61
F0.004496
sS'right'
p62
F0.0085640000000000004
sS'people'
p63
F0.0046049999999999997
sS'participate'
p64
F0.0082710000000000006
sS'machine learning data mining'
p65
F0.013095000000000001
sS'openings 1'
p66
F0.022429999999999999
sS'thinker'
p67
F0.015233
sS'individual'
p68
F0.0056600000000000001
sS'result'
p69
F0.0091940000000000008
sS'recommendation'
p70
F0.0071300000000000001
sS'event'
p71
F0.010378999999999999
sS'best'
p72
F0.0061460000000000004
sS'diverse team'
p73
F0.015339999999999999
sS'canada'
p74
F0.013332999999999999
sS'expert'
p75
F0.0067580000000000001
sS'quantitative analysis'
p76
F0.011466
sS'decision'
p77
F0.0061139999999999996
sS'data steward'
p78
F0.022849000000000001
sS'research'
p79
F0.012603
sS'method'
p80
F0.0049769999999999997
sS'critical'
p81
F0.0077489999999999998
sS'various'
p82
F0.0061500000000000001
sS'internet'
p83
F0.011596
sS'new'
p84
F0.0067039999999999999
sS'job title sr'
p85
F0.020858000000000002
sS'leader'
p86
F0.0056179999999999997
sS'demonstrated'
p87
F0.0073169999999999997
sS'achieve targeted outcome'
p88
F0.019963000000000002
sS'cross-functional team'
p89
F0.011023
sS'deemed'
p90
F0.024521999999999999
sS'working'
p91
F0.0038600000000000001
sS'ability'
p92
F0.0020209999999999998
sS'business'
p93
F0.0048890000000000001
sS'accepting unsolicited'
p94
F0.026339999999999999
sS'data scientist'
p95
F0.0070530000000000002
sS'agreement'
p96
F0.015861
sS'drug'
p97
F0.016548
sS'job'
p98
F0.0042370000000000003
sS'fee'
p99
F0.019415000000000002
sS'key'
p100
F0.0057029999999999997
sS'making'
p101
F0.0089999999999999993
sS'informatics'
p102
F0.032239999999999998
sS'accommodation'
p103
F0.011324000000000001
sS'company trade'
p104
F0.020858000000000002
sS'travel yes 10'
p105
F0.018145000000000001
sS'search'
p106
F0.040044999999999997
sS'lifestyle'
p107
F0.019415000000000002
sS'talented'
p108
F0.010447
sS'career'
p109
F0.0074970000000000002
sS'excel depends'
p110
F0.027782999999999999
sS'experience'
p111
F0.0019940000000000001
sS'thrive'
p112
F0.0093830000000000007
sS'healthier'
p113
F0.019771
sS'plus'
p114
F0.005463
sS'therapeutic'
p115
F0.021406000000000001
sS'support'
p116
F0.0024359999999999998
sS'designed'
p117
F0.012300999999999999
sS'commitment'
p118
F0.010121
sS'one'
p119
F0.0082209999999999991
sS'united states'
p120
F0.0097439999999999992
sS'email'
p121
F0.020920999999999999
sS'primary location na-us-nj-rahway'
p122
F0.030249000000000002
sS'analyzing'
p123
F0.0098230000000000001
sS'learning'
p124
F0.0078270000000000006
sS'data mining'
p125
F0.0066670000000000002
sS'new kind'
p126
F0.023872999999999998
sS'multidimensional datasets'
p127
F0.030249000000000002
sS'statistics'
p128
F0.0092829999999999996
sS'usa'
p129
F0.017597000000000002
sS'area'
p130
F0.0048339999999999998
sS'data'
p131
F0.001737
sS'create'
p132
F0.0095610000000000001
sS'visit'
p133
F0.014316000000000001
sS'priority'
p134
F0.010274
sS'teamwork'
p135
F0.021579999999999998
sS'combined'
p136
F0.016188000000000001
sS'forward'
p137
F0.014276
sS'analyze'
p138
F0.0063049999999999998
sS'today'
p139
F0.01112
sS'firm'
p140
F0.019879000000000001
sS'building'
p141
F0.0046369999999999996
sS'life'
p142
F0.0058840000000000003
sS'diversity'
p143
F0.0081910000000000004
sS'option'
p144
F0.013426
sS'form'
p145
F0.011466
sS'company'
p146
F0.0036280000000000001
sS'interpersonal skill'
p147
F0.013272000000000001
sS'animal health'
p148
F0.027782999999999999
sS'part'
p149
F0.0048679999999999999
sS'manifestation'
p150
F0.027782999999999999
sS'known'
p151
F0.013153
sS'firm representatives please read carefully'
p152
F0.027782999999999999
sS'inc kenilworth nj'
p153
F0.027782999999999999
sS'knowledge imagination skill'
p154
F0.027782999999999999
sS'datasets'
p155
F0.010687
sS'diversified portfolio'
p156
F0.027782999999999999
sS'developing'
p157
F0.0048139999999999997
sS'characteristic'
p158
F0.013687
sS'challenge'
p159
F0.006705
sS'valid written'
p160
F0.025316000000000002
sS'electrical engineering'
p161
F0.017034000000000001
sS'project'
p162
F0.002882
sS'matter'
p163
F0.011828999999999999
sS'merck'
p164
F0.11113000000000001
sS'finally assessing'
p165
F0.027782999999999999
sS'many'
p166
F0.0089099999999999995
sS'demonstrate'
p167
F0.009495
sS'problem'
p168
F0.0049249999999999997
sS'referral'
p169
F0.018145000000000001
sS'prescription medicine vaccine'
p170
F0.027782999999999999
sS'make sound'
p171
F0.019248999999999999
sS'dedicated'
p172
F0.010222
sS'analytics platform'
p173
F0.014119
sS'data scientist-inf004679'
p174
F0.030249000000000002
sS'expanding'
p175
F0.014119
sS"company's success"
p176
F0.020858000000000002
sS"master's degree"
p177
F0.0079600000000000001
sS'high'
p178
F0.0089899999999999997
sS'need'
p179
F0.0076559999999999996
sS'health care'
p180
F0.010378999999999999
sS'minimum'
p181
F0.0066480000000000003
sS'following area'
p182
F0.012514000000000001
sS'ready'
p183
F0.0106
sS'name merck'
p184
F0.027782999999999999
sS'education'
p185
F0.005816
sS'eeoc gina supplement'
p186
F0.027782999999999999
sS'inc'
p187
F0.013067
sS'information'
p188
F0.0082209999999999991
sS'employment opportunity'
p189
F0.017597000000000002
sS'end'
p190
F0.011070999999999999
sS'offering'
p191
F0.010944000000000001
sS'image processing'
p192
F0.016781999999999998
sS'regular'
p193
F0.012233000000000001
sS'open'
p194
F0.0096670000000000002
sS'mutual respect encouragement'
p195
F0.027782999999999999
sS'responsible'
p196
F0.0043819999999999996
sS'process please'
p197
F0.027782999999999999
sS'phd degree preferred'
p198
F0.021406000000000001
sS'application'
p199
F0.0038830000000000002
sS'high energy'
p200
F0.018794000000000002
sS'excellent oral'
p201
F0.0147
sS'build'
p202
F0.0034710000000000001
sS'algorithm'
p203
F0.0044219999999999997
sS"company's"
p204
F0.012442
sS'equal opportunity employer minority female disability veteran proudly embracing diversity'
p205
F0.027782999999999999
sS'development'
p206
F0.0047749999999999997
sS'product'
p207
F0.0026870000000000002
sS'used'
p208
F0.0074729999999999996
sS'description'
p209
F0.0073619999999999996
sS'collaborative'
p210
F0.009332
sS'preparation data analytics'
p211
F0.027782999999999999
sS'time'
p212
F0.0054000000000000003
sS'qualifications'
p213
F0.0042890000000000003
sS'merck via email'
p214
F0.027782999999999999
sS'paid'
p215
F0.013653
sS'new idea'
p216
F0.01379
sS'driven'
p217
F0.007156
sS'hired'
p218
F0.019588000000000001
sS'applied mathematics bioinformatics'
p219
F0.024521999999999999
sS'validate cutting-edge'
p220
F0.020611999999999998
sS'phase'
p221
F0.013124
sS'future'
p222
F0.0054200000000000003
sS'opportunity'
p223
F0.0035699999999999998
sS'goal'
p224
F0.0063730000000000002
sS'status'
p225
F0.0080420000000000005
sS'using'
p226
F0.0039509999999999997
sS'equal employment opportunity'
p227
F0.012036
sS'self-motivator'
p228
F0.026339999999999999
sS'required'
p229
F0.0068960000000000002
sS'persistent'
p230
F0.022055000000000002
sS'without'
p231
F0.012846
sS'biomedical engineering computer science'
p232
F0.030249000000000002
sS"you'll"
p233
F0.0081770000000000002
sS'client'
p234
F0.0045469999999999998
sS'u'
F0.016573000000000001
sS'place'
p235
F0.010048
sS'healthcare'
p236
F0.0081689999999999992
sS'position'
p237
F0.0034979999999999998
sS'reward'
p238
F0.01503
sS'diverse'
p239
F0.0069519999999999998
sS'assistance'
p240
F0.013067
sS'mean'
p241
F0.011448
s.