(dp1
S'interpretation'
p2
F0.017203
sS'sustain capability'
p3
F0.033943000000000001
sS'value added'
p4
F0.027404000000000001
sS'effectiveness bracco diagnostics'
p5
F0.033943000000000001
sS'leads'
p6
F0.016847999999999998
sS'including'
p7
F0.0073569999999999998
sS'statistical'
p8
F0.033230000000000003
sS'committed'
p9
F0.0070650000000000001
sS'minitab sas spss'
p10
F0.033943000000000001
sS'staff'
p11
F0.010415000000000001
sS'ivd pharmaceutical'
p12
F0.033943000000000001
sS'iso13485'
p13
F0.033943000000000001
sS'knowledge'
p14
F0.011990000000000001
sS'application'
p15
F0.0047450000000000001
sS'implementation'
p16
F0.0074159999999999998
sS'qsrs iso 13485'
p17
F0.033943000000000001
sS'technique'
p18
F0.0058950000000000001
sS'statistical justification'
p19
F0.033943000000000001
sS'better'
p20
F0.0098600000000000007
sS'4'
F0.014784
sS'excellent written'
p21
F0.013546000000000001
sS'presentation'
p22
F0.0083160000000000005
sS'senior statistician data scientist'
p23
F0.033943000000000001
sS'collaborate'
p24
F0.0074060000000000003
sS'experiencerequired'
p25
F0.033943000000000001
sS'experimental design'
p26
F0.015566
sS'department'
p27
F0.010007
sS'decide'
p28
F0.025805000000000002
sS'report'
p29
F0.018168
sS'diagnostic efficacy patient safety'
p30
F0.033943000000000001
sS'continued'
p31
F0.021375999999999999
sS'pharmaceutical'
p32
F0.038456999999999998
sS'comply'
p33
F0.022026
sS'monroe nj'
p34
F0.033943000000000001
sS'term'
p35
F0.014891
sS'several'
p36
F0.014355
sS'related experience'
p37
F0.013257
sS'summary'
p38
F0.013546000000000001
sS'specific'
p39
F0.0094439999999999993
sS'masters degree'
p40
F0.010024999999999999
sS'science'
p41
F0.019467000000000002
sS'organizational skill'
p42
F0.01652
sS'determine'
p43
F0.012831
sS'trend'
p44
F0.0092919999999999999
sS'related'
p45
F0.006045
sS'project deliverable'
p46
F0.024638
sS'cost'
p47
F0.013220000000000001
sS'perspective'
p48
F0.012442
sS'multi-task'
p49
F0.019377999999999999
sS'understandable manner'
p50
F0.029166000000000001
sS'serf'
p51
F0.016764000000000001
sS'pharmaceutics operations'
p52
F0.033943000000000001
sS'statistical theory'
p53
F0.022468999999999999
sS'currently'
p54
F0.014076
sS'applied statistic'
p55
F0.020705999999999999
sS'medical device biotech'
p56
F0.033943000000000001
sS'decision making'
p57
F0.013056
sS'timeline'
p58
F0.016978
sS'approach'
p59
F0.0071419999999999999
sS'method'
p60
F0.012161999999999999
sS'discovery'
p61
F0.014477
sS'data analysis'
p62
F0.0084130000000000003
sS'root cause analysis'
p63
F0.021375999999999999
sS'ability'
p64
F0.0049379999999999997
sS'business'
p65
F0.0059740000000000001
sS'opening'
p66
F0.015998999999999999
sS'subject matter expert'
p67
F0.013164
sS'marketing'
p68
F0.015099
sS'processing'
p69
F0.011084999999999999
sS'communicate'
p70
F0.0084869999999999998
sS'10 year'
p71
F0.014144
sS'analyzes'
p72
F0.01652
sS'industry standards'
p73
F0.030929000000000002
sS'bachelors degree'
p74
F0.009868
sS'regulatory'
p75
F0.017797
sS'modeling'
p76
F0.007339
sS'manufacturing'
p77
F0.032210999999999997
sS'interpret'
p78
F0.012985999999999999
sS'5-10 year'
p79
F0.024389999999999998
sS'sampling plan'
p80
F0.092787999999999995
sS'industry'
p81
F0.0098930000000000008
sS'compliance'
p82
F0.012899000000000001
sS'statistical method'
p83
F0.013667
sS'experience'
p84
F0.000812
sS'practical'
p85
F0.028195999999999999
sS'implement'
p86
F0.0061529999999999996
sS'hospital'
p87
F0.019612999999999998
sS'industrial'
p88
F0.016681000000000001
sS'work-related experience'
p89
F0.033943000000000001
sS'within'
p90
F0.0052199999999999998
sS'primarily'
p91
F0.016764000000000001
sS'manage'
p92
F0.0073049999999999999
sS'apply'
p93
F0.018318000000000001
sS'throughout'
p94
F0.011414000000000001
sS'united states bracco diagnostics inc'
p95
F0.033943000000000001
sS'market'
p96
F0.0081799999999999998
sS'environment'
p97
F0.0050330000000000001
sS'use'
p98
F0.0047029999999999997
sS'management'
p99
F0.0049160000000000002
sS'test'
p100
F0.0084620000000000008
sS'support'
p101
F0.005953
sS'participates'
p102
F0.015379
sS'question'
p103
F0.0097169999999999999
sS'continuous improvement'
p104
F0.016403000000000001
sS'bracco diagnostics inc specializes'
p105
F0.033943000000000001
sS'needed'
p106
F0.0090869999999999996
sS'clinical'
p107
F0.013771
sS'mentor bdi staff'
p108
F0.033943000000000001
sS'analyze'
p109
F0.0077029999999999998
sS'responsibilities include'
p110
F0.016034
sS'location'
p111
F0.0087500000000000008
sS'diagnostic contrast imaging agent'
p112
F0.033943000000000001
sS'cgmps including 21cfr parts 210 211 11 eudralex -'
p113
F0.033943000000000001
sS'jmp'
p114
F0.025482999999999999
sS'statistical model'
p115
F0.012260999999999999
sS'volume'
p116
F0.019948
sS'part'
p117
F0.005947
sS'excellent'
p118
F0.0089669999999999993
sS'ha'
p119
F0.0080770000000000008
sS'sound'
p120
F0.017156999999999999
sS'project simultaneously'
p121
F0.027916
sS'cgmp regulated medical device'
p122
F0.033943000000000001
sS'statistical concept'
p123
F0.017743999999999999
sS'multidisciplinary team'
p124
F0.021028000000000002
sS'imaging agent'
p125
F0.033943000000000001
sS'individual'
p126
F0.0069150000000000001
sS'verification'
p127
F0.020504000000000001
sS'attention'
p128
F0.014307
sS'following'
p129
F0.015788
sS'meet'
p130
F0.0082450000000000006
sS'problem'
p131
F0.018051000000000001
sS'providing'
p132
F0.0075290000000000001
sS'statistical analysis'
p133
F0.0085749999999999993
sS'control'
p134
F0.025971000000000001
sS'process'
p135
F0.013202
sS'federal cgmps'
p136
F0.033943000000000001
sS'mentors'
p137
F0.027404000000000001
sS'effectively'
p138
F0.0091660000000000005
sS'engineering'
p139
F0.017614000000000001
sS'minimum'
p140
F0.016244999999999999
sS'process charting'
p141
F0.033943000000000001
sS'education'
p142
F0.014212000000000001
sS'work collaboratively'
p143
F0.013467
sS'answer'
p144
F0.012128999999999999
sS'develop'
p145
F0.006783
sS'periodic trend'
p146
F0.033943000000000001
sS'responsible'
p147
F0.0053540000000000003
sS'detail'
p148
F0.0099979999999999999
sS'field'
p149
F0.0086070000000000001
sS'methodology'
p150
F0.015271
sS'role'
p151
F0.0045209999999999998
sS'finding'
p152
F0.0095230000000000002
sS'information relative'
p153
F0.03218
sS'equivalent combination'
p154
F0.016978
sS'required 5-10 year'
p155
F0.03218
sS'control chart'
p156
F0.03218
sS'conclusion'
p157
F0.017743999999999999
sS'development'
p158
F0.0087510000000000001
sS'product'
p159
F0.0032829999999999999
sS'generates'
p160
F0.021624999999999998
sS'job'
p161
F0.005176
sS'numerical'
p162
F0.018015
sS'pharmaceutical contrast agent'
p163
F0.033943000000000001
sS'collection'
p164
F0.014918000000000001
sS'metrics'
p165
F0.027916
sS'develops'
p166
F0.010543
sS'data driven'
p167
F0.014891
sS'assigned project'
p168
F0.020310000000000002
sS'statistics'
p169
F0.011341
sS'solution aimed'
p170
F0.026945
sS'data'
p171
F0.0021220000000000002
sS'medical device'
p172
F0.078458
sS'audit'
p173
F0.018610999999999999
sS'collecting data'
p174
F0.026530999999999999
sS'chemistry'
p175
F0.025805000000000002
sS'essential duties'
p176
F0.018610999999999999
sS'prioritize'
p177
F0.0126
sS'required'
p178
F0.0084250000000000002
sS'sale'
p179
F0.010907
sS'analysis'
p180
F0.014250000000000001
sS'solve'
p181
F0.017239000000000001
sS'verbal communication skill'
p182
F0.013835
sS'validation'
p183
F0.025009
sS'decision'
p184
F0.0074700000000000001
sS'regulatory filing'
p185
F0.033943000000000001
s.