(dp1
S'code'
p2
F0.014773
sS'application server servlet container tomcat administration'
p3
F0.024965999999999999
sS'bring'
p4
F0.006476
sS'-- mq webservices service'
p5
F0.024965999999999999
sS'solutions'
p6
F0.058368999999999997
sS'committed'
p7
F0.011775000000000001
sS'medium low'
p8
F0.084858000000000003
sS'skill'
p9
F0.0066870000000000002
sS'parippany nj'
p10
F0.026817000000000001
sS'scripting ant maven'
p11
F0.024965999999999999
sS'principal'
p12
F0.013106
sS'git jenkins ansible terraform cloudformation etc'
p13
F0.024305
sS'inspiring'
p14
F0.010253999999999999
sS'least 5 year'
p15
F0.015563
sS'adp'
p16
F0.041786999999999998
sS'environment'
p17
F0.0083879999999999996
sS'automation hudson jenkins'
p18
F0.024965999999999999
sS'forbes'
p19
F0.011459
sS'experience managing'
p20
F0.013669000000000001
sS'pipeline'
p21
F0.024086
sS'include'
p22
F0.013538
sS'shell scripting wsadmin jython scripting'
p23
F0.024965999999999999
sS'automated testing'
p24
F0.016847000000000001
sS'audit trail'
p25
F0.024305
sS'cloud trail etc'
p26
F0.024305
sS'fortune magazine'
p27
F0.011583
sS'outlined'
p28
F0.019598000000000001
sS'watch'
p29
F0.015509
sS'preferred'
p30
F0.0052100000000000002
sS'cloud experts'
p31
F0.011864
sS'deployment'
p32
F0.016649000000000001
sS'using'
p33
F0.01609
sS'one'
p34
F0.012553999999999999
sS'strive'
p35
F0.010012999999999999
sS'resource'
p36
F0.0077679999999999997
sS'level'
p37
F0.0053460000000000001
sS'--'
p38
F0.025094999999999999
sS'ci cd tool'
p39
F0.022454999999999999
sS'solution'
p40
F0.0051529999999999996
sS'equal employment opportunity regardless'
p41
F0.011786
sS'skills'
p42
F0.0078770000000000003
sS'continue'
p43
F0.0088020000000000008
sS'masters degree'
p44
F0.0083540000000000003
sS'team'
p45
F0.0013849999999999999
sS'continuous delivery'
p46
F0.034509999999999999
sS'race color genetic information creed religion sex sexual orientation gender identity lawful alien status national origin age marital status non-job related physical'
p47
F0.011786
sS'people'
p48
F0.0046880000000000003
sS'globe'
p49
F0.0088439999999999994
sS'related'
p50
F0.0050379999999999999
sS'brilliant engineer architect data scientist infrastructure expert'
p51
F0.010692
sS'unlock'
p52
F0.0097000000000000003
sS'adp power'
p53
F0.011864
sS'design'
p54
F0.0029970000000000001
sS'career potential technology'
p55
F0.010807000000000001
sS'system administration'
p56
F0.017916000000000001
sS'largest provider'
p57
F0.011806000000000001
sS'click'
p58
F0.014701000000000001
sS'product development'
p59
F0.0077060000000000002
sS'saas solution'
p60
F0.010621999999999999
sS'vital asset employee'
p61
F0.010807000000000001
sS'job performance'
p62
F0.011749000000000001
sS'+'
F0.012168
sS'personal merit qualification experience'
p63
F0.011786
sS'looking'
p64
F0.0049129999999999998
sS'future'
p65
F0.0055180000000000003
sS'db build packaging --'
p66
F0.024965999999999999
sS'provider'
p67
F0.022315999999999999
sS'ground'
p68
F0.010851
sS'industry standard'
p69
F0.062037000000000002
sS'infrastructure'
p70
F0.0074209999999999996
sS'ability'
p71
F0.0020579999999999999
sS'workflow'
p72
F0.011511
sS'working world'
p73
F0.011825
sS'65 year'
p74
F0.023727000000000002
sS'million'
p75
F0.0074669999999999997
sS'deliver'
p76
F0.0049410000000000001
sS'notification process'
p77
F0.024305
sS'release'
p78
F0.013450999999999999
sS'management'
p79
F0.0040969999999999999
sS'provider agnostic'
p80
F0.024305
sS'known baseline'
p81
F0.024305
sS'using terraform cloudformation'
p82
F0.024305
sS'hand'
p83
F0.021909999999999999
sS'every interaction'
p84
F0.011223
sS'change'
p85
F0.0066010000000000001
sS'associate excel based'
p86
F0.011786
sS'on-prem iaas offering'
p87
F0.024305
sS'cloud native application'
p88
F0.024305
sS'service'
p89
F0.003869
sS'mental disability'
p90
F0.010925000000000001
sS'industry'
p91
F0.0041219999999999998
sS'programming'
p92
F0.0066930000000000002
sS'experience'
p93
F0.0020300000000000001
sS"world's"
p94
F0.0092940000000000002
sS'ensure'
p95
F0.012152
sS'git jenkins'
p96
F0.024305
sS'qualification'
p97
F0.010880000000000001
sS'implement'
p98
F0.0051279999999999997
sS'software'
p99
F0.0036979999999999999
sS'duty'
p100
F0.010330000000000001
sS'architect scm branching strategy'
p101
F0.024305
sS'core value insightful expertise integrity'
p102
F0.011390000000000001
sS'measurable risk'
p103
F0.024305
sS'unix'
p104
F0.014222
sS'solution world-wide'
p105
F0.011864
sS'troubleshooting'
p106
F0.012364
sS'integration bus wmb high'
p107
F0.028285999999999999
sS'redefining'
p108
F0.010253999999999999
sS'everything service excellence inspiring innovation'
p109
F0.011390000000000001
sS'latest innovation'
p110
F0.010735
sS'quality'
p111
F0.0060600000000000003
sS'post'
p112
F0.016344000000000001
sS'cloud'
p113
F0.031716000000000001
sS'engineer'
p114
F0.0061679999999999999
sS'comprised'
p115
F0.0097750000000000007
sS'research empowering'
p116
F0.010777999999999999
sS'git'
p117
F0.014874999999999999
sS'java'
p118
F0.016433
sS'working'
p119
F0.0039300000000000003
sS'leading'
p120
F0.0051919999999999996
sS'support'
p121
F0.00248
sS'configuration management'
p122
F0.018020999999999999
sS'devops'
p123
F0.01404
sS'specifically'
p124
F0.013025
sS'strategy'
p125
F0.010225
sS'priority'
p126
F0.010460000000000001
sS'drive business success consistently named one'
p127
F0.011864
sS'way'
p128
F0.0054679999999999998
sS'docker maven sonarcube blackduck nexus etc'
p129
F0.024305
sS'diversity fuel innovation adp'
p130
F0.011786
sS'knowledge'
p131
F0.0066610000000000003
sS'100 uptime using blue green'
p132
F0.024305
sS'industry standard toolsets'
p133
F0.024305
sS'life'
p134
F0.011979999999999999
sS'medium'
p135
F0.03737
sS'high performance'
p136
F0.013542999999999999
sS'offer'
p137
F0.0058279999999999998
sS'tool'
p138
F0.0078469999999999998
sS'way business manage'
p139
F0.010777999999999999
sS'engineering team'
p140
F0.010253999999999999
sS'integration soa knowledge'
p141
F0.024965999999999999
sS'believe'
p142
F0.007502
sS'architect fault tolerant self-healing cloud'
p143
F0.024305
sS'b'
F0.015903
sS'seeking'
p144
F0.0065240000000000003
sS'comprehensive solution'
p145
F0.011730000000000001
sS'work'
p146
F0.0012620000000000001
sS'inclusive workplace'
p147
F0.011407
sS'monitoring tool wily introscope suite dyna trace sitescope medium'
p148
F0.028285999999999999
sS'architect'
p149
F0.045720999999999998
sS'verification'
p150
F0.017086
sS'office mas r'
p151
F0.026817000000000001
sS'following'
p152
F0.0065779999999999996
sS'scripting'
p153
F0.011547
sS'protected veteran status'
p154
F0.0092849999999999999
sS'possible named one'
p155
F0.010807000000000001
sS'designing viable continuous integration'
p156
F0.024305
sS'forever change'
p157
F0.010777999999999999
sS'appdynamics ca wily sitescope cloud'
p158
F0.024305
sS'high'
p159
F0.091533000000000003
sS'single'
p160
F0.017618000000000002
sS'ansible'
p161
F0.018856000000000001
sS'highly automated intelligent'
p162
F0.01072
sS'following area'
p163
F0.012741000000000001
sS"computerworld's 100 best places"
p164
F0.010777999999999999
sS'technology'
p165
F0.0026289999999999998
sS'well'
p166
F0.0042820000000000002
sS'monitoring'
p167
F0.01018
sS"world's largest b2b cloud company"
p168
F0.010692
sS'latest operating platform'
p169
F0.01072
sS'admired companies'
p170
F0.011674
sS'responsible'
p171
F0.0044619999999999998
sS'-'
F0.054213999999999998
sS'virtualization vmware z os'
p172
F0.024305
sS'innovative companies adp ha'
p173
F0.011864
sS'application'
p174
F0.003954
sS'computer science'
p175
F0.0056379999999999998
sS'significance'
p176
F0.024305
sS'performance'
p177
F0.0052950000000000002
sS'enjoy exploring identifying'
p178
F0.010735
sS'workplace'
p179
F0.0075129999999999997
sS'deviation'
p180
F0.021503999999999999
sS"bachelor's"
p181
F0.015011999999999999
sS'webtier knowledge loadbalancers layer7 apache'
p182
F0.024305
sS'predictive solution'
p183
F0.010609
sS'aws'
p184
F0.0099430000000000004
sS'google cloud'
p185
F0.019283000000000002
sS'envelope utilizing'
p186
F0.01072
sS'driven'
p187
F0.0072859999999999999
sS'person counts results-driven social responsibility'
p188
F0.011547
sS'sql'
p189
F0.0040289999999999996
sS'human capital management'
p190
F0.011710999999999999
sS'build'
p191
F0.014135
sS'5 year'
p192
F0.0078770000000000003
sS'docker mesos marathon kube high'
p193
F0.028285999999999999
sS'individual'
p194
F0.0057629999999999999
sS'continuous integration loop using'
p195
F0.024305
sS'recognized'
p196
F0.0090799999999999995
sS'innovative companies'
p197
F0.010706
sS'cluster compute --'
p198
F0.024305
sS'devops engineer'
p199
F0.019436999999999999
sS'half-million client around'
p200
F0.011864
sS'push'
p201
F0.0093519999999999992
sS'senior'
p202
F0.0073920000000000001
sS'first'
p203
F0.0085990000000000007
sS"forbes'"
p204
F0.010595
s.