(dp1
S'code'
p2
F0.028714
sS'process'
p3
F0.014255
sS'various data type'
p4
F0.094482999999999998
sS'within'
p5
F0.016909
sS'unstructuredaudit statistical analysis'
p6
F0.11971900000000001
sS'statistical measurescreate r'
p7
F0.11971900000000001
sS'quality control'
p8
F0.064619999999999997
sS'statistical concept'
p9
F0.057481999999999998
sS'individual'
p10
F0.044803000000000003
sS'including'
p11
F0.023831999999999999
sS'relational dimensional'
p12
F0.10424600000000001
sS'aspect'
p13
F0.035798999999999997
sS'modeling'
p14
F0.023772999999999999
sS'need'
p15
F0.01515
sS'data science'
p16
F0.016701000000000001
sS'work'
p17
F0.0049049999999999996
sS'technology'
p18
F0.010220999999999999
sS'workstrong background'
p19
F0.11971900000000001
sS'scoring'
p20
F0.067075999999999997
sS'education requirementsbachelors degree'
p21
F0.11971900000000001
sS'group'
p22
F0.050005000000000001
sS'degree'
p23
F0.031884000000000003
sS'working'
p24
F0.015276
sS'scoringqualifications'
p25
F0.11971900000000001
sS'create'
p26
F0.018919999999999999
sS'b testing'
p27
F0.058356999999999999
sS'responsibilities'
p28
F0.017492000000000001
sS'internal'
p29
F0.022571000000000001
sS'machine learning platformsimplement appropriate'
p30
F0.11971900000000001
sS'expected'
p31
F0.039669000000000003
sS'role'
p32
F0.014647
sS'regression analysis factoring clustering decision tree'
p33
F0.10424600000000001
sS'self-motivated'
p34
F0.047301999999999997
sS'vertical'
p35
F0.063023999999999997
sS'strategic goalscreate report'
p36
F0.11971900000000001
sS'marketing'
p37
F0.024455000000000001
sS'statistician'
p38
F0.112998
sS'reporting'
p39
F0.028981
sS'confidence interval'
p40
F0.10424600000000001
sS'preferred'
p41
F0.020254999999999999
sS'statistical model'
p42
F0.079435000000000006
sS'mathematics statistics'
p43
F0.070905999999999997
sS'produce'
p44
F0.042645000000000002
sS'experimental designexperience'
p45
F0.11971900000000001
sS'performance measure'
p46
F0.081576999999999997
sS'accuracyproduce segmentation'
p47
F0.11971900000000001
sS'client theyare seeking'
p48
F0.109956
sS'masters'
p49
F0.039432000000000002
sS'rapid growth'
p50
F0.083593000000000001
sS'passion'
p51
F0.027452000000000001
sS'business user'
p52
F0.053011999999999997
sS'efficiency'
p53
F0.041563999999999997
sS'lift'
p54
F0.070472000000000007
sS'documentation'
p55
F0.033062000000000001
sS'solution'
p56
F0.010015
sS'analysis'
p57
F0.034622
sS'across'
p58
F0.015741000000000002
sS'experience'
p59
F0.0026310000000000001
sS'part'
p60
F0.019265000000000001
sS'excellence'
p61
F0.033457000000000001
sS'analytical'
p62
F0.019186000000000002
sS'implement'
p63
F0.019932999999999999
sS'support'
p64
F0.0096410000000000003
sS'procedure'
p65
F0.034713000000000001
s.