(dp1
S''
I1
sS'global'
p2
I1
sS'existing'
p3
I1
sS'alien'
p4
I1
sS'manager'
p5
I1
sS'integrity'
p6
I1
sS'reasoning'
p7
I1
sS'issues'
p8
I1
sS'religion'
p9
I1
sS'disability'
p10
I1
sS'environment'
p11
I1
sS'suite'
p12
I1
sS'resources'
p13
I1
sS'collaborate'
p14
I1
sS'r12'
p15
I1
sS'risk'
p16
I1
sS'provider'
p17
I1
sS'every'
p18
I1
sS'more.'
p19
I1
sS'skills'
p20
I1
sS'gender'
p21
I1
sS'companies'
p22
I1
sS'solution'
p23
I1
sS'large'
p24
I1
sS'race'
p25
I1
sS'excellence'
p26
I1
sS'team'
p27
I1
sS'becker'
p28
I1
sS'configurations'
p29
I1
sS'enjoy'
p30
I1
sS'coordinate'
p31
I1
sS'direct'
p32
I1
sS'cost'
p33
I1
sS'design'
p34
I1
sS'enhancement'
p35
I1
sS'investment'
p36
I1
sS'will'
p37
I1
sS'power'
p38
I1
sS'smes'
p39
I1
sS'specification'
p40
I1
sS'localization'
p41
I1
sS'consistently'
p42
I1
sS'designing'
p43
I1
sS'new'
p44
I1
sS'satisfy'
p45
I1
sS'10+'
p46
I1
sS'full'
p47
I1
sS'degree'
p48
I1
sS'non-job'
p49
I1
sS'leveraging'
p50
I1
sS'component'
p51
I1
sS'delivering'
p52
I1
sS'measure-taking'
p53
I1
sS'operating'
p54
I1
sS'others'
p55
I1
sS'100'
p56
I1
sS'b2b'
p57
I1
sS'change'
p58
I1
sS'brilliant'
p59
I1
sS'employees'
p60
I1
sS'compliance'
p61
I1
sS'reports'
p62
I1
sS'3+'
p63
I1
sS'procedure'
p64
I1
sS'social'
p65
I1
sS'action'
p66
I1
sS'implement'
p67
I1
sS'maker'
p68
I1
sS'named'
p69
I1
sS'regardless'
p70
I1
sS'130936'
p71
I1
sS'manage'
p72
I1
sS'prefer'
p73
I1
sS'highly'
p74
I1
sS'apply'
p75
I1
sS'counts'
p76
I1
sS'establish'
p77
I1
sS'cloud'
p78
I1
sS'comprised'
p79
I1
sS'use'
p80
I1
sS'gaap'
p81
I1
sS'working'
p82
I1
sV(5, 10]
p83
I1
sS"world's"
p84
I1
sS'asset'
p85
I1
sS'scope'
p86
I1
sS'capital'
p87
I1
sV(10, 15]
p88
I1
sS'company'
p89
I1
sS'envelope'
p90
I1
sS'business process'
p91
I1
sS'teaching'
p92
I1
sS'effort'
p93
I1
sS'hardware'
p94
I1
sS'word'
p95
I1
sS'setup'
p96
I1
sS'work'
p97
I1
sS'modified'
p98
I1
sS'meet'
p99
I1
sS'admired'
p100
I1
sS'process'
p101
I1
sS'tax'
p102
I1
sS'effectively'
p103
I1
sS"computerworld's"
p104
I1
sS'information'
p105
I1
sS'needs'
p106
I1
sS'end'
p107
I1
sS'goal'
p108
I1
sS'provide'
p109
I1
sS'travel'
p110
I1
sS'ledger'
p111
I1
sS'pl/sql'
p112
I1
sS'methodology'
p113
I1
sS'vital'
p114
I1
sS'criterion'
p115
I1
sS'plus'
p116
I1
sS'intelligent'
p117
I1
sS'product'
p118
I1
sS'farm'
p119
I1
sS'respective'
p120
I1
sS'diagram'
p121
I1
sS'value'
p122
I1
sS'improving'
p123
I1
sS'data'
p124
I1
sS'a'
I1
sS'documentation'
p125
I1
sS'life'
p126
I1
sS'go-live'
p127
I1
sS'element'
p128
I1
sS'cutovers'
p129
I1
sS'ireceivables'
p130
I1
sS'responsibility'
p131
I1
sS'cloud.'
p132
I1
sS'order'
p133
I1
sS"forbes'"
p134
I1
sS'hiring'
p135
I1
sS'including'
p136
I1
sS'committed'
p137
I1
sS'trouble'
p138
I1
sS'developer'
p139
I1
sS'personal'
p140
I1
sS'better'
p141
I1
sS'platform'
p142
I1
sS'systems'
p143
I1
sS'policy'
p144
I1
sS'defining'
p145
I1
sS'good'
p146
I1
sS'return'
p147
I1
sS'propose'
p148
I1
sS'practice'
p149
I1
sS'milestone'
p150
I1
sS'order-to-cash'
p151
I1
sS'strive'
p152
I1
sS'execute'
p153
I1
sS'parameter'
p154
I1
sS'each'
p155
I1
sS'end-to-end'
p156
I1
sS'development'
p157
I1
sS'financial'
p158
I1
sS'mental'
p159
I1
sS'globe'
p160
I1
sS'related'
p161
I1
sS'marital'
p162
I1
sS'unlock'
p163
I1
sS'year'
p164
I1
sS'operation'
p165
I1
sS'sexual'
p166
I1
sS'concur'
p167
I1
sS'req'
p168
I1
sS'research'
p169
I1
sS'7'
I1
sS'problem-solving'
p170
I1
sS'issue'
p171
I1
sS'workflow'
p172
I1
sS'million'
p173
I1
sS'data scientist'
p174
I1
sS'mapping'
p175
I1
sS'techno'
p176
I1
sS'user/client'
p177
I1
sS'advance'
p178
I1
sS'training'
p179
I1
sS'interaction'
p180
I1
sS'language'
p181
I1
sS'half-million'
p182
I1
sS'liaison'
p183
I1
sS'qualification'
p184
I1
sS'first'
p185
I1
sS'origin'
p186
I1
sS'coding'
p187
I1
sS'one'
p188
I1
sS'owner'
p189
I1
sS'engineer'
p190
I1
sS'management'
p191
I1
sS'service'
p192
I1
sS'leading'
p193
I1
sS"oracle's"
p194
I1
sS'system'
p195
I1
sS'least'
p196
I1
sS'insightful'
p197
I1
sS'exploring'
p198
I1
sS'configure'
p199
I1
sS'roseland'
p200
I1
sS'tool'
p201
I1
sS'believe'
p202
I1
sS'project'
p203
I1
sS'future'
p204
I1
sS'architect'
p205
I1
sS'outcome'
p206
I1
sS"organization's"
p207
I1
sS'experience.'
p208
I1
sS'need'
p209
I1
sS'conversion'
p210
I1
sS'strength'
p211
I1
sS'enhancing'
p212
I1
sS'efficient'
p213
I1
sS'veteran'
p214
I1
sS'responsible'
p215
I1
sS'thorough'
p216
I1
sS'potential'
p217
I1
sS'deploying'
p218
I1
sS'finding'
p219
I1
sS'performance'
p220
I1
sS'effectiveness'
p221
I1
sS"bachelor's"
p222
I1
sS'multiple'
p223
I1
sS'procure'
p224
I1
sS'most'
p225
I1
sS'organization'
p226
I1
sS'model'
p227
I1
sS'ariba'
p228
I1
sS'mitigate'
p229
I1
sS'cause'
p230
I1
sS'flow'
p231
I1
sS'drive'
p232
I1
sS'managing'
p233
I1
sS'latest'
p234
I1
sS'end-user'
p235
I1
sS'merit'
p236
I1
sS'bring'
p237
I1
sS'planning'
p238
I1
sS'07068'
p239
I1
sS'ground'
p240
I1
sS'best-practice'
p241
I1
sS'inspiring'
p242
I1
sS'based'
p243
I1
sS'knowledge'
p244
I1
sS'implementation'
p245
I1
sS'operational'
p246
I1
sS'factor'
p247
I1
sS'fuel'
p248
I1
sS'rice'
p249
I1
sS'do'
p250
I1
sS'conduct'
p251
I1
sS'overall'
p252
I1
sS'preferred'
p253
I1
sS'report'
p254
I1
sS'resolve'
p255
I1
sS'resource'
p256
I1
sS'teams'
p257
I1
sS'analytical'
p258
I1
sS'fixed'
p259
I1
sS'multi-cultural'
p260
I1
sS'predictive'
p261
I1
sS'requirement'
p262
I1
sS'national'
p263
I1
sS'testing'
p264
I1
sS'module'
p265
I1
sS'sex'
p266
I1
sS'ebs'
p267
I1
sS'alternative'
p268
I1
sS'best'
p269
I1
sS'cost-benefit'
p270
I1
sS'probable'
p271
I1
sS'expert'
p272
I1
sS"master's"
p273
I1
sS'review'
p274
I1
sS'litech'
p275
I1
sS'protected'
p276
I1
sS'various'
p277
I1
sS'approach'
p278
I1
sS'across'
p279
I1
sS'we'
p280
I1
sS'infrastructure'
p281
I1
sS'ability'
p282
I1
sS'interfaces'
p283
I1
sS'deliver'
p284
I1
sS'implementing'
p285
I1
sS'job'
p286
I1
sS'key'
p287
I1
sS'interface'
p288
I1
sS'configuration'
p289
I1
sS'empowering'
p290
I1
sS'efficiency'
p291
I1
sS'career'
p292
I1
sS'equal'
p293
I1
sS'etc'
p294
I1
sS'workplace'
p295
I1
sS'logic'
p296
I1
sS'pdf'
p297
I1
sS'expense'
p298
I1
sS'color'
p299
I1
sS'overview'
p300
I1
sS'address'
p301
I1
sS'initiative'
p302
I1
sS'65'
p303
I1
sS'learning'
p304
I1
sS'upgrades'
p305
I1
sS'forms'
p306
I1
sS'java'
p307
I1
sS'enhancements'
p308
I1
sS'create'
p309
I1
sS'strategy'
p310
I1
sS'genetic'
p311
I1
sS'remediate'
p312
I1
sS'utilizing'
p313
I1
sS'define'
p314
I1
sS'direction'
p315
I1
sS'diversity'
p316
I1
sS'innovation.'
p317
I1
sS'worked'
p318
I1
sS'developing'
p319
I1
sS'cash'
p320
I1
sS'resume'
p321
I1
sS'aim'
p322
I1
sS'technical'
p323
I1
sS'optimization'
p324
I1
sS'aid'
p325
I1
sS'post-implementation'
p326
I1
sS'orientation'
p327
I1
sS'it'
p328
I1
sS'verticals'
p329
I1
sS'experts'
p330
I1
sS'experience'
p331
I1
sS'world-wide'
p332
I1
sS'technology'
p333
I1
sS'buy-in'
p334
I1
sS'develop'
p335
I1
sS'perform'
p336
I1
sS'pay'
p337
I1
sS'make'
p338
I1
sS'member'
p339
I1
sS'compiling'
p340
I1
sS'weakness'
p341
I1
sS'physical'
p342
I1
sS'status'
p343
I1
sS'comprehensive'
p344
I1
sS'qualifications'
p345
I1
sS'director'
p346
I1
sS'adptech'
p347
I1
sS'driven'
p348
I1
sS'user'
p349
I1
sS'opportunity'
p350
I1
sS'identity'
p351
I1
sS'cycle'
p352
I1
sS'builder'
p353
I1
sS'persuasive'
p354
I1
sS'well'
p355
I1
sS'analysis'
p356
I1
sS'person'
p357
I1
sS'client'
p358
I1
sS'savvy'
p359
I1
sS'position'
p360
I1
sS'the'
p361
I1
sS'investments'
p362
I1
sS'justify'
p363
I1
sS'proposed'
p364
I1
sS'versed'
p365
I1
sS'executive'
p366
I1
sS'identify'
p367
I1
sS'purchasing'
p368
I1
sS'human'
p369
I1
sS'skill'
p370
I1
sS'discipline'
p371
I1
sS'adp'
p372
I1
sS'possible.'
p373
I1
sS'forbes'
p374
I1
sS'collections'
p375
I1
sS'location'
p376
I1
sS'cb'
p377
I1
sS'transformation'
p378
I1
sS'around'
p379
I1
sS'format'
p380
I1
sS'possible'
p381
I1
sS'deployment'
p382
I1
sS'world'
p383
I1
sS'fortune'
p384
I1
sS'success'
p385
I1
sS'identifying'
p386
I1
sS'associate'
p387
I1
sS'specific'
p388
I1
sS'benefit'
p389
I1
sS'continue'
p390
I1
sS'5+'
p391
I1
sS'making'
p392
I1
sS'maximize'
p393
I1
sS'people'
p394
I1
sS'creed'
p395
I1
sS'prototyping'
p396
I1
sVMaster
p397
I1
sS'pricing'
p398
I1
sS'redefining'
p399
I1
sS'employment'
p400
I1
sS'accounting finance'
p401
I1
sS'strategic'
p402
I1
sS'scale'
p403
I1
sS'lead'
p404
I1
sS'decision'
p405
I1
sS'proficient'
p406
I1
sS'saas'
p407
I1
sS'integration'
p408
I1
sS'/'
I1
sS'everything'
p409
I1
sS'innovation'
p410
I1
sS'core'
p411
I1
sS'product development'
p412
I1
sS'business'
p413
I1
sS'chart'
p414
I1
sS'leadership'
p415
I1
sS'session'
p416
I1
sS'conducting'
p417
I1
sS'industry'
p418
I1
sS'in-depth'
p419
I1
sS'recognized'
p420
I1
sS'practical'
p421
I1
sS'innovative'
p422
I1
sS'magazine'
p423
I1
sS'procure-to-pay'
p424
I1
sS'ensure'
p425
I1
sS'status.'
p426
I1
sS'road'
p427
I1
sS'software'
p428
I1
sS'consulting'
p429
I1
sS'matrixed'
p430
I1
sS'communication'
p431
I1
sS'within'
p432
I1
sS'functional'
p433
I1
sS'articulate'
p434
I1
sS'information technology'
p435
I1
sS'accounts'
p436
I1
sS'troubleshooting'
p437
I1
sS'lawful'
p438
I1
sS'sox'
p439
I1
sS'oracle e-business suite'
p440
I1
sS'your'
p441
I1
sV(15, 20]
p442
I1
sS'prepare'
p443
I1
sS'area'
p444
I1
sS'support'
p445
I1
sVBachelor
p446
I1
sS'way'
p447
I1
sS'analyze'
p448
I1
sS'complete'
p449
I1
sS'offer'
p450
I1
sS'forever'
p451
I1
sS'delivery'
p452
I1
sS'payable'
p453
I1
sS'properly'
p454
I1
sS'gain'
p455
I1
sS'automated'
p456
I1
sS'analyst'
p457
I1
sS'largest'
p458
I1
sS'places'
p459
I1
sS'record'
p460
I1
sS'problem'
p461
I1
sS'detailed'
p462
I1
sS'inclusive'
p463
I1
sS'defined'
p464
I1
sS'request'
p465
I1
sS'recommendation'
p466
I1
sS'generating'
p467
I1
sS'proven'
p468
I1
sS'general'
p469
I1
sS'expertise'
p470
I1
sS'at'
p471
I1
sS'15+'
p472
I1
sS'results-driven'
p473
I1
sS'programmer'
p474
I1
sS'defines'
p475
I1
sS'nj'
p476
I1
sS'excel'
p477
I1
sS'application'
p478
I1
sS'test'
p479
I1
sS'conclusion'
p480
I1
sS'users'
p481
I1
sS'financials'
p482
I1
sS'receivable'
p483
I1
sS'push'
p484
I1
sS'develops'
p485
I1
sS'and/or'
p486
I1
sS'assets'
p487
I1
sS'age'
p488
I1
sS'required'
p489
I1
sS'modules'
p490
I1
sS'oracle'
p491
I1
sS'validation'
p492
I1
sS'ebusiness'
p493
I1
s.