(dp1
S'global leader'
p2
F0.021715000000000002
sS'supply chain'
p3
F0.021995000000000001
sS'2 year'
p4
F0.014748000000000001
sS'business-changing insight'
p5
F0.041581
sS'externally'
p6
F0.023064999999999999
sS'including'
p7
F0.0095060000000000006
sS'solutions'
p8
F0.036201999999999998
sS'impact'
p9
F0.0098530000000000006
sS'knowledge'
p10
F0.010328
sS'big data'
p11
F0.0087480000000000006
sS'application'
p12
F0.0061310000000000002
sS'winning'
p13
F0.030648999999999999
sS'combine'
p14
F0.040391000000000003
sS'experience comprising'
p15
F0.041581
sS'collaboratively across'
p16
F0.038711000000000002
sS'input'
p17
F0.020407999999999999
sS'extensive'
p18
F0.018364999999999999
sS'include'
p19
F0.010496
sS'written communication'
p20
F0.021881000000000001
sS'executive'
p21
F0.015823
sS'financial service'
p22
F0.037411
sS'key responsibilities'
p23
F0.020628000000000001
sS'purpose-built iot'
p24
F0.041581
sS'advanced'
p25
F0.0087749999999999998
sS'execute'
p26
F0.013309
sS'internally'
p27
F0.022411
sS'specific'
p28
F0.012204
sS'network'
p29
F0.011769
sS'audience'
p30
F0.013443999999999999
sS'cutting-edge data science'
p31
F0.034282
sS'team'
p32
F0.002147
sS'predictive analytics'
p33
F0.014577
sS'predictive'
p34
F0.013081000000000001
sS'domain'
p35
F0.014925000000000001
sS'application software-'
p36
F0.041581
sS'leaders'
p37
F0.027029000000000001
sS'industry c3 iot'
p38
F0.041581
sS'energy'
p39
F0.017849
sS'data scientist forward-deployed engineer'
p40
F0.041581
sS'presentation'
p41
F0.010744999999999999
sS'lead crack c3 iot'
p42
F0.041581
sS'fortune 500'
p43
F0.027029000000000001
sS'ability'
p44
F0.0031900000000000001
sS'complex multi-faceted project'
p45
F0.041581
sS'similar field'
p46
F0.025555000000000001
sS'business'
p47
F0.0077190000000000002
sS'driving'
p48
F0.013780000000000001
sS'convert massive'
p49
F0.041581
sS'internet'
p50
F0.018304999999999998
sS'supplier'
p51
F0.024657999999999999
sS'new'
p52
F0.010583
sS'leader'
p53
F0.017736999999999999
sS'travel 25-50'
p54
F0.041581
sS'creating'
p55
F0.011391999999999999
sS'degree'
p56
F0.025436
sS'subject matter expert'
p57
F0.034021000000000003
sS'computer science electrical engineering'
p58
F0.028282999999999999
sS'growing'
p59
F0.015382
sS'bachelor'
p60
F0.025447999999999998
sS'management'
p61
F0.0063530000000000001
sS'required skills'
p62
F0.017528999999999999
sS'explosive market'
p63
F0.041581
sS'customer site'
p64
F0.026244
sS'definition'
p65
F0.021096
sS'high level'
p66
F0.017129999999999999
sS'technical'
p67
F0.010683
sS'industry'
p68
F0.012782999999999999
sS'experience'
p69
F0.0031480000000000002
sS'regular'
p70
F0.019311999999999999
sS'business leader'
p71
F0.019
sS'5+ year'
p72
F0.028823000000000001
sS'consulting'
p73
F0.028074999999999999
sS'platform-as-a-service offering'
p74
F0.041581
sS'business administration'
p75
F0.027466999999999998
sS'data science'
p76
F0.0066620000000000004
sS'functional'
p77
F0.014532
sS'cross-functional'
p78
F0.017634
sS'strategy'
p79
F0.015854
sS'market'
p80
F0.01057
sS'statistics'
p81
F0.014654
sS'driving wholesale transformation'
p82
F0.041581
sS'working'
p83
F0.0060930000000000003
sS'data'
p84
F0.0027409999999999999
sS'convert firsthand customer'
p85
F0.041581
sS'cutting edge'
p86
F0.016514000000000001
sS'risk management'
p87
F0.018304999999999998
sS'least one'
p88
F0.015803999999999999
sS'product manager'
p89
F0.014973999999999999
sS'master'
p90
F0.021715000000000002
sS'solve complex'
p91
F0.026244
sS'frame'
p92
F0.028282999999999999
sS'define'
p93
F0.011375
sS'life'
p94
F0.018575999999999999
sS'juggle project simultaneously'
p95
F0.043859000000000002
sS'successful'
p96
F0.014024
sS'deliver visionary yet tractable solution'
p97
F0.041581
sS'gas'
p98
F0.031210999999999999
sS'visibility'
p99
F0.026890000000000001
sS'sophisticated'
p100
F0.020112999999999999
sS'volume'
p101
F0.025774999999999999
sS'things iot'
p102
F0.039965000000000001
sS'least 2 year'
p103
F0.023727000000000002
sS'consult'
p104
F0.024389000000000001
sS'effort'
p105
F0.011280999999999999
sS'customer'
p106
F0.019637999999999999
sS'account'
p107
F0.0189
sS'utility oil'
p108
F0.041581
sS'target'
p109
F0.018867999999999999
sS'science'
p110
F0.050306999999999998
sS'work'
p111
F0.0058700000000000002
sS'hands-on'
p112
F0.031419000000000002
sS'project'
p113
F0.0045490000000000001
sS'record'
p114
F0.017276
sS'optimization'
p115
F0.011696
sS'prescriptive'
p116
F0.028836000000000001
sS'problem'
p117
F0.0077749999999999998
sS'example'
p118
F0.017580999999999999
sS'diverse team'
p119
F0.024216000000000001
sS'direction'
p120
F0.013224
sS'deep'
p121
F0.014135999999999999
sS'tremendous rate'
p122
F0.041581
sS'diverse'
p123
F0.010973999999999999
sS'lifetime'
p124
F0.031210999999999999
sS'technology'
p125
F0.0040769999999999999
sS'develop'
p126
F0.0043819999999999996
sS'qualified candidate'
p127
F0.023064999999999999
sS'compelling business case'
p128
F0.037686999999999998
sS'equipment'
p129
F0.024750999999999999
sS'multi trillion-dollar market'
p130
F0.041581
sS'role'
p131
F0.005842
sS'optimization chronic disease prevention'
p132
F0.041581
sS'trusted partner'
p133
F0.027942000000000002
sS'product'
p134
F0.0042420000000000001
sS'multiple'
p135
F0.010847000000000001
sS'complete production-ready application'
p136
F0.041581
sS'meaningful'
p137
F0.016428000000000002
sS'recent'
p138
F0.025555000000000001
sS'c3 iot'
p139
F0.083162
sS'delivery'
p140
F0.022259000000000001
sS'independently'
p141
F0.015785
sS'manufacturing'
p142
F0.041620999999999998
sS'cloud computing'
p143
F0.022473
sS'required'
p144
F0.0054429999999999999
sS'sale'
p145
F0.014094000000000001
sS'depth'
p146
F0.023885
sS'enterprise'
p147
F0.010407
sS'requirement'
p148
F0.007097
sS'excellent verbal'
p149
F0.019872000000000001
s.