(dp1
S'broad range'
p2
F0.017883
sS'top secret sci clearance'
p3
F0.058971999999999997
sS'applicants selected'
p4
F0.018450000000000001
sS'demonstrated ability'
p5
F0.012800000000000001
sS'clearly express'
p6
F0.031474000000000002
sS'technology civil technology'
p7
F0.032883999999999997
sS'site characterization'
p8
F0.032883999999999997
sS'scientist'
p9
F0.01417
sS'physical science'
p10
F0.024527
sS'eligible'
p11
F0.018714999999999999
sS'technique'
p12
F0.0066470000000000001
sS'layman'
p13
F0.031474000000000002
sS'writing'
p14
F0.011977
sS'add'
p15
F0.019831999999999999
sS'open source geographical'
p16
F0.038268999999999997
sS'employee'
p17
F0.017569999999999999
sS'take'
p18
F0.010109999999999999
sS'briefing detailing method'
p19
F0.032883999999999997
sS'within'
p20
F0.0058849999999999996
sS'outstanding opportunity'
p21
F0.028392000000000001
sS'exceptional'
p22
F0.012938
sS'innovation'
p23
F0.0076519999999999999
sS'report'
p24
F0.0068279999999999999
sS'using'
p25
F0.0054419999999999998
sS'unique'
p26
F0.012733
sS'work effectively'
p27
F0.017170999999999999
sS'advanced'
p28
F0.0076569999999999997
sS'applying data science'
p29
F0.027779000000000002
sS'signal'
p30
F0.020374
sS'multi-disciplined team'
p31
F0.032883999999999997
sS'solution'
p32
F0.0034859999999999999
sS'research associates inc'
p33
F0.065767999999999993
sS'team'
p34
F0.001874
sS'motto engineering'
p35
F0.032883999999999997
sS'please apply'
p36
F0.024993999999999999
sS'big data set'
p37
F0.025888000000000001
sS'additional information'
p38
F0.016024
sS'predictive'
p39
F0.022828000000000001
sS'set'
p40
F0.010459
sS'challenging problem'
p41
F0.022393
sS'trend'
p42
F0.020951999999999998
sS'intelligence'
p43
F0.037685000000000003
sS'testing'
p44
F0.0093620000000000005
sS'culture'
p45
F0.010031999999999999
sS'defense'
p46
F0.017271000000000002
sS'result'
p47
F0.006332
sS'measurement'
p48
F0.01525
sS'subject'
p49
F0.014224000000000001
sS'canada'
p50
F0.018364999999999999
sS'expert'
p51
F0.018617000000000002
sS'pattern'
p52
F0.024
sS'research'
p53
F0.0057869999999999996
sS'access'
p54
F0.010260999999999999
sS'ownership spawn greater'
p55
F0.032883999999999997
sS'provides'
p56
F0.010772
sS'conduct'
p57
F0.012746
sS'robotics'
p58
F0.032127999999999997
sS'experimentation'
p59
F0.019293000000000001
sS'fun'
p60
F0.014543
sS'ability'
p61
F0.0083510000000000008
sS'degree'
p62
F0.011096999999999999
sS"bachelor's degree"
p63
F0.0087910000000000002
sS'equivalent'
p64
F0.011021
sS'albuquerque nm'
p65
F0.032883999999999997
sS'communicate'
p66
F0.0095680000000000001
sS'profit sum'
p67
F0.032883999999999997
sS'required skills'
p68
F0.015295
sS'peer'
p69
F0.015074000000000001
sS'providing technically superior'
p70
F0.032883999999999997
sS'along'
p71
F0.01472
sS'assessing tunnel'
p72
F0.032883999999999997
sS'training'
p73
F0.0097549999999999998
sS'technical'
p74
F0.013983000000000001
sS'excellent interpersonal'
p75
F0.022023000000000001
sS'ufac data scientist'
p76
F0.032883999999999997
sS'simulation'
p77
F0.016348999999999999
sS'technological application'
p78
F0.032883999999999997
sS'workplace'
p79
F0.010165
sS'greatest asset'
p80
F0.025888000000000001
sS'contribution'
p81
F0.015819
sS'powerpoint'
p82
F0.016293999999999999
sS'software'
p83
F0.0050029999999999996
sS'level comprehensible'
p84
F0.032883999999999997
sS'microsoft word excel'
p85
F0.025510999999999999
sS'technical expertise'
p86
F0.01704
sS'ownership'
p87
F0.016698000000000001
sS'corporation realizes'
p88
F0.032883999999999997
sS'level ara give'
p89
F0.032883999999999997
sS'highly'
p90
F0.011204
sS'united states'
p91
F0.013422
sS'initiative'
p92
F0.0092750000000000003
sS'owner'
p93
F0.021436
sS'throughout'
p94
F0.012869
sS'engineer'
p95
F0.008345
sS'use'
p96
F0.0053020000000000003
sS'computer'
p97
F0.012485
sS'support'
p98
F0.006711
sS'related discipline'
p99
F0.016104
sS'creativity'
p100
F0.014945999999999999
sS'system'
p101
F0.0045059999999999996
sS"'big data'"
p102
F0.034870999999999999
sS'active role'
p103
F0.019889
sS'website'
p104
F0.014621
sS'customer satisfaction'
p105
F0.020185999999999999
sS'company'
p106
F0.0099939999999999994
sS'sophisticated'
p107
F0.017548999999999999
sS'environmental'
p108
F0.044595999999999997
sS'ara employee'
p109
F0.032883999999999997
sS'ha'
p110
F0.0091059999999999995
sS'applied'
p111
F0.024233999999999999
sS'also'
p112
F0.016240000000000001
sS'join'
p113
F0.0073210000000000003
sS'please visit'
p114
F0.021935
sS'science'
p115
F0.021947999999999999
sS'require'
p116
F0.012895999999999999
sS'norm employees'
p117
F0.032883999999999997
sS'engineering'
p118
F0.019859000000000002
sS'employ'
p119
F0.015386
sS'individual'
p120
F0.0077970000000000001
sS'classified information'
p121
F0.020005999999999999
sS'employee-owned international'
p122
F0.032883999999999997
sS'expert knowledge'
p123
F0.018537000000000001
sS'employee stock'
p124
F0.032127999999999997
sS'challenging'
p125
F0.013625999999999999
sS'process'
p126
F0.0049610000000000001
sS"company's success"
p127
F0.028729999999999999
sS"master's degree"
p128
F0.010964
sS'scientific'
p129
F0.01268
sS'experience'
p130
F0.0027469999999999999
sS'ara experience'
p131
F0.032883999999999997
sS'site characterization pavement analysis'
p132
F0.032883999999999997
sS'technology'
p133
F0.0035569999999999998
sS'15 year'
p134
F0.044595999999999997
sS'must meet eligibility requirement'
p135
F0.022898999999999999
sS'information'
p136
F0.011324000000000001
sS'senior-level government representative'
p137
F0.032883999999999997
sS'provide'
p138
F0.0049829999999999996
sS'corporation'
p139
F0.019889
sS'1979 currently'
p140
F0.032883999999999997
sS'field'
p141
F0.0097040000000000008
sS'methodology'
p142
F0.0086090000000000003
sS'complex'
p143
F0.0077669999999999996
sS'company founded'
p144
F0.032883999999999997
sS'performance'
p145
F0.0071640000000000002
sS'tool'
p146
F0.003539
sS'1000 professional ara office'
p147
F0.032883999999999997
sS'higher'
p148
F0.01685
sS'product'
p149
F0.0037009999999999999
sS'large data set'
p150
F0.012614
sS'wwwcareersaracom'
p151
F0.032883999999999997
sS'communication skill'
p152
F0.014081
sS'develops'
p153
F0.023772000000000001
sS'detecting locating identifying physically'
p154
F0.032883999999999997
sS'desired qualifications'
p155
F0.019092999999999999
sS'opportunity'
p156
F0.009835
sS'recognized'
p157
F0.012285000000000001
sS'lead'
p158
F0.0059249999999999997
sS'functionally characterizing modeling'
p159
F0.032883999999999997
sS'required'
p160
F0.014248
sS'well'
p161
F0.0057930000000000004
sS'analysis'
p162
F0.036150000000000002
sS'wwwaracom'
p163
F0.032883999999999997
sS'plan esop'
p164
F0.032883999999999997
sS'position'
p165
F0.014454
sS'government security investigation'
p166
F0.023708
s.