(dp1
S''
F0.016632191178166052
sS'mclean'
p2
F0.012528618744378878
sS'agency'
p3
F0.0080552379432928308
sS'nosql'
p4
F0.0075499223841835094
sS'opportunity/male/female/veterans/pay'
p5
F0.023681834740640176
sS'familiarity'
p6
F0.0072700606311668272
sS'accurate'
p7
F0.010170621124629065
sS'hadoop'
p8
F0.0035442937969643166
sS'shape'
p9
F0.010856544472544796
sS'scientist'
p10
F0.0081910557215383144
sS'identify'
p11
F0.0056720116454069443
sS'statistical'
p12
F0.0086058764640474603
sS'math/statistics'
p13
F0.016714313376843207
sS'go'
p14
F0.0090452777793865579
sS'skill'
p15
F0.0034608136302614763
sS'decisions'
p16
F0.011442563225899705
sS'find'
p17
F0.007804087634930435
sS'discipline'
p18
F0.0069575819510779386
sS'current'
p19
F0.0071920538362178349
sS'provided'
p20
F0.010778466637175223
sS'knowledge'
p21
F0.0076488686523714274
sVBusiness
p22
F0.0014920197892056746
sS'title'
p23
F0.0089378767795899906
sS'thinking'
p24
F0.0046442068067369781
sS'effort'
p25
F0.0073392524862995814
sS'solving'
p26
F0.0040688657216895515
sS'state'
p27
F0.007735122650962903
sS'employer'
p28
F0.0060958615746772105
sS'environment'
p29
F0.0040110337585486993
sS'source'
p30
F0.0056962959044179308
sS'algorithms.'
p31
F0.014589884381204534
sS'investigation'
p32
F0.0095633167294236383
sS'infoscitex'
p33
F0.021769705103097649
sS'matlab'
p34
F0.0035211067245187991
sS'policy'
p35
F0.0037650458317803441
sS'role'
p36
F0.0092584655135205148
sS'supervisor'
p37
F0.013834865784227282
sS'include'
p38
F0.0059628499257368241
sS'resources'
p39
F0.014164643447264907
sS'details'
p40
F0.0071268192067613818
sS'customer'
p41
F0.013128496175099116
sS'customers'
p42
F0.010440754091086222
sS'government'
p43
F0.01438410767243567
sS'python'
p44
F0.0014379352075952164
sS'conduct'
p45
F0.0084836489536348723
sS'virginia'
p46
F0.010556677001545486
sS'first'
p47
F0.0079797879102866225
sS'number'
p48
F0.0081674460258856271
sS'finding'
p49
F0.0075143291052538232
sS'graphic'
p50
F0.013120088578602611
sS'community'
p51
F0.0073099072436670562
sS'background'
p52
F0.0058943034957864831
sS'correlating'
p53
F0.021154136943542248
sS'policymakers'
p54
F0.016304879911415476
sS'highly'
p55
F0.0053870483165539751
sS'applicants'
p56
F0.010275521706306469
sS'timely'
p57
F0.0095468478189642547
sS'easily'
p58
F0.011559257640721498
sS'd'
F0.0099245982510233182
sS'conceive'
p59
F0.014164643447264907
sS'classified'
p60
F0.01166336734317305
sS'mapreduce'
p61
F0.0072736593571197808
sS'hive'
p62
F0.0057538048261793276
sS'capability'
p63
F0.0067060880110453875
sS'component'
p64
F0.018636959180433146
sS'architecture'
p65
F0.0060331435108542291
sS'activity'
p66
F0.0075182613080729517
sS'analytical'
p67
F0.0050958970624544074
sS'including'
p68
F0.0037926570782096675
sS'ofccp'
p69
F0.017945447890915726
sS'view'
p70
F0.0099529883354866032
sS'mathematical'
p71
F0.0081083335574452919
sS'requirement'
p72
F0.010532358211960718
sS'set'
p73
F0.0029669484804331018
sS'learning'
p74
F0.0025100524179136772
sS'intelligence'
p75
F0.012993588495614723
sS'sensitivity'
p76
F0.016304879911415476
sS'requirements'
p77
F0.0062455187628726871
sS'some'
p78
F0.010592425592503625
sS'related'
p79
F0.012374309351459462
sS'solution'
p80
F0.0036603317851530508
sS'understood'
p81
F0.012504526091980699
sS'computer'
p82
F0.018130342741268408
sS'design'
p83
F0.0040287415448785587
sS'variety'
p84
F0.006970456652252508
sS'17-0131'
p85
F0.023681834740640176
sS'operation'
p86
F0.0063311726815008587
sS'beyond'
p87
F0.010296989164225679
sS'employment'
p88
F0.010398349673616754
sS'hbase'
p89
F0.009236574040938127
sS'best'
p90
F0.0050779708382933143
sS'subject'
p91
F0.007471440861869255
sS'strategic'
p92
F0.0066711345145954101
sS'specific'
p93
F0.0076512726984359182
sS'business'
p94
F0.0032428534161271275
sS'effort.'
p95
F0.01747137899022367
sS'pattern'
p96
F0.0072236995188252294
sS'selected'
p97
F0.010000964267479292
sS'please'
p98
F0.0062331439851339874
sS'scientific computing'
p99
F0.0044525769167589203
sS'research'
p100
F0.0047070915402026934
sS'access'
p101
F0.0063985159313005649
sS'written'
p102
F0.0056760442016485181
sS'critical'
p103
F0.003761099562342531
sS'stata'
p104
F0.0083957214695135739
sS'innovation'
p105
F0.005340205992095789
sS'problems'
p106
F0.0096049243841787573
sS'issue'
p107
F0.0068075983878193979
sS'method'
p108
F0.012057107948798851
sS'minimal'
p109
F0.02179285613270019
sS'statistical tools'
p110
F0.0080166609317245587
sS'creating'
p111
F0.006847420346063518
sS'data analysis'
p112
F0.0020465682965043657
sS'scientific'
p113
F0.0044656505306453044
sS'degree'
p114
F0.0033754032962129638
sS'visualization'
p115
F0.0051704697156799151
sS'eligibility'
p116
F0.0092884136134739562
sS'deliver'
p117
F0.0056579439517217998
sS'u.s.'
p118
F0.016265619971872786
sS'team'
p119
F0.0027072857405404998
sS'data scientist'
p120
F0.0014612022967777629
sS'here'
p121
F0.010856544472544796
sS'job'
p122
F0.0059055287103864157
sS'management'
p123
F0.0037491677263433885
sS'corp'
p124
F0.018123484932742736
sS'no'
p125
F0.0083315677025801206
sS'key'
p126
F0.0054347000328930379
sS'address'
p127
F0.0084448353547398169
sS'foreign policy'
p128
F0.0083571566884216037
sS'span'
p129
F0.012729332141583814
sS'strong'
p130
F0.0037998006411064118
sS'security'
p131
F0.0030142769871997128
sS'driven'
p132
F0.0068815708189610874
sS'c'
F0.0017249957571008239
sS'prepare'
p133
F0.0095386500895389276
sS'language'
p134
F0.010142961988753417
sS'package'
p135
F0.0073876145929629008
sS'technical'
p136
F0.0084867995151490707
sS'many'
p137
F0.0085117111891036806
sS'programming'
p138
F0.0091226088400127667
sS'equal'
p139
F0.0046086036131385904
sS'experience'
p140
F0.0046709282437480161
sS'foreign'
p141
F0.0068981416528033678
sS'critical thinking'
p142
F0.0054086146607048519
sS'range'
p143
F0.0070523143941690312
sS'data'
p144
F0.0021266473687836522
sS'social'
p145
F0.0068628908903986194
sS'supervision'
p146
F0.02235631889464398
sS'mahout'
p147
F0.0059809417254544795
sS'software'
p148
F0.0088745767745229322
sS'assignment'
p149
F0.010702538050833092
sS'ability'
p150
F0.017504310848974816
sS'organize'
p151
F0.010740241108234938
sS'probability'
p152
F0.0096133217604785701
sS'question'
p153
F0.0075539056948121103
sS'manage'
p154
F0.0060148310120522889
sS'year'
p155
F0.0029298476902137973
sS'programmatic'
p156
F0.013404080655790416
sS'intellectual'
p157
F0.012274510439027938
sS'one'
p158
F0.004514323685981478
sS'appropriate'
p159
F0.0073726434264540517
sVStatistics
p160
F0.0024848341653628688
sS'analyzing'
p161
F0.0076845074315649064
sS'problem solving'
p162
F0.0033856715378665532
sS'modeling'
p163
F0.0022404019007491102
sS'computational'
p164
F0.020079909980713791
sS'methodological'
p165
F0.013834865784227282
sS'perl'
p166
F0.0079063468807982571
sS'tools'
p167
F0.01409266543794984
sS'customers.'
p168
F0.009690071179364072
sS'city'
p169
F0.0096386683691315825
sS'use'
p170
F0.0048192277833656793
sS'statistics'
p171
F0.0012862246273139372
sS'java'
p172
F0.0034186674970159542
sS'leverage'
p173
F0.00769707442777697
sS'working'
p174
F0.01080510714279506
sS'area'
p175
F0.0054513885776212839
sV(5, 10]
p176
F0.0016629576021749775
sS'test'
p177
F0.013713384511712416
sS'support'
p178
F0.007769780854117378
sS'creativity'
p179
F0.0097424500798020362
sS'due'
p180
F0.012974097036309118
sS'least'
p181
F0.006653822485831672
sS'dcs'
p182
F0.039715151962562242
sS'needed'
p183
F0.014958378571587695
sS'c/c'
p184
F0.016714313376843207
sS'deploy'
p185
F0.010010660401643468
sS'translate'
p186
F0.0082637113056339435
sS'type'
p187
F0.0077436495630460673
sS'national'
p188
F0.0027406543834237111
sS'data management'
p189
F0.0037929904891162349
sVComputer Science
p190
F0.0012487665466926865
sS'relationship'
p191
F0.0070324458383477081
sS'relevant'
p192
F0.0060469581230602311
sS'tool'
p193
F0.022737607247204476
sS'line'
p194
F0.0091075807073902598
sS'analytic'
p195
F0.01245641915751527
sVManagement Science and Engineering
p196
F0.0017786821220260583
sS'sophisticated'
p197
F0.010817229321409704
sS'tracking'
p198
F0.010715048565845235
sS'external'
p199
F0.013973270005815689
sS'technologies'
p200
F0.0092586718156406032
sS'affirmative'
p201
F0.010089481435189125
sS'with'
p202
F0.0080504613675855003
sS'must'
p203
F0.0053295082857311923
sS'applied'
p204
F0.0036919320881406929
sS'wide'
p205
F0.0079891070679449401
sS'prototype'
p206
F0.0086984038994474145
sS'communicate'
p207
F0.0055344631235354257
sS'full'
p208
F0.0071435377409283761
sS'integrating'
p209
F0.009221939929805854
sS'this'
p210
F0.0044078311736696811
sS'science'
p211
F0.0048485095737523616
sS'applied mathematics'
p212
F0.0041684286135775257
sS'work'
p213
F0.0053598435372226409
sS'us'
p214
F0.0066798314488252224
sS'machine learning'
p215
F0.00090416237494350248
sS'project'
p216
F0.0041490186749740324
sS'analysis'
p217
F0.0037806203779766059
sS'r'
F0.0030620265192493304
sS'transparency'
p218
F0.012917797216496461
sS'gis'
p219
F0.0054086146607048519
sS'following'
p220
F0.013126566524734633
sS'meet'
p221
F0.0064972774307915102
sS'problem'
p222
F0.0074264849234373541
sS'mahout/madlib'
p223
F0.019242008079588611
sS'collecting'
p224
F0.027592566611213471
sS'storing'
p225
F0.016502007572192858
sS'would'
p226
F0.0084614029234213531
sS'associated'
p227
F0.0094819381648107871
sS'citizenship'
p228
F0.0093796128978710768
sS'e.g.'
p229
F0.02666140702508657
sS'computing'
p230
F0.0050397523769087852
sS'priorities.'
p231
F0.016944331092673934
sS'action/equal'
p232
F0.01747137899022367
sS'designs'
p233
F0.011542281717685962
sS'pig'
p234
F0.0074444915175610792
sS'compile'
p235
F0.015786116682030314
sS'engineering'
p236
F0.0033789097298583572
sS'at'
p237
F0.0057105611020931216
sS'in'
p238
F0.011646319155755631
sS'sas'
p239
F0.0038213430529032183
sVMathematics
p240
F0.0023645138339068303
sS'ic'
p241
F0.023433867405986946
sS'spss'
p242
F0.0060864795334001796
sS'internal'
p243
F0.01227696049435547
sS'information'
p244
F0.0076529942043001078
sS'data.'
p245
F0.0086151669490387335
sS'develop'
p246
F0.0084010561217632597
sS'depending'
p247
F0.013120088578602611
sS'provide'
p248
F0.0043686194080270833
sS'large'
p249
F0.002400034425858798
sS'travel'
p250
F0.014447399037650459
sS'seeking'
p251
F0.0065163665027322638
sS'telemetry'
p252
F0.015349638214818202
sS'tableau'
p253
F0.0055421409299966666
sS'cleansing'
p254
F0.011981658336438382
sS'machine'
p255
F0.0028051247289766121
sS'application'
p256
F0.0049712305882057828
sS'hot'
p257
F0.016606118563938139
sS'complex'
p258
F0.022704667520163858
sS'functionality'
p259
F0.011884171718302076
sS'computer science'
p260
F0.00193928725956858
sS'objective'
p261
F0.0084948396122649338
sS'mathematics'
p262
F0.0075636963396240242
sS'you'
p263
F0.0050812214964954198
sS'company'
p264
F0.0038618024876957125
sS'10'
p265
F0.0077266220175893395
sS'development'
p266
F0.0033405820756251545
sS'multiple'
p267
F0.016128503149510899
sS'description'
p268
F0.0056181414812034947
sS'established'
p269
F0.010222572796263854
sS'may'
p270
F0.012739647272717831
sS'comprehensive'
p271
F0.0074292092927357436
sS'time'
p272
F0.0052059726276586227
sS'assessment'
p273
F0.010752924186235253
sS'specialty'
p274
F0.013404080655790416
sS'effectively'
p275
F0.0065300828981425347
sS'national security'
p276
F0.0057967630728442505
sS'curiosity'
p277
F0.010160347178096892
sS'sql'
p278
F0.0018812244381601298
sS'posters'
p279
F0.017945447890915726
sS'formal'
p280
F0.011238130792814879
sS'opportunity'
p281
F0.0034898820210773692
sS'gis/geospatial'
p282
F0.017329880504948346
sS'independently'
p283
F0.015849049269450886
sS'large data set'
p284
F0.0043371822556315396
sS'collaboratively'
p285
F0.0096217447784491521
sVBachelor
p286
F0.0012570742450619403
sS'required'
p287
F0.0089838109930438833
sS'statistic'
p288
F0.0058638968056304508
sS'bs'
p289
F0.0098502895394392068
sS'client'
p290
F0.0050537122740310159
sS'algorithms'
p291
F0.0024747195563658672
sS'narrative'
p292
F0.012781878370609186
sS'quantitative'
p293
F0.012353848838618103
sS'model'
p294
F0.0042687195638665947
sS'ts/sci'
p295
F0.010440754091086222
sS'oral'
p296
F0.0086923743828996574
sS'make'
p297
F0.0052179092309049329
sS'requisition'
p298
F0.010690084018057792
s.