(dp1
S'related field'
p2
F0.015858000000000001
sS'comprehensive benefit package including medical dental vision paid time'
p3
F0.050686000000000002
sS'years'
p4
F0.039461000000000003
sS'identify'
p5
F0.013117999999999999
sS'401k'
p6
F0.035929999999999997
sS'position'
p7
F0.028083
sS'premium pay'
p8
F0.050686000000000002
sS'5 00 pm monday'
p9
F0.050686000000000002
sS'match'
p10
F0.034818000000000002
sS'customer'
p11
F0.0083230000000000005
sS'government'
p12
F0.024583000000000001
sS'math statistic'
p13
F0.041494999999999997
sS'advanced'
p14
F0.014876
sS'resolve'
p15
F0.032325
sS'identified'
p16
F0.034166000000000002
sS'specific'
p17
F0.020688000000000002
sS'activity'
p18
F0.039468000000000003
sS'testing'
p19
F0.018189
sS'related'
p20
F0.013242
sS'8 year'
p21
F0.064194000000000001
sS'columbia dc'
p22
F0.067750000000000005
sS'full time'
p23
F0.029937999999999999
sS'friday extended hour'
p24
F0.050686000000000002
sS'washington district'
p25
F0.061149000000000002
sS'please'
p26
F0.028598999999999999
sS'competitive salary nhr global'
p27
F0.050686000000000002
sS'issue'
p28
F0.033675999999999998
sS'schedule'
p29
F0.026443000000000001
sS'hired general facility base hour'
p30
F0.050686000000000002
sS'8 00'
p31
F0.050297000000000001
sS'data scientist statistician ii perform analysis'
p32
F0.057286999999999998
sS'hours'
p33
F0.045131999999999999
sS'ad hoc user'
p34
F0.050686000000000002
sS'training'
p35
F0.018952
sS'benefits'
p36
F0.027921000000000001
sS'data scientist statistician ii'
p37
F0.057286999999999998
sS'seeking'
p38
F0.034299000000000003
sS'experience'
p39
F0.0088940000000000009
sS'top'
p40
F0.022792
sS'tasks'
p41
F0.042118999999999997
sS'within'
p42
F0.022867999999999999
sS'us citizen'
p43
F0.037094000000000002
sS'nhr global'
p44
F0.101371
sS'lieu'
p45
F0.037190000000000001
sS'data mapping'
p46
F0.047092000000000002
sS'overtime'
p47
F0.044913000000000002
sS'addition'
p48
F0.025328
sS'support'
p49
F0.0065189999999999996
sS'approximately'
p50
F0.042788
sS'needed'
p51
F0.059714000000000003
sS'degree preferred'
p52
F0.048247999999999999
sS'authorization'
p53
F0.044284999999999998
sS'offer'
p54
F0.01532
sS'operation research economics'
p55
F0.050297000000000001
sS'support routine data management'
p56
F0.050686000000000002
sS'would qualify'
p57
F0.050686000000000002
sS'must'
p58
F0.013289
sS'case'
p59
F0.034743000000000003
sS'commerce'
p60
F0.040490999999999999
sS'cover letter'
p61
F0.038420999999999997
sS'professional'
p62
F0.01677
sS'quantify data'
p63
F0.050686000000000002
sS'related quantitative discipline'
p64
F0.043140999999999999
sS'process'
p65
F0.009639
sS'request'
p66
F0.023892
sS'industry certification'
p67
F0.049923000000000002
sS'year'
p68
F0.019167
sS'data analyst'
p69
F0.031765000000000002
sS'ba bs degree'
p70
F0.046309000000000003
sS'education'
p71
F0.015565000000000001
sS'perform'
p72
F0.016951999999999998
sS'responsible'
p73
F0.011728000000000001
sS'detail'
p74
F0.021901
sS'bs ba degree'
p75
F0.047653000000000001
sS'department'
p76
F0.021921
sS'development'
p77
F0.0063899999999999998
sS'description'
p78
F0.019702999999999998
sS'may'
p79
F0.018686000000000001
sS'assist'
p80
F0.020825
sS'qualifications'
p81
F0.011479
sS'plan'
p82
F0.018110999999999999
sS'organization'
p83
F0.010692
sS'extract transform load etl'
p84
F0.048247999999999999
sS'data'
p85
F0.0046470000000000001
sS'considered'
p86
F0.023987999999999999
sS'required'
p87
F0.027681999999999998
sS'well'
p88
F0.011254999999999999
sS'provide'
p89
F0.0096819999999999996
sS'quantitative'
p90
F0.017680000000000001
s.