(dp1
S'help'
p2
F0.0039550000000000002
sS'founder'
p3
F0.016716999999999999
sS'guided'
p4
F0.014121
sS'applicable federal state'
p5
F0.014121
sS'communicate complex idea'
p6
F0.014661
sS'mission'
p7
F0.007169
sS'superior result'
p8
F0.014661
sS'elevate'
p9
F0.014597000000000001
sS'manager'
p10
F0.0079039999999999996
sS'twenty-five year'
p11
F0.017552999999999999
sS'maternity protected veteran status'
p12
F0.015138
sS'using'
p13
F0.013269
sS'skill'
p14
F0.0036770000000000001
sS'succeeding'
p15
F0.029256999999999998
sS'consider'
p16
F0.010871
sS'given day'
p17
F0.018442
sS'leading information-based technology company still founder-led'
p18
F0.014692999999999999
sS'big data'
p19
F0.0062040000000000003
sS'least 1 year experience working'
p20
F0.022349000000000001
sS'writing'
p21
F0.0097339999999999996
sS'environment'
p22
F0.0046119999999999998
sS'mclean 1 19050 united states'
p23
F0.01907
sS'1-800-304-9102'
p24
F0.015247999999999999
sS'production'
p25
F0.0079159999999999994
sS'passion'
p26
F0.0077650000000000002
sS'abstract data'
p27
F0.018123
sS'transformation'
p28
F0.011773
sS'change banking'
p29
F0.014597000000000001
sS'good'
p30
F0.0086610000000000003
sS'customer transaction'
p31
F0.018279
sS'textual data'
p32
F0.020056999999999998
sS'big'
p33
F0.011560000000000001
sS"explore you're"
p34
F0.016938999999999999
sS'conduct'
p35
F0.010359
sS'local law capital one promotes'
p36
F0.015247999999999999
sS'disrupted'
p37
F0.017233999999999999
sS'quest'
p38
F0.013929
sS'military experience'
p39
F0.014858
sS'know'
p40
F0.0099550000000000003
sS'credit card industry'
p41
F0.017357999999999998
sS'world'
p42
F0.012069
sS'difference'
p43
F0.0098580000000000004
sS'customer first'
p44
F0.017233999999999999
sS'extent applicable article 23-a'
p45
F0.015247999999999999
sS'designing rich data visualization'
p46
F0.019269000000000001
sS'wrangler'
p47
F0.019479
sS'customer enjoy'
p48
F0.014661
sS'success'
p49
F0.0070679999999999996
sS'whole new'
p50
F0.018123
sS'gender'
p51
F0.015138
sS'data-driven decision-making'
p52
F0.016456999999999999
sS'love discovering new narrative'
p53
F0.018123
sS'banking'
p54
F0.012357999999999999
sS'preferred qualifications'
p55
F0.0085699999999999995
sS"capital one we're building"
p56
F0.018200000000000001
sS'job please contact capital one recruiting'
p57
F0.016118
sS'requirement'
p58
F0.0050330000000000001
sS'financial'
p59
F0.015328
sS'testing'
p60
F0.0076090000000000003
sS'startup'
p61
F0.012898
sS'programmatically extract data'
p62
F0.018123
sS'unlock'
p63
F0.010666
sS'perspective'
p64
F0.011401
sS'measure'
p65
F0.010834
sS'curious'
p66
F0.013498
sS"bachelor's degree"
p67
F0.0071450000000000003
sS'receive consideration'
p68
F0.0077879999999999998
sS'scale'
p69
F0.0089650000000000007
sS'bringing ingenuity simplicity'
p70
F0.014692999999999999
sS'lead'
p71
F0.0048149999999999998
sS'blurt'
p72
F0.016826000000000001
sS'creative'
p73
F0.0089730000000000001
sS'little innovation'
p74
F0.017422
sS'everything'
p75
F0.012449
sS'disruptive idea'
p76
F0.017687999999999999
sS'associate serve'
p77
F0.014692999999999999
sS'new technology'
p78
F0.011181
sS'innovation'
p79
F0.0062189999999999997
sS'external data source'
p80
F0.016071999999999999
sS'apply'
p81
F0.0055950000000000001
sS'leader'
p82
F0.012578000000000001
sS'thrive'
p83
F0.010503999999999999
sS'programming language'
p84
F0.0086540000000000002
sS'basic qualifications'
p85
F0.0089960000000000005
sS'impact'
p86
F0.0069870000000000002
sS'chief executive officer richard fairbank capital one'
p87
F0.014692999999999999
sS'fortune 200 company'
p88
F0.016882000000000001
sS'new qualified applicant'
p89
F0.016407000000000001
sS'digital banking'
p90
F0.018360000000000001
sS'operating across billion'
p91
F0.018279
sS'data scientist'
p92
F0.0052639999999999996
sS'regulation regarding criminal background inquiry'
p93
F0.015247999999999999
sS'next wave'
p94
F0.017486999999999999
sS'job'
p95
F0.0047429999999999998
sS'statistical modeling'
p96
F0.0098480000000000009
sS'humility'
p97
F0.014064999999999999
sS'ask'
p98
F0.014263
sS"least 4 years' experience"
p99
F0.078336000000000003
sS"new york correction law san francisco california police code article 49 sections 4901-4920 new york city's fair chance act philadelphia's fair criminal records screening act"
p100
F0.019699999999999999
sS'respect'
p101
F0.012269
sS'help everyday people save money time'
p102
F0.018360000000000001
sS'equal opportunity employer committed'
p103
F0.013823
sS'ob'
p104
F0.014629
sS'consider sponsoring'
p105
F0.016407000000000001
sS'qualified applicant'
p106
F0.0073239999999999998
sS'ha skyrocketed u'
p107
F0.017422
sS'human-readable form roc curve map d3 visualization tableau etc'
p108
F0.018526000000000001
sS'investigate large messy data set'
p109
F0.018360000000000001
sS'software'
p110
F0.0040660000000000002
sS'shared value'
p111
F0.014534
sS'humanity'
p112
F0.014411
sS'community'
p113
F0.0071989999999999997
sS'two'
p114
F0.011757
sS'relational database'
p115
F0.0099950000000000004
sS'distributed computing technology'
p116
F0.016771000000000001
sS'america mclean virginia'
p117
F0.017295999999999999
sS'1 year'
p118
F0.012919
sS'customer transaction record'
p119
F0.018360000000000001
sS'tomorrow'
p120
F0.016164999999999999
sS'ideal candidate'
p121
F0.0098099999999999993
sS'use'
p122
F0.0043090000000000003
sS'open source'
p123
F0.010437
sS'employment authorization'
p124
F0.014206
sS'working'
p125
F0.0043210000000000002
sS'powered'
p126
F0.013403999999999999
sS'data'
p127
F0.0058320000000000004
sS'local law'
p128
F0.013695000000000001
sS'api bring'
p129
F0.018123
sS'accommodation'
p130
F0.012677000000000001
sS'teamwork'
p131
F0.01208
sS'unmined territory'
p132
F0.018123
sS'discover interesting trend'
p133
F0.018699
sS'drug-free workplace capital one'
p134
F0.015247999999999999
sS'1988 fast-forward'
p135
F0.017422
sS'building'
p136
F0.0051910000000000003
sS'life'
p137
F0.006587
sS'diversity'
p138
F0.0091699999999999993
sS'apis'
p139
F0.013644999999999999
sS'deep respect'
p140
F0.014692999999999999
sS'probably know python scala'
p141
F0.018200000000000001
sS'tool'
p142
F0.0057520000000000002
sS'applicable national federal state'
p143
F0.014996000000000001
sS'customer achieve'
p144
F0.014503
sS'part'
p145
F0.0054489999999999999
sS'capital one'
p146
F0.041947999999999999
sS'applicable law regarding criminal background inquiry including'
p147
F0.015247999999999999
sS'believe'
p148
F0.0082489999999999994
sS'effort'
p149
F0.0080000000000000002
sS"smartest people you've ever met"
p150
F0.020184000000000001
sS'customer'
p151
F0.0034819999999999999
sS'valued'
p152
F0.013450999999999999
sS'join'
p153
F0.0059509999999999997
sS'integrating'
p154
F0.010959
sS'require'
p155
F0.010481000000000001
sS'see'
p156
F0.010619
sS'advocacy'
p157
F0.014381
sS'machine learning'
p158
F0.012956000000000001
sS'r'
F0.011972999999999999
sS'petabyte'
p159
F0.01626
sS'dream together'
p160
F0.014692999999999999
sS'investigating'
p161
F0.018442
sS"data don't frighten"
p162
F0.018279
sS'launched'
p163
F0.017054
sS'exhibit'
p164
F0.014177
sS'individually personalizing every credit card offer'
p165
F0.017357999999999998
sS'year'
p166
F0.0080180000000000008
sS'customer succeed'
p167
F0.014629
sS'disruption'
p168
F0.017113
sS"master's degree"
p169
F0.0089110000000000005
sS'collaboration'
p170
F0.0078399999999999997
sS'want'
p171
F0.0077539999999999996
sS'disability genetic information marital status sexual orientation gender identity assignment citizenship pregnancy'
p172
F0.019168000000000001
sS'ready'
p173
F0.011867000000000001
sS'openness'
p174
F0.014411
sS'employment qualified applicant'
p175
F0.01234
sS'afraid'
p176
F0.015138
sS'goal'
p177
F0.0071349999999999998
sS'big undefined problem'
p178
F0.020184000000000001
sS'perform'
p179
F0.0070920000000000002
sS'agony'
p180
F0.018360000000000001
sS'make'
p181
F0.0050470000000000003
sS'manner consistent'
p182
F0.012199
sS'status protected'
p183
F0.016212000000000001
sS'30+ million customer'
p184
F0.018360000000000001
sS'chairman'
p185
F0.014597000000000001
sS"capital one wa started it's still led"
p186
F0.019934
sS'race color age national origin religion'
p187
F0.019168000000000001
sS'criminal history'
p188
F0.01234
sS'company'
p189
F0.0040610000000000004
sS'realize'
p190
F0.012638
sS'workplace'
p191
F0.0082620000000000002
sS'development'
p192
F0.002673
sS'large scale data analysis'
p193
F0.031613000000000002
sS"you're constantly exploring new open source"
p194
F0.020589
sS"you're used"
p195
F0.020589
sS'relational database cutting edge technology'
p196
F0.017422
sS'numerical'
p197
F0.016507000000000001
sS'aws'
p198
F0.010933999999999999
sS'phd'
p199
F0.0063969999999999999
sS'helping'
p200
F0.0085839999999999996
sS"least 2 years' experience"
p201
F0.06361
sS'hadoop spark h2o aws'
p202
F0.018699
sS'right thing'
p203
F0.014149
sS'sql'
p204
F0.0044299999999999999
sS"team that's leading"
p205
F0.020733999999999999
sS'future'
p206
F0.0060679999999999996
sS'agency please capital one'
p207
F0.015247999999999999
sS'python scala'
p208
F0.015247999999999999
sS'billion'
p209
F0.023576
sS'4 years'
p210
F0.062653
sS'2 years'
p211
F0.053917
sS'center'
p212
F0.010560999999999999
sS'employment without regard'
p213
F0.0081849999999999996
sS'database'
p214
F0.0058789999999999997
sS'analysis'
p215
F0.003264
sS"you'll"
p216
F0.018308000000000001
sS'responsibility'
p217
F0.0078869999999999999
sS'clean'
p218
F0.013003000000000001
sS'position'
p219
F0.0039160000000000002
sS'model'
p220
F0.0079360000000000003
sS'validation'
p221
F0.011459
sS'opportunity'
p222
F0.0039969999999999997
sS'five year'
p223
F0.013929
sS'latest'
p224
F0.010884
s.