(dp1
S'integrated'
p2
F0.0076610000000000003
sS'concept'
p3
F0.0097949999999999999
sS'must meet eligibility requirement'
p4
F0.011736999999999999
sS'team player'
p5
F0.0076829999999999997
sS'applicants selected'
p6
F0.0094570000000000001
sS'able'
p7
F0.003888
sS'top secret'
p8
F0.015113
sS'mission'
p9
F0.018085
sS'competitive'
p10
F0.0078279999999999999
sS'executing'
p11
F0.0086210000000000002
sS'need assistance'
p12
F0.014726
sS'wide range'
p13
F0.014069
sS'statistical'
p14
F0.0038409999999999998
sS'innovative'
p15
F0.0042909999999999997
sS'portfolio'
p16
F0.006764
sS'including spi cpi earned'
p17
F0.019615
sS'strong understanding'
p18
F0.016535999999999999
sS'general dynamics mission'
p19
F0.053621000000000002
sS'account management cam'
p20
F0.019615
sS'impact'
p21
F0.0044070000000000003
sS'visualization'
p22
F0.0051859999999999996
sS'technical leadership'
p23
F0.010078999999999999
sS'enriches'
p24
F0.017874000000000001
sS'knowledge'
p25
F0.00231
sS'immediate opening'
p26
F0.012729000000000001
sS'also'
p27
F0.0041619999999999999
sS'analytics'
p28
F0.006914
sS'agile'
p29
F0.0066889999999999996
sS'technique'
p30
F0.0034069999999999999
sS'methodology'
p31
F0.0044120000000000001
sS'analytic'
p32
F0.013527000000000001
sS'systems'
p33
F0.016140000000000002
sS'employee'
p34
F0.0045030000000000001
sS'identification'
p35
F0.0086370000000000006
sS'include'
p36
F0.0046940000000000003
sS'defining'
p37
F0.0079830000000000005
sS'awareness'
p38
F0.0094570000000000001
sS'polygraphsecurity clearance'
p39
F0.019615
sS'someone'
p40
F0.0076179999999999998
sS'handle'
p41
F0.0091660000000000005
sS'eoe'
p42
F0.011199000000000001
sS'combination'
p43
F0.00696
sS'variable factor exercises judgment'
p44
F0.016854999999999998
sS'advocate'
p45
F0.010577
sS'preferred'
p46
F0.0072269999999999999
sS'nation'
p47
F0.010647
sS'relevant experience'
p48
F0.014928
sS'evaluation criterion'
p49
F0.014726
sS'interpreting'
p50
F0.01107
sS'shared'
p51
F0.0098630000000000002
sS'development environments ide version control'
p52
F0.019615
sS'applying'
p53
F0.01315
sS'corrective action'
p54
F0.015835999999999999
sS'thrives'
p55
F0.011792
sS'advanced'
p56
F0.0039249999999999997
sS'execute'
p57
F0.0059519999999999998
sS'resolve'
p58
F0.017056000000000002
sS'strong written'
p59
F0.0098110000000000003
sS'success'
p60
F0.004457
sS'hiring'
p61
F0.0076610000000000003
sS'evaluation'
p62
F0.0071549999999999999
sS'8 year'
p63
F0.016936
sS'us government security investigation'
p64
F0.016854999999999998
sS'benefit'
p65
F0.0052430000000000003
sS'visualizes outcome'
p66
F0.017874000000000001
sS'source'
p67
F0.0056779999999999999
sS'team'
p68
F0.0038409999999999998
sS'business objective'
p69
F0.017148
sS'process controls'
p70
F0.019615
sS'global team'
p71
F0.0093699999999999999
sS'enjoy'
p72
F0.0081340000000000006
sS'domain'
p73
F0.0066750000000000004
sS'work'
p74
F0.0043750000000000004
sS'financial'
p75
F0.0048329999999999996
sS'core'
p76
F0.0052310000000000004
sS'trend'
p77
F0.0053699999999999998
sS'committed'
p78
F0.0040829999999999998
sS'related'
p79
F0.0069870000000000002
sS'solution'
p80
F0.0035729999999999998
sS'detection'
p81
F0.010792
sS'revel'
p82
F0.015835999999999999
sS'defense'
p83
F0.017704999999999999
sS'process improvement'
p84
F0.0088350000000000008
sS'professionally'
p85
F0.012810999999999999
sS'professional'
p86
F0.004424
sS'operation'
p87
F0.0046319999999999998
sS'experienced professional'
p88
F0.013269
sS'skill'
p89
F0.0046369999999999996
sS'transport'
p90
F0.018596999999999999
sS'subject'
p91
F0.0072909999999999997
sS"engineering's role"
p92
F0.019615
sS'expert'
p93
F0.0047710000000000001
sS'scala'
p94
F0.007639
sS'workflow'
p95
F0.0079830000000000005
sS'creative'
p96
F0.016976000000000002
sS'looking'
p97
F0.0034069999999999999
sS'method'
p98
F0.010541999999999999
sS'scripting'
p99
F0.0080070000000000002
sS'critical'
p100
F0.010943
sS'various'
p101
F0.0043420000000000004
sS'provides'
p102
F0.011043000000000001
sS'innovation'
p103
F0.0039220000000000001
sS'new'
p104
F0.0047330000000000002
sS'technology'
p105
F0.0036470000000000001
sS'developer'
p106
F0.028489
sS'issue'
p107
F0.017769
sS'across'
p108
F0.0028080000000000002
sS'supporting'
p109
F0.0058770000000000003
sS'evolving'
p110
F0.0097859999999999996
sS'decision-making'
p111
F0.0089949999999999995
sS'theory'
p112
F0.026152999999999999
sS'champion'
p113
F0.019522000000000001
sS'nature'
p114
F0.018572999999999999
sS'subject matter expert'
p115
F0.0076080000000000002
sS"bachelor's degree"
p116
F0.0045059999999999996
sS'data scientist'
p117
F0.00166
sS'standard'
p118
F0.0046090000000000002
sS'leadership'
p119
F0.012865
sS'meet'
p120
F0.004764
sS'strong'
p121
F0.022938
sS'change'
p122
F0.0045779999999999996
sS'software development'
p123
F0.0061040000000000001
sS'advance'
p124
F0.0072810000000000001
sS'design'
p125
F0.0020790000000000001
sS'working'
p126
F0.002725
sS'communicating'
p127
F0.0078169999999999993
sS'preferred skills'
p128
F0.0096159999999999995
sS'technical'
p129
F0.0071669999999999998
sS'determining'
p130
F0.012026
sS'industry'
p131
F0.002859
sS'area'
p132
F0.0034129999999999998
sS'programming'
p133
F0.0046420000000000003
sS'in-depth'
p134
F0.01107
sS'exceeding personal'
p135
F0.018596999999999999
sS'multi-task'
p136
F0.011199000000000001
sS'plus'
p137
F0.0077140000000000004
sS'due'
p138
F0.011155
sS'contribution'
p139
F0.0081080000000000006
sS'professional experience'
p140
F0.008574
sS'create'
p141
F0.003375
sS'software'
p142
F0.0025639999999999999
sS'feed'
p143
F0.01107
sS'resonates'
p144
F0.016468
sS'ability'
p145
F0.0099880000000000004
sS'tasks'
p146
F0.011112
sS'detailed knowledge'
p147
F0.014726
sS'facility'
p148
F0.0098630000000000002
sS'data analyst'
p149
F0.016760000000000001
sS'effective'
p150
F0.005568
sS'possessing'
p151
F0.014912
sS'skilled'
p152
F0.0091859999999999997
sS'way'
p153
F0.0037919999999999998
sS'bound'
p154
F0.016468
sS'highly'
p155
F0.0057429999999999998
sS'troubleshooting'
p156
F0.008574
sS'company'
p157
F0.0051229999999999999
sS'frequently'
p158
F0.011792
sS'financially favorable way'
p159
F0.019615
sS'apply'
p160
F0.003529
sS'accountability'
p161
F0.0095010000000000008
sS'little'
p162
F0.012217
sS'complex problem'
p163
F0.0089770000000000006
sS'service'
p164
F0.0053660000000000001
sS'capable'
p165
F0.016847000000000001
sS'high-stakes national security'
p166
F0.017874000000000001
sS'support'
p167
F0.0034399999999999999
sS'rewarded'
p168
F0.011243
sS'system'
p169
F0.00231
sS'carry'
p170
F0.011578
sS'quickly'
p171
F0.0068329999999999997
sS'master'
p172
F0.0097120000000000001
sS'13 000+ top'
p173
F0.017874000000000001
sS'high performance'
p174
F0.0093919999999999993
sS'basic'
p175
F0.0074939999999999998
sS'forward'
p176
F0.010078999999999999
sS'trust honesty alignment'
p177
F0.017874000000000001
sS'commitment'
p178
F0.0071459999999999996
sS'achieving'
p179
F0.010869
sS'duties'
p180
F0.0080319999999999992
sS'nifi'
p181
F0.017312999999999999
sS'direction'
p182
F0.011828
sS'successfully'
p183
F0.0088880000000000001
sS'invite'
p184
F0.012985
sS'offer'
p185
F0.0040419999999999996
sS'relevant'
p186
F0.004568
sS'tool'
p187
F0.0018140000000000001
sS'work performed within'
p188
F0.016854999999999998
sS'tasking'
p189
F0.019615
sS'task'
p190
F0.0052180000000000004
sS'policy'
p191
F0.0065820000000000002
sS'scientific arena given'
p192
F0.017874000000000001
sS'proficiency'
p193
F0.0048580000000000003
sS'scope'
p194
F0.0070260000000000001
sS'ha'
p195
F0.0046680000000000003
sS'must'
p196
F0.003506
sS'customer'
p197
F0.002196
sS'great place'
p198
F0.0094129999999999995
sS'hire'
p199
F0.0075449999999999996
sS'pride'
p200
F0.011849
sS'determines'
p201
F0.012572
sS'work closely'
p202
F0.0050949999999999997
sS'developing'
p203
F0.0033990000000000001
sS'follow-on tool'
p204
F0.039231000000000002
sS'access'
p205
F0.0052599999999999999
sS'join'
p206
F0.0037529999999999998
sS'value'
p207
F0.012881999999999999
sS'project'
p208
F0.0040689999999999997
sS'information'
p209
F0.0058040000000000001
sS'diverse'
p210
F0.014723999999999999
sS'cost'
p211
F0.007639
sS'microsoft office'
p212
F0.0098630000000000002
sS'classified information'
p213
F0.010253999999999999
sS'transparency'
p214
F0.011528
sS'grasp'
p215
F0.013372
sS'situation'
p216
F0.0098890000000000002
sS'general dynamics'
p217
F0.017874000000000001
sS'providing'
p218
F0.0043509999999999998
sS'procedure'
p219
F0.012385
sS'detailed'
p220
F0.0089589999999999999
sS'obtaining result'
p221
F0.015113
sS'demonstrates strong'
p222
F0.014095
sS'process'
p223
F0.0025430000000000001
sS'recognize'
p224
F0.010869
sS'selecting method'
p225
F0.014726
sS'defect'
p226
F0.01383
sS"master's degree"
p227
F0.00562
sS'involve'
p228
F0.010829999999999999
sS'engineering'
p229
F0.0033930000000000002
sS'enable'
p230
F0.0056779999999999999
sS'experience'
p231
F0.001408
sS'sense'
p232
F0.0091079999999999998
sS'need'
p233
F0.0027030000000000001
sS'partner'
p234
F0.0039839999999999997
sS'resolving complex'
p235
F0.019615
sS'clearly'
p236
F0.0081740000000000007
sS'executes'
p237
F0.01383
sS'high'
p238
F0.0063480000000000003
sS'develop'
p239
F0.0019599999999999999
sS'flexible work environment'
p240
F0.016854999999999998
sS'discipline'
p241
F0.006169
sS'purpose'
p242
F0.0069439999999999997
sS'responsible'
p243
F0.003094
sS'excel'
p244
F0.00696
sS'collaborative environment'
p245
F0.010718
sS'6 year'
p246
F0.018253999999999999
sS'application'
p247
F0.0027420000000000001
sS'report'
p248
F0.0035000000000000001
sS'complex'
p249
F0.0079620000000000003
sS'best'
p250
F0.0043400000000000001
sS'meeting'
p251
F0.007424
sS'department'
p252
F0.0057829999999999999
sS'systems gdms engineer'
p253
F0.017874000000000001
sS'shows initiative'
p254
F0.019615
sS'situational awareness trending'
p255
F0.017874000000000001
sS'development'
p256
F0.0033709999999999999
sS'product'
p257
F0.005692
sS'time'
p258
F0.003813
sS'deploy'
p259
F0.0074739999999999997
sS'equal opportunity affirmative action employer'
p260
F0.0072170000000000003
sS'assignment'
p261
F0.015820000000000001
sS'reporting'
p262
F0.0051700000000000001
sS'minimum'
p263
F0.0093880000000000005
sS'workforce'
p264
F0.0092060000000000006
sS'new idea'
p265
F0.0097359999999999999
sS'helping'
p266
F0.0054130000000000003
sS'equivalent experience'
p267
F0.0070600000000000003
sS'hybrid developer'
p268
F0.034625999999999997
sS'technical field'
p269
F0.0082410000000000001
sS'significant'
p270
F0.0073660000000000002
sS'verbal communication skill'
p271
F0.0079950000000000004
sS'accumulo spring boot'
p272
F0.017874000000000001
sS'requirements'
p273
F0.0044970000000000001
sS'back end'
p274
F0.012895999999999999
sS'cutting-edge technology'
p275
F0.012152
sS'opportunity'
p276
F0.0025209999999999998
sS'talented'
p277
F0.0073759999999999997
sS'expand'
p278
F0.0090889999999999999
sS'recognized'
p279
F0.0062969999999999996
sS'organization'
p280
F0.0028210000000000002
sS'defense intelligence'
p281
F0.013076000000000001
sS'lead'
p282
F0.0030370000000000002
sS'software engineering'
p283
F0.021624999999999998
sS'requires'
p284
F0.0078050000000000003
sS'data management'
p285
F0.0068250000000000003
sS'required'
p286
F0.0073029999999999996
sS'well'
p287
F0.0029689999999999999
sS'data'
p288
F0.0024520000000000002
sS'disability veteran'
p289
F0.013707
sS'seasoned'
p290
F0.01359
sS'responsibility'
p291
F0.0049740000000000001
sS'principle'
p292
F0.020662
sS'allow'
p293
F0.0091859999999999997
sS'strong knowledge'
p294
F0.023047999999999999
sS'position'
p295
F0.00247
sS'esteemed customer'
p296
F0.017874000000000001
sS'clearance'
p297
F0.0081869999999999998
sS'us citizenship'
p298
F0.0097120000000000001
s.