(dp1
S'code'
p2
F0.010142999999999999
sS'related field'
p3
F0.0082839999999999997
sS'social science'
p4
F0.039371000000000003
sS'tool ie'
p5
F0.030832999999999999
sS'foster continuous improvement'
p6
F0.022825999999999999
sS'mission'
p7
F0.0089529999999999992
sS'organizing datasets'
p8
F0.033375000000000002
sS'travel required none'
p9
F0.027385
sS'statistical'
p10
F0.0076049999999999998
sS'skill'
p11
F0.0045909999999999996
sS'technically'
p12
F0.026275
sS'visualization'
p13
F0.010269
sS'knowledge'
p14
F0.0091470000000000006
sS'big data'
p15
F0.0077470000000000004
sS'fortune 1000 largest companies'
p16
F0.022825999999999999
sS'required qualifications'
p17
F0.015953999999999999
sS'show'
p18
F0.017996000000000002
sS'environment'
p19
F0.0057590000000000002
sS'big data ecosystem'
p20
F0.026478000000000002
sS'systems'
p21
F0.015979
sS'languages technologies'
p22
F0.032607999999999998
sS'data structure'
p23
F0.016029999999999999
sS'government'
p24
F0.012841999999999999
sS'python'
p25
F0.0074310000000000001
sS'diverse range'
p26
F0.021919000000000001
sS'software developer'
p27
F0.035695999999999999
sS'service'
p28
F0.005313
sS'data scientist'
p29
F0.006574
sS'success'
p30
F0.0088260000000000005
sS'develop novel analytic'
p31
F0.033375000000000002
sS'related experience'
p32
F0.015169
sS'capability'
p33
F0.0086619999999999996
sS'team'
p34
F0.001902
sS'xml soap jms cloudera'
p35
F0.033375000000000002
sS'data analytics'
p36
F0.011044
sS'status'
p37
F0.011243
sS'requirement'
p38
F0.01257
sS'computation'
p39
F0.026689000000000001
sS'ten'
p40
F0.022926999999999999
sS'trend'
p41
F0.010633
sS'eg'
p42
F0.0098630000000000002
sS'scale data structure'
p43
F0.03884
sS'primary location arlington va us'
p44
F0.032607999999999998
sS'solution'
p45
F0.0035379999999999999
sS'defense'
p46
F0.017528999999999999
sS'result'
p47
F0.0064260000000000003
sS'econometrics'
p48
F0.023029000000000001
sS'scale'
p49
F0.02239
sS'statistic -mining'
p50
F0.03884
sS'c c++'
p51
F0.022003000000000002
sS'proficient'
p52
F0.014185
sS'applied statistic'
p53
F0.047386999999999999
sS'current'
p54
F0.010522
sS'written'
p55
F0.012017999999999999
sS'r'
F0.007476
sS'large datasets'
p56
F0.017262
sS'evaluating customer'
p57
F0.029527999999999999
sS'government transformation'
p58
F0.022825999999999999
sS'engineer'
p59
F0.0084690000000000008
sS'approach'
p60
F0.0081729999999999997
sS'method'
p61
F0.0069579999999999998
sS'federal civilian customer'
p62
F0.024323999999999998
sS'data analysis'
p63
F0.019252999999999999
sS'mechanic'
p64
F0.03884
sS'web'
p65
F0.012087000000000001
sS'experience using'
p66
F0.014149999999999999
sS"bachelor's degree"
p67
F0.0089219999999999994
sS'equivalent'
p68
F0.011185
sS'html javascript'
p69
F0.028816000000000001
sS'communicate'
p70
F0.0097109999999999991
sS'analyzes'
p71
F0.018903
sS'company description'
p72
F0.016397999999999999
sS'operating'
p73
F0.015321
sS'everyday'
p74
F0.024601000000000001
sS'understanding'
p75
F0.012787
sS'job requisition number 116010'
p76
F0.03884
sS'talent'
p77
F0.011320999999999999
sS'phd degree'
p78
F0.017295000000000001
sS'language'
p79
F0.019552
sS'immediate impact'
p80
F0.022003000000000002
sS'industry'
p81
F0.0056600000000000001
sS'experience'
p82
F0.0027880000000000001
sS'implementation'
p83
F0.0084860000000000005
sS'field listed'
p84
F0.033375000000000002
sS"fortune magazine world's"
p85
F0.024323999999999998
sS'active blogging'
p86
F0.033375000000000002
sS'shiny'
p87
F0.027141999999999999
sS'create'
p88
F0.0066829999999999997
sS'effective communicator'
p89
F0.031942999999999999
sS'public speaking'
p90
F0.031357000000000003
sS'data science'
p91
F0.0058999999999999999
sS'data mining'
p92
F0.0093209999999999994
sS'respect'
p93
F0.015321
sS'typically requires'
p94
F0.024892999999999998
sS'cloud'
p95
F0.021774999999999999
sS'ideal candidate'
p96
F0.01225
sS'security clearance ts sci clearance'
p97
F0.028192999999999999
sS'strong'
p98
F0.0050470000000000003
sS'computer'
p99
F0.012671
sS'20 000 employee worldwide'
p100
F0.024323999999999998
sS'shell javascript html css'
p101
F0.03884
sS'support'
p102
F0.0068110000000000002
sS'structured'
p103
F0.023924000000000001
sS'strong foundation'
p104
F0.025711000000000001
sS'github'
p105
F0.020875999999999999
sS'econometrics psychometrics etc'
p106
F0.03884
sS'parsing large datasets'
p107
F0.033375000000000002
sS'advanced data analytics'
p108
F0.023692999999999999
sS'prototype'
p109
F0.012977000000000001
sS'type'
p110
F0.013246000000000001
sS'direction'
p111
F0.011710999999999999
sS'technical field comparable'
p112
F0.033375000000000002
sS'russell 2000 index'
p113
F0.023935999999999999
sS'matlab -proficient'
p114
F0.03884
sS'category consultant -'
p115
F0.029926000000000001
sS'part'
p116
F0.0068050000000000003
sS'caci'
p117
F0.022536
sS'analyst'
p118
F0.010120000000000001
sS'must'
p119
F0.020826000000000001
sS'industry caci'
p120
F0.024323999999999998
sS'p smallcap600 index caci provides dynamic career'
p121
F0.024323999999999998
sS'applied mathematics'
p122
F0.017958999999999999
sS'work'
p123
F0.0034650000000000002
sS'fuel innovation'
p124
F0.022173999999999999
sS'schedule'
p125
F0.013814
sS'optimization'
p126
F0.020714
sS'ms'
p127
F0.011481999999999999
sS'providing'
p128
F0.0086160000000000004
sS'disabilities'
p129
F0.018348
sS'manner'
p130
F0.016344000000000001
sS'process'
p131
F0.0050350000000000004
sS'equal opportunity employer'
p132
F0.0093209999999999994
sS'travel none'
p133
F0.025045999999999999
sS'twelve year'
p134
F0.035392
sS'need'
p135
F0.0053509999999999999
sS'activity'
p136
F0.010309
sS'intelligence defense'
p137
F0.022825999999999999
sS'preferably'
p138
F0.029440999999999998
sS'windows unix linux vms -published paper'
p139
F0.03884
sS'computer science mathematics'
p140
F0.021676000000000001
sS'perform'
p141
F0.0088559999999999993
sS'make'
p142
F0.0063029999999999996
sS'responsible'
p143
F0.012253
sS'percent'
p144
F0.020487999999999999
sS'java j2ee'
p145
F0.031357000000000003
sS'member'
p146
F0.0096830000000000006
sS'field'
p147
F0.0098490000000000001
sS'spatial'
p148
F0.033375000000000002
sS'keep current'
p149
F0.025536
sS'performance'
p150
F0.014541999999999999
sS'- females minorities protected veterans individuals'
p151
F0.022825999999999999
sS'unstructured data'
p152
F0.041151
sS'css'
p153
F0.026275
sS'development'
p154
F0.0066759999999999996
sS'admired company'
p155
F0.023576
sS'description'
p156
F0.010293
sS'information'
p157
F0.0057460000000000002
sS'full time'
p158
F0.015639
sS'join caci'
p159
F0.022825999999999999
sS'national security'
p160
F0.017885000000000002
sS'caci employ'
p161
F0.022825999999999999
sS'desired qualifications'
p162
F0.019377999999999999
sS'services'
p163
F0.013499000000000001
sS'future'
p164
F0.0075770000000000004
sS'opportunity'
p165
F0.0049909999999999998
sS'structure'
p166
F0.029325
sS'active ts sci clearance'
p167
F0.027385
sS'algorithm'
p168
F0.030911000000000001
sS'lower level'
p169
F0.031942999999999999
sS'clearance'
p170
F0.016211
sS'oral'
p171
F0.020185999999999999
s.