(dp1
S'advisory'
p2
F0.015231
sS'supply chain'
p3
F0.012197
sS'10g relational database'
p4
F0.024320999999999999
sS'related field'
p5
F0.0051869999999999998
sS'help'
p6
F0.0061850000000000004
sS'office'
p7
F0.006032
sS'limited'
p8
F0.007071
sS'knowledgeable'
p9
F0.013724999999999999
sS'six global accounting tax'
p10
F0.019307000000000001
sS'executive'
p11
F0.0087740000000000005
sS'customer focus'
p12
F0.012947999999999999
sS'obtain'
p13
F0.027050000000000001
sS'manager'
p14
F0.0061809999999999999
sS'occasion'
p15
F0.018044000000000001
sS'identify'
p16
F0.0085819999999999994
sS'abide'
p17
F0.020001999999999999
sS'innovative'
p18
F0.0053210000000000002
sS'responsive'
p19
F0.013381000000000001
sS'query'
p20
F0.0087530000000000004
sS'educational background'
p21
F0.016995
sS'staff'
p22
F0.014924
sS'impact'
p23
F0.0054640000000000001
sS'visualization'
p24
F0.00643
sS'advanced analytic'
p25
F0.023236
sS'based'
p26
F0.0046160000000000003
sS'knowledge'
p27
F0.0057270000000000003
sS'big data'
p28
F0.0048510000000000003
sS'made without regard'
p29
F0.012829
sS'technique'
p30
F0.012671999999999999
sS'3'
F0.0086189999999999999
sS'writing'
p31
F0.0076119999999999998
sS'environment'
p32
F0.0036059999999999998
sS'providing'
p33
F0.0053949999999999996
sS'job number'
p34
F0.016712000000000001
sS'wwwgrantthorntoncom publicsector'
p35
F0.020001999999999999
sS'presentation'
p36
F0.0059579999999999998
sS'take'
p37
F0.0064250000000000002
sS'working relationship'
p38
F0.011894
sS'package-based prescriptive analytics platform'
p39
F0.020898
sS'global'
p40
F0.0053699999999999998
sS'grant thornton llp'
p41
F0.019307000000000001
sS'business intelligence bi'
p42
F0.020001999999999999
sS'government'
p43
F0.024124
sS'python'
p44
F0.004653
sS'material'
p45
F0.010167000000000001
sS'preferred'
p46
F0.0089599999999999992
sS'mission'
p47
F0.0056059999999999999
sS'applicable federal state'
p48
F0.011041
sS'experience using advanced analytic'
p49
F0.021465999999999999
sS'execution'
p50
F0.0070949999999999997
sS'data visualization tool'
p51
F0.012427000000000001
sS'advanced'
p52
F0.0048659999999999997
sS'execute'
p53
F0.0073800000000000003
sS'scenario generator'
p54
F0.019307000000000001
sS'level'
p55
F0.0045970000000000004
sS'issue'
p56
F0.0055079999999999999
sS'firm independence'
p57
F0.020898
sS'solution'
p58
F0.006646
sS'communicate clearly'
p59
F0.015883999999999999
sS'enhance customer satisfaction'
p60
F0.018488999999999998
sS'benefit'
p61
F0.0065009999999999998
sS'exceed targeted billing hour utilization'
p62
F0.020898
sS'team'
p63
F0.0035720000000000001
sS'including'
p64
F0.0079070000000000008
sS'consulting'
p65
F0.0077840000000000001
sS'work locations'
p66
F0.017146999999999999
sS'hadoop 2x elastic search 14x sqoop'
p67
F0.020898
sS'requirement'
p68
F0.0039350000000000001
sS'work'
p69
F0.0043400000000000001
sS'financial'
p70
F0.011986
sS'discover'
p71
F0.010593
sS'analytics'
p72
F0.0057149999999999996
sS'economic'
p73
F0.012427000000000001
sS'operation research'
p74
F0.0098519999999999996
sS'result'
p75
F0.0040239999999999998
sS'statistic'
p76
F0.0057029999999999997
sS'5 year experience manipulating large datasets'
p77
F0.024320999999999999
sS'event'
p78
F0.0090860000000000003
sS'ethic'
p79
F0.015782000000000001
sS'washington20036'
p80
F0.020898
sS'public sector'
p81
F0.047345999999999999
sS'termination'
p82
F0.017306999999999999
sS'business'
p83
F0.010699999999999999
sS'relevant work'
p84
F0.020898
sS'decision'
p85
F0.005352
sS'key business'
p86
F0.014621
sS'four year'
p87
F0.023560999999999999
sS'current'
p88
F0.0065890000000000002
sS'method'
p89
F0.0043569999999999998
sS'grant thornton'
p90
F0.038613000000000001
sS'various'
p91
F0.0053839999999999999
sS'targeted information'
p92
F0.018488999999999998
sS'job-related advanced degree'
p93
F0.019307000000000001
sS'international'
p94
F0.011339999999999999
sS'approach'
p95
F0.0051180000000000002
sS'leader'
p96
F0.0049179999999999996
sS'cross-functional team'
p97
F0.0096489999999999996
sS'exceed continuing professional'
p98
F0.020898
sS'citizenship status'
p99
F0.01685
sS'ability'
p100
F0.014153000000000001
sS'advanced analytic solution'
p101
F0.016712000000000001
sS'organization grant thorntons global'
p102
F0.020898
sS'informatica'
p103
F0.018488999999999998
sS'applies'
p104
F0.010102
sS'data scientist'
p105
F0.0020579999999999999
sS'including sample design'
p106
F0.020898
sS'maintain certain job-related certification'
p107
F0.019307000000000001
sS'standard'
p108
F0.0057149999999999996
sS'efficiency'
p109
F0.0091929999999999998
sS'bachelors degree'
p110
F0.007071
sS'cutting-edge'
p111
F0.010709
sS'ensure consistency'
p112
F0.01685
sS'strong'
p113
F0.00316
sS'information technology'
p114
F0.0082939999999999993
sS'government maximize performance'
p115
F0.019307000000000001
sS'proposal capture'
p116
F0.020898
sS'search'
p117
F0.0087639999999999992
sS'primary location'
p118
F0.0094850000000000004
sS'district'
p119
F0.01685
sS'technical'
p120
F0.0029619999999999998
sS'across'
p121
F0.0034819999999999999
sS'study'
p122
F0.0085489999999999993
sS'economics'
p123
F0.0099129999999999999
sS'experience'
p124
F0.0017459999999999999
sS'filter'
p125
F0.017654
sS'pattern examine data'
p126
F0.019307000000000001
sS'plus'
p127
F0.0047819999999999998
sS'help establish'
p128
F0.015883999999999999
sS'statistical package'
p129
F0.012947999999999999
sS'retail'
p130
F0.0095940000000000001
sS'analytic tool'
p131
F0.012496999999999999
sS'fraud detection prevention'
p132
F0.024320999999999999
sS'senior associate'
p133
F0.034951000000000003
sS'matlab sas r spss'
p134
F0.020898
sS'variety'
p135
F0.0061710000000000003
sS'communication'
p136
F0.0064850000000000003
sS'data science'
p137
F0.0036939999999999998
sS'within'
p138
F0.0037399999999999998
sS'characteristic protected'
p139
F0.0081259999999999995
sS'one'
p140
F0.0071960000000000001
sS'security clearance'
p141
F0.011837
sS'appropriate'
p142
F0.0129
sS'data warehousing'
p143
F0.011592
sS'data mining'
p144
F0.005836
sS'veteran status disability'
p145
F0.013623
sS'education cpe requirement'
p146
F0.020898
sS'quality'
p147
F0.0052110000000000004
sS'presentation skill'
p148
F0.0098820000000000002
sS'human capital'
p149
F0.015231
sS'sql loader'
p150
F0.024320999999999999
sS'use'
p151
F0.003369
sS'management'
p152
F0.017613
sS'grant thorntons public sector'
p153
F0.024320999999999999
sS'service'
p154
F0.0066540000000000002
sS'support'
p155
F0.0021329999999999999
sS'engagement'
p156
F0.016552000000000001
sS'local law'
p157
F0.010709
sS'system'
p158
F0.0085909999999999997
sS'master'
p159
F0.012042000000000001
sS'advanced analytics'
p160
F0.0073000000000000001
sS'active role'
p161
F0.01264
sS'grant thornton international'
p162
F0.019307000000000001
sS'increased demand'
p163
F0.019307000000000001
sS'text mining'
p164
F0.011645000000000001
sS'recruiting hiring training promotion compensation'
p165
F0.019307000000000001
sS'3 to 5 year'
p166
F0.018259000000000001
sS'development activity'
p167
F0.02777
sS'applying advanced analytic'
p168
F0.019307000000000001
sS'excellent problem-solving'
p169
F0.016452000000000001
sS'part'
p170
F0.004261
sS'team member'
p171
F0.0062269999999999999
sS'line'
p172
F0.010005999999999999
sS'promote'
p173
F0.010408000000000001
sS'project management'
p174
F0.0073330000000000001
sS'visit grant thorntons global'
p175
F0.020898
sS'united states indefinitely required'
p176
F0.019307000000000001
sS'join'
p177
F0.004653
sS'conduct analysis'
p178
F0.015782000000000001
sS'local'
p179
F0.010303
sS'challenge'
p180
F0.0058700000000000002
sS'mine large data set'
p181
F0.017654
sS'us'
p182
F0.0052550000000000001
sS'grant thorntons policy'
p183
F0.020898
sS'project'
p184
F0.005045
sS'optimization'
p185
F0.0064850000000000003
sS'work overtime required'
p186
F0.019307000000000001
sS'meet'
p187
F0.011815000000000001
sS'account team whitepapers conference'
p188
F0.020898
sS'example'
p189
F0.0097490000000000007
sS'acquisition'
p190
F0.011464
sS'firm'
p191
F0.017402000000000001
sS'oracle 9i'
p192
F0.024320999999999999
sS'process'
p193
F0.003153
sS'quantitative field'
p194
F0.0087639999999999992
sS'ever tightening budget'
p195
F0.019307000000000001
sS'suite 4001250 connecticut ave nw'
p196
F0.020898
sS'pig'
p197
F0.012197
sS'good'
p198
F0.0067730000000000004
sS'expertise'
p199
F0.0041920000000000004
sS'travel may'
p200
F0.014486000000000001
sS'-us-district'
p201
F0.020898
sS'find solution'
p202
F0.015231
sS'technology'
p203
F0.002261
sS'columbia-washington'
p204
F0.020001999999999999
sS'information'
p205
F0.0035980000000000001
sS'long period'
p206
F0.016712000000000001
sS'exploratory'
p207
F0.013573
sS'sit'
p208
F0.015682999999999999
sS'perform'
p209
F0.0055449999999999996
sS'personnel'
p210
F0.011153
sS'power bi'
p211
F0.014988
sS'seeking'
p212
F0.0056100000000000004
sS'-'
F0.0046610000000000002
sS'utilize'
p213
F0.0088929999999999999
sS'member'
p214
F0.0060629999999999998
sS'application'
p215
F0.0033999999999999998
sS'methodology'
p216
F0.0054710000000000002
sS'maintain'
p217
F0.017301
sS'race creed color religion national origin sex age marital status sexual orientation gender identity'
p218
F0.019307000000000001
sS'business user experience using'
p219
F0.024320999999999999
sS'performance'
p220
F0.0091059999999999995
sS'development'
p221
F0.0020899999999999998
sS'columbia 951'
p222
F0.020898
sS'description'
p223
F0.0064450000000000002
sS'sql pl-sql'
p224
F0.024320999999999999
sS'may'
p225
F0.0061120000000000002
sS'thought leadership'
p226
F0.011837
sS'assist'
p227
F0.0068120000000000003
sS'qualifications'
p228
F0.0037550000000000001
sS'qlik tableau'
p229
F0.018738999999999999
sS'advisory service'
p230
F0.012867999999999999
sS'federal state'
p231
F0.014356000000000001
sS'sql'
p232
F0.0034640000000000001
sS'alexandria va'
p233
F0.019307000000000001
sS'build'
p234
F0.0030379999999999999
sS'predictive modeling simulation'
p235
F0.020001999999999999
sS'5 year'
p236
F0.0067730000000000004
sS'statistic mathematics'
p237
F0.014420000000000001
sS'essential duties'
p238
F0.013335
sS'using traditional'
p239
F0.017475999999999998
sS'database'
p240
F0.0045970000000000004
sS'equal employment opportunity'
p241
F0.010536
sS'international organization'
p242
F0.018488999999999998
sS'required'
p243
F0.0060369999999999998
sS'well'
p244
F0.0036819999999999999
sS'037108'
p245
F0.024320999999999999
sS'analysis'
p246
F0.0051050000000000002
sS'face'
p247
F0.012427000000000001
sS'traditional'
p248
F0.01085
sS'verbally'
p249
F0.012229
sS'client'
p250
F0.015921999999999999
sS'applied math econometrics'
p251
F0.019307000000000001
sS'time'
p252
F0.0047270000000000003
sS'professional'
p253
F0.0054860000000000004
sS'model'
p254
F0.0031029999999999999
sS'software'
p255
F0.003179
sS'us citizenship'
p256
F0.012042000000000001
sS'microsoft'
p257
F0.012102999999999999
s.