(dp1
S'nuwave leadership'
p2
F0.037051000000000001
sS'success criterion'
p3
F0.029831
sS'top secret sci clearance'
p4
F0.031329000000000003
sS'web service'
p5
F0.023306
sS'search indexing business intelligence'
p6
F0.037051000000000001
sS'position details'
p7
F0.034136
sS'data discovery'
p8
F0.023592999999999999
sS'identify'
p9
F0.0071739999999999998
sS'skill'
p10
F0.014419
sS'f vet disability'
p11
F0.025325
sS'web'
p12
F0.012652999999999999
sS'difference'
p13
F0.012886999999999999
sS'knowledge'
p14
F0.014363000000000001
sS'implementation'
p15
F0.0088839999999999995
sS'technique'
p16
F0.014123999999999999
sS'platform'
p17
F0.0071570000000000002
sS'program'
p18
F0.0081499999999999993
sS'location'
p19
F0.010482
sS'include'
p20
F0.0097300000000000008
sS'written communication'
p21
F0.020285999999999998
sS'intelligence community ic'
p22
F0.027302
sS'data modeling'
p23
F0.015389999999999999
sS'descriptive'
p24
F0.022859999999999998
sS'data transformation'
p25
F0.023123000000000001
sS'preferred'
p26
F0.0074900000000000001
sS'nuwave solutions'
p27
F0.034938999999999998
sS'deployment'
p28
F0.011967
sS'unique'
p29
F0.013528999999999999
sS'day'
p30
F0.014813
sS'success'
p31
F0.0092390000000000007
sS'level'
p32
F0.0076860000000000001
sS'leveraging pre-existing analytics'
p33
F0.037051000000000001
sS'position description'
p34
F0.018208999999999999
sS'solution'
p35
F0.0074070000000000004
sS'specific'
p36
F0.022627000000000001
sS'team'
p37
F0.0019910000000000001
sS'track record'
p38
F0.016808
sS'including'
p39
F0.0044060000000000002
sS'predictive'
p40
F0.012127000000000001
sS'requirement'
p41
F0.0065799999999999999
sS'set'
p42
F0.011113
sS'verbal'
p43
F0.016861000000000001
sS'northern virginia'
p44
F0.033440999999999999
sS'analytics'
p45
F0.028662
sS'used'
p46
F0.010937000000000001
sS'design'
p47
F0.0043090000000000003
sS'expert'
p48
F0.0098899999999999995
sS'prescriptive analytics capability'
p49
F0.034938999999999998
sS'integration'
p50
F0.011580999999999999
sS'consistently'
p51
F0.019934
sS'big data discovery'
p52
F0.032278000000000001
sS'discovery'
p53
F0.017342
sS'supporting'
p54
F0.024364
sS'nuwave'
p55
F0.040661000000000003
sS'team consists'
p56
F0.030526000000000001
sS'business'
p57
F0.007156
sS'25'
p58
F0.022069999999999999
sS'stakeholder'
p59
F0.010725
sS'data scientist'
p60
F0.0068820000000000001
sS'oracle endeca information'
p61
F0.034938999999999998
sS'desired'
p62
F0.014741000000000001
sS'broad knowledge'
p63
F0.024681999999999999
sS'interface'
p64
F0.014478
sS'strong'
p65
F0.010566000000000001
sS'information technology'
p66
F0.013867000000000001
sS'- 4+ year experience'
p67
F0.040661000000000003
sS'consulting service'
p68
F0.024804
sS'technical'
p69
F0.0099039999999999996
sS'shift'
p70
F0.037759000000000001
sS'industry'
p71
F0.0059259999999999998
sS'delivering leading-edge solution'
p72
F0.034938999999999998
sS'space'
p73
F0.014599000000000001
sS'experience'
p74
F0.001946
sS'etc'
p75
F0.0074989999999999996
sS'ensure'
p76
F0.0087340000000000004
sS'military'
p77
F0.022294999999999999
sS'translating business problem'
p78
F0.035888999999999997
sS'eoe aa'
p79
F0.025753999999999999
sS'data warehousing'
p80
F0.019380000000000001
sS'custom'
p81
F0.019335999999999999
sS'4+ year'
p82
F0.019934
sS'working'
p83
F0.0056490000000000004
sS'analytic'
p84
F0.0093469999999999994
sS'support'
p85
F0.003565
sS'strategy'
p86
F0.0073489999999999996
sS'much'
p87
F0.021010999999999998
sS'client-facing c-level role requiring'
p88
F0.037051000000000001
sS'basic'
p89
F0.015535
sS'advanced analytics'
p90
F0.024407999999999999
sS'analytical'
p91
F0.0070949999999999997
sS'liferay'
p92
F0.034938999999999998
sS'define'
p93
F0.010546
sS'firm'
p94
F0.014546999999999999
sS'business problem'
p95
F0.013346999999999999
sS'successful'
p96
F0.013001
sS'tool'
p97
F0.0037599999999999999
sS'business requirement'
p98
F0.018460000000000001
sS'application development nuwave offer'
p99
F0.034938999999999998
sS'ensuring'
p100
F0.014427000000000001
sS'understand'
p101
F0.014838
sS'oracle weblogic javlin cloveretl informatica powercenter informatica rulepoint celect datarobot'
p102
F0.034938999999999998
sS'customer'
p103
F0.009103
sS'join'
p104
F0.0077790000000000003
sS'travel required conus oconus conus'
p105
F0.037051000000000001
sS'technology consulting service'
p106
F0.037051000000000001
sS'consultant'
p107
F0.016573000000000001
sS'work'
p108
F0.0018140000000000001
sS'value'
p109
F0.0089009999999999992
sS'project'
p110
F0.0084349999999999998
sS'meet'
p111
F0.0098759999999999994
sS'specialized'
p112
F0.021194000000000001
sS'data warehousing business intelligence'
p113
F0.032827000000000002
sS'spss sas r matlab celect datarobot netica'
p114
F0.037051000000000001
sS'immediate need'
p115
F0.027105000000000001
sS'marketplace'
p116
F0.019696000000000002
sS'required'
p117
F0.0050460000000000001
sS'business intelligence'
p118
F0.013198
sS'need'
p119
F0.0056020000000000002
sS'vendor'
p120
F0.016226999999999998
sS'seek'
p121
F0.015970999999999999
sS'preferably'
p122
F0.015410999999999999
sS'working closely'
p123
F0.017838
sS'develop'
p124
F0.012187999999999999
sS'exploratory'
p125
F0.022692
sS'travel'
p126
F0.011873
sS'-'
F0.085724999999999996
sS'application'
p127
F0.0056839999999999998
sS'plus'
p128
F0.0079959999999999996
sS'development'
p129
F0.0034940000000000001
sS'data mining technique'
p130
F0.021647
sS'position northern virginia springfield chantilly mclean'
p131
F0.034938999999999998
sS'reporting'
p132
F0.010717000000000001
sS'big data ecosystem microservice design orchestration'
p133
F0.037051000000000001
sS'work schedule'
p134
F0.028413999999999998
sS"client's"
p135
F0.023306
sS'significant'
p136
F0.015270000000000001
sS'requirements'
p137
F0.0093209999999999994
sS'- disseminating broad knowledge'
p138
F0.040661000000000003
sS'data'
p139
F0.002542
sS'build customized solution'
p140
F0.032278000000000001
sS'especially'
p141
F0.01797
sS'effective'
p142
F0.011542
sS'database'
p143
F0.0076860000000000001
sS'8570 requirements'
p144
F0.040661000000000003
sS'gather'
p145
F0.018460000000000001
sS'analysis'
p146
F0.0042680000000000001
sS'client'
p147
F0.026620000000000001
sS'responsibility'
p148
F0.020619999999999999
sS'progressive experience'
p149
F0.025905000000000001
sS'descriptive predictive'
p150
F0.028413999999999998
sS'oracle'
p151
F0.033614999999999999
sS'position'
p152
F0.0051190000000000003
s.