(dp1
S'commercial sectorswith approximately 32 000'
p2
F0.042838000000000001
sS'lda'
p3
F0.045037000000000001
sS"customer's security"
p4
F0.045037000000000001
sS'help'
p5
F0.0064879999999999998
sS'mission'
p6
F0.011761000000000001
sS'lsi'
p7
F0.045037000000000001
sS'sentiment analysis'
p8
F0.031954999999999997
sS'manages'
p9
F0.020958999999999998
sS'statistical'
p10
F0.0099909999999999999
sS'query'
p11
F0.036728999999999998
sS'hbase'
p12
F0.025014999999999999
sS'looking'
p13
F0.0088620000000000001
sS'technical discipline'
p14
F0.025860999999999999
sS'distributed'
p15
F0.035915999999999997
sS'program'
p16
F0.020455999999999998
sS'large-scale mission-critical'
p17
F0.042838000000000001
sS'rich'
p18
F0.025326999999999999
sS'local'
p19
F0.021614999999999999
sS'desired skills'
p20
F0.024264999999999998
sS'cots'
p21
F0.040506
sS'format'
p22
F0.021330999999999999
sS'python'
p23
F0.0097619999999999998
sS'make sense'
p24
F0.034014000000000003
sS'unstructured'
p25
F0.020861999999999999
sS'equal opportunity affirmative action employer'
p26
F0.018773999999999999
sS'equivalent combination'
p27
F0.025523000000000001
sS'customer-developed natural language processing nlp'
p28
F0.045037000000000001
sS'etl data storage'
p29
F0.045037000000000001
sS'related experience'
p30
F0.019928000000000001
sS'html javascript'
p31
F0.037856000000000001
sS'worldwide'
p32
F0.020927000000000001
sS'requirement'
p33
F0.0082570000000000005
sS'text analytics'
p34
F0.030254
sS'intelligence'
p35
F0.016749
sS'eg'
p36
F0.025915000000000001
sS'hadoop hive pig'
p37
F0.034261
sS'related'
p38
F0.027262999999999999
sS'solution'
p39
F0.0046480000000000002
sS'defense'
p40
F0.023028
sS'system integrator'
p41
F0.036665000000000003
sS'support servicesgdit'
p42
F0.042838000000000001
sS'familiarity'
p43
F0.073730000000000004
sS'content'
p44
F0.031458
sS'spark hadoop hive pig'
p45
F0.045037000000000001
sS'state'
p46
F0.016818
sS'provides'
p47
F0.028726000000000002
sS'new'
p48
F0.006156
sS'demonstrated'
p49
F0.013438
sS'demonstrated experience'
p50
F0.072959999999999997
sS'hadoop hdfs'
p51
F0.038792
sS'distributed computing'
p52
F0.044608000000000002
sS"bachelor's degree"
p53
F0.011721000000000001
sS'10 year'
p54
F0.021262
sS'information technology'
p55
F0.017401
sS'knowledge'
p56
F0.0060080000000000003
sS'training'
p57
F0.026012
sS'language'
p58
F0.012843
sS'technical'
p59
F0.006215
sS'disabilities'
p60
F0.024104
sS'experience'
p61
F0.0024420000000000002
sS'simulation'
p62
F0.021798999999999999
sS'etc'
p63
F0.0094109999999999992
sS'data format'
p64
F0.037434000000000002
sS'minorities females protected veterans individuals'
p65
F0.042838000000000001
sS'sql nosql'
p66
F0.067554000000000003
sS'data science'
p67
F0.0077499999999999999
sS'xml json'
p68
F0.038792
sS'one'
p69
F0.0075490000000000002
sS'git'
p70
F0.026834
sS'java'
p71
F0.014822
sS"customer's nascent content"
p72
F0.045037000000000001
sS'system'
p73
F0.0060080000000000003
sS'grow'
p74
F0.01477
sS'analyze'
p75
F0.011579000000000001
sS'work experience'
p76
F0.017031000000000001
sS'professional service'
p77
F0.030254
sS'enable'
p78
F0.01477
sS'tool'
p79
F0.004718
sS'programming experience'
p80
F0.021472000000000002
sS'c'
F0.023945999999999999
sS'job description'
p81
F0.013224
sS'delivers'
p82
F0.023304999999999999
sS'effort'
p83
F0.013124
sS'customer'
p84
F0.011423000000000001
sS'datasets'
p85
F0.019626999999999999
sS'general dynamics information technology'
p86
F0.042838000000000001
sS'machine learning'
p87
F0.0070850000000000002
sS'r'
F0.0098209999999999999
sS'health homeland security'
p88
F0.042838000000000001
sS'following'
p89
F0.011867000000000001
sS'8-10 year'
p90
F0.073329000000000005
sS'data manipulation'
p91
F0.025656000000000002
sS'schema design'
p92
F0.081013000000000002
sS'federal civilian government'
p93
F0.042838000000000001
sS'engineering'
p94
F0.0088260000000000005
sS'expertise'
p95
F0.0087950000000000007
sS'education'
p96
F0.021364000000000001
sS'trusted'
p97
F0.026218000000000002
sS'demonstrated experience working'
p98
F0.034784000000000002
sS'unstructured text'
p99
F0.039315000000000003
sS'government'
p100
F0.016871000000000001
sS'-'
F0.0097800000000000005
sS'columnar database'
p101
F0.043845000000000002
sS'company'
p102
F0.0066629999999999997
sS'development'
p103
F0.00877
sS'assist'
p104
F0.014291999999999999
sS'qualifications'
p105
F0.0078779999999999996
sS'hand'
p106
F0.019761999999999998
sS'dpost cjpost swdevic'
p107
F0.045037000000000001
sS'position'
p108
F0.006424
sS'hands-on'
p109
F0.018277000000000002
sS'response'
p110
F0.022384999999999999
sS'building'
p111
F0.0085159999999999993
sS"customer's enterprise data layer"
p112
F0.045037000000000001
sS'individual'
p113
F0.010395
sS'algorithm'
p114
F0.0081220000000000007
sS'database'
p115
F0.019289000000000001
sS'50 year'
p116
F0.072622000000000006
sS'documentation'
p117
F0.015343000000000001
sS'analysis'
p118
F0.010711
sS'accreditation process'
p119
F0.045037000000000001
sS'principle'
p120
F0.035832999999999997
sS'enterprise'
p121
F0.012108000000000001
sS'professional'
p122
F0.023018
s.