(dp1
S'preferred qualifications'
p2
F0.0074949999999999999
sS'emerging'
p3
F0.011447000000000001
sS'related field'
p4
F0.0058019999999999999
sS'help'
p5
F0.0034589999999999998
sS'founder'
p6
F0.014619999999999999
sS'guided'
p7
F0.012349000000000001
sS'dynamic environment'
p8
F0.01375
sS'mission'
p9
F0.0062700000000000004
sS'superior result'
p10
F0.012822
sS'elevate'
p11
F0.012766
sS'manager'
p12
F0.020739
sS'twenty-five year'
p13
F0.015351
sS'statistical'
p14
F0.010652
sS'right thing'
p15
F0.012374
sS'skill'
p16
F0.003215
sS'business impacting analytical'
p17
F0.024787
sS'succeeding'
p18
F0.025586999999999999
sS'given day'
p19
F0.016128
sS'little innovation'
p20
F0.015237000000000001
sS'least 5 year'
p21
F0.074831999999999996
sS'posse strong'
p22
F0.020181000000000001
sS'thinking'
p23
F0.010715000000000001
sS'environment'
p24
F0.0040330000000000001
sS'mclean 1 19050 united states'
p25
F0.016677999999999998
sS'coaching'
p26
F0.01285
sS'potential'
p27
F0.0084250000000000002
sS'usage'
p28
F0.011485
sS'associate serve'
p29
F0.01285
sS'written communication'
p30
F0.013571
sS'accurate'
p31
F0.011353
sS'inventory'
p32
F0.016277
sS'change banking'
p33
F0.012766
sS'good'
p34
F0.0075750000000000001
sS'risk'
p35
F0.023932999999999999
sS'professional'
p36
F0.0061349999999999998
sS'financial service'
p37
F0.011601
sS'focus'
p38
F0.0068820000000000001
sS'disrupted'
p39
F0.015072
sS'quest'
p40
F0.012182
sS'credit card industry'
p41
F0.015181
sS'report'
p42
F0.0048529999999999997
sS'world'
p43
F0.0052769999999999996
sS'difference'
p44
F0.0086210000000000002
sS'customer first'
p45
F0.015072
sS'realize'
p46
F0.022106000000000001
sS'leadership skill'
p47
F0.012089000000000001
sS'timely'
p48
F0.011681
sS'customer enjoy'
p49
F0.012822
sS'success'
p50
F0.0061809999999999999
sS'identifying'
p51
F0.0093170000000000006
sS'fast-paced'
p52
F0.011298000000000001
sS'performing'
p53
F0.010699
sS'solution'
p54
F0.0024780000000000002
sS'across'
p55
F0.0038939999999999999
sS'banking'
p56
F0.010808
sS'planning'
p57
F0.0079500000000000005
sS"capital one we're building"
p58
F0.015917000000000001
sS'team'
p59
F0.0026640000000000001
sS'analytical'
p60
F0.014239
sS'enhance'
p61
F0.0090980000000000002
sS'data analytics'
p62
F0.0077340000000000004
sS'predictive analytics'
p63
F0.0090410000000000004
sS'least 7 year'
p64
F0.016352999999999999
sS'partner cross-functionally'
p65
F0.024008999999999999
sS'prototyping'
p66
F0.012067
sS'analytics'
p67
F0.0031960000000000001
sS'full'
p68
F0.0090500000000000008
sS'perspective'
p69
F0.0099710000000000007
sS'measure'
p70
F0.0094750000000000008
sS'econometrics'
p71
F0.016128
sS'ability'
p72
F0.0019789999999999999
sS'bringing ingenuity simplicity'
p73
F0.01285
sS'network'
p74
F0.0072989999999999999
sS'lead'
p75
F0.0042110000000000003
sS'economics statistics mathematics'
p76
F0.024787
sS'industrial engineering'
p77
F0.01585
sS'leading information-based technology company still founder-led'
p78
F0.01285
sS'everything'
p79
F0.010888
sS'passion'
p80
F0.0067910000000000002
sS'verbally'
p81
F0.013677
sS'innovation'
p82
F0.0054390000000000003
sS'conceptual'
p83
F0.015917000000000001
sS'new'
p84
F0.0032820000000000002
sS'data scientists'
p85
F0.0091369999999999993
sS'issue'
p86
F0.0061599999999999997
sS'leader'
p87
F0.011001
sS'thrive'
p88
F0.0091859999999999997
sS'basic qualifications'
p89
F0.0078670000000000007
sS'best practice'
p90
F0.0072649999999999998
sS'chief executive officer richard fairbank capital one'
p91
F0.01285
sS'data analysis'
p92
F0.0067419999999999997
sS'enterprise-wide analytical'
p93
F0.023373999999999999
sS'nature'
p94
F0.012878000000000001
sS"bachelor's degree"
p95
F0.0062490000000000002
sS'leveraging'
p96
F0.008829
sS'learn'
p97
F0.0066360000000000004
sS'understanding'
p98
F0.0044780000000000002
sS'validating statistical'
p99
F0.027202
sS'mentoring'
p100
F0.010449
sS'statistical modeling'
p101
F0.0086130000000000009
sS'humility'
p102
F0.012300999999999999
sS'put'
p103
F0.012423999999999999
sS'open source'
p104
F0.0091269999999999997
sS'bottom line'
p105
F0.017884000000000001
sS'5 year'
p106
F0.037874999999999999
sS'life balance'
p107
F0.016764000000000001
sS'concisely'
p108
F0.017035000000000002
sS'technical'
p109
F0.0066259999999999999
sS'industry'
p110
F0.0079279999999999993
sS'annual'
p111
F0.012965000000000001
sS'ob'
p112
F0.012794
sS'experience'
p113
F0.0052059999999999997
sS'new qualified applicant'
p114
F0.014349000000000001
sS'ha skyrocketed u'
p115
F0.015237000000000001
sS'data-driven decision-making'
p116
F0.014392
sS'tiny startup'
p117
F0.024787
sS'experience manipulating'
p118
F0.022370999999999999
sS'sr data analyst'
p119
F0.024787
sS'researching'
p120
F0.015591000000000001
sS'via'
p121
F0.010855999999999999
sS'shared value'
p122
F0.012711
sS'communication'
p123
F0.007254
sS'within'
p124
F0.0083660000000000002
sS'community'
p125
F0.0062960000000000004
sS"we've created"
p126
F0.021961000000000001
sS'problem solving'
p127
F0.010161999999999999
sS'respect'
p128
F0.01073
sS'america mclean virginia'
p129
F0.015126000000000001
sS'throughout'
p130
F0.0091470000000000006
sS'quality'
p131
F0.0058279999999999998
sS'ideal candidate'
p132
F0.0085789999999999998
sS'use'
p133
F0.0037690000000000002
sS'eye'
p134
F0.015292999999999999
sS'employment authorization'
p135
F0.012423999999999999
sS'working'
p136
F0.0075579999999999996
sS'powered'
p137
F0.011722
sS'addition'
p138
F0.0092659999999999999
sS'hands-on'
p139
F0.0097429999999999999
sS'econometric model'
p140
F0.045672999999999998
sS'data emrad'
p141
F0.024787
sS'teamwork'
p142
F0.010565
sS'communicating result'
p143
F0.017541000000000001
sS'scope'
p144
F0.0097429999999999999
sS'hundred'
p145
F0.013977
sS'1988 fast-forward'
p146
F0.015237000000000001
sS'operations research'
p147
F0.012135
sS'challenging'
p148
F0.0096860000000000002
sS'business problem'
p149
F0.0089289999999999994
sS'deep respect'
p150
F0.01285
sS'7 year'
p151
F0.010904
sS'company'
p152
F0.003552
sS'training'
p153
F0.0069340000000000001
sS'customer achieve'
p154
F0.012684000000000001
sS'ensuring'
p155
F0.0096520000000000009
sS'least 2 year'
p156
F0.044146999999999999
sS'entrepreneurial environment'
p157
F0.017884000000000001
sS'capital one'
p158
F0.036686000000000003
sS'believe'
p159
F0.0072139999999999999
sS'effort'
p160
F0.0069959999999999996
sS"smartest people you've ever met"
p161
F0.017652000000000001
sS'framework'
p162
F0.0068770000000000003
sS'valued'
p163
F0.011762999999999999
sS'join'
p164
F0.0052040000000000003
sS'room'
p165
F0.017541000000000001
sS'data technology'
p166
F0.014668
sS'interpersonal'
p167
F0.015018999999999999
sS'presentation'
p168
F0.0066639999999999998
sS'work'
p169
F0.0024269999999999999
sS'advocacy'
p170
F0.012577
sS'humanity'
p171
F0.012604000000000001
sS'project'
p172
F0.0056429999999999996
sS'dream together'
p173
F0.01285
sS'doctorate'
p174
F0.019358
sS'exhibit'
p175
F0.012399
sS'colleague'
p176
F0.010109999999999999
sS'developing'
p177
F0.0047130000000000002
sS'executing'
p178
F0.011955
sS'individually personalizing every credit card offer'
p179
F0.015181
sS'fortune 200 company'
p180
F0.014763999999999999
sS'process'
p181
F0.0035270000000000002
sS'year'
p182
F0.007012
sS'customer succeed'
p183
F0.012794
sS"master's degree"
p184
F0.0077939999999999997
sS'collaboration'
p185
F0.0068570000000000002
sS'data governance'
p186
F0.014668
sS'consider sponsoring'
p187
F0.014349000000000001
sS'want'
p188
F0.0067809999999999997
sS'ready'
p189
F0.010378999999999999
sS'education'
p190
F0.0056950000000000004
sS'openness'
p191
F0.012604000000000001
sS'clearly'
p192
F0.011335
sS'finance'
p193
F0.0091669999999999998
sS'large data set'
p194
F0.008966
sS'assessing'
p195
F0.033884999999999998
sS'develop'
p196
F0.0027179999999999999
sS'goal'
p197
F0.0062399999999999999
sS'make'
p198
F0.0044140000000000004
sS'validating'
p199
F0.016511999999999999
sS'eucs'
p200
F0.024787
sS'also'
p201
F0.0057720000000000002
sS'methodology'
p202
F0.0061190000000000003
sS'data analysts quants'
p203
F0.024787
sS'chairman'
p204
F0.012766
sS'responsibility'
p205
F0.0068970000000000004
sS'tool'
p206
F0.020122999999999999
sS'relational database cutting edge technology'
p207
F0.015237000000000001
sS'reporting'
p208
F0.007169
sS'update'
p209
F0.012822
sS'helping'
p210
F0.0075069999999999998
sS'influence business strategy'
p211
F0.021262
sS'plenty'
p212
F0.017229000000000001
sS'handling multiple concurrent project'
p213
F0.024787
sS'validate'
p214
F0.010855999999999999
sS'data'
p215
F0.0051009999999999996
sS'grow'
p216
F0.0078740000000000008
sS'independently'
p217
F0.01958
sS'tool initiation'
p218
F0.024787
sS'center'
p219
F0.0092359999999999994
sS'using'
p220
F0.0038679999999999999
sS'analytical skill'
p221
F0.011977
sS'2 year'
p222
F0.027441
sS'analysis'
p223
F0.0028549999999999999
sS'senior'
p224
F0.014218
sS'junior staff'
p225
F0.02068
sS"capital one wa started it's still led"
p226
F0.017434000000000002
sS'refining'
p227
F0.020958999999999998
sS'enterprise'
p228
F0.0064549999999999998
sS'position'
p229
F0.0068490000000000001
sS'model'
p230
F0.00347
sS'validation'
p231
F0.030064
sS'opportunity'
p232
F0.0069909999999999998
sS'five year'
p233
F0.012182
s.