(dp1
S''
F0.02878
sS'abilities'
p2
F0.031639
sS'courseworkand orexperience developing'
p3
F0.050097000000000003
sS'statistical'
p4
F0.021530000000000001
sS'sexual orientation gender'
p5
F0.047240999999999998
sS'knowledge'
p6
F0.012947
sS'predictive model'
p7
F0.033396000000000002
sS'systems'
p8
F0.022617999999999999
sS'health'
p9
F0.033895000000000002
sS'include'
p10
F0.013155999999999999
sS'presentation'
p11
F0.013469
sS'generating actionable insight'
p12
F0.046156000000000003
sS'different source'
p13
F0.033708000000000002
sS'python'
p14
F0.063108999999999998
sS'final outcome'
p15
F0.046156000000000003
sS'rapidly test hypothesis'
p16
F0.041274999999999999
sS'report'
p17
F0.009809
sS'using'
p18
F0.023455
sS'equal opportunity affirmative action employer'
p19
F0.020229
sS'advanced'
p20
F0.010999999999999999
sS'skills'
p21
F0.015310000000000001
sS'wellness'
p22
F0.032309999999999998
sS'integrating'
p23
F0.019370999999999999
sS'large'
p24
F0.014615
sS'race'
p25
F0.031265000000000001
sS'gender'
p26
F0.026758000000000001
sS'model scoring methodology'
p27
F0.047240999999999998
sS'outstanding opportunityfor'
p28
F0.050097000000000003
sS'result'
p29
F0.0090969999999999992
sS'statistic'
p30
F0.012892000000000001
sS'obtain secret'
p31
F0.044386000000000002
sS'receive consideration'
p32
F0.013766
sS'federal'
p33
F0.026758000000000001
sS'passion'
p34
F0.013726
sS'requiredbut'
p35
F0.050097000000000003
sS'ability'
p36
F0.0079979999999999999
sS'internship'
p37
F0.053515
sS"bachelor's degree"
p38
F0.012629
sS'disability protected veteran status'
p39
F0.047240999999999998
sS'desired'
p40
F0.019931000000000001
sS'job'
p41
F0.0083840000000000008
sS'interpret'
p42
F0.042065999999999999
sS'epidemiology'
p43
F0.038419000000000002
sS'study'
p44
F0.019327
sS'experience'
p45
F0.0026310000000000001
sS'qualified applicant'
p46
F0.012945999999999999
sS'writing skillsexplaining'
p47
F0.050097000000000003
sS'us citizenship required'
p48
F0.067415000000000003
sS'identification'
p49
F0.024208
sS'effectively communicating'
p50
F0.039906999999999998
sS'integrate data'
p51
F0.040334000000000002
sS'java javascript'
p52
F0.072787000000000004
sS'confidence'
p53
F0.0275
sS'statistics'
p54
F0.018370000000000001
sS'java'
p55
F0.047909
sS'multivariate analysis regression analysis bayesian k-means fuzzy c-means association rule'
p56
F0.047240999999999998
sS'script'
p57
F0.024715999999999998
sS'data'
p58
F0.0034359999999999998
sS'location falls church va'
p59
F0.047240999999999998
sS'validating'
p60
F0.033371999999999999
sS'clinical'
p61
F0.044610999999999998
sS'neural network'
p62
F0.029089
sS'today'
p63
F0.022006000000000001
sS'website'
p64
F0.021004999999999999
sS'machine learning algorithm'
p65
F0.019507
sS'enthusiasm'
p66
F0.031899999999999998
sS'employment without regard'
p67
F0.014468
sS'developing'
p68
F0.019053
sS'across multiple open-sources using'
p69
F0.047240999999999998
sS'clinical data set'
p70
F0.045215999999999999
sS'machine learning'
p71
F0.0076340000000000002
sS'project'
p72
F0.0057019999999999996
sS'applicable law'
p73
F0.029548999999999999
sS'r'
F0.010581999999999999
sS'learn'
p74
F0.013410999999999999
sS'providing'
p75
F0.012194999999999999
sS'cluster analysis'
p76
F0.036915000000000003
sS'industry'
p77
F0.008012
sS'scripting'
p78
F0.022443000000000001
sS'decision tree'
p79
F0.028015999999999999
sS"master's degree"
p80
F0.015751999999999999
sS'desire mixed'
p81
F0.047240999999999998
sS'education'
p82
F0.011509999999999999
sS'technology'
p83
F0.00511
sS'color age'
p84
F0.045215999999999999
sS'marital status ancestry citizenship'
p85
F0.047240999999999998
sS'experience extracting data'
p86
F0.046156000000000003
sS'requirements'
p87
F0.012603
sS'graduate'
p88
F0.030145000000000002
sS'prototype scoring'
p89
F0.047240999999999998
sS'field'
p90
F0.013941
sS'responsibilities'
p91
F0.0087460000000000003
sS'finding score'
p92
F0.047240999999999998
sS'test'
p93
F0.013705999999999999
sS'subsidiaries'
p94
F0.047240999999999998
sS'would like'
p95
F0.031639
sS'deploy'
p96
F0.020948000000000001
sS'develop'
p97
F0.010987
sS'included practical'
p98
F0.047240999999999998
sS'analyzinglarge dataset'
p99
F0.050097000000000003
sS'national origin religion'
p100
F0.040788999999999999
sS'classroom'
p101
F0.035677
sS'effective'
p102
F0.015606
sS'non-statistical asrc federal'
p103
F0.047240999999999998
sS'coursework'
p104
F0.090746999999999994
sS'required'
p105
F0.0068230000000000001
sS'mash'
p106
F0.045215999999999999
sS'reston va'
p107
F0.036649000000000001
sS'junior data scientist'
p108
F0.038092000000000001
sS'healthcare'
p109
F0.032332
sS'factor prohibited'
p110
F0.045215999999999999
sS'position'
p111
F0.0069220000000000002
sS'model'
p112
F0.0070140000000000003
sS'clearance'
p113
F0.022946000000000001
sS'open-source format'
p114
F0.047240999999999998
sS'talk'
p115
F0.024343
s.