(dp1
S''
F0.082488634730021299
sS'serving'
p2
F0.015325912476085547
sS'ongoing'
p3
F0.013262147717190404
sS'insight'
p4
F0.027386468000141568
sS'bring'
p5
F0.0091957184574298825
sS'manager'
p6
F0.017591307977283685
sS'interpersonal'
p7
F0.012107331506646196
sS'radio'
p8
F0.044641624962088892
sS'innovative'
p9
F0.0075592911207204658
sS'skill'
p10
F0.018724551357757989
sS'analytics/business'
p11
F0.02861333821654502
sS'integrity'
p12
F0.010591493395110148
sS'impact'
p13
F0.0083648129449295835
sS'visualization'
p14
F0.006993639074380483
sS'candidate'
p15
F0.0072988947448028195
sS'capabilities'
p16
F0.017870089688942058
sS'foster'
p17
F0.014091704394631139
sVComputer Science
p18
F0.003378193083403723
sS'8'
F0.013942434245820007
sVManagement Science and Engineering
p19
F0.004811733352495867
sS'awareness'
p20
F0.016100674715397143
sS'stakeholders'
p21
F0.017217846646731837
sS'then'
p22
F0.021686862595150392
sS'collaborate'
p23
F0.0090588587979305094
sS'increased'
p24
F0.017548918565903193
sS'seeking'
p25
F0.0088141151389568885
sS'evaluate'
p26
F0.010621414372038425
sS'regional'
p27
F0.019042652586116187
sS'functional'
p28
F0.010597458424564426
sS'framework'
p29
F0.010069508116104072
sS'every'
p30
F0.0089806376817983258
sS'performance'
p31
F0.014597789489605639
sS'documented'
p32
F0.019598752354349401
sS'day'
p33
F0.009848192949972117
sS'projects'
p34
F0.013869980445479442
sS'customer experience'
p35
F0.014295135826441213
sS'solution'
p36
F0.0099020169561043359
sS'capability'
p37
F0.0090707347164326602
sS'differentiates'
p38
F0.021805327538581141
sS'team'
p39
F0.01464762807381987
sS'analytical'
p40
F0.027571084852831683
sS'identify'
p41
F0.0076720306770896168
sS'where'
p42
F0.020252495816104613
sS'insightful'
p43
F0.013165852432958263
sS'intelligence'
p44
F0.01171685529766253
sS'related'
p45
F0.016737638581731547
sS'roadmap'
p46
F0.013869980445479442
sS'analytics'
p47
F0.029207601335267685
sS'self-service'
p48
F0.038559283021656732
sS'usefulness'
p49
F0.025671335233290564
sS'recommendation'
p50
F0.0097470214358890712
sS'operation'
p51
F0.0085636197650897812
sV(2, 5]
p52
F0.0046229269717579678
sS'degree'
p53
F0.0045656108017805945
sS'lead'
p54
F0.0071847641711402085
sS'pet'
p55
F0.047667477699635093
sS'develop'
p56
F0.017045053232122284
sS'looking'
p57
F0.0072915045506707042
sS'identification'
p58
F0.015119711939008289
sS'new'
p59
F0.0048435134054156106
sS'approach'
p60
F0.016723065983364673
sS'demonstrated'
p61
F0.0084747016857796686
sS'core'
p62
F0.0093080948577365461
sS'data analysis'
p63
F0.0055364254289763624
sS'ability'
p64
F0.0047353079722040085
sS'business'
p65
F0.043863222512913566
sS'packaged'
p66
F0.020252495816104613
sS'stakeholder'
p67
F0.019297042409939038
sS'data scientist'
p68
F0.0039528793476264115
sS'understanding'
p69
F0.012651172888387652
sS'business analytics'
p70
F0.01133426937932505
sS'modeling'
p71
F0.0030303943620207181
sS'come'
p72
F0.011700813979953885
sS'improve'
p73
F0.031691289127651547
sS'competes'
p74
F0.027933034248938355
sVBusiness
p75
F0.0040362475640825157
sS'data visualization'
p76
F0.0073385583044014956
sS'technical'
p77
F0.0057396731795551085
sS'industry'
p78
F0.0061043375672134885
sS'experience'
p79
F0.015794883286927758
sS'addition'
p80
F0.012645402510500526
sS'place'
p81
F0.022980442980940589
sS'mentor'
p82
F0.012116289969578141
sS'conducting'
p83
F0.014943398343535219
sS'retail'
p84
F0.012858065240360157
sS'goods/retail'
p85
F0.030519403279288412
sS'plan'
p86
F0.0087190995557174366
sS'within'
p87
F0.0068031852619482875
sS'year'
p88
F0.00792589393807837
sS'primary'
p89
F0.01035479249005395
sS'qualifications'
p90
F0.0057429213663407214
sS'directly'
p91
F0.011700813979953885
sS'data mining'
p92
F0.0079178333159781247
sS'manage'
p93
F0.016271464491559366
sS'throughout'
p94
F0.024037820799019744
sS'decision making'
p95
F0.012188742723617588
sS'management'
p96
F0.0033807793552225827
sS'service'
p97
F0.0060740289507939709
sS'area'
p98
F0.0073736132812974465
sV(5, 10]
p99
F0.0044986726178240996
sS'opportunity'
p100
F0.004720456091942337
sS'create'
p101
F0.0073710984002267818
sS'transform'
p102
F0.012645402510500526
sS'priority'
p103
F0.01278224677698659
sS'process'
p104
F0.024868039954361692
sVBachelor
p105
F0.0034006672674250253
sS'program'
p106
F0.0081111259224431638
sS'systems'
p107
F0.021327422023899169
sS'toolsets'
p108
F0.022054175253313841
sS'sharing'
p109
F0.015304772013168369
sS'deeper'
p110
F0.018130519543746365
sS'successful'
p111
F0.0096392744546794553
sS'company'
p112
F0.020894080623726802
sS'training'
p113
F0.0087809505635161531
sS'delivery'
p114
F0.0094370607125026356
sS'understand'
p115
F0.0078420888561353558
sS'project management'
p116
F0.0070949750870318885
sS'insights'
p117
F0.014442765523998442
sS'customer'
p118
F0.0059192535615341163
sS'wide'
p119
F0.010806161612425525
sS'tomanage'
p120
F0.03203233243836591
sS'work'
p121
F0.0072497883665791317
sS'value'
p122
F0.0069507172689993249
sS'maturity'
p123
F0.023258550792349182
sS'minimum'
p124
F0.018383241360519453
sS'bachelors'
p125
F0.010382867201362028
sS'problem'
p126
F0.0066967681212588073
sS'define'
p127
F0.020845060268501057
sS'outstanding'
p128
F0.013633658482309215
sS'defined'
p129
F0.016126859339219812
sS'metric'
p130
F0.011823158833505045
sS'statistic'
p131
F0.015863153671948047
sS'drive'
p132
F0.0071066666881840742
sS'player'
p133
F0.012563619160016078
sS'business intelligence'
p134
F0.0076232959282627648
sS'good'
p135
F0.018726867132446791
sS'in'
p136
F0.0078764751753011512
sS'need'
p137
F0.0066364092996713279
sS'partner'
p138
F0.0077297044497825346
sS'education'
p139
F0.0078306968276614514
sS'clearly'
p140
F0.012483590071843588
sS'greater'
p141
F0.02944113912723682
sS'preferably'
p142
F0.013048876331623232
sS'competency'
p143
F0.016074672566733221
sS'end'
p144
F0.011890087762290545
sS'variety'
p145
F0.0094283228971699037
sS'provide'
p146
F0.00590904677391723
sS'corporation'
p147
F0.02726731696461843
sS'self'
p148
F0.017587585332921749
sS'responsible'
p149
F0.0073963238343801264
sS'cross'
p150
F0.014031277857217148
sS'owner'
p151
F0.013647153060656933
sS'member'
p152
F0.0078165055406480641
sS'field'
p153
F0.0063753038566790113
sS'responsibilities'
p154
F0.0063198922311344516
sS'internal'
p155
F0.016605963355238274
sS'5'
F0.0097044882185455469
sS'ensure'
p156
F0.0086831899336621172
sVData Science
p157
F0.0038331678455412782
sS'oriented'
p158
F0.012803752440314882
sS'collaborative'
p159
F0.010338048512215658
sS'deploy'
p160
F0.013540538789536408
sS'comprehensive'
p161
F0.010048837196330998
sS'collaboration'
p162
F0.0095435426122143802
sS'tool'
p163
F0.010251719685462216
sS'automation'
p164
F0.01244421016964108
sS'driven'
p165
F0.0093080948577365461
sS'user'
p166
F0.0085429112959300047
sS'identify opportunity'
p167
F0.015455334107221603
sS'visualization.'
p168
F0.022760300373696703
sS'including'
p169
F0.0051299932494440464
sS'truly'
p170
F0.017324972861130803
sS'data'
p171
F0.00088508573040651432
sS'needed'
p172
F0.010116440731717425
sS'structure'
p173
F0.010850618255283329
sS'a'
F0.0069777682597538309
sS'mindse'
p174
F0.03203233243836591
sS'dog'
p175
F0.024047016164611149
sS'analysis'
p176
F0.0012784280662467534
sS'actionable'
p177
F0.0099976554741730388
sS'solve'
p178
F0.008665363916414549
sS'progressively'
p179
F0.019467815291433602
sS'quantitative'
p180
F0.0083549817238788467
sS'the'
p181
F0.0045715402999150258
sS'consumer'
p182
F0.0099723255301850527
s.