(dp1
S'detailed-oriented'
p2
F0.045654
sS'in-depth understanding'
p3
F0.027446999999999999
sS'responsible'
p4
F0.014402999999999999
sS'manager doubleclick search'
p5
F0.045654
sS'leading global'
p6
F0.02222
sS'insight'
p7
F0.0077650000000000002
sS'inspires people'
p8
F0.026949000000000001
sS'buyer'
p9
F0.035175999999999999
sS'including'
p10
F0.0049480000000000001
sS'aspect'
p11
F0.014864
sS'participate'
p12
F0.013592
sS'digital medium'
p13
F0.025387
sS'web'
p14
F0.014206999999999999
sS'wunderman'
p15
F0.053898000000000001
sS'platform'
p16
F0.0080359999999999997
sS'media buyers must'
p17
F0.049708000000000002
sS'information please visit wwwwundermancom'
p18
F0.032189000000000002
sS'presentation'
p19
F0.011185
sS'delivers result'
p20
F0.026949000000000001
sS'60 market wunderman'
p21
F0.026949000000000001
sS'big'
p22
F0.016969000000000001
sS'overall'
p23
F0.014344000000000001
sS'preferred'
p24
F0.0084100000000000008
sS'kpi goal'
p25
F0.041600999999999999
sS'agency brings together 7 000 creatives data scientist strategist'
p26
F0.026949000000000001
sS'monitoring keyword performance'
p27
F0.049708000000000002
sS'report'
p28
F0.0081449999999999995
sS'execution'
p29
F0.013318999999999999
sS'clients--'
p30
F0.049708000000000002
sS'search display remarketing'
p31
F0.049708000000000002
sS'meeting exceeding client'
p32
F0.049708000000000002
sS'set'
p33
F0.012478
sS'statistical'
p34
F0.0089390000000000008
sS'trend'
p35
F0.012498
sS'clever strategy'
p36
F0.045654
sS'direct'
p37
F0.016511000000000001
sS'analytics'
p38
F0.0053639999999999998
sS'growth'
p39
F0.012154999999999999
sS'result'
p40
F0.007554
sS'client meeting'
p41
F0.032488999999999997
sS'operation'
p42
F0.010781000000000001
sS'take action'
p43
F0.024156
sS'digital agency wunderman combine creativity'
p44
F0.026949000000000001
sS'thinks qualitatively analytically'
p45
F0.049708000000000002
sS'progress'
p46
F0.020809999999999999
sS'leader'
p47
F0.0092320000000000006
sS'1 year'
p48
F0.018963000000000001
sS'analyst named wunderman'
p49
F0.026949000000000001
sS'business'
p50
F0.0040169999999999997
sS'strong performer'
p51
F0.026949000000000001
sS'subject matter expert'
p52
F0.017707000000000001
sS'marketing'
p53
F0.020308
sS'approve campaign'
p54
F0.049708000000000002
sS'strong'
p55
F0.011864
sS'optimize'
p56
F0.014512000000000001
sS'search'
p57
F0.016451
sS'launch'
p58
F0.024382000000000001
sS'experience'
p59
F0.003277
sS'keep'
p60
F0.018009000000000001
sS'ensure'
p61
F0.0098069999999999997
sS'advertising'
p62
F0.019373000000000001
sS'social'
p63
F0.032863000000000003
sS'long-term'
p64
F0.021808999999999999
sS'implement'
p65
F0.0082760000000000004
sS'create'
p66
F0.015712
sS'projection'
p67
F0.038328000000000001
sS'campaign'
p68
F0.061454000000000002
sS'pitch'
p69
F0.035175999999999999
sS'u apart'
p70
F0.034275
sS'strategic'
p71
F0.020691999999999999
sS'creative problem-solver'
p72
F0.037546999999999997
sS'technologist'
p73
F0.020406000000000001
sS'presentation skill'
p74
F0.018551000000000002
sS'use'
p75
F0.0063249999999999999
sS'google adwords doubleclick campaign'
p76
F0.045654
sS'medium mix'
p77
F0.043283000000000002
sS'support'
p78
F0.0040029999999999996
sS'strategy'
p79
F0.016503
sS'new york'
p80
F0.018695
sS'asset'
p81
F0.01822
sS'wpp company nasdaq wppgy'
p82
F0.026949000000000001
sS'analyze'
p83
F0.010359999999999999
sS'customer engagement strategy headquartered'
p84
F0.026949000000000001
sS'medium'
p85
F0.060317000000000003
sS'175 office'
p86
F0.026949000000000001
sS'medium buying'
p87
F0.038328000000000001
sS'idea'
p88
F0.013025
sS'b test'
p89
F0.029086000000000001
sS'travel 10-15'
p90
F0.049708000000000002
sS'setup'
p91
F0.030655000000000002
sS'work'
p92
F0.0020370000000000002
sS'budget'
p93
F0.020329
sS'us'
p94
F0.0098639999999999995
sS'optimization'
p95
F0.024348999999999999
sS'ongoing'
p96
F0.016611999999999998
sS'display'
p97
F0.024947
sS'digital medium campaign'
p98
F0.036242000000000003
sS'follow u wunderman'
p99
F0.027446999999999999
sS'recognize'
p100
F0.025295999999999999
sS'metric'
p101
F0.014656000000000001
sS'organized'
p102
F0.021426000000000001
sS'creatively driven data inspired'
p103
F0.026949000000000001
sS'effectively'
p104
F0.012329
sS'minimum'
p105
F0.010925000000000001
sS'2015 industry'
p106
F0.027068999999999999
sS'develop'
p107
F0.0045620000000000001
sS'variety'
p108
F0.011585
sS'provide'
p109
F0.0059449999999999998
sS'agency'
p110
F0.035314999999999999
sS'bid strategy'
p111
F0.045654
sS'maintain'
p112
F0.010826000000000001
sS'online advertising'
p113
F0.028916000000000001
sS'tactic'
p114
F0.063263
sS'digital'
p115
F0.038521
sS'objective'
p116
F0.013677999999999999
sS'3 year'
p117
F0.027630999999999999
sS'brand'
p118
F0.014526000000000001
sS'channel'
p119
F0.018992999999999999
sS'accuracy'
p120
F0.01934
sS'development'
p121
F0.0078469999999999998
sS'media buyers'
p122
F0.045654
sS'track'
p123
F0.018963000000000001
sS'act'
p124
F0.016756
sS'paid'
p125
F0.17949100000000001
sS'doubleclick bid manager'
p126
F0.049708000000000002
sS'plan'
p127
F0.011121000000000001
sS'data'
p128
F0.0057070000000000003
sS'response'
p129
F0.040057000000000002
sS'short'
p130
F0.021760000000000002
sS'current pulse'
p131
F0.045654
sS'database'
p132
F0.0086289999999999995
sS'least 1 year'
p133
F0.028136000000000001
sS'3-5'
p134
F0.035175999999999999
sS'well'
p135
F0.0069109999999999996
sS'google analytics'
p136
F0.028136000000000001
sS'client'
p137
F0.022416999999999999
sS'spend'
p138
F0.048018999999999999
s.