(dp1
S''
F0.0069740000000000002
sS'-'
F0.0051070000000000004
sS'mission'
p2
F0.0061419999999999999
sS'competitive'
p3
F0.010633
sS'constantly improve'
p4
F0.019547999999999999
sS'four'
p5
F0.014925000000000001
sS'bring'
p6
F0.0061000000000000004
sS'including'
p7
F0.0028869999999999998
sS'human'
p8
F0.011344
sS'committed'
p9
F0.0055459999999999997
sS'strong understanding'
p10
F0.011231
sS'make sure'
p11
F0.015869999999999999
sS'one'
p12
F0.011826
sS'20'
p13
F0.013094
sS'big data'
p14
F0.010629
sS'hadoop-based ecosystem'
p15
F0.025260999999999999
sS'implementation'
p16
F0.0058209999999999998
sS'agile'
p17
F0.0090869999999999996
sS'solr yarn'
p18
F0.025260999999999999
sS'technique'
p19
F0.0046280000000000002
sS'distributed'
p20
F0.018755000000000001
sS'improvement'
p21
F0.0079260000000000008
sS'united kingdom'
p22
F0.014141000000000001
sS'source'
p23
F0.0077130000000000002
sS'using apache hadoop'
p24
F0.025260999999999999
sS'program'
p25
F0.0053410000000000003
sS'lambda design architectures'
p26
F0.025260999999999999
sS'technology constraint'
p27
F0.022369
sS'include'
p28
F0.0063759999999999997
sS'setting'
p29
F0.0096010000000000002
sS'may include'
p30
F0.012999
sS'250 hospital'
p31
F0.026644999999999999
sS'within'
p32
F0.0040969999999999999
sS'founding'
p33
F0.020256
sS'practice'
p34
F0.0067920000000000003
sS'enterprise-wide'
p35
F0.018620000000000001
sS'possible'
p36
F0.0099799999999999993
sS'preferred'
p37
F0.004908
sS'focus'
p38
F0.0067409999999999996
sS'distributed highly-scalable processing'
p39
F0.025260999999999999
sS'strong problem-solving skill'
p40
F0.017181999999999999
sS'jenkins'
p41
F0.014815999999999999
sS'joint commissions list'
p42
F0.026644999999999999
sS'structured semi-structured'
p43
F0.017762
sS'hands-on experience'
p44
F0.011030999999999999
sS'impala hive'
p45
F0.024278999999999998
sS'desire'
p46
F0.0096589999999999992
sS'worlds'
p47
F0.026644999999999999
sS'delivered'
p48
F0.012532
sS'cloudera'
p49
F0.018461000000000002
sS'fortune'
p50
F0.014321
sS"nation's leading provider"
p51
F0.026644999999999999
sS'level'
p52
F0.0050359999999999997
sS'1968 nashville-based hca wa'
p53
F0.026644999999999999
sS'companies'
p54
F0.01456
sS'mapreduce'
p55
F0.01451
sS'server'
p56
F0.012876
sS'large'
p57
F0.0070829999999999999
sS'yearly merit'
p58
F0.026644999999999999
sS'additional facts'
p59
F0.026644999999999999
sS'solution encompassing'
p60
F0.025260999999999999
sS'component'
p61
F0.0097310000000000001
sS'architecture'
p62
F0.0066090000000000003
sS'team'
p63
F0.001305
sS'file system connectivity'
p64
F0.025260999999999999
sS'since 2010'
p65
F0.026644999999999999
sS'ethical'
p66
F0.020826000000000001
sS'domain'
p67
F0.0090670000000000004
sS'java python'
p68
F0.01498
sS'job summary'
p69
F0.012397999999999999
sS'people'
p70
F0.0044159999999999998
sS'maven ant'
p71
F0.025260999999999999
sS'design'
p72
F0.002823
sS'fortune 500'
p73
F0.016420000000000001
sS'measure'
p74
F0.018561999999999999
sS'config orchestration zookeeper puppet salt ansible chef'
p75
F0.026644999999999999
sS'values hca put'
p76
F0.026644999999999999
sS'provided'
p77
F0.024847999999999999
sS'git mercurial'
p78
F0.026644999999999999
sS'scala'
p79
F0.010377000000000001
sS'locally-managed facility'
p80
F0.026644999999999999
sS'increase'
p81
F0.011754000000000001
sS'apache hadoop'
p82
F0.020003
sS'state'
p83
F0.0087819999999999999
sS'hca'
p84
F0.029010000000000001
sS'top performer'
p85
F0.022894999999999999
sS'data scientists'
p86
F0.0089499999999999996
sS'leader'
p87
F0.0053880000000000004
sS'supporting'
p88
F0.0079830000000000005
sS'teradata'
p89
F0.013653
sS'working'
p90
F0.003702
sS'patient'
p91
F0.025692
sS'ability'
p92
F0.0038760000000000001
sS'business'
p93
F0.0046889999999999996
sS'database'
p94
F0.0050359999999999997
sS'26m patient encounter'
p95
F0.026644999999999999
sS'patient safety'
p96
F0.022894999999999999
sS'high quality'
p97
F0.011325
sS'deliver'
p98
F0.0093089999999999996
sS'standard'
p99
F0.0062610000000000001
sS'implementing'
p100
F0.0082679999999999993
sS'hadoop spark'
p101
F0.012728
sS'hadoop cdh'
p102
F0.025260999999999999
sS'key'
p103
F0.0054689999999999999
sS'since 2009'
p104
F0.026644999999999999
sS'group'
p105
F0.0060590000000000001
sS'100'
p106
F0.011442000000000001
sS'understanding'
p107
F0.0043860000000000001
sS'bamboo'
p108
F0.026644999999999999
sS'care'
p109
F0.016709999999999999
sS'certifications'
p110
F0.017638000000000001
sS'big data technologies'
p111
F0.020528999999999999
sS'technical'
p112
F0.0032450000000000001
sS'connectivity error'
p113
F0.025260999999999999
sS'use case'
p114
F0.011955
sS'experience'
p115
F0.0031870000000000002
sS'hbase instance'
p116
F0.025260999999999999
sS'regular'
p117
F0.011731999999999999
sS'ensure'
p118
F0.0057229999999999998
sS'best practice'
p119
F0.014233000000000001
sS'operating'
p120
F0.01051
sS'ranked 63'
p121
F0.026644999999999999
sS'service hca'
p122
F0.026644999999999999
sS'first'
p123
F0.0080999999999999996
sS'load'
p124
F0.01397
sS'control'
p125
F0.010193000000000001
sS'languages java python scala'
p126
F0.025260999999999999
sS'strong verbal written'
p127
F0.022369
sS'interruption'
p128
F0.025260999999999999
sS'manage'
p129
F0.011469
sS'freestanding surgery center'
p130
F0.026644999999999999
sS'community'
p131
F0.0061669999999999997
sS'transform'
p132
F0.0098530000000000006
sS'maintained'
p133
F0.01729
sS'troubleshooting'
p134
F0.011646999999999999
sS'another'
p135
F0.01546
sS'kafka'
p136
F0.015727999999999999
sS'respect'
p137
F0.01051
sS'throughout'
p138
F0.0089599999999999992
sS'quality'
p139
F0.011417
sS'multitask'
p140
F0.017402000000000001
sS'technically'
p141
F0.018023999999999998
sS'regex'
p142
F0.025260999999999999
sS'environment'
p143
F0.0079019999999999993
sS'management'
p144
F0.003859
sS'networking'
p145
F0.028369999999999999
sS'rdbms'
p146
F0.015272000000000001
sS'service'
p147
F0.0036449999999999998
sS'support'
p148
F0.0070089999999999996
sS'devops'
p149
F0.013226
sS'approximately'
p150
F0.015334
sS'optimize'
p151
F0.0084690000000000008
sS'file system'
p152
F0.020003
sS'production'
p153
F0.013563
sS'successful candidate'
p154
F0.010071999999999999
sS'strong'
p155
F0.0034619999999999998
sS'year hca'
p156
F0.026644999999999999
sS'company'
p157
F0.0069579999999999998
sS'today'
p158
F0.021329999999999998
sS'strives'
p159
F0.020003
sS'flume'
p160
F0.020826000000000001
sS'balance competing priority'
p161
F0.022894999999999999
sS'direction'
p162
F0.0080330000000000002
sS'specific business'
p163
F0.020256
sS'caregiver help'
p164
F0.026644999999999999
sS'impose order'
p165
F0.025260999999999999
sS'comprised'
p166
F0.0092079999999999992
sS'serve'
p167
F0.0083309999999999999
sS'interpersonal skill'
p168
F0.012728
sS'required'
p169
F0.003307
sS'understand'
p170
F0.004862
sS'taking responsibility'
p171
F0.021912999999999998
sS'named one'
p172
F0.015727999999999999
sS'highest'
p173
F0.015152000000000001
sS'deployed'
p174
F0.01456
sS'must'
p175
F0.0047619999999999997
sS'json xml'
p176
F0.020826000000000001
sS'oozie'
p177
F0.018786000000000001
sS'cost effective'
p178
F0.017891000000000001
sS'developing'
p179
F0.0046169999999999996
sS'hadoop'
p180
F0.0066179999999999998
sS'work'
p181
F0.0035660000000000002
sS'r'
F0.0051289999999999999
sS'avro parquet'
p182
F0.026644999999999999
sS'country'
p183
F0.010962
sS'following'
p184
F0.0061970000000000003
sS'define'
p185
F0.0069100000000000003
sS'similar'
p186
F0.0077330000000000003
sS'continuous integration'
p187
F0.013226
sS'application development'
p188
F0.024097
sS'fast-changing environment'
p189
F0.023517
sS'resolved'
p190
F0.020256
sS'plus'
p191
F0.0052399999999999999
sS'hadoop mapreduce spark streaming'
p192
F0.026644999999999999
sS'practical experience'
p193
F0.014763
sS'request'
p194
F0.0085620000000000002
sS'sqoop'
p195
F0.021912999999999998
sS'move data'
p196
F0.018786000000000001
sS'best places'
p197
F0.017517999999999999
sS'systems'
p198
F0.043846999999999997
sS'basic understanding'
p199
F0.014711
sS'hardware'
p200
F0.011523
sS'cluster'
p201
F0.026936000000000002
sS'highly-matrixed team-oriented environment'
p202
F0.025260999999999999
sS'need'
p203
F0.0036709999999999998
sS'technology'
p204
F0.002477
sS'work collaboratively'
p205
F0.010571000000000001
sS'provide'
p206
F0.010409
sS'discipline'
p207
F0.0083789999999999993
sS'responsible'
p208
F0.0042030000000000001
sS'percent'
p209
F0.014055
sS'utilize'
p210
F0.0097429999999999999
sS'application'
p211
F0.0074489999999999999
sS'hca facility'
p212
F0.026644999999999999
sS'role'
p213
F0.0035490000000000001
sS'build'
p214
F0.0033289999999999999
sS'certified developer'
p215
F0.022894999999999999
sS"nation's first"
p216
F0.026644999999999999
sS'resulting'
p217
F0.016594999999999999
sS'many'
p218
F0.017090000000000001
sS'unstructured data'
p219
F0.00941
sS'life'
p220
F0.0056429999999999996
sS'continuous'
p221
F0.013540999999999999
sS'pig'
p222
F0.013362000000000001
sS'description'
p223
F0.0070609999999999996
sS'hdfs'
p224
F0.014414
sS'may'
p225
F0.0066959999999999997
sS'ccdh cloudera'
p226
F0.026644999999999999
sS'databases'
p227
F0.017517999999999999
sS'qualifications'
p228
F0.0082269999999999999
sS'employing approximately 230 000'
p229
F0.026644999999999999
sS'new data source'
p230
F0.015094
sS'real-time streaming'
p231
F0.022369
sS'106 hca hospital'
p232
F0.026644999999999999
sS'designed'
p233
F0.011797
sS'sql'
p234
F0.0037950000000000002
sS'robust'
p235
F0.011955
sS'hospital'
p236
F0.015396
sS'data'
p237
F0.001665
sS'building'
p238
F0.0088929999999999999
sS'using short-cycle iteration'
p239
F0.025260999999999999
sS'foundation'
p240
F0.011121000000000001
sS'computerworld top 50'
p241
F0.026644999999999999
sS'inpatient care'
p242
F0.026644999999999999
sS'linux unix'
p243
F0.017402000000000001
sS'business value'
p244
F0.014097999999999999
sS'well'
p245
F0.0040330000000000001
sS'analysis'
p246
F0.002797
sS'timely fashion'
p247
F0.024278999999999998
sS'healthcare'
p248
F0.023504000000000001
sS'five'
p249
F0.013847999999999999
sS'industry matched salary'
p250
F0.026644999999999999
sS'requires'
p251
F0.010602
s.