(dp1
S'responsible'
p2
F0.016868999999999999
sS'feedback'
p3
F0.023675999999999999
sS'client expectation'
p4
F0.036743999999999999
sS'assigned'
p5
F0.019625
sS'executing'
p6
F0.023501000000000001
sS'manager'
p7
F0.013589
sS'day-to-day'
p8
F0.027553000000000001
sS'skill'
p9
F0.012640999999999999
sS'creative'
p10
F0.015424999999999999
sS'based'
p11
F0.010149999999999999
sS'implementation'
p12
F0.011682
sS'project management'
p13
F0.016122000000000001
sS'build'
p14
F0.0066800000000000002
sS'regularly'
p15
F0.026816
sS'manage'
p16
F0.023016999999999999
sS'finance'
p17
F0.018019
sS'delivers result'
p18
F0.031563000000000001
sS'60 market wunderman'
p19
F0.031563000000000001
sS'evaluate'
p20
F0.015765000000000001
sS'inspires people'
p21
F0.031563000000000001
sS'report'
p22
F0.0095399999999999999
sS'dual role'
p23
F0.050694999999999997
sS'communications'
p24
F0.031704000000000003
sS'flawless execution'
p25
F0.053471999999999999
sS'effective communication'
p26
F0.035395999999999997
sS'thorough understanding'
p27
F0.029420000000000002
sS'client relationship'
p28
F0.031995999999999997
sS'computer'
p29
F0.017444000000000001
sS'follow u wunderman'
p30
F0.032147000000000002
sS'operation'
p31
F0.012626999999999999
sS'take action'
p32
F0.028292000000000001
sS'technologist'
p33
F0.023900000000000001
sS'brief'
p34
F0.036743999999999999
sS'continually'
p35
F0.028740000000000002
sS'written'
p36
F0.016545000000000001
sS'leader'
p37
F0.010812
sS'analyst named wunderman'
p38
F0.031563000000000001
sS'ability'
p39
F0.0038899999999999998
sS'business'
p40
F0.00941
sS'strong performer'
p41
F0.031563000000000001
sS'digital agency wunderman combine creativity'
p42
F0.031563000000000001
sS'marketing'
p43
F0.023785000000000001
sS'communicate'
p44
F0.01337
sS'agreement'
p45
F0.030526999999999999
sS'understanding'
p46
F0.0088020000000000008
sS'strong attention'
p47
F0.032147000000000002
sS'deliver'
p48
F0.0093410000000000003
sS'wunderman'
p49
F0.031563000000000001
sS'strong'
p50
F0.0069480000000000002
sS'cross functional team'
p51
F0.029842
sS'industry'
p52
F0.0077929999999999996
sS'experience'
p53
F0.001279
sS'improve efficiency'
p54
F0.033868000000000002
sS'ensure'
p55
F0.011486
sS'microsoft office'
p56
F0.026886
sS'campaign'
p57
F0.023991999999999999
sS'within'
p58
F0.016445999999999999
sS'two'
p59
F0.020212000000000001
sS'trust'
p60
F0.027029000000000001
sS'on-budget'
p61
F0.048724000000000003
sS'use'
p62
F0.0074079999999999997
sS'agency brings together 7 000 creatives data scientist strategist'
p63
F0.031563000000000001
sS'data'
p64
F0.0033419999999999999
sS'system'
p65
F0.0062960000000000004
sS'new york'
p66
F0.021895999999999999
sS'information please visit'
p67
F0.031849000000000002
sS'degree preferred'
p68
F0.034699000000000001
sS'wpp company nasdaq wppgy'
p69
F0.031563000000000001
sS'meeting'
p70
F0.020239
sS'175 office'
p71
F0.031563000000000001
sS'successful'
p72
F0.017097999999999999
sS'clients business'
p73
F0.058220000000000001
sS'leading global'
p74
F0.026025
sS'ensuring'
p75
F0.018973
sS'understand'
p76
F0.009757
sS'excellent'
p77
F0.014126
sS'present'
p78
F0.031364000000000003
sS'sound'
p79
F0.027029000000000001
sS'account'
p80
F0.092172000000000004
sS'look'
p81
F0.021828
sS'effectively'
p82
F0.01444
sS'work'
p83
F0.0047710000000000001
sS'budget'
p84
F0.023810000000000001
sS'project'
p85
F0.016639000000000001
sS'prioritization'
p86
F0.029842
sS'providing'
p87
F0.011861
sS'client satisfaction'
p88
F0.034923999999999997
sS'organizational'
p89
F0.021033
sS'process'
p90
F0.0069319999999999998
sS'creatively driven data inspired'
p91
F0.031563000000000001
sS'scheduling'
p92
F0.033126999999999997
sS'minimum'
p93
F0.012796
sS'ba bs degree'
p94
F0.033305000000000001
sS'2015 industry'
p95
F0.031704000000000003
sS'mutual'
p96
F0.047196000000000002
sS'develop'
p97
F0.0053429999999999997
sS'prior'
p98
F0.024228
sS'on-time'
p99
F0.045947000000000002
sS'agency'
p100
F0.082725000000000007
sS'detail'
p101
F0.015751000000000001
sS'client'
p102
F0.061261999999999997
sS'three year'
p103
F0.054349000000000001
sS'internal'
p104
F0.010976
sS'take'
p105
F0.014126
sS'brand'
p106
F0.017014000000000001
sS'status'
p107
F0.030956999999999998
sS'collaboration'
p108
F0.013478
sS'customer engagement strategy headquartered'
p109
F0.031563000000000001
sS'proficiency'
p110
F0.013243
sS'opportunity'
p111
F0.0068710000000000004
sS'grow'
p112
F0.015479
sS'database'
p113
F0.010107
sS'well'
p114
F0.0080949999999999998
sS'accountable'
p115
F0.027248000000000001
sS'maintain'
p116
F0.01268
sS'responsibility'
p117
F0.027116999999999999
sS'time'
p118
F0.010392999999999999
sS'management'
p119
F0.01549
sS'operate'
p120
F0.021964000000000001
sS'box thinking'
p121
F0.045947000000000002
s.