(dp1
S'hcsc'
p2
F0.032264000000000001
sS'works independently'
p3
F0.026957999999999999
sS'concept'
p4
F0.0097949999999999999
sS'breadth'
p5
F0.022762999999999999
sS'existing'
p6
F0.010477999999999999
sS'product'
p7
F0.0037940000000000001
sS'strong verbal'
p8
F0.021510000000000001
sS'job type'
p9
F0.019522000000000001
sS'including'
p10
F0.0042509999999999996
sS'careers website'
p11
F0.029825000000000001
sS'statistical'
p12
F0.0076810000000000003
sS'committed'
p13
F0.0081659999999999996
sS'best practice'
p14
F0.010477999999999999
sS'based'
p15
F0.014893
sS'knowledge'
p16
F0.0046189999999999998
sS'affirmative action employer'
p17
F0.021974
sS'please note'
p18
F0.021017999999999998
sS'guidance'
p19
F0.014947999999999999
sS'disability'
p20
F0.011435000000000001
sS'3 year experience'
p21
F0.024847999999999999
sS'internal'
p22
F0.0080529999999999994
sS'employee'
p23
F0.0090060000000000001
sS'real world'
p24
F0.018491
sS'interprets'
p25
F0.022669000000000002
sS'advanced mathematical statistical'
p26
F0.103879
sS'returned'
p27
F0.029451999999999999
sS'website on-line application'
p28
F0.032264000000000001
sS'preferred'
p29
F0.0072269999999999999
sS'job submission'
p30
F0.030664
sS'using'
p31
F0.0055789999999999998
sS'function verifies model'
p32
F0.032934999999999999
sS'regarding'
p33
F0.017500999999999999
sS'richardson tx'
p34
F0.031671999999999999
sS'performing'
p35
F0.015431
sS'identified'
p36
F0.018027000000000001
sS'either'
p37
F0.016039000000000001
sS'team'
p38
F0.001921
sS'identify'
p39
F0.0069220000000000002
sS'designs experiment'
p40
F0.031671999999999999
sS'view'
p41
F0.015990000000000001
sS'using advanced mathematical'
p42
F0.031143000000000001
sS'solve complex problem'
p43
F0.023584999999999998
sS'analytics'
p44
F0.0046090000000000002
sS'data analysis'
p45
F0.0097230000000000007
sS'perspective'
p46
F0.014381
sS'employment'
p47
F0.012082000000000001
sS'click'
p48
F0.020389000000000001
sS'receive consideration'
p49
F0.0098230000000000001
sS'provided'
p50
F0.036586
sS'lead'
p51
F0.012148000000000001
sS'pattern'
p52
F0.012302
sS'assistance'
p53
F0.018450999999999999
sS'li-post'
p54
F0.026539
sS'2 year experience'
p55
F0.028781000000000001
sS'sponsorship'
p56
F0.022397
sS'8 year experience'
p57
F0.030664
sS'applicantswe'
p58
F0.032264000000000001
sS'outside'
p59
F0.016320999999999999
sS'performs'
p60
F0.016563000000000001
sS'issue'
p61
F0.0088839999999999995
sS'email'
p62
F0.014770999999999999
sS'masters degree'
p63
F0.011587
sS'teradata'
p64
F0.020101999999999998
sS'2 year'
p65
F0.013192000000000001
sS'theory'
p66
F0.017434999999999999
sS'business'
p67
F0.010356000000000001
sS'resume'
p68
F0.014563
sS'engineering physic'
p69
F0.096793000000000004
sS'takes initiative'
p70
F0.034625999999999997
sS'quantify trend'
p71
F0.032264000000000001
sS'job'
p72
F0.011965
sS'bachelors degree'
p73
F0.011405
sS'drug-free'
p74
F0.030664
sS'statistical modeling'
p75
F0.012421
sS'accommodation'
p76
F0.031980000000000001
sS'business analyst constructs predictive model'
p77
F0.034625999999999997
sS'full-time'
p78
F0.016563000000000001
sS'written communication skill'
p79
F0.01308
sS'language'
p80
F0.0098740000000000008
sS'completing'
p81
F0.02231
sS'experience'
p82
F0.001877
sS'qualified applicant'
p83
F0.0092379999999999997
sS'workplace'
p84
F0.010421
sS'experimental'
p85
F0.01983
sS'probability'
p86
F0.019375
sS'relocation'
p87
F0.021659999999999999
sS'construct solution'
p88
F0.031671999999999999
sS'use'
p89
F0.0054349999999999997
sS'support'
p90
F0.0034399999999999999
sS'question'
p91
F0.01123
sS'generate'
p92
F0.015152000000000001
sS'experience analyzing'
p93
F0.028781000000000001
sS'healthcare data'
p94
F0.021585
sS'analyze'
p95
F0.0089020000000000002
sS'engine'
p96
F0.020330000000000001
sS'recommends'
p97
F0.022762999999999999
sS'diversity'
p98
F0.011566
sS'business problem'
p99
F0.012877
sS'tool'
p100
F0.0036280000000000001
sS'collect data'
p101
F0.046732999999999997
sS'affirmative action'
p102
F0.022485999999999999
sS'theoretically versed'
p103
F0.039231000000000002
sS'smoke-free workplace'
p104
F0.032264000000000001
sS'external'
p105
F0.011627999999999999
sS'job id cp-1016786 description'
p106
F0.039231000000000002
sS'project management'
p107
F0.011828
sS'must'
p108
F0.007012
sS'account'
p109
F0.016906000000000001
sS'disabled veteran'
p110
F0.027660000000000001
sS'innovative solution'
p111
F0.018957999999999999
sS'submitted'
p112
F0.027181
sS'project'
p113
F0.0040689999999999997
sS'background investigation'
p114
F0.019776999999999999
sS'individual'
p115
F0.0079920000000000008
sS'providing'
p116
F0.0087019999999999997
sS'specialized'
p117
F0.020448000000000001
sS"hcsc's career"
p118
F0.032264000000000001
sS'protected veteran status'
p119
F0.012877
sS'collecting'
p120
F0.024434999999999998
sS'dedicated'
p121
F0.014435
sS'reasonable accommodation'
p122
F0.019047999999999999
sS'process'
p123
F0.015258000000000001
sS'general'
p124
F0.014363000000000001
sS'sas'
p125
F0.011070999999999999
sS'statistical concept'
p126
F0.020508999999999999
sS'chicago tx - richardson'
p127
F0.033709999999999997
sS'expertise'
p128
F0.013525000000000001
sS'statistical analysis'
p129
F0.019820999999999998
sS'allowed'
p130
F0.031143000000000001
sS'need'
p131
F0.0054050000000000001
sS'functional team'
p132
F0.023473999999999998
sS'result'
p133
F0.0064910000000000002
sS'strength'
p134
F0.016788999999999998
sS'requirements'
p135
F0.017987
sS'responsible'
p136
F0.0061879999999999999
sS'employment without regard'
p137
F0.010324
sS'application'
p138
F0.016451
sS'methodology'
p139
F0.0088249999999999995
sS'complex'
p140
F0.015925000000000002
sS'take'
p141
F0.010364
sS'effectiveness'
p142
F0.01481
sS'3 year'
p143
F0.011871
sS'application navigate'
p144
F0.032264000000000001
sS'status'
p145
F0.011356
sS'workforce diversity'
p146
F0.028781000000000001
sS'8 year'
p147
F0.016936
sS'may'
p148
F0.0098600000000000007
sS'reporting'
p149
F0.01034
sS'qualifications'
p150
F0.0060569999999999999
sS'complex situation'
p151
F0.029825000000000001
sS'regular'
p152
F0.017274000000000001
sS'purpose'
p153
F0.013887
sS'sql'
p154
F0.0055880000000000001
sS'race color religion sex sexual orientation gender identity national origin disability'
p155
F0.027917999999999998
sS'validate'
p156
F0.015656
sS'law'
p157
F0.011731999999999999
sS'data'
p158
F0.0024520000000000002
sS'chicago il'
p159
F0.025621999999999999
sS'drug screening'
p160
F0.032264000000000001
sS'algorithm'
p161
F0.012489
sS'location il -'
p162
F0.032264000000000001
sS'required'
p163
F0.0097370000000000009
sS'request'
p164
F0.025212999999999999
sS'related quantitative field'
p165
F0.074980000000000005
sS'depth'
p166
F0.021364999999999999
sS'u'
F0.011701
sS'position'
p167
F0.019757
sS'requires'
p168
F0.015610000000000001
sS'equal opportunity'
p169
F0.036664000000000002
s.