(dp1
S'actionable recommendation'
p2
F0.020693
sS'heavily'
p3
F0.025484
sS'translate data'
p4
F0.025024999999999999
sS'insight'
p5
F0.0060910000000000001
sS'strong desire'
p6
F0.021429
sS'hadoop'
p7
F0.0088950000000000001
sS'computer science engineering'
p8
F0.01677
sS'innovative'
p9
F0.0078340000000000007
sS'skill'
p10
F0.016931999999999999
sS'web'
p11
F0.011143999999999999
sS'based'
p12
F0.0067980000000000002
sS'product development effort'
p13
F0.031607999999999997
sS'sr data scientist'
p14
F0.020955000000000001
sS'location irving texas'
p15
F0.038990999999999998
sS'technique'
p16
F0.0062199999999999998
sS'operational'
p17
F0.0098510000000000004
sS'source'
p18
F0.010366
sS'monitoring tool like dynatrace tealeaf etc'
p19
F0.035811000000000003
sS'complex'
p20
F0.0072680000000000002
sS'r python'
p21
F0.014485
sS'excellent written'
p22
F0.014291999999999999
sS'relational database'
p23
F0.011507999999999999
sS'include'
p24
F0.0085699999999999995
sS'presentation'
p25
F0.0087740000000000005
sS'data warehouse'
p26
F0.015406
sS'demonstrated ability'
p27
F0.011978000000000001
sS'professional'
p28
F0.0080770000000000008
sS'scalable'
p29
F0.012574
sS'job title sr data scientist'
p30
F0.038990999999999998
sS'report'
p31
F0.025557
sS'using'
p32
F0.010185
sS'new feature'
p33
F0.020059
sS'oral communication skill'
p34
F0.017776
sS'like'
p35
F0.0098750000000000001
sS'7 year'
p36
F0.014355
sS'scripting language'
p37
F0.015916
sS'least 7 year'
p38
F0.021529
sS'team'
p39
F0.001753
sS'including'
p40
F0.0077619999999999998
sS'including corresponding tracking'
p41
F0.035811000000000003
sS'trend'
p42
F0.0098029999999999992
sS'site catalyst google analytics'
p43
F0.035811000000000003
sS'performance indicator benchmark'
p44
F0.032632000000000001
sS'candidate must'
p45
F0.016954
sS'analytics'
p46
F0.0084150000000000006
sS'web site'
p47
F0.020608999999999999
sS'recommendation'
p48
F0.0091900000000000003
sS'duration'
p49
F0.021631999999999998
sS'web traffic'
p50
F0.053770999999999999
sS'creating'
p51
F0.018603999999999999
sS'project'
p52
F0.0037139999999999999
sS'managing'
p53
F0.010312999999999999
sS'familiarity'
p54
F0.034498000000000001
sS'big data analytics'
p55
F0.016558
sS'critical'
p56
F0.0099889999999999996
sS'various'
p57
F0.015855999999999999
sS'new'
p58
F0.0043210000000000002
sS'net'
p59
F0.020865999999999999
sS'12 months'
p60
F0.038990999999999998
sS'approach'
p61
F0.007535
sS'across'
p62
F0.01538
sS'demonstrated experience'
p63
F0.017069000000000001
sS'teradata'
p64
F0.018350000000000002
sS'data analysis'
p65
F0.0088760000000000002
sS'ability'
p66
F0.01042
sS"bachelor's degree"
p67
F0.0082260000000000007
sS'communicate'
p68
F0.0089540000000000002
sS'bi'
p69
F0.016455999999999998
sS'delivering'
p70
F0.010652
sS'adept'
p71
F0.019986
sS'job'
p72
F0.0054609999999999997
sS'required skills'
p73
F0.014312999999999999
sS'key'
p74
F0.022053
sS'extract meaning'
p75
F0.028912
sS'analyzing data'
p76
F0.039406999999999998
sS'strong'
p77
F0.009306
sS'interpret'
p78
F0.0137
sS'monitor'
p79
F0.039628999999999998
sS'search'
p80
F0.012904000000000001
sS'writing code'
p81
F0.023389
sS'data visualization'
p82
F0.010718999999999999
sS'technical'
p83
F0.0043620000000000004
sS'programming'
p84
F0.0084740000000000006
sS'tool like'
p85
F0.038746999999999997
sS'reach uptake'
p86
F0.035811000000000003
sS'range'
p87
F0.013046
sS'statistical package'
p88
F0.019064999999999999
sS'professional experience'
p89
F0.015654000000000001
sS'etl'
p90
F0.013813000000000001
sS'software'
p91
F0.0093629999999999998
sS'organize'
p92
F0.016954
sS'campaign'
p93
F0.016067999999999999
sS'present finding'
p94
F0.020693
sS'manage'
p95
F0.0077070000000000003
sS'google analytics sitecatayst'
p96
F0.038990999999999998
sS'tool eg'
p97
F0.021738
sS'perform analysis'
p98
F0.016663000000000001
sS'sas dw'
p99
F0.038990999999999998
sS'sas stata etc'
p100
F0.032632000000000001
sS'establish'
p101
F0.012966999999999999
sS'decision making'
p102
F0.013775000000000001
sS'ideal candidate'
p103
F0.011294999999999999
sS'intervention'
p104
F0.022814999999999998
sS'vba java'
p105
F0.035811000000000003
sS'python r'
p106
F0.014551
sS'log'
p107
F0.020955000000000001
sS'analytic'
p108
F0.0082319999999999997
sS'create'
p109
F0.012324
sS'engagement'
p110
F0.024372000000000001
sS'quickly'
p111
F0.012474000000000001
sS'non-technical audience'
p112
F0.015169999999999999
sS'improve'
p113
F0.0069059999999999998
sS'data management'
p114
F0.037379999999999997
sS'website'
p115
F0.013682
sS'funnel'
p116
F0.031607999999999997
sS'documentation'
p117
F0.010768
sS'tool'
p118
F0.0033110000000000001
sS'job description'
p119
F0.0092809999999999993
sS'suggest action item'
p120
F0.032632000000000001
sS'understand'
p121
F0.0065339999999999999
sS'manipulation'
p122
F0.016628
sS'must'
p123
F0.0064009999999999996
sS'customer'
p124
F0.0040090000000000004
sS'analyze'
p125
F0.016253
sS'target'
p126
F0.015406
sS'developing'
p127
F0.0062049999999999996
sS'data set'
p128
F0.029513000000000001
sS'individual'
p129
F0.0072960000000000004
sS'ongoing'
p130
F0.01303
sS'dashboard'
p131
F0.013193
sS'behavior'
p132
F0.027817000000000001
sS'making'
p133
F0.011599999999999999
sS'extracting'
p134
F0.018612
sS'gathering'
p135
F0.019914000000000001
sS'analytics platform'
p136
F0.018199
sS'metric'
p137
F0.011495999999999999
sS'measure'
p138
F0.012474000000000001
sS'site'
p139
F0.014026
sS'experience'
p140
F0.001714
sS'work collaboratively'
p141
F0.014208
sS'large data set'
p142
F0.011804
sS'conversion'
p143
F0.019064999999999999
sS'etc'
p144
F0.0066049999999999998
sS'responsible'
p145
F0.0056490000000000004
sS'tableau'
p146
F0.023462
sS'client'
p147
F0.0058609999999999999
sS'also'
p148
F0.0075989999999999999
sS'internal'
p149
F0.0073509999999999999
sS'various source'
p150
F0.017958999999999999
sS'digital'
p151
F0.030216
sS'effectiveness'
p152
F0.013519
sS'used'
p153
F0.0096329999999999992
sS'deep understanding'
p154
F0.014187999999999999
sS'strong interpersonal skill'
p155
F0.022069999999999999
sS'assist'
p156
F0.010030000000000001
sS'paid'
p157
F0.017599
sS'automation'
p158
F0.014208
sS'develops'
p159
F0.011122999999999999
sS'sql'
p160
F0.010201999999999999
sS'data'
p161
F0.002238
sS'task'
p162
F0.0095270000000000007
sS'database'
p163
F0.020306999999999999
sS'mobile'
p164
F0.012488000000000001
sS'gather'
p165
F0.016258000000000002
sS'drive'
p166
F0.0058919999999999997
sS'analysis'
p167
F0.0075170000000000002
sS'inform'
p168
F0.014898
sS'digital property'
p169
F0.057824
sS'responsibility'
p170
F0.0090810000000000005
sS'splunk'
p171
F0.021738
sS'oracle'
p172
F0.014803
sS'position'
p173
F0.004509
sS'requires'
p174
F0.014250000000000001
sS'merge data'
p175
F0.031607999999999997
s.