(dp1
S''
F0.0060099999999999997
sS'concept'
p2
F0.0057330000000000002
sS'help'
p3
F0.0029199999999999999
sS'show'
p4
F0.010638999999999999
sS'money'
p5
F0.024603
sS'guided'
p6
F0.010423999999999999
sS'applicable federal state'
p7
F0.010423999999999999
sS'status protected'
p8
F0.011967999999999999
sS'mission'
p9
F0.005293
sS'lean ritual'
p10
F0.019730000000000001
sS'superior result'
p11
F0.010822999999999999
sS'leads'
p12
F0.011396999999999999
sS'elevate'
p13
F0.010776000000000001
sS'preferred qualifications'
p14
F0.0063270000000000002
sS'maternity protected veteran status'
p15
F0.011174999999999999
sS'committed'
p16
F0.0047790000000000003
sS'plano tx'
p17
F0.018537999999999999
sS'systematically use'
p18
F0.018537999999999999
sS'contributing practitioner thought leader'
p19
F0.018884000000000001
sS'succeeding'
p20
F0.021599
sS'developer'
p21
F0.0066699999999999997
sS'develop launch'
p22
F0.018228000000000001
sS'humanity back'
p23
F0.018884000000000001
sS'2-4 year'
p24
F0.030835000000000001
sS'agile'
p25
F0.015661000000000001
sS'promote'
p26
F0.0098270000000000007
sS'optimization'
p27
F0.006123
sS'achieve product-market fit'
p28
F0.020923000000000001
sS'improvement'
p29
F0.0068300000000000001
sS'environment'
p30
F0.003405
sS'home loans industry'
p31
F0.020267
sS'health'
p32
F0.0070780000000000001
sS'holiday'
p33
F0.013613999999999999
sS'humanity'
p34
F0.010638999999999999
sS'computer science'
p35
F0.0045770000000000003
sS'change banking'
p36
F0.010776000000000001
sS'digit'
p37
F0.018884000000000001
sS'good'
p38
F0.0063940000000000004
sS'third-party product'
p39
F0.012381
sS'made'
p40
F0.0088929999999999999
sS'america plano texas'
p41
F0.015778
sS'design thinking'
p42
F0.014225
sS'financial backing'
p43
F0.018537999999999999
sS'financial service'
p44
F0.0097929999999999996
sS'focus'
p45
F0.0058089999999999999
sS'define'
p46
F0.01191
sS'valued'
p47
F0.0099299999999999996
sS'military experience'
p48
F0.010969
sS'servicing'
p49
F0.032091000000000001
sS'achieving transformation'
p50
F0.020267
sS'right thing'
p51
F0.010444999999999999
sS'service educational tool'
p52
F0.012422000000000001
sS'execution'
p53
F0.0066990000000000001
sS'manner consistent'
p54
F0.0090060000000000001
sS'realize'
p55
F0.0093299999999999998
sS'local law capital one promotes'
p56
F0.011257
sS'customer enjoy'
p57
F0.010822999999999999
sS'success'
p58
F0.015653
sS'identifying'
p59
F0.0078650000000000005
sS'gender'
p60
F0.011174999999999999
sS'philippines'
p61
F0.012422000000000001
sS'developing'
p62
F0.0039789999999999999
sS'leader'
p63
F0.0046430000000000004
sS'banking'
p64
F0.018246999999999999
sS'plane ticket home'
p65
F0.018884000000000001
sS'future entrepreneurship'
p66
F0.019276999999999999
sS'real time'
p67
F0.010423999999999999
sS'team'
p68
F0.0056210000000000001
sS'enhance'
p69
F0.0076800000000000002
sS'job please contact capital one recruiting'
p70
F0.011899
sS'vision'
p71
F0.0064050000000000001
sS'basic qualifications'
p72
F0.0066410000000000002
sS'requirement'
p73
F0.0037160000000000001
sS'set'
p74
F0.0062760000000000003
sS'financial'
p75
F0.011316
sS'uncover opportunity'
p76
F0.017947999999999999
sS'careers capitalonecom'
p77
F0.012422000000000001
sS'designer engineer'
p78
F0.016188999999999999
sS'play'
p79
F0.0079000000000000008
sS'used'
p80
F0.0061760000000000001
sS'fortune 200 company'
p81
F0.012463
sS'learn'
p82
F0.0056010000000000001
sS'perspective'
p83
F0.0084169999999999991
sS'measure'
p84
F0.015996
sS'home'
p85
F0.009476
sS'capital one europe'
p86
F0.012422000000000001
sS'receive consideration'
p87
F0.0057499999999999999
sS'canada'
p88
F0.011018999999999999
sS'business forward'
p89
F0.015909
sS'scale'
p90
F0.0066179999999999998
sS'bringing ingenuity simplicity'
p91
F0.010847000000000001
sS'vertical'
p92
F0.013161000000000001
sS'lead'
p93
F0.00711
sS'capital one canada'
p94
F0.012422000000000001
sS'least 3 year'
p95
F0.013494000000000001
sS'leading information-based technology company still founder-led'
p96
F0.010847000000000001
sS'iterative refinement'
p97
F0.018228000000000001
sS'enough'
p98
F0.013436
sS'critical'
p99
F0.0064050000000000001
sS'associate serve'
p100
F0.010847000000000001
sS'decision making'
p101
F0.0088319999999999996
sS'innovation'
p102
F0.0091819999999999992
sS'new'
p103
F0.0055409999999999999
sS'extent applicable article 23-a'
p104
F0.011257
sS'apply'
p105
F0.0041310000000000001
sS'across'
p106
F0.003287
sS'thrive'
p107
F0.0077539999999999996
sS'masters degree'
p108
F0.0067819999999999998
sS'cross-functional team'
p109
F0.00911
sS'chief executive officer richard fairbank capital one'
p110
F0.010847000000000001
sS'positively shape'
p111
F0.019276999999999999
sS'business'
p112
F0.0020200000000000001
sS'subject matter expert'
p113
F0.0089049999999999997
sS'central enabler'
p114
F0.018884000000000001
sS'screen'
p115
F0.014460000000000001
sS'liable'
p116
F0.012263
sS'data scientist'
p117
F0.0038860000000000001
sS'regulation regarding criminal background inquiry'
p118
F0.011257
sS'job'
p119
F0.0035010000000000002
sS'bachelors degree'
p120
F0.013351
sS'deliver'
p121
F0.0040109999999999998
sS'key'
p122
F0.0047130000000000002
sS'humility'
p123
F0.010383
sS'participate'
p124
F0.0068360000000000001
sS'product'
p125
F0.015546000000000001
sS'accommodation'
p126
F0.0093589999999999993
sS'change'
p127
F0.0053579999999999999
sS'b testing'
p128
F0.012186000000000001
sS'equal opportunity employer committed'
p129
F0.010205000000000001
sS'horizontal economics'
p130
F0.020923000000000001
sS'startup culture'
p131
F0.01634
sS'career'
p132
F0.0061960000000000001
sS'extent required'
p133
F0.012422000000000001
sS'industry'
p134
F0.010038999999999999
sS'relentlessly push'
p135
F0.019730000000000001
sS'ob'
p136
F0.010799
sS'experience'
p137
F0.0010989999999999999
sS'qualified applicant'
p138
F0.0054070000000000003
sS'innovative'
p139
F0.0050229999999999997
sS'mentor'
p140
F0.0080350000000000005
sS'analysis'
p141
F0.0024099999999999998
sS'learning agenda'
p142
F0.017691999999999999
sS'experience translating business strategy'
p143
F0.018537999999999999
sS'decade overdue capital one'
p144
F0.019276999999999999
sS'shared value'
p145
F0.01073
sS'communication'
p146
F0.006123
sS'loan'
p147
F0.016499
sS'product managers'
p148
F0.012678
sS'mba'
p149
F0.012263
sS'1-800-304-9102'
p150
F0.011257
sS'email'
p151
F0.0086449999999999999
sS'company stemming'
p152
F0.019276999999999999
sS'measure success failure'
p153
F0.019276999999999999
sS'money remained relatively static'
p154
F0.018884000000000001
sS'iterate'
p155
F0.012958000000000001
sS'3-5 year'
p156
F0.023597
sS'respect'
p157
F0.0090580000000000001
sS'writing'
p158
F0.0071859999999999997
sS'establish'
p159
F0.0083140000000000002
sS'validate'
p160
F0.0091640000000000003
sS'market'
p161
F0.0055339999999999999
sS'united kingdom'
p162
F0.012186000000000001
sS'ensures'
p163
F0.010551
sS'dna'
p164
F0.01634
sS'employment authorization'
p165
F0.010487
sS'service'
p166
F0.0031410000000000001
sS'powered'
p167
F0.0098949999999999993
sS'agency please capital one'
p168
F0.011257
sS'interact'
p169
F0.0079710000000000007
sS'support'
p170
F0.002013
sS'question'
p171
F0.0065729999999999998
sS'responsibility'
p172
F0.0058219999999999999
sS'strategy'
p173
F0.00415
sS'deeply ingrained'
p174
F0.019276999999999999
sS'product manager'
p175
F0.015678000000000001
sS'teamwork'
p176
F0.0089180000000000006
sS'way'
p177
F0.0044390000000000002
sS'recruitingaccommodation capitalonecom'
p178
F0.012422000000000001
sS'drug-free workplace capital one'
p179
F0.011257
sS'capital one doe'
p180
F0.012422000000000001
sS'4 year'
p181
F0.0094610000000000007
sS'life'
p182
F0.0048630000000000001
sS'diversity'
p183
F0.00677
sS'deep respect'
p184
F0.010847000000000001
sS'believe'
p185
F0.0060899999999999999
sS'serve'
p186
F0.0071789999999999996
sS'guide interdisciplinary team'
p187
F0.019276999999999999
sS'site'
p188
F0.0089929999999999993
sS'customer achieve'
p189
F0.010707
sS'prioritize negotiate'
p190
F0.018228000000000001
sS"capital one's recruiting process please send"
p191
F0.012422000000000001
sS'founder ceo'
p192
F0.019276999999999999
sS'several different entity please note'
p193
F0.012422000000000001
sS'capital one'
p194
F0.04129
sS'provide'
p195
F0.00299
sS'applicable law regarding criminal background inquiry including'
p196
F0.011257
sS'ha'
p197
F0.0054640000000000001
sS'effort'
p198
F0.0059059999999999998
sS'analyst'
p199
F0.0059820000000000003
sS'customer'
p200
F0.010281
sS'bring ingenuity simplicity'
p201
F0.017691999999999999
sS'look'
p202
F0.0093729999999999994
sS'information available'
p203
F0.011865000000000001
sS'local law'
p204
F0.010109999999999999
sS'plano 6 31066 united states'
p205
F0.019730000000000001
sS'car'
p206
F0.012224
sS'require'
p207
F0.0077380000000000001
sS'advocacy'
p208
F0.010617
sS'project'
p209
F0.002382
sS'full stack'
p210
F0.012909
sS'prioritization'
p211
F0.012814000000000001
sS'ongoing'
p212
F0.0083549999999999996
sS'dream together'
p213
F0.010847000000000001
sS'product management'
p214
F0.017616
sS'making'
p215
F0.0074380000000000002
sS'minimum viable product mvp'
p216
F0.018884000000000001
sS'guide'
p217
F0.0083040000000000006
sS'sponsor'
p218
F0.0094470000000000005
sS'exhibit'
p219
F0.010466
sS'regularly'
p220
F0.011514999999999999
sS'auto finance'
p221
F0.054684000000000003
sS'someone grocery first'
p222
F0.019730000000000001
sS'criminal history'
p223
F0.00911
sS'customer succeed'
p224
F0.010799
sS'provide needed reasonable accommodation'
p225
F0.012422000000000001
sS'consider'
p226
F0.0080260000000000001
sS'engineering'
p227
F0.0039719999999999998
sS'refine'
p228
F0.012149
sS'undergone major'
p229
F0.019276999999999999
sS'need'
p230
F0.0031640000000000001
sS'product roll-out strategy'
p231
F0.017691999999999999
sS'story'
p232
F0.0093299999999999998
sS'openness'
p233
F0.010638999999999999
sS'guarantee'
p234
F0.011967999999999999
sS'establish rhythm'
p235
F0.018884000000000001
sS'information'
p236
F0.0033969999999999998
sS'capital one philippines service corp copssc'
p237
F0.012422000000000001
sS'goal'
p238
F0.010534999999999999
sS'perform'
p239
F0.0052350000000000001
sS'new york correction law san francisco california police code article 49 sections 4901-4920 new york citys fair chance act philadelphias fair criminal records screening act'
p240
F0.012422000000000001
sS'also'
p241
F0.0048719999999999996
sS'setting'
p242
F0.0082740000000000001
sS'role'
p243
F0.0030590000000000001
sS'chairman'
p244
F0.021552000000000002
sS'orchestrate successful launch'
p245
F0.018228000000000001
sS'small-scale pilot'
p246
F0.020923000000000001
sS'test'
p247
F0.011449000000000001
sS'consumer facing digital'
p248
F0.017691999999999999
sS'digital'
p249
F0.0064580000000000002
sS'race color age national origin religion'
p250
F0.014151
sS'performance indicator kpis'
p251
F0.019730000000000001
sS'company'
p252
F0.0029979999999999998
sS'workplace'
p253
F0.0060990000000000003
sS'employment qualified applicant'
p254
F0.00911
sS'trade-off discussion'
p255
F0.019276999999999999
sS'designer'
p256
F0.0094909999999999994
sS'position posted'
p257
F0.037024000000000001
sS'transforming'
p258
F0.010847000000000001
sS'disability genetic information marital status sexual orientation gender identity assignment citizenship pregnancy'
p259
F0.014151
sS'collaboration'
p260
F0.0057879999999999997
sS'3 year'
p261
F0.0069480000000000002
sS'helping'
p262
F0.0063369999999999998
sS'journey'
p263
F0.012004000000000001
sS'track'
p264
F0.0095370000000000003
sS'applicable national federal state'
p265
F0.01107
sS'never'
p266
F0.013161000000000001
sS'position'
p267
F0.0028909999999999999
sS'board richard fairbanks'
p268
F0.020267
sS'disruption opportunity'
p269
F0.019276999999999999
sS'data'
p270
F0.0014350000000000001
sS'cycle'
p271
F0.011669000000000001
sS'building'
p272
F0.0038319999999999999
sS'roadmaps'
p273
F0.013214
sS'provide endorse'
p274
F0.012422000000000001
sS'performance'
p275
F0.0042989999999999999
sS'employment without regard'
p276
F0.0060429999999999998
sS'considered'
p277
F0.0074079999999999997
sS'applicant'
p278
F0.00743
sS'drive'
p279
F0.011332
sS'daily'
p280
F0.0098779999999999996
sS'rigorous process'
p281
F0.018884000000000001
sS'remove blocker'
p282
F0.017947999999999999
sS'kept confidential'
p283
F0.012422000000000001
sS'quest'
p284
F0.020565
sS'u'
F0.0068479999999999999
sS'time'
p285
F0.004463
sS'transformation dramatic change'
p286
F0.019276999999999999
sS'understand'
p287
F0.0041900000000000001
sS'5 year'
p288
F0.0063940000000000004
sS'lead road mapping'
p289
F0.018884000000000001
sS'identify unmet need'
p290
F0.019276999999999999
sS'technical'
p291
F0.002797
s.