(dp1
S'concept'
p2
F0.0037629999999999999
sS'federal law governing non-discrimination'
p3
F0.016409
sS'global'
p4
F0.0066550000000000003
sS'dynamic'
p5
F0.0043889999999999997
sS'jackson pollock'
p6
F0.016409
sS'manager'
p7
F0.0076600000000000001
sS'effort comply'
p8
F0.015070999999999999
sS'integrity'
p9
F0.0051399999999999996
sS'flsa'
p10
F0.013733
sS'expected tocontribute immediately'
p11
F0.016409
sS'environment'
p12
F0.0067039999999999999
sS'submit yourapplication'
p13
F0.016409
sS'must'
p14
F0.0053870000000000003
sS'come witha startup mentality'
p15
F0.016409
sS'collaborate'
p16
F0.0032880000000000001
sS'tool andtheories'
p17
F0.016409
sS'good inter-personal skill combined'
p18
F0.015070999999999999
sS'financial service'
p19
F0.012855999999999999
sS'holder may'
p20
F0.016409
sS'sound like'
p21
F0.0086040000000000005
sS'structured semi-structured'
p22
F0.010047
sS'massive data set'
p23
F0.0093369999999999998
sS'level'
p24
F0.002849
sS'fast-paced'
p25
F0.0062599999999999999
sS'gender'
p26
F0.0073350000000000004
sS'solution'
p27
F0.0013730000000000001
sS'domestically'
p28
F0.015070999999999999
sS'distinctive investment'
p29
F0.015070999999999999
sS'excellence'
p30
F0.0091719999999999996
sS'team'
p31
F0.00073800000000000005
sS'predictive analytics'
p32
F0.0050090000000000004
sS'enjoy'
p33
F0.0062500000000000003
sS'agile development'
p34
F0.006842
sS'translating'
p35
F0.0081270000000000005
sS'design'
p36
F0.0031939999999999998
sS'investment'
p37
F0.018428
sS'thought provoking work'
p38
F0.015070999999999999
sS'business'
p39
F0.0013259999999999999
sS'applied statistic'
p40
F0.0091940000000000008
sS'experiment'
p41
F0.0050299999999999997
sS'new'
p42
F0.001818
sS'method'
p43
F0.0054000000000000003
sS"time invesco's culture"
p44
F0.016409
sS'understanding'
p45
F0.0024810000000000001
sS'hours'
p46
F0.0091479999999999999
sS'operating'
p47
F0.0059449999999999998
sS'present result'
p48
F0.0074619999999999999
sS'great'
p49
F0.0045649999999999996
sS'technical'
p50
F0.001836
sS'inspired'
p51
F0.006829
sS'experience'
p52
F0.002885
sS'understand thenuances'
p53
F0.016409
sS'par atinvesco'
p54
F0.016409
sS'implement'
p55
F0.0054640000000000001
sS'flexyour brain'
p56
F0.016409
sS'veteran status'
p57
F0.0060689999999999997
sS'perform analysis'
p58
F0.0070130000000000001
sS'cloud'
p59
F0.0042249999999999996
sS'predictive model'
p60
F0.0045770000000000003
sS"invesco you'll beexpected"
p61
F0.016409
sS'working'
p62
F0.0062820000000000003
sS'devops'
p63
F0.0074809999999999998
sS'call'
p64
F0.007058
sS'recommend'
p65
F0.0062700000000000004
sS'type'
p66
F0.0051399999999999996
sS'company'
p67
F0.0019680000000000001
sS'excellent'
p68
F0.0039820000000000003
sS'validation method'
p69
F0.0089359999999999995
sS'customer'
p70
F0.0016869999999999999
sS'local office'
p71
F0.0085380000000000005
sS'join'
p72
F0.0028830000000000001
sS'hour'
p73
F0.015402000000000001
sS'work'
p74
F0.0020170000000000001
sS'machine learning'
p75
F0.0062779999999999997
sS'gender identity sexual orientation'
p76
F0.0093869999999999995
sS'latestin innovative'
p77
F0.016409
sS'learn'
p78
F0.0073530000000000002
sS'following'
p79
F0.0035049999999999999
sS'meet'
p80
F0.0073210000000000003
sS'agile software development'
p81
F0.0086730000000000002
sS'10 pound'
p82
F0.01295
sS'dedicated'
p83
F0.0055449999999999996
sS'challenging'
p84
F0.0053660000000000001
sS"master's degree"
p85
F0.0043179999999999998
sS'minimum'
p86
F0.003607
sS'software needed'
p87
F0.0086730000000000002
sS'leading independent'
p88
F0.015070999999999999
sS'personal attributes'
p89
F0.009018
sS'information'
p90
F0.0044590000000000003
sS'goal'
p91
F0.003457
sS'verify'
p92
F0.0091039999999999992
sS'travel'
p93
F0.0044010000000000004
sS'utilize'
p94
F0.0055110000000000003
sS'familiar'
p95
F0.0062199999999999998
sS'economy'
p96
F0.0094909999999999994
sS'classification collaborative filtering association rule sentiment analysis topic modeling time-series analysis regression statistical inference'
p97
F0.0090609999999999996
sS'product'
p98
F0.0014580000000000001
sS'description'
p99
F0.0039940000000000002
sS'may'
p100
F0.0037880000000000001
sS'working conditions'
p101
F0.010829
sS'demanding'
p102
F0.010442
sS'designed'
p103
F0.013346
sS'employee assigned'
p104
F0.010442
sS'structured disciplined approach'
p105
F0.015070999999999999
sS'data'
p106
F0.002826
sS'unstructured'
p107
F0.012324
sS'maybe'
p108
F0.012652999999999999
sS'supervision'
p109
F0.0082349999999999993
sS'fluent'
p110
F0.0081799999999999998
sS'responsibility'
p111
F0.0038219999999999999
sS'operate'
p112
F0.0061910000000000003
sS'dream'
p113
F0.0088959999999999994
sS'imagining'
p114
F0.012168
sS'race creed color religion sex'
p115
F0.016409
sS'move'
p116
F0.012540000000000001
sS'interpreted'
p117
F0.0099089999999999994
sS'statistical'
p118
F0.0059020000000000001
sS'magic eye'
p119
F0.016409
sS'k-nn naive bayes svm decision forests etc'
p120
F0.011457999999999999
sS'20'
p121
F0.0074070000000000004
sS"doesn't seem big enough"
p122
F0.016409
sS'fit'
p123
F0.0067489999999999998
sS'willing'
p124
F0.0060590000000000001
sS'process cleanse'
p125
F0.013733
sS'extend ivz data'
p126
F0.015070999999999999
sS'identify pattern'
p127
F0.0080239999999999999
sS'may include'
p128
F0.0073530000000000002
sS'good'
p129
F0.0041970000000000002
sS'seeking'
p130
F0.0034759999999999999
sS'python'
p131
F0.0028830000000000001
sS'practice'
p132
F0.0038419999999999999
sS'commitment'
p133
F0.0054910000000000002
sS'key responsibilities'
p134
F0.0070879999999999997
sS'investor'
p135
F0.0088570000000000003
sS'data visualization tool'
p136
F0.0077010000000000004
sS'always'
p137
F0.0073530000000000002
sS'capability'
p138
F0.0033609999999999998
sS'skills'
p139
F0.0041970000000000002
sS'strong analytical'
p140
F0.0065519999999999997
sS'classifier'
p141
F0.0085050000000000004
sS'data analytics'
p142
F0.0042849999999999997
sS'thingi like'
p143
F0.015070999999999999
sS'financial'
p144
F0.0074279999999999997
sS'analyze historical data'
p145
F0.0085380000000000005
sS'globe'
p146
F0.004712
sS'idea'
p147
F0.0043
sS'mapreduce'
p148
F0.008208
sS'every day'
p149
F0.0055799999999999999
sS'technology tointroduce leading edge'
p150
F0.016409
sS'propel u'
p151
F0.015070999999999999
sS'ultimately'
p152
F0.0087810000000000006
sS'inclusivity'
p153
F0.016409
sS'extrapolate'
p154
F0.016409
sS'workwith'
p155
F0.015070999999999999
sS'10 year'
p156
F0.01256
sS'expectthat'
p157
F0.016409
sS'temperature'
p158
F0.015070999999999999
sS'marital status national origin'
p159
F0.015070999999999999
sS'third party source'
p160
F0.01094
sS'working hypothesis prepare'
p161
F0.0086379999999999998
sS'qualified applicant'
p162
F0.0035490000000000001
sS'creates'
p163
F0.0065290000000000001
sS'thing'
p164
F0.0057270000000000003
sS'qualification'
p165
F0.0057970000000000001
sS'professional experience'
p166
F0.0065880000000000001
sS'24 hour'
p167
F0.014288
sS'carry'
p168
F0.0088959999999999994
sS'cell phone'
p169
F0.013733
sS'little'
p170
F0.018773999999999999
sS'management'
p171
F0.0065490000000000001
sS'semi-structured data'
p172
F0.0085050000000000004
sS'service'
p173
F0.0041229999999999999
sS'leading'
p174
F0.0027659999999999998
sS'cutting edge'
p175
F0.0056750000000000004
sS'priority'
p176
F0.011147000000000001
sS'indicate'
p177
F0.01094
sS'listed'
p178
F0.0091479999999999999
sS'manager houston usa'
p179
F0.015070999999999999
sS'big data platform'
p180
F0.0073709999999999999
sS'listen'
p181
F0.0099769999999999998
sS'self-motivated'
p182
F0.006483
sS'tool'
p183
F0.0013940000000000001
sS'citizenship status disability'
p184
F0.016409
sS'serve'
p185
F0.004712
sS'part'
p186
F0.0026410000000000001
sS'next iteration'
p187
F0.013733
sS'positively'
p188
F0.01295
sS'symbol ivz'
p189
F0.015070999999999999
sS'tight deadline'
p190
F0.0091039999999999992
sS'seniordata scientist'
p191
F0.015070999999999999
sS'project'
p192
F0.0015629999999999999
sS'r'
F0.0058019999999999999
sS'strong written'
p193
F0.0075389999999999997
sS'distribution statistical'
p194
F0.01094
sS'willingness'
p195
F0.006032
sS'manner'
p196
F0.0063420000000000004
sS'sas'
p197
F0.0042529999999999998
sS'may vary depending upon'
p198
F0.015070999999999999
sS'afraid'
p199
F0.0073350000000000004
sS'comfortable working'
p200
F0.0077660000000000003
sS'software package'
p201
F0.0074999999999999997
sS'able'
p202
F0.0089630000000000005
sS'also'
p203
F0.0063959999999999998
sS'develop theinnovative solution'
p204
F0.015070999999999999
sS'build'
p205
F0.0018829999999999999
sS'objective'
p206
F0.0045149999999999999
sS'worldwide'
p207
F0.0061809999999999999
sS'object'
p208
F0.0083510000000000008
sS'react'
p209
F0.0075579999999999996
sS'regular'
p210
F0.0066360000000000004
sS'significant'
p211
F0.0056600000000000001
sS'pager'
p212
F0.015070999999999999
sS'normally work'
p213
F0.011612000000000001
sS'highly complex'
p214
F0.0079500000000000005
sS'clear'
p215
F0.0053099999999999996
sS'proud'
p216
F0.0051739999999999998
sS'request'
p217
F0.0048430000000000001
sS"you'll"
p218
F0.0088710000000000004
sS'verbal communication skill'
p219
F0.006143
sS'fact'
p220
F0.0087089999999999997
sS'comprehensive inventory'
p221
F0.011612000000000001
sS'bring'
p222
F0.0034499999999999999
sS'wide range'
p223
F0.0054050000000000001
sS'working together'
p224
F0.017791999999999999
sS'knowledge'
p225
F0.0035490000000000001
sS'big data'
p226
F0.003006
sS"you'll get"
p227
F0.0095460000000000007
sS'behind'
p228
F0.0080490000000000006
sS'noise dust'
p229
F0.015070999999999999
sS'ambiguity'
p230
F0.0070730000000000003
sS'employee'
p231
F0.00346
sS'achieve'
p232
F0.0045729999999999998
sS'get'
p233
F0.0087329999999999994
sS'perform explanatory data analysis generate'
p234
F0.0089770000000000006
sS'guide ourattitudes'
p235
F0.015070999999999999
sS'preferred'
p236
F0.0083289999999999996
sS'truly'
p237
F0.0086040000000000005
sS'advanced degree'
p238
F0.00545
sS'yield'
p239
F0.0094909999999999994
sS'may include evening'
p240
F0.015070999999999999
sS'architecture'
p241
F0.003738
sS'contain'
p242
F0.010626
sS'business decision'
p243
F0.0067749999999999998
sS'requirement'
p244
F0.0048770000000000003
sS'job summary'
p245
F0.0070130000000000001
sS'work experience'
p246
F0.0050299999999999997
sS'testing'
p247
F0.0036870000000000002
sS'big data technology'
p248
F0.005411
sS'see'
p249
F0.0051450000000000003
sS'fail'
p250
F0.020093
sS'assetmanagement space'
p251
F0.016409
sS'big data analytics'
p252
F0.0069690000000000004
sS'state'
p253
F0.0049680000000000002
sS'determined'
p254
F0.0096019999999999994
sS'progress'
p255
F0.0068700000000000002
sS'amazon web services aws'
p256
F0.011315
sS'approach'
p257
F0.0031710000000000002
sS'comparable'
p258
F0.0093369999999999998
sS'2 year'
p259
F0.010135999999999999
sS'ability'
p260
F0.0032889999999999998
sS'fearless'
p261
F0.014288
sS'attention'
p262
F0.0063530000000000001
sS'deliver'
p263
F0.0026329999999999999
sS'however'
p264
F0.018036
sS'job'
p265
F0.0091929999999999998
sS'group'
p266
F0.0034269999999999999
sS'delivering'
p267
F0.004483
sS'estimate 10-15'
p268
F0.015070999999999999
sS'country'
p269
F0.0061999999999999998
sS'potential future outcome'
p270
F0.0087449999999999993
sS'positive team-focused attitude'
p271
F0.015070999999999999
sS'youlook'
p272
F0.016409
sS'etc'
p273
F0.0027799999999999999
sS'collaborative environmentour people'
p274
F0.015070999999999999
sS'workplace'
p275
F0.0040029999999999996
sS"can't"
p276
F0.012168
sS'otherwise'
p277
F0.0093869999999999995
sS'duty'
p278
F0.011008
sS'point'
p279
F0.0069109999999999996
sS'data science'
p280
F0.0022889999999999998
sS'capability invesco provides'
p281
F0.015070999999999999
sS'nosql database'
p282
F0.0069690000000000004
sS'data mining'
p283
F0.003617
sS'recommendation engine'
p284
F0.010725
sS'java'
p285
F0.0043779999999999999
sS'internationally frequency'
p286
F0.015070999999999999
sS'capable'
p287
F0.0064720000000000003
sS'technologies akafintech'
p288
F0.016409
sS'challenged'
p289
F0.0091479999999999999
sS'rememberthat'
p290
F0.016409
sS'strategy'
p291
F0.0027239999999999999
sS'interpret'
p292
F0.0057660000000000003
sS'maintenance'
p293
F0.0055310000000000003
sS'flexible'
p294
F0.0055799999999999999
sS'duties'
p295
F0.0061710000000000003
sS'firm'
p296
F0.010784
sS'wild ideasand vocal'
p297
F0.016409
sS'diversity'
p298
F0.0044429999999999999
sS'work performed'
p299
F0.0099769999999999998
sS'exempt'
p300
F0.013302
sS'state-of-the-art method'
p301
F0.013302
sS'developing'
p302
F0.002611
sS'superiorinvestment experience'
p303
F0.015070999999999999
sS'invesco'
p304
F0.015070999999999999
sS'statistical analysis'
p305
F0.0038070000000000001
sS'technology'
p306
F0.0014009999999999999
sS'regression'
p307
F0.0065409999999999999
sS'strong desire'
p308
F0.009018
sS'develop'
p309
F0.001506
sS'perform'
p310
F0.010309
sS'educational institution'
p311
F0.011612000000000001
sS'hadoop'
p312
F0.0037439999999999999
sS'machine learning technique'
p313
F0.0056020000000000002
sS'disruptive technology'
p314
F0.011964000000000001
sS'intersectionof finance'
p315
F0.016409
sS'day'
p316
F0.0054910000000000002
sS'development'
p317
F0.0012949999999999999
sS'collaborative team thatwants'
p318
F0.016409
sS'general nature'
p319
F0.0099769999999999998
sS'assignment'
p320
F0.0060780000000000001
sS'tangible output'
p321
F0.013733
sS'purpose'
p322
F0.0053350000000000003
sS'changing'
p323
F0.0063420000000000004
sS'sentiment analyzer'
p324
F0.016409
sS'employment without regard'
p325
F0.0039659999999999999
sS'well'
p326
F0.002281
sS'analysis'
p327
F0.0015820000000000001
sS'deemed appropriate'
p328
F0.015070999999999999
sS'position'
p329
F0.001897
sS'corporate'
p330
F0.004947
sS'equal opportunity'
p331
F0.0070429999999999998
sS'latest'
p332
F0.005274
sS'communicate complex idea'
p333
F0.0071040000000000001
sS'new york stock exchange'
p334
F0.011780000000000001
sS'using'
p335
F0.0042859999999999999
sS'skill'
p336
F0.001781
sS'organization with1300 employee'
p337
F0.015070999999999999
sS'aboutinvesco technology'
p338
F0.015070999999999999
sS'input'
p339
F0.014024999999999999
sS'extensive'
p340
F0.0063109999999999998
sS'top tier'
p341
F0.0099089999999999994
sS'need toknow'
p342
F0.016409
sS'around'
p343
F0.0039029999999999998
sS'evaluate'
p344
F0.0044429999999999999
sS"invesco'sdisruptive technologies"
p345
F0.016409
sS'know'
p346
F0.0096480000000000003
sS'world'
p347
F0.0029239999999999999
sS'execution'
p348
F0.0043969999999999999
sS'formal'
p349
F0.0081530000000000005
sS'necessary'
p350
F0.0053099999999999996
sS'like'
p351
F0.004156
sS'benefit'
p352
F0.0040280000000000003
sS'up-to-date knowledge'
p353
F0.01295
sS'rich data visualization'
p354
F0.015070999999999999
sS'people'
p355
F0.0049959999999999996
sS'duration'
p356
F0.0091039999999999992
sS'5'
F0.006032
sS'employment'
p357
F0.0092829999999999996
sS'onetech philosophy'
p358
F0.015070999999999999
sS'lead'
p359
F0.002333
sS'best'
p360
F0.0033340000000000002
sS'in-depth knowledge'
p361
F0.0081799999999999998
sS'market'
p362
F0.0036319999999999998
sS'critical thinking skill'
p363
F0.0082640000000000005
sS'leader'
p364
F0.0060949999999999997
sS'demonstrated'
p365
F0.0039690000000000003
sS'power'
p366
F0.0051739999999999998
sS'schedule'
p367
F0.0053600000000000002
sS'pressure'
p368
F0.0079500000000000005
sS'tinker'
p369
F0.015070999999999999
sS'plus'
p370
F0.005927
sS'azure'
p371
F0.0086379999999999998
sS'consulting'
p372
F0.0048240000000000002
sS'job duty'
p373
F0.0096019999999999994
sS'image'
p374
F0.0083210000000000003
sS'within'
p375
F0.0023180000000000002
sS'mba'
p376
F0.0080490000000000006
sS'appropriate'
p377
F0.0039969999999999997
sS'area'
p378
F0.0026220000000000002
sS'support'
p379
F0.001322
sS'encourage andcelebrate failure'
p380
F0.016409
sS'fast'
p381
F0.014302
sS'client around'
p382
F0.011181
sS"we're"
p383
F0.0058450000000000004
sS'5 to 10 year'
p384
F0.012395
sS'analyze'
p385
F0.0034199999999999999
sS'eg'
p386
F0.0038270000000000001
sS'combined'
p387
F0.0087810000000000006
sS'becoming'
p388
F0.0092399999999999999
sS'vehicle'
p389
F0.0080239999999999999
sS'applicable'
p390
F0.0063210000000000002
sS'failure'
p391
F0.0086730000000000002
sS'hear'
p392
F0.0078100000000000001
sS'model structured data using advanced statistical method'
p393
F0.0087810000000000006
sS'convergence'
p394
F0.011457999999999999
sS'ha'
p395
F0.0035860000000000002
sS'foster newways'
p396
F0.016409
sS'invesco ltd'
p397
F0.015070999999999999
sS'invesco technology'
p398
F0.015070999999999999
sS'us'
p399
F0.0065129999999999997
sS'statistics computer science'
p400
F0.010829
sS'eg imperfect data loosely defined'
p401
F0.015070999999999999
sS'demonstrate'
p402
F0.0051510000000000002
sS'problem'
p403
F0.0026719999999999999
sS'similar'
p404
F0.0043740000000000003
sS'caveat emptor'
p405
F0.016409
sS'equal opportunity employer'
p406
F0.003617
sS'manage multiple task'
p407
F0.011612000000000001
sS'education'
p408
F0.0031549999999999998
sS'mongodb cassandra hbase dynamodb'
p409
F0.015070999999999999
sS'detail'
p410
F0.0044390000000000002
sS'setting'
p411
F0.0054310000000000001
sS'role'
p412
F0.0040150000000000003
sS'digital'
p413
F0.0042389999999999997
sS'test'
p414
F0.0037569999999999999
sS'3 year'
p415
F0.027363999999999999
sS'normal office'
p416
F0.012168
sS'global multicultural environment'
p417
F0.015070999999999999
sS'scrum'
p418
F0.0079260000000000008
sS'google cloud'
p419
F0.010274
sS'helping'
p420
F0.0041590000000000004
sS'sql'
p421
F0.002147
sS'weekend'
p422
F0.0097800000000000005
sS'exposure'
p423
F0.0058780000000000004
sS'building'
p424
F0.0025149999999999999
sS'data used'
p425
F0.0087089999999999997
sS'algorithm'
p426
F0.0071970000000000003
sS'perform ad-hoc analysis'
p427
F0.012395
sS'age'
p428
F0.006842
sS'required'
p429
F0.0074819999999999999
sS'receive consideration'
p430
F0.003774
sS'lift'
p431
F0.0096589999999999992
sS'time'
p432
F0.0029290000000000002
s.