(dp1
S'global leader'
p2
F0.033905999999999999
sS'help'
p3
F0.0087080000000000005
sS'sentiment analysis'
p4
F0.042887000000000002
sS'including'
p5
F0.0074209999999999996
sS'portfolio'
p6
F0.023614
sS'discipline'
p7
F0.021536
sS'big data'
p8
F0.013658999999999999
sS'implementation'
p9
F0.014962
sS'technical expertise'
p10
F0.030492999999999999
sS'operational'
p11
F0.018838000000000001
sS'better'
p12
F0.019892
sS'integrate'
p13
F0.023002999999999999
sS'practice'
p14
F0.017454999999999998
sS'highest quality'
p15
F0.039252000000000002
sS'min 6'
p16
F0.074562000000000003
sS'world'
p17
F0.013285999999999999
sS'ndustry-wide experience'
p18
F0.074562000000000003
sS'solution'
p19
F0.0062379999999999996
sS'team'
p20
F0.0033530000000000001
sS'end-to-end'
p21
F0.028961000000000001
sS'additional information'
p22
F0.028674999999999999
sS'vertically aligned'
p23
F0.074562000000000003
sS'people'
p24
F0.011350000000000001
sS'consistent'
p25
F0.029825999999999998
sS'successfully'
p26
F0.031028
sS'competitive advantage'
p27
F0.032069
sS'delivered'
p28
F0.032208000000000001
sS'staffing solution esolvit ha'
p29
F0.074562000000000003
sS'outsourcing'
p30
F0.055287999999999997
sS'6 years'
p31
F0.052763999999999998
sS'big data analytics'
p32
F0.031663999999999998
sS'thrive'
p33
F0.023127000000000002
sS"years'"
p34
F0.040788999999999999
sS'basic qualifications'
p35
F0.019806000000000001
sS'infrastructure'
p36
F0.017965999999999999
sS'business'
p37
F0.012052
sS'leveraging'
p38
F0.022228000000000001
sS'company description'
p39
F0.028913000000000001
sS'leadership'
p40
F0.014971999999999999
sS'eeo guideline'
p41
F0.037294000000000001
sS'strong'
p42
F0.0088979999999999997
sS'domain knowledge'
p43
F0.034802
sS'training'
p44
F0.017454999999999998
sS'opennlp'
p45
F0.068482000000000001
sS'esolvit'
p46
F0.074562000000000003
sS'java opensource'
p47
F0.068482000000000001
sS"service esolvit's objective"
p48
F0.074562000000000003
sS'application development'
p49
F0.030967000000000001
sS"3 years'"
p50
F0.100482
sS'consulting'
p51
F0.065755999999999995
sS'alliance'
p52
F0.042653000000000003
sS'mobility'
p53
F0.041169999999999998
sS'strategic'
p54
F0.031039000000000001
sS'data mining'
p55
F0.016434000000000001
sS'management'
p56
F0.0099190000000000007
sS'service'
p57
F0.0093679999999999996
sS'support'
p58
F0.0060049999999999999
sS'transform'
p59
F0.025323999999999999
sS'business metric esolvit help'
p60
F0.074562000000000003
sS'ensured'
p61
F0.074562000000000003
sS'work experience'
p62
F0.068571999999999994
sS'enable'
p63
F0.019823
sS'serve'
p64
F0.021412
sS'job description'
p65
F0.017746999999999999
sS'usage'
p66
F0.028913000000000001
sS'proven'
p67
F0.024617
sS'customer'
p68
F0.022997
sS'machine learning'
p69
F0.0095090000000000001
sS'data architecture'
p70
F0.032939999999999997
sS'providing'
p71
F0.015191
sS'seamless delivery'
p72
F0.064924999999999997
sS'dedicated'
p73
F0.025197000000000001
sS'process'
p74
F0.0088780000000000005
sS'deep'
p75
F0.022072000000000001
sS'globally'
p76
F0.033905999999999999
sS'ready'
p77
F0.026127999999999998
sS'diverse'
p78
F0.017135000000000001
sS'expertise'
p79
F0.011804
sS'need'
p80
F0.0094350000000000007
sS'technology'
p81
F0.019096999999999999
sS'information'
p82
F0.010132
sS'min'
p83
F0.12984999999999999
sS'efficient'
p84
F0.025291999999999999
sS'breakthrough solution'
p85
F0.062400999999999998
sS'application'
p86
F0.0095720000000000006
sS'methodology'
p87
F0.015405
sS'comprehensive'
p88
F0.025818000000000001
sS'qualifications'
p89
F0.010573000000000001
sS'sustainability'
p90
F0.050241000000000001
sS'duration 6 months'
p91
F0.068482000000000001
sS'kept confidential according'
p92
F0.037678999999999997
sS'changing'
p93
F0.028816999999999999
sS'3 years'
p94
F0.072690000000000005
sS'cloud computing'
p95
F0.035090000000000003
sS'co-creation'
p96
F0.074562000000000003
sS'client'
p97
F0.011207999999999999
sS'enterprise'
p98
F0.016250000000000001
sS'professional'
p99
F0.030893
sS'model'
p100
F0.008737
sS'gain'
p101
F0.032494000000000002
s.