(dp1
S'help'
p2
F0.0049890000000000004
sS'office'
p3
F0.0097300000000000008
sS'mission'
p4
F0.0090430000000000007
sS'preferred qualifications'
p5
F0.010808999999999999
sS'bigdata expert'
p6
F0.042714000000000002
sS'email marketing'
p7
F0.029451999999999999
sS'hbase'
p8
F0.038464999999999999
sS'staff'
p9
F0.012037000000000001
sS'impact'
p10
F0.0088129999999999997
sS'electric adjustable stand'
p11
F0.039231000000000002
sS'homeaway'
p12
F0.032934999999999999
sS'online marketplace'
p13
F0.028781000000000001
sS'restful api development'
p14
F0.035748000000000002
sS'developers work'
p15
F0.039231000000000002
sS'systems'
p16
F0.016140000000000002
sS'listing'
p17
F0.023931999999999998
sS'fuel'
p18
F0.022858
sS'include'
p19
F0.0093880000000000005
sS'time away'
p20
F0.029106
sS'stock rsus'
p21
F0.039231000000000002
sS'data-driven'
p22
F0.014102
sS'meaningful way'
p23
F0.026957999999999999
sS'collaborate'
p24
F0.0085599999999999999
sS'pairing tried-and-true rdbms'
p25
F0.042714000000000002
sS'data warehouse'
p26
F0.016875999999999999
sS'big'
p27
F0.014581
sS'free listing'
p28
F0.030664
sS'make sense'
p29
F0.026152000000000002
sS'employee stock purchase plan'
p30
F0.027181
sS'every'
p31
F0.013887
sS'desk'
p32
F0.026341
sS'world'
p33
F0.030445
sS'highly'
p34
F0.011485
sS'competitive salary'
p35
F0.017500999999999999
sS'every traveler'
p36
F0.031143000000000001
sS'like'
p37
F0.010817999999999999
sS'mapreduce'
p38
F0.021364999999999999
sS'across'
p39
F0.0056160000000000003
sS'annual bonus'
p40
F0.027917999999999998
sS'data stream'
p41
F0.053487
sS'world-class'
p42
F0.017402999999999998
sS'paid vacation'
p43
F0.024303999999999999
sS'team'
p44
F0.0057619999999999998
sS'analytical'
p45
F0.013691
sS'including'
p46
F0.0085030000000000001
sS'predictive analytics'
p47
F0.013039
sS'enjoy'
p48
F0.016268000000000001
sS'right'
p49
F0.012093
sS'deal'
p50
F0.021585
sS'people'
p51
F0.006502
sS'globe'
p52
F0.012266000000000001
sS'medical dental plans'
p53
F0.039231000000000002
sS'infrastructure'
p54
F0.010292000000000001
sS'simply put'
p55
F0.031671999999999999
sS'component'
p56
F0.014326999999999999
sS'collaborative environment'
p57
F0.021437000000000001
sS'accomplish'
p58
F0.044971999999999998
sS'software developers data scientist'
p59
F0.039231000000000002
sS'business'
p60
F0.0034520000000000002
sS'decision'
p61
F0.008633
sS'proficient'
p62
F0.042981999999999999
sS'work flow'
p63
F0.028781000000000001
sS'work alongside'
p64
F0.023473999999999998
sS'homeawaycom'
p65
F0.061328000000000001
sS'weekly'
p66
F0.022669000000000002
sS'ever'
p67
F0.022397
sS'leader'
p68
F0.0079330000000000008
sS'available'
p69
F0.012082000000000001
sS'core'
p70
F0.010461
sS'data analysis'
p71
F0.0097230000000000007
sS'ability'
p72
F0.0028540000000000002
sS'power'
p73
F0.013468000000000001
sS"hadoop's infrastructure"
p74
F0.042714000000000002
sS'million'
p75
F0.020712000000000001
sS'data scientist'
p76
F0.00332
sS'free'
p77
F0.019279999999999999
sS'leadership'
p78
F0.0085769999999999996
sS'vacation rental'
p79
F0.060454000000000001
sS'generate'
p80
F0.015152000000000001
sS'owners'
p81
F0.039231000000000002
sS'benefits'
p82
F0.014732
sS'industry'
p83
F0.0057169999999999999
sS'experience'
p84
F0.003754
sS"using hadoop's core"
p85
F0.042714000000000002
sS'analysts'
p86
F0.021017999999999998
sS'large multi-terabyte data set'
p87
F0.039231000000000002
sS'major'
p88
F0.012917
sS'family'
p89
F0.015796999999999999
sS'sql'
p90
F0.0055880000000000001
sS'powerful'
p91
F0.020101999999999998
sS'one'
p92
F0.0058040000000000001
sS'yearly basis'
p93
F0.039231000000000002
sS'traveler'
p94
F0.027181
sS'spark'
p95
F0.012290000000000001
sS'ideal candidate'
p96
F0.012373
sS"homeaway you'll"
p97
F0.039231000000000002
sS'java'
p98
F0.011395000000000001
sS'stream'
p99
F0.022858
sS'leading'
p100
F0.0072009999999999999
sS'casual dress code'
p101
F0.027660000000000001
sS'system'
p102
F0.0046189999999999998
sS'lot'
p103
F0.019990999999999998
sS'developer'
p104
F0.011395000000000001
sS'million bookable vacation rental'
p105
F0.042714000000000002
sS'friend'
p106
F0.021222999999999999
sS'4'
F0.017087000000000001
sS'engine'
p107
F0.020330000000000001
sS'life'
p108
F0.0083079999999999994
sS'company'
p109
F0.015368
sS'solid understanding'
p110
F0.016702999999999999
sS'great'
p111
F0.011882
sS'managers alike'
p112
F0.042714000000000002
sS'department'
p113
F0.011566
sS'understand'
p114
F0.0071580000000000003
sS'automated'
p115
F0.014770999999999999
sS'data flow'
p116
F0.022138999999999999
sS'sqoop kafka andhive'
p117
F0.042714000000000002
sS"using hadoop's component"
p118
F0.042714000000000002
sS'yearly basis taxable benefit'
p119
F0.030664
sS'samza'
p120
F0.042714000000000002
sS'target'
p121
F0.016875999999999999
sS'work'
p122
F0.0035000000000000001
sS'machine learning'
p123
F0.0054469999999999996
sS'production system'
p124
F0.021585
sS'property'
p125
F0.044278999999999999
sS'engineers'
p126
F0.019473000000000001
sS'heart'
p127
F0.018064
sS'analytics platform'
p128
F0.019937
sS'building memory'
p129
F0.030664
sS'process'
p130
F0.0050860000000000002
sS'kafka andhive'
p131
F0.042714000000000002
sS'minimum'
p132
F0.0093880000000000005
sS'enterprise datawarehouse'
p133
F0.042714000000000002
sS'want'
p134
F0.0097800000000000005
sS'partner'
p135
F0.0079670000000000001
sS'around'
p136
F0.010159
sS'hadoop hive'
p137
F0.023473999999999998
sS'provide'
p138
F0.0051089999999999998
sS'make'
p139
F0.0063660000000000001
sS'able'
p140
F0.0077770000000000001
sS'hadoop'
p141
F0.019488999999999999
sS'click'
p142
F0.020389000000000001
sS'1'
F0.013587999999999999
sS'complex'
p143
F0.0079620000000000003
sS'role'
p144
F0.0052259999999999997
sS'build'
p145
F0.019604
sS'online'
p146
F0.01315
sS'objective'
p147
F0.011753
sS'week'
p148
F0.034805000000000003
sS'play'
p149
F0.013497
sS'update'
p150
F0.018491
sS'bigquery'
p151
F0.039231000000000002
sS'proficiency'
p152
F0.019432000000000001
sS'two'
p153
F0.014829
sS'oozie'
p154
F0.027660000000000001
sS'data'
p155
F0.0073559999999999997
sS'data using'
p156
F0.024847999999999999
sS'vacation rental website'
p157
F0.030664
sS'task'
p158
F0.010437
sS'sql server'
p159
F0.019937
sS'free drink snack'
p160
F0.039231000000000002
sS'google bigquery'
p161
F0.037192999999999997
sS'analysis'
p162
F0.0041180000000000001
sS'deliverable'
p163
F0.014928
sS"you'll"
p164
F0.011546000000000001
sS'search engine'
p165
F0.023584999999999998
sS'opportunity'
p166
F0.010082000000000001
sS'talk'
p167
F0.01737
s.