(dp1
S'limited'
p2
F0.0091889999999999993
sS'supply chain'
p3
F0.015851000000000001
sS'predictive modeling'
p4
F0.0095300000000000003
sS'feedback'
p5
F0.013995
sS'in-depth specialization'
p6
F0.025517999999999999
sS'insight'
p7
F0.0053759999999999997
sS'demonstrated ability'
p8
F0.010572
sS'existing'
p9
F0.0084419999999999999
sS'econometrics statistics operations research'
p10
F0.051989
sS'preferred qualifications'
p11
F0.0087089999999999997
sS'statistical'
p12
F0.0061890000000000001
sS'excellent analytical'
p13
F0.015892
sS'skill'
p14
F0.0037360000000000002
sS'research'
p15
F0.0047790000000000003
sS'data'
p16
F0.0019759999999999999
sS'hands-on experience'
p17
F0.052344000000000002
sS'least 5 year'
p18
F0.017389999999999999
sS'immediate opening'
p19
F0.02051
sS'use case'
p20
F0.014182
sS'required qualifications'
p21
F0.012983
sS'guidance'
p22
F0.012043
sS'technical expertise'
p23
F0.014074
sS'improvement'
p24
F0.0094020000000000006
sS'predictive model'
p25
F0.0095999999999999992
sS'analytic'
p26
F0.021795999999999999
sS'sound analytics-based solution'
p27
F0.029964999999999999
sS'leadership skill'
p28
F0.014047
sS'excellent written'
p29
F0.012614
sS'multiple data source'
p30
F0.01542
sS'employee'
p31
F0.0072560000000000003
sS'presentation'
p32
F0.007744
sS'data mining machine learning'
p33
F0.03099
sS'python'
p34
F0.0060470000000000003
sS'time-series'
p35
F0.021069999999999998
sS'key responsibilities'
p36
F0.014865
sS'report'
p37
F0.0056389999999999999
sS'using'
p38
F0.0044949999999999999
sS'arima method'
p39
F0.031607000000000003
sS'regression clustering decision tree svms neural network'
p40
F0.034412999999999999
sS'advanced'
p41
F0.0063239999999999998
sS'level'
p42
F0.0059740000000000001
sS'solution'
p43
F0.002879
sS'across'
p44
F0.0045250000000000004
sS'audience'
p45
F0.0096889999999999997
sS'paper'
p46
F0.019186000000000002
sS'team'
p47
F0.001547
sS'analytical'
p48
F0.01103
sS'uncover'
p49
F0.018116
sS'implication'
p50
F0.015934
sS'data analytics'
p51
F0.017974
sS'troubleshooting'
p52
F0.013816
sS'highly correlated data'
p53
F0.031607000000000003
sS'set'
p54
F0.0086379999999999998
sS'primarily'
p55
F0.015610000000000001
sS'dealing'
p56
F0.017836999999999999
sS'quantitative discipline'
p57
F0.037404
sS'prediction'
p58
F0.014931
sS'library'
p59
F0.013502999999999999
sS'le experienced'
p60
F0.020382000000000001
sS'result'
p61
F0.015689000000000002
sS'multiple source'
p62
F0.015310000000000001
sS'collaborates'
p63
F0.014833000000000001
sS'demonstrates'
p64
F0.015238
sS'forecast'
p65
F0.016333
sS'content'
p66
F0.0097429999999999999
sS'written'
p67
F0.0097800000000000005
sS'various'
p68
F0.0069969999999999997
sS'translate business objective'
p69
F0.023449000000000001
sS'provides'
p70
F0.0088970000000000004
sS'business partner'
p71
F0.011308
sS'method'
p72
F0.016986999999999999
sS'ability'
p73
F0.0022989999999999998
sS'targeted'
p74
F0.018189
sS'attention'
p75
F0.013322000000000001
sS'communicate'
p76
F0.0079030000000000003
sS'data quality'
p77
F0.012503999999999999
sS'implementing'
p78
F0.0098080000000000007
sS'leadership'
p79
F0.0069100000000000003
sS'pursuit'
p80
F0.019904999999999999
sS'key'
p81
F0.0064879999999999998
sS'spark'
p82
F0.0099019999999999993
sS'mathematical analysis'
p83
F0.033759999999999998
sS'customer site'
p84
F0.018912999999999999
sS'performing advanced data analysis'
p85
F0.034412999999999999
sS'explain technical concept'
p86
F0.024705000000000001
sS'algorithm'
p87
F0.010062
sS'data visualization'
p88
F0.0094610000000000007
sS'technical'
p89
F0.0076990000000000001
sS'communicate technical idea'
p90
F0.017836999999999999
sS'potential future outcome'
p91
F0.018339000000000001
sS'demonstrates proficiency'
p92
F0.018116
sS'experience'
p93
F0.0015120000000000001
sS'simulation'
p94
F0.013502999999999999
sS'structured'
p95
F0.0097339999999999996
sS'critical thinking'
p96
F0.015729
sS'advanced statistical'
p97
F0.033549000000000002
sS'ensure'
p98
F0.0067889999999999999
sS'solve complex business problem utilizing advanced statistical technique'
p99
F0.034412999999999999
sS'professional experience'
p100
F0.013816
sS'prospective customer'
p101
F0.025994
sS'software'
p102
F0.0041320000000000003
sS'technique'
p103
F0.005489
sS'data analytics bd team'
p104
F0.034412999999999999
sS'ms degree'
p105
F0.015768999999999998
sS'strong organizational'
p106
F0.017638999999999998
sS'perform analysis'
p107
F0.014707
sS'business owner'
p108
F0.018116
sS'predictive prescriptive'
p109
F0.031607000000000003
sS'data mining'
p110
F0.0075849999999999997
sS'problem solving skill'
p111
F0.011010000000000001
sS'non-technical client'
p112
F0.017576000000000001
sS'use'
p113
F0.0043790000000000001
sS'management'
p114
F0.0045779999999999996
sS'sas r'
p115
F0.017271000000000002
sS'publication'
p116
F0.014865
sS'area'
p117
F0.016497000000000001
sS'deep learning'
p118
F0.012486000000000001
sS'honeywell ha'
p119
F0.034412999999999999
sS'support'
p120
F0.002771
sS'demand forecasting'
p121
F0.046376000000000001
sS'analytical solution'
p122
F0.028254999999999999
sS'consultation'
p123
F0.016333
sS'advanced analytics'
p124
F0.0094859999999999996
sS'utilizing'
p125
F0.012141000000000001
sS'arma'
p126
F0.031607000000000003
sS'business problem'
p127
F0.010375000000000001
sS'relevant'
p128
F0.0073610000000000004
sS'tool'
p129
F0.0029229999999999998
sS'instrumental'
p130
F0.021547
sS'understand'
p131
F0.0057670000000000004
sS'related'
p132
F0.016888
sS'big data technology'
p133
F0.011348
sS'analyze large data set'
p134
F0.016722999999999998
sS'abundance'
p135
F0.029964999999999999
sS'wide'
p136
F0.016240999999999998
sS'account'
p137
F0.013620999999999999
sS'language'
p138
F0.0079550000000000003
sS'developing'
p139
F0.021906999999999999
sS'participates'
p140
F0.014321
sS'hands-on'
p141
F0.011320999999999999
sS'machine learning'
p142
F0.013166000000000001
sS'employ'
p143
F0.012708000000000001
sS'optimization'
p144
F0.025284999999999998
sS'verbal form'
p145
F0.017638999999999998
sS'problem'
p146
F0.011206000000000001
sS'providing'
p147
F0.0070109999999999999
sS'guide'
p148
F0.011431
sS'pricing'
p149
F0.0141
sS'dedicated'
p150
F0.011629
sS'predictive prescriptive modeling'
p151
F0.034412999999999999
sS'process'
p152
F0.0081949999999999992
sS'investigate problem detect pattern'
p153
F0.019002000000000002
sS'reliability'
p154
F0.016063000000000001
sS'statistical analysis'
p155
F0.015969000000000001
sS'predict quantify'
p156
F0.026535
sS'clearly'
p157
F0.013169999999999999
sS'work experience applying'
p158
F0.028801
sS'journal conference'
p159
F0.028801
sS'develop'
p160
F0.0063160000000000004
sS'goal'
p161
F0.0072509999999999996
sS'etc'
p162
F0.005829
sS'provide'
p163
F0.0041159999999999999
sS'strong knowledge'
p164
F0.012378999999999999
sS'travel'
p165
F0.0092289999999999994
sS'predictive analytics'
p166
F0.010505
sS'able'
p167
F0.0062649999999999997
sS'detail'
p168
F0.0093100000000000006
sS'machine learning technique'
p169
F0.011748
sS'50'
p170
F0.016150999999999999
sS'methodology'
p171
F0.00711
sS'role'
p172
F0.0042100000000000002
sS'finding'
p173
F0.0088669999999999999
sS'performance'
p174
F0.0059170000000000004
sS'several'
p175
F0.013367
sS'unstructured data'
p176
F0.011162
sS'development'
p177
F0.0054330000000000003
sS'actively participate'
p178
F0.020382000000000001
sS'phd'
p179
F0.0064999999999999997
sS'develops'
p180
F0.0098169999999999993
sS'plus'
p181
F0.012430999999999999
sS'sql'
p182
F0.0045019999999999999
sS'evaluate scenario'
p183
F0.016827000000000002
sS'statistics'
p184
F0.010560999999999999
sS'solve complex'
p185
F0.018912999999999999
sS'5 year'
p186
F0.044007999999999999
sS'prepare data'
p187
F0.020136000000000001
sS'building'
p188
F0.0052750000000000002
sS'delivery'
p189
F0.0080199999999999994
sS'effective'
p190
F0.0089720000000000008
sS'senior data scientist'
p191
F0.012503999999999999
sS'physics'
p192
F0.016522999999999999
sS'sale'
p193
F0.010156999999999999
sS'analysis'
p194
F0.0066350000000000003
sS'actionable'
p195
F0.011528999999999999
sS'maintain'
p196
F0.0074949999999999999
sS'verbal communication skill'
p197
F0.012881999999999999
sS'model'
p198
F0.012097
sS'hadoop'
p199
F0.0078510000000000003
sS'diverse'
p200
F0.0079089999999999994
sS'proven experience developing'
p201
F0.028801
sS'proposal'
p202
F0.016105999999999999
s.