(dp1
S'hcsc'
p2
F0.03567
sS'existing'
p3
F0.011584000000000001
sS'product'
p4
F0.0041949999999999999
sS'job type'
p5
F0.021583000000000001
sS'including'
p6
F0.0047000000000000002
sS'careers website'
p7
F0.032973000000000002
sS'statistical'
p8
F0.0084919999999999995
sS'committed'
p9
F0.0090279999999999996
sS'skill'
p10
F0.0051269999999999996
sS'based'
p11
F0.016465
sS'knowledge'
p12
F0.020427000000000001
sS'affirmative action employer'
p13
F0.024294
sS'please note'
p14
F0.023237000000000001
sS'guidance'
p15
F0.016525999999999999
sS'disability'
p16
F0.012642
sS'employee'
p17
F0.0099559999999999996
sS'real world'
p18
F0.020442999999999999
sS'advanced mathematical statistical'
p19
F0.114844
sS'returned'
p20
F0.032561
sS'website on-line application'
p21
F0.03567
sS'possible'
p22
F0.016244999999999999
sS'preferred'
p23
F0.0079889999999999996
sS'job submission'
p24
F0.033901000000000001
sS'using'
p25
F0.012336
sS'function verifies model'
p26
F0.036412
sS'builds'
p27
F0.025600999999999999
sS'regarding'
p28
F0.019349000000000002
sS'procedure receives'
p29
F0.037268000000000003
sS'solves'
p30
F0.032973000000000002
sS'moderate level'
p31
F0.037268000000000003
sS'richardson tx'
p32
F0.035015999999999999
sS'employment without regard'
p33
F0.011414000000000001
sS'identified'
p34
F0.01993
sS'either'
p35
F0.017732000000000001
sS'designs experiment'
p36
F0.035015999999999999
sS'view'
p37
F0.017677999999999999
sS'6 year experience'
p38
F0.037268000000000003
sS'hcsc business process'
p39
F0.041119000000000003
sS'using advanced mathematical'
p40
F0.034430000000000002
sS'solution'
p41
F0.0039500000000000004
sS'analytics'
p42
F0.0050959999999999998
sS'individual'
p43
F0.0088360000000000001
sS'result'
p44
F0.0071760000000000001
sS'still acquiring higher level'
p45
F0.041119000000000003
sS'employment'
p46
F0.013357000000000001
sS'click'
p47
F0.022540999999999999
sS'receive consideration'
p48
F0.01086
sS'provided'
p49
F0.040446999999999997
sS'pattern'
p50
F0.013599999999999999
sS'assistance'
p51
F0.020399
sS'li-post'
p52
F0.029340000000000001
sS'sponsorship'
p53
F0.024760999999999998
sS'applicantswe'
p54
F0.03567
sS'performs'
p55
F0.018311999999999998
sS'email'
p56
F0.016330000000000001
sS'1 year'
p57
F0.018013999999999999
sS'masters degree'
p58
F0.01281
sS'construct solution'
p59
F0.035015999999999999
sS'teradata'
p60
F0.022224000000000001
sS'data analysis'
p61
F0.010749999999999999
sS'theory'
p62
F0.019276000000000001
sS'business'
p63
F0.007633
sS'resume'
p64
F0.0161
sS'engineering physic'
p65
F0.10700999999999999
sS'analyzes'
p66
F0.021108999999999999
sS'job'
p67
F0.019841000000000001
sS'bachelors degree'
p68
F0.012609
sS'drug-free'
p69
F0.033901000000000001
sS'standard'
p70
F0.010192
sS'accommodation'
p71
F0.035354999999999998
sS'business analyst constructs predictive model'
p72
F0.038281000000000003
sS'full-time'
p73
F0.018311999999999998
sS'language'
p74
F0.010916
sS'completing'
p75
F0.024664999999999999
sS'experience'
p76
F0.002075
sS'qualified applicant'
p77
F0.010213
sS'range'
p78
F0.015800999999999999
sS'workplace'
p79
F0.011520000000000001
sS'experimental'
p80
F0.021923000000000002
sS'probability'
p81
F0.021420000000000002
sS'relocation'
p82
F0.023947
sS'validate'
p83
F0.017309000000000001
sS'use'
p84
F0.0060089999999999996
sS'support'
p85
F0.003803
sS'question'
p86
F0.012416
sS'generate'
p87
F0.016752
sS'analyze'
p88
F0.0098420000000000001
sS'engine'
p89
F0.022475999999999999
sS'direction'
p90
F0.013077
sS'chicago tx - richardson'
p91
F0.037268000000000003
sS'diversity'
p92
F0.012787
sS'business problem'
p93
F0.014237
sS'tool'
p94
F0.0040109999999999998
sS'collect data'
p95
F0.051665999999999997
sS'1 year experience'
p96
F0.029803
sS'affirmative action'
p97
F0.024858999999999999
sS'smoke-free workplace'
p98
F0.03567
sS'6 year'
p99
F0.020181000000000001
sS'must'
p100
F0.0077520000000000002
sS'customer'
p101
F0.0048549999999999999
sS'account'
p102
F0.018689999999999998
sS'disabled veteran'
p103
F0.03058
sS'submitted'
p104
F0.03005
sS'background investigation'
p105
F0.021864999999999999
sS'problem'
p106
F0.0076880000000000004
sS'providing'
p107
F0.0096209999999999993
sS"hcsc's career"
p108
F0.03567
sS'job id cp-1015479 description'
p109
F0.043372000000000001
sS'protected veteran status'
p110
F0.014237
sS'function'
p111
F0.011703
sS'dedicated'
p112
F0.015958
sS'reasonable accommodation'
p113
F0.021059000000000001
sS'process'
p114
F0.016868999999999999
sS'general'
p115
F0.015879000000000001
sS'sas'
p116
F0.012239
sS'statistical concept'
p117
F0.022672999999999999
sS'expertise'
p118
F0.007476
sS'statistical analysis'
p119
F0.010957
sS'allowed'
p120
F0.034430000000000002
sS'need'
p121
F0.0059760000000000004
sS'requirements'
p122
F0.0099430000000000004
sS'responsible'
p123
F0.0068409999999999999
sS'application'
p124
F0.018186999999999998
sS'methodology'
p125
F0.0097560000000000008
sS'complex'
p126
F0.0088030000000000001
sS'effectiveness'
p127
F0.016372999999999999
sS'application navigate'
p128
F0.03567
sS'status'
p129
F0.012555
sS'workforce diversity'
p130
F0.031819
sS'reporting'
p131
F0.011431
sS'qualifications'
p132
F0.013391999999999999
sS'regular'
p133
F0.019096999999999999
sS'purpose'
p134
F0.015353
sS'sql'
p135
F0.0061780000000000003
sS'race color religion sex sexual orientation gender identity national origin disability'
p136
F0.030865
sS'quantify trend'
p137
F0.03567
sS'law'
p138
F0.012971
sS'data'
p139
F0.0027109999999999999
sS'chicago il'
p140
F0.028327000000000001
sS'drug screening'
p141
F0.03567
sS'algorithm'
p142
F0.013807
sS'location il -'
p143
F0.03567
sS'required'
p144
F0.010765
sS'request'
p145
F0.027873999999999999
sS'related quantitative field'
p146
F0.082894999999999996
sS'without'
p147
F0.020053999999999999
sS'u'
F0.012936
sS'position'
p148
F0.021842
sS'requires'
p149
F0.017257999999999999
sS'equal opportunity'
p150
F0.040534000000000001
s.