(dp1
S'limited'
p2
F0.011821
sS'business need'
p3
F0.015993
sS'invent'
p4
F0.024804
sS'stay abreast'
p5
F0.029217
sS'job duties'
p6
F0.027505999999999999
sS'interpersonal'
p7
F0.022450000000000001
sS'including'
p8
F0.017625999999999999
sS'statistical'
p9
F0.0079609999999999993
sS'follow'
p10
F0.039579000000000003
sS'skill'
p11
F0.0048060000000000004
sS'integrity'
p12
F0.013867000000000001
sS'best practice'
p13
F0.01086
sS'group'
p14
F0.0092460000000000007
sS'use case'
p15
F0.018244
sS'technique'
p16
F0.014123999999999999
sS'business acumen'
p17
F0.018645999999999999
sS'program'
p18
F0.0081499999999999993
sS'mine inspect transform data'
p19
F0.044270999999999998
sS'easy'
p20
F0.019649
sS'process cleanse'
p21
F0.037051000000000001
sS'hidden'
p22
F0.027105000000000001
sS'include'
p23
F0.0097300000000000008
sS'different source'
p24
F0.024930000000000001
sS'collaborate'
p25
F0.017743999999999999
sS'influencing skill'
p26
F0.02622
sS'evaluate'
p27
F0.023976000000000001
sS'unstructured'
p28
F0.016624
sS'report'
p29
F0.0072550000000000002
sS'advanced'
p30
F0.024406000000000001
sS'prescriptive modeling'
p31
F0.028667999999999999
sS'level'
p32
F0.0076860000000000001
sS"enable pioneer's business"
p33
F0.044270999999999998
sS'mba preferred'
p34
F0.032827000000000002
sS"extend pioneer's ability"
p35
F0.044270999999999998
sS'team'
p36
F0.0019910000000000001
sS'break'
p37
F0.022946000000000001
sS'identify'
p38
F0.0071739999999999998
sS'business decision'
p39
F0.018279
sS'predictive analytics'
p40
F0.013514
sS'mathematical'
p41
F0.013747000000000001
sS'predictive'
p42
F0.012127000000000001
sS'charter'
p43
F0.034938999999999998
sS'job summary'
p44
F0.018918999999999998
sS'trend'
p45
F0.011131
sS'investigate data'
p46
F0.044270999999999998
sS'analytics'
p47
F0.028662
sS'computer'
p48
F0.013265000000000001
sS'design'
p49
F0.0086169999999999997
sS'perspective'
p50
F0.014905
sS'statistic'
p51
F0.028604999999999998
sS'manner'
p52
F0.01711
sS'project'
p53
F0.0084349999999999998
sS'educate'
p54
F0.024001000000000001
sS'10 years'
p55
F0.025905000000000001
sS'data used'
p56
F0.023494999999999999
sS'review'
p57
F0.011591000000000001
sS'least 3 year'
p58
F0.023896000000000001
sS'pioneer'
p59
F0.074788999999999994
sS'business partner'
p60
F0.029093999999999998
sS'approach'
p61
F0.0085559999999999994
sS'method'
p62
F0.0072839999999999997
sS'math'
p63
F0.016226999999999998
sS'programming language'
p64
F0.011313999999999999
sS'data analysis'
p65
F0.010078
sS'ability'
p66
F0.0029580000000000001
sS"bachelor's degree"
p67
F0.0093399999999999993
sS'understanding'
p68
F0.013386
sS'statistical method'
p69
F0.016372000000000001
sS'hypothesis'
p70
F0.020445000000000001
sS'data-driven decision'
p71
F0.025058
sS'present result'
p72
F0.020132000000000001
sS'training'
p73
F0.010364
sS'technical'
p74
F0.0049519999999999998
sS'could'
p75
F0.018645999999999999
sS'programming'
p76
F0.0096220000000000003
sS'strong written'
p77
F0.020337999999999998
sS'general understanding'
p78
F0.028934999999999999
sS'prepare data'
p79
F0.025905000000000001
sS'data science'
p80
F0.018527999999999999
sS'others'
p81
F0.010578000000000001
sS'requirement'
p82
F0.0065799999999999999
sS'support decision-making'
p83
F0.030166999999999999
sS'determine'
p84
F0.01537
sS'apply'
p85
F0.0073150000000000003
sS'throughout'
p86
F0.013672999999999999
sS'use'
p87
F0.005633
sS'raise'
p88
F0.026386
sS'working'
p89
F0.0056490000000000004
sS'capable'
p90
F0.017461000000000001
sS'structured'
p91
F0.012522
sS'guideline'
p92
F0.020081999999999999
sS'complex topic'
p93
F0.035888999999999997
sS'advanced analytics'
p94
F0.036611999999999999
sS"years' experience"
p95
F0.024562
sS'enable'
p96
F0.011769999999999999
sS'tool'
p97
F0.01504
sS'delivery'
p98
F0.010318000000000001
sS'understand'
p99
F0.014838
sS'effort'
p100
F0.010458
sS'analyst'
p101
F0.010593999999999999
sS'must'
p102
F0.036337000000000001
sS'applied'
p103
F0.012874
sS'10'
p104
F0.014813
sS'developing'
p105
F0.014090999999999999
sS'machine learning'
p106
F0.011292
sS'employ'
p107
F0.016348000000000001
sS'ms'
p108
F0.012019999999999999
sS'problem'
p109
F0.007208
sS'guide'
p110
F0.014704999999999999
sS'procedure'
p111
F0.012836999999999999
sS'result'
p112
F0.0067279999999999996
sS'process'
p113
F0.010543
sS'engineering'
p114
F0.0070330000000000002
sS'solve problem'
p115
F0.018003000000000002
sS'large data set'
p116
F0.013402000000000001
sS'baseline'
p117
F0.029515
sS'variety'
p118
F0.010318000000000001
sS'perform'
p119
F0.0092709999999999997
sS'verify'
p120
F0.024562
sS'make'
p121
F0.0065979999999999997
sS'responsible'
p122
F0.0064140000000000004
sS'able'
p123
F0.0080599999999999995
sS'feature'
p124
F0.013443999999999999
sS'internal'
p125
F0.016693
sS'role'
p126
F0.010832
sS'build'
p127
F0.010160000000000001
sS'test'
p128
F0.020274
sS'document'
p129
F0.024975000000000001
sS'3 year'
p130
F0.012304000000000001
sS'company'
p131
F0.0053090000000000004
sS'status'
p132
F0.011769999999999999
sS'product'
p133
F0.0039329999999999999
sS'assist'
p134
F0.011389
sS'qualifications'
p135
F0.0062779999999999997
sS'proficiency'
p136
F0.010070000000000001
sS'third party data source'
p137
F0.038549
sS'strong organizational'
p138
F0.022692
sS'opportunity'
p139
F0.0052249999999999996
sS'job description'
p140
F0.010538
sS'algorithm'
p141
F0.0064720000000000003
sS'clear'
p142
F0.014326999999999999
sS'required'
p143
F0.010092
sS'analysis'
p144
F0.0042680000000000001
sS'client'
p145
F0.0066550000000000003
sS'verbal communication skill'
p146
F0.016573000000000001
sS'model'
p147
F0.015563
sS'latest'
p148
F0.014227999999999999
s.