(dp1
S'communicate effectively'
p2
F0.020951999999999998
sS'data analyst data scientist'
p3
F0.034136
sS'pipeline competently code'
p4
F0.044270999999999998
sS'sql query as-needed'
p5
F0.044270999999999998
sS'change control'
p6
F0.029217
sS'attitude'
p7
F0.018460000000000001
sS'concept'
p8
F0.010152
sS'participate'
p9
F0.012106
sS'follow'
p10
F0.019789999999999999
sS'skill'
p11
F0.0048060000000000004
sS'data'
p12
F0.002542
sS'laboratory computerized system'
p13
F0.044270999999999998
sS'staff'
p14
F0.012475999999999999
sS'monitor'
p15
F0.014997999999999999
sS'also'
p16
F0.0086280000000000003
sS'implementation'
p17
F0.0088839999999999995
sS'cpl us'
p18
F0.044270999999999998
sS'projects'
p19
F0.028171999999999999
sS'policy'
p20
F0.027286999999999999
sS'include'
p21
F0.0097300000000000008
sS'friendly'
p22
F0.028934999999999999
sS'scheduled'
p23
F0.02794
sS'read'
p24
F0.01797
sS'preferred'
p25
F0.0074900000000000001
sS'report'
p26
F0.021763999999999999
sS'using'
p27
F0.0057819999999999998
sS'conjunction'
p28
F0.021996999999999999
sS'advanced'
p29
F0.0081349999999999999
sS'resource'
p30
F0.011167
sS'skills'
p31
F0.011323
sS'follows'
p32
F0.026386
sS'ad-hoc'
p33
F0.023793000000000002
sS'analytical'
p34
F0.0070949999999999997
sS'regulatory compliance'
p35
F0.026386
sS'system'
p36
F0.047877000000000003
sS'set'
p37
F0.011113
sS'financial'
p38
F0.010019
sS'concise'
p39
F0.022692
sS'computer'
p40
F0.013265000000000001
sS'ancillary system'
p41
F0.044270999999999998
sS'laboratory'
p42
F0.11652899999999999
sS'organizing'
p43
F0.025905000000000001
sS'departmental'
p44
F0.028934999999999999
sS'established'
p45
F0.031584000000000001
sS'managing'
p46
F0.01171
sS'sql query'
p47
F0.021070999999999999
sS'reading writing'
p48
F0.044270999999999998
sS'provide lab-centric monitoring'
p49
F0.044270999999999998
sS'health'
p50
F0.012534
sS'infectious disease'
p51
F0.037051000000000001
sS'evaluation'
p52
F0.014831
sS'patient'
p53
F0.019602999999999999
sS'ability'
p54
F0.0029580000000000001
sS'business'
p55
F0.007156
sS'maintains'
p56
F0.018645999999999999
sS'host'
p57
F0.021853999999999998
sS'bs'
p58
F0.015748000000000002
sS'regulatory'
p59
F0.021319999999999999
sS'strong'
p60
F0.010566000000000001
sS'optimize'
p61
F0.012925000000000001
sS'knowledge'
p62
F0.0047879999999999997
sS'central'
p63
F0.020552999999999998
sS'language'
p64
F0.010234
sS'english'
p65
F0.019789999999999999
sS'technical'
p66
F0.0049519999999999998
sS'compliance'
p67
F0.015452
sS'experience'
p68
F0.00097300000000000002
sS'wide variety'
p69
F0.017139000000000001
sS'create'
p70
F0.013993
sS'software'
p71
F0.021260999999999999
sS'organize'
p72
F0.01925
sS'confidentiality'
p73
F0.029831
sS'interfacing'
p74
F0.02794
sS'primary'
p75
F0.017773000000000001
sS'parsing'
p76
F0.031781999999999998
sS'troubleshooting'
p77
F0.017773000000000001
sS'networking'
p78
F0.021647
sS'data feed'
p79
F0.027505999999999999
sS'service'
p80
F0.0055620000000000001
sS'lab-centric perspective'
p81
F0.044270999999999998
sS'positive'
p82
F0.017195999999999999
sS'support'
p83
F0.014260999999999999
sS'transform'
p84
F0.015036000000000001
sS'guideline'
p85
F0.020081999999999999
sS'needed'
p86
F0.010885000000000001
sS'clinical'
p87
F0.016497000000000001
sS'data munging'
p88
F0.029217
sS'maintenance'
p89
F0.014924
sS'basic'
p90
F0.015535
sS'analyze'
p91
F0.0092270000000000008
sS'define'
p92
F0.010546
sS'critical thinking'
p93
F0.020233999999999999
sS'tool'
p94
F0.0075199999999999998
sS'understand'
p95
F0.0074190000000000002
sS'excellent'
p96
F0.010742
sS'must'
p97
F0.014534999999999999
sS'customer'
p98
F0.0045519999999999996
sS'querying'
p99
F0.025058
sS'project'
p100
F0.0042170000000000003
sS'implement scripted computational'
p101
F0.044270999999999998
sS'ms'
p102
F0.012019999999999999
sS'following'
p103
F0.0094560000000000009
sS'procedure'
p104
F0.051346999999999997
sS'software upgrade'
p105
F0.034136
sS'regularly'
p106
F0.020390999999999999
sS'dedicated'
p107
F0.014961
sS'transition'
p108
F0.021715000000000002
sS'process'
p109
F0.010543
sS'modern'
p110
F0.016251000000000002
sS'mine'
p111
F0.022450000000000001
sS'manner'
p112
F0.01711
sS'broad spectrum'
p113
F0.026915999999999999
sS'clearly'
p114
F0.016943
sS'information'
p115
F0.030078000000000001
sS'develop'
p116
F0.0040629999999999998
sS'able'
p117
F0.016119999999999999
sS'thorough'
p118
F0.024681999999999999
sS'write'
p119
F0.014886
sS'application'
p120
F0.0056839999999999998
sS'client'
p121
F0.0066550000000000003
sS'computer science'
p122
F0.0081049999999999994
sS'department'
p123
F0.011988
sS'several'
p124
F0.017195999999999999
sS'3 year'
p125
F0.024608000000000001
sS'company'
p126
F0.0053090000000000004
sS'towards'
p127
F0.019293000000000001
sS'paramount'
p128
F0.037051000000000001
sS'state mandated communicable'
p129
F0.044270999999999998
sS'assist'
p130
F0.011389
sS'lab'
p131
F0.022372
sS'automation'
p132
F0.016132000000000001
sS'communication skill'
p133
F0.014961
sS'user'
p134
F0.0097920000000000004
sS'professional'
p135
F0.0091710000000000003
sS'typing skill'
p136
F0.044270999999999998
sS'hipaa'
p137
F0.034938999999999998
sS'audit'
p138
F0.022294999999999999
sS'required'
p139
F0.025231
sS'well'
p140
F0.0061549999999999999
sS'analysis'
p141
F0.0042680000000000001
sS'maintain'
p142
F0.048209000000000002
sS'command'
p143
F0.022294999999999999
sS'time'
p144
F0.0079030000000000003
sS'position'
p145
F0.0051190000000000003
sS'validation'
p146
F0.01498
sS'equivalent work experience'
p147
F0.020183
s.