(dp1
S''
I1
sS'consider'
p2
I1
sS'l2-ead'
p3
I1
sS'skill'
p4
I1
sS'integrity'
p5
I1
sS'based'
p6
I1
sS'anomaly detection'
p7
I1
sS'technique'
p8
I1
sS'accredited'
p9
I1
sS'tn'
p10
I1
sS'source'
p11
I1
sS'only'
p12
I1
sS'permanent'
p13
I1
sS'4'
I1
sS'citizen'
p14
I1
sS'sonsoft'
p15
I1
sS'real'
p16
I1
sS'python'
p17
I1
sS'mention'
p18
I1
sS'data collection'
p19
I1
sS'every'
p20
I1
sS'spss'
p21
I1
sS'using'
p22
I1
sS'advanced'
p23
I1
sS'progressive'
p24
I1
sS'ad-hoc'
p25
I1
sS'email'
p26
I1
sS'large'
p27
I1
sS'verifying'
p28
I1
sS'classifier'
p29
I1
sS'commonwealth'
p30
I1
sS'development'
p31
I1
sS'doing'
p32
I1
sS'data mining'
p33
I1
sS'consultants'
p34
I1
sS'result'
p35
I1
sS'year'
p36
I1
sV(2, 5]
p37
I1
sS'encouraged'
p38
I1
sS'please'
p39
I1
sS'unable'
p40
I1
sS'method'
p41
I1
sS'.knowledge'
p42
I1
sS'we'
p43
I1
sS'creating'
p44
I1
sS'degree'
p45
I1
sS'resume'
p46
I1
sS'selecting'
p47
I1
sS'equivalent'
p48
I1
sS'processing'
p49
I1
sS'opt-ead'
p50
I1
sS'corporation'
p51
I1
sS'job'
p52
I1
sS'statistical modeling'
p53
I1
sS'modeling'
p54
I1
sS'information technology'
p55
I1
sS'software development'
p56
I1
sS'full-time'
p57
I1
sS'extending'
p58
I1
sS'experience'
p59
I1
sS'foreign'
p60
I1
sS'amount'
p61
I1
sS'software'
p62
I1
sS'relevant'
p63
I1
sS'shell scripting'
p64
I1
sS'georgia.'
p65
I1
sS'three'
p66
I1
sS'least'
p67
I1
sS'lieu'
p68
I1
sS'apply'
p69
I1
sS'specializing'
p70
I1
sS'additional'
p71
I1
sS'usa'
p72
I1
sS'analytic'
p73
I1
sS'data'
p74
I1
sS'system'
p75
I1
sS'consultancy'
p76
I1
sS'needed'
p77
I1
sVBachelor
p78
I1
sS'authorized'
p79
I1
sS'h1b'
p80
I1
sS'matlab'
p81
I1
sS'optimizing'
p82
I1
sS'enhancing'
p83
I1
sS'2-5'
p84
I1
sS'duly'
p85
I1
sS'tool'
p86
I1
sS'specialty'
p87
I1
sS'automated'
p88
I1
sS'learning/statistical'
p89
I1
sS'holder'
p90
I1
sS'card'
p91
I1
sS'also'
p92
I1
sS'include'
p93
I1
sS'this'
p94
I1
sS'work'
p95
I1
sS'enabled'
p96
I1
sS'us'
p97
I1
sS'machine learning'
p98
I1
sS'will'
p99
I1
sS'pace'
p100
I1
sS'r'
I1
sS'bachelors'
p101
I1
sS'growing'
p102
I1
sS'procedure'
p103
I1
sS'at'
p104
I1
sS'constant'
p105
I1
sS'statistic'
p106
I1
sS'organized'
p107
I1
sS'manner'
p108
I1
sS'sas'
p109
I1
sS'unix shell scripting'
p110
I1
sS'institution.'
p111
I1
sS'information'
p112
I1
sS'education'
p113
I1
sS'no'
p114
I1
sS'gc-ead'
p115
I1
sS'-'
I1
sS'feature'
p116
I1
sS'cleansing'
p117
I1
sS'note'
p118
I1
sS'field'
p119
I1
sS'h4-ead'
p120
I1
sS'party'
p121
I1
sS'performance'
p122
I1
sS'you'
p123
I1
sS'company'
p124
I1
sS'status'
p125
I1
sS'used'
p126
I1
sS'description'
p127
I1
sS'java/c'
p128
I1
sS'qualifications'
p129
I1
sS'sponsor'
p130
I1
sS'state-of-the-art'
p131
I1
sS'visa'
p132
I1
sS'services'
p133
I1
sS'law'
p134
I1
sS'opportunity'
p135
I1
sS'building'
p136
I1
sS'tracking'
p137
I1
sS'third'
p138
I1
sS'clear'
p139
I1
sS'required'
p140
I1
sS'steady'
p141
I1
sS'analysis'
p142
I1
sS'green'
p143
I1
sS'presenting'
p144
I1
sS'time'
p145
I1
sS'u.s.'
p146
I1
sS'inc.'
p147
I1
s.