(dp1
S'concept'
p2
F0.012106
sS'job contribution'
p3
F0.039148000000000002
sS'desirable'
p4
F0.022957000000000002
sS'including'
p5
F0.015765000000000001
sS'clojure hadoop'
p6
F0.036403999999999999
sS'data'
p7
F0.0030309999999999998
sS'visualization'
p8
F0.01282
sS'based'
p9
F0.0092040000000000004
sS'knowledge'
p10
F0.011419
sS'technique'
p11
F0.0084220000000000007
sS'distributed'
p12
F0.034131000000000002
sS'operational'
p13
F0.013339
sS'environment'
p14
F0.0071900000000000002
sS'converted loaded'
p15
F0.033320000000000002
sS'area explaining advanced'
p16
F0.041666000000000002
sS'problem requiring'
p17
F0.039148000000000002
sS'key roles'
p18
F0.032558999999999998
sS'performs'
p19
F0.020473000000000002
sS'evaluate'
p20
F0.014296
sS'identifies key'
p21
F0.036864000000000001
sS'preferred'
p22
F0.0089320000000000007
sS'framework'
p23
F0.012259000000000001
sS'independence guided'
p24
F0.036864000000000001
sS'report'
p25
F0.0086510000000000007
sS'using'
p26
F0.0068960000000000002
sS'modifies software enhancement'
p27
F0.037901999999999998
sS'advanced'
p28
F0.0097020000000000006
sS'large scale'
p29
F0.019793999999999999
sS'issue'
p30
F0.010980999999999999
sS'across'
p31
F0.0069420000000000003
sS'multiple factor'
p32
F0.076987
sS'team'
p33
F0.0071219999999999999
sS'agile environment'
p34
F0.024576000000000001
sS'deviation'
p35
F0.036864000000000001
sS'recommend solution'
p36
F0.025815000000000001
sS'fully functioning technical'
p37
F0.041666000000000002
sS'key contributor'
p38
F0.034188000000000003
sS'testing'
p39
F0.011863
sS'big data technology'
p40
F0.017409999999999998
sS'analytics'
p41
F0.0056969999999999998
sS'communication mentors le experienced'
p42
F0.041666000000000002
sS'result'
p43
F0.0080230000000000006
sS'determine appropriate'
p44
F0.034188000000000003
sS'expert'
p45
F0.011795
sS'scala'
p46
F0.018884999999999999
sS'pattern'
p47
F0.015205
sS'specialized knowledge'
p48
F0.039148000000000002
sS'familiarity'
p49
F0.011677999999999999
sS'scientific computing'
p50
F0.025978999999999999
sS'research'
p51
F0.007332
sS'pig hive scalding cascalog pycascading along'
p52
F0.037901999999999998
sS'solution interacts'
p53
F0.032801999999999998
sS'new'
p54
F0.011701
sS'evaluation'
p55
F0.017687000000000001
sS'method'
p56
F0.0086870000000000003
sS'programming language'
p57
F0.013492000000000001
sS'moderate scope recommends new'
p58
F0.041666000000000002
sS'distributed computing'
p59
F0.021196
sS'provides'
p60
F0.013649
sS'subject matter expert'
p61
F0.018806
sS'data scientist'
p62
F0.0041029999999999999
sS'standard'
p63
F0.022789
sS'desired'
p64
F0.017579000000000001
sS'job'
p65
F0.0073940000000000004
sS'others'
p66
F0.025229000000000001
sS'team dept impact'
p67
F0.041666000000000002
sS'understanding'
p68
F0.0079819999999999995
sS'science'
p69
F0.013905000000000001
sS'language'
p70
F0.012205000000000001
sS'technical'
p71
F0.023623000000000002
sS'industry'
p72
F0.0070670000000000004
sS'experience'
p73
F0.00116
sS'contribution'
p74
F0.020043999999999999
sS'program debugs'
p75
F0.037901999999999998
sS'jvm-based function'
p76
F0.036403999999999999
sS'within'
p77
F0.0074570000000000001
sS'highly'
p78
F0.014196
sS'application analyzes design'
p79
F0.037901999999999998
sS'3-5 year'
p80
F0.024916000000000001
sS'experience typically requires 3-5 year experience supervisory'
p81
F0.041666000000000002
sS'spark'
p82
F0.015191
sS'select'
p83
F0.022374000000000002
sS'presented works'
p84
F0.037901999999999998
sS'area'
p85
F0.016872999999999999
sS'meaningful'
p86
F0.018162000000000001
sS'system'
p87
F0.0057099999999999998
sS'high performance'
p88
F0.023217000000000002
sS'collaborates'
p89
F0.022755999999999998
sS'alternative hdfs-based computing'
p90
F0.037901999999999998
sS'text mining'
p91
F0.023217000000000002
sS'direction'
p92
F0.014619999999999999
sS'storm'
p93
F0.029291000000000001
sS'relationship'
p94
F0.012961
sS'understand'
p95
F0.008848
sS'problem solving solves non routine problem'
p96
F0.041666000000000002
sS'team member'
p97
F0.012415000000000001
sS'interprets'
p98
F0.028018999999999999
sS'work'
p99
F0.006489
sS'project'
p100
F0.0050289999999999996
sS'bachelors'
p101
F0.023164000000000001
sS'applies'
p102
F0.040280999999999997
sS'providing'
p103
F0.010756
sS'procedure'
p104
F0.030616999999999998
sS'debugging'
p105
F0.025349
sS'specialized technical guidance builds productive internal external'
p106
F0.041666000000000002
sS'process'
p107
F0.012573000000000001
sS'technology writes code completes programming'
p108
F0.037901999999999998
sS'deep'
p109
F0.015629000000000001
sS'diverse'
p110
F0.012133
sS'norm works'
p111
F0.041666000000000002
sS'need'
p112
F0.0066810000000000003
sS'education'
p113
F0.010151
sS'technology'
p114
F0.013521999999999999
sS'information'
p115
F0.0071739999999999998
sS'goal'
p116
F0.011124
sS'process integrates company'
p117
F0.041666000000000002
sS'responsible'
p118
F0.0076490000000000004
sS'analyzes'
p119
F0.023599999999999999
sS'hadoop nosql'
p120
F0.031078000000000001
sS'objective'
p121
F0.014527999999999999
sS'development'
p122
F0.0041669999999999997
sS'product'
p123
F0.0046899999999999997
sS'used'
p124
F0.013043000000000001
sS'responsibilities uses big data'
p125
F0.037901999999999998
sS'develops'
p126
F0.015061
sS'discipline specialty area'
p127
F0.073728000000000002
sS'judgment'
p128
F0.053734999999999998
sS'independently'
p129
F0.017451999999999999
sS'task'
p130
F0.0129
sS'documentation'
p131
F0.014579999999999999
sS'query language'
p132
F0.025815000000000001
sS'drive'
p133
F0.0079769999999999997
sS'analysis'
p134
F0.010179000000000001
sS'depth'
p135
F0.026407
sS'computer science math'
p136
F0.029152000000000001
sS'professional'
p137
F0.010937000000000001
sS'5 year'
p138
F0.013502999999999999
s.