(dp1
S'sector'
p2
F0.0092689999999999995
sS'broad range'
p3
F0.0091889999999999993
sS'code'
p4
F0.0051349999999999998
sS'data source'
p5
F0.007554
sS'global'
p6
F0.0043420000000000004
sS'people'
p7
F0.0032590000000000002
sS'named'
p8
F0.01166
sS'nominated'
p9
F0.019664999999999998
sS'hadoop'
p10
F0.0048849999999999996
sS'discovered'
p11
F0.014274
sS'bring'
p12
F0.0045019999999999999
sS'abilities'
p13
F0.011317000000000001
sS'including'
p14
F0.0021310000000000001
sS'aspect'
p15
F0.0064019999999999997
sS'world'
p16
F0.0076299999999999996
sS'hbase'
p17
F0.0096399999999999993
sS'technological revolution'
p18
F0.019664999999999998
sS'staff'
p19
F0.0060340000000000003
sS'recently joined'
p20
F0.019664999999999998
sS'leader'
p21
F0.007953
sS'advanced analytic'
p22
F0.0093939999999999996
sS'one'
p23
F0.0087279999999999996
sS'based'
p24
F0.0037330000000000002
sS'knowledge'
p25
F0.0023149999999999998
sS'big data'
p26
F0.011767
sS'also'
p27
F0.008345
sS'personal'
p28
F0.0069210000000000001
sS'technique'
p29
F0.0034150000000000001
sS'education'
p30
F0.008234
sS'advancement'
p31
F0.010133
sS'thousand'
p32
F0.0096399999999999993
sS'source'
p33
F0.005692
sS'production'
p34
F0.01001
sS'machine learning technique'
p35
F0.0073090000000000004
sS'information services'
p36
F0.014589
sS'drive fantastic shareholder return'
p37
F0.019664999999999998
sS'health'
p38
F0.012123999999999999
sS'service idexx product'
p39
F0.019664999999999998
sS'yahoocom'
p40
F0.019664999999999998
sS'customer'
p41
F0.0022009999999999998
sS'collaborate'
p42
F0.012872
sS'outstanding opportunity'
p43
F0.029179
sS'competitive compensation'
p44
F0.010569
sS'di'
p45
F0.017357000000000001
sS'forbescom'
p46
F0.018643
sS'advocate'
p47
F0.010604000000000001
sS'possible'
p48
F0.0073660000000000002
sS'test'
p49
F0.0098049999999999995
sS'state'
p50
F0.0064819999999999999
sS'mysql oracle sql'
p51
F0.019664999999999998
sS'deployment'
p52
F0.0057869999999999996
sS'using'
p53
F0.0055929999999999999
sS'impressive onsite fitness center'
p54
F0.019664999999999998
sS'execution'
p55
F0.0057369999999999999
sS'mysql oracle'
p56
F0.017357000000000001
sS'advanced'
p57
F0.003934
sS'devise'
p58
F0.011363
sS'translate'
p59
F0.0064279999999999997
sS'success'
p60
F0.0044679999999999997
sS'course'
p61
F0.0079059999999999998
sS'skills'
p62
F0.005476
sS'wellness'
p63
F0.011557
sS'aws'
p64
F0.0069129999999999999
sS'list'
p65
F0.021791999999999999
sS'solution'
p66
F0.0035820000000000001
sS'culture breathtaking scenery reasonable'
p67
F0.019664999999999998
sS'summary'
p68
F0.0078480000000000008
sS'magazine chooses'
p69
F0.019664999999999998
sS'benefit'
p70
F0.0052560000000000003
sS'excellence'
p71
F0.0059839999999999997
sS'common'
p72
F0.0081030000000000008
sS'milk headquartered'
p73
F0.019664999999999998
sS'team'
p74
F0.0028879999999999999
sS'enhance'
p75
F0.019732
sS'pet health'
p76
F0.019664999999999998
sS'two'
p77
F0.0074330000000000004
sS'wellness idexx'
p78
F0.019664999999999998
sS'mathematical'
p79
F0.0066480000000000003
sS'production animal industry'
p80
F0.019664999999999998
sS'actionable high-impact data'
p81
F0.019664999999999998
sS'statistical'
p82
F0.0077010000000000004
sS'core'
p83
F0.010488000000000001
sS'generation'
p84
F0.0085959999999999995
sS'energy'
p85
F0.0080029999999999997
sS'participate'
p86
F0.005855
sS'idea'
p87
F0.0056100000000000004
sS'identify'
p88
F0.00347
sS'wa ranked'
p89
F0.037287000000000001
sS'growth'
p90
F0.010470999999999999
sS'quantitative field'
p91
F0.0070860000000000003
sS'home'
p92
F0.008116
sS'promotes'
p93
F0.010857
sS'acts'
p94
F0.012315
sS'best'
p95
F0.0043499999999999997
sS'comfortably casual'
p96
F0.019664999999999998
sS'driving'
p97
F0.0061780000000000003
sS'pet'
p98
F0.015611
sS'broad'
p99
F0.0077679999999999997
sS'spark hadoop'
p100
F0.011879000000000001
sS'research'
p101
F0.005947
sS'looking'
p102
F0.0034150000000000001
sS'method'
p103
F0.0035230000000000001
sS'outside'
p104
F0.0081810000000000008
sS'safety'
p105
F0.0094809999999999998
sS'market'
p106
F0.0047390000000000002
sS'young professionals'
p107
F0.019664999999999998
sS'womens health'
p108
F0.019664999999999998
sS'world-class'
p109
F0.0087229999999999999
sS'software developer'
p110
F0.0090360000000000006
sS'evaluation'
p111
F0.0071729999999999997
sS'across'
p112
F0.0028149999999999998
sS'achieve targeted outcome'
p113
F0.01413
sS'r sas'
p114
F0.01022
sS'specialist'
p115
F0.0089630000000000005
sS'ability'
p116
F0.0014300000000000001
sS'business'
p117
F0.0034610000000000001
sS'data cleaning data transformation'
p118
F0.019664999999999998
sS'experience using'
p119
F0.0071640000000000002
sS'marketing'
p120
F0.0043740000000000003
sS'great opportunity'
p121
F0.011183
sS'maintains'
p122
F0.009018
sS'data scientist'
p123
F0.0033279999999999998
sS'big data mining'
p124
F0.019664999999999998
sS'water'
p125
F0.016508999999999999
sS'efficiency'
p126
F0.0074330000000000004
sS'statistical method'
p127
F0.0079179999999999997
sS'ranked'
p128
F0.012929
sS'deliver'
p129
F0.0034350000000000001
sS'opportunity'
p130
F0.0025270000000000002
sS'key'
p131
F0.0040369999999999998
sS'broad knowledge'
p132
F0.011937
sS'easy access'
p133
F0.015151
sS'foodiest city'
p134
F0.019664999999999998
sS'data quality'
p135
F0.0077790000000000003
sS'generate'
p136
F0.0075950000000000002
sS'information technology'
p137
F0.0067060000000000002
sS'bonappetit magazine'
p138
F0.019664999999999998
sS'work environment'
p139
F0.015604
sS'tobacco free'
p140
F0.018643
sS'data format'
p141
F0.014427000000000001
sS'serving practicing veterinarian around'
p142
F0.019664999999999998
sS'mathematics physics computer science'
p143
F0.018643
sS'p 500'
p144
F0.019664999999999998
sS'many'
p145
F0.006306
sS'healthiest city'
p146
F0.019664999999999998
sS'affordable'
p147
F0.013204
sS'health clinic'
p148
F0.019664999999999998
sS'experience'
p149
F0.001882
sS'keep'
p150
F0.007757
sS'magazine'
p151
F0.038530000000000002
sS'important'
p152
F0.0068580000000000004
sS'plus'
p153
F0.0038670000000000002
sS'mentor'
p154
F0.006881
sS'broad audience'
p155
F0.012603
sS'relational'
p156
F0.010048
sS'inspires'
p157
F0.012761
sS'data integration'
p158
F0.0092689999999999995
sS'accomplished'
p159
F0.012681
sS'duty'
p160
F0.007182
sS'3+ year'
p161
F0.013282
sS'deterministic'
p162
F0.019664999999999998
sS'top 10'
p163
F0.028854000000000001
sS'design implement'
p164
F0.0098110000000000003
sS'predictive'
p165
F0.0058650000000000004
sS'data science'
p166
F0.0059740000000000001
sS'housing'
p167
F0.012761
sS'number'
p168
F0.0078359999999999992
sS'build'
p169
F0.0049129999999999998
sS'system'
p170
F0.0069459999999999999
sS'appropriate'
p171
F0.005215
sS'python matlab'
p172
F0.013742000000000001
sS'nosql database'
p173
F0.0090930000000000004
sS'owner'
p174
F0.011015
sS'apply'
p175
F0.0035379999999999999
sS'quality'
p176
F0.0042129999999999997
sS'cloud'
p177
F0.0055120000000000004
sS'cross-functional team member'
p178
F0.014589
sS'minority female disabled veteran'
p179
F0.019664999999999998
sS'use'
p180
F0.0027239999999999999
sS'strong'
p181
F0.00511
sS'tuning'
p182
F0.010709
sS'service'
p183
F0.0026900000000000001
sS'area'
p184
F0.0068430000000000001
sS'probabilistic'
p185
F0.013513000000000001
sS'pet healthcare'
p186
F0.019664999999999998
sS'support'
p187
F0.0034489999999999998
sS'innovation'
p188
F0.0039319999999999997
sS'healthy dining choice'
p189
F0.019664999999999998
sS'continuous improvement'
p190
F0.0095029999999999993
sS'extraction'
p191
F0.0099939999999999994
sS'live'
p192
F0.0082209999999999991
sS'forbes'
p193
F0.0079660000000000009
sS'decision maker'
p194
F0.010342
sS'listed'
p195
F0.011937
sS'6'
F0.0097359999999999999
sS'clinical'
p196
F0.023935000000000001
sS'company whose innovation'
p197
F0.019664999999999998
sS'analyze'
p198
F0.0044619999999999998
sS'perform'
p199
F0.0044840000000000001
sS'trend'
p200
F0.0053829999999999998
sS'data sourcing'
p201
F0.015611
sS'dynamic pet health'
p202
F0.019664999999999998
sS'product management'
p203
F0.0075430000000000002
sS'offering'
p204
F0.0077460000000000003
sS'offer'
p205
F0.016208
sS'company'
p206
F0.002568
sS'programming experience'
p207
F0.0082749999999999994
sS'americas best cities'
p208
F0.019664999999999998
sS'great'
p209
F0.0059560000000000004
sS'improve'
p210
F0.0037919999999999998
sS'practice idexx'
p211
F0.019664999999999998
sS'attracts reward'
p212
F0.019664999999999998
sS'communicate result'
p213
F0.0096640000000000007
sS'understand'
p214
F0.003588
sS'8'
F0.0098359999999999993
sS'continual'
p215
F0.015611
sS'translation'
p216
F0.014274
sS'ha'
p217
F0.004679
sS'standard'
p218
F0.0046210000000000001
sS'portland maine recently'
p219
F0.019664999999999998
sS'change agent'
p220
F0.012455000000000001
sS'within idexx'
p221
F0.019664999999999998
sS'woman'
p222
F0.013742000000000001
sS'made'
p223
F0.0076160000000000004
sS'communicate'
p224
F0.0098340000000000007
sS'eoe'
p225
F0.011226999999999999
sS'fully loaded'
p226
F0.018643
sS'maine idexx laboratories employ'
p227
F0.019664999999999998
sS'consultant'
p228
F0.0080149999999999996
sS'work'
p229
F0.00087699999999999996
sS'join'
p230
F0.0075240000000000003
sS'ha helped shape'
p231
F0.019664999999999998
sS'us'
p232
F0.0042490000000000002
sS'machine learning'
p233
F0.0081910000000000004
sS'veterinarian'
p234
F0.019664999999999998
sS'outdoors'
p235
F0.019664999999999998
sS'growing'
p236
F0.0068970000000000004
sS'balance'
p237
F0.0089630000000000005
sS'machine learning artificial intelligence'
p238
F0.012603
sS'providing'
p239
F0.0043620000000000004
sS'care'
p240
F0.0061659999999999996
sS'masters degree'
p241
F0.0058079999999999998
sS'foster'
p242
F0.0085959999999999995
sS'data manipulation'
p243
F0.0098879999999999992
sS'challenging'
p244
F0.0070020000000000004
sS'healthiest'
p245
F0.019664999999999998
sS'unmatched personal'
p246
F0.019664999999999998
sS'ai'
p247
F0.010311000000000001
sS'well'
p248
F0.002977
sS'information technology-based product'
p249
F0.019664999999999998
sS'best town ever'
p250
F0.019664999999999998
sS'general'
p251
F0.0071989999999999997
sS'engineering'
p252
F0.0034009999999999999
sS'diverse'
p253
F0.0049199999999999999
sS'across veterinary healthcare industry'
p254
F0.019664999999999998
sS'unleashes creativity'
p255
F0.019664999999999998
sS'want'
p256
F0.0049020000000000001
sS'need'
p257
F0.002709
sS'motivated'
p258
F0.0087069999999999995
sS'plan'
p259
F0.00479
sS'java boutique machine learning'
p260
F0.019664999999999998
sS'technology'
p261
F0.001828
sS'campus'
p262
F0.025055999999999998
sS'diagnostic'
p263
F0.024629999999999999
sS'concept'
p264
F0.0049100000000000003
sS'information'
p265
F0.0029090000000000001
sS'issue'
p266
F0.0044530000000000004
sS'develop'
p267
F0.0019650000000000002
sS'americas best hipster neighborhoods wa'
p268
F0.019664999999999998
sS'provide'
p269
F0.0025609999999999999
sS'people globally'
p270
F0.016173
sS'economically successful'
p271
F0.019664999999999998
sS'predictive modeling'
p272
F0.0059290000000000002
sS'raise kid wa'
p273
F0.019664999999999998
sS'feature'
p274
F0.006502
sS'175 country'
p275
F0.016508999999999999
sS'refreshingly honest'
p276
F0.019664999999999998
sS'application'
p277
F0.0027490000000000001
sS'methodology'
p278
F0.004424
sS'internal'
p279
F0.0040369999999999998
sS'- biotechnology'
p280
F0.019664999999999998
sS'department'
p281
F0.0057980000000000002
sS'new'
p282
F0.0071180000000000002
sS'bloomberg businessweek'
p283
F0.019664999999999998
sS'equivalent combination'
p284
F0.0098359999999999993
sS'tool'
p285
F0.0054549999999999998
sS'art leed certified'
p286
F0.019664999999999998
sS'worldwide'
p287
F0.0080649999999999993
sS'product'
p288
F0.001902
sS'practice'
p289
F0.005012
sS'description'
p290
F0.0052110000000000004
sS'collaborative'
p291
F0.0066059999999999999
sS'innovative'
p292
F0.0043020000000000003
sS'animal clinic'
p293
F0.019664999999999998
sS'time'
p294
F0.0038219999999999999
sS'qualifications'
p295
F0.0030360000000000001
sS'idexx'
p296
F0.058993999999999998
sS'phd'
p297
F0.0040439999999999999
sS'ha recently'
p298
F0.016896999999999999
sS'000'
p299
F0.01025
sS'validate cutting-edge'
p300
F0.014589
sS'structure'
p301
F0.007424
sS'date'
p302
F0.0097120000000000001
sS'highly'
p303
F0.005757
sS'eager'
p304
F0.010076
sS'data'
p305
F0.0024580000000000001
sS'model selection'
p306
F0.017919000000000001
sS'data transformation csv xls json avro parquet'
p307
F0.019664999999999998
sS'price low-stress living'
p308
F0.019664999999999998
sS'foundation'
p309
F0.0082070000000000008
sS'exceptionally talented'
p310
F0.018643
sS'effectively communicate complex'
p311
F0.016173
sS'algorithm'
p312
F0.00313
sS'prioritize'
p313
F0.0073000000000000001
sS'medical'
p314
F0.008116
sS'variety'
p315
F0.0099799999999999993
sS'wellbeing'
p316
F0.017357000000000001
sS'sale'
p317
F0.006319
sS'together'
p318
F0.0069210000000000001
sS'r python java'
p319
F0.015876000000000001
sS'h2o'
p320
F0.012681
sS'maintain'
p321
F0.0046629999999999996
sS'used'
p322
F0.0052890000000000003
sS'place'
p323
F0.014223
sS'tensorflow theano'
p324
F0.016173
sS'hear'
p325
F0.010191
sS'model'
p326
F0.010036
sS'insight'
p327
F0.0066899999999999998
sS'proven experience'
p328
F0.010076
sS'latest'
p329
F0.006881
s.