(lp1
Voverview
p2
aVbased northern
p3
aVva axiologic
p4
aVsolution llc
p5
aVopportunity become
p6
aVpart high-quality
p7
aVteam delivers
p8
aVinnovative solution
p9
aVkey federal
p10
aVclient currently
p11
aVseeking candidate
p12
aVhelp improve
p13
aVrestructure training
p14
aVeffort
p15
aVposition located
p16
aVeither reston
p17
aVva washington
p18
aVdc
p19
aVresponsibility
p20
aVestablish maintenance
p21
aVroutine data
p22
aVanalytics
p23
aVtransition maintenance
p24
aVgovernment designated
p25
aVdia contract
p26
aVengineering
p27
aVgroup
p28
aVassist ipts
p29
aVusing
p30
aVdata
p31
aVanalytics
p32
aVdashboard implementing
p33
aVhands-on demonstration
p34
aVsupport ops
p35
aVmake recommendation
p36
aVrequired evoking
p37
aVimplementation
p38
aVindustry
p39
aVbest practice
p40
aVused jointly
p41
aVgovernment designed
p42
aVensure highest
p43
aVquality delivery
p44
aVsustainability program
p45
aVsupporting
p46
aVproject
p47
aVcapture maintain
p48
aVprocess workflow
p49
aVlesson learned
p50
aVtowards improved
p51
aVic collaboration
p52
aVwork
p53
aVforce restructuring
p54
aVtraining effort
p55
aVdeliver
p56
aVdata visualization
p57
aVcommunicate
p58
aVinformation
p59
aVclearly efficiently
p60
aVaudience enabling
p61
aVdata-driven decision
p62
aVanalysis
p63
aVvisualization
p64
aVproduct
p65
aVmay
p66
aVdynamic static
p67
aVmust reusable
p68
aVrepeatable
p69
aVability recreated
p70
aVperiodic basis
p71
aVneeded
p72
aVqualification
p73
aVmust active
p74
aVcurrent t
p75
aVsci ci
p76
aVpoly
p77
aVbachelor's degree
p78
aVequivalent training
p79
aVseven year
p80
aVyear specialized
p81
aVexperience working
p82
aVcomplex
p83
aVdata
p84
aVdatabase
p85
aVproject
p86
aVdata
p87
aVanalyst
p88
aVdata
p89
aVarchitect data
p90
aVscientist
p91
aVdatabase
p92
aVengineer
p93
aVproduce report
p94
aVtimely accurate
p95
aVanalysis
p96
aVappropriate level
p97
aVdetail enable
p98
aVbusiness decision
p99
aVsupport
p100
aVclient comprehending
p101
aVcontext program
p102
aVdata
p103
aVextracting qualitative
p104
aVquantitative relationship
p105
aVincluding pattern
p106
aVtrend large
p107
aVamount data
p108
aVproviding analytic
p109
aVsupport
p110
aVhelp inform
p111
aVpolicy rational
p112
aVdecision making
p113
aVresource allocation
p114
aVprovide
p115
aVsupport
p116
aVstrategic implementation
p117
aVcoordination project
p118
aVmanagement
p119
aVcommunication
p120
aVsupport effort
p121
aVacross matrixed
p122
aVorganization
p123
aVproud diverse
p124
aVenvironment eoe
p125
aVf disability
p126
aVvet sexual
p127
aVorientation gender
p128
aVidentity
p129
aV0
a.