(lp1
Voverview
p2
aVbased northern
p3
aVva axiologic
p4
aVsolution llc
p5
aVopportunity become
p6
aVpart high-quality
p7
aVteam delivers
p8
aVinnovative solution
p9
aVkey federal
p10
aVclient currently
p11
aVseeking candidate
p12
aVprovide technical
p13
aVsubject matter
p14
aVexpertise
p15
aVsupport ipt
p16
aVeffort
p17
aVposition located
p18
aVeither reston
p19
aVva washington
p20
aVdc
p21
aVresponsibility
p22
aVexpeditiously accurately
p23
aVaccordance technical
p24
aVsecurity
p25
aVrequirement
p26
aVsupport ipts
p27
aVrequested
p28
aVprovide technical
p29
aVsubject matter
p30
aVexpertise
p31
aVsupport ipt
p32
aVeffort
p33
aVwork
p34
aVipts identify
p35
aVmission
p36
aVimpactful dashboard
p37
aVanalytics
p38
aVexpeditiously accurately
p39
aVaccordance technical
p40
aVsecurity
p41
aVrequirement
p42
aVsupport ipts
p43
aVrequested
p44
aVprovide
p45
aVsupport
p46
aVmission
p47
aVuser administering
p48
aVdata
p49
aVthough lifecycle
p50
aVperforming
p51
aVquality check
p52
aVdata
p53
aVcloud
p54
aVreport
p55
aVdata
p56
aVtransmission access
p57
aVipt
p58
aVteam comprised
p59
aVfunctional
p60
aVcustomer rep
p61
aVapplication developer
p62
aVdata
p63
aVsmes
p64
aVdatabase admins
p65
aVoperation
p66
aVengineer
p67
aVsecurity
p68
aVsme accreditation
p69
aVtesting
p70
aVdocumentation sme
p71
aVprovide technical
p72
aVsme support
p73
aVfollows tech
p74
aVengineering
p75
aVintegration
p76
aVproduct owner
p77
aVdesign
p78
aVdata
p79
aVsolution
p80
aVdata
p81
aVmanagement
p82
aVvisualization
p83
aVprovide
p84
aVtraining
p85
aVgovernment
p86
aVmilitary
p87
aVengineer
p88
aVtechnology
p89
aVprovide
p90
aVsystem engineering
p91
aVexpertise
p92
aVsupport ipt
p93
aVeffort
p94
aVsupport dia
p95
aVcocoms odni
p96
aVusdi provide
p97
aVrequirement
p98
aVfuture state
p99
aVplan
p100
aVassist ipts
p101
aVusing
p102
aVdata
p103
aVanalytics
p104
aVdashboard implementing
p105
aVhands-on demonstration
p106
aVsupport ops
p107
aVqualification
p108
aVmust active
p109
aVcurrent t
p110
aVsci ci
p111
aVpoly
p112
aVseven year
p113
aVyear specialized
p114
aVexperience working
p115
aVcomplex
p116
aVdata
p117
aVdatabase
p118
aVproject
p119
aVdata
p120
aVanalyst
p121
aVdata
p122
aVarchitect data
p123
aVscientist
p124
aVdatabase
p125
aVengineer
p126
aVbachelor's degree
p127
aVequivalent training
p128
aVexperience
p129
aVsupport
p130
aVclient comprehending
p131
aVcontext program
p132
aVdata
p133
aVextracting qualitative
p134
aVquantitative relationship
p135
aVincluding pattern
p136
aVtrend large
p137
aVamount data
p138
aVproviding analytic
p139
aVsupport
p140
aVhelp inform
p141
aVpolicy rational
p142
aVdecision making
p143
aVresource allocation
p144
aVprovide
p145
aVsupport
p146
aVstrategic implementation
p147
aVcoordination project
p148
aVmanagement
p149
aVcommunication
p150
aVsupport effort
p151
aVacross matrixed
p152
aVorganization
p153
aVproud diverse
p154
aVenvironment eoe
p155
aVf disability
p156
aVvet sexual
p157
aVorientation gender
p158
aVidentity
p159
aV0
a.