(lp1
Vunited
p2
aVtechnology corporation
p3
aVutc deep
p4
aVhistory
p5
aVinnovation brings
p6
aVtogether
p7
aVbig thinker
p8
aVproblem solver
p9
aVculture pushing
p10
aVboundary
p11
aVwhat's possible
p12
aVglobal reach
p13
aVrich history
p14
aVuniquely position
p15
aVu
aVsucceed
p16
aVnew
p17
aVdigital
p18
aVeconomy investment
p19
aVdigital
p20
aVinnovation
p21
aVmake
p22
aVtravel
p23
aVbetter
p24
aVpeople safer
p25
aVurbanizing city
p26
aVcomfortable connected
p27
aVutc committed
p28
aVleading
p29
aVdigital era
p30
aVunleash size
p31
aVscale
p32
aVbusiness
p33
aVdigital
p34
aVworld
p35
aVbig data
p36
aVinternet thing
p37
aVlooking
p38
aVbest
p39
aVthought
p40
aVtechnology
p41
aVleader
p42
aVhelp grow
p43
aVdigital accelerator
p44
aVbrooklyn new
p45
aVyork vibrant
p46
aVurban oasis
p47
aVoverlooking iconic
p48
aVbrooklyn bridge
p49
aVcome join
p50
aVu journey
p51
aVsee
p52
a.