(lp1
Voverview
p2
aVmediamath technology
p3
aVplatform brings
p4
aVtogether form
p5
aVdigital medium
p6
aVmassive amount
p7
aVdata
p8
aVsophisticated
p9
aValgorithm
p10
aVpower smarter
p11
aVmarketing
p12
aVworld leading
p13
aVadvertiser
p14
aVtechnology
p15
aVlike
p16
aVreal-time bidding
p17
aVrevolutionizing marketing
p18
aVmediamath cutting
p19
aVedge
p20
aVplatform handle
p21
aVmillion transaction
p22
aVper second
p23
aVreach hundred
p24
aVmillion desktop
p25
aVmobile internet
p26
aVuser
p27
aVworldwide
p28
aVengineer
p29
aVdevelop
p30
aVcomplex
p31
aVinnovative
p32
aVhighly scalable
p33
aVtechnology
p34
aVchanging face
p35
aVdigital medium
p36
aVdevising new
p37
aVapproach inventing
p38
aVnew
p39
aVproduct
p40
aVopening
p41
aVnew
p42
aVmarket
p43
aVexciting
p44
aVcompany
p45
aVexciting
p46
aVindustry weve
p47
aVenjoyed massive
p48
aVgrowth since
p49
aVfounding 2007
p50
aVglobal
p51
aVcompany
p52
aVoffice 20
p53
aVlocation revolution
p54
aVbegun
p55
aVcurrently looking
p56
aVdata scientist
p57
aVintern
p58
aVsupport
p59
aVongoing
p60
aVdevelopment mediamaths
p61
aVproprietary algorithm
p62
aVanalytics
p63
aVindividual
p64
aVmember
p65
aVdata science
p66
aVteam
p67
aVworking closely
p68
aVproduct
p69
aVengineering team
p70
aVconception design
p71
aVdevelopment testing
p72
aVdeployment real-world
p73
aVapplication
p74
aVmodel
p75
aVdata
p76
aVimpact billion
p77
aVdollar marketing
p78
aVspend optimizing
p79
aVreal-time bidding
p80
aVauction
p81
aVseparating
p82
aVhuman
p83
aVnon-human web
p84
aVtraffic
p85
aVbuilding
p86
aVglobal
p87
aVcross-device
p88
aVgraph
p89
aVacross billion
p90
aVuser
p91
aVindividual
p92
aVopportunity
p93
aVwork
p94
aVnumerous
p95
aVcutting-edge
p96
aVproblem
p97
aVdevelop scalable
p98
aVhigh-performance
p99
aVsolution
p100
aVbig data
p101
aVproblem using
p102
aVstate-of-the art
p103
aVtechnology
p104
aVlanguage
p105
aVframework
p106
aVresponsibility
p107
aVdevelop
p108
aVsolid understanding
p109
aVmediamaths business
p110
aVcontext
p111
aVkey
p112
aVproblem
p113
aVissue importance
p114
aVcompany
p115
aVway
p116
aVdata-driven
p117
aVmodel algorithm
p118
aVhelp drive
p119
aVperformance
p120
aVprovide insight
p121
aVdevelop
p122
aVdeep understanding
p123
aVbusiness
p124
aVdata-sets combination
p125
aVdatabase query
p126
aVexploratory
p127
aVstatistical analysis
p128
aVvisualization
p129
aVrapidly
p130
aVdevelop
p131
aVdeep understanding
p132
aVquantitative
p133
aVmethodology
p134
aVimplementation
p135
aVdetail behind
p136
aVexisting
p137
aVmachine learning
p138
aValgorithm
p139
aVplace currently-planned
p140
aVroadmap enhancement
p141
aVformulate
p142
aVbusiness need
p143
aVdata science
p144
aVproblem
p145
aVapplicable
p146
aVeffectively communicate
p147
aVpeer manager
p148
aVkey stakeholder
p149
aVincluding
p150
aVbenefit limitation
p151
aVmodel
p152
aVdesign develop
p153
aVmachine learning
p154
aVmodel algorithm
p155
aVdrive
p156
aVperformance
p157
aVprovide insight
p158
aVprototyping production
p159
aVdeployment
p160
aVacross
p161
aVkey area
p162
aVinterest
p163
aVcompany
p164
aVe.g.
p165
aVbidding optimization
p166
aVmessaging
p167
aVoptimization
p168
aVmulti-touch attribution
p169
aVfraud detection
p170
aVdevice
p171
aVidentification
p172
aVcross-device
p173
aVassociation
p174
aVpartner closely
p175
aVengineering
p176
aVarchitecture
p177
aVimplementation
p178
aVmodeling
p179
aVeffort
p180
aVensure
p181
aVperformance scalability
p182
aVpartner closely
p183
aVproduct incorporation
p184
aVnew
p185
aVmodeling
p186
aVfeature
p187
aVproduct
p188
aVset
p189
aVincluding
p190
aVui
p191
aVapi layer
p192
aVdevelop
p193
aVtool
p194
aVprocess
p195
aVmonitor performance
p196
aVexisting
p197
aVmodel
p198
aVimplement enhancement
p199
aVimprove scalability
p200
aVreliability performance
p201
aVcreate
p202
aVsupporting documentation
p203
aValgorithm
p204
aVmodel
p205
aVstay abreast
p206
aVnew
p207
aVdevelopment
p208
aVmachine learning
p209
aVdata science
p210
aVinvestigate
p211
aVdevelop new
p212
aVchallenger approach
p213
aVcompete current
p214
aVchampion
p215
aVcommunicate effectively
p216
aVdata scientist
p217
aVproduct
p218
aVengineering
p219
aVbusiness stakeholder
p220
aVacross
p221
aVcompany
p222
aVidentify define
p223
aVstrategic data-intensive
p224
aVproject
p225
aVbased
p226
aVbusiness need
p227
aVtake ownership
p228
aVsignificant
p229
aVlarge
p230
aVproject
p231
aVdevelop
p232
aVoverall
p233
aVarchitecture roadmap
p234
aVsupervise
p235
aVjunior
p236
aVdata scientist
p237
aVengineer
p238
aVact subject
p239
aVmatter expert
p240
aVarea
p241
aVownership
p242
aVinternal external
p243
aVaudience
p244
aVcontribute
p245
aVmediamath
p246
aVdata science
p247
aVthought leadership
p248
aVvia
p249
aVpublication
p250
aVnew-to-the-world
p251
aVresearch
p252
aVrelevant
p253
aVjournal
p254
aVblog
p255
aVentry
p256
aVetc
p257
aVexhaustive list
p258
aVresponsibility
p259
aVpart
p260
aVglobal
p261
aVtechnology
p262
aVteam
p263
aVmay required
p264
aVwork off-hours
p265
aVon-call rotating
p266
aVbasis
p267
aVduty may
p268
aVassigned
p269
aVneeded mediamath
p270
aVretains right
p271
aVchange
p272
aVjob duty
p273
aVtime
p274
aVqualification
p275
aVstudyingin
p276
aVquantitative discipline
p277
aVe.g.
p278
aVcomputer science
p279
aVmath physic
p280
aVstatistic electrical
p281
aVengineering similar
p282
aVstrong
p283
aVquantitative
p284
aVskill
p285
aVsolid grasp
p286
aVkey
p287
aVconcept probability
p288
aVstatistic
p289
aValgorithm
p290
aVdesign
p291
aVmachine learning
p292
aVstrong communication
p293
aVskill ability
p294
aVeffectively discus
p295
aVmodel data-scientists
p296
aVwell
p297
aVbusiness partner
p298
aVappropriate level
p299
aVtechnical detail
p300
aVexperience developing
p301
aVsoftware
p302
aVleast
p303
aVyear
p304
aVscala python
p305
aVexperience
p306
aVmachine learning
p307
aVpredictive modeling
p308
aVstatistical analysis
p309
aVtechnique
p310
aVbusiness
p311
aVenvironment
p312
aVpassion
p313
aVhands-on in-the-trenches
p314
aVwork
p315
aVreal-world data-sets
p316
aVdesirable
p317
aVexperience
p318
aVmachine-learning big-data
p319
aVplatform
p320
aVmodeling
p321
aVframework especially
p322
aVspark hadoop
p323
aVdesirable
p324
aVexperience
p325
aVstatistical modeling
p326
aVvisualization
p327
aVr python
p328
aVattribute
p329
aVfast learner
p330
aVanalytic thinker
p331
aVcreative problem
p332
aVsolver
p333
aVpassion applying
p334
aVquantitative method
p335
aVrea-world problem
p336
aVhighly motivated
p337
aVcollaborative team
p338
aVplayer
p339
aVfocus
p340
aVimpact scalability
p341
aVdirect honest
p342
aVcommunication style
p343
aVmediamath
p344
aVglobal
p345
aVtechnology
p346
aVcompany
p347
aVthat's leading
p348
aVmovement
p349
aVrevolutionize
p350
aVtraditional
p351
aVmarketing
p352
aVempowering marketer
p353
aVunleash power
p354
aVgoal-based
p355
aVmarketing
p356
aVscale
p357
aVtransparently
p358
aVacross enterprise
p359
aVplatform
p360
aV-
aVterminalone
p361
aVmarketing
p362
aVoperating system
p363
aV-
aVhandle billion
p364
aVtransaction
p365
aVevery
p366
aVhour
p367
aVhundred million
p368
aVinternet user
p369
aVevery day
p370
aVmean
p371
aVevery
p372
aVsolution
p373
aVmust
p374
aVbuilt
p375
aVscale
p376
aVbreakthrough
p377
aVcreate new
p378
aVmarketplace
p379
aVsolve
p380
aVlong-standing
p381
aVproblem
p382
aVindustry
p383
aVconstantly evolving
p384
aVengineer
p385
aVbuilding leading
p386
aVtechnology
p387
aVplatform power
p388
aVnew
p389
aVdigital marketing
p390
aVecosystem
p391
aVlooking
p392
aVdriven
p393
aVcurious
p394
aVinnovator join
p395
aVteam
p396
aVachieving duty
p397
aVresponsibility mediamath
p398
aVemployee
p399
aVembody
p400
aVmath
p401
aVvalue
p402
aVspace scalable
p403
aVinnovation
p404
aVperformance
p405
aVaccountability collaboration
p406
aVempowerment
p407
aVli-vl1
p408
a.