(lp1
Vdata science
p2
aVmanager
p3
aV-
aVadvertising
p4
aVproduct
p5
aVplatform
p6
aVlooking
p7
aVdata science
p8
aVmanager
p9
aVjoin band
p10
aVhelp drive
p11
aVdata-first culture
p12
aVacross
p13
aVadvertising
p14
aVbusiness
p15
aVspotify
p16
aVdata scientist
p17
aVmission turn
p18
aVterabyte data
p19
aVinsight
p20
aVget
p21
aVdeep understanding
p22
aVpeople
p23
aVuse
p24
aVapps impact
p25
aVproduct
p26
aVstrategy direction
p27
aVspotify study
p28
aVuser behavior
p29
aVstrategic initiative
p30
aVcontent
p31
aVnew feature
p32
aVbring
p33
aVdata
p34
aVinsight
p35
aVevery decision
p36
aVmake
p37
aVwork
p38
aVimpact
p39
aVway world
p40
aVexperience
p41
aVmusic
p42
aVdeveloping
p43
aVworld-class
p44
aVadvertising platform
p45
aVsupport
p46
aVfree
p47
aVtier
p48
aVspotify
p49
aVdata scientist
p50
aVarea
p51
aVhelping
p52
aVanswer question
p53
aVinnovate
p54
aVaudio
p55
aVadvertising
p56
aVformat
p57
aVaccurately measure
p58
aVad effectiveness
p59
aVutilize
p60
aVinformation
p61
aVlever
p62
aVuse
p63
aVconvert user
p64
aVfreemium
p65
aVmodel
p66
aVoptimize
p67
aVshow
p68
aVright
p69
aVad
p70
aVright
p71
aVuser
p72
aVright time
p73
aVdata science
p74
aVmanager
p75
aVyoull
p76
aVhands-on
p77
aVleader
p78
aVteam 2-6
p79
aVprofessional
p80
aVproduct
p81
aVinsight
p82
aVteam focussed
p83
aVimproving
p84
aVadvertising platform
p85
aVyoull
p86
aVmanage coach
p87
aVteam 2-6
p88
aVhigh performing
p89
aVdata scientist
p90
aVanalysis
p91
aVlarge
p92
aVset
p93
aVdata
p94
aVextract actionable
p95
aVinsight
p96
aVhelp drive
p97
aVproduct
p98
aVdecision
p99
aVcommunicate data-driven
p100
aVinsight recommendation
p101
aVkey stakeholder
p102
aVpartner
p103
aVlead
p104
aVuser researcher
p105
aVproduct owner
p106
aVdesigner engineer
p107
aVpassionate spotifys
p108
aVsuccess
p109
aVconduct b
p110
aVtest
p111
aVdrive iterative
p112
aVimprovement efficient
p113
aVexperimentation build
p114
aVlasting
p115
aVsolution
p116
aVsurface critical
p117
aVdata
p118
aVperformance metric
p119
aVcontribute development
p120
aVproduct
p121
aVinsight
p122
aVfunction
p123
aVanalytics
p124
aVcommunity spotify
p125
aVwork
p126
aVoffice
p127
aVnew york
p128
aVleast 6+
p129
aVyear experience
p130
aVsimilar
p131
aVdata
p132
aVanalyst
p133
aVdata science
p134
aVrole
p135
aVdegree
p136
aVscience
p137
aVcomputer science
p138
aVstatistic economics
p139
aVmathematics similar
p140
aVquantitative discipline
p141
aVdirect
p142
aVpeople
p143
aVmanagement
p144
aVexperience
p145
aVproven track
p146
aVrecord building
p147
aVleading
p148
aVexpert
p149
aVteam
p150
aVdeep understanding
p151
aVnumber
p152
aVwell
p153
aVstrong
p154
aVbusiness
p155
aVsense
p156
aVdesire coach
p157
aVtrain others
p158
aVideally
p159
aVexperience working
p160
aVanalytics
p161
aVrole
p162
aVwithin
p163
aVadvertising function
p164
aVconducted b
p165
aVtest
p166
aVtechnical competence
p167
aVperform
p168
aVadvanced analytics
p169
aVcoding skill
p170
aVanalytics
p171
aVdata extraction
p172
aVsql r
p173
aVpython panda
p174
aVdata visualization
p175
aVtableau qlik
p176
aVd3 ggplot
p177
aVexperience performing
p178
aVanalysis
p179
aVlarge datasets
p180
aVexperience building
p181
aVstatistical model
p182
aVplus
p183
aVcapable tackling
p184
aVloosely defined
p185
aVproblem
p186
aVcommunicative person
p187
aVvalue
p188
aVbuilding
p189
aVstrong relationship
p190
aVcolleague stakeholder
p191
aVability explain
p192
aVcomplex topic
p193
aVsimple term
p194
aVproud foster
p195
aVworkplace free
p196
aVdiscrimination strongly
p197
aVbelieve diversity
p198
aVexperience
p199
aVperspective background
p200
aVlead
p201
aVbetter
p202
aVenvironment
p203
aVemployee
p204
aVbetter
p205
aVproduct
p206
aVuser creator
p207
aVsomething value
p208
aVdeeply encourage
p209
aVeveryone come
p210
aVpart changing
p211
aVway world
p212
aVlistens music
p213
a.