(lp1
Vjob
p2
aVposition
p3
aVdata scientist
p4
aVlocation
p5
aVnew york
p6
aVmust
p7
aVlocal
p8
aVny nj
p9
aVduration
p10
aVlong term
p11
aVadditional job
p12
aVposting
p13
aVdescription
p14
aVdetail
p15
aVtop five
p16
aV5
aVskill
p17
aV-
aVsix sigma
p18
aVcertified
p19
aV-
aVstrong interpersonal
p20
aVskill
p21
aV-
aVself starter
p22
aV-
aVability
p23
aVprovide consultative
p24
aVdirection
p25
aVorganisation
p26
aV-
aVable gather
p27
aVlarge amount
p28
aVdata
p29
aVprovide
p30
aVvision
p31
aVpotential
p32
aVoutcome
p33
aVdescription
p34
aVoverall purpose
p35
aVdata scientist
p36
aVspends
p37
aVlong
p38
aVhour
p39
aVcollecting
p40
aVanalysing
p41
aVdata
p42
aVspot trend
p43
aVhelp
p44
aVcompany
p45
aVface
p46
aVchallenge
p47
aVevolving
p48
aVcustomer base
p49
aVchanging marketplace
p50
aV-
aVdetailed
p51
aVsummary
p52
aVrole responsibility
p53
aVusing
p54
aVcorporate
p55
aV70
p56
aV30
p57
aVmatch
p58
aV-
aVidentifies
p59
aVunique opportunity
p60
aVcollect
p61
aVnew
p62
aVdata
p63
aV-
aVdesign
p64
aVnew
p65
aVprocess
p66
aVbuild
p67
aVlarge complex
p68
aVdata set
p69
aV-
aVstrategy
p70
aVnew
p71
aVu
aVdata
p72
aVinteraction
p73
aVdata
p74
aVdesign
p75
aV-
aVlocates
p76
aVnew
p77
aVdata source
p78
aVanalysis
p79
aVstatistic
p80
aVimplement
p81
aVquality procedure
p82
aV-
aVperforms
p83
aVdata
p84
aVstudy
p85
aVnew
p86
aVdiverse
p87
aVdata source
p88
aV-
aVfind new
p89
aVu existing
p90
aVdata source
p91
aV-
aVconduct statistical
p92
aVmodelling
p93
aVexperiment design
p94
aV-
aVdiscovers story
p95
aVtold
p96
aVdata
p97
aVpresent
p98
aVscientist
p99
aVbusiness
p100
aVmanager
p101
aV-
aVtest validates
p102
aVpredictive model
p103
aV-
aVbuild
p104
aVweb
p105
aVprototype performs
p106
aVdata visualisation
p107
aV-
aVconduct scalable
p108
aVdata
p109
aVresearch
p110
aVcloud
p111
aV-
aVimplement
p112
aVautomated process
p113
aVefficiently producing
p114
aVscale
p115
aVmodel
p116
aV-
aVdesign
p117
aVmodifies
p118
aVbuild
p119
aVnew
p120
aVdata
p121
aVprocess
p122
aV-
aVgenerates algorithm
p123
aVcreates
p124
aVcomputer
p125
aVmodel
p126
aV-
aVcollaborates
p127
aVdatabase
p128
aVengineer
p129
aVscientist
p130
aV-
aVimplement
p131
aVnew enhanced
p132
aVsoftware
p133
aVdesigned access
p134
aVhandle
p135
aVdata
p136
aVefficiently
p137
aV-
aVtrain
p138
aVdata
p139
aVmanagement
p140
aVteam
p141
aVnew updated
p142
aVprocedure
p143
aVqualification
p144
aVrating
p145
aVmust
p146
aVbig data
p147
aVability bridge
p148
aVgap
p149
aVdata science
p150
aVbusiness
p151
aVmanagement
p152
aV3 yr
p153
aVadvanced
p154
aVprediction model
p155
aV3 yr
p156
aVcode writing
p157
aVability
p158
aV3 yr
p159
aVcombination
p160
aVcreative
p161
aVability
p162
aVbusiness
p163
aVknowledge
p164
aVcritical thinking
p165
aVskill ability
p166
aVrelate
p167
aVproduct
p168
aV-
aVservice
p169
aV3 yr
p170
aVdata mining
p171
aVspan range
p172
aVdiscipline
p173
aV3 yr
p174
aVexploratory analysis
p175
aVskill
p176
aV3 yr
p177
aVknowledge
p178
aVstatistic
p179
aVprogramming
p180
aVpredictive modelling
p181
aV3 yr
p182
aVmastery statistic
p183
aVmachine learning
p184
aValgorithm
p185
aVadvanced mathematics
p186
aV3 yr
p187
aVnatural language
p188
aVprocessing
p189
aV3 yr
p190
aVstudy
p191
aVrelated
p192
aVdata science
p193
aV-
aVdata mining
p194
aVyes
p195
aVsuperior
p196
aVtechnical
p197
aVcoding
p198
aVability
p199
aV3 yr
p200
aVthink
p201
aVresearch
p202
aVcreatively
p203
aV3 yr
p204
aVunderstanding
p205
aVability
p206
aVuse
p207
aVprogramming
p208
aV-
aVpython sql
p209
aV3 yr
p210
aVprofessional
p211
aVorganisational
p212
aVskill
p213
aVshare
p214
aVupdated resume
p215
aVethan
p216
aVbelltechit.com
p217
aVreport
p218
a.