(lp1
Vpronoun
p2
aVdigital
p3
aVbook publishing
p4
aVplatform
p5
aVowned
p6
aVmacmillan
p7
aVpublisher
p8
aVpronoun's
p9
aVmission build
p10
aVnew
p11
aVmodel
p12
aVindependent
p13
aVpublishing
p14
aVput
p15
aVauthor
p16
aVfirst
p17
aVbringing
p18
aVsmarter
p19
aVtechnology
p20
aVdata
p21
aVtraditional
p22
aVprestige
p23
aVpublishing
p24
aVmacmillan
p25
aVgroup
p26
aVmedium
p27
aVcompany
p28
aVunited state
p29
aVheld
p30
aVverlagsgruppe
p31
aVgeorg
p32
aVvon
p33
aVholtzbrinck
p34
aVbased
p35
aVstuttgart
p36
aVgermany
p37
aVpublishes
p38
aVwide range
p39
aVbook
p40
aVmagazine
p41
aVdigital
p42
aVproduct
p43
aVconsumer
p44
aVeducation
p45
aVmarket
p46
aVamerican
p47
aVpublisher
p48
aVinclude
p49
aVfarrar straus
p50
aVgiroux
p51
aVhenry holt
p52
aVcompany
p53
aVw.h.
p54
aVfreeman worth
p55
aVpublisher
p56
aVbedford
p57
aVst martin's
p58
aVpicador
p59
aVroaring
p60
aVbrook
p61
aVpress
p62
aVst martin's
p63
aVpress
p64
aVtor
p65
aVbook
p66
aVhayden
p67
aVmcneil
p68
aVmacmillan
p69
aVchildren's
p70
aVgroup
p71
aVmacmillan
p72
aVaudio
p73
aVbedford
p74
aVfreeman worth
p75
aVpublishing
p76
aVgroup equal
p77
aVopportunity employer
p78
aVcommitted
p79
aVreflecting
p80
aVbroad
p81
aVrepresentation
p82
aVdifference
p83
aVrace ethnicity
p84
aVreligion sex
p85
aVsexual orientation
p86
aVgender identity
p87
aVexpression
p88
aVphysical
p89
aVability
p90
aVage
p91
aVfamily
p92
aVstatus
p93
aVeconomic
p94
aVbackground
p95
aVstatus
p96
aVgeographical
p97
aVbackground
p98
aVstatus
p99
aVperspective
p100
aVworkplace.requirementsour
p101
aVmission build
p102
aVnew
p103
aVmodel
p104
aVbook publishing
p105
aVput
p106
aVauthor
p107
aVfirst
p108
aVwe're creating
p109
aVtool
p110
aVtechnology
p111
aVinformation
p112
aVauthor
p113
aVpublisher
p114
aVneed
p115
aVcon
p116
aVcontinually
p117
aVhelp
p118
aVreader
p119
aVdiscover purchase
p120
aVbook
p121
aVonline
p122
aVpart
p123
aVmacmillan
p124
aVwe're
p125
aVbringing
p126
aVadvanced
p127
aVdecision support
p128
aVtraditional
p129
aVbook publishing
p130
aVoperate
p131
aVstartup
p132
aVresource
p133
aVaccess
p134
aVlarger
p135
aVcompany
p136
aVmassive data
p137
aVone biggest
p138
aVtechnical
p139
aVdifferentiation's
p140
aVunique
p141
aVdata set
p142
aVmassive scale
p143
aVpast
p144
aVfive year
p145
aVcollecting
p146
aVmillion
p147
aVstructured unstructured
p148
aVdata
p149
aVpoint
p150
aVday
p151
aV7
aVmillion
p152
aVbook
p153
aVgrowing
p154
aVlooking experienced
p155
aVleader
p156
aVhelp u
p157
aVmine
p158
aVtransform
p159
aVdata
p160
aVcompetitive advantage
p161
aVauthor
p162
aVhands-on experience
p163
aVwrangling
p164
aVdata
p165
aVscale
p166
aVacross variety
p167
aVaws
p168
aVstore
p169
aVmust
p170
aVseasoned
p171
aVdata scientist
p172
aVproduct
p173
aVexperience
p174
aVbroad
p175
aVtoolset
p176
aVdata mining
p177
aVstatistical
p178
aVmachine learning
p179
aVoptionally
p180
aVnatural language
p181
aVprocessing
p182
aVstrong
p183
aVproblem solver
p184
aVwork effectively
p185
aVothers
p186
aVunderstand
p187
aVproblem
p188
aValso
p189
aVself-motivated
p190
aVresearch
p191
aVtechnique
p192
aVtechnology
p193
aVneeded
p194
aVwork closely
p195
aVproduct management
p196
aVengineering
p197
aVlead
p198
aVdefinition
p199
aVtesting validation
p200
aVhypothesis
p201
aVgiven
p202
aVbusiness objective
p203
aValso responsible
p204
aVcommunicating result
p205
aVassisting integrating
p206
aVdeveloped
p207
aVsolution
p208
aVproduct
p209
aVachieve
p210
aVmust demonstrate
p211
aVtheoretical practical
p212
aVunderstanding various
p213
aValgorithm
p214
aVtechnique including
p215
aV1
aVfeature
p216
aVgeneration selection
p217
aVtechnique
p218
aV2
aVmachine learning
p219
aValgorithm
p220
aVsupervised unsupervised
p221
aVsemi-supervised
p222
aVprobabilistic model
p223
aV3
aVfundamental
p224
aVlinear nonlinear
p225
aVoptimization
p226
aVregularization technique
p227
aV4
aVmodel selection
p228
aVvalidation
p229
aVtechnique
p230
aVcross
p231
aVk-fold
p232
aVvalidation
p233
aVbayesian
p234
aVoptimization
p235
aV5
aVhigh dimensional
p236
aVdata visualization
p237
aVtechnique
p238
aVplatform
p239
aV6
aVdata extraction
p240
aVnormalization disparate
p241
aVsource
p242
aVsql db
p243
aVapis
p244
aV7
aVsoftware engineering
p245
aVpractice
p246
aVdesign principle
p247
aV8
aVexperimental
p248
aVmethod
p249
aVincluding
p250
aVab testing
p251
aVable communicate
p252
aVcomplicated
p253
aVtechnical concept
p254
aVeffectively
p255
aVclearly
p256
aVmanager engineer
p257
aVincorporate feedback
p258
aVguidance
p259
aVpriority
p260
aVdirection
p261
aVhelp
p262
aVorganization
p263
aVmake
p264
aVsmart
p265
aVdecision
p266
aVselecting
p267
aVrealistic
p268
aVvaluable
p269
aVbusiness objective
p270
aVtechnical
p271
aVskill
p272
aVbackground
p273
aV1
aVmachine learning
p274
aVplatform
p275
aVframework
p276
aVscipy
p277
aVscikit
p278
aVmlib
p279
aVtorch tensorflow
p280
aV2
aVbig data
p281
aVtool hadoop
p282
aVspark
p283
aV3
aVvisualization
p284
aVd3
p285
aVggplot2
p286
aVtableau
p287
aV4
aVprogramming language
p288
aVe.g. python
p289
aVjava
p290
aVlua
p291
aVr
aV5
aVsql
p292
aVaws ecosystem
p293
aV6
aVworking
p294
aVunderstanding
p295
aVlinux bash
p296
aVcommand scripting
p297
aV7
aVplus
p298
aVnatural language
p299
aVprocessing
p300
aVword2vec
p301
aVstanford nlp
p302
aVopennlp
p303
aVgate
p304
aVspacy
p305
aVeducational background
p306
aVbachelor's degree
p307
aVquantitative field
p308
aVe.g. economics
p309
aVeconometrics statistic
p310
aVfinance
p311
aVscience
p312
aVrequired
p313
aVadvanced degree
p314
aVplus
p315
aVapply on-linesend
p316
aVjob friend
p317
aVu
aVcareer
p318
aVcontact
p319
aVsite
p320
aVmap
p321
aVterm use
p322
aVprivacy
p323
aVnotice
p324
aVvisit
p325
aVpublisher's
p326
aVwebsite
p327
aVadult
p328
aVtrade
p329
aV-
aV-
aV-
aV-
aV-
aV-
aV-
aV-
aV-
aV-
aVfarrar straus
p330
aVgiroux
p331
aVfirst second
p332
aVbook
p333
aVhenry holt
p334
aVmacmillan
p335
aVaudio
p336
aVpicador
p337
aVst martin's
p338
aVpress
p339
aVtor
p340
aVforge
p341
aVchildren's
p342
aV-
aV-
aV-
aV-
aV-
aV-
aV-
aV-
aV-
aV-
aVfeiwel
p343
aVfriend
p344
aVfarrar straus
p345
aVgiroux
p346
aVbook
p347
aVyoung
p348
aVreader
p349
aVhenry holt
p350
aVbook
p351
aVyoung
p352
aVreader
p353
aVpriddy
p354
aVbook
p355
aVsquare
p356
aVfish
p357
aVbook
p358
aVtor
p359
aVstarscape
p360
aVcollege
p361
aVacademic
p362
aV-
aV-
aV-
aV-
aV-
aV-
aV-
aV-
aV-
aV-
aVbedford
p363
aVst martin's
p364
aVpalgrave
p365
aVmacmillan
p366
aVw.h.
p367
aVfreeman worth
p368
aVpublisher
p369
aVmagazine
p370
aVjournal
p371
aV-
aV-
aV-
aV-
aV-
aV-
aV-
aV-
aV-
aV-
aVnature
p372
aVscientific
p373
aVamerican
p374
aVmacmillan
p375
aV2007
p376
a.