(lp1
Vmemorial sloan
p2
aVkettering msk
p3
aVchanging way
p4
aVtreat cancer
p5
aValso
p6
aVway world
p7
aVthink
p8
aVworking together
p9
aVpushing forward
p10
aVinnovation
p11
aVdiscovery driving
p12
aVexcellence
p13
aVimproving outcome
p14
aV27th
p15
aVyear msk
p16
aVnamed top
p17
aVhospital cancer
p18
aVu.s. news
p19
aVworld
p20
aVreport
p21
aVproud
p22
aVbeckers
p23
aVhealthcare
p24
aVlist
p25
aVone
p26
aV150
p27
aVgreat place
p28
aVwork
p29
aVhealthcare
p30
aV2016
p31
aVwell
p32
aVglassdoors
p33
aVannual
p34
aVemployee
p35
aVchoice award
p36
aV2017
p37
aVtreating cancer
p38
aVone
p39
aVpatient
p40
aVtime
p41
aVjoin u
p42
aVmake difference
p43
aVevery day
p44
aVusing
p45
aVcomplex real-world
p46
aVstructured
p47
aVtext image
p48
aVdata
p49
aVmemorial sloan
p50
aVkettering msk
p51
aVcollected
p52
aVpast
p53
aV20+ year
p54
aVresearch
p55
aVdata scientist
p56
aVwork closely
p57
aVsoftware engineer
p58
aVapplied
p59
aVdata scientist
p60
aVdevelop implement
p61
aVadvanced
p62
aVmachine learning
p63
aVmethod
p64
aVpower
p65
aVmsks
p66
aVeffort
p67
aVbuild world-class
p68
aVanalytics
p69
aVplatform
p70
aVhealthcare
p71
aVdata
p72
aVpatient outcome
p73
aVcancer treatment
p74
aVright candidate
p75
aVtrack record
p76
aVdeveloping new
p77
aVmachine learning
p78
aVmethod
p79
aVapplying
p80
aVcomplex problem
p81
aVend
p82
aVresearch
p83
aVdata scientist
p84
aVactively contribute
p85
aVresearch
p86
aVcommunity
p87
aVcollaboration
p88
aVacademic
p89
aVpartner
p90
aVpublishing
p91
aVpeer-reviewed journal
p92
aVattending
p93
aVtop-tier
p94
aVmachine learning
p95
aVconference
p96
aVworking
p97
aVinternal
p98
aVteam
p99
aVuse
p100
aVmachine learning
p101
aVmsk
p102
aVmemorial sloan
p103
aVkettering
p104
aVchanging way
p105
aVtreat cancer
p106
aValso
p107
aVway world
p108
aVthink
p109
aVworking together
p110
aVpushing forward
p111
aVinnovation
p112
aVdiscovery driving
p113
aVexcellence
p114
aVimproving outcome
p115
aV26th
p116
aVyear msk
p117
aVnamed top
p118
aVhospital cancer
p119
aVu.s. news
p120
aVworld
p121
aVreport
p122
aVtreating cancer
p123
aVone
p124
aVpatient
p125
aVtime
p126
aVjoin u
p127
aVmake difference
p128
aVevery day
p129
aVexperienced
p130
aVmachine learning
p131
aVpractitioner
p132
aVproven track
p133
aVrecord
p134
aVdeveloping applying
p135
aVadvanced
p136
aVcomputational
p137
aVtechnique solve
p138
aVcomplex problem
p139
aVable
p140
aVdesign
p141
aVexecute
p142
aVlonger-term
p143
aVresearch agenda
p144
aVwell
p145
aVreach
p146
aVintermediate
p147
aVgoal
p148
aVcapable
p149
aVconsulting
p150
aVcollaborating
p151
aVproject involving
p152
aVinterdisciplinary team
p153
aVmember
p154
aVneed
p155
aVphd computer
p156
aVscience related
p157
aVfield
p158
aVleast 3
p159
aVyear
p160
aVpost graduate
p161
aVexperience
p162
aVdeep knowledge
p163
aVadvanced
p164
aVmachine learning
p165
aVmethodology
p166
aVdeep learning
p167
aVgraphical model
p168
aVnatural language
p169
aVprocessing
p170
aVunderstanding
p171
aVprogramming
p172
aVexperience
p173
aVpython c++
p174
aVexperience
p175
aVsql nosql
p176
aVdatabase
p177
aVpublication top-tier
p178
aVmachine learning
p179
aVjournal conference
p180
aVnice
p181
aVexperience
p182
aVtensorflow
p183
aVexperience working
p184
aVhealthcare
p185
aVdata
p186
aVbasic understanding
p187
aVmedical
p188
aVconcept
p189
aVli-sk2
p190
aVmsk equal
p191
aVopportunity affirmative
p192
aVaction employer
p193
aVcommitted diversity
p194
aVinclusion aspect
p195
aVrecruiting
p196
aVemployment qualified
p197
aVindividual
p198
aVencouraged apply
p199
aVreceive consideration
p200
aVwithout regard
p201
aVrace color
p202
aVgender gender
p203
aVidentity expression
p204
aVsexual orientation
p205
aVnational origin
p206
aVage religion
p207
aVcreed
p208
aVdisability veteran
p209
aVstatus factor
p210
aVcannot lawfully
p211
aVused
p212
aVbasis
p213
aVemployment decision
p214
aVfederal law
p215
aVrequires
p216
aVemployer
p217
aVprovide
p218
aVreasonable accommodation
p219
aVqualified individual
p220
aVdisability
p221
aVplease
p222
aVtell u
p223
aVrequire reasonable
p224
aVaccommodation apply
p225
aVjob perform
p226
aVjob
p227
aVexample reasonable
p228
aVaccommodation
p229
aVinclude
p230
aVmaking
p231
aVchange
p232
aVapplication
p233
aVprocess
p234
aVwork
p235
aVprocedure
p236
aVproviding
p237
aVdocument alternate
p238
aVformat
p239
aVusing sign
p240
aVlanguage interpreter
p241
aVusing
p242
aVspecialized equipment
p243
a.