(lp1
Vmanage
p2
aVteam
p3
aVact central
p4
aVresource
p5
aVdriving force
p6
aVdesign
p7
aVprocess manufacturing
p8
aVtest
p9
aVquality
p10
aVmarketing
p11
aVproduct
p12
aVmove conception
p13
aVdistribution organize
p14
aVinterdepartmental activity
p15
aVensuring completion
p16
aVproject
p17
aVproduct
p18
aVschedule
p19
aVwithin budget
p20
aVsenior director
p21
aVproduct development
p22
aVdivision
p23
aVlead
p24
aVteam
p25
aVdefines
p26
aVproduct
p27
aVspecification
p28
aVstrategy
p29
aVgather analyze
p30
aVinformation
p31
aVdefine
p32
aVproduct
p33
aVspecification
p34
aVreview
p35
aVdesign specification
p36
aVenvision
p37
aVcommunicate
p38
aVproduct
p39
aVstrategy
p40
aVfunctionality
p41
aVinitiate
p42
aVfoster relationship
p43
aVgroup
p44
aVreview
p45
aVproduct
p46
aVdocumentation
p47
aVcollateral
p48
aVensure successful
p49
aVproduct release
p50
aVbased
p51
aVcorporate
p52
aVpriority
p53
aVdirects
p54
aVensures
p55
aVimplementation
p56
aVoperational
p57
aVpolicy
p58
aVsubordinate
p59
aVmanager
p60
aVinteracts
p61
aVinternally externally
p62
aVexecutive management
p63
aVproviding
p64
aVnegotiation
p65
aVdifficult
p66
aVmatter
p67
aVinfluence policy
p68
aVfunctional
p69
aVexpertise
p70
aVbroad
p71
aVcompany
p72
aVknowledge
p73
aVimportant
p74
aVdemonstrated
p75
aVleadership
p76
aVpeople
p77
aVmanagement
p78
aVskill
p79
aVstrong communication
p80
aVskill
p81
aVanalytical skill
p82
aVthorough understanding
p83
aVproduct development
p84
aVproduct management
p85
aVb m
p86
aVdegree equivalent
p87
aVexperience
p88
aVrelevant functional
p89
aVarea
p90
aV8 year
p91
aVsoftware engineering
p92
aVrelated
p93
aVexperience
p94
aVpreferred
p95
aVoracle equal
p96
aVemployment opportunity
p97
aVemployer qualified
p98
aVapplicant receive
p99
aVconsideration employment
p100
aVwithout regard
p101
aVrace color
p102
aVreligion sex
p103
aVnational origin
p104
aVsexual orientation
p105
aVgender identity
p106
aVdisability protected
p107
aVveteran status
p108
aVcharacteristic protected
p109
aVlaw
p110
aVprofessional
p111
aVarea
p112
aVproduct development
p113
aVamount
p114
aVtravel 25
p115
aVjob title
p116
aVdirector
p117
aVproduct management
p118
aVfinancial crime
p119
aVcompliance
p120
aVorganization
p121
aVname
p122
aVoracle
p123
aVfsgbu
p124
aVoracle
p125
aVfinancial service
p126
aVanalytical
p127
aVapplication
p128
aVdepartment
p129
aVdescription
p130
aVoracle's
p131
aVfinancial service
p132
aVanalytical
p133
aVapplication
p134
aVgroup
p135
aVresponsible
p136
aVdevelopment
p137
aVmarketing
p138
aVfinancial industry
p139
aVspecific
p140
aVmarketing
p141
aVprofitability
p142
aVrisk management
p143
aVfraud
p144
aVregulatory compliance
p145
aVanalytics
p146
aVapplication
p147
aVsoftware
p148
aV70
p149
aVglobal
p150
aVsystemically
p151
aVimportant
p152
aVfinancial institution
p153
aVgsifs
p154
aVmarket
p155
aVleading
p156
aVfinancial crime
p157
aVcompliance
p158
aVsoftware
p159
aVsuite
p160
aVused
p161
aVone
p162
aVhundred
p163
aVleading
p164
aVfinancial institution
p165
aVglobally
p166
aVunderpins
p167
aVanti-money laundering
p168
aVoperational risk
p169
aVenterprise
p170
aVfraud
p171
aVsystem
p172
aVlargest
p173
aVfinancial institution
p174
aVworld
p175
aVsoftware
p176
aVpowered
p177
aVadvanced analytics
p178
aVr
aVapache spark
p179
aVoracle exadata
p180
aVgroup
p181
aVemploy
p182
aVdata scientist
p183
aVfinancial
p184
aVengineer
p185
aVsoftware developer
p186
aVproduct manager
p187
aVfocused
p188
aVexclusively
p189
aVdeveloping
p190
aVadvanced analytical
p191
aVapplication
p192
aVfinancial service
p193
aVindustry
p194
aVlooking individual
p195
aVbroad
p196
aVdomain expertise
p197
aVextensive experience
p198
aVfinancial crime
p199
aVcompliance
p200
aVanalytics
p201
aVlead
p202
aVteam
p203
aVproduct manager
p204
aVresponsible
p205
aVbroad
p206
aVproduct portfolio
p207
aVcovering
p208
aVcompliance
p209
aVcase
p210
aVmanagement
p211
aVadvanced analytics
p212
aVwish
p213
aVtransform industry
p214
aVbusiness
p215
aVleveraging newest
p216
aVtechnology
p217
aVlatest
p218
aVadvance
p219
aVdata science
p220
aVbrightest mind
p221
aVjoin u
p222
aVhelp
p223
aVrealize vision
p224
aVbrief
p225
aVposting
p226
aVdescription
p227
aVworld-class
p228
aVteam
p229
aVproduct manager
p230
aVresponsible entire
p231
aVproduct
p232
aVlife cycle
p233
aVproduct
p234
aVpower
p235
aVfinancial crime
p236
aVcompliance
p237
aVfccm
p238
aVapplication
p239
aVlead
p240
aVteam
p241
aVproduct manager
p242
aVpart
p243
aVleadership
p244
aVteam
p245
aVset
p246
aVdirection
p247
aVoracle's
p248
aVfinancial service
p249
aVanalytics
p250
aVgroup
p251
aVexpected
p252
aVwork
p253
aVclose collaboration
p254
aVdata science
p255
aVengineering
p256
aVmarketing sale
p257
aVpre-sales
p258
aVleadership
p259
aVdevelopment implementation
p260
aVproduct
p261
aVstrategy roadmap
p262
aVaml compliance
p263
aVapplication
p264
aVopportunity
p265
aVimpactful
p266
aVmeaningful way
p267
aVtowards building
p268
aVnext generation
p269
aVplatform
p270
aVfccm
p271
aVproduct
p272
aVsuite
p273
aVdetailed description
p274
aVrole requires
p275
aVbroad knowledge
p276
aVcurrent state
p277
aVcustomer expectation
p278
aVmarket
p279
aVcompetition
p280
aVfinancial crime
p281
aVcompliance
p282
aVprior experience
p283
aVsenior leadership
p284
aVrole
p285
aVproduct manager
p286
aVwithin
p287
aVleading
p288
aVsoftware
p289
aVvendor consultant
p290
aVindustry
p291
aVcompliance
p292
aVdepartment
p293
aVleader
p294
aVglobal bank
p295
aVrequired
p296
aVknowledge
p297
aVtrend
p298
aVmarket
p299
aVawareness
p300
aVcurrent
p301
aVpain point
p302
aVindustry
p303
aVessential
p304
aVsuccess
p305
aVrole
p306
aVprior experience
p307
aVbuilding
p308
aVsoftware
p309
aVproduct
p310
aVaml
p311
aVfraud
p312
aVcyber
p313
aVcrime
p314
aVapplication
p315
aVexperience managing
p316
aVglobally
p317
aVdisperse
p318
aVteam
p319
aVproduct manager
p320
aVwell
p321
aVexperience
p322
aVengaging senior
p323
aVmanagement
p324
aVstakeholder
p325
aVcustomer
p326
aValso
p327
aVrequired
p328
aVperson role
p329
aVresponsible building
p330
aVmanaging lifecycle
p331
aVvarious
p332
aVproduct
p333
aVused
p334
aVcompliance
p335
aVapplication
p336
aVmentor
p337
aVproduct manager
p338
aVwork closely
p339
aVdevelopment
p340
aVmanager
p341
aVsoftware engineer
p342
aVdata scientist
p343
aVdeveloping
p344
aVrequirement
p345
aVspecification
p346
aVsoftware
p347
aVjob requirement
p348
aVbroad
p349
aVbusiness
p350
aVdomain expertise
p351
aVfinancial crime
p352
aVspecifically
p353
aVarea
p354
aVaml
p355
aVfraud
p356
aVfatca
p357
aVkyc
p358
aVcdd
p359
aVedd
p360
aVcase
p361
aVmanagement
p362
aVoperational risk
p363
aVadvanced analytics
p364
aVstrong
p365
aVleadership skill
p366
aVproven
p367
aVexperience managing
p368
aVsizeable
p369
aVteam
p370
aVdisperse
p371
aVintimate knowledge
p372
aVproduct
p373
aVlife cycle
p374
aVinception
p375
aVdesign
p376
aVconstruction
p377
aVrelease management
p378
aVmaturity
p379
aVexperience
p380
aVcustomer facing
p381
aVrole
p382
aVengaging senior
p383
aVleadership
p384
aVcustomer prospect
p385
aVqualification
p386
aV10 year
p387
aVexperience
p388
aVproduct management
p389
aVrelated
p390
aVrole
p391
aVfinancial crime
p392
aVmba
p393
aVengineering
p394
aVdegree relevant
p395
aVfinancial crime
p396
aVcompliance
p397
aVindustry
p398
aVexperience
p399
aVexcellent written
p400
aVoral communication
p401
aVskill
p402
a.