(lp1
Vtrivia
p2
aVwriter
p3
aVresearch
p4
aVresident
p5
aVbuzzfeed looking
p6
aVwriter
p7
aVsubstantial
p8
aVbackground
p9
aVresearch
p10
aVproduce
p11
aVtrivia-oriented
p12
aVpost
p13
aVrole would
p14
aVinvolve
p15
aVtaking
p16
aVassignment
p17
aVbuild
p18
aVpost
p19
aVparticular
p20
aVsubject area
p21
aVhistory
p22
aVscience
p23
aVreligion
p24
aVsport
p25
aVpop culture
p26
aVwould also
p27
aVallow
p28
aVwriter
p29
aVpitch
p30
aVidea
p31
aVpursue
p32
aVspecific
p33
aVpersonal
p34
aVinterest
p35
aVideal candidate
p36
aVwould
p37
aVunquenchable
p38
aVthirst
p39
aVknowledge
p40
aVexcellent
p41
aVresearch
p42
aVskill
p43
aVplus
p44
aVstrong interest
p45
aVentertaining
p46
aVaudience
p47
aVresponsibility
p48
aVresearch
p49
aVproduce
p50
aVfact
p51
aVpost
p52
aVtrivia
p53
aVquiz
p54
aVwide range
p55
aVtopic
p56
aVassist
p57
aVwriter
p58
aVsuggesting
p59
aVefficient
p60
aVresearch
p61
aVmethod
p62
aVrequirement
p63
aVextensive experience
p64
aVresearch
p65
aVlibrary
p66
aVscience
p67
aVgood sense
p68
aVmake
p69
aVinteresting challenging
p70
aVfun
p71
aVtrivia
p72
aVquiz
p73
aVwide range
p74
aVinterest
p75
aVability adapt
p76
aVwriting style
p77
aVdifferent audience
p78
aVpositive curious
p79
aVplayful disposition
p80
aVinterested candidate
p81
aVinclude following
p82
aVapplying
p83
aVshort paragraph
p84
aVexplaining you'd
p85
aVgood fit
p86
aVparticular position
p87
aVplease
p88
aVshare
p89
aVbackground
p90
aVresearch
p91
aVinterest
p92
aVtrivia
p93
aVresume
p94
aVlink
p95
aVpublished
p96
aVwork
p97
aVlink social
p98
aVmedium
p99
aVaccount
p100
aVtwitter
p101
aVtumblr
p102
aVpinterest
p103
aVpersonal
p104
aVblog
p105
aVbuzzfeed
p106
aVbuzzfeed leading
p107
aVindependent digital
p108
aVmedium tech
p109
aVcompany delivering
p110
aVnews entertainment
p111
aVcontent global
p112
aVaudience office
p113
aV19 city
p114
aVaround world
p115
aV1500 employee
p116
aVincluding reporter
p117
aVvideo producer
p118
aVdata scientist
p119
aVengineer brand
p120
aVstrategist fuse
p121
aVhard work
p122
aVfun culture
p123
aVexperimentation teamwork
p124
aVequality humble
p125
aVconfidence employee
p126
aVyou'll enjoy
p127
aVperk like
p128
aVoffice event
p129
aVsnack career
p130
aVdevelopment course
p131
aVwork birthday
p132
aVimportantly you'll
p133
aVwork
p134
aVinspiring colleague
p135
aVbuild tool
p136
aVcreate content
p137
aVhelp connect
p138
aVpeople world
p139
a.