(lp1
Vrole
p2
aVlove
p3
aVcrafting
p4
aVstory
p5
aVdata
p6
aVpro
p7
aVbuilding
p8
aVrelationship
p9
aVreporter
p10
aVthrive fast-paced
p11
aVmulti-tasking
p12
aVenvironment
p13
aVsprinkle
p14
aVinterest
p15
aVlearning
p16
aVeverything
p17
aVmake
p18
aVnyc
p19
aVreal estate
p20
aVmarket
p21
aVtick
p22
aVjob
p23
aVmight
p24
aVstreeteasy
p25
aVnew york
p26
aVleading
p27
aVreal estate
p28
aVmarketplace
p29
aVpart zillow
p30
aVgroup family
p31
aVexpanding
p32
aVpr
p33
aVteam
p34
aVlooking
p35
aVdetailed-oriented
p36
aVmotivated
p37
aVpr
p38
aVmanager
p39
aVjoin
p40
aVmanhattan
p41
aVoffice
p42
aVunique
p43
aVcareer-building
p44
aVopportunity
p45
aVpr
p46
aVpro
p47
aVgain valuable
p48
aVfirsthand
p49
aVexperience
p50
aVcompany
p51
aVvalue
p52
aVpr
p53
aVkey
p54
aVmarketing strategy
p55
aVposition
p56
aVlead
p57
aVmedium
p58
aVrelation
p59
aVeffort
p60
aVbuilding
p61
aVprofile
p62
aVspokespeople
p63
aVworking directly
p64
aVstreeteasys
p65
aVeconomist
p66
aVdata scientist
p67
aVcontent
p68
aVsocial
p69
aVteam
p70
aVcurate
p71
aVnews-worthy
p72
aVstory
p73
aVnew york
p74
aVcity
p75
aVreal estate
p76
aVtrend
p77
aVpart small
p78
aVteam
p79
aVposition
p80
aValso
p81
aVget
p82
aVexposure
p83
aVvarious
p84
aVpart
p85
aVbusiness
p86
aVtype
p87
aVpr
p88
aVprogram
p89
aVb2b
p90
aVcommunication
p91
aVgovernment relation
p92
aVproduct
p93
aVpr
p94
aVinternal
p95
aVcommunication
p96
aVcreative thinker
p97
aVkeen
p98
aVcommunicator
p99
aVright candidate
p100
aVready
p101
aVhit ground
p102
aVrunning
p103
aVmake
p104
aVnoticeable
p105
aVimpact
p106
aVteam
p107
aVbrand
p108
aVquickly
p109
aVcultivate
p110
aVrelationship
p111
aVlocal
p112
aVnyc
p113
aVnational
p114
aVreporter
p115
aVreal estate
p116
aVtech
p117
aVbusiness
p118
aVlifestyle
p119
aVoutlet
p120
aVmanage
p121
aVbuild
p122
aVspokesperson
p123
aVprofile
p124
aVcompany announcement
p125
aVreporter
p126
aVrelationship
p127
aVpublic
p128
aVappearance
p129
aVassist development
p130
aVexecution
p131
aVstreeteasys
p132
aVconsumer
p133
aVpr
p134
aVstrategy
p135
aVincludes
p136
aVbrainstorming
p137
aVtimely
p138
aVstory
p139
aVidea
p140
aVcrafting
p141
aVtalking
p142
aVpoint
p143
aVdrafting
p144
aVpress
p145
aVmaterial
p146
aVpress release
p147
aVpitch
p148
aVblog post
p149
aVq
aVsocial medium
p150
aVmessage
p151
aVprepping
p152
aVspokespeople
p153
aVsecuring
p154
aVinterview
p155
aVright
p156
aVmedium
p157
aVoutlet
p158
aVmonitor
p159
aVidentify
p160
aVnews trend
p161
aVmay
p162
aVimpact
p163
aVstreeteasy
p164
aVindustry competitor
p165
aVhelp
p166
aVmanage
p167
aVinbound
p168
aVpress
p169
aVrequest
p170
aVmaintain
p171
aVmedium
p172
aVcontact
p173
aVdatabase
p174
aVcompany
p175
aVresource
p176
aVpress
p177
aVpage
p178
aVfact
p179
aVsheet
p180
aVetc
p181
aVteam
p182
aVstreeteasy
p183
aVnew york
p184
aVcity's
p185
aVleading
p186
aVreal estate
p187
aVmarketplace
p188
aVprovide
p189
aVbuyer seller
p190
aVrenter
p191
aVaccess
p192
aVcomprehensive
p193
aVsale
p194
aVrental
p195
aVlisting
p196
aVinformation
p197
aVbuilding
p198
aVneighborhood
p199
aVcant
p200
aVfound
p201
aVanywhere else
p202
aVteam constantly
p203
aVinnovating
p204
aVdevelop
p205
aVunique
p206
aVtechnology-driven solution
p207
aVhelp
p208
aVconsumer
p209
aVreal estate
p210
aVprofessional
p211
aVconnect
p212
aVnavigate complex
p213
aVnyc
p214
aVreal estate
p215
aVmarket
p216
aV5-8 year
p217
aVpost-college
p218
aVexperience
p219
aVwithin
p220
aVpr
p221
aVagency
p222
aVlarge
p223
aVpr
p224
aVdepartment
p225
aVnotable
p226
aVconsumer brand
p227
aVinternet company
p228
aV4-year
p229
aVcollege degree
p230
aVjournalism
p231
aVcommunication
p232
aVrelated field
p233
aVproven track
p234
aVrecord
p235
aVrepresenting brand
p236
aVdeveloping
p237
aVtimely
p238
aVpr
p239
aVstrategy
p240
aVsecuring
p241
aVrelevant
p242
aVmedium coverage
p243
aVhigh level
p244
aVorganization
p245
aVextreme
p246
aVattention detail
p247
aVstrong writing
p248
aVskill
p249
aVabsolute must
p250
aVexperience managing
p251
aVmultiple project
p252
aVsimultaneously
p253
aVexperience
p254
aVcollaborating
p255
aVcommunicating
p256
aVacross multiple
p257
aVteam
p258
aVcapability
p259
aVwork
p260
aVcalmly
p261
aVquickly
p262
aVdeadline pressure
p263
aVproficiency
p264
aVcision
p265
aVpreferred
p266
aVfamiliarity
p267
aVexcel
p268
aVformula
p269
aVplus
p270
aVget know
p271
aVu
aVzillow group
p272
aVequal opportunity
p273
aVemployer committed
p274
aVfostering
p275
aVinclusive
p276
aVinnovative
p277
aVenvironment
p278
aVbest
p279
aVemployee
p280
aVtherefore
p281
aVprovide
p282
aVemployment opportunity
p283
aVwithout regard
p284
aVage race
p285
aVethnicity
p286
aVnational origin
p287
aVreligion disability
p288
aVsex gender
p289
aVidentity sexual
p290
aVorientation
p291
aVprotected status
p292
aVaccordance applicable
p293
aVlaw
p294
aVli-post
p295
a.