(lp1
Vjob description
p2
aVjp morgan
p3
aVintelligent
p4
aVsolution
p5
aVjpmis
p6
aVnew
p7
aVgroup considering
p8
aVway transform
p9
aVleverage
p10
aVjpm
p11
aVproprietary
p12
aVdata
p13
aVasset
p14
aVopportunity
p15
aVjpm
p16
aVprotecting managing
p17
aVintellectual property
p18
aVeffectively
p19
aVwell
p20
aVutilizing
p21
aVdevelop
p22
aVsolution
p23
aVcustomized scalable
p24
aVenable
p25
aVjpm
p26
aVcreate
p27
aVadditional
p28
aVshareholder value
p29
aVdevelopment delivery
p30
aVmanager responsible
p31
aVsupporting
p32
aVteam
p33
aVdeveloping delivering
p34
aVclient
p35
aVsolution
p36
aVrole mix
p37
aVconsulting
p38
aVproblem solving
p39
aVclient
p40
aVinteraction
p41
aVproject management
p42
aVleading
p43
aVdevelopment
p44
aVrollout
p45
aVdata
p46
aVanalytics
p47
aVdriven
p48
aVproduct
p49
aVoccasionally
p50
aVdata
p51
aVanalysis
p52
aVsuccessful candidate
p53
aVable
p54
aVhelp
p55
aVdesign
p56
aVsolution meet
p57
aVspecific
p58
aVclient
p59
aVneed
p60
aVestablish
p61
aVplan
p62
aVdevelopment
p63
aVlead
p64
aVdevelopment implementation
p65
aVposition
p66
aVoffer
p67
aVopportunity
p68
aVpartner
p69
aVvariety
p70
aVinternal external
p71
aVclient solve
p72
aVbusiness problem
p73
aVproviding strategic
p74
aVinsight
p75
aVdata mining
p76
aVanalytics
p77
aVmodeling
p78
aVinteract
p79
aVsenior leader
p80
aVwithin
p81
aVjpmis
p82
aVdrive
p83
aVdevelop
p84
aVbusiness
p85
aVstrategy
p86
aVderive
p87
aVbroad understanding
p88
aVdifferent
p89
aVbusiness
p90
aVwithin jpmc
p91
aVwell
p92
aVexternal party
p93
aVopportunity
p94
aVuse
p95
aVdata
p96
aVdrive business
p97
aVperformance
p98
aVestablish
p99
aVgrounding
p100
aVwithin
p101
aVbig data
p102
aVspace
p103
aVgiven
p104
aVgroup
p105
aVnew exciting
p106
aVopportunity
p107
aVsomebody
p108
aVwant part
p109
aVbuilding
p110
aVbusiness
p111
aVprimary responsibility
p112
aVsuccessful candidate
p113
aVable
p114
aVhelp establish
p115
aVownership
p116
aVanalytics
p117
aVproduct
p118
aVsolution
p119
aVaffinity
p120
aVanalytics
p121
aVhigh
p122
aVtolerance ambiguity
p123
aVstrong
p124
aVproblem solving
p125
aVskill
p126
aVexcellent
p127
aVclient engagement
p128
aVresponsibility include
p129
aVhelp define
p130
aVnew
p131
aVproduct
p132
aVsolution
p133
aVopportunity
p134
aVi.e.
p135
aVtake
p136
aVhigh level
p137
aVidea
p138
aVpressure
p139
aVtest
p140
aVfeasibility
p141
aVas
p142
aVmarket
p143
aVidea
p144
aVengagement
p145
aVclient
p146
aVas
p147
aVfeasibility
p148
aVusefulness
p149
aVgiven
p150
aVproduct
p151
aVsolution
p152
aVplan execute
p153
aVimplementation
p154
aVproduct
p155
aVbuild
p156
aVday day
p157
aVresponsibility
p158
aVproject management
p159
aVsuccessful candidate
p160
aVable clearly
p161
aVarticulate idea
p162
aVproduct
p163
aVadd value
p164
aVclient
p165
aVclearly define
p166
aVanalytics
p167
aVwork
p168
aVdata scientist
p169
aVexecute
p170
aVanalytics
p171
aVsee
p172
aVvalue
p173
aVjpm-is
p174
aVadd
p175
aVgroup within
p176
aVoutside
p177
aVjpmc
p178
aVdrive decision
p179
aVmaking
p180
aVjpmc
p181
aVgeneral
p182
aVtop-tier
p183
aVtalent
p184
aVdemonstrated
p185
aVperformance
p186
aVhistory
p187
aVeducational background
p188
aVaccomplishment
p189
aVundergraduate degree
p190
aVquantitative discipline
p191
aVrequired
p192
aVgraduate degree
p193
aVpreferred
p194
aVconsulting
p195
aVorientation
p196
aVability influence
p197
aVinternal external
p198
aVbusiness partner
p199
aV2+ year
p200
aVtop tier
p201
aVmanagement consulting
p202
aVfirm
p203
aVpreferred
p204
aVstrong analytical
p205
aVskill
p206
aVwell
p207
aVstrong
p208
aVcommercial
p209
aVorientation
p210
aVproven ability
p211
aVuse
p212
aVanalytics
p213
aVdrive
p214
aVcommercial
p215
aVresult
p216
aVexperience
p217
aVproduct development
p218
aVdesirable
p219
aVstrong
p220
aVclient engagement
p221
aVskill
p222
aVstrong written
p223
aVoral presentation
p224
aVcommunication skill
p225
aVability convey
p226
aVcomplex
p227
aVinformation simply
p228
aVclearly senior
p229
aVbusiness leader
p230
aVundergraduate degree
p231
aVtop-tier
p232
aVinstitution
p233
aVquantitative discipline
p234
aVrequired
p235
aVgraduate degree
p236
aVpreferred
p237
aVexperience
p238
aVsa sql
p239
aVstatistical modeling
p240
aVpreferred
p241
a.