(lp1
Vbuzzfeed
p2
aVbuilding
p3
aVteam
p4
aVstrategic planner
p5
aVbridge business-side
p6
aVcreative
p7
aVside
p8
aVmarketing yield
p9
aVpowerful
p10
aVwork
p11
aVclient
p12
aVposition
p13
aVunique
p14
aVrole
p15
aVservicing
p16
aVspecific
p17
aVgroup
p18
aVmedium
p19
aVagency
p20
aVclient base
p21
aVwell
p22
aVcollaborate
p23
aVexecutive-level project
p24
aVpartnership
p25
aVbuzzfeed
p26
aVglobal
p27
aVagency
p28
aVteam
p29
aVstrategic planner
p30
aVliaise agency
p31
aVpartner
p32
aVensure
p33
aVwork
p34
aVbuzzfeed creates
p35
aVmeaningfully connected
p36
aVclients' broader
p37
aVplan
p38
aVeverything
p39
aVwork together
p40
aVsynergy
p41
aVprovide
p42
aVvalue
p43
aVagency
p44
aVcounterpart
p45
aVensure
p46
aVcollaboration
p47
aVearn
p48
aVseat
p49
aVtable
p50
aVrole
p51
aVdedicated
p52
aVspecific
p53
aVmedium
p54
aVagency holding
p55
aVcompany
p56
aVunique opportunity
p57
aVflex
p58
aVcreative
p59
aVbusiness
p60
aVopportunity
p61
aVbroadly
p62
aVexpectation
p63
aVexplore
p64
aVbeyond
p65
aVday-to-day
p66
aVclient
p67
aVwork
p68
aVfind
p69
aVuntapped opportunity
p70
aVlie
p71
aVintersection
p72
aVbuzzfeed
p73
aVmedium
p74
aVagency
p75
aVpartner
p76
aVbring disciplined
p77
aVapproach
p78
aVcreative
p79
aVdevelopment
p80
aVwithin
p81
aVagency
p82
aVadding credibility
p83
aVgrounding plan
p84
aVhelp u
p85
aVsell solution
p86
aVproduct
p87
aVresponsibility
p88
aVarticulate
p89
aVpowerful
p90
aVcreative brief
p91
aVclear inspiring
p92
aVcreative
p93
aVteam
p94
aVoutline
p95
aVobjective
p96
aVkpi's
p97
aVdevelop
p98
aVresearch
p99
aVplan
p100
aVcollaboration
p101
aVresearch
p102
aVteam
p103
aVclearly
p104
aVvalidate
p105
aVsuccess
p106
aVwork
p107
aVdistill buzzfeed's
p108
aVvast audience
p109
aVknowledge
p110
aVclear actionable
p111
aVconsumer insight
p112
aVclients' brand
p113
aVdesign
p114
aVcreative
p115
aVstrategy
p116
aVestablish structure
p117
aVwithin
p118
aVcreative
p119
aVteam
p120
aVdevelop
p121
aVspecific
p122
aVwork
p123
aVcreate
p124
aVthought leadership
p125
aVpiece
p126
aVbuild
p127
aVindustry
p128
aVcredibility
p129
aVaddition
p130
aVclient-based
p131
aVwork
p132
aVcollaborate
p133
aVexecutive-level project
p134
aVglobal
p135
aVagency
p136
aVteam
p137
aVlead
p138
aVdedicated
p139
aVagency holding
p140
aVcompany
p141
aVtranslate
p142
aVclients' brief
p143
aVdefining
p144
aVrationalizing
p145
aVneed
p146
aVnecessarily
p147
aVask
p148
aVtight
p149
aVclarity
p150
aValignment
p151
aVupfront
p152
aVensure
p153
aVwork
p154
aVbetter
p155
aVdelivers objective
p156
aVdefine editorial
p157
aVvision
p158
aVbranded content
p159
aVconnect
p160
aVclients' brand
p161
aVfoundation
p162
aVact
p163
aVleft
p164
aVside
p165
aVcreative
p166
aVbrain
p167
aVproviding
p168
aVclear inspiring
p169
aVbrief
p170
aVstimulates
p171
aVcreative
p172
aVdevelopment
p173
aVcreative
p174
aVteam's
p175
aVpartner
p176
aVcrime
p177
aVdefining
p178
aVstrategic
p179
aVchoice
p180
aVfocus
p181
aVwork
p182
aVconstraint
p183
aVbreed
p184
aVcreativity
p185
aVrequirement
p186
aVleast 3+
p187
aVyear experience
p188
aVworking
p189
aVcreative
p190
aVmedium
p191
aVagency
p192
aVstrategy planning
p193
aVdepartment
p194
aVexpertise
p195
aVvarious dimension
p196
aVstrategic planning
p197
aVbrand planning
p198
aVbrand foundation
p199
aVconsumer insight
p200
aVcommunication
p201
aVplanning integrated
p202
aVconnection planning
p203
aVdefines role
p204
aVconnection element
p205
aVunderstanding
p206
aVnew
p207
aVmedium landscape
p208
aVunlocks unique
p209
aVdigital
p210
aVadvantage buzzfeed
p211
aVevidence
p212
aVrole
p213
aVdeveloping
p214
aVdigital
p215
aVcreative
p216
aVwork
p217
aVbranded content
p218
aVtraditional advertising
p219
aVmodern pop
p220
aVculture anthropologist
p221
aVnative understanding
p222
aVinternet culture
p223
aVunderstanding
p224
aVbrand
p225
aVmarketing
p226
aVmake
p227
aVbrand
p228
aVgrow-
p229
aVbroad knowledge
p230
aVtrend
p231
aVdriving
p232
aVadvertising
p233
aVindustry-
p234
aVvertical
p235
aVexpertise
p236
aVexperience working
p237
aVleading
p238
aVbrand
p239
aVkey
p240
aVsimplify complex
p241
aVwrite persuasive
p242
aVperspective
p243
aV-
aVstrong
p244
aVintellectual
p245
aVhorsepower
p246
aVbuzzfeed
p247
aVbuzzfeed leading
p248
aVindependent digital
p249
aVmedium tech
p250
aVcompany delivering
p251
aVnews entertainment
p252
aVcontent global
p253
aVaudience office
p254
aV18 city
p255
aVaround world
p256
aV1300 employee
p257
aVincluding reporter
p258
aVvideo producer
p259
aVdata scientist
p260
aVengineer brand
p261
aVstrategist infuse
p262
aVhard work
p263
aVfun though
p264
aVculture experimentation
p265
aVteamwork equality
p266
aVhumble confidence
p267
aVemployee you'll
p268
aVenjoy perk
p269
aVlike office
p270
aVevent snack
p271
aVcareer development
p272
aVcourse work
p273
aVbirthday importantly
p274
aVyou'll work
p275
aVinspiring colleague
p276
aVbuild tool
p277
aVcreate content
p278
aVhelp connect
p279
aVpeople world
p280
a.