(lp1
Vopportunity
p2
aVcoordinate
p3
aVcustomer
p4
aVinsight
p5
aVdata
p6
aVmanagement
p7
aVgovernance
p8
aVactivity
p9
aVacross
p10
aVaffected
p11
aVcustomer-facing
p12
aVbusiness
p13
aVarea
p14
aVtechnology
p15
aVmarketing
p16
aVlead
p17
aVanalysis
p18
aVdocumentation
p19
aVmetadata
p20
aVdata lineage
p21
aVdata
p22
aVquality
p23
aVdata
p24
aVelement
p25
aVenterprise platform
p26
aVinsight
p27
aVcustomer
p28
aVepic
p29
aVdata warehouse
p30
aVposition
p31
aVresponsibility
p32
aVserve
p33
aVdata steward
p34
aVmarketing
p35
aVdata governance
p36
aVeffort
p37
aVensure
p38
aVbank
p39
aVdata
p40
aVepic
p41
aVotherwise defined
p42
aVmonitored
p43
aVper
p44
aVsix
p45
aVprinciple
p46
aVt's
p47
aVenterprise
p48
aVdata
p49
aVmanagement
p50
aVpolicy
p51
aVadhered
p52
aVfuture state
p53
aVpartner internal
p54
aVdata
p55
aVanalyst
p56
aVdata scientist
p57
aVintegrate
p58
aVimplement
p59
aVbusiness intelligence
p60
aVadvanced analytics
p61
aVtool
p62
aVdata
p63
aVnecessary
p64
aVmeet need
p65
aVeffectively manage
p66
aVinternal
p67
aVrelationship
p68
aVstakeholder
p69
aVgain acceptance
p70
aVbankwide
p71
aVcoordinate
p72
aVdata
p73
aVaddition
p74
aVretirement
p75
aVepic
p76
aVdata
p77
aVenvironment
p78
aVdata governance
p79
aVpolicy procedure
p80
aVensure ongoing
p81
aVmaintenance
p82
aVhealth
p83
aVprovide ongoing
p84
aVtechnical
p85
aVarchitectural
p86
aVdata
p87
aVguidance
p88
aVmarketing
p89
aVoffice
p90
aVcustomer advocate
p91
aVtactical strategic
p92
aVprogram
p93
aVcampaign
p94
aVsale
p95
aVservice
p96
aVpurpose
p97
aVadhere
p98
aVapplicable
p99
aVcompliance
p100
aVoperational risk
p101
aVcontrol
p102
aVaccordance
p103
aVcompany
p104
aVregulatory standard
p105
aVpolicy promote
p106
aVenvironment
p107
aVsupport
p108
aVdiversity
p109
aVreflects
p110
aVbank
p111
aVbrand
p112
aVmaintain
p113
aVinternal
p114
aVcontrol
p115
aVstandard
p116
aVincluding
p117
aVtimely
p118
aVimplementation
p119
aVinternal external
p120
aVaudit
p121
aVpoint
p122
aVtogether
p123
aVissue
p124
aVraised
p125
aVexternal
p126
aVregulator
p127
aVapplicable
p128
aVcomplete
p129
aVrelated duty
p130
aVassigned
p131
aVnature scope
p132
aVcustomer
p133
aVinsight
p134
aVteam
p135
aVconsults
p136
aVdelivers
p137
aVcustomer
p138
aVoutreach
p139
aVanalysis
p140
aVacross
p141
aVwilmington
p142
aVtrust
p143
aVbrand
p144
aVrole
p145
aVsupport effort
p146
aVaccelerate
p147
aVidentification
p148
aVacquisition
p149
aVprimary
p150
aVbank
p151
aVwealth
p152
aVrelationship
p153
aVcross-sell opportunity
p154
aVleveraging
p155
aVinvestment
p156
aVnewly
p157
aVcentralized customer
p158
aVdata
p159
aVvia
p160
aVenterprise platform
p161
aVinsight
p162
aVcustomer
p163
aVepic
p164
aVmaximize value
p165
aVsale
p166
aVservice
p167
aVopportunity
p168
aVcreating
p169
aVleveraging
p170
aVinsight
p171
aVfull range
p172
aVcustomer interaction
p173
aVacross
p174
aVbranch
p175
aVoffice
p176
aVphone
p177
aVmail
p178
aVe-mail
p179
aVtext
p180
aVmessage
p181
aVwebsite mobile
p182
aVapps
p183
aVreduce
p184
aVminimize
p185
aVneed
p186
aVcostly
p187
aVduplicative
p188
aVcustomer
p189
aVdata
p190
aVidentification
p191
aVaggregation
p192
aVmovement
p193
aVactivity
p194
aVtaking
p195
aVplace
p196
aVacross
p197
aVbusiness
p198
aVarea
p199
aVmanagerial
p200
aVsupervisory responsibility
p201
aVnone
p202
aVminimum qualification
p203
aVrequired
p204
aVbachelor's degree
p205
aVapplicable
p206
aVfield
p207
aVlieu degree
p208
aV4 year
p209
aVequivalent experience
p210
aV3 years'
p211
aVexperience
p212
aVanalysis
p213
aVdata governance
p214
aVspecifically
p215
aVaggregating data
p216
aVdisparate source
p217
aVinternal
p218
aVsystem
p219
aVexternal
p220
aVfeed
p221
aVweb
p222
aVetc
p223
aVideally
p224
aVcustomer
p225
aVinformation
p226
aVhigh energy
p227
aVability energize
p228
aVothers
p229
aVexcite
p230
aVdata
p231
aVimportance
p232
aVfuture
p233
aVproven success
p234
aVsimplifying
p235
aVcommunicating
p236
aVcomplex
p237
aVdata
p238
aVissue
p239
aVopportunity
p240
aVunfamiliar
p241
aVaudience
p242
aVunderstand
p243
aVtake action
p244
aVproven ability
p245
aVform
p246
aVrelationship
p247
aVthroughout organization
p248
aVwork collaboratively
p249
aVsolve
p250
aVdata
p251
aVchallenge
p252
aVideal
p253
aVqualification
p254
aVpreferred
p255
aVmarketing
p256
aVexperience
p257
aVwithin
p258
aVfinancial service
p259
aVmaster
p260
aVbusiness administration
p261
aVmba
p262
aVapplicable
p263
aVmaster's degree
p264
aVstrong
p265
aVskill
p266
aVfacilitation
p267
aVdocumentation
p268
aVorganization
p269
aVcommunication
p270
aVresult oriented
p271
aVability work
p272
aVindependently tight
p273
aVdeadline
p274
aVfinancial
p275
aVbanking
p276
aVindustry
p277
aVexperience
p278
aVpreferred
p279
aVstrive
p280
aVbest place
p281
aVemployee
p282
aVever
p283
aVwork
p284
aVbest
p285
aVbank
p286
aVcustomer
p287
aVever
p288
aVbusiness
p289
aVbest
p290
aVinvestment
p291
aVshareholder
p292
aVever
p293
aVmake
p294
aVlooking
p295
aVadvance career
p296
aVlook
p297
aVtop
p298
aV20
p299
aVu
aVbank holding
p300
aVcompany one
p301
aVbest
p302
aVperforming
p303
aVregional bank
p304
aVcountry
p305
aVoffer
p306
aVwide range
p307
aVperformance
p308
aVbased
p309
aVcareer development
p310
aVopportunity
p311
aVtalented professional
p312
aVlongstanding
p313
aVtradition
p314
aVcareful
p315
aVconservative
p316
aVconsistent
p317
aVmanagement
p318
aVstrong commitment
p319
aVcommunity serve
p320
aVcontinue grow
p321
aVfocus
p322
aVfuture
p323
a.