(lp1
Vjob
p2
aVenterprise
p3
aVselect partnered
p4
aVrapidly growing
p5
aVwell-funded startup
p6
aVcompany
p7
aVhelp
p8
aVstaff
p9
aVambitious
p10
aVdata
p11
aVinitiative
p12
aVlooking senior
p13
aVlevel
p14
aVdata
p15
aVengineer
p16
aVproactive
p17
aVself-directed
p18
aVvaluable
p19
aVaddition
p20
aVfast-growing
p21
aVteam
p22
aVcompany
p23
aVbringing
p24
aVdata science
p25
aVai
p26
aVpersonal finance
p27
aVproviding
p28
aVtremendous
p29
aVsaving benefit
p30
aVuser
p31
aVbacked
p32
aVtech
p33
aVindustry
p34
aVtop
p35
aVvcs
p36
aVgrowing quickly
p37
aVpassionate
p38
aVmajor
p39
aVplayer
p40
aVbuilding
p41
aVmeaningful
p42
aVproduct
p43
aValongside
p44
aVteam
p45
aVall-stars
p46
aVwed like
p47
aVhear
p48
aVwhatyoulldo
p49
aVdesign
p50
aVengineer
p51
aVrobust scalable
p52
aVapplication
p53
aVsoftware
p54
aVarchitecture
p55
aVuse
p56
aVmobile application
p57
aVdeploy maintain
p58
aVapplication
p59
aVinfrastructure
p60
aVoptimize
p61
aVoperational efficiency
p62
aVensure
p63
aVdata pipeline
p64
aVprovides
p65
aVclean
p66
aVorganized
p67
aVaggregated
p68
aVdata
p69
aVdatabase
p70
aVuse
p71
aVdata scientist
p72
aVdevelop
p73
aVconstruct
p74
aVtest maintain
p75
aVarchitecture
p76
aVdatabase
p77
aVlarge-scale
p78
aVdata
p79
aVprocessing
p80
aVsystem
p81
aVperform
p82
aVextracting transforming
p83
aVloading etl
p84
aVlarge datasets
p85
aVmultiple source
p86
aVusing
p87
aVtool hadoop
p88
aVhive
p89
aVdraw conclusion
p90
aVdata
p91
aVrecommend action
p92
aVbring
p93
aV3+ year
p94
aVdata
p95
aVanalysis
p96
aVrelated field
p97
aV3+ year
p98
aVbuilding scaling
p99
aVmaintain
p100
aVdata pipeline
p101
aVsystem
p102
aVstrong
p103
aVsql nosql
p104
aVskill
p105
aVstrong
p106
aVpython
p107
aVdatabase
p108
aVscripting
p109
aVexperience
p110
aVunderstanding
p111
aVdata structure
p112
aValgorithm
p113
aVmaster's degree
p114
aVcomputer science
p115
aVstatistic
p116
aVdesired
p117
aVwillyoube
p118
aVworking
p119
aVindustry
p120
aVbest brightest
p121
aVcutting-edge
p122
aVproduct
p123
aVyouwill
p124
aValso
p125
aVworking
p126
aVrapidlygrowingpre-ipo
p127
aVcompany
p128
aVreally
p129
aVtake
p130
aVcare
p131
aVemployees.youwill
p132
aVreceive
p133
aVextremely competitive
p134
aVcompensation equity
p135
aVfull suite
p136
aVamazing
p137
aVbenefit
p138
aVifyouare
p139
aVinterested
p140
aVrelated
p141
aVopportunity
p142
aVplease
p143
aVget touch
p144
aVtoday
p145
aVlet
p146
aVtalk
p147
aVbridge
p148
aVideal
p149
aVcareer
p150
aVopportunity
p151
aVreport
p152
a.