(lp1
Vbrookhaven national
p2
aVlaboratory
p3
aVmultipurpose
p4
aVresearch
p5
aVinstitution
p6
aVfunded
p7
aVprimarily
p8
aVu.s. department
p9
aVenergy's
p10
aVoffice
p11
aVscience
p12
aVlocated
p13
aVcenter
p14
aVlong island
p15
aVnew york
p16
aVbrookhaven
p17
aVlab
p18
aVbrings
p19
aVworld-class
p20
aVfacility
p21
aVexpertise
p22
aVexciting
p23
aVimportant question
p24
aVbasic
p25
aVapplied
p26
aVsciencefrom
p27
aVbirth
p28
aVuniverse
p29
aVsustainable
p30
aVenergy
p31
aVtechnology
p32
aVtomorrow
p33
aVoperate
p34
aVcutting-edge
p35
aVlarge-scale
p36
aVfacility
p37
aVstudy
p38
aVphysic chemistry
p39
aVbiology
p40
aVmedicine
p41
aVapplied
p42
aVscience
p43
aVwide range
p44
aVadvanced
p45
aVtechnology
p46
aVlaboratory's
p47
aValmost
p48
aV3 000
p49
aVscientist engineer
p50
aVsupport
p51
aVstaff
p52
aVjoined
p53
aVyear
p54
aV4 000
p55
aVvisiting
p56
aVresearcher
p57
aVaround world
p58
aVaward-winning
p59
aVhistory
p60
aVincluding seven
p61
aVnobel prize
p62
aVstretch
p63
aVback
p64
aV1947
p65
aVcontinue
p66
aVunravel
p67
aVmystery
p68
aVnanoscale
p69
aVcosmic
p70
aVscale everything
p71
aVbrookhaven
p72
aVoperated
p73
aVmanaged
p74
aVbrookhaven
p75
aVscience
p76
aVassociate
p77
aVfounded
p78
aVresearch
p79
aVfoundation
p80
aVstate university
p81
aVnew york
p82
aVbehalf
p83
aVstony
p84
aVbrook
p85
aVuniversity
p86
aVbattelle
p87
aVnonprofit
p88
aVapplied
p89
aVscience
p90
aVtechnology
p91
aVorganization
p92
aVorganizational overview
p93
aVcenter
p94
aVfunctional
p95
aVnanomaterials cfn
p96
aVuser-oriented
p97
aVresearch
p98
aVcenter
p99
aVwhose
p100
aVscientific
p101
aVprogram
p102
aVfocused
p103
aVunderstanding
p104
aVexploitation
p105
aVenergy-related
p106
aVmaterial
p107
aVincluding
p108
aVpolymer
p109
aVorganic-inorganic
p110
aVhybrid
p111
aVnanomaterials cfn
p112
aVmaintains
p113
aVcutting-edge
p114
aVcapability
p115
aVmaterial synthesis
p116
aVcharacterization
p117
aVcfn
p118
aVcollaborative
p119
aVresearch
p120
aVenvironment
p121
aVbringing together
p122
aVscientist
p123
aVdiverse
p124
aVexpertise
p125
aVincluding
p126
aVnanofabrication
p127
aVelectron microscopy
p128
aVtheory
p129
aVsimulation
p130
aVself-assembling
p131
aVnanomaterials
p132
aVposition description
p133
aVposition description
p134
aVpostdoctoral
p135
aVassociate expected
p136
aVdevelop
p137
aVperform
p138
aVoperando
p139
aVelectron
p140
aVtomography
p141
aVstudy
p142
aVaberration-corrected
p143
aVtem
p144
aVcharacterization
p145
aVenergy storage
p146
aVconversion material
p147
aVresearch
p148
aVinvolve
p149
aVdevelopment
p150
aVhigh-throughput
p151
aVin-situ
p152
aVlive
p153
aVtomography
p154
aVtem
p155
aVwork
p156
aVconducted
p157
aVelectron microscopy
p158
aVgroup
p159
aVcfn
p160
aVhouse
p161
aVfive
p162
aVstate-of-the-art
p163
aVscanning
p164
aVtransmission
p165
aVelectron
p166
aVmicroscope
p167
aVmajority
p168
aVwork
p169
aVconducted
p170
aVfei
p171
aVenvironmental
p172
aVtitan
p173
aVequipped
p174
aVk2
p175
aVdirect-electron
p176
aVdetector
p177
aVfei
p178
aVtalos
p179
aVf200x
p180
aVequipped
p181
aVx-feg
p182
aVsuper-x
p183
aVenfinium
p184
aVaberration-corrected
p185
aVcold-feg
p186
aVdedicated
p187
aVstem
p188
aVnion
p189
aVhermes
p190
aVfirst two
p191
aVtomography
p192
aVcryoet
p193
aVliquidem
p194
aVcapability
p195
aVsuccessful implementation
p196
aVwork
p197
aVrequires
p198
aVcoding
p199
aVcapability
p200
aVclose interaction
p201
aVcomputer
p202
aVdata scientist
p203
aVstudent
p204
aVworking
p205
aVdeep-learning
p206
aVbased
p207
aValgorithm
p208
aVreview
p209
aVapplication
p210
aVbegin
p211
aVimmediately
p212
aVapplication
p213
aVaccepted
p214
aVposition filled
p215
aVresearch
p216
aVdirection
p217
aVdr
p218
aVhuolin
p219
aVxin
p220
aVessential duty
p221
aVresponsibility
p222
aVdevelop
p223
aVhigh-throughput
p224
aVin-situ
p225
aVlive
p226
aVtomography
p227
aVapply
p228
aVoperando
p229
aVstudy
p230
aVenergy storage
p231
aVconversion material
p232
aVdevelop
p233
aValgorithm
p234
aVanalyze multi-dimensional
p235
aVbig data
p236
aVset
p237
aVperform
p238
aVatomic-scale
p239
aVaberration-corrected
p240
aVstem
p241
aVstudy
p242
aVenergy storage
p243
aVconversion material
p244
aVdisseminating
p245
aVresearch finding
p246
aVvia
p247
aVhigh-impact
p248
aVscientific paper
p249
aVpresentation
p250
aVposition
p251
aVrequirement
p252
aVrequired
p253
aVknowledge
p254
aVskill ability
p255
aVph.d.
p256
aVphysic electrical
p257
aVengineering
p258
aVmaterial
p259
aVscience
p260
aVchemistry
p261
aVrelated field
p262
aVdemonstrated
p263
aVprogramming skill
p264
aVmatlab python
p265
aVc c++
p266
aVsolid background
p267
aVscanning
p268
aVtransmission
p269
aVelectron microscopy
p270
aVstem
p271
aVrigorous
p272
aVph.d.
p273
aVtraining
p274
aVtem
p275
aVgroup
p276
aVdemonstrated expertise
p277
aVaberration-corrected
p278
aVtem
p279
aVstructural
p280
aVcharacterization
p281
aVexcellent written
p282
aVoral communication
p283
aVskill
p284
aVself-motivated able
p285
aVwork independently
p286
aVpart team
p287
aVability interact
p288
aVeffectively
p289
aVdiverse group
p290
aVscientist
p291
aVtechnical staff
p292
aVpreferred
p293
aVknowledge
p294
aVskill ability
p295
aVskill
p296
aVelectron
p297
aVtomography
p298
aVexperience
p299
aVelectron
p300
aVenergy
p301
aVloss
p302
aVspectroscopy
p303
aVexperience
p304
aVliquid
p305
aVgas
p306
aVflow
p307
aVtem
p308
aVholder
p309
aVknowledge
p310
aVfei
p311
aVgatan
p312
aVscript
p313
aVlanguage
p314
aVbnl
p315
aVpolicy
p316
aVstate
p317
aVresearch
p318
aVassociate
p319
aVappointment may
p320
aVmade
p321
aVreceived
p322
aVdoctoral degree
p323
aVwithin
p324
aVpast
p325
aVfive year
p326
aVinformation
p327
aVbrookhaven national
p328
aVlaboratory
p329
aVbelieve
p330
aVcomprehensive
p331
aVemployee
p332
aVbenefit
p333
aVprogram
p334
aVimportant
p335
aVmeaningful
p336
aVpart
p337
aVcompensation
p338
aVemployee
p339
aVreceive
p340
aVbenefit
p341
aVprogram
p342
aVincludes limited
p343
aVmedical
p344
aVplan
p345
aVvacation holiday
p346
aVdental plan
p347
aVlife insurance
p348
aV401 k
p349
aVplan
p350
aVsite
p351
aVchild
p352
aVdevelopment
p353
aVcenter
p354
aVswimming
p355
aVpool
p356
aVweight room
p357
aVtennis
p358
aVcourt
p359
aVmany
p360
aVemployee
p361
aVperk benefit
p362
aVinvite
p363
aVconsider
p364
aVbrookhaven national
p365
aVlaboratory
p366
aVemployment
p367
aVconsidered position
p368
aVplease apply
p369
aVonline
p370
aVbnl
p371
aVcareer
p372
aVenter
p373
aVjob title
p374
aVkeyword search
p375
aVbrookhaven national
p376
aVlaboratory
p377
aVbnl
p378
aVequal opportunity
p379
aVemployer committed
p380
aVensuring
p381
aVqualified applicant
p382
aVreceive consideration
p383
aVemployment discriminated
p384
aVbasis race
p385
aVcolor religion
p386
aVsex sexual
p387
aVorientation gender
p388
aVidentity national
p389
aVorigin age
p390
aVstatus veteran
p391
aVdisability federal
p392
aVstate local
p393
aVprotected class
p394
aVbnl
p395
aVtake affirmative
p396
aVaction
p397
aVsupport
p398
aVpolicy advance
p399
aVemployment
p400
aVindividual minority
p401
aVwoman protected
p402
aVveteran individual
p403
aVdisability
p404
aVvevraa federal
p405
aVcontractor
p406
a.