(lp1
Vposting job
p2
aVtitle senior
p3
aVdata scientist
p4
aVmanager
p5
aVjob
p6
aVgroup
p7
aVhealth care
p8
aVeeo statement
p9
aVaetna equal
p10
aVopportunity affirmative
p11
aVaction employer
p12
aVreq
p13
aV35483br
p14
aVprimary location
p15
aVny-new york
p16
aVlocation
p17
aVma-wellesley
p18
aVny-new york
p19
aVpercent travel
p20
aVrequired
p21
aV10
p22
aV-
aV25
p23
aVpotential telework
p24
aVposition
p25
aVfull part
p26
aVtime
p27
aVfull time
p28
aVsupervisory
p29
aVjob description
p30
aVaetnas consumer
p31
aVhealth service
p32
aVcustomer
p33
aVinsight
p34
aVanalytics
p35
aVteam creates
p36
aVcutting edge
p37
aVanalytic tool
p38
aVdrive better
p39
aVfaster decision
p40
aVmaking within
p41
aVorganization currently
p42
aVlooking exceptional
p43
aVsenior
p44
aVdata scientist
p45
aVmanager play
p46
aVpivotal role
p47
aVcreation deployment
p48
aVinformation
p49
aVproduct
p50
aVposition
p51
aVoffice based
p52
aVeither
p53
aVnew york
p54
aVny wellesley
p55
aVlocation
p56
aVposition summary
p57
aVunique opportunity
p58
aVsomeone passionate
p59
aVinnovation
p60
aVdata science
p61
aVmachine learning
p62
aVpredictive modeling
p63
aVtechnique
p64
aVteam
p65
aVcurrently
p66
aVu
aVindustry leading
p67
aVscalable
p68
aVdata
p69
aVplatform
p70
aVtechnique
p71
aVcreating
p72
aVsolution
p73
aVchallenging business
p74
aVproblem
p75
aVrole require
p76
aVfrequent interaction
p77
aVproject stakeholder
p78
aVbusiness partner
p79
aVlevel organization
p80
aVfast-paced collaborative
p81
aViterative environment
p82
aVrequiring quick
p83
aVlearning agility
p84
aVflexibility
p85
aVfundamental component
p86
aVresponsible end-to-end
p87
aVcreation deployment
p88
aVnew
p89
aVanalytic
p90
aVoffering
p91
aVsupport
p92
aVinternal external
p93
aVclient
p94
aVinvolved aspect
p95
aVproject lifecycle
p96
aVrequirement gathering
p97
aVhypothesis
p98
aVgeneration ideation
p99
aVprogramming
p100
aVtesting implementation
p101
aVnew
p102
aVprocess
p103
aVtool
p104
aVanalyzing
p105
aVhealthcare
p106
aVdata
p107
aVusing quantitative
p108
aVmethod
p109
aVcreate
p110
aVactionable timely
p111
aVinformation
p112
aVbackground
p113
aVexperience
p114
aV7 1-0
p115
aVyear related
p116
aVexperience
p117
aVhealthcare
p118
aVdata
p119
aVanalytics
p120
aVstatistical analysis
p121
aVpredictive modeling
p122
aVmachine learning
p123
aVtechnique
p124
aVvisualization tool
p125
aVexperience
p126
aVhealthcare
p127
aVanalysis
p128
aVpreferably
p129
aVprovider
p130
aVanalytics
p131
aVcomprehensive
p132
aVknowledge
p133
aVhealthcare insurance
p134
aVindustry
p135
aVproduct
p136
aVsystem
p137
aVbusiness
p138
aVstrategy
p139
aVproduct
p140
aVexperience
p141
aVsa sql
p142
aVprogramming language
p143
aVexperience
p144
aVbig data
p145
aVtechnology
p146
aVpython r
p147
aVhadoop hive
p148
aVtableau
p149
aVdemonstrated ability
p150
aVeffectively communicate
p151
aVnegotiate across
p152
aVbusiness
p153
aVexternal health
p154
aVcare
p155
aVenvironment
p156
aVdemonstrated ability
p157
aVcommunicate technical
p158
aVidea result
p159
aVnon-technical client
p160
aVwritten verbal
p161
aVform
p162
aVeducation bachelor's
p163
aVdegree
p164
aVmaster degree
p165
aVph.d. strongly
p166
aVpreferred
p167
aVadditional job
p168
aVinformation
p169
aVaetna continues
p170
aVbuild world-class
p171
aVdata science
p172
aVorganization capture
p173
aVdata
p174
aVunderstand context
p175
aVgenerate insight
p176
aVreact real
p177
aVtime engage
p178
aVbusiness partner
p179
aVproviding solution
p180
aVimprove consumer
p181
aVexperience increase
p182
aVefficiency optimize
p183
aVhealth outcome
p184
aVmember leveraging
p185
aVcutting edge
p186
aVtechnology
p187
aVaetna job
p188
aVopportunity re-shape
p189
aVhealthcare america
p190
aVacross globe
p191
aVdeveloping solution
p192
aVimprove quality
p193
aVaffordability healthcare
p194
aVbenefit generation
p195
aVcome
p196
aVcare customer
p197
aVcommunity inspired
p198
aVmake difference
p199
aVcommitted integrity
p200
aVexcellence together
p201
aVempower people
p202
aVlive healthier
p203
aVlife
p204
aVaetna equal
p205
aVopportunity affirmative
p206
aVaction employer
p207
aVqualified applicant
p208
aVreceive consideration
p209
aVemployment regardless
p210
aVpersonal characteristic
p211
aVstatus take
p212
aVaffirmative action
p213
aVrecruit select
p214
aVdevelop woman
p215
aVpeople color
p216
aVveteran individual
p217
aVdisability
p218
aVcompany built
p219
aVexcellence culture
p220
aVvalue growth
p221
aVachievement diversity
p222
aVworkplace voice
p223
aVheard
p224
aVbenefit eligibility
p225
aVmay vary
p226
aVposition click
p227
aVreview benefit
p228
aVassociated position
p229
aVemployment type
p230
aVregular career
p231
aVband description
p232
aVprofessional
p233
a.