(lp1
Vresearch
p2
aVinvestigator
p3
aVdata scientist
p4
aVdata scientist
p5
aVposition
p6
aVpart
p7
aVdupont
p8
aVscience
p9
aVinnovation
p10
aVcompetency
p11
aVdata
p12
aVdiscovery
p13
aVdata
p14
aVanalytics
p15
aVrole responsible
p16
aVmodeling
p17
aVcomplex problem
p18
aVdiscovering insight
p19
aVidentifying opportunity
p20
aVuse
p21
aVstatistical algorithmic
p22
aVmining visualization
p23
aVtechnique
p24
aVpart team
p25
aVwork closely
p26
aVinternal stakeholder
p27
aVemerging technology
p28
aVr
aVengineering
p29
aVbusiness
p30
aVmarketing
p31
aVdata
p32
aVinformatics
p33
aVteam
p34
aVturn
p35
aVdata
p36
aVcritical
p37
aVinformation
p38
aVknowledge
p39
aVused make
p40
aVsound
p41
aVbusiness decision
p42
aVbecome
p43
aVcritical competency
p44
aVmember
p45
aVfast-growing
p46
aVteam
p47
aVcontributes
p48
aVdecision
p49
aVimpact company's
p50
aVgrowth
p51
aVinnovation
p52
aVresponsibility
p53
aVcollaborate stakeholder
p54
aVidentify
p55
aVbusiness
p56
aVrequirement
p57
aVexpected outcome
p58
aVidentify
p59
aVselect
p60
aVrelevant
p61
aVcredible
p62
aVdata source
p63
aVprovide technical
p64
aVinstruction
p65
aVdata
p66
aVanalyst
p67
aVcollect
p68
aVintegrate mine
p69
aVdata
p70
aVidentify analyze
p71
aVpattern
p72
aVdesign experiment
p73
aVtest hypothesis
p74
aVbuild
p75
aVmodel
p76
aVconduct advanced
p77
aVdata
p78
aVanalysis
p79
aVcomplex
p80
aValgorithm
p81
aVhelp
p82
aVstakeholder
p83
aVdiscover
p84
aVquantify
p85
aVleading
p86
aVinformation
p87
aVsolves
p88
aVstakeholders'
p89
aVproblem
p90
aVanalytics
p91
aVcommunicate result
p92
aVmethodology
p93
aViterative
p94
aVcollaboration
p95
aVprocess
p96
aVpartner
p97
aVstakeholder
p98
aVensure
p99
aVexpected
p100
aVqualification
p101
aVassurance
p102
aVinformation
p103
aVdesign
p104
aVlead
p105
aVimplementation
p106
aVanalytics
p107
aVpipeline
p108
aVvisualization
p109
aVcollaborating
p110
aVdata
p111
aVinformatics
p112
aVteam
p113
aVscout
p114
aVtest
p115
aVrecommend
p116
aVnew
p117
aVanalytics
p118
aValgorithm
p119
aVmodel
p120
aVdata
p121
aVanalytics
p122
aVeducate
p123
aVorganization
p124
aVnew
p125
aVanalytical approach
p126
aVdrive
p127
aVacceleration
p128
aVbusiness decision
p129
aVcollaborate
p130
aVdata scientist
p131
aVdevelop
p132
aVstrategy
p133
aVdata
p134
aVanalytics
p135
aVcompetency
p136
aVprioritize
p137
aVdevelopment
p138
aVneed
p139
aVdupont
p140
aVequal opportunity
p141
aVemployer
p142
aVdupont
p143
aVe-verify employer
p144
aVli-ab1
p145
aVphd degree
p146
aVnatural
p147
aVscience statistic
p148
aVstrong
p149
aVcomputing
p150
aVbackground
p151
aV2-years
p152
aVdata
p153
aVanalytics
p154
aVproject
p155
aVexperience
p156
aVexpertise
p157
aVmachine learning
p158
aVdeep learning
p159
aVe.g.
p160
aVclassification regression
p161
aVclustering
p162
aVfeature engineering
p163
aVnetwork
p164
aVexpertise
p165
aVstatistic
p166
aVe.g.
p167
aVtime series
p168
aVregression model
p169
aVprincipal component
p170
aVanalysis
p171
aVmulti-variance
p172
aVanalysis
p173
aVexpertise
p174
aVtext
p175
aVdata
p176
aVanalysis
p177
aVsemantic analysis
p178
aVnatural language
p179
aVprocessing
p180
aVtaxonomy
p181
aVproficiency
p182
aVdata
p183
aVarchitect data
p184
aVmodeling
p185
aVusing
p186
aVrelational database
p187
aVgraph database
p188
aVexpertise
p189
aVdata
p190
aVanalytics
p191
aVsoftware
p192
aVtool
p193
aVpython r
p194
aVhadoop spark
p195
aVneo4j
p196
aVoracle
p197
aVjson
p198
aVpreferred
p199
aVskill
p200
aVangularjs web
p201
aVservice
p202
aVvisualization tool
p203
aVe.g.
p204
aVseppelin
p205
aVtableau spotfire
p206
aVfamiliar linux
p207
aVo
aVsoftware engineering
p208
aVmethodology
p209
aVstrong
p210
aVbusiness acumen
p211
aVability translate
p212
aVbusiness problem
p213
aVdata
p214
aVanalytics
p215
aVrequirement
p216
aVdesign
p217
aVdata
p218
aVmodel
p219
aVanalytics
p220
aVpipeline
p221
aVresolve problem
p222
aVexcellent communication
p223
aVcustomer-facing
p224
aVskill ability
p225
aVexplain technical
p226
aVapproach
p227
aVrationale finding
p228
aVeasy understand
p229
aVterm
p230
aVbusiness
p231
aVexcellent
p232
aVteam player
p233
aVtechnical leadership
p234
a.