(lp1
Vbuzzfeed news
p2
aVseeking ambitious
p3
aVintrepid reporter
p4
aVcover
p5
aVfbi
p6
aVsuccessful candidate
p7
aVdive headfirst
p8
aVbureau
p9
aVnavigating
p10
aVinternal
p11
aVpolitics
p12
aVgetting
p13
aVscoop
p14
aVinvestigation
p15
aVunderstanding
p16
aVagency
p17
aVadapting new
p18
aVpolitical
p19
aVdigital landscape
p20
aVbeat
p21
aVfocus
p22
aVinvestigation
p23
aVinternational
p24
aVangle
p25
aVincluding
p26
aVcounterterror
p27
aVcybercrime
p28
aVmoney laundering
p29
aVespecially
p30
aVimpact
p31
aVus's
p32
aVinfluence
p33
aVaround world
p34
aVreally
p35
aVbeat
p36
aVtopic
p37
aVimmigration
p38
aVdrug
p39
aVprocess
p40
aVday-to-day
p41
aVlaw enforcement
p42
aVsuccessful candidate
p43
aVnews hound
p44
aVcurious aggressive
p45
aVeager beat
p46
aVcompetition scoop
p47
aVtrack record
p48
aVexclusive
p49
aVreporting
p50
aVidea
p51
aVtell
p52
aVbig
p53
aVstory shaping
p54
aVu
aVeager
p55
aVteam player
p56
aVpitching reporting
p57
aVworking closely
p58
aVmember
p59
aVwashington
p60
aVd.c
p61
aVbureau
p62
aVworld
p63
aVteam
p64
aVwider buzzfeed
p65
aVnews family
p66
aVsuccessful candidate
p67
aVdeep understanding
p68
aVinternet's role
p69
aVfinding
p70
aVreporting
p71
aVissue
p72
aVoffer competitive
p73
aVsalary generous
p74
aVbenefit stock
p75
aVoption program
p76
aValong perk
p77
aVranging catered
p78
aVlunch
p79
aVwork birthday
p80
aVapply
p81
aVplease include
p82
aVlink
p83
aVleast three
p84
aVstory scoop
p85
aVexclusive well
p86
aVthought
p87
aVarea
p88
aVcoverage think
p89
aVbuzzfeed news
p90
aVfbi reporter
p91
aVuniquely positioned
p92
aVtake
p93
aVapplying
p94
aVshifting
p95
aVbeat
p96
aVmeaning
p97
aVcurrently
p98
aVfbi reporter
p99
aVplease include
p100
aVletter
p101
aVplan
p102
aVsourcing
p103
aVinside
p104
aVbureau
p105
aVincluding
p106
aVapplicable
p107
aVcurrent
p108
aVsource
p109
aVcould
p110
aVgive
p111
aVentree
p112
aVsource
p113
aVfbi
p114
aVresponsibility
p115
aVbreak news
p116
aVdeliver scoop
p117
aVwrite produce
p118
aVstory
p119
aVpeople want
p120
aVshare
p121
aVwrite
p122
aVunique
p123
aVfeature advance
p124
aVconversation
p125
aVwork
p126
aVmember
p127
aVworld
p128
aVteam
p129
aVbroader buzzfeed
p130
aVnews
p131
aVteam
p132
aVrequirement
p133
aVproven ability
p134
aVbreak news
p135
aVdevelop
p136
aVsource
p137
aVgreat
p138
aVnews judgment
p139
aVstrong writing
p140
aVskill ability
p141
aVturn
p142
aVaround
p143
aVstory copy
p144
aVquickly
p145
aVleast three
p146
aVyears'
p147
aVreporting
p148
aVexperience
p149
aVgenuine love
p150
aVexcitement internet
p151
aVsolid list
p152
aVcontact
p153
aVsource
p154
aVestablished
p155
aVsocial medium
p156
aVpresence
p157
aVbuzzfeed
p158
aVbuzzfeed leading
p159
aVindependent digital
p160
aVmedium tech
p161
aVcompany delivering
p162
aVnews entertainment
p163
aVcontent global
p164
aVaudience office
p165
aV18 city
p166
aVaround world
p167
aV1300 employee
p168
aVincluding reporter
p169
aVvideo producer
p170
aVdata scientist
p171
aVengineer brand
p172
aVstrategist infuse
p173
aVhard work
p174
aVfun though
p175
aVculture experimentation
p176
aVteamwork equality
p177
aVhumble confidence
p178
aVemployee you'll
p179
aVenjoy perk
p180
aVlike office
p181
aVevent snack
p182
aVcareer development
p183
aVcourse work
p184
aVbirthday importantly
p185
aVyou'll work
p186
aVinspiring colleague
p187
aVbuild tool
p188
aVcreate content
p189
aVhelp connect
p190
aVpeople world
p191
a.