(lp1
Vsummer 2017
p2
aVdata scientist
p3
aVintern
p4
aVfollowing
p5
aVprimary responsibility
p6
aVretrieve
p7
aVprepare
p8
aVprocess
p9
aVrich data
p10
aVvariety
p11
aVdata source
p12
aVsocial medium
p13
aVnews
p14
aVinternal external
p15
aVdocument
p16
aVemail
p17
aVfinancial
p18
aVdata
p19
aVoperational
p20
aVdata
p21
aVanalyze model
p22
aVstructured
p23
aVdata
p24
aVimplement algorithm
p25
aVsupport
p26
aVanalysis
p27
aVusing advanced
p28
aVstatistical mathematical
p29
aVmethod
p30
aVstatistic
p31
aVdata mining
p32
aVoperation research
p33
aVutilize diverse
p34
aVarray
p35
aVtechnology
p36
aVtool
p37
aVneeded
p38
aVdeliver insight
p39
aVr sa
p40
aVpower bi
p41
aVtranslate
p42
aVadvanced
p43
aVbusiness
p44
aVanalytics
p45
aVproblem
p46
aVtechnical
p47
aVapproach yield
p48
aVactionable recommendation
p49
aVdiverse domain
p50
aVproduct development
p51
aVmarketing
p52
aVresearch
p53
aVsupply chain
p54
aVcommunicate result
p55
aVeducate others
p56
aVinsightful
p57
aVvisualization
p58
aVreport presentation
p59
aVperform exploratory
p60
aVdata
p61
aVanalysis generate
p62
aVtest working
p63
aVhypothesis uncover
p64
aVinteresting trend
p65
aVrelationship
p66
aVideal candidate
p67
aVmust enrolled
p68
aVmaster program
p69
aVfocusing
p70
aVdata science
p71
aVeeo aa
p72
aVfemale minority
p73
aVdisabled veteran
p74
aVequal opportunity
p75
aVemployer minority
p76
aVwoman protected
p77
aVveteran disabled
p78
a.