(lp1
Vsg2
p2
aVvizient
p3
aVcompany provides
p4
aVanalytics-based health
p5
aVcare
p6
aVexpertise
p7
aVhelp
p8
aVhospital health
p9
aVsystem
p10
aVintegrate
p11
aVprioritize
p12
aVdrive growth
p13
aVperformance
p14
aVacross continuum
p15
aVcare
p16
aVsince
p17
aVsg2's
p18
aVformation
p19
aVdecade ago
p20
aVteam
p21
aVsingular
p22
aVfocusto
p23
aVhelp guide
p24
aVtransformation
p25
aVhealth care
p26
aVrealizing
p27
aVgoal
p28
aVrequires
p29
aVmotivated individual
p30
aVbring
p31
aVpassion
p32
aVcreativity initiative
p33
aVresourcefulness entrepreneurial
p34
aVspirit
p35
aVsg2
p36
aVvalue teamwork
p37
aVcorporate
p38
aVhierarchy
p39
aVgo
p40
aVway
p41
aVmake sure
p42
aVwork environment
p43
aVenergizing
p44
aVsupportive
p45
aVpossible
p46
aVwhether you're
p47
aVrecent graduate
p48
aVindustry
p49
aVveteran
p50
aVcareer
p51
aVsg2
p52
aVopportunity
p53
aVcreate
p54
aVunique
p55
aVpath
p56
aVuntraditional
p57
aVenvironment
p58
aVtitle
p59
aVdata scientist
p60
aVlocation
p61
aVskokie
p62
aVil
p63
aVjob summary
p64
aVdata scientist
p65
aVresponsible
p66
aVdesign development
p67
aVcore
p68
aVset
p69
aVanalytic
p70
aVdata
p71
aVmodel
p72
aVtool
p73
aVsupport
p74
aVindustry leading
p75
aVhealthcare
p76
aVanalytic
p77
aVplatform
p78
aVposition
p79
aValso
p80
aVsupport
p81
aVmaintains
p82
aVexisting
p83
aVanalytic
p84
aVdata
p85
aVmodel
p86
aVtool
p87
aVwithin
p88
aVsg2
p89
aVresponsibility
p90
aVdata exploration
p91
aVsupervised unsupervised
p92
aVhypothesis
p93
aVcreation
p94
aVbusiness
p95
aVproduct
p96
aVgoal
p97
aVtesting
p98
aValgorithm
p99
aVscaling
p100
aVlarge data-sets
p101
aVvalidating
p102
aVresult
p103
aVcollect cleanse
p104
aVstandardize analyze
p105
aVhealthcare utilization
p106
aVvariety
p107
aVthird party
p108
aVsource
p109
aVcreate
p110
aVbaseline
p111
aVbenchmarked
p112
aVdata
p113
aVsupport
p114
aVnew existing
p115
aVproduct
p116
aVresearch
p117
aVnew
p118
aVproduct development
p119
aVinitiative
p120
aVsupport
p121
aVinternal
p122
aVad hoc
p123
aVresearch
p124
aVmaintain current
p125
aVknowledge
p126
aVemerging tool
p127
aVtechnique
p128
aVmachine learning
p129
aVstatistical modelling
p130
aVanalytics
p131
aVcontinually seek
p132
aVdrive
p133
aVopportunity increase
p134
aVproduct
p135
aVquality
p136
aVcustomer satisfaction
p137
aVqualification
p138
aVseeking highly
p139
aVmotivated individual
p140
aVconsistent
p141
aVrecord
p142
aVprofessional
p143
aVpersonal
p144
aVachievement
p145
aVcreativity initiative
p146
aVresourcefulness entrepreneurial
p147
aVspirit
p148
aVmust
p149
aVaddition
p150
aVfollowing ba
p151
aVb
aVmathematics statistic
p152
aVcomputer science
p153
aVrelated concentration
p154
aVequivalent work
p155
aVexperience
p156
aV5+ years'
p157
aVexperience
p158
aVdata
p159
aVdevelopment
p160
aVpreferably
p161
aVagile development
p162
aVenvironment
p163
aVexperience
p164
aVlarge
p165
aVhealth care
p166
aVdatabase
p167
aVclinical financial
p168
aVexample
p169
aVcommercial
p170
aVclaim
p171
aVdata
p172
aVhospital
p173
aVstate
p174
aVdata
p175
aVsaf
p176
aVcm
p177
aVdatabase
p178
aVexperience
p179
aVclinical
p180
aVcoding
p181
aVsystem icd-9
p182
aV10 cpt-4
p183
aVhcpcs etc
p184
aVfamiliarity clinical
p185
aVgrouping severity
p186
aVadjustment tool
p187
aVdrgs apr-drgs
p188
aVetc
p189
aVstrong
p190
aVstatistical analysis
p191
aVdata
p192
aVmodeling
p193
aVskill
p194
aVexperience
p195
aVtechnical documentation
p196
aVcode
p197
aVprocess
p198
aVexperience
p199
aVprogramming language
p200
aVdata
p201
aVanalysis
p202
aVtool
p203
aVsql sa
p204
aVexperience
p205
aVetl extract
p206
aVtransform load
p207
aVtool
p208
aVstrong analytical
p209
aVproblem solving
p210
aVskill
p211
aVstrong communication
p212
aVskill ability
p213
aVdiscus
p214
aVtechnical issue
p215
aVvariety audience
p216
aVequal opportunity
p217
aVemployer female
p218
aVminority veteran
p219
aVindividual disability
p220
aVcompany
p221
aVcommitted equal
p222
aVemployment opportunity
p223
aVemployee applicant
p224
aVwithout regard
p225
aVrace religion
p226
aVcolor gender
p227
aVidentity ethnicity
p228
aVage
p229
aVcreed sex
p230
aVnational origin
p231
aVsexual orientation
p232
aVdisability status
p233
aVveteran status
p234
aVmarital status
p235
aVcategory protected
p236
aVapplicable law
p237
a.