(lp1
Vposition overview
p2
aVseeking motivated
p3
aVdata scientist
p4
aVexplore
p5
aVscalable
p6
aVmethod
p7
aVenhance
p8
aVequipment-generated
p9
aVdata
p10
aVlike
p11
aVyield
p12
aVpresented
p13
aVgrower
p14
aVinternal
p15
aVresearch
p16
aVsuccessful candidate
p17
aVwilling
p18
aVleverage
p19
aVdifferent
p20
aVdata source
p21
aVmodify existing
p22
aVmodel
p23
aVbased
p24
aVvarious constraint
p25
aVdata
p26
aVposition
p27
aVgeospatial
p28
aVresearch
p29
aVteam
p30
aVwithin
p31
aVscience
p32
aVorganization
p33
aVsignificant exposure
p34
aVvarious
p35
aVbackend
p36
aVengineering
p37
aVproduct
p38
aVproblem
p39
aVwell
p40
aVwant
p41
aVexposure
p42
aVreal world
p43
aVproblem
p44
aVtech
p45
aVcould
p46
aVsignificant impact
p47
aVagriculture
p48
aVclimate corporation
p49
aVwould love
p50
aVtalk
p51
aVindependently
p52
aVdevelop scalable
p53
aVmodel
p54
aVmaking
p55
aVconscious
p56
aVtrade-off
p57
aVmeet
p58
aVconstraint
p59
aVengineering
p60
aVproduct
p61
aVdiscover
p62
aVcommunicate
p63
aVvarious constraint
p64
aVissue
p65
aVvarious
p66
aVagronomic data
p67
aVsource
p68
aVcould
p69
aVimpact
p70
aVengineering
p71
aVproduct
p72
aVscience
p73
aVwork
p74
aVacross
p75
aVteam
p76
aVexpertise
p77
aVas
p78
aVdata science
p79
aVproduct
p80
aVground truth
p81
aVdata
p82
aVlimited
p83
aVbasic qualification
p84
aVcandidate
p85
aVcapable independent
p86
aVresearch
p87
aVyear
p88
aVworking
p89
aVexperience
p90
aVphd degree
p91
aVprogram
p92
aVapplied math
p93
aVstatistic biostatistics
p94
aVcomputer science
p95
aVphysic related
p96
aVquantitative discipline
p97
aV3 year
p98
aVworking
p99
aVexperience
p100
aVmaster degree
p101
aVsimilar field
p102
aVfamiliarity
p103
aVhandling
p104
aVoutlier missing
p105
aVvalue
p106
aVimpact
p107
aVquantitative
p108
aVmodel
p109
aVfamiliarity
p110
aVstatistical software
p111
aVr python
p112
aVscala
p113
aVexperience
p114
aVpartnering
p115
aVcross functional
p116
aVengineering team
p117
aVindustry
p118
aVacademic setting
p119
aVpreferred qualification
p120
aVexperience
p121
aVspatial statistic
p122
aVtime series
p123
aVspatial
p124
aVdata
p125
aVagronomic data
p126
aVmechanical engineering
p127
aVdata
p128
aVexperience
p129
aVkalman filter
p130
aVhidden markov
p131
aVmodel
p132
aVsimilar
p133
aVlatent
p134
aVspace
p135
aVmodel
p136
aVexperience
p137
aVcomplex
p138
aVdata
p139
aVformat
p140
aVdata
p141
aVvarying quality
p142
aVability
p143
aVmodify existing
p144
aVmethod
p145
aVgiven
p146
aVconstraint
p147
aVproblem rather
p148
aVbuilding
p149
aVuniversal
p150
aVhammer
p151
aVstrong communication
p152
aVskill
p153
aVsolicit
p154
aVinformation
p155
aVdomain expert
p156
aVpresent result
p157
aVback
p158
aVdifferent audience
p159
aVability
p160
aVinform
p161
aVlimit
p162
aVtrade-off
p163
aVstakeholder
p164
aVwell
p165
aVpeer
p166
aVcuriosity
p167
aVopen-mind
p168
aVtowards
p169
aVunfamiliar
p170
aVdata source
p171
aVunfamiliar
p172
aVquantitative
p173
aVdomain
p174
aVoffer
p175
aVteam composed
p176
aVindustry
p177
aVexpert
p178
aVtop
p179
aVscientist
p180
aVtalented engineer
p181
aVenvironment extremely
p182
aVengaging fast-paced
p183
aVdozen specialty
p184
aVcoming together
p185
aVprovide
p186
aVbest possible
p187
aVproduct
p188
aVexperience
p189
aVcustomer
p190
aVprovide competitive
p191
aVsalary
p192
aVbest perk
p193
aVindustry
p194
aVincluding
p195
aVsuperb medical
p196
aVdental vision
p197
aVlife
p198
aVdisability
p199
aVbenefit 401k
p200
aVmatching program
p201
aVstocked kitchen
p202
aVlarge assortment
p203
aVsnack drink
p204
aVget day
p205
aVencouragement get
p206
aVoffice
p207
aVfield agent
p208
aVfarmer see
p209
aVfirst-hand product
p210
aVused
p211
aVtake part
p212
aVoffer
p213
aVvarious workshop
p214
aVconference meet-up
p215
aVgroup tech-talks
p216
aVhackathons encourage
p217
aVparticipation growth
p218
aVcommunity involvement
p219
aVcareer development
p220
aValso hinge
p221
aVcultural dna
p222
aVfive value
p223
aVinspire one
p224
aVanother
p225
aVinnovate
p226
aVleave mark
p227
aVworld
p228
aVfind possible
p229
aVimpossible
p230
aVdirect transparent
p231
aVlearn
p232
aVteam
p233
aVmission
p234
aVclimate corporation
p235
aV-
aVtechnology behind
p236
aVmaking difference
p237
aVhttp youtu.be
p238
aVc5tgbpe9ubi
p239
aVli-td1
p240
a.