(lp1
Vsprout's
p2
aVdata
p3
aVteam
p4
aVu
aVcode
p5
aVdata
p6
aVstatistic
p7
aVinform
p8
aVorganization
p9
aVproduct
p10
aVwe're looking
p11
aVoutstanding
p12
aVsr data
p13
aVanalyst join
p14
aVteam
p15
aVcurious
p16
aVdata scientist
p17
aVanalyst
p18
aVengineer
p19
aVcross-functional
p20
aVrole
p21
aVwork extensively
p22
aVdata science
p23
aVmarketing
p24
aVnewly formed
p25
aVoptimization
p26
aVteam
p27
aVdata
p28
aVteam
p29
aVu
aVpython
p30
aVdata
p31
aVstack
p32
aVpanda numpy
p33
aVscikit-learn
p34
aVdrive
p35
aVcompany
p36
aVdecision
p37
aVpower
p38
aVsoftware
p39
aVused
p40
aV17 000
p41
aVbrand
p42
aVaround world
p43
aVcompany
p44
aVlike
p45
aVadobe
p46
aVpivotal
p47
aVlab
p48
aVgoogle
p49
aVmarvel
p50
aVevernote
p51
aVrely
p52
aVsprout
p53
aVcreate
p54
aVstronger
p55
aVrelationship
p56
aVcustomer
p57
aVsocial medium
p58
aVwe're looking
p59
aVcurious
p60
aVanalytical
p61
aVcreative
p62
aVpeople
p63
aVhelp
p64
aVutilize
p65
aVvast amount
p66
aVdata
p67
aVlove
p68
aVfinding way
p69
aVusing
p70
aVdata
p71
aVanswer question
p72
aVsolve problem
p73
aVwe'd love
p74
aVtalk
p75
aVresponsibility include
p76
aVuse
p77
aVrigorous
p78
aVanalysis
p79
aVstatistic
p80
aVgood
p81
aVdeal
p82
aVconsideration
p83
aVhelp u
p84
aVthink
p85
aVfunnel
p86
aVplan
p87
aVanalyze
p88
aVreport
p89
aVsplit
p90
aVtesting
p91
aVexperiment
p92
aVuse
p93
aVdata
p94
aVinform influence
p95
aVproduct roadmaps
p96
aVdepartmental goal
p97
aVbuild tool
p98
aVhelp u
p99
aVmake better
p100
aVdecision
p101
aVautomate
p102
aVanalysis
p103
aVconduct research
p104
aVsurface new
p105
aVopportunity
p106
aVunderstanding
p107
aVdesired skill
p108
aVexperience
p109
aVprobably
p110
aVstudied technical
p111
aVquantitative
p112
aVanalytical
p113
aVfield
p114
aVthroughout school
p115
aVwe're looking
p116
aVleast
p117
aVbachelor's degree
p118
aVequivalent
p119
aVprofessional
p120
aVexperience
p121
aVexperimental design
p122
aVexperience
p123
aVconducting statistical
p124
aVanalysis
p125
aVpython r
p126
aVsomething
p127
aVsimilar
p128
aVeffectively communicate
p129
aVvisually
p130
aVverbally
p131
aVanalysis
p132
aVtechnical non-technical
p133
aVaudience
p134
aVenjoy
p135
aVthinking
p136
aVbusiness
p137
aVproduct
p138
aVdata
p139
aVused inform
p140
aVimprove
p141
aVyou're
p142
aVintellectually curious
p143
aVenjoy
p144
aVlearning
p145
aVyou're
p146
aVself-starter
p147
aVembrace
p148
aVambiguity
p149
aVnice-to-haves
p150
aVwe'd love
p151
aVhear
p152
aVexperience
p153
aVyou've
p154
aVworked
p155
aVamazon web
p156
aVservices'
p157
aVdata
p158
aVproduct
p159
aVelastic mapreduce
p160
aVredshift etc
p161
aVsprout social
p162
aVsprout social
p163
aVpower
p164
aVopen communication
p165
aVindividual
p166
aVbrand
p167
aVcommunity
p168
aVelegant
p169
aVsophisticated
p170
aVsoftware
p171
aVrelentless
p172
aVsolving
p173
aVhard problem
p174
aVcustomer
p175
aVcommitted
p176
aVcustomer
p177
aVteam
p178
aVsuccess
p179
aVteam
p180
aVsprout
p181
aVgroup
p182
aVtalented
p183
aVsmart passionate
p184
aVpeople
p185
aVbroad
p186
aVinterest
p187
aVbackground
p188
aVwe're proud
p189
aVregularly
p190
aVrecognized
p191
aVsoftware
p192
aVproduct
p193
aVcompany culture
p194
aVachievement
p195
aVteam's
p196
aVshared
p197
aVbelief
p198
aVsprout's
p199
aVmission
p200
aVpromotes
p201
aVculture
p202
aVopenness
p203
aVempowerment fun
p204
aVbuilt
p205
aVbenefit
p206
aVprogram
p207
aVmatch
p208
aVstrength
p209
aVteam
p210
aVprogram
p211
aVincludes
p212
aVinsurance benefit
p213
aVoption built
p214
aVindividual family
p215
aVincluding
p216
aVgenerous
p217
aVcompany
p218
aVcontribution
p219
aVprogressive
p220
aVbenefit
p221
aVprogram
p222
aVlike
p223
aVparental leave
p224
aVprogram
p225
aVfree
p226
aVdivvy
p227
aVbike
p228
aVmembership
p229
aVhigh-quality
p230
aVwell-maintained
p231
aVequipment
p232
aV-
aVcomputer
p233
aVnever
p234
aVprevent
p235
aVbest
p236
aVbeautiful
p237
aVconvenient
p238
aVstate-of-the-art
p239
aVoffice
p240
aVchicago's
p241
aVloop
p242
aVsolid
p243
aVprogram
p244
aVstaple
p245
aVtransportation
p246
aVdisability
p247
aVlife insurance
p248
aVwellness
p249
aVinitiative
p250
aVensure
p251
aVhealth
p252
aVfinancial
p253
aVwell-being
p254
aVteam
p255
aVbreakfast lunch
p256
aVoption
p257
aVonsite
p258
aVhealthy snack
p259
aVoption
p260
aVbeverage
p261
aVimagine
p262
aVgrowing
p263
aVcorporate
p264
aVsocial responsibility
p265
aVprogram
p266
aVdriven
p267
aVinvolvement
p268
aVpassion
p269
aVteam member
p270
aVreturn
p271
aVjob listing
p272
a.