(lp1
Vfuture
p2
aVmade
p3
aV- cme
p4
aVgroup
p5
aVworld leading
p6
aVdiverse derivative
p7
aVmarketplace go
p8
aVdeeper impact
p9
aVmarket
p10
aVworldwide transform
p11
aVindustry
p12
aVbuild career
p13
aVshaping tomorrow
p14
aVinvest success
p15
aVworking alongside
p16
aVteam
p17
aVleading
p18
aVexpert
p19
aVinspire way
p20
aVbig
p21
aVsmall
p22
aV2 500
p23
aVemployee
p24
aVlocated around
p25
aVworld
p26
aVsmall enough
p27
aVcontribution known
p28
aVbig enough
p29
aVidea
p30
aVmake impact
p31
aVpace dynamic
p32
aVwork
p33
aVunlike firm
p34
aVbusiness problem
p35
aVsolver difference
p36
aVmaker trailblazer
p37
aVpeople
p38
aVlooking
p39
aVregulatory
p40
aVdata scientist
p41
aVserf dedicated
p42
aVdata
p43
aVanalyst
p44
aVworking
p45
aVnew
p46
aVongoing
p47
aVdata
p48
aVanalysis
p49
aVinitiative within
p50
aVmarket regulation
p51
aVdepartment
p52
aVcandidate
p53
aVresponsible analyzing
p54
aVorder trade
p55
aVposition
p56
aVcase
p57
aVdata
p58
aVmarket regulation
p59
aVdata warehouse
p60
aVdeveloping
p61
aVworking
p62
aVsolution augment
p63
aVextend department
p64
aVanalytical capability
p65
aVregulatory
p66
aVdata scientist
p67
aVplay important
p68
aVrole
p69
aVphase
p70
aVsystem
p71
aVdevelopment lifecycle
p72
aVassist
p73
aVdesign specification
p74
aVnew
p75
aVregulatory
p76
aVdata
p77
aVanalysis
p78
aVsolution
p79
aVcandidate expected
p80
aVbecome subject
p81
aVmatter expert
p82
aVregard regulatory
p83
aVdata
p84
aVapplication
p85
aVanalytical
p86
aVconcept
p87
aVvisualization
p88
aVpurpose
p89
aVidentifying
p90
aVorder messaging
p91
aVtrading pattern
p92
aVensuring regulatory
p93
aVsystem
p94
aVprovide
p95
aVeffective efficient
p96
aVdata
p97
aVanalysis
p98
aVtool
p99
aVprimary responsibility
p100
aVanalyzing complex
p101
aVbusiness
p102
aVdata
p103
aVanalysis
p104
aVissue
p105
aVidentifying proposing
p106
aVeffective
p107
aVsolution
p108
aVdeveloping new
p109
aVcreative
p110
aVanalytical
p111
aVmethod process
p112
aVmine
p113
aVmarket regulation
p114
aVregulatory
p115
aVdata warehouse
p116
aVsupporting
p117
aVvendor
p118
aVapplication
p119
aVproprietary tool
p120
aVused
p121
aVdepartment
p122
aVstaff
p123
aVensure
p124
aVdata
p125
aVcomplete accurate
p126
aVuser
p127
aVable
p128
aVmaximize utility
p129
aVfunctionality provided
p130
aVsystem
p131
aVdeveloping bespoke
p132
aVregulatory
p133
aVdata
p134
aVanalysis
p135
aVreport functioning
p136
aVanalytical solution
p137
aVbased
p138
aVstaff
p139
aVrequest
p140
aVusing
p141
aVcombination
p142
aVcomplex
p143
aVsql excel
p144
aVtechnology
p145
aVpython r
p146
aVcreating implementing
p147
aVnew
p148
aVdata visualization
p149
aVusing tableau
p150
aVworking closely
p151
aVbusiness
p152
aVuser elicit
p153
aVdefine document
p154
aVdetailed
p155
aVbusiness
p156
aVrequirement
p157
aVdata
p158
aVanalysis
p159
aVspecification fully
p160
aVcapture
p161
aVbusiness process
p162
aVaccurately define
p163
aVrequired functionality
p164
aVperforming thorough
p165
aVfunctional
p166
aVtesting
p167
aVregulatory
p168
aVapplication
p169
aVensure
p170
aVimplementation
p171
aVaccurate defect
p172
aVfree
p173
aVapplication
p174
aValgorithm
p175
aVadhere defined
p176
aVrequirement
p177
aVfacilitating effective
p178
aVcommunication
p179
aVacross
p180
aVlevel
p181
aVwithin
p182
aVmarket regulation
p183
aVdepartment
p184
aVthroughout organization
p185
aVregard regulatory
p186
aVsystem functionality
p187
aVdata
p188
aVproviding necessary
p189
aVpost-implementation support
p190
aVtraining
p191
aVdepartment
p192
aVstaff
p193
aVproject
p194
aVanalytical tool
p195
aVmanaging multiple
p196
aVconcurrent
p197
aVanalysis
p198
aVeffort
p199
aVbusiness
p200
aVteam
p201
aVensure on-time
p202
aVdelivery
p203
aVregulatory
p204
aVsystem
p205
aVinitiative
p206
aVestablishing constructive
p207
aVrelationship
p208
aVdevelopment
p209
aVteam
p210
aVensure
p211
aVdeep understanding
p212
aVfunctional requirement
p213
aVbusiness process
p214
aVaffect coding
p215
aVdata
p216
aVmodelling
p217
aVdecision
p218
aVqualification required
p219
aVbachelor degree
p220
aVcomputer science
p221
aVmathematics
p222
aVdata
p223
aVanalytics
p224
aVstatistic
p225
aVinformatics economics
p226
aVsimilar concentration
p227
aVrequired
p228
aVmaster degree
p229
aVone
p230
aVconcentration highly
p231
aVpreferred
p232
aVexpected
p233
aVrelevant
p234
aVdirect
p235
aVwork
p236
aVexperience
p237
aVcurrent enrollment
p238
aVmaster program
p239
aVmay substitute
p240
aVmaster degree
p241
aVcertain case
p242
aVprogramming
p243
aVexperience
p244
aVstrong understanding
p245
aVsql database
p246
aVconcept
p247
aVentry level
p248
aVexperience
p249
aVdata science
p250
aVdata
p251
aVanalytics
p252
aVrelated field
p253
aVworking knowledge
p254
aVprogramming language
p255
aVr python
p256
aVvba perl
p257
aVq
aVexcellent
p258
aVproblem solving
p259
aVskill ability
p260
aVquickly learn
p261
aVunderstand
p262
aVapply
p263
aVbusiness
p264
aVtechnology
p265
aVconcept
p266
aVexcellent written
p267
aVverbal communication
p268
aVskill
p269
aVstrong knowledge
p270
aVmicrosoft office
p271
aVparticularly microsoft
p272
aVexcel
p273
aVability work
p274
aVindividual
p275
aVlevel
p276
aVwithin outside
p277
aVorganization
p278
aVpreferred
p279
aVcandidate would
p280
aValso
p281
aVdemonstrate following
p282
aVskill
p283
aVknowledge
p284
aVset
p285
aVknowledge derivative
p286
aVtrading clearing
p287
aVregulatory compliance
p288
aVexposure
p289
aVagile crisp-dm
p290
aVtraditional
p291
aVsoftware development
p292
aVmethodology
p293
aValong
p294
aVunderstanding
p295
aVrole
p296
aVbusiness
p297
aVanalysis
p298
aVsystem
p299
aVdevelopment
p300
aVproject management
p301
aVunderstanding
p302
aVmachine learning
p303
aVstatistical analysis
p304
aVexperience
p305
aVdata visualization
p306
aVtool tableau
p307
aVd3
p308
aVexcellent
p309
aVcustomer
p310
aVservice
p311
aVoutstanding communication
p312
aVinterpersonal skill
p313
aVjob scraped
p314
aVurl http
p315
aVch.tbe.taleo.net r
p316
aVfeed
p317
a.