(lp1
Vdescription
p2
aVdata scientist
p3
aVcanbe
p4
aVlocated carmel
p5
aVatlanta ga
p6
aV30 travel
p7
aVcarmel
p8
aVdata scientist
p9
aVwillgather
p10
aVanalyze
p11
aVdata
p12
aVsolve address
p13
aVhighly complex
p14
aVfinancial
p15
aVriskbusiness
p16
aVproblem
p17
aVevaluate scenario
p18
aVmake prediction
p19
aVfuture
p20
aVoutcomesand
p21
aVprovide
p22
aVpredictive prescriptive
p23
aVsolution
p24
aVsupport
p25
aVdecision making.the
p26
aVdata scientist
p27
aVinvolved phase
p28
aVfinancial
p29
aVanalyticprojects
p30
aVincluding
p31
aVquestion formulation
p32
aVdesign
p33
aVresearch development
p34
aVproofs-of-concept prototype
p35
aVimplementation testing
p36
aVassist
p37
aVwithspecial
p38
aVstudy
p39
aVanalysis
p40
aVunique
p41
aVbusiness problem
p42
aVscenarios.proactively
p43
aVidentify
p44
aValgorithm
p45
aVproduct
p46
aVhigh intellectual
p47
aVpropertycontent
p48
aVevaluate potential
p49
aVpatent appropriate
p50
aVassist
p51
aVinpatent
p52
aVapplication
p53
aVensure intellectual
p54
aVproperty protection
p55
aVcoxautomotive
p56
aVspecificresponsibilities
p57
aVinclude limited
p58
aVindependently
p59
aVcreate
p60
aVandformulate
p61
aVmathematical model
p62
aVusing advanced
p63
aVanalytical
p64
aVmethod descriptive
p65
aVpredictive prescriptive
p66
aVmathematical modeling
p67
aVdesign
p68
aVcreateadvanced
p69
aVvalue-based model
p70
aVsupport
p71
aVproduct
p72
aVpricing risk
p73
aVassessment
p74
aVquantitative finance
p75
aVrevenue optimization
p76
aVdesign
p77
aVdeveloprisk-based
p78
aVmodel
p79
aVanalytics
p80
aVdesign develop
p81
aVandimplement
p82
aVmathematical model
p83
aVrelevant
p84
aVcomputer programming
p85
aVlanguage
p86
aVandenvironment
p87
aVindependently
p88
aVidentifyand
p89
aVdefine
p90
aVrequired
p91
aVdata
p92
aVcollaborate
p93
aVinformation technology
p94
aVcolleague
p95
aVbusiness owner
p96
aVapproved third-party
p97
aVvendor stakeholder
p98
aVinacquiring
p99
aVunderstanding
p100
aVdata
p101
aVused
p102
aVsupport
p103
aVmathematical model
p104
aVindependently
p105
aVevaluateand
p106
aVas third-party
p107
aVvendor consultants'
p108
aVmathematical model
p109
aVforaccuracy
p110
aVrelevance cox
p111
aVautomotive
p112
aVproduct service
p113
aVwhereappropriate
p114
aVdevelop statements-of-work
p115
aVprovide
p116
aVvalidation oversight
p117
aVforthird-party
p118
aVdeliverable
p119
aVpredictive prescriptive
p120
aVsolution
p121
aVverify validate
p122
aVandtest
p123
aVmodel accuracy
p124
aVadequacy relevance
p125
aVsolving
p126
aVbusiness problem
p127
aVreformulate model
p128
aVneeded
p129
aVmeet changing
p130
aVbusiness
p131
aVrequirement
p132
aVdevelopment research
p133
aVexploration area
p134
aVstatistic machine
p135
aVlearning
p136
aVexperimentaldesign
p137
aVoperational
p138
aVresearch
p139
aVresearch
p140
aVevaluatenew
p141
aVanalytical methodology
p142
aVapproach
p143
aVsolution
p144
aVanalyze
p145
aVcustomer
p146
aVandeconomic
p147
aVtrend
p148
aVimpact
p149
aVbusiness
p150
aVperformance recommend
p151
aVway
p152
aVimproveoutcomes
p153
aVdeveloping
p154
aVbest-in-classpredictive
p155
aVprescriptive model
p156
aVdecision
p157
aVtool
p158
aVaddress businessneeds
p159
aVdesign
p160
aVdeploydata-science
p161
aVtechnology
p162
aVbased algorithmic
p163
aVsolution address
p164
aVbusinessneeds
p165
aVcox automotive
p166
aVidentify understand
p167
aVandevaluate
p168
aVnew
p169
aVcommerce analytic
p170
aVdata
p171
aVtechnology
p172
aVdetermine
p173
aVtheeffectiveness
p174
aVsolution feasibility
p175
aVintegration
p176
aVcoxautomotive's
p177
aVcurrent
p178
aVplatform
p179
aVcommunicate finding
p180
aVtoteam
p181
aVleadership
p182
aVensure successful
p183
aVimplementation
p184
aVproject
p185
aVbusiness process
p186
aVcooperatively work
p187
aVwithteam
p188
aVmember
p189
aVwithin department
p190
aVqualification required
p191
aVexperience
p192
aVandqualifications
p193
aVmust
p194
aVleast
p195
aV10years'
p196
aVexperience performing
p197
aVadvanced
p198
aVquantitative analysis
p199
aVability manipulate
p200
aVanalyzes interpret
p201
aVterabyte data
p202
aVability organize
p203
aVfindingsand
p204
aVtranslate actionable
p205
aVinsight
p206
aVusing original
p207
aVinnovative
p208
aVtechniquesor
p209
aVstyle
p210
aVability
p211
aVapplyadvanced
p212
aVstatistical methodology
p213
aVmixed model
p214
aVrandom
p215
aVfixedeffects
p216
aVsimultaneous equation
p217
aVarima neural
p218
aVnetwork
p219
aVmultinomialdiscrete
p220
aVchoice
p221
aVability apply
p222
aVmathematical
p223
aVoperation
p224
aVtask
p225
aVascluster
p226
aVanalytics
p227
aVsampling theory
p228
aVdesign experiment
p229
aVanalysis
p230
aVofvariance
p231
aVcorrelation technique
p232
aVfactor analysis
p233
aVability
p234
aVdesign andapply
p235
aVadvanced
p236
aVoptimization
p237
aVmethodology linear
p238
aVmixed
p239
aVintegeroptimization
p240
aVability
p241
aVdesign andapply
p242
aVadvanced
p243
aVsimulation modeling
p244
aVmethodology
p245
aVtechnique
p246
aVutilize
p247
aVcomplex
p248
aVcomputeroperations
p249
aVintermediate programming
p250
aV3rd 4th
p251
aVgeneration
p252
aVlanguage
p253
aVrelational database
p254
aVoperating system
p255
aVadvanced
p256
aVfeature
p257
aVsoftwarepackages
p258
aVword-processing spreadsheet
p259
aVgraphic etc
p260
aVintermediate
p261
aVadvancedexperience
p262
aVstatistical software
p263
aVe.g. r
p264
aVsa spss
p265
aVdatabaseapplications
p266
aVworking knowledge
p267
aVsasstrongly
p268
aVdesired
p269
aVrelational
p270
aVdatabaseexperience
p271
aVstrongly desired
p272
aVstrong passion
p273
aVforempirical
p274
aVresearch answering
p275
aVhard question
p276
aVdata
p277
aVexperience workingwith
p278
aVexecutive
p279
aVstrategic planning
p280
aVdepartment
p281
aVset
p282
aVmanage
p283
aVtocorporate
p284
aVlevel
p285
aVstrategy
p286
aVplus
p287
aVexperience
p288
aVbusinesssupport
p289
aVsoftware application
p290
aVm office
p291
aVword powerpoint
p292
aVexcel
p293
aVproject visio
p294
aVvisual sourcesafe
p295
aVetc
p296
aVrequired education
p297
aVrequirement
p298
aVm.s ph.d.
p299
aVmath operation
p300
aVresearch
p301
aVstatistic computer
p302
aVscience engineering
p303
aVeconometrics computational
p304
aVfinance similar
p305
aVhighly
p306
aVquantitative field
p307
aVcox automotive
p308
aVinc transforming
p309
aVway world
p310
aVbuy sell
p311
aVandowns
p312
aVcar industry-leading
p313
aVdigital marketing
p314
aVsoftware
p315
aVfinancial wholesale
p316
aVe-commerce solution
p317
aVconsumer dealer
p318
aVmanufacturer
p319
aVandthe
p320
aVoverall automotive
p321
aVecosystem worldwide
p322
aVcommitted
p323
aVopen choice
p324
aVanddedicated
p325
aVstrong partnership
p326
aVcox automotive
p327
aVfamily includes
p328
aVmanheim autotrader
p329
aVkelley blue
p330
aVbook dealertrack
p331
aVvauto xtime
p332
aVnextgear
p333
aVcapitaland
p334
aVhost brand
p335
aVglobal
p336
aVcompany
p337
aVnearly 30
p338
aV000
p339
aVteam
p340
aVmembersin
p341
aV200 location
p342
aVpartner 40
p343
aV000 auto
p344
aVdealer
p345
aVaswell
p346
aVmajor automobile
p347
aVmanufacturer engaging
p348
aVu.s. consumer
p349
aVcarbuyers
p350
aVrecognized medium
p351
aVbrand
p352
aVindustry cox
p353
aVautomotive
p354
aVisa
p355
aVsubsidiary cox
p356
aVenterprise
p357
aVorganization
p358
aVcox automotive
p359
aVprimary location
p360
aVus-in-carmel-11799 n
p361
aVcollege ave
p362
aVlocation
p363
aV1001 summit
p364
aVblvd u
p365
aVga atlanta
p366
aV30319-6417
p367
aVemployee
p368
aVstatus
p369
aVregular
p370
aVjob
p371
aVlevel
p372
aVindividual contributor
p373
aVshift day
p374
aVjob
p375
aVtravel yes
p376
aV25 time
p377
aVschedule full-time
p378
aVunposting date
p379
aVongoing
p380
a.