(lp1
Vnorthrop grumman
p2
aVmission
p3
aVsystem
p4
aVsector looking
p5
aVtop
p6
aVindustry
p7
aVtalent
p8
aVsupport
p9
aVmission
p10
aVassurance
p11
aVdata
p12
aVanalytics
p13
aVtool
p14
aVmetric
p15
aVteam
p16
aVlocated baltimore
p17
aVmd
p18
aVwork
p19
aVlocation
p20
aVflexible full-time
p21
aVtelecommuting option
p22
aVavailable
p23
aVdata scientist
p24
aV5
aVsupport
p25
aVwide range
p26
aVadvanced analytics
p27
aVinitiative
p28
aVrequires
p29
aVsolution-based
p30
aVorientation
p31
aVunwavering
p32
aVethic
p33
aVvalue
p34
aVdemonstrated ability
p35
aVtrusted partner
p36
aVsuccessful candidate
p37
aVmust demonstrate
p38
aVproven track
p39
aVrecord solving
p40
aVcomplex problem
p41
aVdata scientist
p42
aV5
aVlead
p43
aVsupport
p44
aVdevelopment
p45
aVdata
p46
aVanalytics
p47
aVsystem
p48
aVcollect analyze
p49
aVdata
p50
aVfacilitate
p51
aVdata triage
p52
aVextraction transformation
p53
aVloading perform
p54
aVstatistical qualitative
p55
aVanalysis
p56
aVdefine
p57
aVtechnical
p58
aVstrategy
p59
aVpresent
p60
aVapproach
p61
aVresult
p62
aVinterface
p63
aVcustomer
p64
aVadditional responsibility
p65
aVfollows
p66
aVdevelops
p67
aVdata
p68
aVanalytics
p69
aVsystem
p70
aVsupport ngms
p71
aVobjective
p72
aVutilizes
p73
aVmachine learning
p74
aValgorithm
p75
aVmay include
p76
aVbelief network
p77
aVhidden markov
p78
aVmodel
p79
aVartificial immune
p80
aVsystem gaussian
p81
aVmixture model
p82
aVdecision tress
p83
aVgraph theory
p84
aVinformation geometry
p85
aVgenetic algorithm
p86
aVbasic
p87
aVstatistical analysis
p88
aVtest
p89
aValgorithm
p90
aVlarge small
p91
aVdata set
p92
aVincluding
p93
aVtextual numeric
p94
aVtemporal symbolic
p95
aVdata
p96
aVemploy
p97
aVrelevant
p98
aVanalytics
p99
aVcot product
p100
aVprogram
p101
aVjava javascript
p102
aVr
aVcollaborates stakeholder
p103
aVdevelop
p104
aVsolution
p105
aVproblem
p106
aVpotential
p107
aVproblem
p108
aVinterface
p109
aVcustomer
p110
aVconsumer
p111
aVdevelop
p112
aVsystem
p113
aVrequirement
p114
aVmaqea
p115
aVbasic qualification
p116
aVb.s. degree
p117
aVrelated
p118
aVstem field
p119
aVplus combined
p120
aV15 year
p121
aVprofessional
p122
aVexperience
p123
aVfollowing area
p124
aVdata
p125
aVanalytics
p126
aVsystem
p127
aVdevelopment
p128
aVsoftware engineering
p129
aVsystem integration
p130
aVdemonstrated success
p131
aVdeveloping
p132
aVmachine learning
p133
aValgorithm
p134
aVexperience
p135
aVusing
p136
aVpredictive modeling
p137
aVunderstanding
p138
aVdata storage
p139
aVretrieval
p140
aVtechnique
p141
aVetl
p142
aVdatabase sql
p143
aVnosql
p144
aVdemonstrated ability
p145
aVprogramming
p146
aVjava javascript
p147
aVr
aVsystem engineering
p148
aVknowledge
p149
aVability
p150
aVdesign
p151
aVdata storage
p152
aVmanagement
p153
aVsystem
p154
aVsupport
p155
aVanalytics
p156
aVsystem integration
p157
aVexperience
p158
aVstrong communication
p159
aVpresentation skill
p160
aVpreferred qualification
p161
aVrelevant m.s.
p162
aVph.d. degree
p163
aVability
p164
aVincorporate user
p165
aVexperience
p166
aVprinciple
p167
aVsystem
p168
aVdisplay
p169
aVdevelopment
p170
aVsystem engineering
p171
aVexperience
p172
aVinformation
p173
aVgovernance
p174
aVexperience
p175
aVbig data
p176
aVdata science
p177
aVexperience
p178
aVuser experience
p179
aVdesign
p180
aVsystem
p181
aVdevelopment
p182
aVability obtain
p183
aVt ssbi
p184
aVclearance active
p185
aVt ssbi
p186
aVclearance
p187
aVnorthrop grumman
p188
aVcommitted hiring
p189
aVretaining diverse
p190
aVworkforce proud
p191
aVequal opportunity
p192
aVaffirmative action
p193
aVemployer making
p194
aVdecision without
p195
aVregard race
p196
aVcolor religion
p197
aVcreed sex
p198
aVsexual orientation
p199
aVgender identity
p200
aVmarital status
p201
aVnational origin
p202
aVage veteran
p203
aVstatus disability
p204
aVprotected class
p205
aVcomplete eeo
p206
aVaa pay
p207
aVtransparency statement
p208
aVplease visit
p209
aVwww.northropgrumman.com eeo
p210
aVu.s. citizenship
p211
aVrequired
p212
aVposition
p213
a.