(lp1
Vcenter excellence
p2
aVsurvey research
p3
aVcesr norc
p4
aVuniversity chicago
p5
aVseek highly
p6
aVmotivated candidate
p7
aVlevel eager
p8
aVjoin vibrant
p9
aVgrowing
p10
aVgroup
p11
aVbring
p12
aVdata
p13
aVscientific
p14
aVstatistical
p15
aVexpertise
p16
aVsenior statistician
p17
aVoversee offer
p18
aVexpertise
p19
aVstatistical analysis
p20
aVactivity small
p21
aVarea estimation
p22
aVcausal inference
p23
aVhierarchical linear
p24
aVmodeling experimental
p25
aVquasi-experimental design
p26
aVclinical trial
p27
aVbiostatistical analysis
p28
aVposition requires
p29
aVstrong
p30
aVproject
p31
aVbusiness
p32
aVdevelopment
p33
aVleadership skill
p34
aVsenior statistician
p35
aVph.d. statistic
p36
aVrelated field
p37
aVplus five
p38
aVyear
p39
aVwork
p40
aVexperience
p41
aVstatistic
p42
aVincluding
p43
aVleast 3
p44
aVyear
p45
aVsimilar
p46
aVwork environment
p47
aVcombination
p48
aVequivalent education
p49
aVwork
p50
aVexperience
p51
aVmay substituted
p52
aVrequirement
p53
aVstatistician
p54
aVoffer
p55
aVwide range
p56
aVstatistical
p57
aVexpertise
p58
aVincluding
p59
aVstatistical analysis
p60
aVmodeling
p61
aVmatching small
p62
aVarea estimation
p63
aVbayesian
p64
aVanalysis
p65
aVcandidate hold
p66
aVph.d. statistic
p67
aVbiostatistics equivalent
p68
aVcombination education
p69
aVexperience
p70
aVposition require
p71
aVdocumented experience
p72
aVstatistical software
p73
aVsa r
p74
aVstata
p75
aVsenior
p76
aVdata scientist
p77
aVemploy
p78
aVknowledge
p79
aVpredictive analytics
p80
aVmethod
p81
aVdata mining
p82
aVlead
p83
aVcompany
p84
aVdevelopment
p85
aVstandard
p86
aVdata science
p87
aVdesign develop
p88
aVdeploy data-driven
p89
aVpredictive model
p90
aVsolve problem
p91
aVusing
p92
aVtechnology
p93
aVdata mining
p94
aVstatistical modeling
p95
aVanalytics
p96
aVplatform
p97
aVbusiness intelligence
p98
aVresponsibility include
p99
aVadvising management
p100
aVgap
p101
aVcompany
p102
aVcurrent
p103
aVtechnical
p104
aVcapability recommending
p105
aVplan
p106
aVgrowth
p107
aVmentoring
p108
aVprofessional development
p109
aVnew existing
p110
aVstaff
p111
aVfield
p112
aVdata science
p113
aVsenior
p114
aVdata scientist
p115
aVstrong
p116
aVstatistical
p117
aVbackground 5-7
p118
aVyear experience
p119
aVdata mining
p120
aVpredictive modeling
p121
aVanother
p122
aVdata intensive
p123
aVanalytical
p124
aVrole
p125
aVmaster higher
p126
aVdegree computer
p127
aVscience
p128
aVinformation
p129
aVservice
p130
aVmathematics statistic
p131
aVeconomics public
p132
aVpolicy
p133
aVoperation research
p134
aVrelated discipline
p135
aVexperience working
p136
aVlarge-scale database
p137
aVbig data
p138
aVframework
p139
aVexperience
p140
aVsa r
p141
aVsql
p142
aVbusiness intelligence
p143
aVtool
p144
aVexperience
p145
aVanalytical
p146
aVvisualization
p147
aVknowledge modern
p148
aVprogramming language
p149
aVjava c
p150
aVperl highly
p151
aVdesirable
p152
aVdata scientist
p153
aVapply
p154
aVdata mining
p155
aVstatistical modeling
p156
aVanalytics
p157
aVplatform
p158
aVbusiness intelligence
p159
aVsolve problem
p160
aVanswer question
p161
aVclient
p162
aVemploy wide
p163
aVarray
p164
aVadvanced
p165
aVdata mining
p166
aVtechnique
p167
aVsupport
p168
aVresearch
p169
aVoperational
p170
aVanalytic
p171
aVproject
p172
aVresponsibility include
p173
aVcontributing methodological
p174
aVstandard
p175
aVsupporting
p176
aVbusiness
p177
aVdevelopment activity
p178
aVcompany
p179
aVdata mining
p180
aVpredictive analytics
p181
aVcapability
p182
aVcandidate
p183
aVstrong
p184
aVstatistical
p185
aVbackground
p186
aV3 year
p187
aVexperience
p188
aVapplied
p189
aVdata mining
p190
aVpredictive modeling
p191
aVanother
p192
aVdata intensive
p193
aVanalytical
p194
aVrole
p195
aVbachelor higher
p196
aVdegree computer
p197
aVscience
p198
aVinformation
p199
aVservice
p200
aVmathematics statistic
p201
aVeconomics public
p202
aVpolicy
p203
aVoperation research
p204
aVrelated discipline
p205
aVexperience
p206
aVsa r
p207
aVsql
p208
aVbusiness intelligence
p209
aVtool
p210
aVexperience
p211
aVanalytical
p212
aVvisualization
p213
aVknowledge modern
p214
aVprogramming language
p215
aVjava c
p216
aVperl highly
p217
aVdesirable
p218
aVstatistical
p219
aVanalyst
p220
aVcontribute variety
p221
aVstatistical
p222
aVactivity including
p223
aVsampling survey
p224
aVanalysis regression
p225
aVstatistical modeling
p226
aVexperimental design
p227
aVbayesian method
p228
aVdata mining
p229
aVpredictive modeling
p230
aVanalyst
p231
aVknowledge
p232
aVstatistical method
p233
aVmaster degree
p234
aVquantitative discipline
p235
aVstatistic biostatistics
p236
aVmathematics
p237
aVsurvey methodology
p238
aVeconomics
p239
aVinformation system
p240
aVdata
p241
aVanalytics
p242
aVrelated field
p243
aVbachelor degree
p244
aVone
p245
aVfield four
p246
aVyear relevant
p247
aVexperience
p248
aVexperience
p249
aVsa r
p250
aVstata
p251
aVstatistical assistant
p252
aVprovide
p253
aVprogramming
p254
aVresearch
p255
aVproject management
p256
aVsupport
p257
aVsurvey sampling
p258
aVstatistical
p259
aVresearch
p260
aVproject
p261
aVprogramming
p262
aVactivity include
p263
aVwriting
p264
aVsa
p265
aVprogram
p266
aVselect sample
p267
aVcalculate weight
p268
aVimpute missing
p269
aVdata
p270
aVperforming
p271
aVdata
p272
aVanalysis
p273
aVusing
p274
aVsa stata
p275
aVr sudaan
p276
aVstatistical package
p277
aVproducing descriptive
p278
aVstatistic
p279
aVtable
p280
aVresearch
p281
aVduty may
p282
aVinclude assisting
p283
aVwriting
p284
aVreport memo
p285
aVperforming literature
p286
aVreview
p287
aVproject management
p288
aVtask involve
p289
aVtracking
p290
aVfinancial
p291
aVprogress
p292
aVproject
p293
aVusing
p294
aVexcel preparing
p295
aVreport attending
p296
aVmonthly
p297
aVproject
p298
aVreview assisting
p299
aVbudgeting contract
p300
aVproposal
p301
aVstatistical assistant
p302
aVbachelor's degree
p303
aVexcellent academic
p304
aVrecord
p305
aVincluding
p306
aVcourse
p307
aVstatistic mathematics
p308
aVcomputer science
p309
aVsocial science
p310
aVacademic
p311
aVwork
p312
aVexperience performing
p313
aVdata
p314
aVanalysis
p315
aVusing statistical
p316
aVcomputer
p317
aVpackage
p318
aVexpress interest
p319
aVcesr opportunity
p320
aVnorc please
p321
aVsubmit cv
p322
aVcover letter
p323
aVdescribing career
p324
aVobjective
p325
aVnorc
p326
aVtradition excellence
p327
aVone oldest
p328
aVnot-for-profit academic
p329
aVresearch
p330
aVorganization
p331
aVunited state
p332
aVaffiliation university
p333
aVchicago norc
p334
aVmaintains highest
p335
aVstandard
p336
aVprofessional
p337
aVexcellence scientific
p338
aVrigor committed
p339
aVbroad dissemination
p340
aVfinding
p341
aVpassion innovation
p342
aVnorcs subject
p343
aVmatter expert
p344
aVsurvey professional
p345
aVdevelop
p346
aVemploy
p347
aVinnovative
p348
aVstudy design
p349
aVresearch
p350
aVmethod
p351
aVtechnical
p352
aVapplication
p353
aVderive meaningful
p354
aVaccurate
p355
aVresult
p356
aVcommitment collegiality
p357
aVnorc cultivates
p358
aVinterdisciplinary culture
p359
aVachievement senior
p360
aVinvestigator diverse
p361
aVfield
p362
aVprofessional
p363
aVbackground
p364
aVcollaborate
p365
aVnext generation
p366
aVresearcher open
p367
aVcollegial environment
p368
aVnorc offer
p369
aVcomprehensive compensation
p370
aVbenefit package
p371
aVincluding
p372
aVpaid time
p373
aVholiday pay
p374
aVmedical dental
p375
aVcoverage
p376
aVlife insurance
p377
aVshort long-term
p378
aVdisability insurance
p379
aV403 b
p380
aVretirement plan
p381
aVtuition assistance
p382
aVnorc affirmative
p383
aVaction equal
p384
aVopportunity employer
p385
aVvalue
p386
aVactively seek
p387
aVdiversity workforce
p388
aVnorc evaluates
p389
aVqualified applicant
p390
aVwithout regard
p391
aVrace color
p392
aVreligion sex
p393
aVnational origin
p394
aVdisability veteran
p395
aVstatus sexual
p396
aVorientation gender
p397
aVidentity legally-
p398
aVprotected characteristic
p399
a.