(lp1
Vjob description
p2
aVus predictive
p3
aVmodeling
p4
aVstatistic machine
p5
aVlearning
p6
aVdata mining
p7
aVdata
p8
aVanalysis
p9
aVtechnique collect
p10
aVexplore extract
p11
aVinsight
p12
aVstructure unstructured
p13
aVdata
p14
aVdevelop
p15
aVsoftware
p16
aValgorithm
p17
aVapplication
p18
aVapply
p19
aVmathematics
p20
aVdata
p21
aVperform
p22
aVlarge scale
p23
aVexperimentation build
p24
aVdata
p25
aVdriven apps
p26
aVtranslate
p27
aVdata
p28
aVintelligence
p29
aVsolve variety
p30
aVbusiness problem
p31
aVenable business
p32
aVstrategy assist
p33
aVbusiness casual
p34
aVinference observation
p35
aVfinding pattern
p36
aVrelationship
p37
aVdata
p38
aVmust posse
p39
aVstrong understanding
p40
aVinternal
p41
aVbusiness segment
p42
aVstakeholder posse
p43
aVstrong written
p44
aVcommunication skill
p45
aVtypically requires
p46
aVexpertise
p47
aVrelational database
p48
aVstructure
p49
aVresearch
p50
aVmethod
p51
aVmachine learning
p52
aVcloud based
p53
aVtechnology
p54
aVbig data
p55
aVtechnology i.e.
p56
aVhadoop hbase
p57
aVlucene solr
p58
aVanalytics
p59
aVpackage i.e.
p60
aVr mahout
p61
aVmatlab octave
p62
aVweka scripting
p63
aVlanguage i.e.
p64
aVpython perl
p65
aVprograming language
p66
aVi.e. java
p67
aVc c++
p68
aVsql typically
p69
aVposse advanced
p70
aVdegree computer
p71
aVscience mathematics
p72
aVmachine learning
p73
aVoperation research
p74
aVstatistic equivalent
p75
aVexpertise
p76
aVresponsibility
p77
aVmay include
p78
aVlimited
p79
aV+
aVdeveloping software
p80
aValgorithm
p81
aVapplication
p82
aVapply
p83
aVmathematics
p84
aVdata
p85
aV+
aVperform
p86
aVlarge scale
p87
aVexperimentation build
p88
aVdata
p89
aVdriven apps
p90
aVtranslate
p91
aVdata
p92
aVintelligence
p93
aV+
aVsolve variety
p94
aVbusiness problem
p95
aVenable business
p96
aVstrategy
p97
aV+
aVassist
p98
aVbusiness casual
p99
aVinference observation
p100
aVfinding pattern
p101
aVrelationship
p102
aVdata
p103
aVqualification
p104
aVus predictive
p105
aVmodeling
p106
aVstatistic machine
p107
aVlearning
p108
aVdata mining
p109
aVdata
p110
aVanalysis
p111
aVtechnique collect
p112
aVexplore extract
p113
aVinsight
p114
aVstructure unstructured
p115
aVdata
p116
aVdevelop
p117
aVsoftware
p118
aValgorithm
p119
aVapplication
p120
aVapply
p121
aVmathematics
p122
aVdata
p123
aVperform
p124
aVlarge scale
p125
aVexperimentation build
p126
aVdata
p127
aVdriven apps
p128
aVtranslate
p129
aVdata
p130
aVintelligence
p131
aVsolve variety
p132
aVbusiness problem
p133
aVenable business
p134
aVstrategy assist
p135
aVbusiness casual
p136
aVinference observation
p137
aVfinding pattern
p138
aVrelationship
p139
aVdata
p140
aVmust posse
p141
aVstrong understanding
p142
aVinternal
p143
aVbusiness segment
p144
aVstakeholder posse
p145
aVstrong written
p146
aVcommunication skill
p147
aVtypically requires
p148
aVexpertise
p149
aVrelational database
p150
aVstructure
p151
aVresearch
p152
aVmethod
p153
aVmachine learning
p154
aVcloud based
p155
aVtechnology
p156
aVbig data
p157
aVtechnology i.e.
p158
aVhadoop hbase
p159
aVlucene solr
p160
aVanalytics
p161
aVpackage i.e.
p162
aVr mahout
p163
aVmatlab octave
p164
aVweka scripting
p165
aVlanguage i.e.
p166
aVpython perl
p167
aVprograming language
p168
aVi.e. java
p169
aVc c++
p170
aVsql typically
p171
aVposse advanced
p172
aVdegree computer
p173
aVscience mathematics
p174
aVmachine learning
p175
aVoperation research
p176
aVstatistic equivalent
p177
aVexpertise
p178
aVresponsibility
p179
aVmay include
p180
aVlimited
p181
aV-
aVdeveloping software
p182
aValgorithm
p183
aVapplication
p184
aVapply
p185
aVmathematics
p186
aVdata
p187
aV-
aVperform
p188
aVlarge scale
p189
aVexperimentation build
p190
aVdata
p191
aVdriven apps
p192
aVtranslate
p193
aVdata
p194
aVintelligence
p195
aV-
aVsolve variety
p196
aVbusiness problem
p197
aVenable business
p198
aVstrategy
p199
aV-
aVassist
p200
aVbusiness casual
p201
aVinference observation
p202
aVfinding pattern
p203
aVrelationship
p204
aVdata
p205
aVmust posse
p206
aVminimum qualification
p207
aVinitially considered
p208
aVposition
p209
aVexperience
p210
aVlisted would
p211
aVobtained combination
p212
aVschool
p213
aVwork
p214
aVclass
p215
aVresearch
p216
aVrelevant previous
p217
aVjob internship
p218
aVexperience
p219
aVminimum requirement
p220
aV-
aVcandidate must
p221
aVposse
p222
aVm degree
p223
aVcomputer science
p224
aVcomputer engineering
p225
aVrelated field
p226
aVstudy
p227
aVminimum
p228
aV-
aV6 month
p229
aVexperience
p230
aVmachine learning
p231
aVsupervised unsupervised
p232
aVlearning-spark
p233
aVpython r
p234
aVscala sa
p235
aVbig data
p236
aVarchitecture
p237
aVinside business
p238
aVgroup
p239
aVworld's largest
p240
aVchip manufacturer
p241
aVintel strives
p242
aVmake
p243
aVevery facet
p244
aVsemiconductor manufacturing
p245
aVstate-of-the-art
p246
aV-
aVsemiconductor process
p247
aVdevelopment manufacturing
p248
aVyield improvement
p249
aVpackaging final
p250
aVtest
p251
aVoptimization
p252
aVworld class
p253
aVsupply chain
p254
aVfacility
p255
aVsupport
p256
aVemployee
p257
aVtechnology
p258
aVmanufacturing
p259
aVgroup
p260
aVpart
p261
aVworldwide
p262
aVnetwork
p263
aVdesign development
p264
aVmanufacturing assembly
p265
aVtest
p266
aVfacility
p267
aVfocused
p268
aVutilizing
p269
aVpower
p270
aVmoore
p271
aVlaw
p272
aVbring
p273
aVsmart connected
p274
aVdevice
p275
aVevery person
p276
aVearth
p277
aVlocation
p278
aVoregon hillsboro
p279
aVcalifornia santa
p280
aVclara california
p281
aVfolsom
p282
aVposting statement
p283
aVintel prohibits
p284
aVdiscrimination based
p285
aVrace color
p286
aVreligion gender
p287
aVnational origin
p288
aVage disability
p289
aVveteran status
p290
aVmarital status
p291
aVpregnancy gender
p292
aVexpression identity
p293
aVsexual orientation
p294
aVlegally protected
p295
aVstatus
p296
a.