(lp1
Vpart
p2
aVnew
p3
aVteam
p4
aVleading way
p5
aVleverage
p6
aVbig data
p7
aValliant energy
p8
aVcreated
p9
aVnew
p10
aVteam
p11
aVlead
p12
aVtransformation
p13
aVleverage
p14
aVdata
p15
aVachieve
p16
aVstrategic objective
p17
aVdata scientist
p18
aVresponsible
p19
aVdiscovering
p20
aVactionable insight
p21
aVhidden vast
p22
aVamount data
p23
aVuse
p24
aVdata
p25
aVintegration
p26
aVdata
p27
aVmodeling
p28
aVstatistical
p29
aVvisualization technique
p30
aVenable better
p31
aVdecision making
p32
aVrole
p33
aVpart
p34
aVdeveloping
p35
aVanalytic
p36
aVprogram
p37
aVdefining
p38
aVnew
p39
aVprocess
p40
aVsupport
p41
aVanalytics
p42
aVestablishing
p43
aVinfrastructure
p44
aVneeded
p45
aVenable
p46
aVanalytics
p47
aVrole
p48
aVoffer
p49
aVcreativity innovation
p50
aVleadership
p51
aVchallenging
p52
aVwork
p53
aVexploring
p54
aVmultiple
p55
aVdata
p56
aVfacet
p57
aVsolution
p58
aVhelp u
p59
aVunlock
p60
aVvalue
p61
aVdata
p62
aVconsidering
p63
aVopportunity
p64
aValliant energy
p65
aVapplication
p66
aVaccepted
p67
aVqualified
p68
aVpool
p69
aVcandidate
p70
aVreceived
p71
aVjob responsibility
p72
aVdesign experiment
p73
aVtest hypothesis
p74
aVbuild
p75
aVmodel
p76
aVsolve
p77
aVanalytics
p78
aVproblem
p79
aVcommunicates result
p80
aVmethodology
p81
aVcustomer
p82
aVwork
p83
aVkey stakeholder
p84
aVdefine
p85
aVuse case
p86
aVrequirement
p87
aVensure
p88
aVresult
p89
aVmeaningful
p90
aVenable improved
p91
aVdecision making
p92
aVwork
p93
aVbusiness
p94
aVas
p95
aVvalidity
p96
aVdata
p97
aVachieve
p98
aVminimum
p99
aVlevel
p100
aVquality
p101
aVcombine
p102
aVmultiple
p103
aVdata source
p104
aVinternal external
p105
aVlead
p106
aVchange
p107
aVapplies
p108
aVchange management
p109
aVprinciple
p110
aVdrive
p111
aVcultural
p112
aVtransformation
p113
aVimprove
p114
aVadoption
p115
aVanalytics
p116
aVcollaborates others
p117
aVresponsible
p118
aVanalytics
p119
aVassures
p120
aVcreation maintenance
p121
aVmeasurement
p122
aVsystem
p123
aVanalytics
p124
aVincluding
p125
aVtracking
p126
aVresult
p127
aVwork
p128
aVtechnology
p129
aVteam
p130
aVdevelop implement
p131
aVanalytical solution
p132
aVproduction environment
p133
aVperforms duty
p134
aVassigned job
p135
aVqualification
p136
aVeducation experience
p137
aVrequirement
p138
aVposition requires
p139
aVbachelor's degree
p140
aVaccredited college
p141
aVdegree math
p142
aVstatistic
p143
aVanalytics
p144
aVoperation research
p145
aVcomputer science
p146
aVapplicable
p147
aVfield
p148
aVsix year
p149
aVdirect
p150
aVexperience
p151
aVrelated field
p152
aVstatistic
p153
aVperformance
p154
aVmanagement
p155
aVanalytics
p156
aVresearch
p157
aVpreferred
p158
aVexperience
p159
aVmaster's degree
p160
aVpreferred
p161
aV2+ year
p162
aVexperience working
p163
aVdata scientist
p164
aVpreferred
p165
aVrequired skill
p166
aVdemonstrated proficiency
p167
aVprogramming language
p168
aVpython sql
p169
aVproficiency
p170
aVvisualization tool
p171
aVtableau power
p172
aVbi
p173
aVexperience working
p174
aVhadoop
p175
aVdemonstrated
p176
aVknowledge
p177
aVpattern recognition
p178
aVmachine learning
p179
aVpredictive modeling
p180
aVdescriptive inferential
p181
aVstatistic
p182
aVpreferred
p183
aVdemonstrated
p184
aVeffective
p185
aVleadership skill
p186
aVability work
p187
aVeffectively
p188
aVlead
p189
aVchange
p190
aVdiverse
p191
aVwork environment
p192
aVnote
p193
aVcandidate selected
p194
aVemployment
p195
aValliant energy
p196
aVrequired
p197
aVsuccessfully complete
p198
aVdrug screen
p199
aVbackground check
p200
aVcommitted providing
p201
aVinclusive
p202
aVwork environment
p203
aVproud equal
p204
aVopportunity employer
p205
aVf disability
p206
aVprotected veteran
p207
aVdisclaimer information
p208
aVdescription designed
p209
aVindicate general
p210
aVnature level
p211
aVwork performed
p212
aVemployee
p213
aVwithin classification
p214
aVdesigned contain
p215
aVinterpreted comprehensive
p216
aVinventory duty
p217
aVresponsibility
p218
aVqualification required
p219
aVemployee assigned
p220
aVjob
p221
aVapply
p222
aVchallenging opportunity
p223
aVplease complete
p224
aVonline application
p225
aVwww.alliantenergy.com
p226
aVcareer
p227
aVremoval date
p228
aV04
p229
aV29 2017
p230
a.