(lp1
Vrgbsi leader
p2
aVstaffing industry
p3
aVdedicated
p4
aVprovide highest
p5
aVquality
p6
aVservice
p7
aVclient
p8
aVemployee proud
p9
aVprimary staffing
p10
aVpartner
p11
aVtop
p12
aVcompany
p13
aVautomotive aerospace
p14
aVmedium entertainment
p15
aVsport energy
p16
aVfinance
p17
aVindustry clients'
p18
aVcontinued growth
p19
aVlooking energetic
p20
aVprofessional enjoys
p21
aVworking
p22
aVpeople
p23
aVpartner
p24
aVleading
p25
aVu
aVcompany
p26
aVposition description
p27
aVrole
p28
aVoffer broad
p29
aVspectrum
p30
aVtechnical
p31
aVchallenge
p32
aVrequires hand
p33
aVexpertise
p34
aVcore
p35
aVbig data
p36
aVtechnology
p37
aVsupport
p38
aVdata
p39
aVoperation
p40
aVanalytics
p41
aVteam
p42
aVleverage analytic
p43
aVinfrastructure
p44
aVcapability
p45
aVbig data
p46
aVtechnology
p47
aVwork closely
p48
aVteam
p49
aVengineering
p50
aVsupport
p51
aVtool
p52
aVresponsibility
p53
aVprovide
p54
aVanalytic
p55
aVinfrastructure
p56
aVbig data
p57
aVtechnology
p58
aVrelated
p59
aVsupport
p60
aVdata
p61
aVoperation
p62
aVanalytic
p63
aVteam
p64
aVgrow
p65
aVonline
p66
aVtechnical
p67
aVknowledge
p68
aVplatform
p69
aVidentify
p70
aVbest practice
p71
aVdevelop
p72
aVguideline optimum
p73
aVusage
p74
aVtool
p75
aVmanage
p76
aVproject
p77
aVroll
p78
aVsupport
p79
aVtool
p80
aVgdia
p81
aVteam member
p82
aVbasic qualification
p83
aVbachelor degree
p84
aVcomputer science
p85
aVengineering
p86
aVinformation system
p87
aV3+ year
p88
aVhand experience
p89
aVbig data
p90
aVtechnology
p91
aVincluding hdfs
p92
aVmapreduce pig
p93
aVhive sqoop
p94
aVflume oozie
p95
aVnosql
p96
aVstrong
p97
aVexperience
p98
aVspark
p99
aVtwo year
p100
aVhand experience
p101
aVdeveloping
p102
aVdata
p103
aVengineering
p104
aVsolution
p105
aVexperience managing
p106
aVteam
p107
aVproject
p108
aVgood communication
p109
aVcollaboration skill
p110
aVpreferred qualification
p111
aVmaster degree
p112
aVcomputer science
p113
aVengineering
p114
aVinformation system
p115
aVhand experience
p116
aVdeveloping
p117
aVanalytic solution
p118
aVusing
p119
aVr alteryx
p120
aVskill
p121
aVrequired
p122
aVspark hdfs
p123
aVmapreduce pig
p124
aVhive sqoop
p125
aVflume oozie
p126
aVnosql
p127
aVbasic
p128
aVproject management
p129
aVskill
p130
aVpreferred
p131
aVr alteryx
p132
aVexperience
p133
aVrequired
p134
aV3+ year
p135
aVhand experience
p136
aVbig data
p137
aVtechnology
p138
aVincluding hdfs
p139
aVmapreduce pig
p140
aVhive sqoop
p141
aVflume oozie
p142
aVnosql
p143
aVstrong
p144
aVexperience
p145
aVspark
p146
aVtwo year
p147
aVhand experience
p148
aVdeveloping
p149
aVdata
p150
aVengineering
p151
aVsolution
p152
aVexperience
p153
aVpreferred
p154
aVhand experience
p155
aVdeveloping
p156
aVanalytic solution
p157
aVusing
p158
aVr alteryx
p159
aVeducation required
p160
aVbachelor degree
p161
aVcomputer science
p162
aVengineering
p163
aVinformation system
p164
aVrelated area
p165
aVeducation preferred
p166
aVmaster degree
p167
aVcomputer science
p168
aVengineering
p169
aVinformation system
p170
aVoffer attractive
p171
aVcompetitive compensation
p172
aVbenefit
p173
aVincluding medical
p174
aVdental vision
p175
aVpaid time
p176
aVholiday 401k
p177
aVshort term
p178
aVdisability
p179
aVad tuition
p180
aVreimbursement take
p181
aVpride work
p182
aVcommitted
p183
aVpersonal professional
p184
aVsuccess
p185
aVwant talk
p186
aVplease visit
p187
aVwww.rgbsi.com learn
p188
a.