(lp1
Valtair productdesign
p2
aVglobal multi-disciplinary
p3
aVproduct development
p4
aVconsultancy 700
p5
aVdesigner engineer
p6
aVscientist
p7
aVcreative thinker
p8
aVwholly owned
p9
aVsubsidiary altair
p10
aVengineering
p11
aVinc www.altair.com
p12
aVcross-functional
p13
aVorganization
p14
aVbest known
p15
aVleadership combining
p16
aVhuman
p17
aVmachine
p18
aVcreativity fuel
p19
aVinnovation automate
p20
aVprocess
p21
aVdevelop new
p22
aVmethod altair
p23
aVproductdesign firmly
p24
aVadvocate user-centered
p25
aVteam-based design
p26
aVapproach utilizes
p27
aVproprietary simulation
p28
aVoptimization
p29
aVtechnology
p30
aVhelp client
p31
aVbring innovative
p32
aVprofitable
p33
aVproduct
p34
aVmarket faster
p35
aVdescription
p36
aVrole
p37
aVoffer broad
p38
aVspectrum
p39
aVtechnical
p40
aVchallenge
p41
aVrequires hand
p42
aVexpertise
p43
aVcore
p44
aVbig data
p45
aVtechnology
p46
aVsupport
p47
aVdata
p48
aVoperation
p49
aVanalytics
p50
aVteam
p51
aVleverage analytic
p52
aVinfrastructure
p53
aVcapability
p54
aVbig data
p55
aVtechnology
p56
aVwork closely
p57
aVteam
p58
aVengineering
p59
aVsupport
p60
aVtool
p61
aVresponsibility
p62
aVprovide
p63
aVanalytic
p64
aVinfrastructure
p65
aVbig data
p66
aVtechnology
p67
aVrelated
p68
aVsupport
p69
aVdata
p70
aVoperation
p71
aVanalytic
p72
aVteam
p73
aVgrow
p74
aVonline
p75
aVtechnical
p76
aVknowledge
p77
aVplatform
p78
aVidentify
p79
aVbest practice
p80
aVdevelop
p81
aVguideline optimum
p82
aVusage
p83
aVtool
p84
aVmanage
p85
aVproject
p86
aVroll
p87
aVsupport
p88
aVtool
p89
aVgdia
p90
aVteam member
p91
aVbasic qualification
p92
aVbachelor degree
p93
aVcomputer science
p94
aVengineering
p95
aVinformation system
p96
aV3+ year
p97
aVhand experience
p98
aVbig data
p99
aVtechnology
p100
aVincluding hdfs
p101
aVmapreduce pig
p102
aVhive sqoop
p103
aVflume oozie
p104
aVnosql
p105
aVstrong
p106
aVexperience
p107
aVspark
p108
aVtwo year
p109
aVhand experience
p110
aVdeveloping
p111
aVdata
p112
aVengineering
p113
aVsolution
p114
aVexperience managing
p115
aVteam
p116
aVproject
p117
aVgood communication
p118
aVcollaboration skill
p119
aVpreferred qualification
p120
aVmaster degree
p121
aVcomputer science
p122
aVengineering
p123
aVinformation system
p124
aVhand experience
p125
aVdeveloping
p126
aVanalytic solution
p127
aVusing
p128
aVr alteryx
p129
aVskill
p130
aVrequired
p131
aVspark hdfs
p132
aVmapreduce pig
p133
aVhive sqoop
p134
aVflume oozie
p135
aVnosql
p136
aVbasic
p137
aVproject management
p138
aVskill
p139
aVpreferred
p140
aVr alteryx
p141
aVeducation required
p142
aVbachelor's degree
p143
aVcomputer science
p144
aVengineering
p145
aVinformation system
p146
aVrelated area
p147
aVeducation preferred
p148
aVmaster degree
p149
aVcomputer science
p150
aVengineering
p151
aVinformation system
p152
aVjob scraped
p153
aVurl http
p154
aVch.tbe.taleo.net r
p155
aVfeed
p156
a.