(lp1
Vbased utah
p2
aVidaho arizona
p3
aVprogrexion lead
p4
aVcredit repair
p5
aVindustry
p6
aVgroundbreaking technology
p7
aVservice
p8
aVhelp
p9
aVconsumer
p10
aVaccess
p11
aVunderstand
p12
aVinformation contained
p13
aVcredit
p14
aVreport verify
p15
aVwhether
p16
aVinformation
p17
aVfair accurate
p18
aVsubstantiated correct
p19
aVinaccuracy individual
p20
aVcreditor
p21
aVdata furnishers
p22
aVnational
p23
aVcredit bureau
p24
aVprogrexion technology
p25
aVservice
p26
aVused lexington
p27
aVlaw independently-operated
p28
aVlaw
p29
aVfirm creditrepair.com
p30
aVwholly-owned subsidiary
p31
aVadvanced
p32
aVdata
p33
aVanalytics
p34
aVteam
p35
aVprogrexion
p36
aVworking
p37
aVquestion
p38
aVcentral
p39
aVfuture
p40
aVgrowth
p41
aVanswer question
p42
aVheavily investing
p43
aVinfrastructure
p44
aVtalent
p45
aVsearching sr
p46
aVdata scientist
p47
aVwant work
p48
aVlatest technology
p49
aVhelp
p50
aVanswer question
p51
aVm ph.d
p52
aVcomputer science
p53
aVmathematics
p54
aV3+ year
p55
aVdata science
p56
aVexperience
p57
aVexcellent
p58
aVproblem solving
p59
aVanalytical skill
p60
aVgreat
p61
aVcalculus linear
p62
aValgebra
p63
aVgood understanding
p64
aVfrequentist statistic
p65
aVgood understanding
p66
aVvarious
p67
aVmachine learning
p68
aVapproach
p69
aValgorithm
p70
aVfollowing area
p71
aVclustering
p72
aVrecommendation
p73
aVclassification
p74
aVproficiency
p75
aVeither
p76
aVr python
p77
aVstrong
p78
aVsql
p79
aVability
p80
a.