(lp1
Vlooking gis-specific
p2
aVdata
p3
aVanalyst
p4
aVdata
p5
aVwrangler
p6
aVdata scientist
p7
aVexcellent
p8
aVleadership
p9
aVtechnical subject
p10
aVmatter expertise
p11
aVquality
p12
aVproject
p13
aVsolution
p14
aVneed
p15
aVinvolvecomplex
p16
aVgi
p17
aVdata repository
p18
aVcomplicated
p19
aVdata source
p20
aVworkflow
p21
aVfeed sensor
p22
aVsystem
p23
aVmany
p24
aVdata
p25
aVlifecycle challenge
p26
aVincluding legacy
p27
aVmigration metadata
p28
aVcleanup data
p29
aVmodel
p30
aVdesign
p31
aVneed
p32
aVmassive geoprocessing
p33
aVrequirement
p34
aVincluding
p35
aVimage processing
p36
aVfeature creation
p37
aVclassification derivative
p38
aVproduct
p39
aVgeneration
p40
aVlook
p41
aVintroduce new
p42
aVweb
p43
aVdelivery
p44
aVsolution
p45
aVleverage
p46
aVdata
p47
aVhelp
p48
aVincreating
p49
aVdata
p50
aVdesign
p51
aVbigdata prototype
p52
aVwhether cartodb
p53
aVgeospatial d3
p54
aVsankeys various
p55
aVlibrary feeding
p56
aVharvesting rdf
p57
aVtriplet catalog
p58
aVintegrating seo
p59
aVenvironment
p60
aVgovernment
p61
aVlarge
p62
aVcommercial high-profile
p63
aVclientis
p64
aVhigh-tech organization
p65
aVprogram
p66
aVscience
p67
aVtechnology
p68
aVengineering math
p69
aVengage
p70
aVu gi
p71
aVspecialist passionate
p72
aVtransforming making
p73
aVgeospatial
p74
aVdata
p75
aVusable new
p76
aVservice
p77
aVbusiness
p78
aVmodel
p79
aVhelp
p80
aVeconomic
p81
aVdevelopment
p82
aVlooking
p83
aVpeople
p84
aVbelieve geospatial
p85
aVdata
p86
aVnew gold
p87
aVnew platinum
p88
aVspecialist thing
p89
aVdevelops geographic
p90
aVdatabase
p91
aVuse gi
p92
aVgps advanced
p93
aVtechnology
p94
aVspecialized purpose
p95
aVaddressing utility
p96
aVmapping decision
p97
aVsupport converting
p98
aVpaper
p99
aVproduct seamless
p100
aVdigital raster
p101
aVgraphic vectorizing
p102
aVfeature maintaining
p103
aVfgdc iso-19115
p104
aVcompliant metadata
p105
aVuse
p106
aVstrong
p107
aVexpertise
p108
aVvarious gi
p109
aVsoftware
p110
aVprimarily esri
p111
aVarcgis erdas
p112
aVgeoserver well
p113
aVvarious geographic
p114
aVdata
p115
aVformat standard
p116
aVdata
p117
aVconversion transformation
p118
aVmethod geographic
p119
aVanalysis
p120
aVcreate
p121
aVmap
p122
aVusing large-format
p123
aVplotter report
p124
aVpresentation
p125
aVsupport
p126
aVvarious gi
p127
aVtechnology
p128
aVproject
p129
aVdevelops maintains
p130
aVlink various
p131
aVdatabase
p132
aVsimple
p133
aVapplication
p134
aVscript
p135
aVu existing
p136
aVscript python
p137
aVarcpy perl
p138
aVphp xml
p139
aVparsing sql
p140
aVmultiple
p141
aVetl toolsets
p142
aVcreates
p143
aVnew
p144
aVcomputer
p145
aVprogram edits
p146
aVexisting program
p147
aVorder produce
p148
aVmap automate
p149
aVprocedure
p150
aVrapidly troubleshoot
p151
aVgi system
p152
aVproblem
p153
aVdata
p154
aVprocessing
p155
aVdelivery
p156
aVservice
p157
aVgeneration
p158
aVdata
p159
aVlifecycle issue
p160
aVgi system
p161
aVnote safe
p162
aVside want
p163
aVclarify gi
p164
aVadministrator
p165
aVapplication developer
p166
aVrole
p167
aVneed
p168
aVexperience
p169
aVusing gi
p170
aVsystem
p171
aVproduce
p172
aVdata
p173
aVsolution
p174
aVboot want
p175
aVanalyst
p176
aVnatural
p177
aVchange agent
p178
aVpassionate
p179
aVchange empathetic
p180
aVclient
p181
aVenvironment
p182
aVleverage mature
p183
aVincorporate
p184
aVdata
p185
aVproduct service
p186
aVnew
p187
aVcapability
p188
aVwant
p189
aVleader
p190
aVsupport
p191
aVinfluence right
p192
aVchange direction
p193
aVmanaging
p194
aVtechnical
p195
aVbusiness
p196
aVanalysis
p197
aVdesign
p198
aVskilled self-motivated
p199
aVsolid domain
p200
aVsubject matter
p201
aVexpertise
p202
aVanalyst
p203
aVteam facilitated
p204
aVanalysis
p205
aVwork shoulder-to-shoulder
p206
aVcome conceptual
p207
aVlogical
p208
aVdesign architecture
p209
aVworking closely
p210
aVstaff
p211
aVsystem integrator
p212
aVrapidly implementing
p213
aVchange
p214
aVagile release
p215
aVfurthermore devise
p216
aVcraft strategy
p217
aVcommunication
p218
aVsolution broadcast
p219
aVbrag change
p220
aVeffort
p221
aVresult
p222
aVbring transformation
p223
aVlife
p224
aVtime
p225
aVyou'll work
p226
aVdirectly get
p227
aVdomain guidancefrom
p228
aVarchitecture
p229
aVlead
p230
aVreport chief
p231
aVarchitect
p232
aVsignificant
p233
aVgovernment
p234
aVchange agent
p235
aVmultiple decades.both
p236
aVenjoy mentoring
p237
aVcollaboration making
p238
aVappropriate
p239
aVdecision quite
p240
aVfamiliar
p241
aVclient
p242
aVstrategy tactic
p243
aVprotocol
p244
aVsolution
p245
aVsuccessful
p246
aVclient base
p247
aVenjoys value
p248
aVtwo
p249
aVbring made
p250
aVrepeated request
p251
aVsupport
p252
aVteam
p253
aVyear
p254
aVgoal
p255
aVinteraction
p256
aVquality assurance
p257
aVapplication developer
p258
aVconsistently
p259
aVyear
p260
aVwrite
p261
aVu 'graduated'
p262
aVmoved saying
p263
aVwould never
p264
aVlearned skill
p265
aVwasn't architecture
p266
aVmentoring
p267
aVapproach
p268
aVlooking invested
p269
aVbalance humility
p270
aVexcellence truly
p271
aVenjoy working
p272
aVproject
p273
aVminimum requirement
p274
aV-
aVminimum 4-5
p275
aVyear relevant
p276
aVgeospatial
p277
aVexperience
p278
aV2 year
p279
aVexperience
p280
aVleading
p281
aVleast one
p282
aVgeospatial
p283
aVtechnician
p284
aV-
aVspecialized experience
p285
aV3-5 year
p286
aVexperience
p287
aVusing
p288
aVarcgis
p289
aVrelated
p290
aVtool
p291
aVdata
p292
aVanalysis
p293
aVcartography
p294
aVmodeling
p295
aVusing
p296
aVerdas imagine
p297
aVcomparable
p298
aVapplication raster
p299
aVanalysis
p300
aVprocessing
p301
aV-
aVrelevant experience
p302
aVpython aml
p303
aVvba scripting
p304
aVgeospatial
p305
aVapplication development
p306
aVtool
p307
aV-
aVexperience
p308
aVusing
p309
aVfile
p310
aVenterprise geodatabase
p311
aVsystem
p312
aV-
aVwork
p313
aVlead
p314
aVunderstand
p315
aVscope requirement
p316
aVobjective
p317
aVanalysis
p318
aVgeospatial
p319
aVdata
p320
aVdevelopment
p321
aVcartographic
p322
aVproduct
p323
aVautomation
p324
aVgeospatial
p325
aVtask
p326
aVusing
p327
aVgeospatial
p328
aVtool
p329
aVesri arcgis
p330
aVerdas imagine
p331
aVsimilar
p332
aV-
aVcoordinate
p333
aVlead
p334
aVworkload
p335
aVleast one
p336
aVanalyst
p337
aVneeded basis
p338
aV-
aVutilize arcgis
p339
aVapplication
p340
aVgeospatial
p341
aVtheory
p342
aVcoordinate
p343
aVsystem
p344
aVprojection
p345
aVmodeling
p346
aV-
aVutilize
p347
aVleica
p348
aVgeosystems
p349
aVerdas imagine
p350
aVapplication raster
p351
aVdata
p352
aVprocessing
p353
aVpreferred
p354
aV-
aVutilize
p355
aVpython aml
p356
aVvba scripting
p357
aVgi application
p358
aVdevelopment
p359
aVtool
p360
aVeducation
p361
aV-
aVminimum bachelor
p362
aVdegree
p363
aVgeography
p364
aVremote sensing
p365
aVgeospatial
p366
aVtechnology
p367
aVnatural
p368
aVscience
p369
aVrelocation assistance
p370
aVmust
p371
aVlocal
p372
aVposition
p373
aVopen
p374
aVtime
p375
aVnew
p376
aVproject
p377
aVopening
p378
aVregularly.we
p379
aVwant
p380
aVcrack
p381
aVteam
p382
aVlooking
p383
aVproactively
p384
aVfolk
p385
aVwant
p386
aVnew
p387
aVchallenge
p388
aVmay
p389
aVbored
p390
aVwant work
p391
aVsolid
p392
aVteam
p393
aVtrying
p394
aVhelp
p395
aVgovernment
p396
aVtransform
p397
aVinformation
p398
aVmanagement
p399
aVpractice
p400
aVaboutxentity
p401
aVfast-growing
p402
aVdata
p403
aVconsulting
p404
aVsupport
p405
aVservice firm
p406
aVcheck www.xentity.com
p407
aVlearn focus
p408
aVservice
p409
aVclient
p410
aVmission value
p411
aVwell
p412
aVexcellent benefit
p413
aVpackage
p414
aVcareer
p415
aVinformation
p416
aVhigh profile
p417
aVclient
p418
aVproject
p419
aVstaff really
p420
aVdelivery
p421
aVwell enjoy
p422
aVknowing make
p423
aVlarge
p424
aVdifference
p425
aVpresident vision
p426
aVcontinue focus
p427
aVsolution
p428
aVtransform next
p429
aVgeneration seek
p430
aVproject renewable
p431
aVenergy integratinggeosciences
p432
aVhigh performance
p433
aVcomputing
p434
aVbig data
p435
aVadvanced
p436
aVconcept like
p437
aVfuzzy logic
p438
aVchanging interface
p439
aVpoint mobile
p440
aVaugmented reality
p441
aVmany disruption
p442
aVwant continue
p443
aVput back
p444
aVinformation technology
p445
aVconcentrating pragmatic
p446
aVdesign
p447
aVleadership
p448
aVmanagement forgotten
p449
aVfocus outreach
p450
aVengagement strategy
p451
aVsolution
p452
aVfound careers.xentity.com
p453
a.