(lp1
Vdescription
p2
aVleidos looking
p3
aVsoftware developer
p4
aVposition
p5
aVchantilly va
p6
aVposition requires
p7
aVactive t
p8
aVsci polygraph
p9
aVorder considered
p10
aVdivision provides
p11
aVsupport
p12
aVarea
p13
aVdata extraction
p14
aVtransformation load
p15
aVetl
p16
aVdata mapping
p17
aVdata extraction
p18
aVanalytical
p19
aVsupport
p20
aVoperational
p21
aVsupport
p22
aVdatabase
p23
aVsupport
p24
aVapplication development
p25
aVassociated maintenance
p26
aVproduction system
p27
aVteam member
p28
aVwork multitasking
p29
aVquick-paced dynamic
p30
aVprocess-improvement environment
p31
aVrequires
p32
aVexperience
p33
aVprinciple biometric
p34
aVtechnology
p35
aVlarge-scale terabyte
p36
aVdatabase
p37
aVapplication development
p38
aVlarge-scale file
p39
aVmanipulation
p40
aVdata
p41
aVmodeling
p42
aVdata mapping
p43
aVdata
p44
aVtesting
p45
aVdata
p46
aVquality
p47
aVdocumentation preparation
p48
aVdivision directly
p49
aVsupport
p50
aVdata scientist
p51
aVanalyst
p52
aVdesigning
p53
aVengineering
p54
aVsystem
p55
aVmeet exponential
p56
aVincrease digital
p57
aVdata
p58
aVposition
p59
aVspecialist
p60
aVdata
p61
aVextract transform
p62
aVload etl
p63
aVprocessing
p64
aVrelated
p65
aVsoftware development
p66
aVdata
p67
aVmodeling
p68
aVtesting
p69
aVtechnical documentation
p70
aVetl
p71
aVdata
p72
aVdeveloper
p73
aVwork
p74
aVwithin
p75
aVteam
p76
aVetlers
p77
aVprocess
p78
aVdatasets
p79
aVwide variety
p80
aVsource
p81
aVlarge-scale
p82
aVinformation system
p83
aVdeveloper
p84
aVwork
p85
aVpriority
p86
aVestablished
p87
aVteam
p88
aVlead
p89
aVreport progress
p90
aVtoward
p91
aVdelivery
p92
aVdatasets
p93
aVestablished
p94
aVetl workflow
p95
aVqualification
p96
aVmandatory skill
p97
aV-
aVtypically requires
p98
aVb degree
p99
aV8
aV12 year
p100
aVprior relevant
p101
aVexperience
p102
aVmaster
p103
aV6
aV10 year
p104
aVprior relevant
p105
aVexperience
p106
aVmay
p107
aVposse
p108
aVdoctorate
p109
aVtechnical
p110
aVdomain
p111
aVdemonstrated on-the-job
p112
aVexperience
p113
aVetl developer
p114
aVdeveloping software
p115
aVusing
p116
aVetl tool
p117
aVe.g.
p118
aVpentaho
p119
aValpine
p120
aVminer
p121
aVtalend
p122
aVprocess
p123
aVdata
p124
aVvariety
p125
aVdata
p126
aVformat
p127
aVstructure
p128
aVenterprise-scale
p129
aVdatabase
p130
aV-
aVdemonstrated on-the-job
p131
aVexperience
p132
aVsql relational
p133
aVdatabase
p134
aVe.g.
p135
aVpostgres oracle
p136
aVsql server
p137
aVetc
p138
aV-
aVdemonstrated on-the-job
p139
aVexperience
p140
aVusing
p141
aVlinux operating
p142
aVsystem
p143
aVsoftware development
p144
aVdata
p145
aVetl
p146
aV-
aVdemonstrated on-the-job
p147
aVexperience
p148
aVjavascript
p149
aV-
aVdemonstrated on-the-job
p150
aVexperience
p151
aVregular expression
p152
aVdesired skill
p153
aV-
aVdemonstrated on-the-job
p154
aVexperience
p155
aVnon-etl
p156
aVsoftware development
p157
aV-
aVdemonstrated on-the-job
p158
aVexperience
p159
aVimage
p160
aVformat conversion
p161
aVsoftware development
p162
aVlibrary
p163
aV-
aVdemonstrated on-the-job
p164
aVexperience
p165
aVbiometric
p166
aVdata
p167
aVexchange
p168
aVformat standard
p169
aV-
aVdemonstrated on-the-job
p170
aVexperience
p171
aVunix linux
p172
aVshell scripting
p173
aVleidos overview
p174
aVleidos global
p175
aVscience
p176
aVtechnology
p177
aVsolution
p178
aVleader
p179
aVworking solve
p180
aVworld toughest
p181
aVchallenge defense
p182
aVintelligence homeland
p183
aVsecurity civil
p184
aVhealth market
p185
aVcompany 33
p186
aV000 employee
p187
aVsupport vital
p188
aVmission government
p189
aVcommercial customer
p190
aVheadquartered reston
p191
aVvirginia leidos
p192
aVreported pro
p193
aVforma annual
p194
aVrevenue approximately
p195
aV10 billion
p196
aVfiscal year
p197
aVended january
p198
aV1 2016
p199
aVgiving effect
p200
aVrecently completed
p201
aVcombination leidos
p202
aVlockheed martin's
p203
aVinformation system
p204
aVglobal
p205
aVsolution
p206
aVbusiness g
p207
aVinformation visit
p208
aVwww.leidos.com. company
p209
aVdiverse employee
p210
aVsupport vital
p211
aVmission government
p212
aVcommercial customer
p213
aVqualified woman
p214
aVminority individual
p215
aVdisability protected
p216
aVveteran encouraged
p217
aVapply leidos
p218
aVequal opportunity
p219
aVemployer
p220
a.