(lp1
Vmclean 1
p2
aV19050 united
p3
aVstate america
p4
aVmclean virginia
p5
aVcapital one
p6
aVbuilding leading
p7
aVinformation-based technology
p8
aVcompany still
p9
aVfounder-led chairman
p10
aVchief executive
p11
aVofficer richard
p12
aVfairbank capital
p13
aVone mission
p14
aVhelp customer
p15
aVsucceed bringing
p16
aVingenuity simplicity
p17
aVhumanity banking
p18
aVmeasure effort
p19
aVsuccess customer
p20
aVenjoy advocacy
p21
aVexhibit succeeding
p22
aVsucceeding
p23
aVguided shared
p24
aVvalue thrive
p25
aVenvironment collaboration
p26
aVopenness valued
p27
aVbelieve innovation
p28
aVpowered perspective
p29
aVteamwork respect
p30
aVlead superior
p31
aVresult elevate
p32
aVob right
p33
aVthing associate
p34
aVserve humility
p35
aVdeep respect
p36
aVresponsibility helping
p37
aVcustomer achieve
p38
aVgoal realize
p39
aVdream together
p40
aVquest change
p41
aVbanking good
p42
aVsenior manager
p43
aVdata science
p44
aVtech college
p45
aVcapital one
p46
aVoverview
p47
aVcapital one
p48
aVdata
p49
aVcenter everything
p50
aVgoal
p51
aVsimple bring
p52
aVingenuity simplicity
p53
aVhumanity
p54
aVindustry ripe
p55
aVchange
p56
aVtogether
p57
aVbuild
p58
aVone
p59
aVamerica
p60
aVleading information-based
p61
aVtechnology
p62
aVcompany
p63
aVmay
p64
aVbank think
p65
aVoperate like
p66
aVtech company
p67
aVtech company
p68
aVwrites code
p69
aVdevelops
p70
aVsoftware
p71
aVbuild
p72
aVproduct
p73
aVtech company
p74
aVexperiment innovates
p75
aVlatest technology
p76
aVengineer
p77
aVbreakthrough
p78
aVcustomer
p79
aVexperience
p80
aVbrings simplicity
p81
aVhumanity banking
p82
aVjoin u
p83
aVtech college
p84
aVoverview
p85
aVcreating something
p86
aVunique unprecedented
p87
aVre-imagined hub
p88
aVtechnology
p89
aVtraining bold
p90
aVinvestment
p91
aVdeveloping
p92
aVassociate
p93
aVleader
p94
aVrecruiting top
p95
aVtechnical non-technical
p96
aVtalent continuing
p97
aVdifferentiate market
p98
aVsenior manager
p99
aVdata science
p100
aVtech college
p101
aVwithin
p102
aVtech college
p103
aVyoull part
p104
aVteam responsible
p105
aVanalyzing
p106
aVdesigning developing
p107
aVhighly engaginglearning
p108
aVexperience
p109
aVsolution
p110
aVthatwill fuel
p111
aVgrowth tech
p112
aVcompany
p113
aVhelp
p114
aVassociate
p115
aVdevelopcutting-edgeskills
p116
aVifyou
p117
aVhaveapassionforhelpingothers
p118
aVlearn
p119
aVandbuildnext-generation
p120
aVskill
p121
aVbycreatingamazing
p122
aVlearning
p123
aVexperience
p124
aVmay fit
p125
aVforour
p126
aVteam
p127
aVlooking
p128
aVdata scientist
p129
aVjoin
p130
aVtech college
p131
aVmember
p132
aVteam
p133
aVwork
p134
aVrapid agile
p135
aVenvironment
p136
aVtheopportunity
p137
aVtobuildtechnical
p138
aVtraining curriculum
p139
aVground-up
p140
aVgiven day
p141
aVyoull
p142
aVusing big
p143
aVdata
p144
aVtool hadoop
p145
aVspark h2o
p146
aVaws conduct
p147
aVanalysis billion
p148
aVcustomer transaction
p149
aVrecord
p150
aVwriting software
p151
aVclean investigate
p152
aVlarge messy
p153
aVdata set
p154
aVnumerical textual
p155
aVdata
p156
aVintegrating external
p157
aVdata source
p158
aVapis discover
p159
aVinteresting trend
p160
aVbuilding
p161
aVmachine learning
p162
aVmodel
p163
aVdevelopment testing
p164
aVvalidation 30+
p165
aVmillion customer
p166
aVproduction
p167
aVdesigning rich
p168
aVdata visualization
p169
aVcommunicate complex
p170
aVidea customer
p171
aVcompany leader
p172
aVinvestigating impact
p173
aVnew technology
p174
aVfuture digital
p175
aVbanking financial
p176
aVworld tomorrow
p177
aVcreating curating
p178
aVeducational content
p179
aVhelp
p180
aVcapital one
p181
aVpeer stay
p182
aVtop
p183
aVdata science
p184
aVtool technique
p185
aVinvestigating impact
p186
aVnew technology
p187
aVfuture digital
p188
aVbanking financial
p189
aVworld tomorrow
p190
aVideal candidate
p191
aVcurious ask
p192
aVexplore you're
p193
aVafraid blurt
p194
aVdisruptive idea
p195
aVprobably know
p196
aVpython scala
p197
aVr youre
p198
aVconstantly exploring
p199
aVnew open
p200
aVsource tool
p201
aVwrangler know
p202
aVprogrammatically extract
p203
aVdata
p204
aVdatabase api
p205
aVbring transformation
p206
aVtwo model
p207
aVhuman-readable form
p208
aVroc curve
p209
aVmap d3
p210
aVvisualization tableau
p211
aVetc
p212
aVcreative big
p213
aVundefined problem
p214
aVpetabyte data
p215
aVdon't frighten
p216
aVyoure used
p217
aVworking abstract
p218
aVdata
p219
aVlove discovering
p220
aVnew narrative
p221
aVunmined territory
p222
aVtwenty-five year
p223
aVcapital one
p224
aVstarted still
p225
aVled founder
p226
aVready join
p227
aVcommunity smartest
p228
aVpeople youve
p229
aVever met
p230
aVsee customer
p231
aVfirst want
p232
aVuse
p233
aVdata
p234
aVskill
p235
aVmake difference
p236
aVbasic qualification
p237
aVbachelor degree
p238
aVmilitary experience
p239
aVleast 3
p240
aVyear experience
p241
aVopen source
p242
aVprogramming language
p243
aVlarge scale
p244
aVdata
p245
aVanalysis
p246
aVleast 3
p247
aVyear experience
p248
aVmachine learning
p249
aVleast 3
p250
aVyear experience
p251
aVrelational database
p252
aVpreferred qualification
p253
aVmaster degree
p254
aVphd
p255
aVleast 1
p256
aVyear experience
p257
aVworking aws
p258
aVleast 1
p259
aVyear experience
p260
aVmanaging people
p261
aVleast 5
p262
aVyear experience
p263
aVpython scala
p264
aVr
aVlarge scale
p265
aVdata
p266
aVanalysis
p267
aVleast 5
p268
aVyear experience
p269
aVmachine learning
p270
aVleast 5
p271
aVyear experience
p272
aVsql
p273
aVcapital one
p274
aVconsider sponsoring
p275
aVnew qualified
p276
aVapplicant employment
p277
aVauthorization position
p278
aVagency please
p279
aVcapital one
p280
aVequal opportunity
p281
aVemployer committed
p282
aVdiversity inclusion
p283
aVworkplace qualified
p284
aVapplicant receive
p285
aVconsideration employment
p286
aVwithout regard
p287
aVsex race
p288
aVcolor age
p289
aVnational origin
p290
aVreligion physical
p291
aVmental disability
p292
aVgenetic information
p293
aVmarital status
p294
aVsexual orientation
p295
aVgender identity
p296
aVassignment citizenship
p297
aVpregnancy maternity
p298
aVprotected veteran
p299
aVstatus status
p300
aVprohibited applicable
p301
aVnational federal
p302
aVstate local
p303
aVlaw capital
p304
aVone promotes
p305
aVdrug-free workplace
p306
aVcapital one
p307
aVconsider employment
p308
aVqualified applicant
p309
aVcriminal history
p310
aVmanner consistent
p311
aVrequirement applicable
p312
aVlaw regarding
p313
aVcriminal background
p314
aVinquiry including
p315
aVextent applicable
p316
aVarticle 23-a
p317
aVnew york
p318
aVcorrection law
p319
aVsan francisco
p320
aVcalifornia police
p321
aVcode article
p322
aV49 section
p323
aV4901-4920 new
p324
aVyork city
p325
aVfair chance
p326
aVact philadelphia
p327
aVfair criminal
p328
aVrecord screening
p329
aVact applicable
p330
aVfederal state
p331
aVlocal law
p332
aVregulation regarding
p333
aVcriminal background
p334
aVinquiry
p335
aVrequire accommodation
p336
aVapply job
p337
aVperform job
p338
aVplease contact
p339
aVcapital one
p340
aVrecruiting 1-800-304-9102
p341
aVrecruitingaccommodation capitalone.com
p342
aVinformation
p343
aVprovide kept
p344
aVconfidential used
p345
aVextent required
p346
aVprovide needed
p347
aVreasonable accommodation
p348
aVtechnical
p349
aVsupport question
p350
aVcapital one's
p351
aVrecruiting process
p352
aVplease send
p353
aVemail
p354
aVcareer capitalone.com
p355
aVcapital one
p356
aVprovide endorse
p357
aVguarantee liable
p358
aVthird-party product
p359
aVservice educational
p360
aVtool
p361
aVinformation available
p362
aVsite
p363
aVcapital one
p364
aVfinancial made
p365
aVseveral different
p366
aVentity please
p367
aVnote position
p368
aVposted canada
p369
aVcapital one
p370
aVcanada position
p371
aVposted united
p372
aVkingdom capital
p373
aVone europe
p374
aVposition posted
p375
aVphilippine capital
p376
aVone philippine
p377
aVservice corp
p378
aVcopssc
p379
a.