(lp1
Vdescription
p2
aVsoftware developer
p3
aVinformation system
p4
aVinformation system
p5
aV-
aVprogramming
p6
aVsecurity clearance
p7
aVclearance status
p8
aVmust current
p9
aVschedule
p10
aVtype travel
p11
aVnone
p12
aVpercent travel
p13
aVrequired none
p14
aVqualification
p15
aVcaci seeking
p16
aVtalented
p17
aVself-motivated
p18
aVsoftware developer
p19
aVjoin
p20
aVexciting
p21
aVcomplex
p22
aVmission-focused
p23
aVteam
p24
aVprofessional
p25
aVbased northern
p26
aVvirginia
p27
aVregion
p28
aVposition requires
p29
aVcurrent t
p30
aVsci
p31
aVfsp
p32
aVduty responsibility
p33
aVteam member
p34
aVwork multitasking
p35
aVquick-paced dynamic
p36
aVprocess-improvement environment
p37
aVrequires
p38
aVexperience
p39
aVprinciple biometric
p40
aVtechnology
p41
aVlarge-scale database
p42
aVapplication development
p43
aVlarge-scale file
p44
aVmanipulation
p45
aVdata
p46
aVmodeling
p47
aVdata mapping
p48
aVdata
p49
aVtesting
p50
aVdata
p51
aVquality
p52
aVdocumentation preparation
p53
aVdivision directly
p54
aVsupport
p55
aVdata scientist
p56
aVanalyst
p57
aVdesigning
p58
aVengineering
p59
aVsystem
p60
aVmeet exponential
p61
aVincrease digital
p62
aVdata
p63
aVemphasis
p64
aVjava c++
p65
aVdevelopment
p66
aVtask
p67
aVrelating
p68
aVimage video
p69
aVprocessing
p70
aVlarge-scale
p71
aVdata
p72
aVprocessing
p73
aVworkflow
p74
aVrequired qualification
p75
aVtypically requires
p76
aVbachelor degree
p77
aVequivalent 16
p78
aV18 year
p79
aVrelated
p80
aVexperience
p81
aVon-the-job experience
p82
aVjava ee
p83
aVdevelopment
p84
aVon-the-job experience
p85
aVc++
p86
aVdevelopment
p87
aVon-the-job experience
p88
aVimplementing java
p89
aVnative
p90
aVinterface
p91
aVjni
p92
aVc++
p93
aVintegration
p94
aVjava
p95
aVon-the-job experience
p96
aVlinux operating
p97
aVsystem
p98
aVnecessary perform
p99
aVserver-side
p100
aVdevelopment
p101
aVtask
p102
aVi.e.
p103
aVbuild configure
p104
aVshell scripting
p105
aValso
p106
aVtroubleshoot
p107
aVmemory
p108
aVmanagement
p109
aVperformance
p110
aVproblem
p111
aVwithin
p112
aVc++
p113
aVon-the-job
p114
aVdevelopment
p115
aVexperience
p116
aVsoftware development
p117
aVinfrastructure
p118
aVtool
p119
aVcode
p120
aVmanagement
p121
aVeclipse
p122
aVant
p123
aVgit subversion
p124
aVcandidate
p125
aVexperience
p126
aVone
p127
aVapplication
p128
aVanother
p129
aVsimilar
p130
aVapplication
p131
aVmeet requirement
p132
aVon-the-job experience
p133
aVrelational nosql
p134
aVdatabase
p135
aVincluding
p136
aVone
p137
aVoracle
p138
aVpostgres
p139
aVapache solr
p140
aVhbase
p141
aVamazon web
p142
aVservice offering
p143
aVdesired qualification
p144
aVon-the-job experience
p145
aVbiometric
p146
aVidentity
p147
aVdata
p148
aVservice
p149
aVsystem
p150
aVon-the-job experience
p151
aVdeveloping integrating
p152
aVsoftware developer
p153
aVkit
p154
aVbiometrics
p155
aVon-the-job experience
p156
aVbuilding
p157
aVsoftware
p158
aVsystem
p159
aVdesigned
p160
aVscalability
p161
aVusing amazon
p162
aVweb service
p163
aVon-the-job experience
p164
aVapache
p165
aVactivemq
p166
aVcamel
p167
aVcompany description
p168
aVcaci employ
p169
aVdiverse range
p170
aVtalent create
p171
aVenvironment fuel
p172
aVinnovation foster
p173
aVcontinuous improvement
p174
aVsuccess join
p175
aVcaci opportunity
p176
aVmake immediate
p177
aVimpact providing
p178
aVinformation
p179
aVsolution
p180
aVservice
p181
aVsupport
p182
aVnational security
p183
aVmission government
p184
aVtransformation intelligence
p185
aVdefense federal
p186
aVcivilian client
p187
aVmember fortune
p188
aV1000 largest
p189
aVcompany russell
p190
aV2000 index
p191
aVcaci provides
p192
aVdynamic career
p193
aVapproximately 15
p194
aV000 employee
p195
aVworking 120
p196
aVoffice worldwide
p197
aVcaci equal
p198
aVopportunity employer
p199
aV- female
p200
aVminority protected
p201
aVveteran individual
p202
aVdisability
p203
a.