(lp1
Vvisualize
p2
aVfuture
p3
aVnvidia
p4
aVlooking
p5
aVasr
p6
aVsolution architect
p7
aVlooking
p8
aVsolution architect
p9
aVbased
p10
aVmetro
p11
aVwashington dc
p12
aVarea
p13
aVnvidia
p14
aVsearching
p15
aVworld-class
p16
aVengineer
p17
aVdeveloper
p18
aVscientist
p19
aVexciting
p20
aVrole
p21
aVsolution architect
p22
aVworking
p23
aVlatest
p24
aVgpu
p25
aVhardware software
p26
aVdevelop
p27
aVknowledge
p28
aVgpus
p29
aVhigh-performance computing
p30
aVrange
p31
aVapplication
p32
aVsignal processing
p33
aVdeep learning
p34
aVdata
p35
aVanalytics
p36
aVsolution architect
p37
aVwork
p38
aVkey
p39
aVnvidia
p40
aVcustomer
p41
aVfederal
p42
aVmarket
p43
aVenabling
p44
aVexecute project
p45
aVcompelling
p46
aVproductivity
p47
aVbreakthrough
p48
aVwork
p49
aVhighly regarded
p50
aVorganization
p51
aVfederal
p52
aVecosystem
p53
aVwork
p54
aVbring
p55
aVlatest technology
p56
aVmission critical
p57
aVworkflow
p58
aVcontributing
p59
aVenhanced
p60
aVsafety security
p61
aVeconomic
p62
aVcapability
p63
aVcountry
p64
aVsolution architect
p65
aVfirst line
p66
aVtechnical expertise
p67
aVnvidia
p68
aVpartner
p69
aVcustomer
p70
aVsolution architect
p71
aVduty
p72
aVvary
p73
aVdeveloping software
p74
aVproof-of-concept
p75
aVdemonstration
p76
aVdeveloping
p77
aVrelationship key
p78
aVexecutive manager
p79
aVorder
p80
aVestablish
p81
aVthought leadership
p82
aVevangelize
p83
aVaccelerated
p84
aVcomputing
p85
aVengage
p86
aVdeveloper
p87
aVscientific
p88
aVresearcher
p89
aVdata scientist
p90
aVmanager senior
p91
aVexecutive
p92
aVyoull
p93
aVassist
p94
aVnvidia
p95
aVaccount manager
p96
aVsupporting
p97
aVexisting
p98
aVlighthouse
p99
aVaccount
p100
aVdriving
p101
aVnew
p102
aVbusiness
p103
aVaccount
p104
aVnew
p105
aVaccount
p106
aVtechnical
p107
aVrelationship
p108
aVlighthouse
p109
aVaccount
p110
aVassist
p111
aVcustomer
p112
aVbuilding
p113
aVinnovative solution
p114
aVbased
p115
aVnvidia
p116
aVtechnology
p117
aVindustry
p118
aVthought leader
p119
aVintegrating
p120
aVnvidia
p121
aVtechnology
p122
aVapplication
p123
aVbuilt
p124
aVdeep learning
p125
aVhigh performance
p126
aVdata
p127
aVanalytics
p128
aVrobotics
p129
aVsignal processing
p130
aVkey
p131
aVapplication
p132
aVwrite
p133
aVtechnical
p134
aVblog
p135
aVarticle
p136
aVgive
p137
aVseminar
p138
aVparallel programming
p139
aVdata
p140
aVanalytics
p141
aVdeep learning
p142
aVusing
p143
aVnvidia
p144
aVproduct
p145
aVinternal
p146
aVchampion
p147
aVdata
p148
aVanalytics
p149
aVmachine learning
p150
aVcyber
p151
aVamong
p152
aVnvidia
p153
aVtechnical
p154
aVcommunity
p155
aVneed
p156
aVsee
p157
aV5-7 year
p158
aVexperience
p159
aVdevelopment
p160
aVapplication
p161
aVmachine learning
p162
aVdata
p163
aVanalytics
p164
aVcomputer vision
p165
aVwork
p166
aVflow
p167
aVoutstanding
p168
aVverbal written
p169
aVcommunication skill
p170
aVability work
p171
aVindependently minimal
p172
aVday-to-day
p173
aVdirection
p174
aVexperience
p175
aVdelivering
p176
aVinstructor
p177
aVled
p178
aVworkshop
p179
aVc c++
p180
aVpython java
p181
aVscala
p182
aVprogramming
p183
aVexperience
p184
aVexperience
p185
aVparallel programming
p186
aVdevelopment
p187
aVoptimization
p188
aVexperience
p189
aVgpu computing
p190
aVcuda
p191
aVprogramming
p192
aVstrong teamwork
p193
aVinterpersonal skill
p194
aVdesire
p195
aVinvolved
p196
aVmultiple
p197
aVdiverse
p198
aVinnovative
p199
aVproject
p200
aVexperience
p201
aVusing
p202
aVscale-out
p203
aVcloud
p204
aVhpc architecture
p205
aVparallel programming
p206
aVexperience working
p207
aVmodern
p208
aVcloud computing
p209
aVtool
p210
aVspark mesos
p211
aVb
aVengineering mathematics
p212
aVphysic computer
p213
aVscience
p214
aVdata science
p215
aVneuroscience
p216
aVexperimental psychology
p217
aVequivalent work
p218
aVexperience
p219
aVway
p220
aVstand
p221
aVcrowd
p222
aVexperience
p223
aVdeep learning
p224
aVframework
p225
aVtool
p226
aVeg
p227
aVdigit
p228
aVcaffe
p229
aVtorch tensorflow
p230
aVability
p231
aVhold
p232
aVu
aVdod security
p233
aVclearance
p234
aVcuda
p235
aVoptimization
p236
aVexperience
p237
aVusing
p238
aVnvidias
p239
aVparallel
p240
aVnsight
p241
aVtool
p242
aVextensive experience
p243
aVdesigning deploying
p244
aVlarge scale
p245
aVhpc
p246
aVenterprise
p247
aVcomputing
p248
aVsystem
p249
aVdeep knowledge
p250
aVmarket
p251
aVecosystem around
p252
aVspecific
p253
aVfederal government
p254
aVdepartment agency
p255
aVm phd
p256
aVengineering mathematics
p257
aVphysic computer
p258
aVscience
p259
aVdata science
p260
aVneuroscience
p261
aVexperimental psychology
p262
aVequivalent work
p263
aVexperience
p264
aVnvidia
p265
aVwidely
p266
aVconsidered
p267
aVone
p268
aVtechnology
p269
aVworld
p270
aVdesirable
p271
aVemployer
p272
aVbrilliant
p273
aVtalented people
p274
aVplanet
p275
aVworking
p276
aVu
aVyou're
p277
aVcreative
p278
aVautonomous
p279
aVwant hear
p280
aVaa eeo
p281
aVveteran disabled
p282
aVemployer
p283
aVdeeplearning
p284
a.