(lp1
Vclarabridge
p2
aVclarabridge team
p3
aVbuild
p4
aVproduct
p5
aVanalyze
p6
aVprocess
p7
aVcustomer feedback
p8
aVlarge scale
p9
aVclient
p10
aVuse
p11
aVsoftware
p12
aVanalyze large
p13
aVamount structured
p14
aVunstructured data
p15
aVoriginating variety
p16
aVsource
p17
aVsurvey
p18
aVsocial network
p19
aVcall transcript
p20
aVa.o. respond
p21
aVquery complaint
p22
aVsocial medium
p23
aVuse
p24
aVvariety artificial
p25
aVintelligence
p26
aVtechnique streamline
p27
aVprocess
p28
aVoffering
p29
aVdeep
p30
aVinsight
p31
aVdata
p32
aVoffering automation
p33
aVsolution
p34
aVpossible
p35
aVdata science
p36
aVclarabridge
p37
aVlooking
p38
aVmultiple
p39
aVdata scientist
p40
aVjoin
p41
aVdata science
p42
aVnlp
p43
aVteam
p44
aVghent
p45
aVbelgium
p46
aVoffice location
p47
aVarea
p48
aVyoull
p49
aVwork
p50
aVinclude
p51
aVnatural language
p52
aVprocessing sentiment
p53
aVanalysis ner
p54
aVsyntaxnet
p55
aVmachine learning
p56
aVsupervised unsupervised
p57
aVonline offline
p58
aVautomatic reply
p59
aVdialogue system
p60
aVbot
p61
aVbig data
p62
aVyoull
p63
aVusing
p64
aVproven
p65
aValgorithm
p66
aVsolution
p67
aVpossible conceive
p68
aVdesign develop
p69
aVevaluate
p70
aVmaintain
p71
aVnew
p72
aVcreative
p73
aVintelligence
p74
aVsolution
p75
aVneeded prototyping
p76
aVproduction
p77
aVscale youll
p78
aVcollaborating
p79
aVsoftware engineer
p80
aVintegrate
p81
aVsolution
p82
aVrest
p83
aVsoftware
p84
aVdesign
p85
aVproduction
p86
aVfamiliar interested
p87
aVdeep learning
p88
aVtechnique
p89
aVtensorflow syntaxnet
p90
aVexcellent understanding
p91
aVproven
p92
aVskill
p93
aVnlp
p94
aVvarious
p95
aVmachine learning
p96
aVtechnique
p97
aVflexible choice
p98
aVprogramming language
p99
aVcompetent one
p100
aVjava clojure
p101
aVpython desire
p102
aVlearn
p103
aVknowledge
p104
aVmain
p105
aVbig data
p106
aVnosql
p107
aVtechnology
p108
aVe.g. elasticsearch
p109
aVphd computer
p110
aVscience
p111
aVartificial intelligence
p112
aVequivalent experience
p113
aVpreferred
p114
aVlook
p115
aVpeople
p116
aVcuriosity humbleness
p117
aVsecond-guess learn
p118
aVpatience take
p119
aVtime
p120
aVtalk others
p121
aVshare knowledge
p122
aVcourage take
p123
aVbig
p124
aVproject
p125
aVload
p126
aVresponsibility
p127
aVownership
p128
aVexperience
p129
aVuse
p130
aVproven
p131
aVtechnology
p132
aVmath library
p133
aVeveryones benefit
p134
aVpride
p135
aVmake
p136
aVbest
p137
aVproduct possibly
p138
aVwisdom leave
p139
aVcampground cleaner
p140
aVfound
p141
aVlet honest
p142
aVgreat
p143
aVdata scientist
p144
aVnice
p145
aVwork hard
p146
aVfind hope
p147
aVyoure
p148
aVone
p149
aVproduct relying
p150
aVheavily nlp
p151
aVmachine learning
p152
aVdiscipline supervised
p153
aVunsupervised online
p154
aVoffline could
p155
aVsay big
p156
aVchallenge wrap
p157
aVhead around
p158
aVamount data
p159
aVwork
p160
aVcould described
p161
aVhuge
p162
aVlooking add
p163
aVdeep learning
p164
aVtoolset conquer
p165
aVdata
p166
aVget
p167
aVprocess
p168
aVknow
p169
aVthing two
p170
aVtensorflow syntaxnet
p171
aVwant come
p172
aVtalk u
p173
aVcoffee machine
p174
aVlearning
p175
aVgeneral
p176
aVplease
p177
aVbenefit
p178
aVclarabridge
p179
aVdevelopment
p180
aVteam
p181
aVpassionate making
p182
aVbest
p183
aVproduct
p184
aVwork
p185
aVagile
p186
aVway
p187
aVsoftware engineer
p188
aVknow
p189
aVlike
p190
aVbest
p191
aVlaptop phone
p192
aVable work
p193
aVgo
p194
aVpersonal growth
p195
aVopportunity
p196
aVlike
p197
aVgo
p198
aVconference
p199
aVhost
p200
aVmeetup
p201
aVguest
p202
aVcourse
p203
aVoffer
p204
aVnice
p205
aVsalary bonus
p206
aVpackage
p207
aVaccompanied
p208
aVfull
p209
aVhealth care
p210
aVplan
p211
aVgroup
p212
aVinsurance
p213
aVyoud
p214
aVlike
p215
aVwork
p216
aVu
aVoffice
p217
aVheart
p218
aVbeautiful
p219
aVcity
p220
aVgent
p221
aVoffice
p222
aVsan francisco
p223
aVlondon
p224
aVwashington
p225
aVsure
p226
aVreach
p227
aVu
a.