(lp1
Vjob description
p2
aVdevelops applies
p3
aVmathematical statistical
p4
aVtheory method
p5
aVcollect organize
p6
aVinterpret summarize
p7
aVnumerical
p8
aVdata
p9
aVprovide usable
p10
aVinformation
p11
aVresponsibility
p12
aVproduce innovative
p13
aVsolution
p14
aVdriven exploratory
p15
aVdata
p16
aVanalysis
p17
aVcomplex high-dimensional
p18
aVdatasets
p19
aVapplies knowledge
p20
aVstatistic machine
p21
aVlearning
p22
aVprogramming
p23
aVdata
p24
aVmodeling simulation
p25
aVadvanced mathematics
p26
aVrecognize pattern
p27
aVidentify opportunity
p28
aVpose business
p29
aVquestion make
p30
aVvaluable discovery
p31
aVleading prototype
p32
aVdevelopment
p33
aVproduct
p34
aVimprovement
p35
aVus flexible
p36
aVanalytical approach
p37
aVdesign develop
p38
aVevaluate predictive
p39
aVmodel
p40
aVadvanced
p41
aValgorithm
p42
aVlead optimal
p43
aVvalue extraction
p44
aVdata
p45
aVgenerates test
p46
aVhypothesis analyzes
p47
aVinterprets result
p48
aVproduct
p49
aVexperiment
p50
aVwork
p51
aVproduct
p52
aVengineer translate
p53
aVprototype new
p54
aVproduct service
p55
aVfeature
p56
aVprovide guideline
p57
aVlarge-scale implementation
p58
aVrequired qualification
p59
aVdemonstrated
p60
aVjob
p61
aVexperience
p62
aVintegrating analyzing
p63
aVlarge
p64
aVdata set
p65
aVusing big
p66
aVdata
p67
aVtechnology gots
p68
aVcot hive
p69
aVpig twister
p70
aVtableau visual
p71
aVstudio hadoop
p72
aVhbase blur
p73
aVdemonstrated
p74
aVjob
p75
aVexperience
p76
aVxml json
p77
aVcustomer
p78
aVstandard
p79
aVdata
p80
aVtransfer metadata
p81
aVmanagement
p82
aVdemonstrated
p83
aVjob
p84
aVexperience proposing
p85
aVimplementing evaluating
p86
aVcontent
p87
aVanalytic
p88
aVstrategy characterizing
p89
aVcategorizing large
p90
aVdata set
p91
aVdemonstrated
p92
aVjob
p93
aVexperience designing
p94
aVimplementing metadata
p95
aVmeasurement trend
p96
aVextraction
p97
aVlarge
p98
aVdata set
p99
aVtypically requires
p100
aVbachelor's degree
p101
aVequivalent five
p102
aVseven year
p103
aVrelated
p104
aVexperience
p105
aVposition requires
p106
aVactive t
p107
aVsci full
p108
aVscope polygraph
p109
aVcompany description
p110
aVcaci employ
p111
aVdiverse range
p112
aVtalent create
p113
aVenvironment fuel
p114
aVinnovation foster
p115
aVcontinuous improvement
p116
aVsuccess join
p117
aVcaci opportunity
p118
aVmake immediate
p119
aVimpact providing
p120
aVinformation
p121
aVsolution
p122
aVservice
p123
aVsupport
p124
aVnational security
p125
aVmission government
p126
aVtransformation intelligence
p127
aVdefense federal
p128
aVcivilian customer
p129
aVfortune magazine
p130
aVworld's admired
p131
aVcompany
p132
aVservice
p133
aVindustry caci
p134
aVmember fortune
p135
aV1000 largest
p136
aVcompany russell
p137
aV2000 index
p138
aVp smallcap600
p139
aVindex caci
p140
aVprovides dynamic
p141
aVcareer 20
p142
aV000 employee
p143
aVworldwide caci
p144
aVequal opportunity
p145
aVemployer -
p146
aVfemale minority
p147
aVprotected veteran
p148
aVindividual disability
p149
a.