(lp1
Vnhr global
p2
aVseeking data
p3
aVscientist statistician
p4
aVii full
p5
aVtime
p6
aVposition
p7
aVnorfolk
p8
aVvirginia
p9
aVva
p10
aVsupport
p11
aVgovernment
p12
aVcustomer
p13
aVschedule
p14
aVhour identified
p15
aVhired general
p16
aVfacility base
p17
aVhour 8
p18
aV00 5
p19
aV00 pm
p20
aVmonday friday
p21
aVextended hour
p22
aVauthorization overtime
p23
aVpremium pay
p24
aVdescription
p25
aVnhr global
p26
aVseeking data
p27
aVscientist statistician
p28
aVii perform
p29
aVanalysis
p30
aVdata
p31
aVwithin department
p32
aVcommerce needed
p33
aVprofessional
p34
aVqualification
p35
aVtask
p36
aVidentify quantify
p37
aVdata
p38
aVissue within
p39
aVorganization assist
p40
aVdevelopment
p41
aVplan resolve
p42
aVissue
p43
aVdata
p44
aVanalyst responsible
p45
aVdata mapping
p46
aVextract transform
p47
aVload etl
p48
aVactivity needed
p49
aVaddition support
p50
aVroutine data
p51
aVmanagement
p52
aVprocess ad
p53
aVhoc user
p54
aVrequest well
p55
aVperform testing
p56
aVactivity needed
p57
aVrequired
p58
aVtraining
p59
aVexperience
p60
aVba b
p61
aVdegree math
p62
aVstatistic operation
p63
aVresearch economics
p64
aVrelated quantitative
p65
aVdiscipline
p66
aVexperience
p67
aVrequired
p68
aVadvanced
p69
aVquantitative
p70
aVdegree preferred
p71
aVb ba
p72
aVdegree related
p73
aVindustry certification
p74
aVapproximately 8
p75
aVyear experience
p76
aVrelated field
p77
aVmust u.s.
p78
aVcitizen
p79
aVyear experience
p80
aVmay considered
p81
aVlieu education
p82
aVrequired
p83
aVposition please
p84
aVdetail cover
p85
aVletter case
p86
aVprovide
p87
aVyear
p88
aVspecific
p89
aVexperience
p90
aVwould qualify
p91
aVposition
p92
aVbenefit
p93
aVtop competitive
p94
aVsalary nhr
p95
aVglobal
p96
aVoffer comprehensive
p97
aVbenefit package
p98
aVincluding medical
p99
aVdental vision
p100
aVpaid time
p101
aV401k match
p102
a.