(lp1
Vdescription
p2
aVjob description
p3
aVlooking individual
p4
aVsupport
p5
aVdivision manager
p6
aVexecuting project
p7
aVworking
p8
aVdata scientist
p9
aVmission
p10
aVsolution
p11
aVparticular candidate
p12
aVinvolved aspect
p13
aVsystem
p14
aVdevelopment lifecycle
p15
aVsdlc requirement
p16
aVimplementation establishing
p17
aVmetric tracking
p18
aVexecution via
p19
aVrisk
p20
aVsuccess factor
p21
aVaiding decision
p22
aVmaking disposition
p23
aVenterprising project
p24
aVsystem
p25
aVengineer familiar
p26
aVproject management
p27
aVmethodology
p28
aVexperience
p29
aVcreating
p30
aVunderstanding work-breakdown
p31
aVstructure wb
p32
aVtracking schedule
p33
aVassisting statement
p34
aVwork sow
p35
aVcandidate comfortable
p36
aVproject
p37
aVdetail
p38
aVstrategic thinking
p39
aVhelp forge
p40
aVorganization
p41
aVfuture
p42
aVqualification required
p43
aVskill
p44
aVbachelor degree
p45
aVrelevant discipline
p46
aVcomputer science
p47
aVinformation system
p48
aVmanagement
p49
aVsystem engineering
p50
aVapplied
p51
aVinformation technology
p52
aVrelated field
p53
aVproven
p54
aVexperience
p55
aVsystem
p56
aVanalysis
p57
aVengineering
p58
aV10 year
p59
aV8 year
p60
aVgraduate
p61
aVadvanced degree
p62
aVdocumented experience
p63
aVproject management
p64
aVdemonstrated experience
p65
aVworking
p66
aVproject stakeholder
p67
aVuser
p68
aVlarge
p69
aVbig data
p70
aVdata scientist
p71
aVdata
p72
aVmanager
p73
aVsoftware developer
p74
aVsupporting
p75
aVdata
p76
aVanalytics
p77
aVstrong familiarity
p78
aVsystem engineering
p79
aVartifact
p80
aVdata flow
p81
aVdiagram dfd
p82
aVsequence diagram
p83
aVstate transition
p84
aVdiagram class
p85
aVdiagram
p86
aVdesired skill
p87
aVprevious exposure
p88
aVdata science
p89
aVtool
p90
aVpython r
p91
aVstudio
p92
aVunderstanding
p93
aVdata science
p94
aVbackground
p95
aVuser experience
p96
aVux
p97
aVengineering
p98
aVbackground
p99
aVoperation research
p100
aVbackground
p101
aVbusiness process
p102
aVengineering
p103
aVunderstanding ic
p104
aVdata set
p105
aVunderstanding
p106
aVbasic
p107
aVwork performed
p108
aVtechnical
p109
aVtargeting analyst
p110
aVexperience
p111
aVknowledge unix
p112
aVlinux based
p113
aVoperating system
p114
aVexperience
p115
aVunderstanding agile
p116
aVsaic overview
p117
aVsaic premier
p118
aVtechnology integrator
p119
aVproviding full
p120
aVlife cycle
p121
aVservice
p122
aVsolution
p123
aVtechnical
p124
aVengineering
p125
aVintelligence
p126
aVenterprise
p127
aVinformation technology
p128
aVmarket saic
p129
aVprovides
p130
aVsystem engineering
p131
aVintegration offering
p132
aVlarge complex
p133
aVproject headquartered
p134
aVmclean virginia
p135
aVsaic approximately
p136
aV15 000
p137
aVemployee annual
p138
aVrevenue 4.3
p139
aVbillion eoe
p140
aVaa f
p141
aVvet disability
p142
a.