(lp1
Vlove good
p2
aVmystery feel
p3
aVcompelled seek
p4
aVtrue meaning
p5
aVthing
p6
aVwould like
p7
aVwork
p8
aVteam
p9
aVpassionate problem-solvers
p10
aVdedicated bringing
p11
aVresearch
p12
aVinsight compelling
p13
aVdata
p14
aVlife
p15
aVsound good
p16
aVfar could
p17
aVperson
p18
aVlooking
p19
aVipsos one
p20
aVworld largest
p21
aVmarket research
p22
aVfirm truly
p23
aVindependent voice
p24
aVamong
p25
aVleading
p26
aVresearch
p27
aVbrand
p28
aVmany know
p29
aVu political
p30
aVpolling vast
p31
aVmajority
p32
aVbusiness
p33
aVarea
p34
aVmedium advertising
p35
aVbrand
p36
aVmarketing
p37
aVproduct
p38
aVinnovation
p39
aVcustomer engagement
p40
aVipsos prodigious
p41
aVgenerator information
p42
aVbehavior attitude
p43
aVconsumer voter
p44
aVdecision-makers general
p45
aVpublic facet
p46
aVculture ipsos
p47
aVtruly understands
p48
aVvoice
p49
aVpeople listen
p50
aVfirsthand every
p51
aVday
p52
aVmarket research
p53
aVanalyst
p54
aVanalyst
p55
aVdevelopment
p56
aVprogram
p57
aVyoull get
p58
aVchance work
p59
aVworld
p60
aVrecognized brand
p61
aVhelping
p62
aVsolve biggest
p63
aVchallenge integral
p64
aVpart exciting
p65
aVwork
p66
aVconnect
p67
aVresearch
p68
aVanalyst
p69
aVdiverse
p70
aVrole
p71
aVideal someone
p72
aVready
p73
aVmanage
p74
aVsurvey research
p75
aVproject
p76
aVwithin timeline
p77
aVbudget including
p78
aVworking closely
p79
aVcolleague
p80
aVoperation
p81
aVgroup oversee
p82
aVoperational component
p83
aVproject
p84
aVdesign questionnaire
p85
aVplan
p86
aVanalysis
p87
aVperform
p88
aVquality check
p89
aVvarious stage
p90
aVresearch
p91
aVensure accuracy
p92
aVavoid error
p93
aVmistake
p94
aVmanage
p95
aVoverall project
p96
aVtimeline ensuring
p97
aVmilestone met
p98
aVsigned various
p99
aVstage project
p100
aVexecution
p101
aVanalyze interpret
p102
aVsurvey result
p103
aVprepare report
p104
aVpresentation
p105
aVdevelop
p106
aVunderstanding
p107
aVclient
p108
aVbusiness
p109
aVissue
p110
aVindustry operate
p111
aVrequired skill
p112
aVdont wait
p113
aVapply today
p114
aVawesome
p115
aVlove
p116
aVdata
p117
aVconsumer decision-making
p118
aVpuzzle anyone
p119
aVcalled data
p120
aVscientist might
p121
aVwant hug
p122
aVcreate killer
p123
aVstory presentation
p124
aVvisually writing
p125
aVget excited
p126
aVmake
p127
aVcustomer happy
p128
aVbachelor degree
p129
aVanalytical insights-focused
p130
aVfield
p131
aVeconomics
p132
aVmarketing psychology
p133
aVsociology statistic
p134
aVsimilar
p135
aVbusiness liberal
p136
aVart program
p137
aVbeyond extra
p138
aVpoint
p139
aVexperience
p140
aVthing questionnaire
p141
aVdesign sampling
p142
aVapproach tabulation
p143
aVplanning
p144
aVserious m
p145
aVskill
p146
aVm office
p147
aVfriend proficient
p148
aVexcel powerpoint
p149
aVstrong organizational
p150
aVmulti-tasking decision-making
p151
aVproblem-solving ability
p152
aValong
p153
aVanalytical aptitude
p154
aVinquisitive nature
p155
aVpassion uncovering
p156
aVinsight
p157
aVexperience working
p158
aVsurvey
p159
aVapplication
p160
aVplus qualtrics
p161
aVgoogle consumer
p162
aVsurvey
p163
aVetc
p164
aVbackground
p165
aVfamiliarity
p166
aVquantitative qualitative
p167
aVresearch methodology
p168
aVproficiency microsoft
p169
aVoffice excel
p170
aVaccess word
p171
aVpowerpoint
p172
aVincluding
p173
aVability
p174
aVuse macro
p175
aVincrease efficiency
p176
aVexcel powerpoint
p177
aVrequired
p178
aVexperience
p179
a.