(lp1
Vposition summary
p2
aVaetnas consumer
p3
aVhealth service
p4
aVclinical
p5
aVanalytics
p6
aVteam creates
p7
aVcutting edge
p8
aVanalytic tool
p9
aVdrive better
p10
aVfaster decision
p11
aVmaking within
p12
aVorganization currently
p13
aVlooking exceptional
p14
aVdata scientist
p15
aVjoin u
p16
aVdeveloping
p17
aVproduct
p18
aVimprove effectiveness
p19
aVpharmacy business
p20
aVposition
p21
aVuse
p22
aVpredictive behavioral
p23
aVanalytics analytically
p24
aVderived insight
p25
aVdevelop test
p26
aVsolution improve
p27
aVconsumer provider
p28
aVengagement health
p29
aVoutcome lower
p30
aVhealth care
p31
aVcost
p32
aVfundamental component
p33
aVdevelops validates
p34
aVexecutes algorithm
p35
aVpredictive model
p36
aVinvestigate problem
p37
aVdetect pattern
p38
aVrecommend solution
p39
aVexplores examines
p40
aVinterprets large
p41
aVvolume data
p42
aVvarious form
p43
aVperforms analysis
p44
aVstructured unstructured
p45
aVdata
p46
aVsolve moderately
p47
aVcomplex
p48
aVbusiness problem
p49
aVutilizing advanced
p50
aVstatistical technique
p51
aVmathematical analysis
p52
aVdesign develop
p53
aVend-to-end dashboard
p54
aVsolution
p55
aVincluding converting
p56
aVbusiness
p57
aVrequirement
p58
aVdashboard creating
p59
aVanalytical
p60
aVview meet
p61
aVbusiness need
p62
aVdevelops
p63
aVdata structure
p64
aVpipeline organize
p65
aVcollect standardize
p66
aVdata
p67
aVhelp generate
p68
aVinsight address
p69
aVreporting need
p70
aVcreates evaluates
p71
aVdata
p72
aVneed assigned
p73
aVproject assures
p74
aVintegrity
p75
aVdata
p76
aVexplores existing
p77
aVdata
p78
aVrecommends additional
p79
aVsource
p80
aVdata
p81
aVimprovement
p82
aVdocument project
p83
aVincluding
p84
aVbusiness objective
p85
aVdata gathering
p86
aVprocessing detailed
p87
aVset
p88
aVresult
p89
aVanalytical metric
p90
aVplace remaining
p91
aVbullet background
p92
aVsection
p93
aVunderstanding
p94
aVhealth care
p95
aVindustry
p96
aVproduct
p97
aVsystem
p98
aVpreferred
p99
aVeffectively resolve
p100
aVproblem roadblock
p101
aVoccur
p102
aVdemonstrates good
p103
aVwritten verbal
p104
aVcommunication skill
p105
aVable present
p106
aVinformation
p107
aVvarious audience
p108
aVbachelor's degree
p109
aVequivalent work
p110
aVexperience
p111
aVmathematics statistic
p112
aVcomputer science
p113
aVbusiness
p114
aVanalytics
p115
aVeconomics physic
p116
aVengineering related
p117
aVdiscipline master
p118
aVdegree preferred
p119
aVbackground
p120
aVexperience
p121
aVdesired
p122
aV3 year
p123
aVrelevant
p124
aVprogramming
p125
aVanalytic
p126
aVexperience
p127
aVability work
p128
aVlarge
p129
aVdata set
p130
aVmultiple
p131
aVdata source
p132
aVdemonstrates proficiency
p133
aVseveral area
p134
aVdata
p135
aVmodeling machine
p136
aVlearning algorithm
p137
aVstatistical analysis
p138
aVdata
p139
aVengineering
p140
aVdata visualization
p141
aVexpertise
p142
aVtableau
p143
aVsql sa
p144
aVpython r
p145
aVbig data
p146
aVtechnology
p147
aVincluding
p148
aVhadoop pig
p149
aVeducation
p150
aVhighest level
p151
aVeducation desired
p152
aVcandidate position
p153
aVbachelor's degree
p154
aVequivalent experience
p155
aVadditional job
p156
aVinformation
p157
aVposition
p158
aVunique opportunity
p159
aVsomeone passionate
p160
aVapplying innovation
p161
aVdata science
p162
aVmachine learning
p163
aVimprove health
p164
aVcare
p165
aVservice
p166
aVoutcome
p167
aVteam
p168
aVu
aVindustry leading
p169
aVscalable
p170
aVdata
p171
aVplatform
p172
aVtechnique
p173
aVcreating
p174
aVsolution
p175
aVchallenging business
p176
aVproblem
p177
aVwould part
p178
aVnew expanding
p179
aVpharmacy analytics
p180
aVteam plenty
p181
aVopportunity interact
p182
aVproject stakeholder
p183
aVbusiness partner
p184
aVlevel organization
p185
aVresponsible partnering
p186
aVaetna pharmacy
p187
aVbusiness leader
p188
aVunderstand
p189
aVoperation
p190
aVdata
p191
aVdeveloping
p192
aVapplication
p193
aVvisualization tool
p194
aVsupport
p195
aVdecision making
p196
aVextract manipulate
p197
aVclaim prescription
p198
aVdata
p199
aVmultiple
p200
aVlarge
p201
aVdata source
p202
aVuse advanced
p203
aVstatistical technique
p204
aVmathematical analysis
p205
aVidentify trend
p206
aVevaluate scenario
p207
aVmake prediction
p208
aVfuture outcome
p209
aVvalue driver
p210
aVfast-paced collaborative
p211
aViterative environment
p212
aVrequiring quick
p213
aVlearning agility
p214
aVflexibility
p215
aVaetna job
p216
aVopportunity re-shape
p217
aVhealthcare america
p218
aVacross globe
p219
aVdeveloping solution
p220
aVimprove quality
p221
aVaffordability healthcare
p222
aVbenefit generation
p223
aVcome
p224
aVcare customer
p225
aVcommunity inspired
p226
aVmake difference
p227
aVcommitted integrity
p228
aVexcellence together
p229
aVempower people
p230
aVlive healthier
p231
aVlife
p232
aVaetna equal
p233
aVopportunity affirmative
p234
aVaction employer
p235
aVqualified applicant
p236
aVreceive consideration
p237
aVemployment regardless
p238
aVpersonal characteristic
p239
aVstatus take
p240
aVaffirmative action
p241
aVrecruit select
p242
aVdevelop woman
p243
aVpeople color
p244
aVveteran individual
p245
aVdisability
p246
aVcompany built
p247
aVexcellence culture
p248
aVvalue growth
p249
aVachievement diversity
p250
aVworkplace voice
p251
aVheard
p252
aVbenefit eligibility
p253
aVmay vary
p254
aVposition click
p255
aVreview benefit
p256
aVassociated position
p257
aVaetna take
p258
aVcandidate's data
p259
aVprivacy seriously
p260
aVtime aetna
p261
aVrecruiter employee
p262
aVrequest financial
p263
aVpersonal information
p264
aVsocial security
p265
aVnumber credit
p266
aVcard information
p267
aVdirect deposit
p268
aVetc via
p269
aVe-mail request
p270
aVinformation discussed
p271
aVprior conducted
p272
aVsecure website
p273
aVprovided recruiter
p274
aVasked information
p275
aVplease notify
p276
aVu immediately
p277
aVemployment type
p278
aVregular career
p279
aVband description
p280
aVprofessional
p281
a.