(lp1
Vsr staff
p2
aVdata
p3
aVscientistreq
p4
aVht-475723
p5
aVrate
p6
aVprimary
p7
aVskill
p8
aVdescription
p9
aVlooking
p10
aVdata scientist
p11
aVready apply
p12
aVdata mining
p13
aVmachine learning
p14
aVknowledge
p15
aVreal-world
p16
aVmachine generated
p17
aVlog derive
p18
aVinsight
p19
aVvarious aspect
p20
aVtelecommunication network
p21
aVseek
p22
aVcandidate
p23
aVbackground
p24
aVcomputer science
p25
aVrelated field
p26
aVknowledge
p27
aVexperience
p28
aVdata mining
p29
aVmachine learning
p30
aVstatistic
p31
aVresponsibility include
p32
aVcleaning analyzing
p33
aVdata
p34
aVbuild predictive
p35
aVanalytics
p36
aVmodel
p37
aVderive insight
p38
aVdesired skill
p39
aVexperience
p40
aVphd computer
p41
aVscience related
p42
aVfield
p43
aVelectrical engineering
p44
aVmath statistic
p45
aVrequired
p46
aVstrong programming
p47
aVskill
p48
aVscripting language
p49
aVpython perl
p50
aVshell
p51
aVprogramming
p52
aVrequired
p53
aVexperience
p54
aVprogramming language
p55
aVtool
p56
aVdata mining
p57
aVmachine learning
p58
aVpython panda
p59
aVscikit-learn r
p60
aVmatlab
p61
aVrequired
p62
aVknowledge networking
p63
aVcommunication
p64
aVplus
p65
aVknowledge
p66
aVdeep learning
p67
aVexperience
p68
aVdeep learning
p69
aVplatform
p70
aVplus
p71
aVexperience
p72
aVnetworking datasets
p73
aVsnmp netflow
p74
aVcdrs packet
p75
aVtrace plus
p76
aVexperience
p77
aVanomaly detection
p78
aValgorithm
p79
aVsystem
p80
aVplus
p81
aVexperience
p82
aVbig data
p83
aVplatform
p84
aVhadoop hive
p85
aVspark
p86
aVplus
p87
aVpublication academic
p88
aVcomputer science
p89
aVconference journal
p90
aVplus
p91
a.