(lp1
Vlead
p2
aVdata
p3
aVengineer
p4
aV-
aVeinstein
p5
aVdata science
p6
aVteam
p7
aVeinstein
p8
aVdata science
p9
aVteam
p10
aVsalesforce looking
p11
aVlead
p12
aVdata
p13
aVengineer
p14
aVhelp u
p15
aVtake
p16
aVone world's
p17
aVextensive
p18
aVdata set
p19
aVtransform
p20
aVamazing product
p21
aVfeel like
p22
aVmagic
p23
aVtypical day
p24
aVmight include
p25
aVfollowing
p26
aVdeveloping
p27
aVdata
p28
aVinfrastructure
p29
aVable
p30
aVingest transform
p31
aVdata
p32
aVhuge scale
p33
aVcoming many
p34
aVdifferent source
p35
aVdifferent
p36
aVcustomer
p37
aVmany different
p38
aVvariety
p39
aVdeveloping
p40
aVmachine learning
p41
aVinfrastructure
p42
aVgeneralize
p43
aVacross hundred
p44
aVthousand
p45
aVsalesforce customer
p46
aVexpressive
p47
aVenough
p48
aVactually
p49
aVgenerate
p50
aVhigh
p51
aVlift
p52
aVbrainstorming
p53
aVdata
p54
aVproduct
p55
aVidea
p56
aVdata scientist
p57
aVengineer
p58
aVbuilt
p59
aVexciting
p60
aVdata
p61
aVproduct
p62
aVhundred million
p63
aVpeople
p64
aVuse
p65
aVevery day
p66
aVworking
p67
aVinternal
p68
aVproduct
p69
aVteam
p70
aVingest
p71
aVdata
p72
aVsprinkle
p73
aVmachine learning
p74
aVfairy
p75
aVdust
p76
aVproduct
p77
aVparticipating
p78
aVmeal
p79
aVconversation team
p80
aVmember
p81
aVreally important
p82
aVtopic
p83
aVcuteness
p84
aVpanda
p85
aVbear
p86
aVfactor
p87
aVsurvivability
p88
aVlove
p89
aVdecision tree
p90
aVregression model
p91
aVfar
p92
aVahead
p93
aVwould
p94
aVsociety
p95
aVtoday
p96
aV12
p97
aVfinger
p98
aVinstead
p99
aV10
p100
aVcare
p101
aVwe're
p102
aVgrowing diverse
p103
aVteam
p104
aVwork together
p105
aVproject
p106
aVlove
p107
aVcollaborate
p108
aVhelp
p109
aVwant someone
p110
aVshare
p111
aVideology
p112
aVquick learner
p113
aV-
aVface new
p114
aVchallenge
p115
aVevery day
p116
aVanything
p117
aVrange
p118
aVoperating
p119
aVmodel
p120
aVfinancial service
p121
aVcompany
p122
aVmake
p123
aVspark
p124
aVwork
p125
aVs3
p126
aVfile system
p127
aVschool
p128
aVcould
p129
aVprepare
p130
aVneed quick
p131
aVfoot
p132
aVdevelop
p133
aVreal
p134
aVproduct
p135
aVneed
p136
aVexpert
p137
aVcoding
p138
aVuse
p139
aVscala
p140
aVfunctional programming
p141
aVprinciple
p142
aVgreat
p143
aVwilling learn
p144
aVmassive scale
p145
aVneed
p146
aVexperience
p147
aVdistributed scalable
p148
aVsystem
p149
aVconsistency
p150
aVavailability
p151
aVtradeoff
p152
aVmade
p153
aVyou've
p154
aVtinkered
p155
aVmodern
p156
aVdata storage
p157
aVmessaging
p158
aVprocessing
p159
aVtool
p160
aVkafka spark
p161
aVhadoop cassandra
p162
aVetc
p163
aVrun
p164
aVaws
p165
aVdockerize
p166
aVapplication
p167
aVnotion
p168
aVbuild
p169
aVtest deploy
p170
aVcode run
p171
aVcloud infrastructure
p172
aVself sufficient
p173
aV-
aVoperate like
p174
aVstartup
p175
aVeveryone
p176
aVmight
p177
aVbit everything
p178
aVget thing
p179
aVdone
p180
aVwant make
p181
aVdifference
p182
aV-
aVdon't like
p183
aVstatus quo
p184
aVlooking
p185
aVpeople want
p186
aVexcel
p187
aVeverything
p188
aVstill
p189
aVable prioritize
p190
aVmust-haves
p191
aVnice-to-haves
p192
a.