(lp1
Vroche sequencing
p2
aVsolution
p3
aVsanta clara
p4
aVfast moving
p5
aVhighly technical
p6
aVteam
p7
aVpeople
p8
aVambitious goal
p9
aVdisrupting next
p10
aVgeneration dna
p11
aVsequencing technology
p12
aVfuse active
p13
aVbiological solid
p14
aVstate
p15
aVelement bring
p16
aVsingle molecule
p17
aVbased sequence
p18
aVdetection
p19
aVscale
p20
aVdeveloping
p21
aVunique
p22
aVplatform
p23
aVrequires expertise
p24
aVacross
p25
aVrange
p26
aVfield
p27
aVsoftware engineering
p28
aVdata science
p29
aVinformation
p30
aVtheory biophysics
p31
aVbiology chemistry
p32
aVprotein engineering
p33
aVdigital analog
p34
aVcircuit design
p35
aVelectrochemistry name
p36
aVsenior
p37
aVdata scientist
p38
aVsystem integration
p39
aVassay
p40
aVteam
p41
aVopportunity
p42
aVwork
p43
aVexpert
p44
aVfield
p45
aVfocused
p46
aVcommon goal
p47
aVbringing
p48
aVsequencing platform
p49
aVmarket
p50
aVrole
p51
aVhelp
p52
aVanalyze interpret
p53
aVsequencing
p54
aVresult
p55
aVenhance
p56
aVperformance
p57
aVsequencing instrument
p58
aVrequire
p59
aVdeep understanding
p60
aVtechnology
p61
aVwork
p62
aVentail
p63
aVusing
p64
aVskill
p65
aVseveral
p66
aVscientific discipline
p67
aVlisted
p68
aVresponsibility
p69
aVperform
p70
aVstatistical analysis
p71
aVsequencing
p72
aVdata
p73
aVdetermine
p74
aVeffect
p75
aVchanging
p76
aVsequencing
p77
aVparameter
p78
aVcreate
p79
aVnovel
p80
aVanalysis pipeline
p81
aVquantify
p82
aVprevalence
p83
aVduration
p84
aVvarious
p85
aVsequencing
p86
aVsignal
p87
aVdevelop implement
p88
aVmathematical
p89
aValgorithm
p90
aVusing python
p91
aVdata mining
p92
aVanalysis
p93
aVquantify
p94
aVsequencing
p95
aVperformance
p96
aVusing various
p97
aVparameter
p98
aVmetric
p99
aVdebug software
p100
aVissue
p101
aVcreate robust
p102
aVplatform
p103
aVbecome expert
p104
aVoperation
p105
aVgenia
p106
aVsingle molecule
p107
aVsequencing platform
p108
aVassist
p109
aVlab
p110
aVpersonnel
p111
aVcustomizing
p112
aVanalysis
p113
aVcode
p114
aVunderstand
p115
aVsystem
p116
aVperformance
p117
aVyou're someone
p118
aVwant influence
p119
aVdevelopment
p120
aVyou're looking
p121
aVcompany
p122
aVopportunity
p123
aVpursue interest
p124
aVacross function
p125
aVgeography job
p126
aVtitle considered
p127
aVfinal definition
p128
aVstarting point
p129
aVmaster phd
p130
aVcomputer science
p131
aVelectrical engineering
p132
aVstatistic related
p133
aVdiscipline
p134
aVbackground
p135
aVmolecular biology
p136
aVbiology
p137
aVbiochemistry
p138
aVmaster phd
p139
aVbiology
p140
aVdiscipline
p141
aVability
p142
aVperform
p143
aVstatistical analysis
p144
aVdata
p145
aVprogram
p146
aVjmp matlab
p147
aVr
aVscientific programming
p148
aVexperience
p149
aVusing python
p150
aVincluding
p151
aVpanda numpy
p152
aVfamiliarity linux
p153
aVunix
p154
aVoperating system
p155
aVplus
p156
aVunderstanding
p157
aVdna sequencing
p158
aVmethodology
p159
aVmeticulous attention
p160
aVdetail
p161
aVexcellent written
p162
aVelectronic record
p163
aVkeeping
p164
aVskill
p165
aVstrong oral
p166
aVwritten communication
p167
aVskill
p168
aVprevious
p169
aVnanopore
p170
aVbiophysics
p171
aVexperience
p172
aVplus
p173
aVroche 91
p174
aV700 people
p175
aVacross
p176
aV100 country
p177
aVpushing back
p178
aVfrontier healthcare
p179
aVworking together
p180
aVwe've become
p181
aVone world's
p182
aVleading research-focused
p183
aVhealthcare
p184
aVgroup
p185
aVsuccess built
p186
aVinnovation
p187
aVcuriosity diversity
p188
aVroche equal
p189
aVopportunity employer
p190
aVstrictly prohibits
p191
aVunlawful discrimination
p192
aVbased upon
p193
aVindividual's race
p194
aVcolor religion
p195
aVgender sexual
p196
aVorientation gender
p197
aVidentity expression
p198
aVnational origin
p199
aVancestry age
p200
aVmental physical
p201
aVdisability medical
p202
aVcondition marital
p203
aVstatus veteran
p204
aVstatus characteristic
p205
aVprotected law
p206
aVjob fact
p207
aVlocation united
p208
aVstate california
p209
aVsanta clara
p210
aVfunction
p211
aVresearch
p212
aVsubfunction research
p213
aVschedule full-time
p214
aVjob
p215
aVlevel
p216
aVindividual contributor
p217
aVjob type
p218
aVregular employee
p219
aVdivision diagnostics
p220
aVposted since
p221
aV2017
p222
aV04
p223
aV14
p224
aVjob-id
p225
aV3399336000
p226
a.