(lp1
Vjob description
p2
aVlead
p3
aVsupport
p4
aVvarious
p5
aVproject
p6
aVpower personalization
p7
aVrecommendation
p8
aVcontent discovery
p9
aVsite
p10
aVuse
p11
aVanalytical model
p12
aVreduce uncertainty
p13
aVdrive
p14
aVkey
p15
aVdecision
p16
aVacross organization
p17
aVwork cross
p18
aVfunctionally increase
p19
aVdata
p20
aVsophistication
p21
aVdemonstrate
p22
aVteam
p23
aVleadership
p24
aVlead
p25
aVsupport
p26
aVvarious
p27
aVproject
p28
aVpower personalization
p29
aVrecommendation
p30
aVcontent discovery
p31
aVsite
p32
aVwork
p33
aVmarketing
p34
aVproduct
p35
aVsite merchandising
p36
aVteam
p37
aVdefine problem
p38
aVstatement
p39
aVidentify
p40
aVdata source
p41
aVanswer question
p42
aVexplore
p43
aVdata
p44
aVincrease
p45
aVunderstanding
p46
aVcustomer behavior
p47
aVattitude
p48
aVpreference
p49
aVbuild maintain
p50
aVdata
p51
aVdriven
p52
aVoptimization
p53
aVmodel
p54
aVexperiment
p55
aVforecasting
p56
aValgorithm
p57
aVdesign deploy
p58
aValgorithmic solution
p59
aVbetter
p60
aVmeet need
p61
aVcustomer
p62
aVuse
p63
aVanalytical model
p64
aVreduce uncertainty
p65
aVdrive
p66
aVkey
p67
aVdecision
p68
aVacross organization
p69
aVunderstand
p70
aVcustomer lifecycle
p71
aVgenerate actionable
p72
aVinsight recommendation
p73
aVultimately increase
p74
aVrevenue
p75
aVaware
p76
aVmicro
p77
aVmacro-economic
p78
aVtrend
p79
aVimpact
p80
aVbusiness
p81
aVcreate compelling
p82
aVpresentation
p83
aVinternal external
p84
aVcustomer
p85
aVclearly concisely
p86
aVpresent
p87
aVstrategic tactical
p88
aVrecommendation
p89
aVwork cross
p90
aVfunctionally increase
p91
aVdata
p92
aVsophistication
p93
aVestablish trust
p94
aVcollaborative
p95
aVworking relationship
p96
aVdevelop
p97
aVin-depth knowledge
p98
aVdata source
p99
aVrelevant
p100
aVfunction
p101
aVidentify area
p102
aVcould
p103
aVoptimized
p104
aVincreased
p105
aVaccess
p106
aVdata
p107
aVwork
p108
aVteam
p109
aVintegrate
p110
aVmodel
p111
aVdaily
p112
aVworkflow
p113
aVdemonstrate
p114
aVteam
p115
aVleadership
p116
aVgreat
p117
aVteam player
p118
aVeveryone
p119
aVenjoys working
p120
aVteam member
p121
aVlook
p122
aVlead example
p123
aVprovide on-going
p124
aVmentorship guidance
p125
aVteam
p126
aVdata scientist
p127
aVanalyst
p128
aVfoster culture
p129
aVcontinuous improvement
p130
aVfocus
p131
aVproviding solution
p132
aVdelivering result
p133
aVensure accuracy
p134
aVrelevance
p135
aVteam's
p136
aVdeliverable
p137
aVli-sp1
p138
aVlocationus-ca-san
p139
aVfrancisco-battery
p140
aVst-corporatefull
p141
aVtime
p142
aVpart
p143
aVtimefull
p144
aVtime
p145
a.