(lp1
Vjob description
p2
aVintel's unmanned
p3
aVaerial vehicle
p4
aVuav organization
p5
aVlooking
p6
aVdata scientist
p7
aVengineer intern
p8
aVpassionate drone
p9
aVconsumer electronics
p10
aVproduct
p11
aVanalytics
p12
aVsuccessful candidate
p13
aVwork closely
p14
aVproduct manager
p15
aVdrone
p16
aVengineer
p17
aVsoftware developer
p18
aVcreate
p19
aVdata
p20
aVanalytics
p21
aVpipeline
p22
aVproof-of-concept
p23
aVobjective
p24
aVenable
p25
aVdrone
p26
aVproduct manager
p27
aVcollect analyze
p28
aVengagement
p29
aVuser-flow
p30
aVinformation
p31
aVinform
p32
aVaccelerate
p33
aVproduct development
p34
aVcycle.responsibilitiesas
p35
aVdata science
p36
aVengineer responsible
p37
aVproposing
p38
aVanalytics
p39
aVpipeline architecture
p40
aVdrone
p41
aVanalytics.you
p42
aVuse
p43
aVprogramming skill
p44
aVcreate
p45
aVlibrary
p46
aVcollect
p47
aVusage
p48
aVdata
p49
aVdrones.you
p50
aVwork
p51
aVproduct manager
p52
aVdefine
p53
aVproduct
p54
aVkey performance
p55
aVmetric kpis
p56
aVuse
p57
aVdashboard
p58
aVskill pull
p59
aVdrone
p60
aVdata collected
p61
aVdatabase
p62
aVgenerate
p63
aVtrend
p64
aVmetric
p65
aVplot
p66
aVqualification
p67
aVmust posse
p68
aVminimum qualification
p69
aVinitially considered
p70
aVposition
p71
aVpreferred qualification
p72
aVaddition minimum
p73
aVrequirement
p74
aVconsidered plus
p75
aVfactor identifying
p76
aVtop
p77
aVcandidate
p78
aVexperience
p79
aVlisted would
p80
aVobtained combination
p81
aVschool
p82
aVwork
p83
aVclass
p84
aVresearch
p85
aVrelevant previous
p86
aVjob internship
p87
aVexperience
p88
aVminimum qualification
p89
aVmust pursuing
p90
aVbachelor's
p91
aVelectrical engineering
p92
aVcomputer engineering
p93
aVcomputer science
p94
aVscience engineering
p95
aVrelated field
p96
aVb
aVlevel
p97
aVmust unrestricted
p98
aVright
p99
aVwork
p100
aVu
aVwithout requiring
p101
aVsponsorship
p102
aVminimum 3
p103
aVmonth
p104
aVexperience
p105
aVfollowing area
p106
aVdc
p107
aVc++ python
p108
aVjava
p109
aVlinux
p110
aVdatabase
p111
aVplotly
p112
aVdata visualization
p113
aVtool
p114
aVpreferred qualification
p115
aVyocto linux
p116
aVgoogle analytics
p117
aVbig data
p118
aVhadoop spark
p119
aVtableau
p120
aVbusiness intelligence
p121
aVtool
p122
aVinside business
p123
aVgroup
p124
aVperceptual computing
p125
aVperc organization
p126
aVwithin
p127
aVintel tasked
p128
aVresearch development
p129
aVproductization
p130
aVtechnology
p131
aVnatural
p132
aVuser interaction
p133
aVencompassing human
p134
aVmachine
p135
aVhuman
p136
aVhuman
p137
aVexperience
p138
aVperc aim
p139
aVbuild
p140
aVtechnology
p141
aVwould
p142
aVhelp
p143
aVuser
p144
aVnatural immersive
p145
aVintuitive interaction
p146
aVcomputer
p147
aVtouch interface
p148
aValso
p149
aVhand gesture
p150
aVvoice video
p151
aVobjective perc
p152
aVexplore consumer-focused
p153
aVhardware software
p154
aVapplication close-range
p155
aVhand finger
p156
aVgesture speech
p157
aVrecognition face
p158
aVrecognition tracking
p159
aVaugmented reality
p160
aVposting statement
p161
aVintel prohibits
p162
aVdiscrimination based
p163
aVrace color
p164
aVreligion gender
p165
aVnational origin
p166
aVage disability
p167
aVveteran status
p168
aVmarital status
p169
aVpregnancy gender
p170
aVexpression identity
p171
aVsexual orientation
p172
aVlegally protected
p173
aVstatus
p174
a.