(lp1
Vjob
p2
aVsenior
p3
aVsoftware engineer
p4
aV5+ year
p5
aVfull stack
p6
aVpython
p7
aVdevelopment
p8
aVexperience
p9
aVplease read
p10
aVbased san
p11
aVfrancisco
p12
aVsaas
p13
aVproduct
p14
aVchanging
p15
aVindustry
p16
aVhelping people
p17
aVmake better
p18
aVdecision
p19
aVbuying
p20
aVhome
p21
aVneed
p22
aVsenior
p23
aVsoftware engineer
p24
aVhelp
p25
aVuse
p26
aVlarge
p27
aVdata set
p28
aVbeautiful visualization
p29
aVarchitect
p30
aVhighly-scale-able
p31
aVrevolutionary
p32
aVplatform
p33
aVproduct
p34
aVstack
p35
aVpython django
p36
aVsql programming
p37
aVjavascript framework
p38
aVjquery
p39
aVangular2
p40
aVreact.js
p41
aVd3.js
p42
aVsvg
p43
aVpostgresql
p44
aVgit
p45
aVansible
p46
aVaws ec2
p47
aVs3 redshift
p48
aVr
aVpanda numpy
p49
aVpostgis
p50
aVopen
p51
aVlayer
p52
aVslippy
p53
aVmap
p54
aVrestful api
p55
aVdevelopment
p56
aVintegration
p57
aVsound like
p58
aVplease apply
p59
aVfill
p60
aVapplication
p61
aVself-assessment
p62
aVmake
p63
aVprocess
p64
aVgo
p65
aVquicker
p66
aVtop reason
p67
aVwork
p68
aVu
aV1
aVwork
p69
aVlatest technology
p70
aV2
aVmassive growth
p71
aV3
aVgreat
p72
aVleadership
p73
aVchallenging
p74
aVwork
p75
aV-
aVplay key
p76
aVrole
p77
aVdeveloping
p78
aVarchitecture
p79
aVplatform
p80
aV-
aVimprove
p81
aVcode base
p82
aVperformance
p83
aVrequest
p84
aVlatency
p85
aV-
aVhelp
p86
aVarchitect implement
p87
aVscalable
p88
aVbilling
p89
aVsystem
p90
aV-
aVenhance optimize
p91
aVproduct
p92
aVmap
p93
aVapi
p94
aV-
aVscale
p95
aVuser
p96
aVaccount management
p97
aVsystem
p98
aV-
aVwork
p99
aVworld-class
p100
aVdata scientist
p101
aVdata
p102
aVengineer
p103
aVincorporate
p104
aVnew
p105
aVdata source
p106
aVneed
p107
aVposition
p108
aVrequired
p109
aV-
aV5+ year
p110
aVsoftware engineering
p111
aVexperience
p112
aV-
aVadvanced
p113
aVlevel
p114
aVpython
p115
aVexperience
p116
aV-
aVadvanced
p117
aVsql programming
p118
aVtheory
p119
aVquery
p120
aVjoin
p121
aVetc
p122
aV-
aVdeveloping
p123
aVhighlyrestful
p124
aVapi integration
p125
aVdevelopment
p126
aV-
aVstrong
p127
aVrelational database
p128
aVexperience
p129
aVpreferably
p130
aVpostgresql mysql
p131
aV-
aVexperience
p132
aVamazon web
p133
aVservice aws
p134
aVec2 s3
p135
aVred
p136
aVshift
p137
aV-
aVproficient
p138
aVfront end
p139
aVtechnology
p140
aVjavascript html5
p141
aVcss3
p142
aVjquery
p143
aVnice skill
p144
aVrequired
p145
aV-
aVexperience
p146
aVdjango flask
p147
aV-
aVproficient
p148
aVangular2
p149
aVreact.js
p150
aVnative
p151
aVreact
p152
aVsimilar
p153
aVmvc
p154
aV-
aVlocation
p155
aVdata
p156
aVmap
p157
aVapi development
p158
aVexperience
p159
aV-
aVexperience
p160
aVstrong knowledge
p161
aVdjango-rest
p162
aVframework
p163
aVdrf
p164
aV-
aVexperience
p165
aVpython
p166
aVanalytical
p167
aVframework
p168
aVpanda numpy
p169
aVscipy scikit-learn
p170
aV-
aVio android
p171
aVdevelopment
p172
aVexperience
p173
aV-
aVexperience
p174
aVpostgis
p175
aV-
aVbilling
p176
aVsystem integration
p177
aV-
aVreal estate
p178
aVindustry
p179
aVsoftware
p180
aVexperience
p181
aVwhat's
p182
aV-
aVcompetitive base
p183
aVsalary
p184
aV150
p185
aV-
aV170k
p186
aVdepending
p187
aVexperience
p188
aV-
aVstock option
p189
aV-
aV100
p190
aVmedical dental
p191
aVvision coverage
p192
aVemployee
p193
aV50
p194
aVtowards
p195
aVdependent
p196
aV- unlimited
p197
aVpto
p198
aVpaid holiday
p199
aVsick day
p200
aV-
aVflexible work
p201
aVhour
p202
aVwfh
p203
aVoption
p204
aVweekly
p205
aV100
p206
aVrole
p207
aV-
aVcontinued
p208
aVeducation
p209
aVper
p210
aVdiem
p211
aV-
aVannual bonus
p212
aV10
p213
aV-
aV20
p214
aV-
aVmany perk
p215
aVsenior
p216
aVsoftware engineer
p217
aV5+ year
p218
aVfull stack
p219
aVpython
p220
aVdevelopment
p221
aVexperience
p222
aVplease apply
p223
aVtoday
p224
aVreport
p225
a.