(lp1
Vcompany
p2
aVfaraday future
p3
aVcalifornia mobility
p4
aVcompany
p5
aVbringing tech
p6
aVapproach clean
p7
aVtransportation ff
p8
aVbelieve placing
p9
aVequal emphasis
p10
aVautomotive
p11
aVtechnology
p12
aVdiscipline
p13
aVteam
p14
aVexpert uniquely
p15
aVpositioned take
p16
aVuser-centric technology-first
p17
aVapproach vehicle
p18
aVdesign ultimate
p19
aVaim connecting
p20
aVautomotive
p21
aVexperience
p22
aVrest life
p23
aVrole
p24
aVtldr use
p25
aVstats machine
p26
aVlearning
p27
aVmath c
p28
aVhelp
p29
aVdesign
p30
aVcar sensor
p31
aVgain insight
p32
aVbusiness decision
p33
aVregarding sale
p34
aVmarketing
p35
aVhelp
p36
aVcreate seamless
p37
aVservice
p38
aVexperience
p39
aVmodel
p40
aVreliability
p41
aVwork iov
p42
aVspace
p43
aVhelp
p44
aVdevelop
p45
aVnext generation
p46
aValgorithm
p47
aVmethodology
p48
aVpower connected
p49
aVvehicle
p50
aVunderstand
p51
aVconsumer space
p52
aVdevelop
p53
aVnext generation
p54
aVcustomer
p55
aVsale
p56
aVservice
p57
aVmodel
p58
aVutilize machine
p59
aVlearning algorithm
p60
aVhelp customize
p61
aVcar around
p62
aVaround
p63
aVuser
p64
aVbasic
p65
aVrequirement
p66
aVmaster
p67
aVstatistic biostatistics
p68
aVcomputer science
p69
aVapplied mathematics
p70
aVrelated field
p71
aVextensive experience
p72
aVr python
p73
aVfamiliar unix
p74
aVhigh performance
p75
aVcomputing
p76
aVdeep understanding
p77
aVstatistical modeling
p78
aVregression hypothesis
p79
aVtesting estimation
p80
aVmonte carlo
p81
aVsimulation mcmc
p82
aVbootstrapping pca
p83
aVexpertise
p84
aVmachine learning
p85
aVclustering random
p86
aVforest neural
p87
aVnet svm
p88
aVnearest neighbor
p89
aVexperience
p90
aVspark hadoop
p91
aVbig data
p92
aVtool
p93
aVpreferred
p94
aVrequirement
p95
aVphd statistic
p96
aVbiostatistics computer
p97
aVscience applied
p98
aVmathematics related
p99
aVfield
p100
aVexperience
p101
aVpig hive
p102
aVexperience
p103
aVnlp sentiment
p104
aVanalysis
p105
aVprior
p106
aVwork
p107
aVhistory automotive
p108
aVindustry
p109
aVee hardware
p110
aVexperience
p111
aVsensor plus
p112
aVperk +
p113
aVbenefit
p114
aVfree house
p115
aVcatered lunch
p116
aVevery day
p117
aVsnack coffee
p118
aVavailable 247
p119
aVhealth dental
p120
aVvision benefit
p121
aV401 k
p122
aVpaid vacation
p123
aVtime
p124
aVevery
p125
aVyear
p126
aVplus
p127
aVfull week
p128
aVpaid time
p129
aVchristmas new
p130
aVyear
p131
a.