(lp1
Vfirst tech
p2
aVserf
p3
aVworld's innovative
p4
aVforward-thinking company
p5
aVemployee
p6
aVlooking
p7
aVcollaborative
p8
aVcreative
p9
aVdata scientist
p10
aVjoin
p11
aVdigital
p12
aVanalytics
p13
aVteam
p14
aVdata scientist
p15
aVlead
p16
aVanalytics
p17
aVinitiative
p18
aVprovide expertise
p19
aVmathematical concept
p20
aVwork
p21
aVteam
p22
aVidentify prioritize
p23
aVactionable high-impact
p24
aVinsight
p25
aVrecommend ongoing
p26
aVimprovement
p27
aVmethod
p28
aValgorithm
p29
aVqualified applicant
p30
aV5 year
p31
aVquantitative qualitative
p32
aVresearch
p33
aVanalytics
p34
aVexperience
p35
aVstrong programming
p36
aVstatistical modeling
p37
aVskill
p38
aValso
p39
aVneed
p40
aVexpert level
p41
aVproficiency r
p42
aVyoure ready
p43
aVhelp u
p44
aVrevolutionize banking
p45
aVexperience
p46
aVapply
p47
aVhere's expect
p48
aVjob
p49
aVneed successful
p50
aVjob duty
p51
aVlead
p52
aVanalytics
p53
aVinitiative
p54
aVprovide expertise
p55
aVmathematical concept
p56
aVleveraged across
p57
aVbreadth
p58
aVsolution
p59
aVentire organization
p60
aVresearch
p61
aVdesign implement
p62
aVvalidate cutting-edge
p63
aValgorithm
p64
aVmodel
p65
aVanalyze diverse
p66
aVsource
p67
aVdata
p68
aVachieve targeted
p69
aVoutcome
p70
aVselect
p71
aVfeature
p72
aVbuild
p73
aVoptimize
p74
aVclassifier using
p75
aVmachine learning
p76
aVtechnique
p77
aVprovide on-going
p78
aVtracking monitoring
p79
aVperformance
p80
aVdecision
p81
aVsystem
p82
aVstatistical model
p83
aVidentify
p84
aVdata
p85
aVavailable
p86
aVrelevant
p87
aVincluding
p88
aVinternal external
p89
aVdata source
p90
aVleveraging
p91
aVnew
p92
aVdata collection
p93
aVprocess
p94
aVwork cross-functional
p95
aVteam member
p96
aVidentify prioritize
p97
aVactionable high-impact
p98
aVinsight
p99
aVacross variety
p100
aVcore
p101
aVbusiness
p102
aVarea
p103
aVrecommend ongoing
p104
aVimprovement
p105
aVmethod
p106
aValgorithm
p107
aVlead
p108
aVfinding
p109
aVincluding
p110
aVnew
p111
aVinformation
p112
aVpresent
p113
aVdepict
p114
aVrationale finding
p115
aVeasy understand
p116
aVterm
p117
aVbusiness process
p118
aVcleanse verify
p119
aVintegrity
p120
aVdata
p121
aVused
p122
aVanalysis
p123
aVessential
p124
aVskill
p125
aVminimum 5
p126
aVyear relevant
p127
aVquantitative qualitative
p128
aVresearch
p129
aVanalytics
p130
aVexperience
p131
aVmid large
p132
aVsize
p133
aVorganization
p134
aVstrong programming
p135
aVstatistical modeling
p136
aVskill
p137
aVexpert level
p138
aVproficiency r
p139
aVrequired
p140
aVdeep
p141
aVmastery wide
p142
aVrange ml
p143
aVtechnique
p144
aVtool
p145
aVmethodology
p146
aVdemonstrated
p147
aVcapability
p148
aVapply broad
p149
aVrange
p150
aVbusiness problem
p151
aVdata source
p152
aVmachine learning
p153
aVml technique
p154
aVinclude
p155
aVclustering classification
p156
aVregression decision
p157
aVtree neural
p158
aVnet support
p159
aVvector machine
p160
aVgenetic algorithm
p161
aVanomaly detection
p162
aVassociation rule
p163
aVsequential pattern
p164
aVdiscovery text
p165
aVmining
p166
aVexperience
p167
aVdata visualization
p168
aVtool tableau
p169
aVpreferred
p170
aVproficiency
p171
aVuse
p172
aVstatistical package
p173
aVable work
p174
aVlarge
p175
aVdata
p176
aVproficient
p177
aVextracting
p178
aVrelevant
p179
aVfeature
p180
aVdata
p181
aVrelational non-relational
p182
aVdatabase
p183
aVcomfortable ambiguity
p184
aVyet able
p185
aVsteer analytics
p186
aVproject
p187
aVtoward clear
p188
aVbusiness goal
p189
aVtestable hypothesis
p190
aVaction-oriented outcome
p191
aVfocus delivering
p192
aVbusiness
p193
aVresult
p194
aVincluding
p195
aVimproved
p196
aVend-to-end
p197
aVcustomer
p198
aVexperience
p199
aVfinancial
p200
aVmetric
p201
aVable
p202
aVfunction
p203
aVeffectively
p204
aVmulti-disciplinary team
p205
aVinclude
p206
aVbusiness
p207
aVtechnical
p208
aVcontributor
p209
aVmaster degree
p210
aVmathematics statistic
p211
aVcomputer science
p212
aVrelated field
p213
aVbachelor degree
p214
aVextensive experience
p215
aValso considered
p216
aVlocation
p217
aVmountain view
p218
aVca 94043
p219
aVfirst tech
p220
aVcurrently
p221
aVoffering
p222
aVvisa sponsorship
p223
aVtransfer
p224
aVhp123
p225
aVacknowledge
p226
aVhired
p227
aVcompany
p228
aVemployment at-will
p229
aVbasis
p230
aVmean
p231
aVcompany
p232
aVfree terminate
p233
aVemployment
p234
aVtime
p235
aVwithout
p236
aVcause
p237
aVadvance
p238
aVnotice
p239
aVsimilarly
p240
aVfree terminate
p241
aVemployment
p242
aVcompany
p243
aVtime
p244
aVreason
p245
aVagree
p246
aVconform
p247
aVrule regulation
p248
aVcompany
p249
aVunderstand
p250
aVcompany
p251
aVcomplete
p252
aVdiscretion
p253
aVmodify
p254
aVrule regulation
p255
aVtime except
p256
aVmodify
p257
aVpolicy
p258
aVemployment at-will
p259
a.