(lp1
Vairware's
p2
aVend-to-end
p3
aVplatform
p4
aVintegrating
p5
aVdrone
p6
aVeveryday
p7
aVbusiness
p8
aVworkflow
p9
aVgiven
p10
aVu
aVunique opportunity
p11
aVuse
p12
aVpreviously
p13
aVuncollectable
p14
aVaerial
p15
aVdata
p16
aVtransform industry
p17
aVlike
p18
aVinsurance
p19
aVquarrying
p20
aVmining
p21
aVconstruction
p22
aVdata science
p23
aVgroup looking
p24
aVnew
p25
aVteammate
p26
aVresponsible designing
p27
aValgorithm
p28
aVbuilding
p29
aVsoftware
p30
aVturn
p31
aVdrone
p32
aVdata
p33
aVbusiness outcome
p34
aVenterprise
p35
aVcustomer
p36
aVrole
p37
aVdrive
p38
aVfull lifecycle
p39
aVdata
p40
aVproduct
p41
aVidentifying
p42
aVdata
p43
aVchallenge
p44
aVcollaboration
p45
aVproduct manager
p46
aVcustomer-facing
p47
aVteam
p48
aVideating
p49
aVprototyping
p50
aVnew
p51
aVsolution
p52
aViterating
p53
aVmachine learning
p54
aVmodel
p55
aVimprove accuracy
p56
aVefficiency
p57
aVdeploying model
p58
aVproduction
p59
aVairware
p60
aVcloud
p61
aVideal candidate
p62
aVeager
p63
aVdive deeply
p64
aVunsolved
p65
aVdata
p66
aVchallenge
p67
aVpragmatic
p68
aVbalancing
p69
aVresearch
p70
aVdeliverable
p71
aVresult
p72
aVsample project
p73
aVextracting
p74
aV3d
p75
aVmeasurement
p76
aVsequence
p77
aV2d
p78
aVaerial
p79
aVimage
p80
aVidentifying
p81
aVhazard
p82
aVstructural
p83
aVdamage
p84
aVmulti-wavelength
p85
aVimagery
p86
aVimproving
p87
aVvehicle
p88
aVefficiency based
p89
aVflight
p90
aVlog maintenance
p91
aVrecord
p92
aVskill
p93
aVexperience
p94
aVexperience
p95
aVstatistical modeling
p96
aVmachine learning
p97
aVfluency
p98
aVpython
p99
aVanother
p100
aVscientific programming
p101
aVlanguage
p102
aVcuriosity
p103
aVtry new
p104
aVidea
p105
aVtenacity
p106
aVsolve challenging
p107
aVproblem
p108
aVcomfort
p109
aVreal-world
p110
aVdata
p111
aVhealthy
p112
aVskepticism
p113
aVtoward
p114
aVdata
p115
aVquality
p116
aVnice
p117
aVph.d. quantitative
p118
aVfield equivalent
p119
aVexperience
p120
aVsolving problem
p121
aVdata
p122
aVdomain knowledge
p123
aVcomputer vision
p124
aVphotogrammetry
p125
aVgi
p126
aVproficiency
p127
aVscientific computing
p128
aVlibrary like
p129
aVnumpy scipy
p130
aVsklearn
p131
aVopencv
p132
aVgdal
p133
aVproject
p134
aVdeep learning
p135
aVframework tensorflow
p136
aVtorch theano
p137
aVexperience
p138
aVcollaborative
p139
aVsoftware development
p140
aVcontinuous integration
p141
aVtesting framework
p142
aVfamiliarity
p143
aVdistributed
p144
aVdata
p145
aVsystem
p146
aVlike
p147
aVkubernetes
p148
aVspark
p149
aVknowledge
p150
aVcloud computing
p151
aVinfrastructure
p152
aVapply
p153
aVexpect
p154
aVaddition
p155
aVresume please
p156
aVinclude short
p157
aVexplanation
p158
aVbackground accomplishment
p159
aVlink
p160
aVpast project
p161
aValways
p162
aVhelpful
p163
aVexcites
p164
aVairware
p165
aVhelp u
p166
aVget
p167
aVmulti-dimensional
p168
aVview
p169
aVconnect
p170
aVright person
p171
aVairware
p172
aVprepared
p173
aVdetailed
p174
aVtechnical discussion
p175
aVmember
p176
aVteam
p177
aVphone
p178
aVvia
p179
aVvideo
p180
aVchat
p181
aVairware
p182
aVairware
p183
aVoffer
p184
aVcomplete
p185
aVenterprise
p186
aVdrone
p187
aVsolution
p188
aVbuilt
p189
aVindustry's
p190
aVcomprehensive
p191
aVhardware software
p192
aVcloud
p193
aVservice
p194
aVplatform
p195
aVairware's
p196
aVleading
p197
aVset
p198
aVtechnology enables
p199
aVenterprise
p200
aVplan
p201
aVfly
p202
aVanalyze
p203
aVaerial
p204
aVdata
p205
aVdrive business
p206
aVoutcome
p207
aVincluding
p208
aVoperational
p209
aVcost saving
p210
aVenhanced
p211
aVworker
p212
aVsafety
p213
aVimproved decision
p214
aVmaking
p215
aVairware
p216
aVbuilt
p217
aVcross-disciplinary team
p218
aVexpert
p219
aVaerospace
p220
aVrobotics
p221
aVgeospatial
p222
aVhardware software
p223
aVcloud
p224
aVfounded 2011
p225
aVairware
p226
aVraised
p227
aV90 million
p228
aVdate
p229
aVinvestor
p230
aVincluding andreessen
p231
aVhorowitz
p232
aVkleiner perkins
p233
aVcaufield byers
p234
aVnext
p235
aVworld
p236
aVcapital
p237
aVfirst round
p238
aVcapital
p239
aVgoogle venture
p240
aVge
p241
aVventure
p242
aVintel
p243
aVcapital
p244
aVairware
p245
aVheadquartered san
p246
aVfrancisco ca
p247
aVeuropean
p248
aVhq
p249
aVparis
p250
aVfrance
p251
aVcheck
p252
aVopportunity
p253
aVairware.com
p254
aVcareer
p255
aVairware
p256
aVtwitter
p257
a.