(lp1
Vninthdecimal
p2
aVninthdecimal
p3
aVleading
p4
aVmobile
p5
aVaudience
p6
aVintelligence
p7
aVcompany
p8
aVempowering marketer
p9
aVcomprehensive understanding
p10
aVpeople
p11
aVconnecting
p12
aVdigital
p13
aVphysical
p14
aVlife
p15
aVfortune 500
p16
aVcompany
p17
aVmarquee
p18
aVbrand including
p19
aVmicrosoft
p20
aVtarget
p21
aVkraft
p22
aVcomcast
p23
aVamerican express
p24
aVstarbucks
p25
aVtoyota
p26
aVuse
p27
aVninthdecimal
p28
aVachieve high
p29
aVperforming
p30
aVcampaign
p31
aVengaging
p32
aVprecise
p33
aVrelevant
p34
aVaudience
p35
aVacross
p36
aVmedium channel
p37
aVsingle
p38
aVplatform
p39
aVbridging
p40
aVonline offline
p41
aVdata source
p42
aVninthdecimal
p43
aVoffer
p44
aVprecise
p45
aVaudience
p46
aVsolution
p47
aVmarket
p48
aVcreate
p49
aVtrue
p50
aVunderstanding
p51
aVmobile
p52
aVconsumer
p53
aVengage
p54
aVthroughout
p55
aVpath-to-purchase
p56
aVlocation
p57
aVconversion
p58
aVindex
p59
aVlci
p60
aVmobile
p61
aVindustry
p62
aVaccurate
p63
aVroi
p64
aVmetric measuring
p65
aVincremental lift
p66
aVstore
p67
aVvisit
p68
aVdirectly
p69
aVattributed
p70
aVmobile
p71
aVad campaign
p72
aVdata
p73
aVpartnership
p74
aVleading
p75
aVcompany
p76
aVlike
p77
aVdatalogix
p78
aVneustar
p79
aVprovide
p80
aVcomprehensive
p81
aVclosed-loop
p82
aVsolution
p83
aVmarketer
p84
aVposition summary
p85
aVlooking
p86
aVstrong
p87
aVdata scientist
p88
aVtrack record
p89
aVbuilding
p90
aVtaking production
p91
aVdata science
p92
aVbased
p93
aVproduct
p94
aVninthdecimal
p95
aVcontinues
p96
aVadvance
p97
aVposition
p98
aVleader
p99
aVmeasurement
p100
aVinsight
p101
aVanalytics
p102
aVmarketing advertising
p103
aVindustry
p104
aVcrucial
p105
aVback
p106
aVsolid
p107
aVdata science
p108
aVmethodology
p109
aVprocess
p110
aVdata
p111
aVquality
p112
aVmember
p113
aVdata science
p114
aVteam
p115
aVyoull responsible
p116
aVconstructing
p117
aVroi
p118
aVmachine-learning model
p119
aVcalculating
p120
aVmetric
p121
aVrelated
p122
aVcampaign performance
p123
aVforecasting
p124
aVresult
p125
aVanalyzing
p126
aVlocation
p127
aVdata
p128
aVimproved
p129
aVtargeting
p130
aVwork closely
p131
aVproduct
p132
aVteam
p133
aVvarious
p134
aVbusiness unit
p135
aVengineering team
p136
aVone
p137
aVkey
p138
aVposition
p139
aVcompany
p140
aVopportunity
p141
aVdefine shape
p142
aVmeasurement
p143
aVstandard
p144
aVdynamic
p145
aVevolving
p146
aVindustry
p147
aVresponsibility
p148
aVposition
p149
aVinclude
p150
aVactivity
p151
aVestablish robust
p152
aVprocess
p153
aVinsure
p154
aVpredictability
p155
aVquality
p156
aValgorithm
p157
aVprocess
p158
aVensure
p159
aVoperational
p160
aVoptimal
p161
aVexecution
p162
aVproduction
p163
aVdata science
p164
aVroutine
p165
aVprocess
p166
aVrepresent
p167
aVdata science
p168
aVteam
p169
aVproduct roadmap
p170
aVdesign session
p171
aVparticipate
p172
aVbuilding reliable
p173
aVdata
p174
aVqa
p175
aVprocess
p176
aVcollaborate key
p177
aVarchitectural
p178
aVdecision
p179
aVdesign
p180
aVconsideration
p181
aVcontribute
p182
aVpromote
p183
aVgood
p184
aVsoftware engineering
p185
aVpractice
p186
aVacross
p187
aVengineering
p188
aVdepartment
p189
aVunderstand
p190
aVcurrent
p191
aVdata set
p192
aVmodel
p193
aVprovide thought
p194
aVleadership
p195
aVdiscovering new
p196
aVway enrich
p197
aVdata
p198
aVqualification required
p199
aVtrue passion
p200
aVresearch
p201
aVsolid
p202
aVdata science
p203
aVapproach
p204
aVsolid track
p205
aVrecord successful
p206
aVbuilding
p207
aVdata science
p208
aVdriven
p209
aVproduct
p210
aVextreme passion
p211
aVdata
p212
aVquality
p213
aVexpert
p214
aVpython scala
p215
aVr
aVprogramming language
p216
aV+
aVsql
p217
aVexpertise
p218
aVprobability statistic
p219
aVincluding
p220
aVmachine learning
p221
aVmodeling experimental
p222
aVdesign
p223
aVexperience developing
p224
aValgorithm
p225
aVbased
p226
aVmulti-billion
p227
aVrecord
p228
aVdata
p229
aVsize
p230
aVexcellent communicator
p231
aVable articulate
p232
aVcomplex
p233
aVdecision
p234
aVcross functional
p235
aVteam
p236
aVadvanced degree
p237
aVc
aVmath related
p238
aVsubject
p239
aVpreferred
p240
aVfamiliarity
p241
aVdigital medium
p242
aVadvertising industry
p243
aVbig plus
p244
aVexperience
p245
aVhadoop
p246
aVbased
p247
aVtechnology
p248
aVhive spark
p249
aVwhat's
p250
aV100
p251
aVmobile
p252
aVrevenue growth
p253
aVyear
p254
aVyear
p255
aV-
aVcompany
p256
aVgreat
p257
aVacquisition target
p258
aVrole
p259
aVcrucial
p260
aVcompany
p261
aVfuture
p262
aVlead
p263
aVdisruptive
p264
aVrevolution
p265
aVmobile advertising
p266
aVindustry
p267
aVwork wicked
p268
aVsmart people
p269
aVhottest
p270
aVarea
p271
aVmodern
p272
aVbusiness
p273
aVmobile
p274
aVlocal
p275
aVsocial
p276
aVtargeting
p277
aVexcellent benefit
p278
aVstock option
p279
aVplan
p280
aVninthdecimal
p281
aVculture
p282
aVninthdecimal
p283
aVname
p284
aVinteresting people
p285
aVpassionate
p286
aVeverything whether
p287
aVworking
p288
aVtelling
p289
aVninthdecimal
p290
aVstory
p291
aVindustry
p292
aVevent
p293
aVplaying
p294
aVhighly competitive
p295
aVping-pong
p296
aVgame
p297
aVparticipating
p298
aVbeer
p299
aVfriday
p300
aVcome
p301
aVbackground
p302
aVcompany
p303
aVlike
p304
aVyp
p305
aVtivo
p306
aVcnet
p307
aVaol
p308
aVwalmart
p309
aVcoca
p310
aVcola
p311
aVmany
p312
aVpicked
p313
aVcollege
p314
aVtogether
p315
aVcreated
p316
aVcompany
p317
aVawesome
p318
aVinspiring
p319
aVinnovative
p320
aVfast-passed
p321
aVnimble
p322
aVforward thinking
p323
aVsound like
p324
aVcompany
p325
aVwant work
p326
aVlooking smart
p327
aVhungry
p328
aVhumble
p329
aVpeople truly
p330
aVpassionate building
p331
aVgreat
p332
aVcompany
p333
aVlooking
p334
aVplace
p335
aVput
p336
aVhandprint
p337
aVmake
p338
aVimpression
p339
aVninthdecimal
p340
aVwant
p341
aVimmediate consideration
p342
aVplease submit
p343
aVresume
p344
aVhttp
p345
aVninthdecimal.com
p346
aVjob
p347
aVninthdecimal
p348
aVaa eeo
p349
aVemployer
p350
aVactively pursues
p351
aVhire diverse
p352
aVworkforce
p353
a.