(lp1
Vassociate
p2
aVdata scientist
p3
aVpart team
p4
aVdevelops
p5
aVrefines
p6
aVdata-driven
p7
aVmodel
p8
aVpower
p9
aVid
p10
aVanalytics
p11
aVproduct service
p12
aVimproves
p13
aVdata
p14
aVtechnology
p15
aVinfrastructure
p16
aVcommunicates
p17
aVongoing
p18
aVresearch
p19
aVanalysis
p20
aVstakeholder
p21
aVassociate
p22
aVdata scientist
p23
aVprovides technical
p24
aVanalytical
p25
aVsupport
p26
aVinternal external
p27
aVorganization
p28
aVassociate
p29
aVdata scientist
p30
aVexplores new
p31
aVdata source
p32
aVregularly
p33
aVwork
p34
aVout-of-memory
p35
aVdata set
p36
aVposition requires
p37
aVability
p38
aVdesign
p39
aVsolution
p40
aVpath achieve
p41
aVneed
p42
aVcustomer
p43
aVdepending assignment
p44
aVfrequent
p45
aVclient
p46
aVinteraction
p47
aVmay required
p48
aVcomplete deliverable
p49
aVprocessing large
p50
aVdata set
p51
aVproviding
p52
aVquality check
p53
aVanalysis
p54
aVfollowing
p55
aVestablished
p56
aVbest practice
p57
aVlimited guidance
p58
aVmanaging
p59
aVimproving
p60
aVcomplex
p61
aVcomputational
p62
aVsystem
p63
aVprocessing
p64
aVscoring
p65
aVdata
p66
aVconducting
p67
aVdata
p68
aVexperiment
p69
aVverify
p70
aVassumption
p71
aVhypothesis
p72
aVrunning
p73
aVexisting
p74
aValgorithm
p75
aVperforming
p76
aVanalytical
p77
aVtechnical
p78
aVinvestigation
p79
aVsupport
p80
aVcustomer production
p81
aVrelated
p82
aVissue
p83
aVmaking
p84
aVinitial
p85
aVrecommendation resolution
p86
aVscoring
p87
aVanalysis
p88
aVcustomer
p89
aVdata
p90
aVpresentation
p91
aVresult
p92
aVdeveloping improving
p93
aVtool
p94
aVinvestigative
p95
aVanalytics
p96
aVworkflow
p97
aVworking
p98
aVtechnical
p99
aVbusiness
p100
aVpersonnel
p101
aVensure successful
p102
aVoutcome
p103
aVcustomer
p104
aVduty assigned
p105
aVmaster degree
p106
aVrelevant
p107
aVtechnical discipline
p108
aVmath engineering
p109
aVcomputer science
p110
aVstatistic similar
p111
aVfield
p112
aVbachelor degree
p113
aVfield
p114
aV2-4 year
p115
aVrelevant
p116
aVjob
p117
aVexperience
p118
aVleast one
p119
aVyear experience
p120
aVmainstream programming
p121
aVlanguage java
p122
aVpython scala
p123
aVstrong
p124
aVexperience
p125
aVdata extraction
p126
aVdata manipulation
p127
aVdata
p128
aVanalysis
p129
aVstrong mathematical
p130
aVstatistic
p131
aVskill
p132
aVexperience
p133
aVunix linux
p134
aVsystem
p135
aVarchitecture
p136
aVcommand line
p137
aVtool
p138
aVexperience
p139
aVscripting language
p140
aVstrong interpersonal
p141
aVcommunication skill
p142
aVwritten oral
p143
aVincluding
p144
aVability communicate
p145
aVcomplex technical
p146
aVstatistical concept
p147
aVnon-technical audience
p148
aVcuriosity
p149
aVpursue
p150
aVself-directed
p151
aVdata
p152
aVanalysis
p153
aVpath
p154
aVpreferred
p155
aVskill
p156
aVexperience
p157
aVpython
p158
aVawk
p159
aVsql
p160
aVexperience
p161
aVdata
p162
aVsystem
p163
aVhadoop hive
p164
aVmysql
p165
aVexperience
p166
aVstatistical
p167
aVscientific computing
p168
aVpackage
p169
aVexperience
p170
aVcollaborative
p171
aVproject
p172
aVusing
p173
aVsoftware development
p174
aVbest practice
p175
aVversion control
p176
aVtesting
p177
aVexperience
p178
aVdata visualization
p179
aVtechnology
p180
aVd3 tableau
p181
aVbrief summary
p182
aVall-inclusive
p183
aVdescription
p184
aVjob duty
p185
aVjob duty
p186
aVresponsibility
p187
aVmay also
p188
aVassigned
p189
aVincumbent
p190
aVsupervisor
p191
aVtime
p192
aVbased upon
p193
aVcompany
p194
aVneed
p195
aVid
p196
aVanalytics
p197
aVinc equal
p198
aVopportunity employer
p199
aVaa f
p200
aViwd
p201
aVprotected veteran
p202
a.