(lp1
Vcloudera looking
p2
aVsoftware engineer
p3
aVjoin team
p4
aVfocused
p5
aVaccelerating
p6
aVdata science
p7
aVproductivity
p8
aVcloudera's
p9
aVmodern
p10
aVplatform
p11
aVmachine learning
p12
aVadvanced analytics
p13
aVresponsible helping
p14
aVdesign build
p15
aVscale
p16
aVdeliver world-class
p17
aVexperience
p18
aVdata scientist
p19
aVdata
p20
aVengineer
p21
aVtackling world's
p22
aVbiggest problem
p23
aVpast
p24
aVyear
p25
aVcloudera
p26
aVexperienced
p27
aVtremendous
p28
aVgrowth
p29
aVmaking
p30
aVu
aVleading contributor
p31
aVhadoop ecosystem
p32
aVleading provider
p33
aVenterprise
p34
aVsolution
p35
aVmachine learning
p36
aVadvanced analytics
p37
aVscale
p38
aVpurpose
p39
aVteam
p40
aVaccelerate
p41
aVcloudera's
p42
aVnext stage
p43
aVgrowth
p44
aVenabling
p45
aVdata scientist
p46
aVdata
p47
aVengineer
p48
aVdata exploration
p49
aVproduction
p50
aVresponsibility
p51
aVdesigning building
p52
aVapplication
p53
aVfeature
p54
aVaccelerate
p55
aVdata science
p56
aVproductivity
p57
aVwriting contributing
p58
aVdata science
p59
aVlibrary framework
p60
aVevaluating
p61
aVnew
p62
aVtool
p63
aVtechnology
p64
aVincorporation
p65
aVplatform
p66
aVworking
p67
aVopen source
p68
aVcommunity
p69
aVimprove
p70
aVdata science
p71
aVtool
p72
aVworking
p73
aVsoftware engineer
p74
aVdata scientist
p75
aVacross
p76
aVcompany
p77
aVbuild
p78
aVintegrated
p79
aVexperience
p80
aVmachine learning
p81
aVanalytics
p82
aVminimum requirement
p83
aVleast four
p84
aVyear
p85
aVsoftware engineering
p86
aVexperience
p87
aVfluency
p88
aVtwo following
p89
aVpython r
p90
aVscala java
p91
aVgo
p92
aVjavascript
p93
aVexperience
p94
aVapplied
p95
aVdata science
p96
aVdata science
p97
aVtool
p98
aVexperience
p99
aVmodern web
p100
aVapplication
p101
aVe.g.
p102
aVangularjs react
p103
aVstrong sense
p104
aVownership
p105
aVcraftsmanship
p106
aVstrong written
p107
aVverbal communication
p108
aVskill
p109
aVcollaborative
p110
aVmindset
p111
aVexperience
p112
aVspark hadoop
p113
aVstrong
p114
aVplus
p115
aVexperience
p116
aVcontainerization e.g.
p117
aVdocker
p118
aVplus
p119
aVtrack record
p120
aVcontributing open
p121
aVsource
p122
aVdata science
p123
aVtool
p124
aVplus
p125
a.