(lp1
Vnetflix
p2
aVdon't
p3
aVdeal
p4
aVhuge scale
p5
aVdeal
p6
aVhuge
p7
aVdiversity
p8
aVscale
p9
aVrun
p10
aVthousand
p11
aVapplication
p12
aVback-end
p13
aVcloud
p14
aVsystem
p15
aVserve hundred
p16
aVthousand
p17
aVtv show
p18
aVmovie
p19
aVmillion customer
p20
aVacross
p21
aVmillion
p22
aVdevice
p23
aVdistributed
p24
aVacross
p25
aVthousand
p26
aVdevice
p27
aVfamily
p28
aVconstantly evolving
p29
aVchanging
p30
aVreal-time
p31
aVanalytics
p32
aVgroup
p33
aVnetflix
p34
aVbuild
p35
aVsystem
p36
aVcontinuously
p37
aVuse
p38
aVdiverse
p39
aVtelemetry
p40
aVsource
p41
aVwithin
p42
aVenvironment
p43
aVsift
p44
aVmillion
p45
aVsignal
p46
aVarrive
p47
aVactionable
p48
aVhigh-confidence
p49
aVdecision
p50
aVwhat's
p51
aVgoing
p52
aVenvironment
p53
aVwork
p54
aVwe've already
p55
aVtalked
p56
aVpublicly
p57
aVwould like
p58
aVopen-source
p59
aVincludes
p60
aV1
aVnoticing
p61
aVone
p62
aVthousand
p63
aVserver
p64
aVmisbehaving
p65
aVbased
p66
aVoutlier detection
p67
aVautomatically
p68
aVreplacing
p69
aVnew
p70
aVserver
p71
aV2
aVautomatically
p72
aVdetecting
p73
aVwhether
p74
aVnew
p75
aVcode
p76
aVdeployed production
p77
aVleast
p78
aVperformant
p79
aVcorrect
p80
aVbaseline
p81
aVcode either
p82
aVaccelerating
p83
aVdeployment
p84
aVglobally
p85
aVrolling
p86
aVback
p87
aV3
aVautomatically
p88
aVmonitoring
p89
aVhealth
p90
aVapplication
p91
aValerting
p92
aVuser
p93
aVapplication
p94
aVskews
p95
aVnormal
p96
aVbehavior
p97
aVdetail
p98
aVtake look
p99
aVtalk
p100
aVaws
p101
aVinvent
p102
aVsee
p103
aVhuge
p104
aVopportunity
p105
aVusing
p106
aVrta
p107
aVdecision
p108
aVdrive
p109
aVautomated
p110
aVsystem
p111
aVimprove
p112
aVecosystem's
p113
aVself-healing
p114
aVcapability
p115
aValso
p116
aVmake easier
p117
aVengineer
p118
aVunderstand
p119
aVwhat's important
p120
aVlook
p121
aVautomatically
p122
aVdeduce
p123
aVcorrelation
p124
aVcausation
p125
aVnotice
p126
aVminute
p127
aVimperceptible
p128
aVchange
p129
aVstreaming
p130
aVenvironment
p131
aVcustomer
p132
aVanalytics
p133
aVengineer
p134
aVbuild
p135
aVmodel
p136
aVtake
p137
aVadvanced statistical
p138
aVanalysis
p139
aVapproach
p140
aVmachine learning
p141
aVtechnique
p142
aVprovide recommendation
p143
aVmany
p144
aVcase
p145
aVmake
p146
aVdecisive
p147
aVautomated
p148
aVaction
p149
aVmanaging
p150
aVproduction environment
p151
aVextracting meaning
p152
aVwhole
p153
aVlot
p154
aVdata
p155
aVaka
p156
aVnoise
p157
aVfascinating
p158
aVtalk like
p159
aVdeducing
p160
aVunderstanding
p161
aVcontrol system
p162
aVpattern
p163
aVdefinitely
p164
aVtalk
p165
aVyou'll
p166
aVdoingyou'll
p167
aVwork closely
p168
aVoperation
p169
aVengineer
p170
aVapplication developer
p171
aVtranslate
p172
aVinfrastructure
p173
aVmonitoring
p174
aVproblem
p175
aVintelligent
p176
aValgorithmsyou'll
p177
aVlearn
p178
aVdevelop
p179
aVapply
p180
aVnew
p181
aVtechnique
p182
aVintersection computer
p183
aVscience statistic
p184
aVmathyou'll
p185
aVcreate
p186
aVanomaly detection
p187
aVmodel
p188
aVtop
p189
aVlarge scale
p190
aVmultidimensional
p191
aVreal-time streaming
p192
aVbatch
p193
aVinfrastructure
p194
aVdatayou'll
p195
aVbring
p196
aVscientific rigor
p197
aVbias action
p198
aVsolving
p199
aVproblemsyou'll
p200
aVautomating
p201
aVwork
p202
aVpartnering
p203
aVplatform
p204
aVengineer
p205
aVdesign
p206
aVmachine learning
p207
aVplatform
p208
aVaccelerate
p209
aVmodel
p210
aVdevelopment
p211
aVproductizationwhat
p212
aVyou'll
p213
aVbringyou're
p214
aVgreat communicator
p215
aVexplain complicated
p216
aVmathematical concept
p217
aVsoftware
p218
aVengineersyou've
p219
aVgot
p220
aVprior
p221
aVacademic industry
p222
aVexperience
p223
aVstatistical modeling
p224
aVmachine learning
p225
aVtechniquesyou've
p226
aVworked
p227
aVstatistical analysis
p228
aVtool like
p229
aVr
aVpythonyou've
p230
aVgot
p231
aVexperience
p232
aVtime-series analysis
p233
aVtechnique including
p234
aVforecasting
p235
aVmethodologiesyou've
p236
aVworked
p237
aVmachine generated
p238
aVtelemetry
p239
aVsystem
p240
aVapplication
p241
aVmetric
p242
aVyou've
p243
aVdeployed
p244
aVmaintained
p245
aVperformance
p246
aVtuned
p247
aVmachine learning
p248
aVmodel production
p249
aVenvironmentadded
p250
aVbonusexperience
p251
aVwriting
p252
aVenterprise grade
p253
aVjava scala
p254
aVpython
p255
aVcodeexperience
p256
aVdata stream
p257
aVmining
p258
aVtechniquesdigital
p259
aVsignal processing
p260
aVdsp
p261
aVknowledge
p262
a.