(lp1
Vehealth passionate
p2
aVsolving nation's
p3
aVtoughest
p4
aVdata
p5
aVproblem
p6
aVseeking accomplished
p7
aVscientist
p8
aVbuild
p9
aVteam
p10
aVdrive
p11
aVnew
p12
aVinitiative
p13
aVleader
p14
aVexpected as
p15
aVdata
p16
aVopportunity
p17
aVwithin
p18
aVcompany
p19
aVmarket
p20
aVset
p21
aVcourse capturing
p22
aVopportunity
p23
aVhelp build
p24
aVrequired
p25
aVtechnology
p26
aVimportant thing
p27
aVneed successful
p28
aVrole...
p29
aVdesire
p30
aVbuild
p31
aVnew
p32
aVdata
p33
aVpractice
p34
aVwithin
p35
aVglobal public
p36
aVcompany
p37
aVacombination
p38
aVexperience
p39
aVoperator
p40
aVsupervisor
p41
aVmanaging
p42
aVdata science
p43
aVteam
p44
aValso
p45
aVdigging
p46
aVdeep
p47
aVtechnology
p48
aVprovide
p49
aVhands-on advice
p50
aVbest
p51
aVway
p52
aVsolve problem
p53
aVmastery least
p54
aVone following
p55
aVarea
p56
aVnatural language
p57
aVprocessing
p58
aVmachine-learning
p59
aVartificial intelligence
p60
aVadvanced
p61
aVstatistic
p62
aVneural net
p63
aVbig data
p64
aVdistributed system
p65
aVrecommendation system
p66
aVcapability
p67
aVbuild
p68
aVhigh performance
p69
aVteam
p70
aVhire
p71
aVretain
p72
aVright talent
p73
aVright
p74
aVrole
p75
aVset
p76
aVgoal
p77
aVdelegate work
p78
aVhold
p79
aVreport
p80
aVaccountable
p81
aVdevelop
p82
aVempower
p83
aVdirect report
p84
aVmake decision
p85
aVtake action
p86
aVextensive background
p87
aVstatistical analysis
p88
aVforecasting mean
p89
aVclustering linear
p90
aVregression cross
p91
aVvalidation principal
p92
aVcomponent
p93
aVanalysis
p94
aVsupport vector
p95
aVmachine
p96
aVdecision tree
p97
aValgorithm-building
p98
aVfull-stack
p99
aVproduct development
p100
aVexperience deploying
p101
aVelastic search
p102
aVexceptional communication
p103
aVanalytical problem
p104
aVsolving skill
p105
aVdream big
p106
aVexecute
p107
aVethical leadership
p108
aVhandling
p109
aVdata
p110
aVsense excitement
p111
aVdig
p112
aVdata liberate
p113
aVuntapped value
p114
aValso
p115
aVpart
p116
aVwork
p117
aVexperience
p118
aVmake u
p119
aVextra happy...
p120
aVsetting
p121
aVventure-type
p122
aVdata science
p123
aVlab
p124
aVexperience working
p125
aVcall center
p126
aVoperation
p127
aVproduct
p128
aVfamiliarity adobe
p129
aVanalytics cisco
p130
aVsystem
p131
aVgoogle analytics
p132
aVoracle sql
p133
aVqlikview tableau
p134
aVwherescape
p135
aVrecent
p136
aVexperience deploying
p137
aVmaster
p138
aVdata
p139
aVmanagement mdm
p140
aVsimilar bi
p141
aVplatform
p142
aVability produce
p143
aVbeautiful
p144
aVdata visualization
p145
aVexperience working
p146
aVhighly regulated
p147
aVindustry
p148
aVlike
p149
aVhealthcare
p150
aVtypical day
p151
aVmight...
p152
aVtake
p153
aVdata science
p154
aVnew-hire
p155
aVcandidate
p156
aVmorning coffee
p157
aVbrief
p158
aVcompany's chief
p159
aVdata
p160
aVofficer
p161
aVproposed
p162
aVupdate
p163
aVdata science
p164
aVventure
p165
aVroadmap
p166
aVprovide feedback
p167
aVjunior
p168
aVdata scientist
p169
aVimprove
p170
aVdata visualization
p171
aVprovide guidance
p172
aVproduct
p173
aVteam
p174
aVseeking
p175
aVautomate
p176
aVdata extraction
p177
aVthree
p178
aVdifferent source
p179
aVfeed
p180
aVnext version
p181
aVlead
p182
aVsegmentation
p183
aVsystem
p184
aVspend
p185
aVseveral
p186
aVhour
p187
aVdig
p188
aVparticularly
p189
aVcomplicated
p190
aVaspect
p191
aVnew
p192
aVnlp-driven
p193
aVrecommendation engine
p194
aVproposed
p195
aVbuild
p196
aVguest lecturer
p197
aVcompany's
p198
aVdata science
p199
aVtraining program
p200
aVbrainstorm
p201
aVdiverse group
p202
aVfellow
p203
aVdata
p204
aVexpert
p205
aVcompany
p206
aV5 year
p207
aVcompany
p208
aVindustry innovator
p209
aVpast decade
p210
aVehealth inc
p211
aVtechnology
p212
aVcompany transforming
p213
aVway
p214
aVhealth insurance
p215
aVbought sold
p216
aVunited state
p217
aVtoday ehealthinsurance.com
p218
aVenrolled 5
p219
aVmillion people
p220
aVhealth insurance
p221
aVcoverage
p222
aVleading
p223
aVonline marketplace
p224
aVindividually family
p225
aVhealth insurance
p226
aVproduct
p227
aVnation licensed
p228
aVmarket sell
p229
aVhealth insurance
p230
aV50 state
p231
aVdistrict columbia
p232
aVehealthinsurance responsible
p233
aVnation's first
p234
aVinternet-based sale
p235
aVhealth insurance
p236
aVpolicy partnership
p237
aV180 health
p238
aVinsurance
p239
aVcompany
p240
aVoffer
p241
aV10 000
p242
aVhealth insurance
p243
aVproduct
p244
aVonline
p245
aVevery day
p246
aVprovide
p247
aVthousand visitor
p248
aVinformation
p249
aVbroad array
p250
aVhealth insurance-related
p251
aVtopic
p252
aVplan
p253
aVincluding selection
p254
aVprice benefit
p255
aVoption complemented
p256
aVfull-service customer
p257
aVcare
p258
aVcenter
p259
aVhighly trained
p260
aVcustomer
p261
aVservice representative
p262
a.