(lp1
Vfirst tech
p2
aVserf
p3
aVworld's innovative
p4
aVforward-thinking company
p5
aVemployee
p6
aVlooking
p7
aVcollaborative
p8
aVcreative
p9
aVdata scientist
p10
aVjoin
p11
aVdigital
p12
aVanalytics
p13
aVteam
p14
aVdata scientist
p15
aVlead
p16
aVanalytics
p17
aVinitiative
p18
aVprovide expertise
p19
aVmathematical concept
p20
aVwork
p21
aVteam
p22
aVidentify prioritize
p23
aVactionable high-impact
p24
aVinsight
p25
aVrecommend ongoing
p26
aVimprovement
p27
aVmethod
p28
aValgorithm
p29
aVqualified applicant
p30
aV5 year
p31
aVquantitative qualitative
p32
aVresearch
p33
aVanalytics
p34
aVexperience
p35
aVstrong programming
p36
aVstatistical modeling
p37
aVskill
p38
aValso
p39
aVneed
p40
aVexpert level
p41
aVproficiency r
p42
aVyoure ready
p43
aVhelp u
p44
aVrevolutionize banking
p45
aVexperience
p46
aVapply
p47
a.