(lp1
V2877150
p2
aVge digital
p3
aVdigital
p4
aVapplication
p5
aVge world's
p6
aVdigital industrial
p7
aVcompany transforming
p8
aVindustry software-defined
p9
aVmachine
p10
aVsolution connected
p11
aVresponsive predictive
p12
aVpeople leadership
p13
aVdevelopment
p14
aVservice
p15
aVtechnology
p16
aVscale ge
p17
aVdelivers better
p18
aVoutcome global
p19
aVcustomer speaking
p20
aVlanguage
p21
aVindustry
p22
aVge offer
p23
aVgreat
p24
aVwork environment
p25
aVprofessional development
p26
aVchallenging career
p27
aVcompetitive compensation
p28
aVge
p29
aVemployment decision
p30
aVmade without
p31
aVregard race
p32
aVcolor religion
p33
aVnational ethnic
p34
aVorigin sex
p35
aVsexual orientation
p36
aVgender identity
p37
aVexpression age
p38
aVdisability protected
p39
aVveteran status
p40
aVcharacteristic protected
p41
aVlaw
p42
aVsr data
p43
aVscientist
p44
aVexperienced
p45
aVdigital
p46
aVtechnology
p47
aVdata
p48
aVanalytics
p49
aVunited state
p50
aVcalifornia san
p51
aVramon
p52
aV94583-9130
p53
aVyes
p54
aVsr data
p55
aVscientist
p56
aVwork
p57
aVteam
p58
aVaddressing statistical
p59
aVmachine learning
p60
aVdata
p61
aVunderstanding
p62
aVproblem
p63
aVcommercial
p64
aVtechnology
p65
aVconsultancy
p66
aVdevelopment
p67
aVenvironment
p68
aVrole
p69
aVcontribute development
p70
aVdeployment modern
p71
aVmachine learning
p72
aVoperational
p73
aVresearch
p74
aVsemantic analysis
p75
aVstatistical method
p76
aVfinding
p77
aVstructure
p78
aVlarge
p79
aVdata set
p80
aVsr data
p81
aVscientist
p82
aVpart
p83
aVdata science
p84
aVcross-disciplinary team
p85
aVcommercially-facing development
p86
aVproject
p87
aVtypically involving
p88
aVlarge complex
p89
aVdata set
p90
aVteam typically
p91
aVinclude
p92
aVstatistician
p93
aVcomputer
p94
aVscientist
p95
aVsoftware developer
p96
aVengineer
p97
aVproduct manager
p98
aVend user
p99
aVworking concert
p100
aVpartner ge
p101
aVbusiness unit
p102
aVpotential
p103
aVapplication
p104
aVarea
p105
aVinclude remote
p106
aVmonitoring diagnostics
p107
aVacross
p108
aVinfrastructure
p109
aVindustrial sector
p110
aVfinancial
p111
aVportfolio risk
p112
aVassessment
p113
aVoperation
p114
aVoptimization
p115
aVrole
p116
aVdevelop
p117
aVanalytics
p118
aVaddress
p119
aVcustomer need
p120
aVopportunity
p121
aVwork alongside
p122
aVsoftware developer
p123
aVsoftware engineer
p124
aVtranslate
p125
aValgorithm commercially
p126
aVviable product
p127
aVservice
p128
aVwork
p129
aVtechnical
p130
aVteam
p131
aVdevelopment deployment
p132
aVapplication
p133
aVapplied
p134
aVanalytics
p135
aVpredictive analytics
p136
aVprescriptive analytics
p137
aVperform exploratory
p138
aVtargeted
p139
aVdata
p140
aVanalysis
p141
aVusing descriptive
p142
aVstatistic
p143
aVmethod
p144
aVwork
p145
aVdata
p146
aVengineer
p147
aVdata
p148
aVquality assessment
p149
aVdata cleansing
p150
aVdata
p151
aVanalytics
p152
aVgenerate report
p153
aVannotated code
p154
aVproject artifact
p155
aVdocument archive
p156
aVcommunicate
p157
aVwork
p158
aVoutcome
p159
aVshare discus
p160
aVfinding
p161
aVteam member
p162
aVmaster degree
p163
aVstem major
p164
aVscience
p165
aVtechnology
p166
aVengineering mathematics
p167
aVplus
p168
aV1 year
p169
aVanalytics
p170
aVdevelopment
p171
aVindustrial
p172
aVapplication
p173
aVcommercial
p174
aVsetting ph.d.
p175
aVstem major
p176
aVscience
p177
aVtechnology
p178
aVengineering mathematics
p179
aVequivalent experience
p180
aVeligibility requirement
p181
aVlegal authorization
p182
aVwork u.s.
p183
aVrequired
p184
aVge may
p185
aVagree sponsor
p186
aVindividual
p187
aVemployment visa
p188
aVfuture shortage
p189
aVindividual particular
p190
aVskill
p191
aVmust willing
p192
aVwork
p193
aVoffice located
p194
aVsan ramon
p195
aVca
p196
aVge employ
p197
aVlegally authorized
p198
aVwork united
p199
aVstate opening
p200
aVoffer employment
p201
aVconditioned upon
p202
aVsuccessful completion
p203
aVbackground investigation
p204
aVdrug screen
p205
aVdemonstrated
p206
aVskill
p207
aVuse
p208
aVone
p209
aVanalytic
p210
aVsoftware
p211
aVtool
p212
aVlanguage e.g.
p213
aVsa spss
p214
aVr python
p215
aVdemonstrated
p216
aVskill
p217
aVdata cleansing
p218
aVdata
p219
aVquality assessment
p220
aVusing
p221
aVanalytics
p222
aVdata
p223
aVassessment
p224
aVdemonstrated
p225
aVskill
p226
aVuse
p227
aVapplied
p228
aVanalytics
p229
aVdescriptive statistic
p230
aVfeature extraction
p231
aVpredictive analytics
p232
aVindustrial
p233
aVdatasets
p234
aVdemonstrated
p235
aVskill
p236
aVdata visualization
p237
aVstorytelling
p238
aVaudience
p239
aVstakeholder
p240
aVtechnical expertise
p241
aVdemonstrated awareness
p242
aVdata
p243
aVmanagement
p244
aVmethod
p245
aVdemonstrated awareness
p246
aVrealtime
p247
aVanalytics
p248
aVdevelopment deployment
p249
aVdomain knowledge
p250
aVdemonstrated awareness
p251
aVindustry
p252
aVtechnology
p253
aVtrend
p254
aVone
p255
aVsector
p256
aVge operates
p257
aVdemonstrated awareness
p258
aVcustomer
p259
aVstakeholder
p260
aVmanagement
p261
aVbusiness
p262
aVmetric
p263
aVleadership
p264
aVdemonstrated
p265
aVskill
p266
aVfunction
p267
aVteam
p268
aVsetting
p269
aVdemonstrated awareness
p270
aVcritical thinking
p271
aVproblem solving
p272
aVmethod
p273
aVdemonstrated awareness
p274
aVpresentation influencing
p275
aVskill
p276
aVpersonal attribute
p277
aVdemonstrated awareness
p278
aVsucceed
p279
aVambiguous circumstance
p280
aVdtr
p281
a.