(lp1
Vwould like
p2
aVcontribute
p3
aVcreatively
p4
aVlarge
p5
aVmeaningful
p6
aVmission
p7
aVprocessing
p8
aVtransforming
p9
aVhealthcare
p10
aVparticular
p11
aVtransforming way
p12
aVcare
p13
aVgiver
p14
aVacross country
p15
aVintegrate
p16
aVinformation
p17
aVmake decision
p18
aVspecifically
p19
aVdesigned
p20
aVsize scale
p21
aVaddress
p22
aVcomplexity
p23
aVtoday tomorrow
p24
aVhealthcare
p25
aVsystem
p26
aVcompany
p27
aVcommitted advancing
p28
aVmedical
p29
aVbenefit
p30
aVmanagement
p31
aVenabling
p32
aVbetter outcome
p33
aVpatient
p34
aVprovider
p35
aVplan
p36
aVevidence-based approach
p37
aVleverage
p38
aVexceptional
p39
aVcapability
p40
aVpowerful
p41
aVanalytics
p42
aVacute
p43
aVsensitivity
p44
aVchallenge
p45
aVneed
p46
aVeveryone involved
p47
aVacross
p48
aVhealthcare
p49
aVspectrum
p50
aVapplying
p51
aVproven
p52
aVtalent
p53
aVleading-edge technology
p54
aVharness
p55
aVhealthcare
p56
aVevolving
p57
aVdemand
p58
aVinherent
p59
aVchange
p60
aVrealize
p61
aVdeliver improved
p62
aVresult
p63
aVeveryone
p64
aVwant join
p65
aVu
aVcompany
p66
aVleverage
p67
aVdeep
p68
aVevidence based
p69
aVknowledge
p70
aVtechnology
p71
aVdeliver
p72
aVservice
p73
aVsoftware
p74
aVsolution
p75
aVhealthcare payer
p76
aVprovider
p77
aVdeliver best
p78
aVquality care
p79
aVnatural language
p80
aVprocessing nlp
p81
aVmachine learning
p82
aVml
p83
aVplatform
p84
aVreplaces
p85
aVoutdated
p86
aVmanual process
p87
aVsoftware-driven
p88
aVclinical
p89
aVreasoning
p90
aVlooking
p91
aVbrilliant
p92
aVsoftware engineer
p93
aVdata scientist
p94
aVexceptional
p95
aVskill
p96
aVcomplement
p97
aVteam
p98
aVqualification
p99
aVnlp
p100
aVtool
p101
aVteam
p102
aVlead
p103
aVfollowing
p104
aVfull stack
p105
aVengineering
p106
aVskill
p107
aVjava
p108
aVsql
p109
aVjavascript framework
p110
aVember
p111
aVplus
p112
aVstrong programming
p113
aVdebugging
p114
aVscripting
p115
aVdesign
p116
aVskill
p117
aVlinux
p118
aVpython
p119
aVfamiliarity
p120
aVnlp
p121
aVontology
p122
aVplus
p123
aVcomputer science
p124
aVdegree
p125
aVexcellent organizational
p126
aVcommunication skill
p127
a.