(lp1
Venabling
p2
aVevery
p3
aVprocess
p4
aVplant
p5
aVachieve
p6
aVoperation
p7
aVexcellence
p8
aVaspentech
p9
aVvision
p10
aVfounded
p11
aV30 year
p12
aVago
p13
aVbest brightest
p14
aVengineer
p15
aVmit
p16
aVcontinue
p17
aVimagine
p18
aVinvent new
p19
aVway
p20
aVbring
p21
aVefficiency
p22
aVprocess
p23
aVindustry
p24
aVtoday
p25
aVaspentech
p26
aVthriving
p27
aVrelentless focus
p28
aVinnovation
p29
aVcollaboration
p30
aVexecution
p31
aVcombined
p32
aVworld-class
p33
aVexpert
p34
aVspeak
p35
aV10
p36
aVlanguage
p37
aVwork
p38
aV30
p39
aVdifferent
p40
aVoffice worldwide
p41
aVplace
p42
aVpeople
p43
aVfiercely
p44
aVpassionate
p45
aVtechnology
p46
aVbalanced lifestyle
p47
aVdesire make
p48
aVdifference
p49
aVprocess
p50
aVindustry
p51
aVsoftware
p52
aVtackle
p53
aVcomplex
p54
aVprocess manufacturing
p55
aVchallenge
p56
aVcreating
p57
aVvalue
p58
aVimproving profitability
p59
aVcustomer
p60
aVindustry
p61
aVdrive
p62
aVeconomy
p63
aVtouch life
p64
aVoptimized
p65
aVaspenone software
p66
aVevery day
p67
aVworld leading
p68
aVoil gas
p69
aVchemical engineering
p70
aVconstruction
p71
aVpharmaceutical
p72
aVfood
p73
aVbeverage
p74
aVconsumer packaged
p75
aVgood
p76
aVcompaniesincluding
p77
aVdow chemical
p78
aVexxonmobil
p79
aVbasf
p80
aVshell
p81
aVmany
p82
aVothersall
p83
aVrely
p84
aVaspentech
p85
aVsoftware
p86
aVrun
p87
aVbusiness
p88
aVintegrated
p89
aVaspenone software
p90
aVprocess
p91
aVmanufacturer
p92
aVoptimize
p93
aVengineering
p94
aVmanufacturing supply
p95
aVchain
p96
aVaspentech
p97
aVcustomer
p98
aVbetter
p99
aVable
p100
aVachieve
p101
aVoperational excellence
p102
aVincreasing capacity
p103
aVimproving
p104
aVmargin
p105
aVreducing cost
p106
aVbecoming
p107
aVenergy efficient
p108
aVensuring safety
p109
aVshrinking
p110
aVcarbon
p111
aVfootprint
p112
aVaspentech
p113
aVlooking
p114
aVprincipal
p115
aVdata scientistto
p116
aVjoin growing
p117
aVasset
p118
aVperformance
p119
aVmanagement
p120
aVteam
p121
aVbuilding next
p122
aVgeneration
p123
aVpredictive analytics
p124
aVsolution
p125
aViot
p126
aVasset optimization
p127
aVprincipal
p128
aVdata scientist
p129
aVhelp define
p130
aVarchitecture
p131
aVstandard best
p132
aVpractice
p133
aVmentor
p134
aVengineer raise
p135
aVbar
p136
aVengineering
p137
aVculture
p138
aVaspentech
p139
aValways
p140
aVpushed
p141
aVlimit technology
p142
aVengineering
p143
aVembarking
p144
aVnext evolution
p145
aVprocess
p146
aVoptimization
p147
aVasset optimization
p148
aVglobal
p149
aVimplication
p150
aViot
p151
aVopportunity
p152
aVplay critical
p153
aVrole
p154
aVcutting edge
p155
aVtransformation
p156
aVdevelop new
p157
aVproduct
p158
aVconcept
p159
aVimplementation
p160
aVdeliver
p161
aVproduct
p162
aVprototype
p163
aVresearch
p164
aVdesign
p165
aVnew
p166
aVmodel
p167
aVemploying
p168
aVmathematical
p169
aVknowledge
p170
aVproblem solving
p171
aVskill
p172
aVfamiliarity
p173
aVmachine learning
p174
aVlibrary
p175
aVdesign develop
p176
aVintegrate
p177
aVtest deploy
p178
aVcompany's
p179
aVsoftware
p180
aVbuild scalable
p181
aVhighly
p182
aVreliable
p183
aVsuper-fast
p184
aVglobally distributed
p185
aVservice
p186
aVbuild
p187
aVsoftware
p188
aVstack
p189
aVscale
p190
aVon-premises
p191
aVsoftware
p192
aVdeployment
p193
aVsecure
p194
aVenvironment
p195
aVlarge
p196
aVmulti-tenant
p197
aVsystem
p198
aVexecute
p199
aVproduct
p200
aVspecification
p201
aVsystem
p202
aVdesign development
p203
aVsystem integration
p204
aVprovide technical
p205
aVsupport
p206
aVproduct management
p207
aVproduct
p208
aVmarketing
p209
aVservice
p210
aVcustomer
p211
aVbusiness
p212
aVsupport
p213
aVcustomer
p214
aVactivity
p215
aVtravel 10
p216
aVmay required
p217
aVm computer
p218
aVscience related
p219
aVmajor
p220
aVphd
p221
aVhighly
p222
aVquantitative
p223
aVarea
p224
aVplus
p225
aV8+ year
p226
aVexperience
p227
aVdata
p228
aVanalysis
p229
aVsoftware development
p230
aVexperience building
p231
aVlarge scale
p232
aVproduction
p233
aVservice
p234
aVground
p235
aVtop notch
p236
aVprogramming skill
p237
aVfocus
p238
aVc++ c
p239
aVpython
p240
aVhands-on experience
p241
aVtime series
p242
aVanalysis
p243
aVpredictive modeling
p244
aVmachine learning
p245
aValgorithm
p246
aVdata mining
p247
aVfamiliarity
p248
aVbig data
p249
aVcloud
p250
aVtechnology
p251
aVparadigm
p252
aVgood understanding
p253
aVdata structure
p254
aVmodern
p255
aVcoding standard
p256
aVrestful
p257
aVtechnology
p258
aVexperience
p259
aVhands-on
p260
aVmentoring
p261
aVtechnical leadership
p262
aVteam
p263
aVexcellent interpersonal
p264
aVcommunication
p265
aVwriting presentation
p266
aVskill
p267
aVdemonstrated ability
p268
aVconvey complex
p269
aVinformation
p270
aVclear concise
p271
aVmanner
p272
aVenglish fluency
p273
aVwritten verbal
p274
aVrequired
p275
aVaspentech
p276
aVequal opportunity
p277
aVemployer
p278
aVvisit u
p279
a.