(lp1
Vtripadvisor
p2
aVlooking experienced
p3
aVdata scientist
p4
aVjoin dynamic
p5
aVfast-paced
p6
aVteam
p7
aVsenior
p8
aVdata scientist
p9
aVapply
p10
aVmodeling
p11
aVskill
p12
aVwide variety
p13
aVproblem
p14
aVrecommender system
p15
aVfraud-detection
p16
aVonline
p17
aVadvertisement
p18
aVrevenue optimization
p19
aVdeploy
p20
aVsolution
p21
aVonline
p22
aVable
p23
aVobserve
p24
aVimpact
p25
aVwork
p26
aVreal time
p27
aVhelp
p28
aVcompany
p29
aVgrow
p30
aVlooking someone
p31
aVindependent
p32
aVcurious
p33
aVmotivated
p34
aVlike
p35
aVdiscussing
p36
aVidea
p37
aVbring
p38
aVsomething new
p39
aVtable
p40
aVworking
p41
aVdiverse environment
p42
aVyoull
p43
aVcollaborate
p44
aVmultidisciplinary team
p45
aVsmart people
p46
aVincluding
p47
aVdata scientist
p48
aVanalyst
p49
aVsoftware engineer
p50
aVproduct manager
p51
aVyoull
p52
aVencouraged take
p53
aVownership project
p54
aVfind new
p55
aVopportunity
p56
aVproblem
p57
aVmachine learning
p58
aVcould
p59
aVapplied
p60
aVimprove
p61
aVbusiness
p62
aVrequirement
p63
aVphd master
p64
aVcomputer science
p65
aVengineering statistic
p66
aVrelated field
p67
aVphd preferred
p68
aVexcellent communication
p69
aVskill
p70
aVstrong background
p71
aVmachine learning
p72
aVstatistic
p73
aVsolid foundation
p74
aVdata structure
p75
aValgorithm
p76
aVproficiency python
p77
aVnumerical statistical
p78
aVprogramming
p79
aVgroup
p80
aVrelies
p81
aVheavily
p82
aVnumpy panda
p83
aVscikit-learn
p84
aVability write
p85
aVcomplex
p86
aVsql query
p87
aVexperience
p88
aVnatural language
p89
aVprocessing
p90
aVexperience
p91
aVbig data
p92
aVtechnology
p93
aVhive spark
p94
aVminimum 2
p95
aVyear
p96
aVindustry
p97
aVexperience
p98
aVphd
p99
aV4 year
p100
aVmaster
p101
aVdesired
p102
aVdeep learning
p103
aVexperience
p104
aVonline
p105
aVbusiness
p106
aVproficiency java
p107
aVli-db2
p108
a.