(lp1
Vdescription
p2
aVtitle
p3
aVdata scientist
p4
aVlocation
p5
aVduluth ga
p6
aVgrade
p7
aVgrade
p8
aV11
p9
aVncr corporation
p10
aVncr corporation
p11
aVnyse
p12
aVncr
p13
aVglobal
p14
aVtechnology
p15
aVcompany
p16
aVleading
p17
aVworld
p18
aVconnects
p19
aVinteracts
p20
aVtransacts
p21
aVbusiness
p22
aVncrs
p23
aVassisted-
p24
aVself-service
p25
aVsolution
p26
aVcomprehensive
p27
aVsupport
p28
aVservice
p29
aVaddress
p30
aVneed
p31
aVretail financial
p32
aVtravel
p33
aVhealthcare
p34
aVhospitality
p35
aVentertainment
p36
aVgaming
p37
aVpublic sector
p38
aVorganization
p39
aV100 country
p40
aVncr
p41
aVwww.ncr.com
p42
aVheadquartered duluth
p43
aVgeorgia
p44
aVpostion
p45
aVsummary
p46
aVkey area
p47
aVresponsibility
p48
aVunderstand
p49
aVcustomer
p50
aVbusiness
p51
aVuse case
p52
aVable translate
p53
aVanalytical
p54
aVdata
p55
aVapplication
p56
aVmodel
p57
aVvision
p58
aVimplement
p59
aVsolution
p60
aVclearly communicate
p61
aVbusiness
p62
aVtechnical
p63
aVbenefit
p64
aVanalytics
p65
aVvisualization
p66
aVbusiness
p67
aVtechnical audience
p68
aVsupport
p69
aVsubsequent
p70
aVbusiness unit
p71
aVdeveloping implementing
p72
aVtableau
p73
aVserver
p74
aVdashboard
p75
aVanalytical solution
p76
aVwork closely
p77
aVmember
p78
aVservice
p79
aVanalytics
p80
aVteam
p81
aVdrive
p82
aVimplementation
p83
aVsolution
p84
aVmanipulate
p85
aVaggregate
p86
aVderive useful
p87
aVinformation
p88
aVdata stored
p89
aVacross many
p90
aVsource
p91
aVdifferent
p92
aVdatabase
p93
aVwilling learn
p94
aVdevelop
p95
aVexpertise
p96
aVarea
p97
aVoutside
p98
aVcore
p99
aVcomfort zone
p100
aVlearn
p101
aVexperienced
p102
aVmember
p103
aVteam
p104
aVbasic qualification
p105
aVbachelor degree
p106
aVcomputer science
p107
aVphysic math
p108
aVstatistic equivalent
p109
aVexperience
p110
aV1-3 year
p111
aVexperience
p112
aVapplied
p113
aVanalytic
p114
aVspace
p115
aVprogramming skill
p116
aVexperience
p117
aVjava c++
p118
aVr perl
p119
aVpython
p120
aVstrong understanding
p121
aValgorithm
p122
aVadvanced
p123
aVdata structure
p124
aVexperience
p125
aVsolution
p126
aVleverage
p127
aVdistributed processing
p128
aVlarge
p129
aVdata set
p130
aVe.g. mapreduce
p131
aVhadoop
p132
aVaster
p133
aVmotivated self-starter
p134
aVhigh
p135
aVcapacity
p136
aVrapid learning
p137
aVmeticulous attention
p138
aVdetail
p139
aVunderstanding
p140
aVdatabase fundamental
p141
aVsql programming
p142
aVexcellent interpersonal
p143
aVwritten oral
p144
aVcommunication skill
p145
aVkey
p146
aVskill attribute
p147
aVability apply
p148
aVdata
p149
aVanalysis
p150
aVsolve business
p151
aVproblem
p152
aVreal impact
p153
aVcustomer
p154
aVexcellent
p155
aVteam player
p156
aVmust self-motivated
p157
aVresult driven
p158
aVable work
p159
aVminimum supervision
p160
aVintellectually curious
p161
aVwillingness
p162
aVtry
p163
aVsolution
p164
aVwork
p165
aVfailure
p166
aVoutstanding interpersonal
p167
aVcommunication
p168
aVcustomer relationship
p169
aVskill
p170
aVable work
p171
aVeffectively
p172
aVinternal customer
p173
aVdeveloper
p174
aVoperation
p175
aVpersonnel
p176
aVsenior management
p177
aVvisit
p178
aVcareer site
p179
aVlist
p180
aVbenefit offered
p181
aVregion
p182
aVaddition competitive
p183
aVbase salary
p184
aVstrong
p185
aVwork
p186
aVfamily program
p187
aVeeo statement
p188
aVintegrated
p189
aVshared value
p190
aVncr's
p191
aVcommitment diversity
p192
aVncr
p193
aVcommitted
p194
aVglobally
p195
aVinclusive
p196
aVcompany
p197
aVpeople
p198
aVtreated
p199
aVfairly
p200
aVrecognized
p201
aVindividuality
p202
aVpromoted based
p203
aVperformance
p204
aVencouraged
p205
aVstrive
p206
aVreach full
p207
aVpotential
p208
aVbelieve
p209
aVunderstanding
p210
aVrespecting
p211
aVdifference among
p212
aVpeople
p213
aVconcept
p214
aVencompasses
p215
aVlimited
p216
aVhuman
p217
aVdifference
p218
aVregard race
p219
aVethnicity religion
p220
aVgender
p221
aVculture
p222
aVphysical
p223
aVability
p224
aVevery
p225
aVindividual
p226
aVncr
p227
aVongoing
p228
aVresponsibility
p229
aVrespect
p230
aVsupport
p231
aVglobally diverse
p232
aVenvironment
p233
aVstatement
p234
aVthird party
p235
aVagency
p236
aVrecruitment agency
p237
aVncr
p238
aVaccepts
p239
aVresume
p240
aVagency ncr
p241
aVpreferred
p242
aVsupplier
p243
aVlist
p244
aVplease forward
p245
aVresume
p246
aVapplicant tracking
p247
aVsystem
p248
aVncr
p249
aVemployee
p250
aVncr
p251
aVfacility
p252
aVncr
p253
aVresponsible fee
p254
aVcharge
p255
aVassociated unsolicited
p256
aVresume
p257
a.