(lp1
Vsr data
p2
aVscientist
p3
aV-
aVfraud-48185
p4
aVdescription
p5
aVprimary objective
p6
aVposition
p7
aVensure
p8
aVdata
p9
aVanalytics coe
p10
aVdepartment
p11
aVdelivers
p12
aVfraud
p13
aVanalytics
p14
aVprovide
p15
aVdata-driven action-oriented
p16
aVsolution
p17
aVbusiness problem
p18
aVstatistical
p19
aVdata mining
p20
aVanalytics
p21
aVtechnique
p22
aVconsultative approach
p23
aVenterprise
p24
aVsr data
p25
aVscientist
p26
aVcore member
p27
aVdata
p28
aVanalytics
p29
aVteam
p30
aVplay significant
p31
aVrole
p32
aVhelping assurant
p33
aVadvance
p34
aVcreate
p35
aVdata
p36
aVdriven
p37
aVfraud
p38
aVanalytics
p39
aVsolution
p40
aVrole
p41
aVsr data
p42
aVscientist
p43
aVincorporates technique
p44
aVacross many
p45
aVdiscipline
p46
aVincluding
p47
aVmathematics statistic
p48
aVcomputer programming
p49
aVdata
p50
aVengineering
p51
aVdata
p52
aVmanagement
p53
aVvisualization
p54
aVetl
p55
aVincumbent
p56
aVsupport
p57
aVfraud
p58
aVanalytics
p59
aVproduct development
p60
aVhigh performance
p61
aVcomputing
p62
aVtraditional
p63
aVbusiness
p64
aVexpertise
p65
aVgoal
p66
aVusing
p67
aVdata
p68
aVoptimize
p69
aVrisk fraud
p70
aVrelated
p71
aVbusiness decision
p72
aValso incumbent
p73
aVact
p74
aVevangelist
p75
aVdata science
p76
aVexpert fluent
p77
aVseveral
p78
aVdata science
p79
aVdiscipline sufficiently
p80
aVproficient others
p81
aVeffectively
p82
aVdesign build
p83
aVdeliver end-to-end
p84
aVfraud
p85
aVpredictive analytics
p86
aVsolution
p87
aVproduct
p88
aVoptimize
p89
aVbusiness decision
p90
aVenjoy working
p91
aVdiverse global
p92
aVdata set
p93
aVcutting edge
p94
aVtechnology
p95
aVability see
p96
aVdata
p97
aVinsight turned
p98
aVreal
p99
aVbusiness
p100
aVresult
p101
aVregular basis
p102
aVrole requires
p103
aVpartner
p104
aVleader
p105
aVvarious
p106
aVdivision
p107
aVclient
p108
aVgeography order
p109
aVensure increasingly
p110
aVdata
p111
aVdriven
p112
aVsolution brought
p113
aVdata
p114
aVanalytics
p115
aVgroup
p116
aVindividual
p117
aVsupport
p118
aVfraud
p119
aVsolution
p120
aVproduct service
p121
aVacross line
p122
aVbusiness
p123
aVwithin assurant
p124
aVin-depth understanding
p125
aVdata
p126
aVdatabase
p127
aVmanagement
p128
aVsystem
p129
aVstatistic
p130
aVpredictive modeling
p131
aVmachine learning
p132
aVrequired
p133
aVresponsibility
p134
aV40
p135
aV- lay
p136
aVgroundwork
p137
aVhypothesize
p138
aVindividual
p139
aVresearcher
p140
aVcollaboration
p141
aVteam member
p142
aVsolve problem
p143
aVperform
p144
aVdata preparation
p145
aVactivity
p146
aVcollecting
p147
aVcleaning
p148
aVorganizing
p149
aVanalyze effectiveness
p150
aVfraud
p151
aVmodel
p152
aVconstantly improve
p153
aVtool
p154
aVprocedure workflow
p155
aVminimize risk
p156
aVenhance customer
p157
aVexperience
p158
aVus best
p159
aVpractice
p160
aVunderstand
p161
aVdata
p162
aVdevelop
p163
aVstatistical
p164
aVmachine learning
p165
aVtechnique
p166
aVbuild
p167
aVmodel
p168
aVaddress business
p169
aVneed
p170
aVcollaborates
p171
aVteam
p172
aVorder improve
p173
aVeffectiveness
p174
aVbusiness decision
p175
aVuse
p176
aVdata
p177
aVmachine learning
p178
aVpredictive modeling
p179
aVunderstands
p180
aVbusiness problem
p181
aVidentify
p182
aVoptimal
p183
aVbusiness
p184
aVsolution
p185
aVmodeling
p186
aVapproach
p187
aVsupport
p188
aVanswer
p189
aVfinding
p190
aVappropriate
p191
aVstatistical technique
p192
aVmethod
p193
aV30
p194
aV-
aVturn
p195
aVdata
p196
aVinsight
p197
aVsegment
p198
aVcluster
p199
aVmodel
p200
aVmine better
p201
aVunderstand
p202
aVbehavior
p203
aVquestion
p204
aVexplain happened
p205
aVpredict actionable
p206
aVfashion
p207
aVtransform
p208
aVdata
p209
aVinsight
p210
aVidentify quantify
p211
aVopportunity
p212
aVreduce
p213
aVfraud
p214
aVfalse positive
p215
aVpositive
p216
aVbusiness
p217
aVimpact
p218
aVuse
p219
aVleveraging internal
p220
aVexternal
p221
aVfraud
p222
aVtool
p223
aVpart
p224
aVfraud operation
p225
aVe.g. r
p226
aVsa python
p227
aVsql
p228
aVhadoop
p229
aV30
p230
aV-
aVdrive change
p231
aVproduce clear
p232
aVunderstandable
p233
aVvisualization
p234
aVreport
p235
aVshare
p236
aVsenior management
p237
aVpartner
p238
aVproduct
p239
aVdigital
p240
aVengineering
p241
aVmarketing
p242
aVline business
p243
aVdesign
p244
aVtest implement
p245
aVmodel
p246
aVfinding insight
p247
aVcommunicates
p248
aVteam member
p249
aVleadership
p250
aVstakeholder
p251
aVfinding
p252
aVensure
p253
aVmodel
p254
aVwell understood
p255
aVincorporated business
p256
aVprocess
p257
aVmanages
p258
aVdata
p259
aVdata
p260
aVrequest
p261
aVimprove accuracy
p262
aVdata
p263
aVdecision made
p264
aVdata
p265
aVanalysis
p266
aVparticipate
p267
aVdrive
p268
aVdata
p269
aVmodeling
p270
aVgovernance
p271
aVbest practice
p272
aVqualification
p273
aVbasic qualification
p274
aV5 year
p275
aVrelevant experience
p276
aVrisk fraud
p277
aVanalytics
p278
aVoperation
p279
aVmaster degree
p280
aVquantitative field
p281
aVdata
p282
aVanalytics
p283
aVstatistic mathematics
p284
aVcomputer science
p285
aVfinance
p286
aV5 year
p287
aVrelevant experience
p288
aVanalytics
p289
aVstatistical
p290
aVquantitative
p291
aVmodeling machine
p292
aVlearning
p293
aVtool r
p294
aVpython
p295
aVetc
p296
aVusing various
p297
aVdatabase
p298
aVtool e.g.
p299
aVhadoop
p300
aVsql
p301
aVprocessing large
p302
aVvolume structured
p303
aVunstructured data
p304
aVrequirement
p305
aVstrong understanding
p306
aVrisk fraud
p307
aVmanagement
p308
aVinsurance financial
p309
aVenvironment
p310
aVrequired
p311
aVexperience managing
p312
aVmanipulating large
p313
aVcomplex datasets
p314
aVtechnique
p315
aVbuild
p316
aVmodel
p317
aVdriven
p318
aVcompany
p319
aVdecision making
p320
aVexperience working
p321
aVstatistical
p322
aVdata
p323
aVprocessing
p324
aVsoftware
p325
aVr sa
p326
aVweka spss
p327
aVmatlab
p328
aVcart etc
p329
aVexperience
p330
aVdatabase sql
p331
aVhadoop nosql
p332
aVmassively parallel
p333
aVprocessing mpp
p334
aVdatabase
p335
aVproficient
p336
aVability
p337
aVcode
p338
aVdevelop prototype
p339
aVprogramming language
p340
aVpython java
p341
aVperl
p342
aVjee
p343
aV.net c
p344
aVc++
p345
aVability work
p346
aVunstructured data
p347
aVwhether
p348
aVdigital
p349
aVsocial medium
p350
aVvideo feed
p351
aVaudio device
p352
aVlog
p353
aVetc
p354
aVadvocate
p355
aVmachine learning
p356
aVprinciple become
p357
aVsme within
p358
aVorganization
p359
aVorganized capable
p360
aVindependently
p361
aVmanaging complex
p362
aVanalytical project
p363
aVstart finish
p364
aVability
p365
aVindependently
p366
aVstructure
p367
aVanalysis
p368
aVdata
p369
aVinterpret moderate
p370
aVcomplex analytical
p371
aVconcept
p372
aVmodel
p373
aVcommunicate finding
p374
aVnon-technical audience
p375
aVability
p376
aVprovide
p377
aVwritten oral
p378
aVinterpretation highly
p379
aVspecialized term
p380
aVdata
p381
aVability present
p382
aVdata
p383
aVothers different
p384
aVlevel
p385
aVexpertise
p386
aVmanage
p387
aVstakeholder
p388
aVrelationship
p389
aVdemonstrated
p390
aVanalytic agility
p391
aVunderstanding
p392
aVinsurance industry
p393
aVmarket
p394
aVplace regulation
p395
aVpreferred
p396
aVjob
p397
aVbusiness
p398
aVanalytics
p399
aVintelligence
p400
aVprimary location
p401
aVga-atlanta
p402
aVlocation united
p403
aVstate
p404
aVschedule full-time
p405
aVwork typeoffice
p406
aVjob type
p407
aVstandard
p408
aVtravel
p409
a.