(lp1
Vjob
p2
aVtechd
p3
aVata
p4
aVlooking
p5
aVrecruiter
p6
aVdata scientist
p7
aVentry
p8
aVbiostatistician
p9
aVphd graduate
p10
aVsr
p11
aVbiostatistician
p12
aVremote
p13
aVsdtm
p14
aVprogrammer
p15
aVsr
p16
aVsa
p17
aVprogrammer
p18
aVposition
p19
aVtelecommuting
p20
aVlead
p21
aVstatistical programmer
p22
aVremote
p23
aVmedidata rave
p24
aVdata
p25
aVbase
p26
aVprogrammer
p27
aVremote
p28
aVhouse
p29
aVposition
p30
aVtechdata
p31
aVsite
p32
aVremote
p33
aVposition
p34
aVpharmaceutical
p35
aVclient
p36
aVplease
p37
aVsee
p38
aVrequirement
p39
aVsend resume
p40
aVjohn.zhang
p41
aVtechdataservice.com
p42
aVtechdata
p43
aVleading provider
p44
aVtemporary
p45
aVpermanent position
p46
aVpharmaceutical
p47
aVindustry
p48
aVtechdata
p49
aVoffer competitive
p50
aVbest
p51
aVpay rate
p52
aVbenefit
p53
aVrecruiter
p54
aVlocation
p55
aVking prussia
p56
aVpa
p57
aVtechdata
p58
aVlooking
p59
aVrecruiter
p60
aVrecruiting staffing
p61
aVfirm
p62
aVdetermines
p63
aVapplicant
p64
aVrequirement
p65
aVstudying
p66
aVjob description
p67
aVjob
p68
aVqualification
p69
aVclient
p70
aVattracts
p71
aVapplicant
p72
aVplacing
p73
aVjob
p74
aVadvertisement
p75
aVcontacting
p76
aVrecruiter
p77
aVusing
p78
aVnewsgroups
p79
aVjob
p80
aVsite
p81
aVmake
p82
aVcold
p83
aVcall
p84
aVsource
p85
aVcandidate
p86
aVconduct
p87
aVresume
p88
aVdatabase
p89
aVsearch
p90
aVsource
p91
aVcandidate
p92
aVdetermines
p93
aVapplicant
p94
aVqualification
p95
aVinterviewing
p96
aVapplicant
p97
aVanalyzing
p98
aVresponse
p99
aVverifying
p100
aVreference
p101
aVcomparing
p102
aVqualification
p103
aVjob requirement
p104
aVmaintain
p105
aVresume
p106
aVreference
p107
aVarranges
p108
aVmanagement
p109
aVinterview
p110
aVcoordinating
p111
aVschedule
p112
aVarranges
p113
aVtravel
p114
aVlodging
p115
aVevaluates
p116
aVapplicant
p117
aVdiscussing
p118
aVjob requirement
p119
aVapplicant
p120
aVqualification
p121
aVmanager
p122
aVinterviewing
p123
aVapplicant
p124
aVconsistent
p125
aVset
p126
aVqualifications..
p127
aVimproves
p128
aVorganization
p129
aVattractiveness
p130
aVrecommending
p131
aVnew
p132
aVpolicy
p133
aVpractice
p134
aVmonitoring
p135
aVjob
p136
aVoffer
p137
aVcompensation
p138
aVpractice
p139
aVemphasizing
p140
aVbenefit
p141
aVavoids
p142
aVlegal
p143
aVchallenge
p144
aVunderstanding current
p145
aVlegislation
p146
aVenforcing
p147
aVregulation
p148
aVmanager
p149
aVrecommending
p150
aVnew
p151
aVprocedure
p152
aVconducting
p153
aVtraining
p154
aVupdate
p155
aVjob
p156
aVknowledge
p157
aVparticipating educational
p158
aVopportunity reading
p159
aVprofessional publication
p160
aVmaintaining personal
p161
aVnetwork participating
p162
aVprofessional
p163
aVorganization
p164
aVaccomplishes
p165
aVhuman resource
p166
aVorganization
p167
aVmission
p168
aVcompleting
p169
aVrelated
p170
aVresult
p171
aVneeded
p172
aVskill
p173
aVqualification
p174
aVphone
p175
aVskill
p176
aVcold
p177
aVcall
p178
aVnetworking
p179
aVrecruiting interviewing
p180
aVskill
p181
aVpeople
p182
aVskill
p183
aVcommunication skill
p184
aVsupport
p185
aVdiversity
p186
aVemployment
p187
aVlaw
p188
aVresult driven
p189
aVprofessionalism
p190
aVorganization
p191
aVproject management
p192
aVjudgment
p193
aVeducation
p194
aVb degree
p195
aVdata scientist
p196
aVdata
p197
aVanalysis
p198
aVsupport
p199
aVbiologics
p200
aVclinical
p201
aVpharmacology
p202
aVdepartment
p203
aVdevelop
p204
aVdocument program
p205
aVcreate
p206
aVanalysis
p207
aVdatasets
p208
aVsummarizing
p209
aVkey
p210
aVclinical trial
p211
aVdata
p212
aV2
aVmaintain
p213
aVpk
p214
aVpd
p215
aVdata repository
p216
aVpks
p217
aV3
aVassist
p218
aVtesting implementation
p219
aVnew updated
p220
aVinternally externally
p221
aVdeveloped
p222
aVsoftware
p223
aV4
aVdevelop
p224
aVdocument program
p225
aVproduce
p226
aVtable
p227
aVlisting
p228
aVreport
p229
aVanalysis
p230
aVregulatory submission
p231
aVexploratory analysis
p232
aV5
aVperform
p233
aVdocument
p234
aVquality control
p235
aVcheck
p236
aVprogram
p237
aVresponsibility
p238
aVdetailed
p239
aVduty
p240
aV1
aVparticipate
p241
aVdevelopment
p242
aVreview
p243
aVstudy-specific
p244
aVprocedure
p245
aVparticipate
p246
aVclinical
p247
aVproject
p248
aVteam
p249
aVmeeting
p250
aVrequired
p251
aV2
aVassist development
p252
aVcase
p253
aVreport
p254
aVform
p255
aVexhaustive comprehensive
p256
aVlisting
p257
aVjob function
p258
aVmay
p259
aVperform duty
p260
aVassigned
p261
aVprincipal
p262
aVrelationship
p263
aVcontact
p264
aVinside company
p265
aVbiologics
p266
aVclinical
p267
aVpharmacology
p268
aVeducation
p269
aVmaster degree
p270
aVequivalent
p271
aVcomputer science
p272
aVmathematics
p273
aVscientific field
p274
aVequivalent
p275
aVtheoretical
p276
aVtechnical
p277
aVdepth
p278
aVrelated
p279
aVexperience
p280
aV1
aV2+ year
p281
aVexperience
p282
aVprogramming
p283
aVanalyzing
p284
aVscientific
p285
aVdata
p286
aVpharmaceutical
p287
aVclinical trial
p288
aVenvironment
p289
aV2
aVexpertise
p290
aVr
aVprogramming language
p291
aV3
aVexperience working
p292
aVpc
p293
aVsa
p294
aVenvironment
p295
aV4
aVexpertise
p296
aVcdisc standard
p297
aV5
aVknowledge
p298
aVstatistical
p299
aVpk
p300
aVpd
p301
aVsoftware application
p302
aVe.g r
p303
aVs-plus
p304
aVphoenix
p305
aVwinnonlin
p306
aVentry
p307
aVbiostatistician
p308
aVphd graduate
p309
aV1
aVphd statistic
p310
aV0-2 year
p311
aVexperience
p312
aVi.e.
p313
aVfresh
p314
aVphd
p315
aVacceptable
p316
aVdoesnt
p317
aVpharmaceutic
p318
aVarea
p319
aV2
aVtaken
p320
aVbayesian modeling
p321
aVstats
p322
aVcourse
p323
aVunderstand
p324
aVbayesian approach
p325
aVreal
p326
aVdata
p327
aVanalysis
p328
aV3
aVbayesian
p329
aVanalysis
p330
aVsoftware
p331
aVskill
p332
aVr
aVwinburgs
p333
aVsa
p334
aVmcmc
p335
aVpharmacovigilance
p336
aVscientist
p337
aVpv
p338
aVscientist
p339
aVassist
p340
aVsupport
p341
aVmedical
p342
aVscientific
p343
aVfunction within
p344
aVsafety
p345
aVevaluation
p346
aVassigned
p347
aVproduct
p348
aVtask include
p349
aVpreparation
p350
aVcoordination
p351
aVreview
p352
aVindividual
p353
aVcase
p354
aVsafety
p355
aVreport
p356
aVwell
p357
aVaggregate safety
p358
aVdata
p359
aVpv
p360
aVscientist
p361
aValso
p362
aVsupport
p363
aVrisk management
p364
aVplan
p365
aVserving
p366
aVcoordinator
p367
aVacquisition
p368
aVpreparation
p369
aVdata
p370
aVreview
p371
aVmultiple source
p372
aVcollect organize
p373
aVdata collected
p374
aVpart
p375
aVpharmacovigilance
p376
aVplan
p377
aVrmp
p378
aVproduct
p379
aVrecall
p380
aVsurveillance
p381
aVactivity
p382
aVmanage
p383
aVoutsourced
p384
aVdata collection
p385
aVorganization
p386
aVpreparation
p387
aVvendor
p388
aVrequired
p389
aVsupport
p390
aVsurveillance
p391
aVactivity
p392
aVvendor consultant
p393
aVdatabases-
p394
aVassist
p395
aVcontract proposal
p396
aVdata
p397
aVsharing
p398
aVcollation
p399
aVdraft report
p400
aVprogress report
p401
aVrequired
p402
aVupdating
p403
aVhealth
p404
aVagency
p405
aVrmp
p406
aVactivity
p407
aVsupport
p408
aVphysician
p409
aVcase
p410
aVseries
p411
aVreview
p412
aVdata
p413
aVreview
p414
aVdraft report
p415
aVassist
p416
aVorganizing
p417
aVrunning
p418
aVsearch
p419
aVsafety
p420
aVregulatory
p421
aVdatabase
p422
aVprovide
p423
aVsupport
p424
aVrelated
p425
aVpv
p426
aVactivity
p427
aVpreparation
p428
aVreport
p429
aVsurveillance
p430
aVsupport
p431
aVcollating
p432
aVreport
p433
aVreview
p434
aVproduct
p435
aVquality
p436
aVdata
p437
aVsupport
p438
aVhealth
p439
aVhazard
p440
aVevaluation
p441
aVscientific
p442
aVpresentation
p443
aVetc
p444
aVparticipate
p445
aVpreparation
p446
aVanalysis
p447
aVwriting ad-hoc
p448
aVaggregate
p449
aVregulatory
p450
aVreport
p451
aVlabeling
p452
aVsupport
p453
aVdocument
p454
aVpharmacovigilance
p455
aVscientist
p456
aVadvanced
p457
aVacademic
p458
aVdegree biological
p459
aVnatural
p460
aVscience
p461
aVhealth-care
p462
aVdiscipline e.g.
p463
aVm
aVmph
p464
aVetc
p465
aVprevious experience
p466
aVwithin
p467
aVpharmaceutical
p468
aVindustry
p469
aVleast 6
p470
aVyear
p471
aVpf
p472
aVpost-marketing
p473
aVsafety
p474
aVdata
p475
aVanalysis
p476
aVpreferred
p477
aVrequired
p478
aVfamiliarity
p479
aVindustry
p480
aVprinciple
p481
aVdrug safety
p482
aVdrug
p483
aVdevelopment
p484
aVpharmacology
p485
aVbiostatistics
p486
aVpharmacoepidemiology
p487
aVbasic knowledge
p488
aVcommon
p489
aVdata
p490
aVprocessing
p491
aVsoftware
p492
aVexcellent verbal
p493
aVwritten communication
p494
aVskill ability
p495
aVinterpret
p496
aVanalyze
p497
aVclearly present
p498
aVscientific technical
p499
aVdata
p500
aVverbal written
p501
aVformat
p502
aVfunctional
p503
aVknowledge
p504
aVexcel powerpoint
p505
aVmicrosoft word
p506
aVteam player
p507
aVability work
p508
aVtight timeline
p509
aVpoise
p510
aVability thrive
p511
aVglobal
p512
aVmatrix environment
p513
aVability manage
p514
aVhigh
p515
aVworkload
p516
aVcritical issue
p517
aVcandidate must
p518
aVdrug safety
p519
aVaggregate
p520
aVreport
p521
aVexperience
p522
aVresponsibility
p523
aVskill
p524
aVinclude
p525
aVperform
p526
aVaggregate safety
p527
aVanalysis
p528
aVcase
p529
aVlevel
p530
aVreview
p531
aVauthor
p532
aVcontribute
p533
aVcoordinate
p534
aVpreparation
p535
aVcore
p536
aVsafety
p537
aVdeliverable
p538
aVaggregate
p539
aVreport
p540
aVadhoc report
p541
aVensure
p542
aVcommitment
p543
aVeg
p544
aVpva
p545
aVassessment
p546
aVreport
p547
aVmet
p548
aVwork closely
p549
aVmanagement
p550
aVproactively
p551
aVsupport
p552
aVta-related
p553
aVbusiness
p554
aVprovide
p555
aVsmt
p556
aVsupport
p557
aVenable
p558
aVproactive
p559
aVsafety
p560
aVmanagement
p561
aVresponsible
p562
aVproduct
p563
aVaccountability
p564
aVmaintaining
p565
aVproduct
p566
aVintelligence i.e.
p567
aVcreating
p568
aVagenda
p569
aVdocumenting
p570
aVdecision
p571
aVmilestone
p572
aVaction item
p573
aVminute
p574
aVdeliver innovative
p575
aVsolution
p576
aVaggregate safety
p577
aVstrategy
p578
aVanalysis
p579
aVbachelor degree
p580
aVhealth
p581
aVbiomedical
p582
aVscience
p583
aVadvanced degree
p584
aVpreferred
p585
aVhealth
p586
aVbiomedical
p587
aVscience
p588
aVpharmd
p589
aVmd phd
p590
aVclinical
p591
aVmedical
p592
aVwriting
p593
aVpv
p594
aVexperience
p595
aVrequired
p596
aVexcellent
p597
aVenglish verbal
p598
aVwritten communication
p599
aVskill
p600
aVproject management
p601
aVexperience
p602
aVsdtm
p603
aVptogrammer
p604
aVprimarily responsible
p605
aVworking alongside
p606
aVcdisc
p607
aVconsultancy
p608
aVimplementation
p609
aVcci
p610
aVgroup within
p611
aVglobal
p612
aVstatistical programming
p613
aVdepartment
p614
aVcci
p615
aVprimarily responsible
p616
aVsupporting
p617
aVcompliant
p618
aVconsistent
p619
aVadoption
p620
aVcdisc
p621
aVstudy
p622
aVdata
p623
aVtabulation
p624
aVmodel
p625
aVsdtm
p626
aVrole
p627
aVprovide
p628
aVsupport
p629
aVimplementation
p630
aVsdtm standard
p631
aVnew
p632
aVongoing
p633
aVstudy
p634
aVinvolve close
p635
aVcollaboration
p636
aVcdisc
p637
aVconsultant
p638
aVimplementers
p639
aVstatistical programmer
p640
aVdata
p641
aVstandard
p642
aVlibrarian
p643
aVresponsibility include
p644
aVlimited
p645
aVperform
p646
aVbmds
p647
aVconsultant
p648
aVrole responsibility
p649
aVprescribed
p650
aVgroup
p651
aVstandard
p652
aVoperating procedure
p653
aVorganizational
p654
aVguidance
p655
aVparticipate
p656
aVbmds
p657
aVcci
p658
aVmeeting
p659
aVprovide
p660
aVexpert advice
p661
aVapplication
p662
aVstandard
p663
aVsdtm
p664
aVimplementation
p665
aVguidance
p666
aVanalysis
p667
aVsubmission
p668
aVrequirement
p669
aVresolve
p670
aVstandard
p671
aVmapping
p672
aVissue timely
p673
aVmanner
p674
aVescalate
p675
aVglobal
p676
aVissue
p677
aVcci
p678
aVbiomedical
p679
aVdata
p680
aVstewardship
p681
aVbmds
p682
aVleadership
p683
aVdiscussion
p684
aVconsult
p685
aVcdisc
p686
aVconsultant
p687
aVcdisc
p688
aVimplementers
p689
aVstandard
p690
aVcrf
p691
aVannotation
p692
aVsdtm
p693
aVcontrolled terminology
p694
aVmanagement
p695
aVassist development
p696
aVnew
p697
aVcomplex
p698
aVstandard
p699
aVannotation
p700
aVterminology
p701
aVcontribute
p702
aVbmds
p703
aVteam
p704
aVprocess
p705
aVdocumentation perform
p706
aVstandard
p707
aVaudit
p708
aVconformance
p709
aVcheck
p710
aVensure compliance
p711
aVsupport
p712
aVstandard process
p713
aVimprovement initiative
p714
aVsupport
p715
aVsdtm
p716
aVcontrolled terminology
p717
aVglobal
p718
aVlibrarian
p719
aVactivity
p720
aVstay current
p721
aVdevelopment
p722
aVevolution
p723
aVcdisc sdtm
p724
aVstandard
p725
aVparticular focus
p726
aVchange
p727
aVsdtm
p728
aVimplementation guide
p729
aVpublished
p730
aVversion
p731
aVliaise
p732
aVcdisc
p733
aVconsultancy
p734
aVgroup
p735
aVdefine
p736
aVstrategy
p737
aVscope
p738
aVtimetable
p739
aVregarding
p740
aVupgrading
p741
aVstudy
p742
aVuse
p743
aVlatest version
p744
aVcdisc sdtm
p745
aVstandard
p746
aVbasic qualification
p747
aVdoctorate degree
p748
aV2 year
p749
aVdirectly related
p750
aVexperience
p751
aVmaster degree
p752
aV6 year
p753
aVdirectly related
p754
aVexperience
p755
aVbachelor degree
p756
aV8 year
p757
aVdirectly related
p758
aVexperience
p759
aVassociate
p760
aVdegree
p761
aV10 year
p762
aVdirectly related
p763
aVexperience
p764
aVhigh school
p765
aVdiploma ged
p766
aV12 year
p767
aVdirectly related
p768
aVexperience
p769
aVpreferred qualification
p770
aVba b
p771
aVhigher degree
p772
aVcomputer science
p773
aVstatistic mathematics
p774
aVlife science
p775
aVrelated scientific
p776
aVsubject
p777
aV7 year
p778
aVpharmaceutical biotech
p779
aVindustry
p780
aVexperience
p781
aV5 year
p782
aVsdtm
p783
aVconsulting
p784
aVexperience
p785
aVconformance
p786
aVassurance
p787
aVstandardization
p788
aVharmonization
p789
aVliaising
p790
aVproblem-solving
p791
aVin-depth knowledge
p792
aVsdtm standard
p793
aVofficial
p794
aVtraining
p795
aVcdisc
p796
aVpreferred
p797
aVactive member
p798
aVcdisc
p799
aVsubmission
p800
aVdata
p801
aVstandard
p802
aVsd
p803
aVteam
p804
aVpreferred
p805
aVthorough understanding
p806
aVexperience
p807
aVdata
p808
aVquality
p809
aVcompliance
p810
aVcheck
p811
aVdat
p812
aVwebsdm
p813
aVopencdisc
p814
aVcdisc
p815
aVcontrolled terminology
p816
aVworking knowledge
p817
aVadam
p818
aVstandard
p819
aVdesirable
p820
aVprior
p821
aVregulatory submission
p822
aVexperience
p823
aVsdtm
p824
aVdata
p825
aVdefine.xml
p826
aVeffective
p827
aVoral written
p828
aVcommunication
p829
aVgood
p830
aVdocumentation
p831
aVpractice
p832
aVwillingness
p833
aVability learn
p834
aVfollow standard
p835
aVprocess procedure
p836
aVteam
p837
aVenvironment
p838
aVability work
p839
aVproactively
p840
aVindependently
p841
aVsr
p842
aVstatistical
p843
aVsa
p844
aVprogrammer
p845
aV2
aVpermanent
p846
aV1
aVonsite
p847
aVcontract
p848
aV2
aVposition
p849
aVtelecommuting
p850
aVpermanent position
p851
aVrequire
p852
aVexpert knowledge
p853
aVcdisc
p854
aVsupport
p855
aVbiostatistics
p856
aVteam
p857
aVcarrying
p858
aVoverseeing
p859
aVprogramming
p860
aVactivity
p861
aVstatistical programmer
p862
aVexternal vendor
p863
aVrequired
p864
aVensure timely
p865
aVaccurate
p866
aVprogramming
p867
aVvalidation
p868
aVactivity
p869
aVclinical study
p870
aVcontributes overall
p871
aVefficiency
p872
aVbest practice
p873
aVrunning
p874
aVbiostatistics
p875
aVgroup
p876
aVdemonstrating ability
p877
aVwork efficiently
p878
aVhigh standard
p879
aVwithin
p880
aVclinical
p881
aVteam
p882
aVenvironment
p883
aVmain duty
p884
aVresponsibility
p885
aV1
aVproviding
p886
aVstatistical programming
p887
aVvalidation
p888
aVsupport
p889
aVclinical study
p890
aVreport
p891
aVoverseeing
p892
aVprogramming
p893
aVactivity
p894
aVexternal vendor
p895
aVe.g.
p896
aVcro
p897
aVnecessary
p898
aVcoordinating
p899
aVprogramming
p900
aVactivity
p901
aVamong
p902
aVstudy
p903
aVprogrammer
p904
aVachieve
p905
aVtimely progress
p906
aVfollowing area
p907
aVanalysis
p908
aVdatasets
p909
aVstatistical
p910
aVtable figure
p911
aVlisting
p912
aVintegrated
p913
aVsummary
p914
aVsafety
p915
aVi
aVintegrated
p916
aVsummary
p917
aVefficacy
p918
aVise
p919
aVelectronic submission
p920
aVinternal external
p921
aVrequest
p922
aVe.g.
p923
aVpublication
p924
aVaccessing
p925
aVconverting
p926
aVdata
p927
aVsa
p928
aVdatabase
p929
aVmanagement
p930
aVsystem
p931
aVpc
p932
aVfile format
p933
aVe.g.
p934
aVm excel
p935
aVtext file
p936
aVworking
p937
aVexternal vendor
p938
aVorder
p939
aVdevelop
p940
aVmonitor
p941
aVcontent
p942
aVstructure
p943
aVsa
p944
aVdata set
p945
aV2
aVdeveloping maintaining
p946
aVsop
p947
aVswps
p948
aVrelated
p949
aVtechnical
p950
aVdocument
p951
aVproviding input
p952
aVdatabase
p953
aVcrf
p954
aVdevelopment
p955
aVcreating
p956
aVedit check
p957
aVprogram
p958
aVproviding feedback
p959
aVdata
p960
aVmanagement
p961
aVproviding input
p962
aVdeveloping
p963
aVstatistical analysis
p964
aVplan specification
p965
aVanalysis
p966
aVdatasets
p967
aVvalidation
p968
aVplan
p969
aVrelated
p970
aVdocument
p971
aVdetermining
p972
aVresearching
p973
aVsa
p974
aVsoftware upgrade
p975
aVrelated
p976
aVsystem
p977
aVaddressing
p978
aVmaintenance
p979
aVissue
p980
aV3
aVmanaging
p981
aVdeveloping
p982
aVteam
p983
aVmaintaining
p984
aVstandard
p985
aVprogramming
p986
aVactivity
p987
aVguiding
p988
aVcoaching
p989
aVstatistical programmer
p990
aV4
aVworking independently
p991
aVaccomplish task
p992
aVgoal
p993
aVdefined
p994
aVsupervisor
p995
aVattending
p996
aVrequired
p997
aVtraining
p998
aVmeeting
p999
aVbringing new
p1000
aVidea
p1001
aVimprove
p1002
aVprogramming
p1003
aVprocess
p1004
aVresponsibility
p1005
aVweighting
p1006
aVmay change
p1007
aVsignificantly
p1008
aVbased
p1009
aVincumbent
p1010
aVassigned area
p1011
aVresponsibility
p1012
aVqualification
p1013
aVeducation required
p1014
aVminimum bachelor
p1015
aVdegree statistic
p1016
aVcomputer science
p1017
aVmathematics related
p1018
aVscience
p1019
aVdiscipline master
p1020
aVpreferred
p1021
aVexperience
p1022
aVrequired
p1023
aVminimum 5
p1024
aVyear experience
p1025
aVsa programming
p1026
aVphase
p1027
aVi-iv
p1028
aVclinical trial
p1029
aVpharmaceutical cro
p1030
aVenvironment
p1031
aV7+ year
p1032
aVexperience
p1033
aVpreferred
p1034
aVproject
p1035
aVexperience
p1036
aVpharmaceutical cro
p1037
aVprogramming
p1038
aVenvironment
p1039
aVdemonstrated
p1040
aVsignificant
p1041
aVleadership
p1042
aVsa programming
p1043
aVactivity
p1044
aVclinical
p1045
aVpharmaceutical cro
p1046
aVenvironment
p1047
aVskill
p1048
aVaptitude
p1049
aVrequired
p1050
aVexperience
p1051
aVusing
p1052
aVsas-base
p1053
aVmacro
p1054
aVstat
p1055
aVgraph
p1056
aVaccess m
p1057
aVoffice
p1058
aVproven
p1059
aVexperience
p1060
aVunix window
p1061
aVoperating system
p1062
aVunderstanding
p1063
aVsoftware development
p1064
aVlife cycle
p1065
aVunderstanding fda
p1066
aVguideline
p1067
aVgood
p1068
aVorganization
p1069
aVtime
p1070
aVmanagement
p1071
aVattention detail
p1072
aVskill
p1073
aVneeded
p1074
aVwork
p1075
aVstressful
p1076
aVenvironment
p1077
aVtight deadline
p1078
aVmaintaining
p1079
aVfocus detail
p1080
aVquality
p1081
aVapplies
p1082
aVgood judgment
p1083
aVdemonstrates
p1084
aVinitiative
p1085
aVresolve issue
p1086
aVstrong verbal
p1087
aVwritten interpersonal
p1088
aVcommunication skill
p1089
aVneeded
p1090
aVwork effectively
p1091
aVteam
p1092
aVenvironment
p1093
aVmanaging
p1094
aVteam
p1095
aVrequired
p1096
aVsr principal
p1097
aVbiostatistician
p1098
aV3
aVsite
p1099
aV2
aVtelecommuting
p1100
aVleast 5
p1101
aVyear
p1102
aVpharmaceutical
p1103
aVexperience
p1104
aVph.d.
p1105
aVlevel
p1106
aV8 year
p1107
aVm
aVlevel
p1108
aVbiostatistics statistic
p1109
aVepidemiology
p1110
aVexcellent communication
p1111
aVskill
p1112
aVverbal written
p1113
aVgood
p1114
aVteam player
p1115
aVadvanced
p1116
aVlevel
p1117
aVsa
p1118
aVlooking
p1119
aVsa
p1120
aVprogrammer
p1121
aVlooking senior
p1122
aVlevel
p1123
aVstatistician
p1124
aVadvanced
p1125
aVsa programming
p1126
aVlocated
p1127
aVraritan
p1128
aVadditional
p1129
aVskill
p1130
aVextensive experience
p1131
aVphase
p1132
aViii
p1133
aVtrial
p1134
aVparticular
p1135
aVcv
p1136
aVtrial
p1137
aVexample
p1138
aVfamiliar statistical
p1139
aVanalysis
p1140
aVplan
p1141
aVclinical study
p1142
aVreport
p1143
aVdatabase
p1144
aVanalysis
p1145
aVdata set
p1146
aVstatistical programming
p1147
aVspecification
p1148
aVexperience
p1149
aVworldwide
p1150
aVsubmission
p1151
aVparticular
p1152
aVpmda
p1153
aVjapan
p1154
aVproviding
p1155
aVstatistical analysis
p1156
aVad hoc
p1157
aVrequest
p1158
aVstrong
p1159
aVstatistical
p1160
aVtraining
p1161
aVparticular
p1162
aVsurvival analysis
p1163
aVleadership
p1164
aVestablish
p1165
aVpriority
p1166
aVobjective
p1167
aVimplement
p1168
aVaction plan
p1169
aValways look
p1170
aVsolution
p1171
aVindependently
p1172
aVproactive
p1173
aVcommunication
p1174
aVproject
p1175
aVteam member
p1176
aVpreferably
p1177
aVoncology
p1178
aVexperience
p1179
aVlead
p1180
aVprogrammer
p1181
aVtelecommute
p1182
aVposition description
p1183
aVmsb
p1184
aVprogramming
p1185
aVteam
p1186
aVneed
p1187
aVearly development
p1188
aVlead
p1189
aVproduct
p1190
aVprogrammer
p1191
aVcontractor
p1192
aVmedical
p1193
aVscience
p1194
aVbiostatistics
p1195
aVdepartment
p1196
aVsupport
p1197
aVmultiple
p1198
aVproduct
p1199
aVearly development
p1200
aVstage
p1201
aVmsb
p1202
aVprogramming
p1203
aVteam responsible
p1204
aVanalysis
p1205
aVreporting
p1206
aVearly development
p1207
aVstudy
p1208
aVinclude
p1209
aVfirst
p1210
aVhuman
p1211
aVfih
p1212
aVphase 1
p1213
aVphase
p1214
aV1a
p1215
aVphase
p1216
aV1b
p1217
aVstudy
p1218
aVcandidate
p1219
aVassigned
p1220
aVsupport
p1221
aVmultiple
p1222
aVproduct
p1223
aVserve early
p1224
aVdevelopment
p1225
aVlead
p1226
aVproduct
p1227
aVprogrammer
p1228
aVcoordinate
p1229
aVbiostatistical programming
p1230
aVactivity
p1231
aVestablish
p1232
aVoverall
p1233
aVanalysis
p1234
aVdata
p1235
aVstandard
p1236
aVearly development
p1237
aVstudy involving
p1238
aVassigned
p1239
aVproduct
p1240
aVcandidate expected
p1241
aVrepresent
p1242
aVprogramming
p1243
aVteam
p1244
aVinter-departmental
p1245
aVmeeting
p1246
aVminimum
p1247
aVinclude
p1248
aVstudy
p1249
aVmanagement
p1250
aVbiostatistics
p1251
aVdata
p1252
aVmanagement
p1253
aVpk
p1254
aVscientist
p1255
aVrepsentatives
p1256
aVcandidate also
p1257
aVharmonize
p1258
aVanalysis
p1259
aVdata
p1260
aVstandard
p1261
aVestablished standard
p1262
aVclinical
p1263
aVdevelopment
p1264
aVteam
p1265
aVsupport
p1266
aVphase 2
p1267
aVphase
p1268
aV3
aVstudy
p1269
aVcandidate
p1270
aVcollaborate closely
p1271
aVclinical
p1272
aVdevelopment
p1273
aVteam
p1274
aVanalysis
p1275
aVproject
p1276
aVrequire
p1277
aVcontribution
p1278
aVmsb
p1279
aVclinical
p1280
aVdevelopment
p1281
aVdepartment
p1282
aVlead
p1283
aVprogrammer
p1284
aVcandidate
p1285
aVresponsible overseeing
p1286
aVbiostatistical programming
p1287
aVactivity
p1288
aVassigned
p1289
aVproduct
p1290
aVactivity include
p1291
aVlimited
p1292
aVcase
p1293
aVreport
p1294
aVform
p1295
aVcrf
p1296
aVdata
p1297
aVmanagement
p1298
aVplan
p1299
aVdmp
p1300
aVstudy
p1301
aVanalysis
p1302
aVplan
p1303
aVsap
p1304
aVtable figure
p1305
aVlisting
p1306
aVtfl
p1307
aVshell
p1308
aVreview
p1309
aVset
p1310
aVsdtm adam
p1311
aVprogramming
p1312
aVspecification
p1313
aVprogramming
p1314
aVsdtms
p1315
aVadam
p1316
aVtfls
p1317
aVactivity
p1318
aVcandidate
p1319
aVinteract
p1320
aVvarious department
p1321
aVe.g.
p1322
aVclinical
p1323
aVdata
p1324
aVmanagement
p1325
aVpkdm
p1326
aVrepresent
p1327
aVbiostatistical programming
p1328
aVneed
p1329
aVcandidate expected
p1330
aVlearn
p1331
aVimplement
p1332
aVcurrent
p1333
aVprocess
p1334
aVstandard
p1335
aVrequired qualification
p1336
aV10+ year
p1337
aVexperience working
p1338
aVclinical study
p1339
aVexperience working
p1340
aVlead
p1341
aVproduct
p1342
aVprogrammer
p1343
aVexcellent
p1344
aVproject management
p1345
aVskill
p1346
aVexperience
p1347
aVorganizing
p1348
aVmonitoring
p1349
aVproject completion
p1350
aVproven record
p1351
aVleading
p1352
aVprogramming
p1353
aVteam
p1354
aVdeliver high
p1355
aVquality
p1356
aVtimely
p1357
aVoutput
p1358
aVexperience
p1359
aVmentoring junior
p1360
aVprogrammer
p1361
aVexperience
p1362
aVrepresenting
p1363
aVprogramming
p1364
aVneed
p1365
aVinter-departmental
p1366
aVmeeting
p1367
aVexperience
p1368
aVreviewing commenting
p1369
aVcrf
p1370
aVdmp
p1371
aVsap
p1372
aVtfl
p1373
aVshell
p1374
aVexperience
p1375
aVreviewing commenting
p1376
aVprogramming
p1377
aVrequest
p1378
aVexperience developing
p1379
aVdetailed
p1380
aVwell-written
p1381
aVsdtm adam
p1382
aVdata set
p1383
aVspecification
p1384
aVuse
p1385
aVprogrammer
p1386
aVextensive experience
p1387
aVimplementing
p1388
aVsdtms
p1389
aVadam
p1390
aVsolid knowledge
p1391
aVcdisc sdtm
p1392
aVadam
p1393
aVprinciple
p1394
aVexperience working
p1395
aVgeographically
p1396
aVdisbursed
p1397
aVstudy
p1398
aVteam
p1399
aVexperience working
p1400
aVfih
p1401
aVphase 1
p1402
aV1a
p1403
aV1b
p1404
aVstudy
p1405
aVexcellent
p1406
aVsa programming
p1407
aVskill
p1408
aVthree
p1409
aVpackage
p1410
aV-
aVsa
p1411
aVbase
p1412
aVmacro sa
p1413
aVstat
p1414
aVability communicate
p1415
aVeffectively
p1416
aVtechnical non-technical
p1417
aVstaff
p1418
aVexcellent written
p1419
aVoral communication
p1420
aVskill ability
p1421
aVlearn
p1422
aVimplement
p1423
aVcurrent
p1424
aVprocess
p1425
aVstandard
p1426
aVoptional
p1427
aVqualification
p1428
aVexcellent
p1429
aVsa programming
p1430
aVskill
p1431
aVfour
p1432
aVpackage
p1433
aV-
aVsa
p1434
aVbase
p1435
aVmacro sa
p1436
aVstat sa
p1437
aVgraph
p1438
aVe.g.
p1439
aVbox plot
p1440
aVforest
p1441
aVplot
p1442
aVkaplan-meier
p1443
aVplot
p1444
aVscatter
p1445
aVplot
p1446
aVcox
p1447
aVph
p1448
aVmodel logistic
p1449
aVregression model
p1450
aVexperience working
p1451
aVphase 2
p1452
aVphase
p1453
aV3
aVstudy
p1454
aVdatabase
p1455
aVprogrammer
p1456
aVii
p1457
aV-
aVmedidata rave
p1458
aVremote
p1459
aVoption
p1460
aVdatabase
p1461
aVposition
p1462
aVworking
p1463
aVclinical trial
p1464
aVdata
p1465
aVsystem
p1466
aVgeneral supervision
p1467
aVprovides technical
p1468
aVleadership
p1469
aVfollowing
p1470
aVactivity
p1471
aVdesign implement
p1472
aVglobal
p1473
aVlibrary
p1474
aVstudy
p1475
aVspecific
p1476
aVsetup
p1477
aVclinical trial
p1478
aVapplication
p1479
aVdevelops validates
p1480
aVdata
p1481
aVcheck
p1482
aVprovides
p1483
aVfirst-line
p1484
aVenduser
p1485
aVsupport
p1486
aVproblem solving
p1487
aVprovides
p1488
aVsupport
p1489
aVapplication
p1490
aVvalidation
p1491
aVactivity
p1492
aVminimum
p1493
aVrequired education
p1494
aVexperience
p1495
aVbachelor degree
p1496
aVcomputer science
p1497
aVstatistic biostatistics
p1498
aVmathematics
p1499
aVbiology
p1500
aVhealth
p1501
aVrelated field
p1502
aVequivalent experience
p1503
aVprovides
p1504
aVskill
p1505
aVknowledge
p1506
aVnecessary perform
p1507
aVjob
p1508
aVminimum 2
p1509
aVyear experience
p1510
aVclinical trial
p1511
aVenvironment
p1512
aVsimilar field
p1513
aVminimum 1
p1514
aVyear experience
p1515
aVoracle
p1516
aVsimilar
p1517
aVapplication
p1518
aVprogramming
p1519
aVadministration
p1520
aVcapacity
p1521
aVoc
p1522
aVrdc
p1523
aVexperience
p1524
aVpreferred
p1525
aVminimum 1
p1526
aVyear experience
p1527
aVmedidata rave
p1528
aVrave
p1529
aVcertification
p1530
aVrequired
p1531
aVknowledge
p1532
aVskill ability
p1533
aVgood organizational
p1534
aVskill ability
p1535
aVadapt
p1536
aVadjust
p1537
aVchanging priority
p1538
aVmanage multiple
p1539
aVassignment
p1540
aVchallenging
p1541
aVconflicting
p1542
aVdeadline
p1543
aVgood
p1544
aVcomputer
p1545
aVskill
p1546
aVknowledge
p1547
aVrelational database
p1548
aVsystem
p1549
aVrdbms
p1550
aVstructure
p1551
aVexperience
p1552
aVoracle
p1553
aVoracle
p1554
aVtool
p1555
aVsimilar
p1556
aVworking knowledge
p1557
aVsql
p1558
aVplsql
p1559
aVstrong attention
p1560
aVdetail
p1561
aVproblem solving
p1562
aVskill
p1563
aVgood written
p1564
aVverbal communication
p1565
aVskill
p1566
aVdemonstrated experience
p1567
aVidentification resolution
p1568
aVtechnical
p1569
aVproblem
p1570
aVprofessional
p1571
aVenvironment
p1572
aVability
p1573
aVmaintain high
p1574
aVdegree
p1575
aVconfidentiality
p1576
aVclinical
p1577
aVdata
p1578
aVclient
p1579
aVproprietary
p1580
aVdata
p1581
aVability
p1582
aVattain
p1583
aVmaintain
p1584
aVapply
p1585
aVworking knowledge
p1586
aVgcps
p1587
aVapplicable
p1588
aVsop
p1589
aVdemonstrated
p1590
aVpositive attitude
p1591
aVenthusiasm
p1592
aVtoward
p1593
aVwork
p1594
aVability work
p1595
aVwell others
p1596
aVreport
p1597
a.