(lp1
Vcareer
p2
aVstart
p3
aVwe're looking
p4
aVnext generation
p5
aVhealth care
p6
aVleader
p7
aVamerihealth caritas
p8
aVwe're passionate
p9
aVhelping people
p10
aVget
p11
aVcare
p12
aVstay
p13
aVwell
p14
aVbuild
p15
aVhealthy
p16
aVcommunity
p17
aVone nation's
p18
aVleader
p19
aVhealth care
p20
aVsolution
p21
aVoffer associate
p22
aVopportunity
p23
aVimpact life
p24
aVmillion people
p25
aVnational footprint
p26
aVproduct service
p27
aVaward-winning program
p28
aVamerihealth caritas
p29
aVseeking talented
p30
aVpassionate individual
p31
aVjoin team
p32
aVtogether
p33
aVbuild healthier
p34
aVcommunity
p35
aVwant make
p36
aVdifference
p37
aVwe'd like
p38
aVhear
p39
aVheadquartered philadelphia
p40
aVamerihealth caritas
p41
aVmission-driven organization
p42
aV30 year
p43
aVexperience
p44
aVdeliver
p45
aVcomprehensive outcomes-driven
p46
aVcare
p47
aVneed
p48
aVoffer
p49
aVintegrated managed
p50
aVcare
p51
aVproduct
p52
aVpharmaceutical
p53
aVbenefit
p54
aVmanagement
p55
aVspecialty pharmacy
p56
aVservice
p57
aVbehavioral health
p58
aVservice
p59
aVadministrative service
p60
aVdiscover
p61
aVu
aVwww.amerihealthcaritas.com.
p62
aVresponsibility
p63
aVdevelops
p64
aVanalysis
p65
aVmodel
p66
aVbased
p67
aVcomplex
p68
aVoperational economic
p69
aVstatistical
p70
aVdata
p71
aVsolve
p72
aVnew
p73
aVcomplex problem
p74
aVdevelop innovative
p75
aVstrategy
p76
aVquantify competitive
p77
aVperformance
p78
aVorganization's
p79
aVoperation
p80
aVmarket
p81
aVevaluate potential
p82
aVimpact
p83
aVchange
p84
aVdevelop
p85
aVanalysis
p86
aVmodel
p87
aVbased
p88
aVcomplex
p89
aVoperational economic
p90
aVstatistical
p91
aVdata
p92
aVquantify competitive
p93
aVperformance
p94
aVbusiness segment
p95
aVevaluate potential
p96
aVoperational
p97
aVchange
p98
aVdesign
p99
aVnew
p100
aVapproach methodology
p101
aVdefines
p102
aVproblem collect
p103
aVdata
p104
aVapplies advanced
p105
aVeconomic
p106
aVmathematical concept
p107
aVestablishes fact
p108
aVdraw valid
p109
aVconclusion applies
p110
aVin-depth understanding
p111
aVadvanced mathematical
p112
aVconcept
p113
aVoperation
p114
aVstatistic
p115
aVsolve
p116
aVnew
p117
aVcomplex problem
p118
aVdevelop innovative
p119
aVstrategy
p120
aVdevelops
p121
aVreport
p122
aVmanagement
p123
aVoverall performance
p124
aVbusiness segment
p125
aVdevelops
p126
aVmetric measure
p127
aVvarious
p128
aVcharacteristic
p129
aVbusiness
p130
aVanalyzes historical
p131
aVoperation
p132
aVmarket
p133
aVinformation
p134
aVusing
p135
aVbusiness
p136
aVsoftware package
p137
aVstatistical software
p138
aVtool
p139
aVdevelops
p140
aVmodel predict
p141
aVfuture outcome
p142
aVeducation experience
p143
aVmaster degree
p144
aVstatistic mathematics
p145
aVfive ten
p146
aVyear experience
p147
aVdeveloping predictive
p148
aVmodel
p149
aVhealthcare
p150
aVlife science
p151
aVsetting
p152
aVusing
p153
aVsa jmp
p154
aVenterprise miner
p155
a.