(lp1
Vresponsible
p2
aVcomputational
p3
aVanalysis
p4
aVclinical
p5
aVbiomedical research
p6
aVdata
p7
aVusing
p8
aVartificial intelligence
p9
aVai machine
p10
aVlearning ml
p11
aVvisual analytics
p12
aVva
p13
aVmethod
p14
aVapplication
p15
aVresponsible
p16
aVprogramming
p17
aVnecessary
p18
aVmodify
p19
aVimplement
p20
aVai ml
p21
aVva
p22
aValgorithm
p23
aVsoftware
p24
aVposition
p25
aVpart
p26
aVcomputational
p27
aVsupport
p28
aVinfrastructure
p29
aVwithin
p30
aVpenn
p31
aVinstitute biomedical
p32
aVinformatics
p33
aVibi
p34
a.