(lp1
Vdata science
p2
aVteam
p3
aVred venture
p4
aVresponsible
p5
aVleveraging
p6
aVfull
p7
aVfunnel
p8
aVdata
p9
aVoptimize existing
p10
aVbusiness
p11
aVsetting vision
p12
aVdata
p13
aVfuture
p14
aVfocus
p15
aVspeed execution
p16
aVhandle
p17
aVfull cycle
p18
aVdata science
p19
aVproblem
p20
aVmining
p21
aVdata
p22
aVworking
p23
aVbusiness
p24
aVgroup
p25
aVidentify
p26
aVnew
p27
aVopportunity
p28
aVrapidly
p29
aVprototyping
p30
aVsolution
p31
aVusing cutting
p32
aVedge
p33
aVtechnique
p34
aVmachine learning
p35
aVstatistical modeling
p36
aVdeploying
p37
aVsolution
p38
aVproduct
p39
aVreal time
p40
aVsetting
p41
aVmonitoring
p42
aVimproving
p43
aVtime
p44
aVwe're tight-knit
p45
aVfast-paced
p46
aVteam
p47
aVworking large
p48
aVamount
p49
aVcomplete powerful
p50
aVdata
p51
aVcommitted
p52
aVstaying
p53
aVcutting edge
p54
aVdata science
p55
aVhuge impact
p56
aVmulti-billion dollar
p57
aVbusiness
p58
aVlooking
p59
aV1 2
p60
aVyear experience
p61
aVdata scientist
p62
aVequivalent
p63
aVeducational
p64
aVtraining
p65
aVproficient
p66
aVcollecting
p67
aVmining
p68
aVdata
p69
aVdisparate data
p70
aVsource
p71
aVextensive
p72
aVhand experience
p73
aVworking large
p74
aVdata set
p75
aVincluding
p76
aVstatistical analysis
p77
aVhypothesis testing
p78
aVdata cleansing
p79
aVtransformation
p80
aVability
p81
aVcreate
p82
aVvisualization
p83
aVhelp
p84
aVtell story
p85
aVdata
p86
aVd3
p87
aVggplot2
p88
aVseaborn
p89
aVgooglevis
p90
aVetc
p91
aVexperience building
p92
aVpredictive model
p93
aVinside
p94
aVstatistical
p95
aVcomputing environment
p96
aVe.g. r
p97
aVpython
p98
aVsklearn
p99
aVspss matlab
p100
aVoctave
p101
aVexperimental design
p102
aVcontrol
p103
aVinterpretation result
p104
aVstatistical
p105
aVrigor
p106
aVanalytical
p107
aVdetail oriented
p108
aVability prioritize
p109
aVexecute deliver
p110
aVproject
p111
aVtime
p112
aVmust comfortable
p113
aVunstructured
p114
aVfast moving
p115
aVconstantly evolving
p116
aVhigh
p117
aVgrowth
p118
aVenvironment
p119
aVnice required
p120
aVexperience
p121
aVhigh level
p122
aVprogramming language
p123
aVe.g. java
p124
aVpython c
p125
aVc++
p126
aVexperience working
p127
aVbig data
p128
aVsolution
p129
aVpig cassandra
p130
aVhdfs spark
p131
aVhbase
p132
aVexperience deploying
p133
aVdata science
p134
aVsolution
p135
aVproduction environment
p136
aVespecially near
p137
aVreal-time
p138
aVsetting
p139
aVwhat's
p140
aVsolve business
p141
aVcritical
p142
aVproblem
p143
aVinside company
p144
aVstrong
p145
aVculture
p146
aVmeasurement
p147
aVtesting optimization
p148
aVacross facet
p149
aVmarketing
p150
aVcustomer acquisition
p151
aVactivity
p152
aVuse cutting
p153
aVedge machine
p154
aVlearning
p155
aVgroup
p156
aVmotivated talented
p157
aVdata scientist
p158
aVsee contribution
p159
aVmake
p160
aVmaterial impact
p161
aVbusiness
p162
aVred venture
p163
aVoverview
p164
aVred venture
p165
aVtechnology-driven digital
p166
aVmarketing sale
p167
aVcompany
p168
aVfocus
p169
aVsolving complex
p170
aVbusiness problem
p171
aVpartner
p172
aVinclude nations'
p173
aVlargest
p174
aVbrand combining
p175
aVadvanced
p176
aVdata
p177
aVanalytics
p178
aVproprietary built
p179
aVin-house
p180
aVtechnology
p181
aVhelp u
p182
aVgenerate demand
p183
aVattract potential
p184
aVcustomer
p185
aVincredible efficiency
p186
aVcombine speed
p187
aVcreativity start-up
p188
aVstrategic thinking
p189
aVmanagement consultancy
p190
aVtechnology
p191
aVdevelopment
p192
aVanalytics
p193
aVsoftware
p194
aVcompany one
p195
aVroof couple
p196
aVculture built
p197
aVspeed innovation
p198
aVcollaboration
p199
aVyou'll find
p200
aVred venture
p201
aVplace unlike
p202
aVperk benefit
p203
aVaddition competitive
p204
aVsalary
p205
aVyou'll also
p206
aVget
p207
aVexcellent benefit
p208
aVpackage including
p209
aV401 k
p210
aVcompany match
p211
aVmedical dental
p212
aVvision coverage
p213
aVshort- long-term
p214
aVdisability insurance
p215
aVlife insurance
p216
aVonsite restaurant
p217
aVsubsidized meal
p218
aVcoffee smoothie
p219
aVbar
p220
aVonsite health
p221
aVclinic
p222
aVgenerous vacation
p223
aVpolicy
p224
aVplus
p225
aVadditional company-wide
p226
aVclosure day
p227
aVincluding
p228
aVweek christmas
p229
aVnew
p230
aVyear
p231
aVfull-gym running
p232
aVtrack spin
p233
aVroom basketball
p234
aVcourt bowling
p235
aValley yoga
p236
aVstudio
p237
aVannual
p238
aVcompany trip
p239
aVcaribbean
p240
aVcontinuous learning
p241
aVopportunity
p242
aVrelevant
p243
aVindustry conference
p244
aVcasual dress
p245
aVencouraged
p246
aVrelocation assistance
p247
aVoffered currently
p248
aVliving charlotte
p249
aVnc area
p250
a.