(lp1
Vred venture
p2
aVdata science
p3
aVteam
p4
aVu
aVnatural language
p5
aVprocessing
p6
aVrandom forest
p7
aVneural network
p8
aVoptimize revenue
p9
aVacross
p10
aVred venture
p11
aVbusiness
p12
aVutilize
p13
aVbleeding edge
p14
aVtechnology
p15
aVleveraging
p16
aVspark hadoop
p17
aVinfrastructure
p18
aVdata
p19
aVmanagement
p20
aVretention
p21
aVfocus
p22
aVspeed execution
p23
aVhandle
p24
aVfull cycle
p25
aVdata science
p26
aVproblem
p27
aVmining
p28
aVdata
p29
aVworking
p30
aVbusiness
p31
aVgroup
p32
aVidentify
p33
aVnew
p34
aVopportunity
p35
aVrapidly
p36
aVprototyping
p37
aVsolution
p38
aVdeploying
p39
aVsolution
p40
aVproduct
p41
aVreal time
p42
aVsetting
p43
aVmonitoring
p44
aVimproving
p45
aVtime
p46
aVwe're tight-knit
p47
aVfast-paced
p48
aVteam
p49
aVworking large
p50
aVamount
p51
aVcomplete powerful
p52
aVdata
p53
aVcommitted
p54
aVstaying
p55
aVcutting edge
p56
aVdata science
p57
aVhuge impact
p58
aVmulti-billion dollar
p59
aVcompany
p60
aVlooking
p61
aV3 5
p62
aVyear hand
p63
aVdata science
p64
aVanalytics
p65
aVexperience
p66
aV3+ year
p67
aVhand
p68
aVprogramming
p69
aVexperience
p70
aVpredictive model
p71
aVr python
p72
aVmatlab c++
p73
aVetc
p74
aVextensive
p75
aVhand experience
p76
aVworking large
p77
aVdata set
p78
aVincluding
p79
aVsampling
p80
aVexploratory data
p81
aVanalysis
p82
aVstatistical analysis
p83
aVdata visualization
p84
aVdata mining
p85
aVdata cleansing
p86
aVtransformation
p87
aVmodeling
p88
aVunderstanding
p89
aVexperimental design
p90
aVcontrol
p91
aVinterpretation result
p92
aVstatistical
p93
aVrigor
p94
aVexperience working
p95
aVbig data
p96
aVsolution
p97
aVpig cassandra
p98
aVhdfs spark
p99
aVhbase
p100
aVstrong
p101
aVexperience working
p102
aVrelational database
p103
aVsql
p104
aVbusiness intelligence
p105
aVsolution
p106
aVable take
p107
aVlead
p108
aVrole
p109
aVbuilding enhancing
p110
aVred venture
p111
aVdata science
p112
aVmethodology
p113
aVproficient
p114
aVfinding
p115
aVcombining
p116
aVdata
p117
aVdifferent
p118
aVdata source
p119
aVability
p120
aVlead
p121
aVmanage multiple
p122
aVproject
p123
aVefficiently
p124
aVmeet deadline
p125
aVstrong communication
p126
aVskill
p127
aVincluding
p128
aVpresentation
p129
aVresult
p130
aVself-motivated
p131
aVcreative problem-solver
p132
aVmust comfortable
p133
aVunstructured
p134
aVfast moving
p135
aVconstantly evolving
p136
aVhigh
p137
aVgrowth
p138
aVenvironment
p139
aVwhat's
p140
aVget
p141
aVstay cutting
p142
aVedge machine
p143
aVlearning
p144
aVgroup
p145
aVmotivated talented
p146
aVdata scientist
p147
aVsee contribution
p148
aVmake
p149
aVmaterial impact
p150
aVbusiness
p151
aVwork
p152
aVexperienced
p153
aVdata scientist
p154
aVsolve business
p155
aVcritical
p156
aVproblem
p157
aVinside company
p158
aVstrong
p159
aVculture
p160
aVmeasurement
p161
aVtesting optimization
p162
aVacross facet
p163
aVmarketing
p164
aVcustomer acquisition
p165
aVactivity
p166
aVred venture
p167
aVoverview
p168
aVred venture
p169
aVtechnology-driven digital
p170
aVmarketing sale
p171
aVcompany
p172
aVfocus
p173
aVsolving complex
p174
aVbusiness problem
p175
aVpartner
p176
aVinclude nations'
p177
aVlargest
p178
aVbrand combining
p179
aVadvanced
p180
aVdata
p181
aVanalytics
p182
aVproprietary built
p183
aVin-house
p184
aVtechnology
p185
aVhelp u
p186
aVgenerate demand
p187
aVattract potential
p188
aVcustomer
p189
aVincredible efficiency
p190
aVcombine speed
p191
aVcreativity start-up
p192
aVstrategic thinking
p193
aVmanagement consultancy
p194
aVtechnology
p195
aVdevelopment
p196
aVanalytics
p197
aVsoftware
p198
aVcompany one
p199
aVroof couple
p200
aVculture built
p201
aVspeed innovation
p202
aVcollaboration
p203
aVyou'll find
p204
aVred venture
p205
aVplace unlike
p206
aVperk benefit
p207
aVaddition competitive
p208
aVsalary
p209
aVyou'll also
p210
aVget
p211
aVexcellent benefit
p212
aVpackage including
p213
aV401 k
p214
aVcompany match
p215
aVmedical dental
p216
aVvision coverage
p217
aVshort- long-term
p218
aVdisability insurance
p219
aVlife insurance
p220
aVonsite restaurant
p221
aVsubsidized meal
p222
aVcoffee smoothie
p223
aVbar
p224
aVonsite health
p225
aVclinic
p226
aVgenerous vacation
p227
aVpolicy
p228
aVplus
p229
aVadditional company-wide
p230
aVclosure day
p231
aVincluding
p232
aVweek christmas
p233
aVnew
p234
aVyear
p235
aVfull-gym running
p236
aVtrack spin
p237
aVroom basketball
p238
aVcourt bowling
p239
aValley yoga
p240
aVstudio
p241
aVannual
p242
aVcompany trip
p243
aVcaribbean
p244
aVcontinuous learning
p245
aVopportunity
p246
aVrelevant
p247
aVindustry conference
p248
aVcasual dress
p249
aVencouraged
p250
aVrelocation assistance
p251
aVoffered currently
p252
aVliving charlotte
p253
aVnc area
p254
a.