(lp1
Vjob description
p2
aVrg
p3
aVid
p4
aVplease
p5
aVput
p6
aVrequirement
p7
aVid
p8
aVrg
p9
aV2034589
p10
aVrequirement
p11
aV5035350
p12
aVrequirement
p13
aV1
aVjob title
p14
aVdata scientist
p15
aVrelevant experience
p16
aVyr
p17
aV5+ year
p18
aVexperience
p19
aVhadoop
p20
aVdevelopment
p21
aVtechnical
p22
aVfunctional
p23
aVskill
p24
aVcandidate
p25
aVexperience
p26
aVform
p27
aVsql
p28
aVe.g.
p29
aVhive
p30
aVpostgresql
p31
aVmssql
p32
aVetc
p33
aVeither
p34
aVpython r
p35
aVstatistical
p36
aVapplication development
p37
aVexperience
p38
aVhadoop
p39
aVenvironment
p40
aVstatistical
p41
aVdevelopment
p42
aVtool e.g.
p43
aVrapidminer knime
p44
aVplus
p45
aV5+ year
p46
aVrelevant
p47
aVdata science
p48
aVexperience
p49
aVproven record
p50
aVsuccessful
p51
aVstatistical
p52
aVproduct
p53
aVdelivery
p54
aVability execute
p55
aVhealth insurance
p56
aVuse case
p57
aVvia
p58
aVstatistical
p59
aVapplication
p60
aVr python
p61
aVsci-py
p62
aVorange
p63
aVetc
p64
aVsignificant
p65
aVexperience
p66
aVsql
p67
aVworking large
p68
aVdatasets
p69
aVrequired
p70
aVstrong verbal
p71
aVwritten communication
p72
aVskill
p73
aVproficient
p74
aVunderstanding
p75
aVdistributed computing
p76
aVprinciple
p77
aVexperience
p78
aVrequired
p79
aV8+ year
p80
aVrole responsibility
p81
aVdevelop
p82
aVcommunicate
p83
aVdeep understanding
p84
aVclient
p85
aVneed
p86
aVperform
p87
aVanalytical
p88
aVdeep-dives
p89
aVidentify
p90
aVproblem
p91
aVopportunity
p92
aVspecific
p93
aVaction
p94
aVrequired
p95
aVdevelop reproducible
p96
aVdeployable
p97
aVstatistical
p98
aVapplication
p99
aVplatform
p100
aVr python
p101
aVspark
p102
aVusing
p103
aVtechnique regression
p104
aVsvm neural
p105
aVnetwork
p106
aVefficiently
p107
aVaccess
p108
aVdata
p109
aVvia
p110
aVmultiple
p111
aVvector
p112
aVe.g.
p113
aVnfs
p114
aVftp
p115
aVssh
p116
aVsql
p117
aVsqoop flume
p118
aVspark
p119
aVdesign experiment
p120
aVmaximize
p121
aVinsight
p122
aVminimizing
p123
aVerror
p124
aVwork cross-functional
p125
aVteam
p126
aVincluding
p127
aVproduct management
p128
aVengineering
p129
aVsenior executive
p130
aVrapidly
p131
aVexecute
p132
aViterate
p133
aVgeneric
p134
aVmanagerial skill
p135
aVdevelops
p136
aVbusiness
p137
aVrelationship
p138
aVintegrates
p139
aVactivity
p140
aVdepartment
p141
aVi.e.
p142
aVsecurity
p143
aVdatabase administrator
p144
aVetc
p145
aVensure successful
p146
aVimplementation
p147
aVsupport
p148
aVproject
p149
aVeffort
p150
aVpotential
p151
aVopportunity
p152
aVexploring
p153
aVnews
p154
aVidea
p155
aVinnovation
p156
aVanchor
p157
aVoutcome based
p158
aVachievement
p159
aVcoordinate activity
p160
aVothers
p161
aVphase
p162
aVsdlc
p163
aVexperience
p164
aVhealth care
p165
aVpreferable
p166
aVeducation
p167
aVb m
p168
aVphd quantitative
p169
aVfield plus
p170
aVwork
p171
aVlocation
p172
aVjacksonville
p173
aVfl
p174
aVjob
p175
aVcodejpc
p176
aV-
aV69primary
p177
aVskillspython
p178
aVpostgresql
p179
aVhive
p180
aVmssqlwork
p181
aVauthorizationcitizen
p182
aVgcrecruitment
p183
aVmanagerpad
p184
aVswamiassigned
p185
aVtocontact
p186
aVperson
p187
aVdetail
p188
a.