(lp1
Vhealth integrity
p2
aVwholly-owned subsidiary
p3
aVquality
p4
aVhealth
p5
aVstrategy
p6
aVinc dedicated
p7
aVprotecting fiscal
p8
aVclinical
p9
aVintegrity
p10
aVhealthcare
p11
aVsystem medicare
p12
aVmedicaid private
p13
aVsector
p14
aVcompany operates
p15
aVnationally federally-designated
p16
aVprogram
p17
aVintegrity contractor
p18
aVcenter medicare
p19
aVmedicaid service
p20
aVcm health
p21
aVintegrity
p22
aVexpert
p23
aVclinical
p24
aVtechnical staff
p25
aVidentify investigate
p26
aVpotential fraud
p27
aVwaste abuse
p28
aVhealthcare assisting
p29
aVlaw enforcement
p30
aVagency protecting
p31
aVpublic
p32
aVresource
p33
aVmultipleopportunities
p34
aVentry level
p35
aVexperienced
p36
aVhealthcare
p37
aVdata
p38
aVanalyst join
p39
aVcerritos
p40
aVca
p41
aVbased
p42
aVunified
p43
aVprogram
p44
aVintegrity contractor
p45
aVupic team
p46
aVupic team
p47
aVidentifies
p48
aVinvestigates
p49
aVfraud waste
p50
aVabuse medicare
p51
aVmedicaid program
p52
aVcovering
p53
aV16
p54
aVwestern
p55
aVstate
p56
aVterritory
p57
aVaddition
p58
aVneed
p59
aVexperienced
p60
aVanalyst
p61
aValso
p62
aVentry level
p63
aVposition
p64
aVperfect candidate
p65
aVstrong analytical
p66
aVability
p67
aVexperience working
p68
aVlarge
p69
aVdata set
p70
aVusing
p71
aVsa r
p72
aVsql
p73
aVit's also
p74
aVgreat opportunity
p75
aVwant make
p76
aVpositive difference
p77
aVnation's
p78
aVhealthcare
p79
aVprogram
p80
aVdata
p81
aVanalyst
p82
aVperform
p83
aVstudy design
p84
aVdata
p85
aVanalysis
p86
aVreport
p87
aVpreparation study
p88
aVoriginate preliminary
p89
aVdata
p90
aVanalysis
p91
aVtrend literature
p92
aVreview
p93
aVexperience
p94
aVexpertise
p95
aVteam mandated
p96
aVproject
p97
aVdata
p98
aVanalysis
p99
aVincluding
p100
aVdata preparation
p101
aVpresentation finding
p102
aVperformed conjunction
p103
aVanalyst
p104
aVreport drafted
p105
aVteam
p106
aVleadership
p107
aVdata scientist
p108
aVessential duty
p109
aVresponsibility include
p110
aVfollowing duty
p111
aVmay assigned
p112
aVtrend
p113
aVdata
p114
aVidentify potential
p115
aVopportunity
p116
aVe.g. variance
p117
aVsignificant outlier
p118
aVpercentile ranked
p119
aVgroup
p120
aVquality improvement
p121
aVfocused investigation
p122
aVaid
p123
aVdesign
p124
aVdata
p125
aVanalysis
p126
aVstrategy
p127
aVidentify potential
p128
aVarea
p129
aVquality improvement
p130
aVfocused investigation
p131
aVanalyze
p132
aVdata
p133
aVdraw conclusion
p134
aVsummarize quality
p135
aVindicator value
p136
aVdevelop tabular
p137
aVgraphical presentation
p138
aVdata
p139
aVclearly concisely
p140
aVillustrate current
p141
aVlevel
p142
aVcare
p143
aVpopulate
p144
aVtabular graphical
p145
aVpresentation
p146
aVdata
p147
aVcontribute development
p148
aVintervention i.e.
p149
aVdevelop
p150
aVeducational material
p151
aVdoctor nurse
p152
aVimprove
p153
aVhealthcare
p154
aVprocess
p155
aVoutcome
p156
aVfacilitate
p157
aVdesign re-measurement
p158
aVstrategy intervention
p159
aVhealthcare
p160
aVprocess
p161
aVoutcome
p162
aVeffectively quantify
p163
aVimpact intervention
p164
aVimprovement
p165
aVanalyze re-measurement
p166
aVdata
p167
aVsummarize quality
p168
aVindicator value
p169
aVsupport
p170
aVdevelopment
p171
aVreport concerning
p172
aVmay
p173
aVmentor junior
p174
aVdata
p175
aVanalyst
p176
aVtechnical
p177
aVaspect
p178
aVwork
p179
aVassist preparing
p180
aVfinding
p181
aVpublishing peer
p182
aVreviewed journal
p183
aVfamiliar
p184
aVcommonly used
p185
aVconcept practice
p186
aVprocedure
p187
aVrelying
p188
aVinstruction
p189
aVpre-established
p190
aVguideline
p191
aVperform
p192
aVfunction job
p193
aVsupervisory responsibility
p194
aVjob
p195
aVsupervisory responsibility
p196
aVcompetency
p197
aVperform job
p198
aVsuccessfully individual
p199
aVdemonstrate following
p200
aVcompetency
p201
aVanalytical
p202
aV-
aVsynthesizes complex
p203
aVdiverse
p204
aVinformation
p205
aVcollect
p206
aVresearch
p207
aVdata
p208
aVus intuition
p209
aVexperience
p210
aVcomplement
p211
aVdata
p212
aVproblem solving
p213
aV-
aVidentifies resolve
p214
aVproblem
p215
aVtimely manner
p216
aVgather analyzes
p217
aVinformation skillfully
p218
aVdevelops alternative
p219
aVsolution
p220
aVjudgment
p221
aV-
aVexhibit sound
p222
aVaccurate judgment
p223
aVsupport
p224
aVexplains
p225
aVreasoning decision
p226
aVlanguage
p227
aVskill ability
p228
aVread
p229
aVanalyze interpret
p230
aVcommon
p231
aVscientific technical
p232
aVprofessional
p233
aVjournal
p234
aVtechnical
p235
aVprocedure
p236
aVgovernmental
p237
aVregulation
p238
aVability write
p239
aVreport
p240
aVbusiness
p241
aVcorrespondence
p242
aVprocedure
p243
aVmanual
p244
aVability effectively
p245
aVpresent
p246
aVinformation
p247
aVrespond question
p248
aVgroup
p249
aVmanager
p250
aVclient
p251
aVcustomer
p252
aVgeneral public
p253
aVmathematical
p254
aVskill ability
p255
aVapply advanced
p256
aVmathematical concept
p257
aVprobability
p258
aVstatistical inference
p259
aVability apply
p260
aVconcept
p261
aVfraction
p262
aVpercentage
p263
aVratio
p264
aVproportion
p265
aVpractical
p266
aVsituation
p267
aVability apply
p268
aVmathematical
p269
aVoperation
p270
aVtask frequency
p271
aVdistribution determination
p272
aVtest reliability
p273
aVvalidity analysis
p274
aVvariance correlation
p275
aVtechnique
p276
aVsampling theory
p277
aVfactor analysis
p278
aVreasoning ability
p279
aVability
p280
aVdefine problem
p281
aVcollect
p282
aVdata
p283
aVestablish fact
p284
aVdraw valid
p285
aVconclusion
p286
aVability interpret
p287
aVextensive variety
p288
aVtechnical instruction
p289
aVmathematical diagram
p290
aVform deal
p291
aVseveral abstract
p292
aVconcrete variable
p293
aVskill ability
p294
aVperform job
p295
aVsuccessfully individual
p296
aVfluency sa
p297
aVstatistical programming
p298
aVsoftware
p299
aVm office
p300
aVability work
p301
aVindependently
p302
aVteam
p303
aVmust posse
p304
aVfamiliarity
p305
aVstatistical
p306
aVepidemiological
p307
aVmethodology
p308
aVautomation
p309
aVtechnique
p310
aVanalytic
p311
aVtask
p312
aVability work
p313
aVhighly sensitive
p314
aVinformation preserving
p315
aVconfidentiality
p316
aVinformation
p317
aVworking knowledge
p318
aVhealthcare
p319
aVsystem medicare
p320
aVmedicaid preferred
p321
aVhealthcare
p322
aVdatabase
p323
aVcoding
p324
aVsystem
p325
aVdata
p326
aVanalyst ii
p327
aVbachelor's degree
p328
aVba b
p329
aVstatistic biostatistics
p330
aVepidemiology public
p331
aVhealth
p332
aVrelated discipline
p333
aVe.g. economics
p334
aVmathematics engineering
p335
aVcomputer science
p336
aVrequired
p337
aV6 month
p338
aVexperience
p339
aVhealth
p340
aVrelated
p341
aVanalytic
p342
aVresearch
p343
aVpreferred
p344
aVdata
p345
aVanalyst iii
p346
aVbachelor's degree
p347
aVba b
p348
aVstatistic biostatistics
p349
aVepidemiology public
p350
aVhealth
p351
aVrelated discipline
p352
aVe.g. economics
p353
aVmathematics computer
p354
aVscience
p355
aVrequired
p356
aVminimum 2
p357
aVyear hands-on
p358
aVsa
p359
aVstatistical programming
p360
aVwork
p361
aVexperience
p362
aVdemonstrated
p363
aVcombination education
p364
aVexperience
p365
aVmaster's degree
p366
aVaccepted lieu
p367
aV2 year
p368
aVexperience
p369
aVsix month
p370
aVexperience
p371
aVhealth
p372
aVrelated
p373
aVanalytic
p374
aVresearch
p375
aVpreferred
p376
aVdata
p377
aVanalyst iv
p378
aVbachelor's degree
p379
aVba b
p380
aVrequired preferably
p381
aVstatistic biostatistics
p382
aVepidemiology public
p383
aVhealth
p384
aVrelated discipline
p385
aVe.g. economics
p386
aVmathematics engineering
p387
aVcomputer science
p388
aVminimum 4
p389
aVyear hands-on
p390
aVsa
p391
aVstatistical programming
p392
aVwork
p393
aVexperience
p394
aVdemonstrated
p395
aVequivalent combination
p396
aVeducation experience
p397
aVmaster's degree
p398
aVaccepted lieu
p399
aV2 year
p400
aVexperience oneyear
p401
aVexperience
p402
aVhealth
p403
aVrelated
p404
aVanalytic
p405
aVresearch
p406
aVpreferred
p407
aVhealth integrity
p408
aVequal opportunity
p409
aVemployer minority
p410
aVfemale protected
p411
aVveteran individual
p412
aVdisability
p413
a.