(lp1
Vjob
p2
aVdata scientist
p3
aVph.d. degree
p4
aVread on....
p5
aVwant work
p6
aVteam
p7
aVsuperstar learn
p8
aVwant
p9
aVpeople
p10
aVdaily push
p11
aVlimit
p12
aVknowledge
p13
aVskill
p14
aVset
p15
aVmotivated continuously
p16
aVmake u
p17
aVefficient effective
p18
aVplatform
p19
aVawesome
p20
aVuser
p21
aVsound like
p22
aVread on...
p23
aVpart
p24
aVcompany
p25
aV200 country
p26
aV50m user
p27
aV1
aVcategory brand
p28
aVname
p29
aVcompany
p30
aVdata scientist
p31
aVevaluate
p32
aVimprove
p33
aVgreat
p34
aVproduct
p35
aVcollaborate multi-disciplinary
p36
aVteam
p37
aVengineer analyst
p38
aVwide range
p39
aVproblem
p40
aVposition
p41
aVbring
p42
aVanalytical rigor
p43
aVstatistical method
p44
aVchallenge measuring
p45
aVquality
p46
aVimproving
p47
aVconsumer
p48
aVproduct
p49
aVunderstanding
p50
aVbehavior end-users
p51
aVadvertiser publisher
p52
aV-
aVwork
p53
aVlarge complex
p54
aVdata set
p55
aVsolve difficult
p56
aVnon-routine analysis
p57
aVproblem
p58
aVapplying advanced
p59
aVanalytical
p60
aVmethod
p61
aVneeded
p62
aVconduct end-to-end
p63
aVanalysis
p64
aVincludes
p65
aVdata gathering
p66
aVrequirement
p67
aVspecification
p68
aVprocessing
p69
aVanalysis
p70
aVongoing deliverable
p71
aVpresentation
p72
aVbuild prototype
p73
aVanalysis pipeline
p74
aViteratively provide
p75
aVinsight
p76
aVscale
p77
aVdevelop
p78
aVcomprehensive understanding
p79
aVdata structure
p80
aVmetric
p81
aVinteract cross-functionally
p82
aVwide variety
p83
aVpeople
p84
aVteam
p85
aVwork closely
p86
aVengineer
p87
aVidentify opportunity
p88
aVdesign
p89
aVas
p90
aVimprovement
p91
aVproduct
p92
aVmake
p93
aVbusiness
p94
aVrecommendation
p95
aVe.g. cost-benefit
p96
aVforecasting
p97
aVexperiment
p98
aVanalysis
p99
aVeffective presentation
p100
aVfinding
p101
aVmultiple
p102
aVlevel
p103
aVstakeholder
p104
aVvisual display
p105
aVquantitative
p106
aVinformation
p107
aVresearch
p108
aVdevelop
p109
aVanalysis forecasting
p110
aVoptimization
p111
aVmethod
p112
aVimprove quality
p113
aVuser facing
p114
aVproduct
p115
aVexample
p116
aVapplication
p117
aVarea
p118
aVinclude
p119
aVad
p120
aVquality
p121
aVsearch
p122
aVquality end-user
p123
aVbehavioral
p124
aVmodeling
p125
aVlive experiment
p126
aVneed
p127
aVposition
p128
aVminimum qualification
p129
aVphd degree
p130
aVquantitative discipline
p131
aVe.g.
p132
aVstatistic operation
p133
aVresearch
p134
aVbioinformatics economics
p135
aVcomputational biology
p136
aVcomputer science
p137
aVmathematics physic
p138
aVelectrical engineering
p139
aVindustrial engineering
p140
aVrelevant
p141
aVwork
p142
aVexperience
p143
aVdata
p144
aVanalysis
p145
aVrelated field
p146
aVe.g. statistician
p147
aVdata scientist
p148
aVcomputational biologist
p149
aVbioinformatician
p150
aVexperience
p151
aVstatistical software
p152
aVe.g. r
p153
aVjulia matlab
p154
aVpanda
p155
aVdatabase
p156
aVlanguage e.g.
p157
aVsql
p158
aVpreferred qualification
p159
aVanalytical
p160
aVengagement
p161
aVoutside class
p162
aVwork
p163
aVschool included
p164
aVapplied
p165
aVexperience
p166
aVmachine learning
p167
aVlarge datasets
p168
aVexperience
p169
aVarticulating
p170
aVbusiness question
p171
aVusing
p172
aVmathematical
p173
aVtechnique arrive
p174
aVanswer
p175
aVusing
p176
aVavailable
p177
aVdata
p178
aVexperience translating
p179
aVanalysis
p180
aVresult
p181
aVbusiness
p182
aVrecommendation
p183
aVdemonstrated
p184
aVskill
p185
aVselecting right
p186
aVstatistical
p187
aVtool
p188
aVgiven
p189
aVdata
p190
aVanalysis
p191
aVproblem
p192
aVdemonstrated
p193
aVeffective
p194
aVwritten verbal
p195
aVcommunication skill
p196
aVdemonstrated
p197
aVleadership self-direction
p198
aVdemonstrated willingness
p199
aVteach others
p200
aVlearn new
p201
aVtechnique
p202
aVwhat's
p203
aV-
aVempower
p204
aVuser
p205
aVaround world
p206
aVcreate new
p207
aVconnection otherwise
p208
aVmight never
p209
aVpossible
p210
aVpart
p211
aVbringing
p212
aVpeople
p213
aVtogether
p214
aV-
aVdedicated delivering
p215
aVinnovative
p216
aVproduct
p217
aVearly continuous
p218
aVdelivery
p219
aVhigh quality
p220
aVsoftware
p221
aVconsumed million
p222
aV-
aVcomprehensive health
p223
aVcoverage
p224
aVcompetitive salary
p225
aV401 k
p226
aVmatch meaningful
p227
aVequity
p228
aV- unlimited
p229
aVvacation flexible
p230
aVworking
p231
aVhour
p232
aV-
aVdaily catered
p233
aVlunch endless
p234
aVsnack supply
p235
aVapply today
p236
aVinterview next
p237
aVweek
p238
aVcybercoders consider
p239
aVemployment city
p240
aVlos angeles
p241
aVqualified applicant
p242
aVcriminal history
p243
aVmanner consistent
p244
aVrequirement los
p245
aVangeles fair
p246
aVchance initiative
p247
aVhiring ban
p248
aVbox ordinance
p249
aVreport
p250
a.