(lp1
Vzestfinance
p2
aVchanging way
p3
aVfinance
p4
aVwork
p5
aVpeople
p6
aVborrow
p7
aVmoney
p8
aVway
p9
aVcredit
p10
aVdecision made
p11
aVzaml
p12
aVplatform
p13
aVused
p14
aVworld's largest
p15
aVcompany
p16
aVtransform credit
p17
aVbusiness
p18
aVcompany
p19
aVsigning
p20
aVevery
p21
aVweek
p22
aVlooking experienced
p23
aVprincipal
p24
aVsoftware engineer
p25
aVpassionate building
p26
aVamazing
p27
aVenterprise
p28
aVservice
p29
aVcutting edge
p30
aVtechnology
p31
aVlean
p32
aVfast
p33
aVenvironment
p34
aVwant join
p35
aVorganization
p36
aVfocused delivering
p37
aVcutting edge
p38
aVmachine learning
p39
aVtechnology
p40
aVlarge enterprise
p41
aVsystem
p42
aVbuild
p43
aVallow
p44
aVcustomer
p45
aVcapture
p46
aVhuge
p47
aV100m+
p48
aVeconomic
p49
aVbenefit
p50
aVjoining team
p51
aV30+
p52
aVhighly-skilled
p53
aVfull stack
p54
aVengineer
p55
aVworld class
p56
aVdata scientist
p57
aVcontributing
p58
aVsoftware
p59
aVdesign
p60
aVsystem
p61
aVdevelopment
p62
aVskill
p63
aVopportunity
p64
aVbroad
p65
aVpurview
p66
aVimprove
p67
aVteam
p68
aVefficiency productivity
p69
aVsetting
p70
aVhigh quality
p71
aVengineering
p72
aVstandard
p73
aVhands-on
p74
aVposition
p75
aVmany
p76
aVopportunity pair
p77
aVjunior senior
p78
aVdeveloper
p79
aVdata scientist
p80
aVdelivering
p81
aVfeature
p82
aVreinforcing engineering
p83
aVbest practice
p84
aVpractice
p85
aVpairing
p86
aVtdd
p87
aVruby rail
p88
aVror
p89
aVenvironment
p90
aVangularjs
p91
aV+
aVrail
p92
aV+
aVmysql
p93
aVstack
p94
aVuse
p95
aVdocker containerization
p96
aVdeployment
p97
aVdata warehouse
p98
aVreporting
p99
aVstack s3
p100
aVredshift looker
p101
aVbased
p102
aVenterprise
p103
aVdeployment
p104
aVinstalled
p105
aVcustomer's
p106
aVdata
p107
aVcenter
p108
aVintegrate
p109
aVmyriad
p110
aVlegacy technology
p111
aVdeliver
p112
aVdata science
p113
aVtool
p114
aVmodel
p115
aVr
aVrequired
p116
aVexperience
p117
aVtechnology
p118
aVrather
p119
aVzest
p120
aVlooking someone
p121
aVlearn quickly
p122
aVtake advantage
p123
aVnew technology
p124
aVadapt
p125
aVcustomer
p126
aVrequirement
p127
aVresponsibility
p128
aVmentoring
p129
aVpairing
p130
aVeffectively
p131
aVdeveloper
p132
aVdata scientist
p133
aVdeliver high-quality
p134
aVcode
p135
aVcode review
p136
aVinnovating
p137
aVtechnical
p138
aVdesign
p139
aVsystem
p140
aVarchitecture
p141
aVacross
p142
aVservice
p143
aVapplication
p144
aVestablishing
p145
aVreinforcing engineering
p146
aVbest practice
p147
aVcompany culture
p148
aVparticipating hiring
p149
aVprocess
p150
aVgrow
p151
aVengineering team
p152
aVever-rising
p153
aVquality
p154
aVbar
p155
aVpartnering
p156
aVproduct management
p157
aVbusiness
p158
aVdefine
p159
aVdeliver
p160
aVzestfinance
p161
aVproduct roadmap
p162
aVdelivering
p163
aVhighly available
p164
aVbusiness
p165
aVcritical
p166
aVsystem
p167
aVincreasing
p168
aVteam
p169
aVskill
p170
aVlevel
p171
aVarea
p172
aVsoftware
p173
aVdesign
p174
aVsystem
p175
aVarchitecture
p176
aVimproving
p177
aVteam
p178
aVefficiency productivity
p179
aVprocess improvement
p180
aVidea partnering
p181
aVproduct management
p182
aVlead
p183
aVtechnical
p184
aVrequirement gathering
p185
aVdiscussion
p186
aVcustomer
p187
aVqualification
p188
aVb.s. computer
p189
aVscience equivalent
p190
aVexperience
p191
aVfollowed
p192
aV8+ year
p193
aVexperience
p194
aVsenior
p195
aVdeveloper architect
p196
aVrole
p197
aVideally
p198
aVdelivered
p199
aVbusiness
p200
aVcritical
p201
aVsoftware
p202
aVlarge enterprise
p203
aVhands-on coding
p204
aVexperience
p205
aVruby python
p206
aVsimilar
p207
aVexperience designing
p208
aVapis
p209
aVadhering
p210
aVrest
p211
aVarchitecture style
p212
aVability
p213
aVanalyze
p214
aVtroubleshoot large-scale
p215
aVdistributed system
p216
aVnetwork
p217
aVanalysis
p218
aVperformance
p219
aVapplication
p220
aVissue
p221
aVexperience
p222
aVcontinuous integration
p223
aVtool e.g.
p224
aVgithub
p225
aVtravis
p226
aVci
p227
aVjenkins
p228
aVamazon web
p229
aVservice
p230
aVe.g.
p231
aVec2 rds
p232
aVs3
p233
aVroute53
p234
aVmonitoring alerting
p235
aVtool e.g.
p236
aVnew relic
p237
aVairbrake
p238
aVpagerduty
p239
aVexperience
p240
aVdocker
p241
aVprovisioning
p242
aVserver
p243
aVdeploying application
p244
aVservice
p245
aVexcellent verbal
p246
aVwritten communication
p247
aVskill
p248
aVincluding
p249
aVability explain
p250
aVtechnical issue
p251
aVnon-technical audience
p252
aValong strong
p253
aVwork ethic
p254
aVcan-do attitude
p255
aVzest
p256
aVzestfinance inc
p257
aVapplies unique
p258
aVcredit-decisioning technology
p259
aVplatform
p260
aVbased
p261
aVdata science
p262
aVmachine learning
p263
aVhelp lender
p264
aVeffectively predict
p265
aVcredit risk
p266
aVincrease revenue
p267
aVreduce risk
p268
aVensure compliance
p269
aVzestfinance founded
p270
aV2009 douglas
p271
aVmerrill team
p272
aVformer google
p273
aVemployee
p274
aVmission making
p275
aVfair transparent
p276
aVcredit available
p277
aVeveryone
p278
aVcommitted diversity
p279
aVhiring professional
p280
aVdevelopment everyday
p281
aVdiscussion zest
p282
aVdetermined hire
p283
aVcrazy smart
p284
aVpeople different
p285
aVcreate broad
p286
aVthinking lot
p287
aVdifferent idea
p288
aVextension best
p289
aVteam
p290
aVpossible
p291
a.