(lp1
Vdescription
p2
aVmanager luxury
p3
aVtruck vehicle
p4
aVvaluation operation
p5
aVresponsible leading
p6
aVeffort
p7
aVdetermine valuation
p8
aVused
p9
aVnew
p10
aVcost
p11
aVvalue
p12
aVacross truck
p13
aVluxury vehicle
p14
aVsegment
p15
aVincludes
p16
aVleading group
p17
aVhighly motivated
p18
aVanalyst
p19
aVsenior analyst
p20
aVresponsible
p21
aVvehicle valuation
p22
aVsegment kbb
p23
aVorder
p24
aVsuccessfully fulfill
p25
aVresponsibility
p26
aVmanager
p27
aVlead
p28
aVteam
p29
aVanalyzing large
p30
aVdatasets
p31
aVdetermine appropriate
p32
aVaction
p33
aVrelates valuation
p34
aVadjustment addition
p35
aVmanager luxury
p36
aVtruck vehicle
p37
aVvaluation operation
p38
aVresponsible
p39
aVad hoc
p40
aVproject
p41
aVworking
p42
aVinternal external
p43
aVclient
p44
aVpartner
p45
aVkey responsibility
p46
aVessential function
p47
aVlead
p48
aVteam
p49
aVhighly motivated
p50
aVvaluation analyst
p51
aVtruck luxury
p52
aVsegment
p53
aVcollaborate internal
p54
aVexternal client
p55
aVeducate
p56
aVmarket kbb
p57
aVvalue
p58
aVlead
p59
aVdevelop
p60
aVmentor
p61
aVanalyst
p62
aVsenior analyst
p63
aVtruck luxury
p64
aVvehicle valuation
p65
aVsupervise manage
p66
aVdirect selection
p67
aVtraining
p68
aVdevelopment
p69
aVwork
p70
aVassignment personnel
p71
aVstay current
p72
aVautomotive industry
p73
aVwhole
p74
aVe.g.
p75
aVmanufacturer
p76
aVpricing
p77
aVnew
p78
aVused car
p79
aVmarket
p80
aVperforms related
p81
aVduty assigned
p82
aVad hoc
p83
aVreporting
p84
aVproject
p85
aVanalyze
p86
aVweekly bias
p87
aVreport
p88
aVdetermine
p89
aVarea focus
p90
aVweek
p91
aVqualification required
p92
aVbachelor degree
p93
aVbusiness
p94
aVcommunication
p95
aVrelated field
p96
aV4 6
p97
aVyear related
p98
aVexperience
p99
aVtraining
p100
aVequivalent combination
p101
aVeducation experience
p102
aVprior automotive
p103
aVexperience
p104
aVpreferred
p105
aVstrong mathematical
p106
aVquantitative
p107
aVknowledge
p108
aVengage
p109
aVstatistician
p110
aVdata scientist
p111
aVability
p112
aVdefine problem
p113
aVcollect
p114
aVdata
p115
aVestablish fact
p116
aVdraw valid
p117
aVconclusion
p118
aVpreferred
p119
aVmaster degree
p120
aVbusiness
p121
aVcommunication
p122
aVequivalent combination
p123
aVeducation experience
p124
aVability
p125
aVquery
p126
aVlarge datasets
p127
aVsql
p128
aVsoftware
p129
aVprogram
p130
aVautomotive industry
p131
aVexperience
p132
aVcox automotive
p133
aVcox automotive
p134
aVinc transforming
p135
aVway world
p136
aVbuy sell
p137
aVowns car
p138
aVindustry-leading digital
p139
aVmarketing
p140
aVsoftware
p141
aVfinancial wholesale
p142
aVe-commerce solution
p143
aVconsumer dealer
p144
aVmanufacturer overall
p145
aVautomotive ecosystem
p146
aVworldwide committed
p147
aVopen choice
p148
aVdedicated
p149
aVstrong partnership
p150
aVcox automotive
p151
aVfamily includes
p152
aVautotrader dealer
p153
aVdot com
p154
aVdealertrack kelley
p155
aVblue book
p156
aVmanheim nextgear
p157
aVcapital vauto
p158
aVxtime host
p159
aVbrand
p160
aVglobal
p161
aVcompany 33
p162
aV000
p163
aVteam member
p164
aV200 location
p165
aVpartner 40
p166
aV000 auto
p167
aVdealer well
p168
aVmajor automobile
p169
aVmanufacturer engaging
p170
aVu.s. consumer
p171
aVcar buyer
p172
aVrecognized medium
p173
aVbrand
p174
aVindustry cox
p175
aVautomotive subsidiary
p176
aVcox enterprise
p177
aVinc atlanta-based
p178
aVcompany
p179
aVrevenue 18
p180
aVbillion approximately
p181
aV60 000
p182
aVemployee cox
p183
aVenterprise
p184
aVmajor
p185
aVoperating subsidiary
p186
aVinclude cox
p187
aVcommunication
p188
aVcox medium
p189
aVgroup
p190
aVinformation
p191
aVcox automotive
p192
aVvisit
p193
aVorganization
p194
aVcox automotive
p195
aVprimary location
p196
aVus-ca-irvine-195
p197
aVtechnology
p198
aVdr
p199
aVemployee
p200
aVstatus
p201
aVregular
p202
aVjob
p203
aVlevel
p204
aVteam
p205
aVleader
p206
aVshift day
p207
aVjob
p208
aVtravel yes
p209
aV5
aVtime
p210
aVschedule full-time
p211
aVunposting date
p212
aVongoing
p213
a.