(lp1
Vdata scientist
p2
aVu
aVlike
p3
aV1904
p4
aVworld
p5
aVfair
p6
aVbrought
p7
aVinnovation
p8
aVst louis
p9
aV1904labs
p10
aVinspires innovation
p11
aVnew exciting
p12
aVway
p13
aVbridging gap
p14
aVtalent community
p15
aVclient
p16
aVcutting edge
p17
aVneed
p18
aVprovide
p19
aVteam member
p20
aVchallenging rewarding
p21
aVwork
p22
aVcompetitive compensation
p23
aVopportunity
p24
aVopenly
p25
aVpursue
p26
aVindividual
p27
aVstartup
p28
aVidea
p29
aVwork
p30
aVday
p31
aVchallenge conventional
p32
aVnorm
p33
aVencouraging
p34
aVemployee
p35
aVinnovate
p36
aVproduct
p37
aVidea
p38
aVcollaboration
p39
aVtime
p40
aVseparate
p41
aVclient
p42
aVwork
p43
aV1904labs
p44
aVagile
p45
aVinnovative
p46
aVtechnologist
p47
aVcutting edge
p48
aVtechnology
p49
aVdont
p50
aVscare
p51
aVu
aVfuel
p52
aVfire
p53
aVjob description
p54
aVdata scientist
p55
aV1904labs
p56
aVresponsible
p57
aVworking
p58
aVvarious
p59
aVenvironment
p60
aVtool
p61
aVdata
p62
aVlike spark
p63
aVcreate
p64
aVtest
p65
aVmachine learning
p66
aValgorithm tested
p67
aVverified
p68
aVperson
p69
aVwork
p70
aVdevelopment
p71
aVteam
p72
aVimplement algorithm
p73
aVwithin
p74
aVorchestrated
p75
aVset
p76
aVmicroservices
p77
aVrequirement
p78
aVcomputer science
p79
aVbackground
p80
aVcomputer science
p81
aVmath
p82
aVexperience
p83
aVunderstanding
p84
aVstatistical model
p85
aVoo
p86
aVprogramming
p87
aVexperience working
p88
aVlanguage
p89
aVsuited
p90
aVmachine learning
p91
aVsystem
p92
aVpython r
p93
aVjava scala
p94
aVrest
p95
aVservice
p96
aVdevelopment
p97
aVmachine learning
p98
aVanalysis
p99
aVexperience
p100
aVevaluating
p101
aVapplying
p102
aVvarious
p103
aVmodel
p104
aVdecision tree
p105
aVnearest neighbor
p106
aVneural net
p107
aVsupport vector
p108
aVmachine
p109
aVensemble
p110
aVmultiple
p111
aVmodel
p112
aVetc...
p113
aVanalytics
p114
aV1
aVspark
p115
aVspark streaming
p116
aVflink
p117
aVdatabricks
p118
aVsamza
p119
aVmapreduce
p120
aVtool
p121
aVexperience
p122
aVusing
p123
aVtool like
p124
aVjupyter notebook
p125
aVperform analysis
p126
aVactivity
p127
aVtest evaluate
p128
aVdata
p129
aVmodel algorithm
p130
aVattitude
p131
aVaptitude
p132
aVcandidate must
p133
aVadaptable
p134
aVdrive
p135
aVlearn new
p136
aVtechnology
p137
aVframework
p138
aVsupport
p139
aVr
aVinterest
p140
aVagile
p141
aVexperience working
p142
aVagile
p143
aVteam oriented
p144
aVenvironment
p145
aVperk
p146
aVoffer
p147
aVinnovation
p148
aVtime
p149
aVwork
p150
aVimportant
p151
aVdress code
p152
aV-
aVdon't
p153
aVone
p154
aVrole
p155
aVlocated st
p156
aVlouis mo
p157
aVwould
p158
aVprefer
p159
aVlocal
p160
aVcandidate
p161
aVlocation
p162
aVimportant
p163
aVfactor
p164
aVplease
p165
aVhelp u
p166
aVunderstand
p167
aVwould like
p168
aVcall
p169
aVst louis
p170
aVhome
p171
aVwould
p172
aVrelocating
p173
a.