(lp1
Vdata scientist
p2
aVp g
p3
aVbusiness leader
p4
aVdata scientist
p5
aVtransform
p6
aVbusiness
p7
aVenable better
p8
aVdecision-making usage
p9
aVadvanced analytics
p10
aVsuccessful
p11
aVdata scientist
p12
aVneed
p13
aVeffective communicator
p14
aVself-motivated able
p15
aVdrive
p16
aVinsight action
p17
aVimprove p
p18
aVg's business
p19
aVresult
p20
aVbusiness
p21
aVknowledge
p22
aVinterpersonal communication
p23
aVskill therefore
p24
aVmust thrive
p25
aVmulti-functional leadership
p26
aVteam
p27
aVpassionate
p28
aVanalytics
p29
aVanalytic
p30
aVskill
p31
aVfoundation
p32
aVrole
p33
aVability
p34
aVconnect explore
p35
aVlarge data-sets
p36
aVbuild predictive
p37
aVdescriptive model
p38
aVtranslate insight
p39
aVbusiness
p40
aVimproving action
p41
aVcritical
p42
aVwork
p43
aVtechnically capable
p44
aVp g
p45
aVdata scientist
p46
aVget hand
p47
aVdirty leveraging
p48
aVartificial intelligence
p49
aVdata visualization
p50
aVanalytic tool
p51
aVr python
p52
aVscala spark
p53
aVhadoop knime
p54
aVetc
p55
aVunlock
p56
aVbusiness
p57
aVbuilding
p58
aVinsight mountain
p59
aVdata
p60
aVadept leveraging
p61
aVtechnology
p62
aVsolving ad
p63
aVhoc
p64
aVbusiness problem
p65
aVinnovating potential
p66
aVfuture
p67
aVsolution
p68
aVworking
p69
aVtechnology
p70
aVpartner
p71
aVtranslate innovation
p72
aVrobust scaled
p73
aVanalytic solution
p74
aVp g
p75
aVdata scientist
p76
aV1
aVcreative relentless
p77
aVproblem-solver using
p78
aVbig data
p79
aVadvanced analytics
p80
aVskill
p81
aValongside leadership
p82
aVdirect engagement
p83
aVbusiness leader
p84
aV2
aVdesign
p85
aVresearch
p86
aVanalytic
p87
aVframework context
p88
aVoverall project
p89
aVobjective
p90
aVlimited
p91
aVmedium effectiveness
p92
aVconsumer engagement
p93
aVp g
p94
aVbusiness
p95
aVmodel
p96
aVoptimization
p97
aVetc
p98
aV3 execute
p99
aVresearch
p100
aVanalytics
p101
aVincluding
p102
aVdata source
p103
aVidentification processing
p104
aVmodel algorithm
p105
aVdevelopment turning
p106
aVinsight actionable
p107
aVrecommendation presenting
p108
aVactionable recommendation
p109
aVdrive action
p110
aVbusiness
p111
aVvalue creation
p112
aV4 collaborate
p113
aVactively effectively
p114
aVfunction
p115
aVpartner senior
p116
aVmanagement accomplish
p117
aVproject objective
p118
aV5
aVparticipate lead
p119
aVp g
p120
aVanalytic capability
p121
aVbuilding
p122
aVprogram
p123
aVclick apply
p124
aVonline start
p125
aVapplication
p126
aVprocess
p127
aVdon't delay
p128
aVoffer made
p129
aVrolling basis
p130
aVp g
p131
aVinformation technology
p132
aVprocter gamble
p133
aVbusiness
p134
aVinnovation
p135
aVtechnology
p136
aVintegrate create
p137
aVcompetitive advantage
p138
aVp g
p139
aVmission clear
p140
aV-
aVdeliver
p141
aVhelp p
p142
aVg win
p143
aVconsumer p
p144
aVg professional
p145
aVdiverse
p146
aVbusiness leader
p147
aVapply mastery
p148
aVdeliver game-changing
p149
aVtechnology-driven business
p150
aVmodel
p151
aVcapability whether
p152
aVrole
p153
aVcreate
p154
aVinnovation
p155
aVstrategy
p156
aVbusiness
p157
aVprotect critical
p158
aVinformation system
p159
aVasset manage
p160
aVstrategic supplier
p161
aVcutting-edge shared
p162
aVservice
p163
aVorganization
p164
aVtechnical mastery
p165
aVrecognized rewarded
p166
aVpassion
p167
aVindustry cultivated
p168
aVculture continued
p169
aVlearning
p170
aVgrowth
p171
aVprofessional
p172
aVcareer
p173
aVbuild
p174
aVchange
p175
aVleadership influence
p176
aVskill breadth
p177
aVexperience
p178
aVacross multiple
p179
aVbusiness
p180
aVdepth expertise
p181
aVarea
p182
aVlike
p183
aVapplication
p184
aVintegration
p185
aVinfrastructure
p186
aVdata
p187
aVanalytics
p188
aVsecurity risk
p189
aVlooking
p190
aVleader graduating
p191
aVrecently graduated
p192
aVmaster's degree
p193
aVph.d.
p194
aVoperation research
p195
aVcomputer science
p196
aVsystem engineering
p197
aVapplied math
p198
aVstatistic
p199
aVanalytics
p200
aVsimilar quantitative
p201
aVdegree
p202
aVability demonstrate
p203
aVleadership applying
p204
aVanalytic technique
p205
aVdeliver actionable
p206
aVinsight
p207
aVdata
p208
aVstrong written
p209
aVverbal communication
p210
aVskill
p211
aVinfluence others
p212
aVtake action
p213
aVdemonstrated ability
p214
aVhandle multiple
p215
aVpriority
p216
aVexcellent collaboration
p217
aVskill ability
p218
aVwork
p219
aVwithin
p220
aVdiverse organization
p221
aVteam
p222
aVle 5
p223
aVyear experience
p224
aVdata science
p225
aVfield
p226
aVindividual
p227
aV2
aVfollowing specialty
p228
aVexperience
p229
aVanalytical tool
p230
aVapplication
p231
aVspecialty area
p232
aVresearch
p233
aVbayesian
p234
aVanalysis bayesian
p235
aVdecision theory
p236
aVprobabilistic modeling
p237
aVcomputation
p238
aVmachine learning
p239
aVincluding
p240
aVdeep learning
p241
aVuncertainty quantification
p242
aVoptimization
p243
aVglobal
p244
aVlocal stochastic
p245
aVmethod
p246
aVdynamic state-space
p247
aVmodel kalman
p248
aVfilter
p249
aVdata assimilation
p250
aVexperimental design
p251
aVmodel
p252
aVreduction dimensionality
p253
aVreduction
p254
aVexperience
p255
aVanalytical tool
p256
aVapplication
p257
aVunix linux
p258
aVbig data
p259
aVecosystem hadoop
p260
aVspark mapreduce
p261
aVsql hive
p262
aVscientific computing
p263
aVr python
p264
aVc java
p265
aVscala
p266
aVhigh-performance parallel
p267
aVdistributing computing
p268
aVdata visualization
p269
aVdata
p270
aVmanagement
p271
aVsystem
p272
aVbusiness intelligence
p273
aVtool knime
p274
aVtableau spotfire
p275
aVqualified applicant
p276
aVreceive consideration
p277
aVemployment without
p278
aVregard race
p279
aVcolor religion
p280
aVsex national
p281
aVorigin protected
p282
aVveteran status
p283
aVdisability status
p284
aVage sexual
p285
aVorientation gender
p286
aVidentity expression
p287
aVmarital status
p288
aVcitizenship hiv
p289
aVaid status
p290
aVlegally protected
p291
aVfactor
p292
aVimmigration sponsorship
p293
aVavailable position
p294
aVapplicant
p295
aVu.s.
p296
aVbased
p297
aVposition generally
p298
aVrequired eligible
p299
aVwork u.s.
p300
aVwithout need
p301
aVcurrent future
p302
aVsponsorship except
p303
aVrare situation
p304
aVbased procter
p305
aVgamble's sole
p306
aVdiscretion procter
p307
aVgamble sponsor
p308
aVcandidate permanent
p309
aVresidency exception
p310
aVwould based
p311
aVcompany's specific
p312
aVbusiness need
p313
aVtime
p314
aVplace recruitment
p315
aVwell particular
p316
aVqualification
p317
aVindividual
p318
aVprocter gamble
p319
aVparticipates e-verify
p320
aVrequired
p321
aVlaw qualified
p322
aVindividual disadvantaged
p323
aVbased unemployed
p324
a.