(lp1
Vp g
p2
aVglobal
p3
aVcompany
p4
aVannual sale
p5
aVexceeding 65bn
p6
aV2016
p7
aVbrand
p8
aVglobal household
p9
aVname many
p10
aVleadership
p11
aVposition
p12
aVcategory p
p13
aVg
aVleader
p14
aVapplying
p15
aVdata science
p16
aVbuild
p17
aVbusiness
p18
aVevidenced industry
p19
aVrecognition international
p20
aVinstitute
p21
aVanalytics
p22
aVinforms edelman
p23
aVaward cio
p24
aVcomputerworld award
p25
aVcareer
p26
aVdata science
p27
aVp g
p28
aVprovide
p29
aVauniqueopportunity
p30
aVspan
p31
aVr
aVmanufacturing marketing
p32
aVsale
p33
aVorganization
p34
aVdirectly impact
p35
aVsignificant
p36
aVbusiness
p37
aVgrowth looking
p38
aVexperienced
p39
aVleadership
p40
aVchampion p
p41
aVg'sr
p42
aVdata science
p43
aVeffort
p44
aVrapidly
p45
aVdeveloping
p46
aVarea
p47
aVcritical
p48
aVproduct
p49
aVinnovation
p50
aVeffort requiring
p51
aVhighly technical
p52
aVleader
p53
aValso
p54
aVchange agent
p55
aVleading edge
p56
aVthinker collaborator
p57
aVable
p58
aVpartner
p59
aVacross
p60
aVcommercial
p61
aVproduct
p62
aVsupply
p63
aVorganization
p64
aVpetabyte data
p65
aVper year
p66
aVcaptured quest
p67
aVdelight consumer
p68
aV-
aVideation
p69
aVdevelopment
p70
aVsupply chain
p71
aVdeep
p72
aVinteraction
p73
aVconsumer
p74
aVevery step
p75
aVjourney
p76
aVdata science
p77
aVchallenge
p78
aVopportunity
p79
aVrepresent outstanding
p80
aVscientific business-building
p81
aVopportunity
p82
aVcontinue revolutionize
p83
aVend-to-end
p84
aVinnovation
p85
aVprocess
p86
aV-
aVpractical experience
p87
aVscientific
p88
aVr
aVsetting
p89
aVrequired handson
p90
aVdevelopment deployment
p91
aVcomplex
p92
aVdata
p93
aVbase
p94
aVadvanced statistical
p95
aVmethod
p96
aVmachine learning
p97
aValgorithm
p98
aV-
aVexperience
p99
aVconsumer good
p100
aVbusiness
p101
aVhighly desirable
p102
aV-
aVexperience applying
p103
aVdata science
p104
aVconsumer
p105
aVproduct
p106
aVone
p107
aVseveral following
p108
aVarea
p109
aVhighly desirable
p110
aV-
aVsensor connected
p111
aVdevice instrumented
p112
aVdevice image
p113
aVfacial recognition
p114
aVprocessing text
p115
aVanalytics
p116
aVhadoop spark
p117
aVecosystem
p118
aVdata storage
p119
aVmanagement
p120
aVinfrastructure
p121
aVsuccessful candidate
p122
aVdemonstrated experience
p123
aVsuccess
p124
aVleast 8
p125
aV10 year
p126
aVfollowing area
p127
aVdeveloping
p128
aVorganizational
p129
aVvision
p130
aVdirection
p131
aValong
p132
aVresource budget
p133
aVmanagement
p134
aVorganizational
p135
aVstrategic
p136
aVinfluence
p137
aVdemonstrated ability
p138
aVdrive
p139
aVorganizational cultural
p140
aVchange
p141
aVdata science
p142
aVinfluence
p143
aVbusiness
p144
aVproject
p145
aVdirection
p146
aVtop
p147
aVmanagement
p148
aVapplication stateoftheart
p149
aVmethod
p150
aVcreate competitive
p151
aVadvantage
p152
aVtrack record
p153
aVdelivering transformational
p154
aVinnovation
p155
aVdelivered significant
p156
aVbusiness
p157
aVimpact
p158
aVproject management
p159
aVexperience
p160
aVleading multi-functional
p161
aVteam
p162
aVstaff
p163
aVdevelopment
p164
aVhiring attracting
p165
aVretaining top
p166
aVtechnical
p167
aVtalent
p168
aVmanagement
p169
aVdirect report
p170
aVcoaching training
p171
aVpartnering senior
p172
aVtechnical
p173
aVexpert
p174
aVcoaching guidance
p175
aVjunior technologist
p176
aVidentifying
p177
aVbuilding
p178
aVexternal
p179
aVstrategic
p180
aVcollaboration
p181
aVdeliver
p182
aVproject
p183
aVtechnical
p184
aVlearning
p185
aV-
aVexcels working
p186
aVacross organizational
p187
aVboundary networking
p188
aVwithin
p189
aVr
aVsenior
p190
aVbusiness
p191
aVleadership extensively
p192
aVoutside p
p193
aVg
aV-
aVinspirational leadership
p194
aVsetting vision
p195
aVorganization
p196
aVindividual
p197
aVdeveloping
p198
aVculture
p199
aVtalent
p200
aV-
aVexcellent
p201
aVdeep technical
p202
aVskill
p203
aVwell
p204
aVability effectively
p205
aVtranslate
p206
aVwork
p207
aVnon-technical
p208
aVcommercial
p209
aVfunction
p210
aVqualified applicant
p211
aVreceive consideration
p212
aVemployment without
p213
aVregard race
p214
aVcolor religion
p215
aVsex national
p216
aVorigin protected
p217
aVveteran status
p218
aVdisability status
p219
aVage sexual
p220
aVorientation gender
p221
aVidentity expression
p222
aVmarital status
p223
aVcitizenship hiv
p224
aVaid status
p225
aVlegally protected
p226
aVfactor
p227
aVprocter gamble
p228
aVparticipates e-verify
p229
aVrequired
p230
aVlaw qualified
p231
aVindividual disadvantaged
p232
aVbased unemployed
p233
aVjob
p234
aVresearch development
p235
aVtitle
p236
aVresearch development
p237
aV-
aVdata scientist
p238
aVleader
p239
aVlocation ohio-cincinnati
p240
aVrequisition id
p241
aVrnd00003477
p242
a.