(lp1
Vjob number
p2
aVr0002090
p3
aVbooz allen
p4
aVhamilton forefront
p5
aVstrategy
p6
aVtechnology 100
p7
aVyear today
p8
aVfirm provides
p9
aVmanagement
p10
aVtechnology consulting
p11
aVengineering
p12
aVservice
p13
aVleading fortune
p14
aV500 corporation
p15
aVgovernment not-for-profit
p16
aVacross globe
p17
aVbooz allen
p18
aVpartner public
p19
aVprivate sector
p20
aVclient solve
p21
aVdifficult challenge
p22
aVcombination consulting
p23
aVanalytics mission
p24
aVoperation
p25
aVtechnology
p26
aVsystem delivery
p27
aVcybersecurity engineering
p28
aVinnovation expertise
p29
aVdata scientist
p30
aVkey role
p31
aVwork
p32
aVdata scientist
p33
aVadvanced analytics
p34
aVexpertise booz
p35
aVallen hamilton
p36
aVapply expertise
p37
aVadvanced analytics
p38
aVwork
p39
aVindustry leading
p40
aVcloud computing
p41
aVtechnologist
p42
aVdata scientist
p43
aVsolve large-scale
p44
aVcomplex challenging
p45
aVbusiness problem
p46
aVacross
p47
aVpublic private
p48
aVsector allocate
p49
aVacross
p50
aVmarket
p51
aVindustry
p52
aVaddress business
p53
aVchallenge
p54
aVperform analysis
p55
aVexplain
p56
aVanalysis
p57
aVclient
p58
aVprovide
p59
aVsolution
p60
aVproblem
p61
aVdata-driven
p62
aVproduct
p63
aVdevelop
p64
aVmachine learning
p65
aVdata mining
p66
aVstatistical graph-based
p67
aValgorithm designed
p68
aVanalyze massive
p69
aVdata set
p70
aVpartner
p71
aVcloud technologist
p72
aVensure proper
p73
aVimplementation usage
p74
aValgorithm
p75
aVserve client
p76
aVinterface participate
p77
aVrequirement gathering
p78
aVanalysis
p79
aVprocess
p80
aVsystem definition
p81
aVdata
p82
aVanalysis
p83
aVpresentation
p84
aVanalysis
p85
aVclient
p86
aVdevelopment algorithm-driven
p87
aVproduct
p88
aVsolution
p89
aVbasic qualification
p90
aVexperience
p91
aVdata
p92
aVanalytics
p93
aVexperience
p94
aVprogramming
p95
aVusing
p96
aVobject-oriented language
p97
aVincluding
p98
aVjava c++
p99
aVc python
p100
aVsecret clearance
p101
aVba b
p102
aVdegree
p103
aVadditional qualification
p104
aVm degree
p105
aVpreferred
p106
aVclearance
p107
aVapplicant selected
p108
aVsubject security
p109
aVinvestigation may
p110
aVneed meet
p111
aVeligibility requirement
p112
aVaccess classified
p113
aVinformation
p114
aVsecret clearance
p115
aVrequired
p116
aVintegrating full
p117
aVrange consulting
p118
aVcapability booz
p119
aVallen one
p120
aVfirm help
p121
aVclient solve
p122
aVtoughest problem
p123
aVside help
p124
aVachieve mission
p125
aVbooz allen
p126
aVcommitted delivering
p127
aVresult endure
p128
aVproud diverseenvironment
p129
aVeoe f
p130
aVdisability vet
p131
aVsig2016
p132
a.