(lp1
Vlooking
p2
aVenvironment encourages
p3
aVcollaboration making
p4
aVimpact
p5
aVyou'll contribute
p6
aVfresh idea
p7
aVviasat foster
p8
aVenvironment inspiration
p9
aVresulting driven
p10
aVcutting-edge
p11
aVcompany
p12
aVadvancing innovation
p13
aVyou're interested
p14
aVcontinued growth
p15
aVmeaningful contribution
p16
aVflexibility
p17
aVperform
p18
aVdynamic
p19
aVteam
p20
aVenvironment viasat
p21
aVfit
p22
aVculture empowers
p23
aVu
aVthing
p24
aVcompany
p25
aVwould
p26
aVfind difficult
p27
aVimpossible uniquely
p28
aVviasat intentionally
p29
aVlike
p30
aVcompany
p31
aVnew
p32
aVgraduate
p33
aVunderstand
p34
aVseeking dream
p35
aVambition.and achieving
p36
aVnew grad
p37
aV-
aVdata scientist
p38
aVworking
p39
aVmodeling
p40
aVvisualization
p41
aVarchitect
p42
aVdesign build
p43
aVsupport
p44
aVdata
p45
aVarchitecture
p46
aVhigh resolution
p47
aVtemporal
p48
aVdata
p49
aVnetwork
p50
aVcomponent
p51
aVsupport
p52
aVbusiness
p53
aVtechnical
p54
aVplanning decision-making
p55
aVparameterization abstraction
p56
aVuse
p57
aVdata-driven
p58
aVmethodology discover
p59
aVdevelop
p60
aVabstract key
p61
aVfinancial
p62
aVmetric
p63
aVacross multiple
p64
aVbusiness
p65
aVmodel
p66
aVmarket segment
p67
aVsupport
p68
aVopportunity
p69
aVevaluation tradespace
p70
aVincluding
p71
aVevaluation alternate
p72
aVbusiness
p73
aVmodel
p74
aVfuture scenario
p75
aVintegration
p76
aVsupport
p77
aVdevelop
p78
aVsupport
p79
aVuse case
p80
aVleverage
p81
aVtool developed
p82
aVexisting
p83
aVbusiness
p84
aVoperation demonstrating
p85
aVvalue
p86
aVvia immediate
p87
aVfinancial
p88
aVlong term
p89
aVstrategic
p90
aVimpact
p91
aVrequirement
p92
aVmaster degree
p93
aVdoctor philosphy
p94
aVdegree
p95
aVdiscipline requiring
p96
aVstrong
p97
aVmathematics
p98
aVstatistical method
p99
aVexperience
p100
aVbig data
p101
aVtechnology
p102
aVhadoop pig
p103
aVhive
p104
aVkudu
p105
aVimpala spark
p106
aV...
p107
aVsolid background
p108
aVmachine learning
p109
aVstatistical analysis
p110
aVsoftware development
p111
aVclustering algorithm
p112
aVability travel
p113
aV10
p114
aVpreference
p115
aVexperience developing
p116
aVsoftware
p117
aVjava python
p118
aVc++
p119
aVhigh level
p120
aVlanguage
p121
aVviasat eeo
p122
aVaa disability
p123
aVprotected veteran
p124
aVemployer
p125
aVu.s. citizenship
p126
aVlawful permanent
p127
aVresidence status
p128
aVmay required
p129
aVcertain position
p130
aVposition requiring
p131
aVu.s. citizenship
p132
aVlawful permanent
p133
aVresident status
p134
aVverification status
p135
aVrequired
p136
aVupon accepting
p137
aVemployment
p138
a.