(lp1
Vunlock career
p2
aVpotential technology
p3
aVadp enjoy
p4
aVexploring identifying
p5
aVinspiring future
p6
aVworkplace life
p7
aVmillion people
p8
aVadp world's
p9
aVlargest b2b
p10
aVcloud company
p11
aVtechnology
p12
aVteam comprised
p13
aVbrilliant engineer
p14
aVarchitect data
p15
aVscientist infrastructure
p16
aVexpert first
p17
aVindustry offer
p18
aVsaas solution
p19
aVcontinue push
p20
aVenvelope utilizing
p21
aVlatest operating
p22
aVplatform deliver
p23
aVhighly automated
p24
aVintelligent predictive
p25
aVsolution redefining
p26
aVpossible named
p27
aVone forbes'
p28
aVinnovative company
p29
aVone computerworld's
p30
aV100 best
p31
aVplace work
p32
aVcommitted leading
p33
aVway product
p34
aVdevelopment research
p35
aVempowering bring
p36
aVlife latest
p37
aVinnovation forever
p38
aVchange way
p39
aVbusiness manage
p40
aVvital asset
p41
aVemployee
p42
aVposition summary
p43
aVjoin team
p44
aVtalented software
p45
aVengineer
p46
aVplan execute
p47
aVdeliver top
p48
aVquality
p49
aVsoftware
p50
aVdeliverable on-time
p51
aVwork closely
p52
aVproduct
p53
aVdefine implement
p54
aVimprove
p55
aVuser experience
p56
aVqualifcations required
p57
aVb.s. computer
p58
aVscience engineering
p59
aVequivalent
p60
aVdegree required
p61
aVminimum 7+
p62
aVyear
p63
aVsoftware engineering
p64
aVexperience
p65
aVplus 3+
p66
aVyear
p67
aVfront end
p68
aVengineering
p69
aVexperience
p70
aVexperience working
p71
aVproduct management
p72
aVarchitect
p73
aVstakeholder
p74
aVexperience
p75
aVfront end
p76
aVmvc framework
p77
aVangularjs d3
p78
aVj nodejs
p79
aVexperience
p80
aVcreating re-usuable
p81
aVui component
p82
aVexperience
p83
aVfull
p84
aVsoftware life-cycle
p85
aVsdlc -
p86
aVdevelop test
p87
aVbuild deploy
p88
aVetc
p89
aVexperience
p90
aVresponsive design
p91
aVspa single
p92
aVpage application
p93
aVdevelopment
p94
aVexperience version
p95
aVcontrol ie
p96
aVgit
p97
aVetc
p98
aVexperience
p99
aVagile methodology
p100
aVexperience restful
p101
aVapis webservices
p102
aV-
aVdefine drive
p103
aVrequirement
p104
aVexperience
p105
aVcore java
p106
aVjava servlets
p107
aVexperience
p108
aVbuild tool
p109
aVlike ant
p110
aVmaven
p111
aVexperience
p112
aVdelivering scalable
p113
aVrobust web
p114
aVapplication
p115
aVlarge
p116
aVcustomer base
p117
aVadptech
p118
a.