(lp1
Vunlock career
p2
aVpotential technology
p3
aVadp enjoy
p4
aVexploring identifying
p5
aVinspiring future
p6
aVworkplace life
p7
aVmillion people
p8
aVadp world's
p9
aVlargest b2b
p10
aVcloud company
p11
aVtechnology
p12
aVteam comprised
p13
aVbrilliant engineer
p14
aVarchitect data
p15
aVscientist infrastructure
p16
aVexpert first
p17
aVindustry offer
p18
aVsaas solution
p19
aVcontinue push
p20
aVenvelope utilizing
p21
aVlatest operating
p22
aVplatform deliver
p23
aVhighly automated
p24
aVintelligent predictive
p25
aVsolution redefining
p26
aVpossible named
p27
aVone forbes'
p28
aVinnovative company
p29
aVone computerworld's
p30
aV100 best
p31
aVplace work
p32
aVcommitted leading
p33
aVway product
p34
aVdevelopment research
p35
aVempowering bring
p36
aVlife latest
p37
aVinnovation forever
p38
aVchange way
p39
aVbusiness manage
p40
aVvital asset
p41
aVemployee
p42
aVposition summary
p43
aVconfiguration management
p44
aVperformance
p45
aVengineering team
p46
aVlooking
p47
aVsolution architect
p48
aVhand experience
p49
aVmanaging
p50
aVcloud native
p51
aVapplication
p52
aVdesigning viable
p53
aVcontinuous integration
p54
aVcontinuous delivery
p55
aVpipeline using
p56
aVindustry standard
p57
aVtoolsets
p58
aVstrive every
p59
aVinteraction driven
p60
aVcore value
p61
aVinsightful expertise
p62
aVintegrity everything
p63
aVservice excellence
p64
aVinspiring innovation
p65
aVperson count
p66
aVresults-driven social
p67
aVresponsibility
p68
aVresponsibility
p69
aV-
aVarchitect continuous
p70
aVintegration loop
p71
aVusing
p72
aVindustry standard
p73
aVtool git
p74
aVjenkins docker
p75
aVmaven sonarcube
p76
aVblackduck nexus
p77
aVetc
p78
aV-
aVsolution
p79
aVensure
p80
aVcode quality
p81
aVmeasurable risk
p82
aVdeviation known
p83
aVbaseline
p84
aV-
aVarchitect continuous
p85
aVdelivery pipeline
p86
aVusing
p87
aVindustry standard
p88
aVtool git
p89
aVjenkins ansible
p90
aVterraform cloudformation
p91
aVetc
p92
aV-
aVsolution
p93
aVensure
p94
aV100 uptime
p95
aVusing blue
p96
aVgreen b
p97
aVdeployment
p98
aVstrategy
p99
aV-
aVarchitect fault
p100
aVtolerant self-healing
p101
aVcloud deployment
p102
aVusing
p103
aVindustry standard
p104
aVcloud provider
p105
aVwell on-prem
p106
aViaa offering
p107
aV-
aVsolution
p108
aVinclude monitoring
p109
aVaudit trail
p110
aVnotification process
p111
aVusing
p112
aVindustry standard
p113
aVtool appdynamics
p114
aVca wily
p115
aVsitescope cloud
p116
aVwatch cloud
p117
aVtrail etc
p118
aV-
aVarchitect
p119
aVcloud
p120
aVsolution
p121
aVcloud provider
p122
aVagnostic implement
p123
aVinfrastructure
p124
aVcode
p125
aVstrategy
p126
aVenvironment
p127
aVbuild
p128
aVusing terraform
p129
aVcloudformation ansible
p130
aV-
aVarchitect scm
p131
aVbranching strategy
p132
aVspecifically related
p133
aVgit workflow
p134
aV-
aVdesign
p135
aVsingle click
p136
aVenvironment
p137
aVbuild
p138
aVinclude post
p139
aVverification automated
p140
aVtesting
p141
aVqualification
p142
aV-
aVbachelor's
p143
aVmaster degree
p144
aVcomputer science
p145
aVpreferred
p146
aV-
aV5+ year
p147
aVexperience
p148
aVdevops engineer
p149
aVsolution
p150
aVengineer hand
p151
aVworking
p152
aVexperience
p153
aVfollowing
p154
aVci cd
p155
aVtool
p156
aVcluster compute
p157
aV- docker
p158
aVmesos marathon
p159
aVkube
p160
aVcloud provider
p161
aV-
aVaws google
p162
aVcloud
p163
aVapplication server
p164
aVservlet container
p165
aVtomcat administration
p166
aVunix
p167
aVsystem administration
p168
aVshell scripting
p169
aVwsadmin jython
p170
aVscripting
p171
aVjava
p172
aVapplication
p173
aVtroubleshooting
p174
aVservice
p175
aVintegration soa
p176
aVknowledge
p177
aV- mq
p178
aVwebservices service
p179
aVintegration bus
p180
aVwmb
p181
aVrelease
p182
aVchange management
p183
aVknowledge
p184
aVperformance
p185
aVresource monitoring
p186
aVtool wily
p187
aVintroscope suite
p188
aVdyna trace
p189
aVsitescope
p190
aVbuild automation
p191
aVhudson jenkins
p192
aVbuild
p193
aVscripting ant
p194
aVmaven
p195
aVwebtier knowledge
p196
aVloadbalancers layer7
p197
aVapache
p198
aVjava programming
p199
aVknowledge
p200
aVvirtualization vmware
p201
aVz o
p202
aVdb build
p203
aVpackaging -
p204
aVsql scripting
p205
a.