(lp1
Vnovetta focus
p2
aVthree core
p3
aVarea
p4
aVcyber entity
p5
aVmulti-int analytics
p6
aVproduct
p7
aVfocused processing
p8
aVanalyzing vast
p9
aVamount data
p10
aVcore
p11
aVarea
p12
aVservice
p13
aVfocused helping
p14
aVcustomer
p15
aVmove complexity
p16
aVclarity
p17
aVnovetta difference
p18
aVinterdisciplinary expertise
p19
aVenables u
p20
aVsolve
p21
aVcustomer
p22
aVcomplex problem
p23
aVcombination smart
p24
aVpeople fresh
p25
aVapproach
p26
aVfocused inspiration
p27
aVdomain subject-matter
p28
aVexpertise
p29
aVagile flexible
p30
aVsolution
p31
aVsoftware operates
p32
aVscale speed
p33
aVculture
p34
aVchallenge
p35
aVcontinuous learning
p36
aVnovetta bridge
p37
aVgap
p38
aVcustomer
p39
aVthink aspire
p40
aVachieve
p41
aVculture shaped
p42
aVcommitment core
p43
aVvalue
p44
aVintegrity
p45
aVcustomer
p46
aVmission
p47
aVsuccess
p48
aVemployee
p49
aVfocus
p50
aVinnovation
p51
aVposition description
p52
aVnovettais
p53
aVseeking data
p54
aVengineer
p55
aVdata scientist
p56
aVinterested
p57
aVcreating
p58
aVscalable etl
p59
aVsolution
p60
aVandsolving
p61
aVanalytical
p62
aVchallenge
p63
aVpart team
p64
aVdedicated professional
p65
aVsolving
p66
aVcustomers'
p67
aVchallenging problem
p68
aVrole
p69
aVcreate scalable
p70
aVetl
p71
aVsearch
p72
aVapplication
p73
aVfocused
p74
aVsemantic analysis
p75
aVidentify
p76
aVimportant interesting
p77
aVquestion
p78
aVsurrounding
p79
aVcustomer's
p80
aVchallenge
p81
aVtranslate question
p82
aVconcrete analytical
p83
aVtask
p84
aVassemble
p85
aVrefine
p86
aVscalable
p87
aVextract transform
p88
aVload etl
p89
aVpipeline novel
p90
aVapplication
p91
aVdevelop
p92
aVstrategy
p93
aVextract
p94
aVresolve
p95
aVunify
p96
aVinformation
p97
aVvarious type
p98
aVnumerous disparate
p99
aVdata source
p100
aVorganize
p101
aVminemassive
p102
aVdata set
p103
aVstructured unstructured
p104
aVdata
p105
aVprovide thought-leadership
p106
aVarea
p107
aVanalytics
p108
aVdata science
p109
aVbasic qualification
p110
aV3+ year
p111
aVexperience
p112
aVsystem
p113
aVsoftware
p114
aVsolution
p115
aVdevelopment delivery
p116
aVmaster degree
p117
aVhigher quantitative
p118
aVcomputational
p119
aVfocus
p120
aVcomputer science
p121
aVcomputationallinguistics math
p122
aVphysic statistic
p123
aVcomputer science
p124
aVengineering economics
p125
aVoperation research
p126
aVsimilar
p127
aVprior experience
p128
aVstatistical
p129
aVtopic modeling
p130
aVdata mining
p131
aVmachine learning
p132
aVtechnology
p133
aVlinux
p134
aVpython r
p135
aVmatlab pig
p136
aVsql
p137
aVjava scala
p138
aVc++
p139
aVfamiliarity apache
p140
aVhadoop ecosystem
p141
aVversion control
p142
aVsystem git
p143
aVdesired skill
p144
aVinterest
p145
aVlatent
p146
aVsemantic analysis
p147
aVnatural language
p148
aVprocessing
p149
aVpredictive prescriptive
p150
aVmodelling
p151
aVstatistical analysis
p152
aVhypothesis testing
p153
aVexperience
p154
aVdelivering
p155
aVbig data
p156
aVsolution
p157
aVapplication development
p158
aVsystem administration
p159
aVengineering
p160
aVtechnical discipline
p161
aVcommercial government
p162
aVcloud
p163
aVsolution
p164
aVaws
p165
aVopenstack
p166
aVetc
p167
aVdevops configuration
p168
aVmanagement
p169
aVapplication
p170
aVdeployment
p171
aVetc
p172
aVcomfortable
p173
aVrecommending
p174
aVstrategy
p175
aVdesign implementation
p176
aVdevelopment
p177
aVprocess
p178
aVsetting
p179
aVcustomer
p180
aVteam
p181
aVexpectation
p182
aVregard
p183
aVproject timeline
p184
aValgorithm
p185
aVdevelopment
p186
aVsecurity clearance
p187
aVmust active
p188
aVu
aVgovernmentsecret
p189
aVclearance
p190
aVget referral
p191
aVbonusfor great
p192
aVpeople
p193
aVknow amazing
p194
aVreferral program
p195
aVcould eligible
p196
aVwin outstanding
p197
aVreward referring
p198
aVqualified
p199
aVnew hire
p200
aVnovetta
p201
aVnovetta equal
p202
aVopportunity affirmative
p203
aVaction employer
p204
aVqualified applicant
p205
aVreceive consideration
p206
aVemployment without
p207
aVregard sex
p208
aVgender identity
p209
aVsexual orientation
p210
aVrace color
p211
aVreligion national
p212
aVorigin disability
p213
aVprotected veteran
p214
aVstatus age
p215
aVcharacteristic protected
p216
aVlaw
p217
a.