(lp1
Vexpedia
p2
aVexcited
p3
aVsolving real
p4
aVworld
p5
aVproblem
p6
aVadvanced
p7
aVmachine learning
p8
aVmethod
p9
aVexpedia
p10
aVlooking
p11
aVmachine learning
p12
aVscientist
p13
aVpractitioner
p14
aVjoin
p15
aVcore
p16
aVdata science
p17
aVteam
p18
aVbuild
p19
aVdata centric
p20
aVfeature
p21
aVexpedia
p22
aVwebsite
p23
aVexpedia
p24
aVtravelocity
p25
aVorbitz
p26
aVwotif
p27
aVothers
p28
aVmission
p29
aVspan many
p30
aVarea
p31
aVcore
p32
aVbusiness
p33
aVincluding
p34
aVsearch
p35
aVsort
p36
aVreferral
p37
aVmarketing
p38
aVrevenue management
p39
aVgeography
p40
aVwork
p41
aVimpact
p42
aVmillion customer
p43
aVdirect impact
p44
aVbusiness
p45
aVresult
p46
aVmain focus
p47
aVjob
p48
aVdeveloping
p49
aVstate art
p50
aVmachine learning
p51
aValgorithm
p52
aVpower
p53
aVhighly complex
p54
aVglobal
p55
aVmarketing campaign
p56
aVinclude
p57
aVsearch engine
p58
aVmarketing
p59
aVretargeting
p60
aVbrand advertising
p61
aVchallenge
p62
aVinclude
p63
aVderiving value
p64
aVsparse
p65
aVdata
p66
aVunderstanding
p67
aVparticipating
p68
aVlarge scale
p69
aVauction
p70
aVleveraging
p71
aVbehavioral
p72
aVdata
p73
aVsegmentation
p74
aVpersonalization
p75
aVexpedia
p76
aVdeep
p77
aVrich data
p78
aVset
p79
aVmany
p80
aVstill
p81
aVuntapped
p82
aVpassion
p83
aVcraft
p84
aVstatistic machine
p85
aVlearning
p86
aVpower
p87
aVunlock
p88
aVtangible growth
p89
aVbusiness
p90
aVlooking someone
p91
aVhand experience
p92
aVbuilding
p93
aVmachine learning
p94
aVmodel
p95
aVeither academic
p96
aVindustrial setting
p97
aVadvanced degree
p98
aVphd preferred
p99
aVmachine learning
p100
aVcomputer science
p101
aVquantitative discipline
p102
aVapplicant
p103
aVoutside
p104
aVmachine learning
p105
aVfield
p106
aVexpected
p107
aVdemonstrate
p108
aVequivalent
p109
aVknowledge
p110
aVdone
p111
aVwell
p112
aVkaggle competition
p113
aVespecially
p114
aVgiven
p115
aVspecial
p116
aVconsideration
p117
aVresponsibility
p118
aVunderstand
p119
aVbusiness problem
p120
aVidentify key
p121
aVchallenge formulate
p122
aVmachine learning
p123
aVproblem
p124
aVprovide
p125
aVprototype
p126
aVsolution
p127
aVable
p128
aVdebug
p129
aVcorrect
p130
aVdata
p131
aVassumption
p132
aVab testing
p133
aVdocument
p134
aVtechnical detail
p135
aVwork
p136
aVcollaborate brainstorm
p137
aVteam member
p138
aVass
p139
aVmethodological
p140
aVfunctional
p141
aVpro con
p142
aVimplementing
p143
aVthird-party product
p144
aVversus
p145
aVbuilding
p146
aVin-house
p147
aVsystem
p148
aVfacing
p149
aVbusiness problem
p150
aVcollaborate extensively
p151
aVstakeholder
p152
aVprogram
p153
aVmanagement
p154
aVsoftware development
p155
aVteam member
p156
aVensure
p157
aVsolution meet
p158
aVbusiness need
p159
aVpermit
p160
aVvalid
p161
aVinference
p162
aVfunctional
p163
aVfeasibility
p164
aVideal candidate
p165
aVstrong communication
p166
aVskill
p167
aVwritten oral
p168
aVpassion solving
p169
aVreal world
p170
aVmachine learning
p171
aVproblem
p172
aVphd
p173
aVone
p174
aVmachine learning
p175
aVrelated field
p176
aVdeep learning
p177
aVgraphical
p178
aVmodeling nlp
p179
aVlearning rank
p180
aVdata mining
p181
aVweb
p182
aVmining
p183
aVstrong programming
p184
aVskill
p185
aVleast
p186
aVefficient
p187
aVone
p188
aVlow level
p189
aVlanguage c++
p190
aVjava
p191
aVone scripting
p192
aVlanguage python
p193
aVr
aVscalar
p194
aVexperience
p195
aVdistributed computing
p196
aVhadoop spark
p197
aV3-5 years'
p198
aVexperience working
p199
aVreal
p200
aVdata
p201
aVdata cleaning
p202
aVdata visualization
p203
aVmodeling
p204
aVexpedia
p205
aVcommitted creating
p206
aVinclusive
p207
aVwork environment
p208
aVdiverse workforce
p209
aVqualified applicant
p210
aVreceive consideration
p211
aVemployment without
p212
aVregard race
p213
aVcolor religion
p214
aVgender gender
p215
aVidentity expression
p216
aVsexual orientation
p217
aVnational origin
p218
aVgenetics disability
p219
aVage veteran
p220
aVstatus
p221
aVemployer participates
p222
aVe-verify employer
p223
aVprovide
p224
aVsocial security
p225
aVadministration ssa
p226
aVnecessary department
p227
aVhomeland security
p228
aVdhs information
p229
aVnew employee's
p230
aVi-9 confirm
p231
aVwork authorization
p232
a.