(lp1
Vairbnb
p2
aVredefining
p3
aVworld's
p4
aVapproach
p5
aVaccommodation
p6
aVtravel
p7
aVcreating
p8
aVhighly
p9
aVlocal
p10
aVpersonal
p11
aVmeaningful
p12
aVexperience
p13
aVhost guest
p14
aVcommunity
p15
aVaround world
p16
aVdevelop
p17
aVproduct
p18
aVcreate
p19
aVtransformational
p20
aVexperience
p21
aVguest
p22
aVmillion
p23
aVtime
p24
aVweek
p25
aVairbnb
p26
aVcutting edge
p27
aVproduct development
p28
aVhost
p29
aVopening
p30
aVhome
p31
aVtraveler
p32
aVaround world
p33
aVproduct
p34
aVmake possible
p35
aVlean
p36
aVteam
p37
aVproduct manager
p38
aVguide
p39
aVteam
p40
aVengineer designer
p41
aVdata scientist
p42
aVship product
p43
aVdrive business
p44
aVforward
p45
aVrequirement
p46
aVbasic
p47
aVvision
p48
aVroadmapping
p49
aVgoal setting
p50
aVspec
p51
aVwriting
p52
aVmanaging
p53
aVproject execution
p54
aVb testing
p55
aVui ux
p56
aVwireframing
p57
aVdefining
p58
aVproduct roll-out
p59
aVstrategy
p60
aVanalytics
p61
aVproven
p62
aVexperience
p63
aVpassion building
p64
aVgreat
p65
aVproduct
p66
aVmultiple
p67
aVsuccessful
p68
aVproduct launch
p69
aVbelt
p70
aVgotten
p71
aVhand dirty
p72
aVshipping
p73
aVfeature
p74
aVacross various
p75
aVplatform io
p76
aVandroid web
p77
aV5+ year
p78
aVconsumer internet
p79
aVproduct management
p80
aVexperience
p81
aVtype
p82
aVperson
p83
aVinnovative thinking
p84
aVpaired strong
p85
aVexecution
p86
aV-
aVenvision
p87
aVworld
p88
aVdifferent
p89
aVstatus quo
p90
aVability articulate
p91
aVclear path
p92
aVget
p93
aVself-motivated
p94
aVexcellent written
p95
aVverbal communication
p96
aVskill
p97
aVcreative problem
p98
aVsolver
p99
aV-
aVable
p100
aVidentify
p101
aVreal
p102
aVobstacle
p103
aVviable
p104
aVsolution
p105
aVhesitant
p106
aVget hand
p107
aVdirty
p108
aVwhatever necessary
p109
aVensure success
p110
aVoutcome
p111
aVoriented
p112
aV-
aVreactionary
p113
aVarticulate
p114
aVdesired outcome
p115
aVwork collaboratively
p116
aVcreate
p117
aVpath achieve
p118
aVhighly technical
p119
aVdata
p120
aVdriven
p121
aVhumble
p122
aVpassion
p123
aVmust
p124
aVgreat
p125
aVunderstanding
p126
aVempathy
p127
aVairbnb customer
p128
aVmust
p129
aVairbnb customer
p130
aVadvocate
p131
aVrigorous
p132
aV-
aVasks
p133
aVhard question
p134
aVvalidates
p135
aVassumption
p136
aVconnects
p137
aVdot
p138
aVpassion
p139
aVgreat
p140
aVdesign
p141
aVknow
p142
aVwork doesn't
p143
aVmust
p144
aVtraveled
p145
aVguest
p146
aVairbnb
p147
aVcurrent
p148
aVhost
p149
aVmajor plus
p150
aVpreferred
p151
aVexperience
p152
aVlanguage
p153
aVused querying
p154
aVe.g.
p155
aVhive pig
p156
aVsql
p157
aVplus
p158
aVformer
p159
aVengineer designer
p160
aVstartup founder
p161
aVapply
p162
a.