(lp1
Vmclean 1
p2
aV19050 united
p3
aVstate america
p4
aVmclean virginia
p5
aVcapital one
p6
aVwe're building
p7
aVleading information-based
p8
aVtechnology
p9
aVcompany still
p10
aVfounder-led chairman
p11
aVchief executive
p12
aVofficer richard
p13
aVfairbank capital
p14
aVone mission
p15
aVhelp customer
p16
aVsucceed bringing
p17
aVingenuity simplicity
p18
aVhumanity banking
p19
aVmeasure effort
p20
aVsuccess customer
p21
aVenjoy advocacy
p22
aVexhibit succeeding
p23
aVsucceeding
p24
aVguided shared
p25
aVvalue thrive
p26
aVenvironment collaboration
p27
aVopenness valued
p28
aVbelieve innovation
p29
aVpowered perspective
p30
aVteamwork respect
p31
aVlead superior
p32
aVresult elevate
p33
aVob right
p34
aVthing associate
p35
aVserve humility
p36
aVdeep respect
p37
aVresponsibility helping
p38
aVcustomer achieve
p39
aVgoal realize
p40
aVdream together
p41
aVquest change
p42
aVbanking good
p43
aVsenior manager
p44
aVdata scientist
p45
aVmachine learning
p46
aVartificial intelligence
p47
aVtech college
p48
aVcapital one
p49
aVdata
p50
aVcenter everything
p51
aVlaunched startup
p52
aVdisrupted credit
p53
aVcard industry
p54
aVindividually personalizing
p55
aVevery credit
p56
aVcard offer
p57
aVusing statistical
p58
aVmodeling relational
p59
aVdatabase cutting
p60
aVedge technology
p61
aV1988 fast-forward
p62
aVyear little
p63
aVinnovation passion
p64
aVdata skyrocketed
p65
aVu fortune
p66
aV200 company
p67
aVleader world
p68
aVdata-driven decision-making
p69
aVdata scientist
p70
aVcapital one
p71
aVyou'll part
p72
aVteam that's
p73
aVleading next
p74
aVwave disruption
p75
aVwhole new
p76
aVscale using
p77
aVlatest
p78
aValgorithm
p79
aVdistributed computing
p80
aVtechnology operating
p81
aVacross billion
p82
aVbillion customer
p83
aVtransaction unlock
p84
aVbig
p85
aVopportunity
p86
aVhelp everyday
p87
aVpeople save
p88
aVmoney time
p89
aVagony financial
p90
aVlife
p91
aVmember
p92
aVmachine learning
p93
aVartificial intelligence
p94
aVdiscipline
p95
aVcapital one's
p96
aVtech college
p97
aVyou'll part
p98
aVteam responsible
p99
aVcurating designing
p100
aVdeveloping delivering
p101
aVhighly engaging
p102
aVlearning
p103
aVexperience
p104
aVfuel growth
p105
aVtech company
p106
aVhelp
p107
aVassociate
p108
aVdevelop
p109
aVcutting-edge
p110
aVskill
p111
aVmachine learning
p112
aVartificial intelligence
p113
aVgiven day
p114
aVyou'll
p115
aVusing big
p116
aVdata
p117
aVtool hadoop
p118
aVspark h2o
p119
aVaws conduct
p120
aVanalysis billion
p121
aVcustomer transaction
p122
aVrecord
p123
aVorder find
p124
aVwork doesn't
p125
aVapplication
p126
aVcreating curating
p127
aVeducational content
p128
aVhelp
p129
aVcapital one
p130
aVpeer stay
p131
aVtop latest
p132
aVmachine learning
p133
aVartificial intelligence
p134
aVtool technique
p135
aVteaching class
p136
aVholding office
p137
aVhour
p138
aVsupport others'
p139
aVlearning
p140
aVwriting software
p141
aVclean investigate
p142
aVlarge messy
p143
aVdata set
p144
aVnumerical textual
p145
aVdata
p146
aVintegrating external
p147
aVdata source
p148
aVapis discover
p149
aVinteresting trend
p150
aVbuilding
p151
aVmachine learning
p152
aVmodel
p153
aVdevelopment testing
p154
aVvalidation 30+
p155
aVmillion customer
p156
aVproduction
p157
aVdesigning rich
p158
aVdata visualization
p159
aVcommunicate complex
p160
aVidea customer
p161
aVcompany leader
p162
aVinvestigating impact
p163
aVnew technology
p164
aVfuture digital
p165
aVbanking financial
p166
aVworld tomorrow
p167
aVideal candidate
p168
aVcurious ask
p169
aVexplore you're
p170
aVafraid blurt
p171
aVdisruptive idea
p172
aVprobably know
p173
aVpython scala
p174
aVr you're
p175
aVconstantly exploring
p176
aVnew open
p177
aVsource tool
p178
aVcommunicative you'll
p179
aVsharing know
p180
aVothers
p181
aVform paper
p182
aVon-line class
p183
aVblog post
p184
aVin-person class
p185
aVwrangler know
p186
aVprogrammatically extract
p187
aVdata
p188
aVdatabase api
p189
aVbring transformation
p190
aVtwo model
p191
aVhuman-readable form
p192
aVroc curve
p193
aVmap d3
p194
aVvisualization tableau
p195
aVetc
p196
aVcreative big
p197
aVundefined problem
p198
aVpetabyte data
p199
aVdon't frighten
p200
aVyou're used
p201
aVworking abstract
p202
aVdata
p203
aVlove discovering
p204
aVnew narrative
p205
aVunmined territory
p206
aVtwenty-five year
p207
aVcapital one
p208
aVstarted it's
p209
aVstill led
p210
aVfounder ready
p211
aVjoin community
p212
aVsmartest people
p213
aVyou've ever
p214
aVmet see
p215
aVcustomer first
p216
aVwant use
p217
aVdata
p218
aVskill
p219
aVmake difference
p220
aVbasic qualification
p221
aVbachelor's degree
p222
aVmilitary experience
p223
aVleast 3
p224
aVyears' experience
p225
aVopen source
p226
aVprogramming language
p227
aVlarge scale
p228
aVdata
p229
aVanalysis
p230
aVleast 3
p231
aVyears' experience
p232
aVmachine learning
p233
aVleast 3
p234
aVyears' experience
p235
aVrelational database
p236
aVpreferred qualification
p237
aVmaster's degree
p238
aVphd
p239
aVleast 1
p240
aVyear experience
p241
aVteaching
p242
aVtechnical topic
p243
aVleast 1
p244
aVyear experience
p245
aVcreating
p246
aVlearning
p247
aVmaterial
p248
aVleast 1
p249
aVyear experience
p250
aVworking aws
p251
aVazure google
p252
aVcloud
p253
aVsimilar
p254
aVsolution
p255
aVleast 5
p256
aVyears' experience
p257
aVpython scala
p258
aVr
aVlarge scale
p259
aVanalysis
p260
aVleast 5
p261
aVyears' experience
p262
aVmachine learning
p263
aVcapital one
p264
aVconsider sponsoring
p265
aVnew qualified
p266
aVapplicant employment
p267
aVauthorization position
p268
aVtbli
p269
aVagency please
p270
aVcapital one
p271
aVequal opportunity
p272
aVemployer committed
p273
aVdiversity workplace
p274
aVqualified applicant
p275
aVreceive consideration
p276
aVemployment without
p277
aVregard sex
p278
aVrace color
p279
aVage national
p280
aVorigin religion
p281
aVphysical mental
p282
aVdisability genetic
p283
aVinformation marital
p284
aVstatus sexual
p285
aVorientation gender
p286
aVidentity assignment
p287
aVcitizenship pregnancy
p288
aVmaternity protected
p289
aVveteran status
p290
aVstatus prohibited
p291
aVapplicable national
p292
aVfederal state
p293
aVlocal law
p294
aVcapital one
p295
aVpromotes drug-free
p296
aVworkplace capital
p297
aVone consider
p298
aVemployment qualified
p299
aVapplicant criminal
p300
aVhistory manner
p301
aVconsistent requirement
p302
aVapplicable law
p303
aVregarding criminal
p304
aVbackground inquiry
p305
aVincluding extent
p306
aVapplicable article
p307
aV23-a new
p308
aVyork correction
p309
aVlaw san
p310
aVfrancisco california
p311
aVpolice code
p312
aVarticle 49
p313
aVsection 4901-4920
p314
aVnew york
p315
aVcity's fair
p316
aVchance act
p317
aVphiladelphia's fair
p318
aVcriminal record
p319
aVscreening act
p320
aVapplicable federal
p321
aVstate local
p322
aVlaw regulation
p323
aVregarding criminal
p324
aVbackground inquiry
p325
aVrequire accommodation
p326
aVapply job
p327
aVperform job
p328
aVplease contact
p329
aVcapital one
p330
aVrecruiting 1-800-304-9102
p331
a.