(lp1
V1750 tyson
p2
aV12023 united
p3
aVstate america
p4
aVmclean virginia
p5
aVcapital one
p6
aVwe're building
p7
aVleading information-based
p8
aVtechnology
p9
aVcompany still
p10
aVfounder-led chairman
p11
aVchief executive
p12
aVofficer richard
p13
aVfairbank capital
p14
aVone mission
p15
aVhelp customer
p16
aVsucceed bringing
p17
aVingenuity simplicity
p18
aVhumanity banking
p19
aVmeasure effort
p20
aVsuccess customer
p21
aVenjoy advocacy
p22
aVexhibit succeeding
p23
aVsucceeding
p24
aVguided shared
p25
aVvalue thrive
p26
aVenvironment collaboration
p27
aVopenness valued
p28
aVbelieve innovation
p29
aVpowered perspective
p30
aVteamwork respect
p31
aVlead superior
p32
aVresult elevate
p33
aVob right
p34
aVthing associate
p35
aVserve humility
p36
aVdeep respect
p37
aVresponsibility helping
p38
aVcustomer achieve
p39
aVgoal realize
p40
aVdream together
p41
aVquest change
p42
aVbanking good
p43
aVsr associate
p44
aVdigital
p45
aVproduct management
p46
aVconsumer bank
p47
aVwe've combined
p48
aVhuman-centered design
p49
aVheritage data-driven
p50
aVdecision-making
p51
aVdesign build
p52
aVtest
p53
aVway truly
p54
aVenabling financial
p55
aVexperience
p56
aVwe've challenged
p57
aVspend le
p58
aVtime
p59
aVplanning time
p60
aVelse see
p61
aVworld eye
p62
aVcustomer
p63
aVwork
p64
aVunderstand
p65
aVmanage money
p66
aVwant change
p67
aVway world
p68
aVinteracts money
p69
aVopinion whether
p70
aVshipping important
p71
aVperfection geeked
p72
aVpossibility blockchain
p73
aVstorm
p74
aVnew
p75
aVpayment platform
p76
aVfit
p77
aVtogether
p78
aVlately
p79
aVwant
p80
aVsenior associate
p81
aVfocusing consumer
p82
aVbank
p83
aVnew
p84
aVcustomer
p85
aVgrowth
p86
aVproduct
p87
aVyou'll joining
p88
aVpassionate
p89
aVteam
p90
aVproduct manager
p91
aVengineer analyst
p92
aVdesigner
p93
aVworking
p94
aVhack
p95
aVconversion funnel
p96
aVfundamentally
p97
aVshift
p98
aVmindset
p99
aVcustomer
p100
aVenter
p101
aVfranchise
p102
aVsolve complex
p103
aVproblem
p104
aVdata revel
p105
aVmaking significant
p106
aVimpact ever
p107
aVevolving competitive
p108
aVlandscape
p109
aVgiven day
p110
aVbank
p111
aVyou'll
p112
aVempowered owning
p113
aVsuccess
p114
aVlife cycle
p115
aVidentity
p116
aVtokenization
p117
aVenrollment
p118
aVsetting strategy
p119
aVdriving towards
p120
aVimprovement kpis
p121
aVlearning
p122
aVconstantly
p123
aVwork
p124
aVdeeply technologist
p125
aVdata scientist
p126
aVbuilding
p127
aVcutting edge
p128
aVsolution
p129
aVspeed decisioning
p130
aVreal-time
p131
aVadvanced
p132
aVmodeling technique
p133
aVkeep
p134
aVbad guy
p135
aVcreating
p136
aVfrictionless
p137
aVexperience
p138
aVvalued
p139
aVcustomer
p140
aVinnovating relentlessly
p141
aVyou'll
p142
aVpush
p143
aVbig
p144
aVchange starting
p145
aVsmall
p146
aVtesting
p147
aVlearning
p148
aVway something
p149
aVnew
p150
aVright
p151
aVcombination
p152
aVoff-the-shelf
p153
aVhomegrown
p154
aVtechnology
p155
aVprotect
p156
aVcustomer
p157
aVsharing openly
p158
aVyou'll
p159
aVempathize
p160
aVtell story
p161
aVchange way
p162
aVpeople think
p163
aVbuilding
p164
aVproduct
p165
aVsolving problem
p166
aVillustrate power
p167
aVsoftware
p168
aVmake even
p169
aVbetter
p170
aVconnecting creatively
p171
aVjumpstarting self-supporting
p172
aVcommunity sowing
p173
aVright seed
p174
aVbuilding
p175
aVright tool
p176
aVintegrating right
p177
aVoff-the-shelf product
p178
aVplain elbow
p179
aVgrease
p180
aVsucceeding strategically
p181
aVsolving
p182
aVright
p183
aVproblem holding
p184
aVwrong one
p185
aVgetting big
p186
aVstarting small
p187
aVbring table
p188
aVcurious ask
p189
aVexplore you're
p190
aVafraid blurt
p191
aVcrazy idea
p192
aVfollow email
p193
aVchain week
p194
aVfind someone
p195
aVanswer
p196
aVdo-er bias
p197
aVtoward action
p198
aVtry thing
p199
aVsometimes fail
p200
aVdug hidden
p201
aVfeature api
p202
aVlet something
p203
aVreally cool
p204
aVstarted company
p205
aVmeme lasted
p206
aVmonth
p207
aVpassionate care
p208
aVgrowing others
p209
aVbringing together
p210
aVaround what's
p211
aVpossible you've
p212
aVstarted meetup
p213
aVgroup taught
p214
aVgeneral assembly
p215
aVcourse love
p216
aVenabling others
p217
aVcommunicator communicate
p218
aVcomplex idea
p219
aVclearly
p220
aVteam
p221
aVknow priority
p222
aVthey're they're
p223
aVmaybe you're
p224
aVintrovert maybe
p225
aVyou're extrovert
p226
aVnobody accuses
p227
aVkeeping loop
p228
aVwrangler you've
p229
aVgotten front-end
p230
aVengineer play
p231
aVnice io
p232
aVdeveloper inspire
p233
aVetl developer
p234
aVwrite creatively
p235
aVlatest pipeline
p236
aVfearless big
p237
aVundefined problem
p238
aVdon't frighten
p239
aVwork tiny
p240
aVcrack you've
p241
aVbroken open
p242
aVwhole nut
p243
aVbring table
p244
aVcompetitive salary
p245
aVequity including
p246
aVrobust 401
p247
aVk plan
p248
aVexcellent
p249
aVmedical dental
p250
aVinsurance
p251
aVhealth benefit
p252
aVsuperstar product
p253
aVdesign
p254
aVdata
p255
aVengineering
p256
aVleader paypal
p257
aVgoogle gilt
p258
aVyodle aol
p259
aVadaptive path
p260
aVtop class
p261
aVengineering team
p262
aVlead
p263
aVbuild
p264
aVproduct
p265
aVcontinuous learning
p266
aVbudget
p267
aVhighly supportive
p268
aVbought leadership
p269
aVenvironment
p270
aVbasic qualification
p271
aVleast 2
p272
aVyear experience
p273
aVworking cross-functional
p274
aVteam
p275
aVdeliver
p276
aVconsumer
p277
aVexperience
p278
aVcore
p279
aVproduct
p280
aVplatform power
p281
aVexperience
p282
aVleast 1
p283
aVyear
p284
aVdigital
p285
aVindustry
p286
aVexperience
p287
aVconsumer
p288
aVbachelor's degree
p289
aVmilitary experience
p290
aVpreferred qualification
p291
aV1+ year
p292
aVexperience
p293
aVweb client-side
p294
aVmobile platform
p295
aV1+ year
p296
aVexperience
p297
aVproduct owner
p298
aVagile development
p299
aVprocess
p300
aVtime capital
p301
aVone sponsor
p302
aVnew
p303
aVapplicant employment
p304
aVauthorization position
p305
a.