(lp1
Vjob title
p2
aVdata scientist
p3
aVwork
p4
aVlocation reston
p5
aVva
p6
aVduration 6+mths
p7
aVjob
p8
aVrole responsibility
p9
aVprimary responsibility
p10
aVguiding
p11
aVclient
p12
aVanalytics
p13
aVadoption
p14
aVjourney
p15
aVconceptualize
p16
aVdrive
p17
aVdevelopment
p18
aVanalytics
p19
aVsolution
p20
aVskill
p21
aVexperience
p22
aVadvanced analytics
p23
aVprofessional
p24
aVcommercial
p25
aVacumen
p26
aVstrong
p27
aVdomain specific
p28
aVanalytics
p29
aVexperience
p30
aVretail banking
p31
aVtelecom industry
p32
aV6-15
p33
aVyear
p34
aVanalytics
p35
aVexperience
p36
aVanalytics
p37
aVconsulting
p38
aVdata science
p39
aVarea
p40
aVmaster
p41
aVbusiness administration
p42
aVengineering statistic
p43
aVeconomics operation
p44
aVresearch
p45
aVcomputer science
p46
aVskill
p47
aVrequired
p48
aVhand
p49
aVsql r
p50
aVpython sa
p51
aVspark scala
p52
aVmatlab
p53
aVnice
p54
aVmultiple
p55
aVmodeling technique
p56
aVincluding
p57
aVmachine learning
p58
aVworked large
p59
aVdata set
p60
aVexperience
p61
aVdata wrangling
p62
aVusing
p63
aVmanual
p64
aVtechnique including
p65
aVrunning
p66
aVcreating
p67
aVexecution
p68
aVsql query
p69
aVability work
p70
aVindependently
p71
aVacross
p72
aVdata acquisition
p73
aVprofiling
p74
aVanalysis
p75
aVnice
p76
aVexposure
p77
aVpivotal
p78
aVgreenplum
p79
aVbring willingness
p80
aVflexibility desire
p81
aVimpress please
p82
aVapply
p83
aVresource
p84
aVmanager prita
p85
aVshukla
p86
aVemail prita
p87
aVreqroute.com
p88
aVphone 408
p89
aV6002007
p90
a.