(lp1
Vtower crescent
p2
aV12066 united
p3
aVstate america
p4
aVvienna virginia
p5
aVcapital one
p6
aVwe're building
p7
aVleading information-based
p8
aVtechnology
p9
aVcompany still
p10
aVfounder-led chairman
p11
aVchief executive
p12
aVofficer richard
p13
aVfairbank capital
p14
aVone mission
p15
aVhelp customer
p16
aVsucceed bringing
p17
aVingenuity simplicity
p18
aVhumanity banking
p19
aVmeasure effort
p20
aVsuccess customer
p21
aVenjoy advocacy
p22
aVexhibit succeeding
p23
aVsucceeding
p24
aVguided shared
p25
aVvalue thrive
p26
aVenvironment collaboration
p27
aVopenness valued
p28
aVbelieve innovation
p29
aVpowered perspective
p30
aVteamwork respect
p31
aVlead superior
p32
aVresult elevate
p33
aVob right
p34
aVthing associate
p35
aVserve humility
p36
aVdeep respect
p37
aVresponsibility helping
p38
aVcustomer achieve
p39
aVgoal realize
p40
aVdream together
p41
aVquest change
p42
aVbanking good
p43
aVdata scientist
p44
aVsenior associate
p45
aVcapital one
p46
aVdata
p47
aVcenter everything
p48
aVlaunched startup
p49
aVdisrupted credit
p50
aVcard industry
p51
aVindividually personalizing
p52
aVevery credit
p53
aVcard offer
p54
aVusing statistical
p55
aVmodeling relational
p56
aVdatabase cutting
p57
aVedge technology
p58
aV1988 fast-forward
p59
aVyear little
p60
aVinnovation passion
p61
aVdata skyrocketed
p62
aVu fortune
p63
aV200 company
p64
aVleader world
p65
aVdata-driven decision-making
p66
aVdata scientist
p67
aVcapital one
p68
aVyou'll part
p69
aVteam that's
p70
aVleading next
p71
aVwave disruption
p72
aVwhole new
p73
aVscale using
p74
aVlatest distributed
p75
aVcomputing technology
p76
aVoperating across
p77
aVbillion billion
p78
aVcustomer transaction
p79
aVunlock big
p80
aVopportunity
p81
aVhelp everyday
p82
aVpeople save
p83
aVmoney time
p84
aVagony financial
p85
aVlife
p86
aVgiven day
p87
aVyou'll
p88
aVusing big
p89
aVdata
p90
aVtool hadoop
p91
aVspark h2o
p92
aVaws conduct
p93
aVanalysis billion
p94
aVcustomer transaction
p95
aVrecord
p96
aVwriting software
p97
aVclean investigate
p98
aVlarge messy
p99
aVdata set
p100
aVnumerical textual
p101
aVdata
p102
aVintegrating external
p103
aVdata source
p104
aVapis discover
p105
aVinteresting trend
p106
aVbuilding
p107
aVmachine learning
p108
aVmodel
p109
aVdevelopment testing
p110
aVvalidation 30+
p111
aVmillion customer
p112
aVproduction
p113
aVdesigning rich
p114
aVdata visualization
p115
aVcommunicate complex
p116
aVidea customer
p117
aVcompany leader
p118
aVinvestigating impact
p119
aVnew technology
p120
aVfuture digital
p121
aVbanking financial
p122
aVworld tomorrow
p123
aVideal candidate
p124
aVcurious ask
p125
aVexplore you're
p126
aVafraid blurt
p127
aVdisruptive idea
p128
aVprobably know
p129
aVpython scala
p130
aVr you're
p131
aVconstantly exploring
p132
aVnew open
p133
aVsource tool
p134
aVwrangler know
p135
aVprogrammatically extract
p136
aVdata
p137
aVdatabase api
p138
aVbring transformation
p139
aVtwo model
p140
aVhuman-readable form
p141
aVroc curve
p142
aVmap d3
p143
aVvisualization tableau
p144
aVetc
p145
aVcreative big
p146
aVundefined problem
p147
aVpetabyte data
p148
aVdon't frighten
p149
aVyou're used
p150
aVworking abstract
p151
aVdata
p152
aVlove discovering
p153
aVnew narrative
p154
aVunmined territory
p155
aVtwenty-five year
p156
aVcapital one
p157
aVstarted it's
p158
aVstill led
p159
aVfounder ready
p160
aVjoin community
p161
aVsmartest people
p162
aVyou've ever
p163
aVmet see
p164
aVcustomer first
p165
aVwant use
p166
aVdata
p167
aVskill
p168
aVmake difference
p169
aVbasic qualification
p170
aVbachelor's degree
p171
aVmilitary experience
p172
aVleast 1
p173
aVyear' experience
p174
aVopen source
p175
aVprogramming language
p176
aVlarge scale
p177
aVdata
p178
aVanalysis
p179
aVleast 1
p180
aVyear' experience
p181
aVmachine learning
p182
aVleast 1
p183
aVyear' experience
p184
aVrelational database
p185
aVpreferred qualification
p186
aVmaster's degree
p187
aVphd
p188
aVexperience working
p189
aVaws
p190
aVleast 2
p191
aVyears' experience
p192
aVpython scala
p193
aVr
aVleast 2
p194
aVyears' experience
p195
aVmachine learning
p196
aVleast 2
p197
aVyears' experience
p198
aVsql
p199
aVtime capital
p200
aVone sponsor
p201
aVnew
p202
aVapplicant employment
p203
aVauthorization position
p204
a.