(lp1
Vtower crescent
p2
aV12066 united
p3
aVstate america
p4
aVvienna virginia
p5
aVmachine learning
p6
aVdata
p7
aVengineer
p8
aVmachine learning
p9
aVengineer
p10
aVdata
p11
aVintelligence
p12
aVteam
p13
aVcontribute
p14
aVbuilding
p15
aVfast
p16
aVdata
p17
aVmachine learning
p18
aVplatform
p19
aVscalable
p20
aVsolve
p21
aVdiverse
p22
aVbusiness problem
p23
aVenvision create
p24
aVdeploy maintain
p25
aVfull stack
p26
aVtechnology
p27
aVsolution powered
p28
aVstreaming big
p29
aVdata
p30
aVstate art
p31
aVmachine learning
p32
aVmicro-service architecture
p33
aVintuitive visualization
p34
aVcloud
p35
aVcapital one
p36
aVsea big
p37
aVdata
p38
aVriver fast
p39
aVdata
p40
aVmanage
p41
aVworking
p42
aVnumber cutting
p43
aVedge machine
p44
aVlearning
p45
aVtechnology
p46
aVactively developing
p47
aVhighly technical
p48
aVstrong background
p49
aVuse case
p50
aVrange cyber
p51
aVthreat prevention
p52
aVpredicting environment
p53
aVoutage enable
p54
aValways 24
p55
aV7
aVservice
p56
aVhighest executive
p57
aVsupport
p58
aVdirect impact
p59
aVcustomer
p60
aVexperience
p61
aVbottom line
p62
aVyearn part
p63
aVcutting edge
p64
aVhigh profile
p65
aVproject
p66
aVmotivated delivering
p67
aVworld-class
p68
aVsolution aggressive
p69
aVschedule
p70
aVsomeone intimidated
p71
aVchallenge thrives
p72
aVeven pressure
p73
aVpassionate craft
p74
aVhyper focused
p75
aVdelivering exceptional
p76
aVresult
p77
aVlove learn
p78
aVnew technology
p79
aVmentor junior
p80
aVengineer raise
p81
aVbar team
p82
aVwould awesome
p83
aVrobust portfolio
p84
aVgithub open
p85
aVsource contribution
p86
aVproud share
p87
aVuse
p88
aVpassionate
p89
aVlearning
p90
aVimplementing
p91
aVcomplex
p92
aVsystem
p93
aVcustomer
p94
aVgoal
p95
aVimplementing
p96
aVcomplex
p97
aVdata structure
p98
aVoptimizing distributed
p99
aVmachine learning
p100
aVdeployment something
p101
aVyou're excited
p102
aVilovedata
p103
aVflexible work
p104
aVschedule
p105
aVconvenient office
p106
aVlocation
p107
aVgenerous salary
p108
aVmerit-based pay
p109
aVincentive
p110
aVstartup mindset
p111
aVwallet resource
p112
aVtop 10
p113
aVbank
p114
aVmonthly innovation
p115
aVchallenge
p116
aVdedicated test
p117
aVdriving cutting
p118
aVedge technology
p119
aVchoice equipment
p120
aVmacbook pc
p121
aViphone android
p122
aVdevice
p123
aVbasic qualification
p124
aVbachelor's degree
p125
aVmilitary experience
p126
aVleast 2
p127
aVyear experience
p128
aVworking
p129
aVmachine learning
p130
aVframework
p131
aVdata science
p132
aVmethodology
p133
aVleast 2
p134
aVyears' experience
p135
aVwriting production
p136
aVcode either
p137
aVjava scala
p138
aVpython
p139
aVleast 1-year
p140
aVexperience
p141
aVbig
p142
aVfast
p143
aVdata
p144
aVtechnology
p145
aVspark scala
p146
aVakka cassandra
p147
aVaccumulo hbase
p148
aVhadoop hdfs
p149
aVavro mongodb
p150
aVmesos
p151
aVpreferred qualification
p152
aVmaster's degree
p153
aVexperience
p154
aVrecognized
p155
aVindustry
p156
aVpattern
p157
aVmethodology
p158
aVtechnique
p159
aV3 years+
p160
aVexperience working
p161
aVdelivering
p162
aVresearch
p163
aVoriented
p164
aVdata
p165
aVdriven
p166
aVproblem
p167
aV1 year+
p168
aVexperience
p169
aVaws specifically
p170
aVs3 ec2
p171
aVemr
p172
aV1 year+
p173
aVexperience
p174
aVspark hdfs
p175
aVrelated
p176
aVlarge
p177
aVdata
p178
aVtechnology
p179
aV1 year+
p180
aVexperience working
p181
aVmachine learning
p182
aVlike scikit-learn
p183
aVmllib theano
p184
aVproduction environment
p185
aVcapital one
p186
aVconsider sponsoring
p187
aVnew qualified
p188
aVapplicant employment
p189
aVauthorization position
p190
a.