(lp1
Vuniversity
p2
aVprogram
p3
aVengineering
p4
aVintern
p5
aVraytheon
p6
aVintelligence
p7
aVinformation
p8
aVservice
p9
aVii
p10
aVseek
p11
aVqualified
p12
aVintern
p13
aVsupport
p14
aVkey
p15
aVanalytics
p16
aVeffort
p17
aVkey responsibility
p18
aVinclude
p19
aVsupport
p20
aVdata scientist
p21
aVcreating
p22
aVdata-driven
p23
aVanalytics
p24
aVtechnique
p25
aVacross
p26
aVfull lifecycle
p27
aViis's
p28
aVbusiness
p29
aVjob description
p30
aVselected candidate
p31
aVperform
p32
aVfollowing duty
p33
aVgeneral
p34
aVsupport
p35
aVdata scientist
p36
aVdevelopment
p37
aValgorithm
p38
aVderive insight
p39
aVlarge volume
p40
aVdata
p41
aVcontribute
p42
aVcore
p43
aVresearch
p44
aVdata collection
p45
aVanalysis
p46
aVcleansing
p47
aVsupport
p48
aVanalysis
p49
aVanalytics
p50
aValgorithm
p51
aVhelping develop
p52
aVtest
p53
aVdata
p54
aVtest
p55
aVprocedure
p56
aVexecuting test
p57
aVanalytic
p58
aVfunction
p59
aVwork
p60
aVdirection
p61
aVdata scientist
p62
aVprincipal investigator
p63
aVpart small
p64
aVteam
p65
aVengineer
p66
aVirad
p67
aVsimilar
p68
aVadvanced
p69
aVdevelopment
p70
aVproject
p71
aVrequired skill
p72
aVexperience
p73
aVeducation
p74
aVcomputer science
p75
aVmathematics statistic
p76
aVexcellent written
p77
aVverbal communication
p78
aVskill ability
p79
aVwork fast-paced
p80
aVmultidisciplinary
p81
aVcollaborative environment
p82
aVposition requires
p83
aVability
p84
aVaccess
p85
aVsystem
p86
aVcontain information
p87
aVrestricted
p88
aVu citizen
p89
aVbased
p90
aVcertain
p91
aVfederal government
p92
aVcontractual requirement
p93
aVdesired skill
p94
aVexperience
p95
aVexperience
p96
aVtechnology
p97
aVinformatics
p98
aVdata mining
p99
aVanalytics
p100
aVexperience
p101
aVai-related
p102
aVarea
p103
aVmachine learning
p104
aVnatural language
p105
aVprocessing
p106
aVdynamic
p107
aVautonomous system
p108
aVetc
p109
aVexposure
p110
aVmodeling simulation
p111
aVtechnique
p112
aVability write
p113
aVperform
p114
aVdatabase query
p115
aVperform
p116
aVtechnical
p117
aVstatistical analysis
p118
aVusing
p119
aVrange
p120
aVtechnology
p121
aVsql python
p122
aVr
aVruby
p123
aVmatlab
p124
aVexpertise
p125
aVcommercial
p126
aVbest-practice
p127
aVbig data
p128
aVtechnology
p129
aVhadoop hive
p130
aVmap reduce
p131
aVability present
p132
aVanalytic
p133
aVresult
p134
aVsenior management
p135
aVclear
p136
aVlanguage
p137
aVimplication
p138
aVresult
p139
aVorganization
p140
aVrequired education
p141
aVmust
p142
aVobtained sophomore
p143
aVjunior senior
p144
aVstatus
p145
aVsummer 2017
p146
aVmust pursuing
p147
aVbachelor's degree
p148
aVcomputer science
p149
aVmathematics statistic
p150
aVdata science
p151
aVrelated field
p152
aVplease include
p153
aVtranscript
p154
aVresume
p155
aVposition
p156
aVsophmore
p157
aVjunior senior
p158
aVinternship
p159
aVbased
p160
aVcandidate's
p161
aVqualification
p162
aVrelate
p163
aVskill
p164
aVexperience
p165
aVresponsibility
p166
aVrequirement
p167
aVposition
p168
aVfreshman
p169
aVstatus
p170
aVmust completed
p171
aV30
p172
aVhour college
p173
aVcredit towards
p174
aVdegree obtained
p175
aVsophomore
p176
aVstatus
p177
aVsummer 2017
p178
aVsophmore
p179
aVstatus
p180
aVmust completed
p181
aV60
p182
aVhour college
p183
aVcredit towards
p184
aVdegree obtained
p185
aVsophomore
p186
aVstatus
p187
aVsummer 2017
p188
aVjunior
p189
aVstatus
p190
aVmust completed
p191
aV90
p192
aVhour college
p193
aVcredit towards
p194
aVdegree obtained
p195
aVjunior
p196
aVstatus
p197
aVsummer 2017
p198
aVsenior
p199
aVstatus
p200
aVmust completed
p201
aV120hours
p202
aVcollege credit
p203
aVtowards
p204
aVdegree obtained
p205
aVsenior
p206
aVstatus
p207
aVsummer 2017
p208
aVposition requires
p209
aVability
p210
aVaccess
p211
aVsystem
p212
aVcontain information
p213
aVrestricted
p214
aVu citizen
p215
aVbased
p216
aVcertain
p217
aVfederal government
p218
aVcontractual requirement
p219
aV92612
p220
aVbusiness unit
p221
aVprofile
p222
aVraytheon
p223
aVintelligence
p224
aVinformation
p225
aVservice
p226
aVdelivers innovative
p227
aVtechnology
p228
aVmake world
p229
aVsafer place
p230
aVexpertise
p231
aVcyber
p232
aVanalytics
p233
aVautomation
p234
aVallow u
p235
aVreach
p236
aVbeyond
p237
aVothers
p238
aVthink
p239
aVpossible
p240
aVunderpin
p241
aVnational security
p242
aVgive
p243
aVglobal
p244
aVcustomer
p245
aVunique
p246
aVsolution
p247
aVsolve pressing
p248
aVmodern
p249
aVchallenge
p250
aV-
aVcybersecurity
p251
aVautomated
p252
aVoperation
p253
aVhigh-consequence
p254
aVtraining
p255
aVclear
p256
aVinsight
p257
aVlarge volume
p258
aVdata
p259
aVii
p260
aVoperates
p261
aVnearly
p262
aV550
p263
aVsite
p264
aV80 country
p265
aVheadquartered
p266
aVdulles
p267
aVva
p268
aVbusiness
p269
aVarea
p270
aVgenerated
p271
aVapproximately 6
p272
aVbillion 2015
p273
aVrevenue
p274
aVglobal
p275
aVbusiness leader
p276
aVmust
p277
aVability understand
p278
aVembrace
p279
aVoperate
p280
aVmulticultural
p281
aVworld
p282
aV-
aVmarketplace
p283
aVworkplace
p284
aVstrive
p285
aVhire people
p286
aVreflect
p287
aVcommunity
p288
aVembrace
p289
aVdiversity inclusion
p290
aVadvance
p291
aVculture
p292
aVdevelop
p293
aVemployee
p294
aVgrow
p295
aVbusiness
p296
aVrelocation eligible
p297
aVyes
p298
aVclearance
p299
aVtype
p300
aVnone required
p301
aVexpertise
p302
aVsoftware engineering
p303
aVdata science
p304
aVtype
p305
aVjob
p306
aVintern
p307
aVcampaign
p308
aVadministrative service
p309
aVwork
p310
aVlocation
p311
aVtx -
p312
aVrichardson
p313
aVva
p314
aV-
aVdulles
p315
a.