(lp1
Vprincipal-big
p2
aVdata
p3
aVsoftware eng
p4
aV-
aV1711499
p5
aVjob
p6
aVavailable multiple
p7
aVlocation applying
p8
aVposition may
p9
aVconsidered additional
p10
aVlocation
p11
aVarea
p12
aVatt
p13
aVoffer
p14
aVcollaborative fun
p15
aVfast paced
p16
aVenvironment
p17
aVdrive
p18
aVready next
p19
aVlevel
p20
aVcareer
p21
aVatt
p22
aVmay perfect
p23
aVcareer
p24
aVopportunity
p25
aVprincipal
p26
aVbig data
p27
aVsoftware engineer
p28
aVresponsible
p29
aVdesign development
p30
aVhigh performance
p31
aVdistributed computing
p32
aVtask
p33
aVusing big
p34
aVdata
p35
aVtechnology
p36
aVhadoop nosql
p37
aVtext mining
p38
aVdistributed
p39
aVenvironment
p40
aVtechnology
p41
aVposition
p42
aVuse
p43
aVbig data
p44
aVprogramming language
p45
aVtechnology
p46
aVwrite code
p47
aVcomplete programming
p48
aVdocumentation perform
p49
aVtesting debugging
p50
aVapplication
p51
aValso
p52
aVanalyze
p53
aVdesign
p54
aVprogram debug
p55
aVmodify software
p56
aVenhancement new
p57
aVproduct
p58
aVused distributed
p59
aVlarge scale
p60
aVanalytics
p61
aVvisualization
p62
aVsolution
p63
aVposition interact
p64
aVdata scientist
p65
aVbusiness partner
p66
aVindustry
p67
aVexpert understand
p68
aVdata
p69
aVneed converted
p70
aVloaded presented
p71
aVspecifically principal
p72
aVbig data
p73
aVsoftware engineer
p74
aVprovides backbone
p75
aVdata
p76
aVdata
p77
aVplatform
p78
aVteam
p79
aVwell
p80
aVenterprise
p81
aVposition
p82
aVhelp derive
p83
aVvaluable insight
p84
aVdrive
p85
aVsmart
p86
aVbusiness decision
p87
aVacross
p88
aVatt
p89
aVadditional responsibility
p90
aVinclude following
p91
aVwork
p92
aVraw data
p93
aVclean finally
p94
aVpolish format
p95
aVconsumed
p96
aVdata scientist
p97
aVcreate
p98
aVcritical insight
p99
aVassist ad-hoc
p100
aVrequest coming
p101
aVbusiness partner
p102
aVsimple statistic
p103
aVcomplex
p104
aVoperation
p105
aVexpert level
p106
aVcompetency scala
p107
aVjava
p108
aVspark map
p109
aVreduce high
p110
aVperformance tuning
p111
aVmachine learning
p112
aVmethod classification
p113
aVdeep learning
p114
aVpattern recognition
p115
aVaddition
p116
aVcandidate must
p117
aValso
p118
aVability
p119
aVmentor
p120
aVdevelop
p121
aVothers
p122
aVtechnology
p123
aVstrong communication
p124
aVpresentation skill
p125
aVrequired
p126
aVeffectively convey
p127
aVrelevant
p128
aVinsight
p129
aVteam
p130
aVperforms analysis
p131
aVimplementation
p132
aVperformance tuning
p133
aVengineered artifact
p134
aVexercise judgment
p135
aVeffectively communicate
p136
aVhighly technical
p137
aVcomplex
p138
aVdetail
p139
aVuse
p140
aVvisualization careful
p141
aVselection knowns
p142
aVversus hypothetical
p143
aVqualification
p144
aVmaster
p145
aVscience
p146
aVcomputer science
p147
aVmath scientific
p148
aVcomputing preferred
p149
aVtypically requires
p150
aV8-10 year
p151
aVexperience
p152
aVdata
p153
aVarchitecture
p154
aVdata
p155
aVapplication
p156
aVfamiliarity jvm-based
p157
aVfunction
p158
aVlanguage
p159
aVincluding
p160
aVscala clojure
p161
aVhadoop query
p162
aVlanguage
p163
aVincluding
p164
aVpig hive
p165
aVscalding cascalog
p166
aVpycascading
p167
aVfamiliarity hdfs-based
p168
aVcomputing framework
p169
aVincluding
p170
aVspark storm
p171
aVdesirable
p172
aVposition based
p173
aVplano tx
p174
aVcandidate selected
p175
aVmust
p176
aVwork
p177
aVlocal plano
p178
aVoffice
p179
aVjob
p180
aVfield
p181
aV-
aVengineering
p182
aVtechnology
p183
aVprimary location
p184
aV- texas-plano
p185
aVschedule
p186
aV-
aVfull-time
p187
aVshift
p188
aV-
aVday job
p189
aVemployee
p190
aVstatus
p191
aV-
aVregular
p192
aVjob posting
p193
aVmar
p194
aV1 2017
p195
aV7
aV36
p196
aV03
p197
aVpm -
p198
aVunposting date
p199
aVongoing
p200
aVjob
p201
aVlevel
p202
aV-
aVsenior associate
p203
aVsecond level
p204
aVmanager
p205
a.