(lp1
Vleading
p2
aVnational
p3
aVtelecommunication
p4
aVmedium entertainment
p5
aVcompany
p6
aValtice
p7
aVusa
p8
aVdelivers
p9
aVresidential business
p10
aVservice
p11
aV4.6
p12
aVmillion
p13
aVtotal
p14
aVcustomer
p15
aVacross
p16
aV20
p17
aVstate
p18
aV18 000
p19
aVemployee
p20
aVunwavering
p21
aVcommitment
p22
aVcustomer
p23
aVproviding
p24
aVquality
p25
aVproduct
p26
aVoutstanding
p27
aVservice
p28
aVphilosophy
p29
aVbuilt around
p30
aVcommitment
p31
aVemployee
p32
aVcommunity
p33
aVcustomer
p34
aVcommitted providing
p35
aVemployee
p36
aVopportunity
p37
aVgrowth
p38
aVdevelopment
p39
aVwell
p40
aVenvironment
p41
aVidea
p42
aVhelp u
p43
aVdrive business
p44
aVcreate meaningful
p45
aVemployee
p46
aVexperience
p47
aVcompany
p48
aVoffer
p49
aVsuddenlink-branded
p50
aVdigital
p51
aVcable
p52
aVtelevision
p53
aVhigh-speed internet
p54
aVvoice
p55
aVservice residential
p56
aVbusiness
p57
aVcustomer
p58
aVacross
p59
aVwestern
p60
aVmidwestern
p61
aVsouthern
p62
aVstate
p63
aVadditionally
p64
aVbusiness
p65
aVcustomer
p66
aVsuddenlink
p67
aVprovides
p68
aVtargeted
p69
aVtelevision
p70
aVonline advertising
p71
aVservice
p72
aVsuddenlink
p73
aVrespect
p74
aVindividuality
p75
aVmember
p76
aVteam
p77
aVvalue
p78
aVrichness
p79
aVdiversity
p80
aVbrings
p81
aVworkforce
p82
aVsuddenlink
p83
aVequal opportunity
p84
aVemployer committed
p85
aVrecruiting hiring
p86
aVpromoting
p87
aVqualified
p88
aVpeople
p89
aVbackground
p90
aVregardless
p91
aVgender race
p92
aVcolor creed
p93
aVnational origin
p94
aVreligion age
p95
aVmarital status
p96
aVpregnancy
p97
aVphysical mental
p98
aVdisability sexual
p99
aVorientation gender
p100
aVidentity
p101
aVmilitary veteran
p102
aVstatus basis
p103
aVprotected federal
p104
aVstate local
p105
aVlaw
p106
aVbusiness intelligence
p107
aVanalyst
p108
aVrole
p109
aVdescribed
p110
aVpart
p111
aVanalyst
p112
aVpart
p113
aVartist
p114
aVdata scientist
p115
aVsomebody
p116
aVinquisitive
p117
aVstare
p118
aVdata
p119
aVspot trend
p120
aVreally want
p121
aVlearn
p122
aVbring
p123
aVchange
p124
aVorganization
p125
aVwhereas
p126
aVtraditional
p127
aVdata
p128
aVanalyst
p129
aVmay
p130
aVlook
p131
aVdata
p132
aVsingle source
p133
aVcrm system
p134
aVexample
p135
aVbusiness intelligence
p136
aVanalyst
p137
aVlikely
p138
aVexplore examine
p139
aVdata
p140
aVmultiple disparate
p141
aVsource
p142
aVbusiness intelligence
p143
aVanalyst
p144
aVsift
p145
aVincoming
p146
aVdata
p147
aVgoal discovering
p148
aVpreviously hidden
p149
aVinsight turn
p150
aVprovide competitive
p151
aVadvantage address
p152
aVpressing business
p153
aVproblem
p154
aVbusiness intelligence
p155
aVanalyst
p156
aVsimply
p157
aVcollect
p158
aVreport
p159
aVdata
p160
aValso
p161
aVlook
p162
aVmany
p163
aVangle
p164
aVdetermines
p165
aVmean
p166
aVrecommends
p167
aVway
p168
aVapply
p169
aVdata
p170
aVresponsibility
p171
aVanalyzes
p172
aVstatistically
p173
aVmodel
p174
aVperforms
p175
aVdata mining
p176
aVmassive amount
p177
aVtransaction-based
p178
aVdata
p179
aVbuild
p180
aVmetric
p181
aVbusiness case
p182
aVkey
p183
aVplatform
p184
aVproduct
p185
aVhigh speed
p186
aVdata
p187
aVphone
p188
aVvideo
p189
aVspace
p190
aVdevelop new
p191
aVanalytic method
p192
aVmassive data
p193
aVset
p194
aVlearn
p195
aVnetwork
p196
aVcustomer
p197
aVunderstand
p198
aVproduct
p199
aVimprove
p200
aVservice
p201
aVoperation
p202
aVessential function
p203
aVsupport
p204
aV1 2
p205
aVsuccessful
p206
aVcontinuous improvement
p207
aVproject
p208
aVper year
p209
aVcontinuous improvement
p210
aVproject
p211
aVresult
p212
aV250
p213
aV-
aV500k
p214
aVop
p215
aVex
p216
aVsaving
p217
aVannually
p218
aVactively
p219
aVconsistently
p220
aVsupport effort
p221
aVsimplify
p222
aVenhance customer
p223
aVexperience
p224
aVprovide
p225
aVexpert advice
p226
aVeducation
p227
aVusage
p228
aVinterpretation
p229
aVbusiness
p230
aVdata
p231
aVrelevant
p232
aVbusiness unit
p233
aVcommunicate
p234
aVdata
p235
aVnuance
p236
aVinsight
p237
aVlevel
p238
aVcompany
p239
aVclear concise
p240
aVmanner
p241
aVutilize
p242
aVuser
p243
aVgroup
p244
aVforum
p245
aVshare
p246
aVbest practice
p247
aVaround
p248
aVanalytical
p249
aVfinding
p250
aVbased
p251
aVanalysis
p252
aVconducted
p253
aVmanage
p254
aVdetailed
p255
aVproject plan
p256
aVused
p257
aVdrive
p258
aVsuccessful
p259
aVproject completion
p260
aVincluding
p261
aVgathering
p262
aVdetailed
p263
aVbusiness
p264
aVrequirement
p265
aVprocess
p266
aVrequirement
p267
aVestablishing
p268
aVdefinition
p269
aVgaining
p270
aVapproval
p271
aVprovides
p272
aVin-depth
p273
aVtechnical expertise
p274
aVaspect
p275
aVdata acquisition
p276
aVprocess
p277
aVdata
p278
aVmodeling
p279
aVstatistical modeling
p280
aVidentify
p281
aVsolution
p282
aVenhance existing
p283
aVbusiness intelligence
p284
aVinfrastructure
p285
aVprocess
p286
aVtechnology
p287
aVcreate forecast
p288
aVmodel
p289
aVbusiness leader
p290
aVfuture
p291
aVperformance
p292
aVbusiness
p293
aVcreate
p294
aVpredictive model
p295
aVbusiness leader
p296
aVuse
p297
aVcreate
p298
aVreactionary
p299
aVplan
p300
aVleverage
p301
aVexpert knowledge
p302
aVbusiness intelligence
p303
aVcapability
p304
aVdeep familiarity
p305
aVbusiness
p306
aVtrend
p307
aVidentifying opportunity
p308
aVthreat
p309
aVwork cross
p310
aVfunctional team
p311
aVensure alignment
p312
aV1-2 year
p313
aVexperience
p314
aVbachelor degree
p315
aVeconomics mathematics
p316
aVbusiness administration
p317
aVdemonstrated experience
p318
aVanalyzing
p319
aVdatasets
p320
aVability identify
p321
aVtrend
p322
aVidentify
p323
aVoutlier
p324
aVfind pattern
p325
aVdemonstrated
p326
aVskill
p327
aVusing
p328
aVdata
p329
aVsupport
p330
aVdecision making
p331
aVable manipulate
p332
aVdata
p333
aVprovide insight
p334
aVresponse
p335
aVscientific
p336
aVoperational
p337
aVquestion
p338
aVability
p339
aVleverage
p340
aVvisualization tool
p341
aVcommunicate finding
p342
aVpartner
p343
aVstakeholder
p344
aVpreferred
p345
aVexperience
p346
aVcertified six
p347
aVsigma green
p348
aVbelt
p349
aVexceptionally strong
p350
aVcommunication skill
p351
aVwritten verbal
p352
aVprior experience
p353
aVpassion
p354
aVleveraging
p355
aVdata
p356
aVdrive significant
p357
aVbusiness
p358
aVimpact
p359
aVsolid
p360
aVstatistical
p361
aVknowledge intuition
p362
aVideally utilized
p363
aVb multivariate
p364
aVtesting
p365
aVrelated
p366
aVanalytics
p367
aVdemonstrated experience
p368
aVreporting
p369
aVbusiness intelligence
p370
aVtool
p371
aVsap
p372
aVminitab r
p373
aVability speak
p374
aVlarge
p375
aVgroup
p376
aVadvanced
p377
aVpresentation skill
p378
aVability
p379
aVperform
p380
aVcritical thinking
p381
aVarea
p382
aVdata
p383
aVanalysis
p384
aVprocess
p385
aVstrong
p386
aVteam
p387
aVrelationship
p388
aVbuilding
p389
aVskill ability
p390
aVlead mentor
p391
aVability prioritize
p392
aVorganize
p393
aVeffectively manage
p394
aVmultiple project
p395
aVassignment
p396
aVproven ability
p397
aVperform
p398
aVfast-paced environment
p399
a.