(lp1
Vdescription
p2
aVsotera defense
p3
aVsolution
p4
aVrecognized atop
p5
aV50 government
p6
aVtechnology
p7
aVcontractor washington
p8
aVbusinessjournal immediate
p9
aVfunded opportunity
p10
aVcyber operation
p11
aVspecialist splunk
p12
aVadministrator
p13
aVjoin prime
p14
aVcontract san
p15
aVantonio tx
p16
aVcandidate
p17
aVperforming transition
p18
aVwork
p19
aVnewly developed
p20
aVanalytics
p21
aVexisting soc
p22
aVframework
p23
aVmust
p24
aVknow
p25
aVcustomer
p26
aVable integrate
p27
aVeffectively
p28
aVcustomer workspace
p29
aVsuccessful candidate
p30
aVable
p31
aVactively
p32
aVwork
p33
aVteam
p34
aVremotely able
p35
aVtravel 25
p36
aVcandidate workwith
p37
aVvarious
p38
aVnetwork host-based
p39
aVsecurity
p40
aVapplication
p41
aVtool
p42
aVnetwork host
p43
aVassessment scanning
p44
aVtool
p45
aVnetwork host
p46
aVbased intrusion
p47
aVdetection
p48
aVsystem
p49
aVsecurity
p50
aVsoftware package
p51
aVrequirement
p52
aVactive top
p53
aVsecret clearance
p54
aVsci eligibility
p55
aVmust
p56
aVleast 5
p57
aVyear
p58
aVsecurity
p59
aVoperation center
p60
aVsoc
p61
aVexperience
p62
aVinclude following
p63
aVlog
p64
aVanalytics hunting
p65
aVincident response
p66
aVsplunk
p67
aVprogramming
p68
aVexperience
p69
aVc c++
p70
aVc python
p71
aVhtml javascript
p72
aV.net
p73
aVid monitoring
p74
aVanalysis
p75
aVanalyze
p76
aVnetwork traffic
p77
aVlog
p78
aVanalysis
p79
aVprioritize differentiate
p80
aVpotential intrusion
p81
aVattempt false
p82
aValarm
p83
aVexperience
p84
aVcomputer
p85
aVincident response
p86
aVteam cirt
p87
aVcomputer emergency
p88
aVresponse
p89
aVteam cert
p90
aVpreferred
p91
aVability work
p92
aVdata scientist
p93
aVbrand
p94
aVnew
p95
aVanalytics
p96
aVimplementation
p97
aVanalytics
p98
aVexisting
p99
aVframework enhance
p100
aVexisting soc
p101
aVoperation
p102
aVhost-based forensics
p103
aVmalware analysis
p104
aVexperience
p105
aVcandidate must
p106
aVposse excellent
p107
aVwritten communication
p108
aVskill
p109
aVproven ability
p110
aVpresent complex
p111
aVtechnical
p112
aVinformation
p113
aVtechnical nontechnical
p114
aVaudience
p115
aVcandidate must
p116
aVstay date
p117
aVcurrent vulnerability
p118
aVattack countermeasure
p119
aVengages internal
p120
aVexternal party
p121
aVget
p122
aVshare
p123
aVinformation
p124
aVimprove
p125
aVprocess
p126
aVsecurity posture
p127
aVorganization
p128
aVsotera defense
p129
aVsolution
p130
aVinc sotera
p131
aVagile mid-size
p132
aVnational security
p133
aVtechnology
p134
aVcompany delivers
p135
aVinnovative
p136
aVsystem
p137
aVsolution
p138
aVservice
p139
aVsupport
p140
aVcritical mission
p141
aVintelligence community
p142
aVdepartment defense
p143
aVdepartment homeland
p144
aVsecurity federal
p145
aVlaw enforcement
p146
aVagency charged
p147
aVensuring safety
p148
aVsecurity nation
p149
aV1 200
p150
aVemployee focused
p151
aVdelivering essential
p152
aVcounterterrorism cyber
p153
aVoperation
p154
aVintelligence
p155
aVdata
p156
aVanalytics c4isr
p157
aVforce mobility
p158
aVsolution
p159
aVcustomer
p160
aVthroughout national
p161
aVsecurity community
p162
aVsotera defense
p163
aVsolution
p164
aVequal opportunity
p165
aVaffirmative action
p166
aVemployer qualified
p167
aVapplicant receive
p168
aVconsideration employment
p169
aVwithout regard
p170
aVsex gender
p171
aVidentity sexual
p172
aVorientation race
p173
aVcolor religion
p174
aVnational origin
p175
aVdisability protected
p176
aVveteran status
p177
aVage characteristic
p178
aVprotected law
p179
aVrequire reasonable
p180
aVaccommodation apply
p181
aVposition sotera
p182
aVonline applicant
p183
aVsystem
p184
aVplease contact
p185
aVsoteras recruiting
p186
aVteam
p187
aVrecruiting soteradefense.com.
p188
aVoption
p189
aVapply job
p190
aVonlineapply
p191
aVshare
p192
aVrefer job
p193
aVfriendrefer
p194
aVshare newsfeed
p195
a.