(lp1
Vpeople
p2
aVwell
p3
aVteam
p4
aVsmart
p5
aVwell rounded
p6
aVemotional intelligence
p7
aVclear sme
p8
aVarea
p9
aVengaged small
p10
aVbusiness owner
p11
aVmentality
p12
aVcurious always
p13
aVlearning questioning
p14
aVfun
p15
aVgood attitude
p16
aVstress pressure
p17
aVpleasant work
p18
aVteam player
p19
aVrecognizes others
p20
aVhelp
p21
aVpossible look
p22
aVcontribute broader
p23
aVgoal
p24
aVsuccessful candidate
p25
aVwork
p26
aVdaily basis
p27
aVdigital
p28
aVanalytics
p29
aVplatform
p30
aVexplore
p31
aVcomplex
p32
aVdata set
p33
aVmake recommendation
p34
aVmarketing strategy
p35
aVsite
p36
aVdesign
p37
aVchange
p38
aVneed
p39
aVdetail-oriented strong
p40
aVtechnical
p41
aVworking knowledge
p42
aVdigital
p43
aVanalytics
p44
aVtechnology
p45
aVhigh
p46
aVaptitude toward
p47
aVworking
p48
aVdata visualization
p49
aVtechnology
p50
aVdata
p51
aVschema
p52
aVable demonstrate
p53
aVcapacity deliver
p54
aVmeaningful
p55
aVcustomer
p56
aVinsight
p57
aVexperience
p58
aVpreparing
p59
aVproducing
p60
aVanalytics
p61
aVreport weekly
p62
aVbi-weekly
p63
aVmonthly basis
p64
aVexpert
p65
aVidentifying developing
p66
aVdata collection
p67
aVstrategy
p68
aVsupport
p69
aVstandard
p70
aVad-hoc reporting
p71
aVkey performance
p72
aVindicator
p73
aVdirectly
p74
aVmeasure
p75
aVonline campaign
p76
aVwebsite conversion
p77
aVfunnel
p78
aVperformance
p79
aVcandidate able
p80
aVlead
p81
aVweb
p82
aVanalytics
p83
aVtag implementation
p84
aVtesting
p85
aVdevelopment
p86
aVonline medium
p87
aVmarketing
p88
aVlanding page
p89
aVwebsite conversion
p90
aVfunnel
p91
aVmobile application
p92
aVincludes
p93
aVworking knowledge
p94
aVjavascript
p95
aVtag manager
p96
aVmethodology
p97
aVable
p98
aVprovide
p99
aVtag implementation
p100
aVrequirement
p101
aVproduct manager
p102
aVtechnical
p103
aVteam
p104
aVensuring
p105
aVbest practice
p106
aVfollowed
p107
aVcommunication
p108
aVproduced
p109
aVdigestible
p110
aVacross
p111
aVteam
p112
aVdifferent
p113
aVtechnical
p114
aVcapability
p115
aV3-8
p116
aVyear
p117
aVdeveloping
p118
aVmarketing
p119
aVperformance measurement
p120
aVusing
p121
aVdigital
p122
aVanalytics
p123
aVtool
p124
aVadobe analytics
p125
aVibm
p126
aVdigital
p127
aVanalytics
p128
aVgoogle analytics
p129
aVdemonstrated ability
p130
aVdashboard scorecard
p131
aVdesign development
p132
aVincluding
p133
aVkpi reporting
p134
aVframe
p135
aVrefinement
p136
aVability
p137
aVanalyze
p138
aVreport interactive
p139
aVconsumer
p140
aVmetric
p141
aVtranslating
p142
aVinformation
p143
aVactionable recommendation
p144
aVexperience
p145
aVtag management
p146
aVsolution
p147
aVtealium
p148
aVensighten
p149
aVgoogle tag
p150
aVmanager
p151
aVetc
p152
aVworking knowledge
p153
aVjavascript
p154
aVassociated
p155
aVdigital
p156
aVanalytics
p157
aVplatform
p158
aVba b
p159
aVdegree
p160
aVmarketing
p161
aVstatistic mathematics
p162
aVeconomics quantitative
p163
aVdiscipline.masters
p164
aVdegree plus
p165
aVself-starter requiring
p166
aVminimal supervision
p167
aVexperience
p168
aVsite
p169
aVtesting
p170
aVpersonalization
p171
aVtool
p172
aVplus
p173
aVknowledge html
p174
aVcs
p175
aVlanguage
p176
aVexperience
p177
aVgoogle adwords
p178
aVgoogle
p179
aVdfp
p180
aVplus
p181
aVexperience
p182
aVadvanced excel
p183
aVsql
p184
aVplus
p185
aVwunderman creatively
p186
aVdriven
p187
aVdata
p188
aVinspired leading
p189
aVglobal digital
p190
aVagency wunderman
p191
aVcombine creativity
p192
aVdata
p193
aVwork inspires
p194
aVpeople take
p195
aVaction delivers
p196
aVresult brand
p197
aV2015 industry
p198
aVanalyst named
p199
aVwunderman leader
p200
aVmarketing
p201
aVdatabase
p202
aVoperation well
p203
aVstrong performer
p204
aVcustomer engagement
p205
aVstrategy headquartered
p206
aVnew york
p207
aVagency brings
p208
aVtogether 7
p209
aV000 creatives
p210
aVdata scientist
p211
aVstrategist technologist
p212
aV175 office
p213
aV60 market
p214
aVwunderman wpp
p215
aVcompany nasdaq
p216
aVwppgy information
p217
aVplease visit
p218
aVfollow u
p219
aVwunderman
p220
a.