(lp1
Vplano 6
p2
aV31066 united
p3
aVstate america
p4
aVplano texas
p5
aVcapital one
p6
aVwe're building
p7
aVleading information-based
p8
aVtechnology
p9
aVcompany still
p10
aVfounder-led chairman
p11
aVchief executive
p12
aVofficer richard
p13
aVfairbank capital
p14
aVone mission
p15
aVhelp customer
p16
aVsucceed bringing
p17
aVingenuity simplicity
p18
aVhumanity banking
p19
aVmeasure effort
p20
aVsuccess customer
p21
aVenjoy advocacy
p22
aVexhibit succeeding
p23
aVsucceeding
p24
aVguided shared
p25
aVvalue thrive
p26
aVenvironment collaboration
p27
aVopenness valued
p28
aVbelieve innovation
p29
aVpowered perspective
p30
aVteamwork respect
p31
aVlead superior
p32
aVresult elevate
p33
aVob right
p34
aVthing associate
p35
aVserve humility
p36
aVdeep respect
p37
aVresponsibility helping
p38
aVcustomer achieve
p39
aVgoal realize
p40
aVdream together
p41
aVquest change
p42
aVbanking good
p43
aVmanager
p44
aV-
aVdata science
p45
aVcapital one
p46
aVdata
p47
aVcenter everything
p48
aVlaunched startup
p49
aVdisrupted credit
p50
aVcard industry
p51
aVindividually personalizing
p52
aVevery credit
p53
aVcard offer
p54
aVusing statistical
p55
aVmodeling relational
p56
aVdatabase cutting
p57
aVedge technology
p58
aV1988 fast-forward
p59
aVyear little
p60
aVinnovation passion
p61
aVdata skyrocketed
p62
aVu fortune
p63
aV200 company
p64
aVleader world
p65
aVdata-driven decision-making
p66
aVdata scientist
p67
aVcapital one
p68
aVyou'll part
p69
aVteam that's
p70
aVleading next
p71
aVwave disruption
p72
aVwhole new
p73
aVscale using
p74
aVlatest distributed
p75
aVcomputing technology
p76
aVoperating across
p77
aVbillion billion
p78
aVcustomer transaction
p79
aVunlock big
p80
aVopportunity
p81
aVhelp everyday
p82
aVpeople save
p83
aVmoney time
p84
aVagony financial
p85
aVlife
p86
aVgiven day
p87
aVyou'll
p88
aVusing big
p89
aVdata
p90
aVtool hadoop
p91
aVspark h2o
p92
aVaws conduct
p93
aVanalysis billion
p94
aVcustomer transaction
p95
aVrecord
p96
aVwriting software
p97
aVclean investigate
p98
aVlarge messy
p99
aVdata set
p100
aVnumerical textual
p101
aVdata
p102
aVintegrating external
p103
aVdata source
p104
aVapis discover
p105
aVinteresting trend
p106
aVbuilding
p107
aVmachine learning
p108
aVmodel
p109
aVdevelopment testing
p110
aVvalidation 30+
p111
aVmillion customer
p112
aVproduction
p113
aVdesigning rich
p114
aVdata visualization
p115
aVcommunicate complex
p116
aVidea customer
p117
aVcompany leader
p118
aVinvestigating impact
p119
aVnew technology
p120
aVfuture digital
p121
aVbanking financial
p122
aVworld tomorrow
p123
aVideal candidate
p124
aVcurious ask
p125
aVexplore you're
p126
aVafraid blurt
p127
aVdisruptive idea
p128
aVprobably know
p129
aVpython scala
p130
aVr you're
p131
aVconstantly exploring
p132
aVnew open
p133
aVsource tool
p134
aVwrangler know
p135
aVprogrammatically extract
p136
aVdata
p137
aVdatabase api
p138
aVbring transformation
p139
aVtwo model
p140
aVhuman-readable form
p141
aVroc curve
p142
aVmap d3
p143
aVvisualization tableau
p144
aVetc
p145
aVcreative big
p146
aVundefined problem
p147
aVpetabyte data
p148
aVdon't frighten
p149
aVyou're used
p150
aVworking abstract
p151
aVdata
p152
aVlove discovering
p153
aVnew narrative
p154
aVunmined territory
p155
aVtwenty-five year
p156
aVcapital one
p157
aVstarted it's
p158
aVstill led
p159
aVfounder ready
p160
aVjoin community
p161
aVsmartest people
p162
aVyou've ever
p163
aVmet see
p164
aVcustomer first
p165
aVwant use
p166
aVdata
p167
aVskill
p168
aVmake difference
p169
aVbasic qualification
p170
aVbachelor's degree
p171
aVmilitary experience
p172
aVleast 2
p173
aVyears' experience
p174
aVopen source
p175
aVprogramming language
p176
aVlarge scale
p177
aVdata
p178
aVanalysis
p179
aVleast 2
p180
aVyears' experience
p181
aVmachine learning
p182
aVleast 2
p183
aVyears' experience
p184
aVrelational database
p185
aVpreferred qualification
p186
aVmaster's degree
p187
aVphd
p188
aVleast 1
p189
aVyear experience
p190
aVworking aws
p191
aVleast 4
p192
aVyears' experience
p193
aVpython scala
p194
aVr
aVlarge scale
p195
aVdata
p196
aVanalysis
p197
aVleast 4
p198
aVyears' experience
p199
aVmachine learning
p200
aVleast 4
p201
aVyears' experience
p202
aVsql
p203
aVcapital one
p204
aVconsider sponsoring
p205
aVnew qualified
p206
aVapplicant employment
p207
aVauthorization position
p208
aVtbli
p209
aVagency please
p210
aVcapital one
p211
aVequal opportunity
p212
aVemployer committed
p213
aVdiversity workplace
p214
aVqualified applicant
p215
aVreceive consideration
p216
aVemployment without
p217
aVregard gender
p218
aVrace color
p219
aVage national
p220
aVorigin religion
p221
aVdisability genetic
p222
aVinformation marital
p223
aVstatus sexual
p224
aVorientation gender
p225
aVidentity assignment
p226
aVcitizenship pregnancy
p227
aVmaternity protected
p228
aVveteran status
p229
aVstatus protected
p230
aVapplicable national
p231
aVfederal state
p232
aVlocal law
p233
aVcapital one
p234
aVpromotes drug-free
p235
aVworkplace capital
p236
aVone consider
p237
aVemployment qualified
p238
aVapplicant criminal
p239
aVhistory manner
p240
aVconsistent requirement
p241
aVapplicable law
p242
aVregarding criminal
p243
aVbackground inquiry
p244
aVincluding extent
p245
aVapplicable article
p246
aV23-a new
p247
aVyork correction
p248
aVlaw san
p249
aVfrancisco california
p250
aVpolice code
p251
aVarticle 49
p252
aVsection 4901-4920
p253
aVnew york
p254
aVcity's fair
p255
aVchance act
p256
aVphiladelphia's fair
p257
aVcriminal record
p258
aVscreening act
p259
aVapplicable federal
p260
aVstate local
p261
aVlaw regulation
p262
aVregarding criminal
p263
aVbackground inquiry
p264
aVrequire accommodation
p265
aVapply job
p266
aVperform job
p267
aVplease contact
p268
aVcapital one
p269
aVrecruiting 1-800-304-9102
p270
a.