(lp1
Vu
aVever
p2
aVopportunity
p3
aVimpact life
p4
aVmillion people
p5
aVmeaningful way
p6
aVhelp
p7
aVenjoy time
p8
aVaway friend
p9
aVfamily building
p10
aVmemory
p11
aVhomeaway.com
p12
aVexpedia inc
p13
aVcompany
p14
aVleading vacation
p15
aVrental website
p16
aVworld
p17
aVone
p18
aVmillion online
p19
aVbookable vacation
p20
aVrental mission
p21
aVmake
p22
aVevery vacation
p23
aVrental world
p24
aVavailable every
p25
aVtraveler world
p26
aVonline marketplace
p27
aVwe're committed
p28
aVhelping family
p29
aVfriend find
p30
aVperfect vacation
p31
aVrental create
p32
aVunforgettable travel
p33
aVexperience
p34
aVtogether
p35
aVopportunity
p36
aVwant work
p37
aVexciting
p38
aVhigh-energy
p39
aVrole responsible
p40
aVhelping
p41
aVchange face
p42
aVonline
p43
aVtravel
p44
aVprincipal
p45
aVproduct manager
p46
aVmarketplace ranking
p47
aVdrive
p48
aVhomeaway's
p49
aVranking relevance
p50
aVplatform
p51
aValgorithm
p52
aVrole would
p53
aVresponsible
p54
aVdesign
p55
aValgorithm
p56
aVdrive
p57
aVranking relevance
p58
aVsort
p59
aVvacation rental
p60
aVcritical
p61
aVdriver
p62
aVconversion
p63
aVrevenue
p64
aVsuccessful
p65
aVindividual
p66
aVable
p67
aVseamlessly
p68
aVspan
p69
aVtechnology
p70
aVrevenue management
p71
aVmarket
p72
aVmanagement
p73
aVdata science
p74
aVanalytics
p75
aVteam
p76
aVcreate
p77
aVimplement
p78
aVcompelling
p79
aVproduct
p80
aVdrive
p81
aVgreatest
p82
aVconversion
p83
aVvacation rental
p84
aVsearch
p85
aVbring
p86
aVexperience
p87
aVcreativity
p88
aVcommunication collaboration
p89
aVskill
p90
aVdesire
p91
aVbest
p92
aVjoin u
p93
aVcontinue reinvent
p94
aVtravel
p95
aVprimary responsibility
p96
aVlead marketplace
p97
aVranking
p98
aVproduct line
p99
aVteam
p100
aVownership
p101
aVcore
p102
aVranking relevance
p103
aValgorithm
p104
aVtechnology
p105
aVplatform
p106
aVdevelop execute
p107
aVvision strategy
p108
aVroadmap
p109
aVensuring
p110
aVevery
p111
aVhomeaway
p112
aVtraveler
p113
aVeasily
p114
aVfind perfect
p115
aVvacation rental
p116
aVvia
p117
aVrelevancy
p118
aVmodel
p119
aVdrive
p120
aValgorithm
p121
aValign
p122
aVinterest
p123
aVtraveler
p124
aVowner
p125
aVhomeaway
p126
aVleading
p127
aVincreased customer
p128
aVrelevance
p129
aVgreater
p130
aVmarketplace
p131
aVcontribution
p132
aVperformance
p133
aVteam
p134
aVtraveler
p135
aVpartner
p136
aVmobile
p137
aVproduct line
p138
aVteam
p139
aVdeliver holistic
p140
aVsearch
p141
aVexperience
p142
aVhomeaway's
p143
aVonline
p144
aVmulti-channel
p145
aVplatform
p146
aVact
p147
aVproduct
p148
aVchampion
p149
aVevangelize
p150
aVproduct
p151
aVvision
p152
aVeffectively
p153
aVstakeholder
p154
aVindependently
p155
aVdrive alignment
p156
aVproduct
p157
aVrequirement
p158
aVevolve
p159
aVmarketplace
p160
aValgorithm
p161
aVbuild
p162
aVmeasure
p163
aVlearn
p164
aVapproach
p165
aVinformed
p166
aVb testing
p167
aVstatistical analysis
p168
aVsearch
p169
aVbehavior
p170
aVconduct
p171
aVcompetitive
p172
aVanalysis
p173
aVidentify gap
p174
aVopportunity
p175
aVinform
p176
aVproduct roadmap
p177
aVsort
p178
aVplatform
p179
aVwork closely
p180
aVdata scientist
p181
aVtechnical
p182
aVleader understand
p183
aVdevelop
p184
aVbusiness case
p185
aVinnovative revolutionary
p186
aVdisruptive
p187
aVnew
p188
aVcapability
p189
aVcollaborate
p190
aVdevelopment
p191
aVteam
p192
aVevaluate
p193
aVtechnical
p194
aVoption
p195
aVwork closely
p196
aVbusiness
p197
aVtechnology
p198
aVteam
p199
aVprioritize
p200
aVschedule
p201
aVenhancement new
p202
aVfeature
p203
aVfix
p204
aVdrive cross
p205
aVgroup
p206
aVworking
p207
aVsession
p208
aVensure alignment
p209
aVstrategic initiative
p210
aVmanage
p211
aVresolution
p212
aVurgent
p213
aVtechnical issue
p214
aVcommunicating
p215
aVglobal
p216
aVbusiness stakeholder
p217
aVescalating
p218
aVnecessary
p219
aVensure timely
p220
aVresolution
p221
aVminimize
p222
aVbusiness
p223
aVimpact
p224
aVtrack report
p225
aVkey metric
p226
aVrequired skill
p227
aVexperience
p228
aV5+ years'
p229
aVproduct management
p230
aVexperience
p231
aVunderstanding
p232
aVcommunicating
p233
aVprioritizing
p234
aVtechnology
p235
aVbusiness
p236
aVrequirement
p237
aVself-starter demonstrated
p238
aVstrength
p239
aVmanaging multiple
p240
aVproject simultaneously
p241
aVdriving
p242
aVcompletion
p243
aVlimited direction
p244
aVability
p245
aVevangelize
p246
aVarticulate
p247
aVinnovative
p248
aVtechnology
p249
aVtechnical non-technical
p250
aVaudience
p251
aVproven
p252
aVskill
p253
aVcultivating
p254
aVstrong
p255
aVworking relationship
p256
aVdriving
p257
aVcollaboration across
p258
aVmultiple
p259
aVbusiness
p260
aVtechnical
p261
aVteam
p262
aVproven
p263
aVinfluencing skill
p264
aVability manage
p265
aVexpectation
p266
aVbusiness partner
p267
aVmaintaining
p268
aVproductive relationship
p269
aVdemonstrated ability
p270
aVdesign build
p271
aVmanage
p272
aVhighly complex
p273
aVproject
p274
aVproven
p275
aVknowledge
p276
aVstatistic economics
p277
aVe-commerce
p278
aVstandard best
p279
aVpractice
p280
aVstrong track
p281
aVrecord managing
p282
aVcomplex project
p283
aVschedule
p284
aVresource
p285
aVcommunication
p286
aVexperience
p287
aVagile methodology
p288
aVplus
p289
aVsolid understanding
p290
aVtechnical concept
p291
aVarchitecture
p292
aVsoftware engineering
p293
aVrequirement
p294
aVprevious experience
p295
aVsoftware engineering
p296
aVplus
p297
aVdemonstrated ability
p298
aVuse
p299
aVsql hql
p300
aVobtain
p301
aVdata
p302
aVanalysis
p303
aVdecision making
p304
aVexperience working
p305
aVmanaging
p306
aVdata scientist
p307
aVpreferred
p308
aVexperience
p309
aVtravel
p310
aVvertical
p311
aV+
aVecommerce
p312
aVincluding
p313
aVbehavioral
p314
aVanalysis
p315
aVoptimization
p316
aVplus
p317
aVb computer
p318
aVscience equivalent
p319
aVbenefit
p320
aVcompetitive
p321
aVhealth insurance
p322
aVbenefit
p323
aVcompetitive salary
p324
aVannual target
p325
aVbonus commission
p326
aVpaid vacation
p327
aVsick time
p328
aVvacation rental
p329
aVyearly basis
p330
aVtaxable benefit
p331
aVemployee stock
p332
aVpurchase program
p333
aVfree snack
p334
aVbeverage
p335
aVfrequent company
p336
aVupdate talk
p337
aVleadership
p338
aVteam
p339
aVfree listing
p340
aVhomeaway.com
p341
aVelectric adjustable
p342
aVstand-up desk
p343
aVdiscounted metro
p344
aVrail pa
p345
aVcasual dress
p346
aVcode
p347
a.