(lp1
Vever
p2
aVopportunity
p3
aVimpact life
p4
aVmillion people
p5
aVmeaningful way
p6
aVhelp
p7
aVenjoy time
p8
aVaway friend
p9
aVfamily building
p10
aVmemory homeaway.com.
p11
aVleading vacation
p12
aVrental website
p13
aVtwo million
p14
aVonline bookable
p15
aVvacation rental
p16
aVmission make
p17
aVevery vacation
p18
aVrental world
p19
aVavailable every
p20
aVtraveler
p21
aVonline marketplace
p22
aVwe're committed
p23
aVhelping family
p24
aVfriend find
p25
aVperfect vacation
p26
aVrental create
p27
aVunforgettable travel
p28
aVexperience
p29
aVtogether
p30
aVengineering
p31
aVsolve problem
p32
aVscale
p33
aVwork
p34
aVcutting edge
p35
aVopen-source technology
p36
aVculture
p37
aVone strives
p38
aVsolving difficult
p39
aVproblem
p40
aVfocusing
p41
aVproduct
p42
aVengineering
p43
aVbased
p44
aVhypothesis testing
p45
aVempower people
p46
aVcome idea
p47
aVunderstand
p48
aVmission
p49
aVhomeaway
p50
aVwatch
p51
aVad
p52
aVprince
p53
aVea
p54
aVworking
p55
aVlive
p56
aVliving
p57
aVwork
p58
aVyoutube
p59
aVchannel
p60
aVvisit
p61
aVtech blog
p62
aVhttp
p63
aVtech.homeaway.com
p64
aVjob description
p65
aVlove
p66
aVdata science
p67
aVtechnology
p68
aVcoding vacation
p69
aVwant part
p70
aVteam
p71
aVcome together
p72
aVwant
p73
aVchance
p74
aVdrive
p75
aVextraordinary
p76
aVexperience
p77
aVtraveler
p78
aVconnecting million
p79
aVvacation rental
p80
aVproperty passionate
p81
aVbuilding
p82
aVputting
p83
aVcomplex
p84
aVmodel production
p85
aVsolve relevance
p86
aVpersonalization
p87
aVproblem
p88
aVgreat
p89
aVmodel
p90
aVtesting
p91
aVevaluation
p92
aVusing
p93
aVscientific
p94
aVapproach
p95
aVfeature engineering
p96
aVhomeaway
p97
aVdata scientist
p98
aVrole would
p99
aVlike talk
p100
aVcontent
p101
aVmedium
p102
aVteam responsible
p103
aVcore
p104
aVtext
p105
aVmedium
p106
aVaggregation
p107
aVintelligence
p108
aVservice
p109
aVwithin
p110
aVhomeaway
p111
aVsystem
p112
aVhandle
p113
aVautomatic content
p114
aVsourcing
p115
aVusing
p116
aVstructured unstructured
p117
aVdata
p118
aValong
p119
aVcrawling
p120
aVsemantic web
p121
aVbuild
p122
aVknowledge
p123
aVgraph
p124
aVdestination
p125
aVpoint interest
p126
aVinformation
p127
aVproduct
p128
aVpresent
p129
aVinformation
p130
aVtraveler
p131
aVconvey
p132
aVbest
p133
aVattribute
p134
aVdestination
p135
aVvacation rental
p136
aVhomeaway
p137
aVbest
p138
aVoption
p139
aVadditionally
p140
aVsystem
p141
aVderive
p142
aVsignal
p143
aVmillion
p144
aVdata
p145
aVpoint collect
p146
aVuser
p147
aVmake
p148
aVrest
p149
aVhomeaway
p150
aVbetter
p151
aVsystem
p152
aVworking
p153
aVclassify
p154
aVimage
p155
aVscale
p156
aVunderstand
p157
aVcontent
p158
aVlie within
p159
aVimage
p160
aVgenerate
p161
aVcaption
p162
aVtext
p163
aVreverse
p164
aVimage
p165
aVsearch
p166
aVtechnology
p167
aVfind
p168
aVfraudulent
p169
aVlisting
p170
aVrelated
p171
aVproperty
p172
aVrecommendation system
p173
aVautomatically
p174
aVderive
p175
aVuser
p176
aVinterest
p177
aVusing
p178
aVpassive
p179
aVsignal
p180
aVlike
p181
aVdwell
p182
aVtime
p183
aVphoto
p184
aVexpand
p185
aVautomatically
p186
aVgenerate
p187
aVquality
p188
aVscore
p189
aVimagery
p190
aVsubmitted
p191
aVuser
p192
aVowner
p193
aVfeed
p194
aVback
p195
aVpart
p196
aVsystem automatic
p197
aVtext
p198
aVgeneration
p199
aVstructured unstructured
p200
aVinput
p201
aVlike
p202
aVamenity
p203
aVnearby
p204
aVattraction
p205
aVentity extraction
p206
aVunstructured text
p207
aVresponsibility
p208
aVserve
p209
aVdata guru
p210
aVcompany
p211
aV- i.e
p212
aVaware
p213
aVdata stream
p214
aVcollected
p215
aVcompany
p216
aVformat structured
p217
aVunstructured semi-structured
p218
aVexternal api
p219
aVetc
p220
aVwork
p221
aVlarger program
p222
aVinitiative encompassing
p223
aVseveral
p224
aVproject
p225
aVcompany-wide
p226
aVimpact
p227
aVassist others
p228
aVdata
p229
aVdiscovery
p230
aVdata preparation
p231
aVphase
p232
aVunderstand
p233
aVbig picture
p234
aVdata
p235
aVpresent
p236
aVwork closely
p237
aVvarious
p238
aVproduct
p239
aVbusiness
p240
aVengineering team
p241
aVframe analytic
p242
aVproblem statement
p243
aVresponse
p244
aVbusiness
p245
aVproduct
p246
aVchallenge
p247
aVauthority
p248
aVexploratory phase
p249
aVprescriptive
p250
aVanalysis
p251
aV- i.e
p252
aVbuild
p253
aVas model
p254
aVreview
p255
aVresult
p256
aVetc
p257
aVdeployment
p258
aVvarious
p259
aVmodel production
p260
aVarticulate storytelling
p261
aVbusiness
p262
aVproduct
p263
aVleader
p264
aV- i.e
p265
aVfocus telling
p266
aVbusiness
p267
aVstory
p268
aVdata
p269
aVshow abstract
p270
aVdata
p271
aVcomplexity
p272
aVprocess
p273
aVinvolved
p274
aVstrong
p275
aVinfluence
p276
aVaudience
p277
aVqualification
p278
aV8+ year
p279
aVexperience
p280
aVdata science
p281
aVanalytics
p282
aVfield
p283
aVexperience
p284
aVprogramming language
p285
aVr python
p286
aVscala
p287
aVexperience
p288
aVprocessing analyzing
p289
aVlarge scale
p290
aVdata
p291
aVvolume semi-structured
p292
aVunstructured data
p293
aVnear real-time
p294
aVthroughput
p295
aVexperience working
p296
aVhadoop ecosystem
p297
aVexperience building
p298
aVvarious
p299
aVmachine learning
p300
aVmodel
p301
aVstrong
p302
aVdatabase
p303
aVknowledge
p304
aVexpertise
p305
aVsql
p306
aVexperience
p307
aVusing
p308
aVvisualization tool
p309
aVtableau datameer
p310
aVgood storytelling
p311
aVpresentation skill
p312
aVi.e able
p313
aVpresent
p314
aVbusiness
p315
aVside story
p316
aVdata
p317
aVpresent c-team
p318
aVbusiness leader
p319
aVmaster ph.d
p320
aVstatistic math
p321
aVcomputer science
p322
aVquantitative field
p323
aVbenefit
p324
aVcompetitive
p325
aVhealth insurance
p326
aVbenefit
p327
aVcompetitive salary
p328
aVannual target
p329
aVbonus commission
p330
aVpaid vacation
p331
aVsick time
p332
aVvacation rental
p333
aVyearly basis
p334
aVtaxable benefit
p335
aVemployee stock
p336
aVpurchase program
p337
aVfree snack
p338
aVbeverage
p339
aVfrequent company
p340
aVupdate talk
p341
aVleadership
p342
aVteam
p343
aVfree listing
p344
aVhomeaway.com
p345
aVelectric adjustable
p346
aVstand-up desk
p347
aVdiscounted metro
p348
aVrail pa
p349
aVcasual dress
p350
aVcode
p351
a.