(lp1
Vpurpose
p2
aVjobimportant
p3
aVexternal
p4
aVapplicant filling
p5
aVname personal
p6
aVinformation
p7
aVuse
p8
aVspecial character
p9
aVcap use
p10
aVstandard letter
p11
aVenglish alphabet
p12
aVincluding
p13
aVspecial character
p14
aVuppercase letter
p15
aVcause error
p16
aVapplication
p17
aVcurrently seeking
p18
aVtalented
p19
aVdata scientist
p20
aVsan antonio
p21
aVtx facility
p22
aVdata scientist
p23
aVu
aVadvanced
p24
aVtechnique
p25
aVintegrate traditional
p26
aVnon-traditional datasets
p27
aVmethod
p28
aVenable
p29
aVanalytical solution
p30
aVapplies
p31
aVpredictive analytics
p32
aVmachine learning
p33
aVsimulation optimization
p34
aVtechnique
p35
aVgenerate
p36
aVmanagement
p37
aVinsight
p38
aVenable customer-facing
p39
aVapplication
p40
aVparticipates
p41
aVbuilding
p42
aVanalytical solution
p43
aVleveraging internal
p44
aVexternal
p45
aVapplication
p46
aVdeliver
p47
aVvalue
p48
aVcreate competitive
p49
aVadvantage translates
p50
aVcomplex analytical
p51
aVtechnical concept
p52
aVnon-technical
p53
aVemployee
p54
aVjob requirement
p55
aVpartner
p56
aVanalyst
p57
aVacross organization
p58
aVfully define
p59
aVbusiness problem
p60
aVresearch
p61
aVquestion
p62
aVsupport
p63
aVsme's
p64
aVcross functional
p65
aVmatrixed
p66
aVteam
p67
aVsolve
p68
aVhighly complex
p69
aVwork
p70
aVcritical
p71
aVorganization
p72
aVintegrates extract
p73
aVrelevant information
p74
aVlarge amount
p75
aVstructured unstructured
p76
aVdata
p77
aVinternal external
p78
aVenable
p79
aVanalytical solution
p80
aVconduct advanced
p81
aVanalytics
p82
aVleveraging
p83
aVpredictive modeling
p84
aVmachine learning
p85
aVsimulation optimization
p86
aVtechnique
p87
aVdeliver insight
p88
aVdevelop
p89
aVanalytical solution
p90
aVachieve
p91
aVbusiness objective
p92
aVsupport
p93
aVsubject matter
p94
aVexpert
p95
aVsme's
p96
aVeffort
p97
aVdevelop scalable
p98
aVefficient automated
p99
aVsolution
p100
aVlarge scale
p101
aVdata
p102
aVanalysis
p103
aVmodel
p104
aVdevelopment
p105
aVmodel validation
p106
aVmodel
p107
aVimplementation
p108
aVwork
p109
aVresearch
p110
aVarchitecture
p111
aVnew
p112
aVproduct service
p113
aVfeature
p114
aVdevelops
p115
aValgorithm
p116
aVsupporting
p117
aVcode
p118
aVresearch
p119
aVeffort
p120
aVbased
p121
aVhighest quality
p122
aVdata
p123
aVtranslates complex
p124
aVanalytical
p125
aVtechnical concept
p126
aVnon-technical
p127
aVemployee
p128
aVenable
p129
aVunderstanding
p130
aVdrive informed
p131
aVbusiness decision
p132
aVminimum requirement
p133
aVmaster's degree
p134
aV1 year
p135
aVpredictive modeling
p136
aVlarge
p137
aVdata
p138
aVanalysis
p139
aVcomputer science
p140
aVexperience
p141
aVstatistic
p142
aVresearch
p143
aVexperience
p144
aVmachine learning
p145
aVadvanced mathematical
p146
aVtechnique e.g.
p147
aVneural net
p148
aVsimulation graph
p149
aVanalysis
p150
aVexperience
p151
aVleast one
p152
aVdynamic scripting
p153
aVlanguage python
p154
aVperl ruby
p155
aVjavascript
p156
aVbachelor's degree
p157
aVcomputer science
p158
aVapplied mathematics
p159
aVengineering
p160
aVbusiness
p161
aVanalytics
p162
aVquantitative finance
p163
aVeconomics statistic
p164
aVrelated field
p165
aVqualification
p166
aVmay warrant
p167
aVplacement different
p168
aVjob
p169
aVlevel
p170
aVapply position
p171
aVrequired
p172
aVanswer initial
p173
aVquestion
p174
aVtake
p175
aVapproximately 5
p176
aVminute begin
p177
aVquestion
p178
aVable finish
p179
aVlater time
p180
aVable
p181
aVchange response
p182
aVdescription reflects
p183
aVdetail
p184
aVconsidered necessary
p185
aVdescribe principal
p186
aVfunction job
p187
aVconstrued detailed
p188
aVdescription
p189
aVwork
p190
aVrequirement
p191
aVmay performed
p192
aVjob
p193
aVusaa employee
p194
aVenjoy
p195
aVone
p196
aVbest
p197
aVbenefit package
p198
aVbusiness
p199
aVincluding
p200
aVflexible
p201
aVbusiness casual
p202
aVcasual dress
p203
aVenvironment
p204
aVcomprehensive medical
p205
aVdental vision
p206
aVplan
p207
aValong wellness
p208
aVwealth building
p209
aVprogram
p210
aVadditionally career
p211
aVpath planning
p212
aVcontinuing education
p213
aVassist
p214
aVprofessional
p215
aVgoal
p216
aVusaa also
p217
aVoffer variety
p218
aVon-site service
p219
aVconvenience help
p220
aVmanage
p221
aVwork
p222
aVpersonal
p223
aVlife
p224
aVincluding seven
p225
aVcafeteria two
p226
aVcompany
p227
aVstore three
p228
aVfitness center
p229
aVrelocation assistance
p230
aVavailable position
p231
aVinternal
p232
aVcandidate must
p233
aVcomplete 12
p234
aVmonth current
p235
aVposition
p236
aVdate hire
p237
aVdate placement
p238
aVmust
p239
aVmanager's
p240
aVapproval prior
p241
aVposting
p242
aVlast day
p243
aVinternal
p244
aVcandidate
p245
aVapply
p246
aVopening 3
p247
aV07 17
p248
aV11 59
p249
aVpm cst
p250
aVtime
p251
a.