(lp1
Vplano 3
p2
aV31063 united
p3
aVstate america
p4
aVplano texas
p5
aVsr associate
p6
aVproduct manager
p7
aVmoney central
p8
aVenabler daily
p9
aVlife
p10
aVway interact
p11
aVmoney remained
p12
aVrelatively static
p13
aVindustry undergone
p14
aVmajor transformation
p15
aVdramatic change
p16
aVfinancial service
p17
aVindustry decade
p18
aVoverdue capital
p19
aVone journey
p20
aVbring ingenuity
p21
aVsimplicity humanity
p22
aVback banking
p23
aVmoney never
p24
aVdigit screen
p25
aVu
aVit's
p26
aVsomeone's
p27
aVgrocery first
p28
aVcar
p29
aVnew
p30
aVhome plane
p31
aVticket home
p32
aVholiday measure
p33
aVsuccess
p34
aVcustomer's
p35
aVsuccess
p36
aVquest change
p37
aVindustry
p38
aVshow across
p39
aVbusiness
p40
aVwe're
p41
aVmaking real
p42
aVtime
p43
aVimprovement positively
p44
aVshape customer's
p45
aVfinancial
p46
aVhealth
p47
aVcompany
p48
aVit's
p49
aVenough look
p50
aValso
p51
aVfuture entrepreneurship
p52
aVinnovation deeply
p53
aVingrained dna
p54
aVcompany stemming
p55
aVfounder ceo
p56
aVchairman board
p57
aVrichard fairbanks
p58
aVstartup culture
p59
aVfinancial backing
p60
aVfortune 200
p61
aVcompany
p62
aVteam
p63
aVplano tx
p64
aVcross-functional team
p65
aVproduct manager
p66
aVdesigner
p67
aVdata scientist
p68
aVfull stack
p69
aVdeveloper
p70
aVcommitted transforming
p71
aVauto finance
p72
aVhome loan
p73
aVindustry
p74
aVproduct manager
p75
aVplay critical
p76
aVrole achieving
p77
aVtransformation
p78
aVlead
p79
aVteam
p80
aVdesigner engineer
p81
aVdata scientist
p82
aVanalyst
p83
aVdefine
p84
aVproduct
p85
aVstrategy
p86
aVdevelop launch
p87
aVenhance
p88
aVproduct service
p89
aVdrive business
p90
aVforward
p91
aVproduct
p92
aVleader
p93
aVrelentlessly push
p94
aVunderstand
p95
aVcustomer need
p96
aVensures
p97
aVcustomer
p98
aVconsidered prioritization
p99
aVtrade-off discussion
p100
aVidentify unmet
p101
aVneed disruption
p102
aVopportunity
p103
aVguide interdisciplinary
p104
aVteam
p105
aVdeliver innovative
p106
aVproduct
p107
aVmarket
p108
aVregularly systematically
p109
aVuse
p110
aVdata
p111
aVuncover opportunity
p112
aVtrack
p113
aVproduct
p114
aVperformance
p115
aVdrive decision
p116
aVmaking
p117
aVprioritize negotiate
p118
aVremove blocker
p119
aVorchestrate successful
p120
aVlaunch optimization
p121
aVcycle
p122
aVestablish participate
p123
aVdesign thinking
p124
aVagile lean
p125
aVritual establish
p126
aVrhythm team
p127
aVpromote ongoing
p128
aVcommunication iterative
p129
aVrefinement roadmaps
p130
aVbasic qualification
p131
aVbachelor's degree
p132
aVmilitary experience
p133
aVleast 1
p134
aVyear experience
p135
aVdigital
p136
aVproduct management
p137
aVpreferred qualification
p138
aVbachelor's degree
p139
aVcomputer science
p140
aVengineering
p141
aVtime capital
p142
aVone sponsor
p143
aVnew
p144
aVapplicant employment
p145
aVauthorization position
p146
a.