(lp1
Vjob description
p2
aVperformance metric
p3
aVdata
p4
aVanalytics
p5
aVteam
p6
aVanalytic
p7
aVteam
p8
aVprovides full
p9
aVrange
p10
aVanalytics
p11
aVglobal banking
p12
aVmarket
p13
aVoperation
p14
aVsenior leadership
p15
aVwell vertical
p16
aVteam focused
p17
aVcorporate commercial
p18
aVclient range
p19
aVanalytical
p20
aVsupport functionally
p21
aVorganized
p22
aVbusiness intelligence
p23
aVdelivery adhoc
p24
aVbusiness
p25
aVanalysis
p26
aVadvanced analytics
p27
aVhoshin reporting
p28
aV-
aVleveraging centralized
p29
aVrepository core
p30
aVcompetence team
p31
aVrepository
p32
aVability
p33
aVintegrate broad
p34
aVscope
p35
aVdata
p36
aVclient
p37
aVlevel
p38
aVmultiple
p39
aVinternal
p40
aVsystem
p41
aVrecord sor
p42
aVrepository managed
p43
aVseparate functional
p44
aVdata
p45
aVintegration
p46
aVteam
p47
aVdata scientist
p48
aVresponsible enabling
p49
aVanalysis producing
p50
aVinformation
p51
aVproduct
p52
aVinvolved research
p53
aVdevelopment effort
p54
aVtraditional programming
p55
aVsa sql
p56
aVbusiness intelligence
p57
aVi.e. spotfire
p58
aVtableau qlik
p59
aVexperience
p60
aVpreferred
p61
aVcandidate
p62
aVability
p63
aVsupport creation
p64
aVsophisticated value-added
p65
aVanalytic
p66
aVsystem
p67
aVsupport
p68
aVrevenue generation
p69
aVrisk management
p70
aVoperational efficiency
p71
aVregulatory compliance
p72
aVportfolio management
p73
aVresearch
p74
aVsystem
p75
aVmust overcome
p76
aVissue
p77
aVcomplex
p78
aVdata
p79
aVe.g. vldb
p80
aVmulti-structured big
p81
aVdata
p82
aVetc
p83
aVwell
p84
aVdeployment
p85
aVadvanced
p86
aVtechnique e.g.
p87
aVtext mining
p88
aVstatistical analysis
p89
aVetc
p90
aVdeliver insight
p91
aVrole often
p92
aVposse
p93
aVdegree
p94
aVhard
p95
aVscience another
p96
aVheavy quantitative
p97
aVbusiness
p98
aVsocial
p99
aVdiscipline
p100
aVable work
p101
aVindependently
p102
aVteam
p103
aVcomplex project
p104
aVposition overview
p105
aVdata scientist
p106
aVconduct end-to-end
p107
aVdata
p108
aVsourcing includes
p109
aVdefining
p110
aVbusiness
p111
aVrequirement
p112
aVpeer functional
p113
aVteam
p114
aVengaging sor
p115
aVowner obtaining
p116
aVdata feed
p117
aVrepository integration
p118
aVintegrating
p119
aVdata
p120
aVclient
p121
aVlevel
p122
aVimplementing
p123
aVdata
p124
aVquality
p125
aVbest practice
p126
aVdata
p127
aVdevelop
p128
aVsubject matter
p129
aVexpertise sme
p130
aVknowledge
p131
aVspecific
p132
aVdata source
p133
aVrepresent sme
p134
aVknowledge
p135
aVservice
p136
aVpeer functional
p137
aVteam
p138
aVanalytical project
p139
aVconduct adhoc
p140
aVanalytics
p141
aVsupport directed
p142
aVsupport
p143
aVfunctional team
p144
aVrequest sme
p145
aVlimitation capacity
p146
aVexceeded
p147
aVdevelop
p148
aVbusiness
p149
aVtechnical
p150
aVskill
p151
aVset
p152
aVtime
p153
aVspecific peer
p154
aVfunctional team
p155
aVorder provide
p156
aVexpanded capacity
p157
aVacross broader
p158
aVteam
p159
aVparticipate
p160
aVbusiness partner
p161
aVdepartment meeting
p162
aVlead
p163
aVrequirement gathering
p164
aVideation design
p165
aVthinking prototyping
p166
aVinteractive
p167
aVdata
p168
aVsession providing
p169
aVadvanced
p170
aVvisualization
p171
aVinteract vendor
p172
aVenhancement issue
p173
aVsoftware
p174
aVinnovate advance
p175
aVbi
p176
aVservice
p177
aVi.e. best
p178
aVclass
p179
aVtool commensurate
p180
aVbusiness partner
p181
aVdepartment
p182
aVneed
p183
aVdrive continuous
p184
aVimprovement keep
p185
aVbi architecture
p186
aVsolution aligned
p187
aVcurrent future
p188
aVbusiness need
p189
aVrole requires
p190
aVmixture
p191
aVdata
p192
aVanalysis
p193
aVtechnical
p194
aVproject management
p195
aVenterprise
p196
aVdata
p197
aVmanagement
p198
aVdatabase technician
p199
aVrole
p200
aVoffer
p201
aVcandidate
p202
aVability
p203
aVgrow career
p204
aVacross broad
p205
aVrange
p206
aVanalytic
p207
aVdiscipline lateral
p208
aVrotation peer
p209
aVfunctional team
p210
aVcontinue
p211
aVlearning
p212
aVdevelopment
p213
aVcommon practice
p214
aVmember
p215
aVteam
p216
aVget hands-on
p217
aVexperience
p218
aVcorporate commercial
p219
aVclient
p220
aVexperience
p221
aVoperational
p222
aVdata
p223
aVspan full
p224
aVrange
p225
aVglobal banking
p226
aVmarket
p227
aVrelationship
p228
aVrequired skill
p229
aV2-3 year
p230
aVapplied
p231
aVsa programming
p232
aV3-5 year
p233
aVsql programming
p234
aVcomplex rdbms
p235
aVdata structure
p236
aVadvanced degree
p237
aVquantitative discipline
p238
aVdata science
p239
aVmachine learning
p240
aVstatistic mathematics
p241
aVoperation research
p242
aVetc formal
p243
aVtraining
p244
aVpreferred
p245
aVsignificant exposure
p246
aVwork
p247
aVself driven
p248
aVtenacious approach
p249
aVtowards
p250
aVproject
p251
aVability translate
p252
aVstrategic guidance
p253
aVintent tactical
p254
aVexecution
p255
aVsolid
p256
aVexperience
p257
aVanswering business
p258
aVquestion
p259
aVanalytics
p260
aVproactively uncovers
p261
aVopportunity
p262
aVimprovement
p263
aVability translate
p264
aVcomplex
p265
aVbusiness problem
p266
aVdiscrete quantifiable
p267
aVcomponent
p268
aVexcellent written
p269
aVverbal communication
p270
aVskill
p271
aVcandidate
p272
aVexperience working
p273
aVfinancial service
p274
aVenvironment
p275
aVcandidate must
p276
aVable work
p277
aVmultifunctional team
p278
aVenvironment
p279
aVwell independently
p280
aVability understand
p281
aVcommunicate technical
p282
aVdata
p283
aVbusiness
p284
aVknowledge
p285
aVdata
p286
aVdesired skill
p287
aVunderstanding treasury
p288
aVcredit
p289
aVglobal
p290
aVmarket
p291
aVproduct
p292
aVwell
p293
aVservice fulfillment
p294
aVoperation
p295
aVcorporate commercial
p296
aVclient
p297
aVexperience
p298
aVsa
p299
aVdata
p300
aVintegration studio
p301
aVsa
p302
aVweb studio
p303
aVsa
p304
aVinformation
p305
aVmap studio
p306
aVexperience
p307
aVr java
p308
aVpython html
p309
aVexperience
p310
aVusing
p311
aVbusiness intelligence
p312
aVtool spotfire
p313
aVqlik tableau
p314
aVconsulting
p315
aVexperience
p316
aVmba
p317
aVposting date
p318
aV03 29
p319
aV2017
p320
aVlocation us-fl-jacksonville
p321
aVus-nc-charlotte us-tx-richardson
p322
aVtravel
p323
aVfull part-time
p324
aVfull time
p325
aVhour per
p326
aVweek 40
p327
aVshift 1st
p328
aVshift
p329
a.