(lp1
Vhiring
p2
aVdepartment
p3
aVctr
p4
aVspace
p5
aVresearch
p6
aVmonthly
p7
aVsalary
p8
aV4
aV950
p9
aV-
aV7
aV826
p10
aVhour per
p11
aVweek
p12
aV40.00
p13
aVstandard
p14
aV800am
p15
aV500pm
p16
aVposting
p17
aVnumber
p18
aV16-05-24-01-4208
p19
aVjob
p20
aVstatus
p21
aVopen
p22
aVflsa status
p23
aVexempt
p24
aVearliest
p25
aVstart date
p26
aVimmediately
p27
aVposition
p28
aVduration
p29
aVfunding
p30
aVexpected
p31
aVcontinue
p32
aVposition
p33
aVopen
p34
aVapplicant
p35
aVlocation
p36
aVmcc
p37
aVbuilding
p38
aVnorthwest
p39
aVaustin
p40
aVnumber
p41
aVvacancy
p42
aV1
aVgeneral
p43
aVnote
p44
aVmust authorized
p45
aVwork united
p46
aVstate
p47
aVfull-time basis
p48
aVemployer
p49
aVoccasional
p50
aVuse
p51
aVpersonal
p52
aVvehicle
p53
aVmay required
p54
aVjob function
p55
aVrequired
p56
aVapplication
p57
aVmaterial
p58
aVresume
p59
aVrequired
p60
aVorder
p61
aVapply
p62
aVletter interest
p63
aVrequired
p64
aVorder
p65
aVapply
p66
aVlist
p67
aV3
aVreference required
p68
aVorder
p69
aVapply
p70
aVadditional information
p71
aVpurpose
p72
aVresearch
p73
aVvirtualized
p74
aVspatial
p75
aVdatabase
p76
aVcomputing infrastructure
p77
aVrelated
p78
aVemergency preparedness
p79
aVresponse
p80
aVspace-based
p81
aVearth observation
p82
aVgeospatial
p83
aVtechnology
p84
aVinteracts
p85
aVteam
p86
aVmaintain current
p87
aVprocess
p88
aVdevelop innovative
p89
aVtool
p90
aVinteracts
p91
aVcenter
p92
aVscientist
p93
aVexternal client
p94
aVessential function
p95
aVbuild
p96
aVload
p97
aVmaintains
p98
aVscript
p99
aVallow
p100
aVheadless
p101
aVcommunication
p102
aVconfiguration
p103
aVapplication
p104
aVtool
p105
aVbuild
p106
aVtest implement
p107
aVmaintains
p108
aVpostgresql
p109
aVmicrosoft sql
p110
aVserver
p111
aVlegacy
p112
aVarcgis
p113
aVsde
p114
aVdatabase
p115
aVapplication
p116
aVreport
p117
aVinformation
p118
aVissue
p119
aVclearly
p120
aVtimely manner
p121
aVtechnical non-technical
p122
aVpersonnel
p123
aVcreates maintains
p124
aVvisualizes
p125
aVdata
p126
aVmany different
p127
aVsource
p128
aVcohesive
p129
aVoptimized
p130
aVdata structure
p131
aVuse
p132
aVreal time
p133
aVweb application
p134
aVcritical
p135
aVapplication
p136
aVdesign implement
p137
aVmodular
p138
aVapps
p139
aVtightly
p140
aVbound
p141
aVlevel
p142
aVconfiguration
p143
aVorchestrates
p144
aVapplication
p145
aVapplication
p146
aVdata-driven
p147
aVevent
p148
aVcommunication
p149
aVdocument
p150
aVdatabase
p151
aVcomponent
p152
aVrelationship
p153
aVfunction
p154
aVcomposes
p155
aVeffective
p156
aVquery
p157
aVgenerates
p158
aVreport
p159
aVmaintains
p160
aVdata
p161
aVintegrity
p162
aVapplies
p163
aVdatabase
p164
aVsecurity
p165
aVmeasure
p166
aVimplement
p167
aVbest practice
p168
aVdatabase
p169
aVoptimization
p170
aVdesign implement
p171
aVdatabase backup
p172
aVrestoration
p173
aVstrategy
p174
aVmaintains
p175
aVserver
p176
aVdatabase
p177
aVload balancing
p178
aVusing
p179
aVsoftware hardware
p180
aVtool
p181
aVperforms
p182
aVweekly
p183
aVonsite
p184
aVoffsite
p185
aVinspection
p186
aVserver
p187
aVhardware
p188
aVmaintains
p189
aVhardware
p190
aVincluding
p191
aVstock
p192
aVspare
p193
aVdrive
p194
aVcomponent
p195
aVtroubleshoots
p196
aVproblem
p197
aVfailure
p198
aVconduct full
p199
aVstack
p200
aVresearch development
p201
aVpolyglot persistence
p202
aVconsults
p203
aVuser
p204
aVconcerning
p205
aVinterface
p206
aVoptimally
p207
aVuse
p208
aVdatabase
p209
aVmarginal
p210
aVincidental
p211
aVfunction
p212
aVrelated
p213
aVfunction assigned
p214
aVrequired qualification
p215
aVphd
p216
aVmajor coursework
p217
aVrelated
p218
aVgeospatial
p219
aVscience
p220
aVcomputer science
p221
aVinformation
p222
aVscience
p223
aVgeoscience
p224
aVcomputational
p225
aVscience engineering
p226
aVdiscipline
p227
aVtwo year
p228
aVrelevant experience
p229
aVmaster's degree
p230
aVone
p231
aVdiscipline
p232
aVfour year
p233
aVrelevant experience
p234
aVbachelor's degree
p235
aVone
p236
aVdiscipline
p237
aVsix year
p238
aVrelevant experience
p239
aVequivalent combination
p240
aVrelevant
p241
aVeducation experience
p242
aVmay substituted
p243
aVappropriate
p244
aVdemonstrated experience
p245
aVsql query
p246
aVdatabase administration
p247
aVincluding
p248
aVbackup
p249
aVrestoration
p250
aVgeospatial
p251
aVtechnology
p252
aVdemonstrated
p253
aVcapability
p254
aVwork
p255
aVadminister
p256
aVlinux-based
p257
aVwindows-based
p258
aVserver
p259
aVdemonstrated
p260
aVsuccessful
p261
aVcollaboration
p262
aVit-related
p263
aVgroup
p264
aVdemonstrated experience
p265
aVprocess automation
p266
aVscripting
p267
aVtool
p268
aVdemonstrated ability
p269
aVwork effectively
p270
aVindependently collaboratively
p271
aVteam oriented
p272
aVenvironment
p273
aVmust self-motivated
p274
aVposse strong
p275
aVorganizational skill
p276
aVdemonstrate
p277
aVinitiative
p278
aVlearning
p279
aVcapacity
p280
aVhone technical
p281
aVskill
p282
aVneeded
p283
aVreliable
p284
aVeffective communicator
p285
aVwriting
p286
aVphone
p287
aVelectronically
p288
aVperson
p289
aVequivalent combination
p290
aVrelevant
p291
aVeducation experience
p292
aVmay substituted
p293
aVappropriate
p294
aVpreferred qualification
p295
aVmicrosoft sql
p296
aVserver
p297
aVcertification equivalent
p298
aVexperience
p299
aVdemonstrated expertise
p300
aVgeospatial
p301
aVtechnology
p302
aVincluding
p303
aVarcgis
p304
aVraster
p305
aVdatabase administration
p306
aVexperience
p307
aVdatabase
p308
aVtransaction
p309
aVremote
p310
aVdevice
p311
aVsending
p312
aVrecord ip
p313
aVtelemetry
p314
aVgps
p315
aVrfid
p316
aVetc
p317
aVdemonstrated expertise
p318
aVjavascript jquery
p319
aVexperience
p320
aVweb
p321
aVform
p322
aVconstruction
p323
aVdatabase
p324
aVrecord
p325
aVcollection
p326
aVpresentation
p327
aVadvanced
p328
aVcourse
p329
aVleading
p330
aVmaster's degree
p331
aVgeospatial
p332
aVscience
p333
aVcomputer science
p334
aVinformation
p335
aVscience
p336
aVgeoscience
p337
aVcomputational
p338
aVscience engineering
p339
aVdiscipline
p340
aVworking condition
p341
aVmay
p342
aVwork
p343
aVaround
p344
aVstandard
p345
aVoffice
p346
aVcondition
p347
aVrepetitive
p348
aVuse
p349
aVkeyboard
p350
aVworkstation
p351
aVuse
p352
aVmanual dexterity
p353
aVevening weekend
p354
aVwork
p355
aVrequired
p356
aVstate
p357
aVtexas
p358
aVemergency
p359
aVactivation
p360
aVmay require
p361
aVextended hour
p362
aVon-call
p363
aVduty
p364
aVconcurrent project
p365
aVrapid
p366
aVturnaround
p367
aVdaytime
p368
aVtravel local
p369
aVoffsite
p370
aVfacility
p371
aVoccasional
p372
aVovernight travel
p373
a.