(lp1
Vpart
p2
aVapplication
p3
aVprocess
p4
aVrequired
p5
aVcreate
p6
aVcandidate
p7
aVaccount log
p8
aVback view
p9
aVapplication
p10
aVcheck email
p11
aVregularly
p12
aVinformation
p13
aVregarding
p14
aVemployment
p15
aVprocess
p16
aVtext
p17
aVsenior vice
p18
aVpresident
p19
aVrevenue management
p20
aVoversee
p21
aVrevenue management
p22
aVgroup
p23
aVoptimization
p24
aVfunction
p25
aVmgm resort
p26
aVinternational
p27
aVrole oversee
p28
aVstaff
p29
aVcharged
p30
aVyielding
p31
aVhotel
p32
aVwithin enterprise
p33
aVmaintaining
p34
aVrevenue management
p35
aVsystem
p36
aVsupport
p37
aVevaluation
p38
aVtraining
p39
aVrole
p40
aVwork directly
p41
aVexecutive
p42
aVacross
p43
aVproperty
p44
aVdepartment
p45
aVdevelop
p46
aVstrategy tactic
p47
aVtool
p48
aVnecessary
p49
aVmaximize yield
p50
aVhotel
p51
aVroom
p52
aVincluding
p53
aVproviding timely
p54
aVforecast
p55
aVrecommendation
p56
aVidentify
p57
aVmaximize revenue
p58
aVopportunity
p59
aVbuild
p60
aVindustry leading
p61
aVtool
p62
aVprocess
p63
aVleading
p64
aVorganization
p65
aVbroad
p66
aVgeographic
p67
aVcoverage
p68
aVlead
p69
aVteam
p70
aVdata scientist
p71
aVworking
p72
aVacross multiple
p73
aVplatform
p74
aVapply
p75
aVleading edge
p76
aVtechnology
p77
aVtechnique
p78
aVcomplex problem
p79
aVduty performed
p80
aVaccordance
p81
aVdepartmental
p82
aVmgm resort
p83
aVpolicy
p84
aVpractice procedure
p85
aVoversee
p86
aVrevenue management
p87
aVconvention
p88
aVrevenue
p89
aVstrategy
p90
aVorganization
p91
aVensure
p92
aVhotel
p93
aVgaming
p94
aVfinancial
p95
aVtarget
p96
aVachieved
p97
aVact primary
p98
aVpoint contact
p99
aVrevenue management
p100
aVconvention
p101
aVrevenue
p102
aVstrategy
p103
aVquestion
p104
aVinput
p105
aVissue
p106
aVenterprise
p107
aVincluding
p108
aVparticipating leading
p109
aVoperation
p110
aVmeeting
p111
aVacross function
p112
aVproperty
p113
aVset
p114
aVenterprise
p115
aVrevenue management
p116
aVsystem
p117
aVstrategy tactic
p118
aVtool
p119
aVtraining program
p120
aVmaximize overall
p121
aVhotel
p122
aVyield
p123
aVcreate
p124
aVindustry leading
p125
aVcapability
p126
aVdevelop execute
p127
aVhotel's
p128
aVrevenue
p129
aVstrategy
p130
aVdrive
p131
aVperformance
p132
aVportfolio
p133
aVdrive
p134
aVinnovative
p135
aVprogressive
p136
aVapproach
p137
aVprocess
p138
aVtool
p139
aVsystem
p140
aVrevenue
p141
aVpricing
p142
aVdiscipline
p143
aVoversee
p144
aVevaluate
p145
aVeconomic
p146
aVdemographic
p147
aVmovement
p148
aVcompetitive
p149
aVaction
p150
aVcapacity
p151
aVchange
p152
aVnew
p153
aVmarket
p154
aVlimitation
p155
aVpricing
p156
aVcontinuously grow
p157
aVrevenue
p158
aVload
p159
aVfactor
p160
aVyield
p161
aVdevelop
p162
aVmentor
p163
aVrevenue management
p164
aVhotel
p165
aVstaff
p166
aVcontinuously
p167
aVmonitoring
p168
aVquality
p169
aVwork
p170
aVreviewing
p171
aVforecast
p172
aVtracking
p173
aVkey
p174
aVfinancial
p175
aVmetric
p176
aVparticipating
p177
aVoperating
p178
aVreview
p179
aVadvising
p180
aVpricing
p181
aVyielding
p182
aVdecision
p183
aVwork closely
p184
aVhotel
p185
aVleadership
p186
aVteam
p187
aVensure proper
p188
aVstrategy
p189
aVplace
p190
aVoptimize
p191
aVtotal
p192
aVhotel revenue
p193
aVfocus
p194
aVpricing
p195
aVmix
p196
aVmanagement
p197
aVpremium
p198
aVroom
p199
aVinventory management
p200
aVstrategy
p201
aVus
p202
aVavailable
p203
aVresource
p204
aVaudit
p205
aVscorecard
p206
aVreporting
p207
aVensure proper
p208
aVpricing inventory
p209
aVmanagement
p210
aVpractice
p211
aVplace
p212
aVdrive alignment
p213
aVrevenue generation
p214
aVcontrol
p215
aVinfuse
p216
aVbest practice
p217
aVinventory management
p218
aVresponsible
p219
aVrevenue management
p220
aVdepartmental
p221
aVbudget
p222
aVactive participant
p223
aVannual
p224
aVplanning
p225
aVprocess relates
p226
aVrevenue management
p227
aVhotel revenue
p228
aVacross enterprise
p229
aVpartner
p230
aVkey stakeholder
p231
aVensure
p232
aVadvanced analytics
p233
aVapplication
p234
aVcapability
p235
aVmaximize yield
p236
aVappropriately
p237
aVintegrated daily
p238
aVoperation
p239
aVlead
p240
aVorganization
p241
aVmethod
p242
aVaction
p243
aVethical
p244
aVfull compliance
p245
aVapplicable law
p246
aVregulation
p247
aVcompany policy
p248
aVprimary responsibility
p249
aVdevelopment maintenance
p250
aVrevenue management
p251
aVdepartment
p252
aVinternal
p253
aVcontrol process
p254
aVprovide mentorship
p255
aVproblem resolution
p256
aVcoaching
p257
aVteam
p258
aVcreate
p259
aVculture enabling
p260
aVdevelopment
p261
aVhigh-performing
p262
aVindividual
p263
aVinstill
p264
aVimportance
p265
aVdevelopment
p266
aVplan
p267
aVdevelop
p268
aVsuccession
p269
aVplan
p270
aVfuture
p271
aVteam
p272
aVgrowth
p273
aVplan
p274
aVschedule
p275
aVmanage
p276
aVstaff
p277
aVpromote efficiency
p278
aVcompleting
p279
aVjob responsibility
p280
aVoversee
p281
aVhuman resource
p282
aVresponsibility
p283
aVspecifically
p284
aVassigned area
p285
aVcreate maintain
p286
aVwork environment
p287
aVpromotes
p288
aVclient
p289
aVservice
p290
aVteamwork
p291
aVperformance
p292
aVfeedback
p293
aVindividual
p294
aVrecognition
p295
aVmutual respect
p296
aVemployee satisfaction
p297
aVensuring quality
p298
aVhiring training
p299
aVsuccession planning
p300
aVprocess
p301
aVencompass
p302
aVcompany's
p303
aVdiversity commitment
p304
aVjob
p305
aVrelated duty
p306
aVrequested
p307
aVrequired
p308
aVleast 10
p309
aVyear
p310
aVleadership
p311
aVexperience
p312
aVability
p313
aVmaintain confidentiality
p314
aVsensitive information
p315
aVability think
p316
aVcritically
p317
aVresearch recommend
p318
aVimplement
p319
aVsolution
p320
aVeffectively
p321
aVability work
p322
aVfast-paced environment
p323
aVbachelor's degree
p324
aVone following
p325
aVarea
p326
aVequivalent
p327
aVtechnical field
p328
aVfinance engineering
p329
aVstatistic mathematics
p330
aVrevenue
p331
aVhotel
p332
aVmanagement
p333
aVequivalent education
p334
aVexperience working
p335
aVknowledge
p336
aVrevenue management
p337
aVmarketing
p338
aVhotel
p339
aVgaming
p340
aVoperation
p341
aVstrategic
p342
aVprice-demand
p343
aVmodeling
p344
aVbuilding
p345
aVcomplex
p346
aVpricing
p347
aVmix
p348
aVoptimization
p349
aVmodel
p350
aVmulti-segment
p351
aVmulti-product
p352
aVbusiness
p353
aVfinancial
p354
aVanalysis
p355
aVoperation research
p356
aVmodeling
p357
aVexperience
p358
aVbusiness-to-consumer
p359
aVpricing
p360
aVexperience working
p361
aVknowledge
p362
aVquantitative qualitative
p363
aVanalysis
p364
aVable
p365
aVleverage
p366
aVdata
p367
aVinform
p368
aVbusiness decision
p369
aVworking knowledge
p370
aVproject management
p371
aVexperience working
p372
aVpresenting
p373
aVsenior management
p374
aVexternal vendor
p375
aVbank
p376
aVauditor
p377
aVexcellent written
p378
aVverbal communication
p379
aVinterpersonal skill
p380
aVmust posse
p381
aVbroad-based
p382
aVcredibility
p383
aVcapable
p384
aVconsistently
p385
aVworking
p386
aVpressure
p387
aVvague
p388
aVlimited
p389
aVinformation
p390
aVforging
p391
aVclose
p392
aVworking relationship
p393
aVsenior executive
p394
aVthroughout organization
p395
aVmust
p396
aVperformance
p397
aVdriven
p398
aVable
p399
aVprovide
p400
aVjudicious
p401
aVmeasurable result
p402
aVposse
p403
aVproactive
p404
aVsense urgency
p405
aVability
p406
aVovercome obstacle
p407
aVproduce
p408
aVresult timely
p409
aVfashion
p410
aVmust comfortable
p411
aVarticulate
p412
aVdynamic
p413
aVfront
p414
aVexternal internal
p415
aVaudience
p416
aVincluding
p417
aVclient
p418
aVsenior management
p419
aVcustomer
p420
aVstrong
p421
aVbusiness
p422
aVfinancial acumen
p423
aVideally
p424
aVdirect
p425
aVexposure
p426
aVbusiness
p427
aVdomain
p428
aVfinance
p429
aVoperation
p430
aVexcellent
p431
aVcustomer
p432
aVservice
p433
aVskill ability
p434
aVlead mentor
p435
aVteam
p436
aVinterpersonal skill
p437
aVdeal effectively
p438
aVbusiness
p439
aVcontact
p440
aVprofessional appearance
p441
aVdemeanor
p442
aVwork
p443
aVvaried shift
p444
aVincluding weekend
p445
aVholiday
p446
aVproficiency m
p447
aVword excel
p448
aVpowerpoint m
p449
aVoutlook
p450
aVability effectively
p451
aVcommunicate english
p452
aVwritten oral
p453
aVform
p454
aVpreferred
p455
aVmba
p456
aVprevious experience
p457
aVworking
p458
aVsimilar resort
p459
aVsetting
p460
a.