(lp1
Vjob
p2
aVclient
p3
aVlooking
p4
aVdata scientist
p5
aVlead
p6
aVpermanent
p7
aVopportunity
p8
aVhenderson
p9
aVnv
p10
aVperson
p11
aVdeep understanding
p12
aVbig data
p13
aVlead
p14
aVteam
p15
aVbuilding
p16
aVenabling
p17
aVbig data
p18
aVanalytical solution
p19
aVclient's
p20
aVmine
p21
aVwork alongside
p22
aVdigital
p23
aVteam
p24
aVbusiness
p25
aVuser
p26
aVcontinuously
p27
aVcollect
p28
aVinsight
p29
aVmaintenance
p30
aVdata
p31
aVenable
p32
aVclient
p33
aV'smart'
p34
aVmaintenance
p35
aVreport
p36
aVproduct owner
p37
aVpredictive maintenance
p38
aVteam
p39
aVyou'll
p40
aVdirects
p41
aVteam
p42
aVdata scientist
p43
aVdesign develop
p44
aVimplement end-to-end
p45
aVcloud based
p46
aVmachine learning
p47
aVproduction
p48
aVpipeline
p49
aVdata exploration
p50
aVsampling training
p51
aVdata
p52
aVgeneration
p53
aVfeature engineering
p54
aVmodel building
p55
aVperformance evaluation
p56
aVensures
p57
aVdata pipeline
p58
aVscalable repeatable
p59
aVsecure serve
p60
aVmultiple
p61
aVuser
p62
aVwithin
p63
aVcompany
p64
aVenables big
p65
aVdata
p66
aVbatch real-time
p67
aVanalytical solution
p68
aVleverage emerging
p69
aVtechnology
p70
aVcollect par
p71
aVmanages analyzes
p72
aVvisualizes large
p73
aVset
p74
aVdata
p75
aVusing
p76
aVmultiple
p77
aVplatform
p78
aVtranslates complex
p79
aVfunctional technical
p80
aVrequirement detailed
p81
aVarchitecture design
p82
aVhigh performing
p83
aVsoftware
p84
aVcode
p85
aVtest document
p86
aVnew modified
p87
aVdata
p88
aVsystem
p89
aVcreate robust
p90
aVscalable application
p91
aVdata
p92
aVanalytics
p93
aVimplement
p94
aVsecurity
p95
aVrecovery
p96
aVtool technique
p97
aVrequired
p98
aVwork
p99
aVdeveloper
p100
aVmake sure
p101
aVdata
p102
aVsolution
p103
aVconsistent
p104
aVensures
p105
aVautomated process
p106
aVpreserve data
p107
aVmanaging alignment
p108
aVdata
p109
aVavailability integration
p110
aVprocess
p111
aVdevelops
p112
aVstandard process
p113
aVintegration
p114
aVproject
p115
aVinitiative
p116
aVwe're looking
p117
aVexperience
p118
aVleading
p119
aVteam
p120
aVdata scientist
p121
aVminimum 5
p122
aVyear experience
p123
aVdata science
p124
aVmaster's phd
p125
aVdegree
p126
aVinformation technology
p127
aVcomputer science
p128
aVrelated quantitative
p129
aVdiscipline
p130
aVcapability
p131
aVarchitect
p132
aVhighly scalable
p133
aVdistributed system
p134
aVusing
p135
aVdifferent
p136
aVopen source
p137
aVtool
p138
aVdemonstrated ability
p139
aVfacilitate
p140
aVlead
p141
aVothers
p142
aVwork minimal
p143
aVdirection
p144
aVproven ability
p145
aVcoordinate
p146
aVcomplex
p147
aVactivity
p148
aVexcellent
p149
aVproblem solving
p150
aVcritical thinking
p151
aVcommunication skill
p152
aVdemonstrated experience
p153
aVagile rapid
p154
aVapplication development
p155
aVmethod
p156
aVdemonstrated experience
p157
aVobject oriented
p158
aVdesign coding
p159
aVtesting
p160
aVpattern
p161
aVwell
p162
aVexperience
p163
aVengineering
p164
aVsoftware
p165
aVplatform
p166
aVlarge scale
p167
aVdata
p168
aVexperience developing
p169
aVpresentation communication
p170
aVshared
p171
aVinternal external
p172
aVstakeholder
p173
aVunderstanding
p174
aVhigh performance
p175
aValgorithm
p176
aVextensive knowledge
p177
aVdifferent
p178
aVprogramming scripting
p179
aVlanguage
p180
aVexpert knowledge
p181
aVdata
p182
aVmodeling
p183
aVunderstanding different
p184
aVdata structure
p185
aVexperience
p186
aVusing big
p187
aVdata
p188
aVbatch streaming
p189
aVtool
p190
aVbrings
p191
aVhigh-energy passionate
p192
aVoutlook
p193
aVjob
p194
aVinfluence
p195
aVaround
p196
aVable
p197
aVbuild
p198
aVsense
p199
aVtrust
p200
aVrapport
p201
aVcreates
p202
aVcomfortable effective
p203
aVworkplace
p204
aVpassion innovation
p205
aVattitude
p206
aVtravel requirement
p207
aVapproximately
p208
aV50
p209
aV80
p210
aVtravel
p211
aVcanada
p212
aVu
aVreport
p213
a.