(dp1
S'sociomedical science'
p2
I1
sS'statistics scientific computation'
p3
I1
sS'dual degree marketing information systems'
p4
I1
sS'health services research emphasis economics'
p5
I1
sS'master science'
p6
I1
sS'geoinformatics'
p7
I2
sS'economics mathematics'
p8
I1
sS'computational biophysics'
p9
I1
sS'molecular biophysics biochemistry'
p10
I1
sS'economics major'
p11
I1
sS'environemental policy'
p12
I2
sS'business administration management information systems'
p13
I2
sS'computer science computational biology'
p14
I1
sS'philosophy psychology'
p15
I1
sS'economics statistics'
p16
I1
sS'urban studies planning'
p17
I1
sS'business analytics predictive analytics'
p18
I1
sS'software engineering database design'
p19
I1
sS'biochemical engineering'
p20
I1
sS'behavioral economics'
p21
I2
sS'materials engineering'
p22
I3
sS'atomic molecular optical physics'
p23
I1
sS'electrical engineering / multimedia creative technologies'
p24
I1
sS'optimal sub-optimal algorithm design'
p25
I1
sS'architectural building sciences/technology'
p26
I1
sS'bioengineering biomedical engineering'
p27
I10
sS'cognitive neuroscience'
p28
I6
sS'information systems spatial econometrics quantitative economics'
p29
I1
sS'computer information systems information technology'
p30
I1
sS'applied econometrics bayesian econometrics financial econometrics'
p31
I1
sS'interdisciplinary visual cognition environments aesthetics'
p32
I1
sS'international development'
p33
I1
sS'candidate analytics'
p34
I1
sS'medical device diagnostic engineering product development'
p35
I1
sS'environmental conservation'
p36
I1
sS'interdisciplinary materials science'
p37
I1
sS'applied computational mathematics statistics'
p38
I1
sS'biochemistry biophysics molecular biology'
p39
I2
sS'engineering science'
p40
I2
sS'materials science'
p41
I4
sS'electronics computer science'
p42
I1
sS'technical entrepreneurship management focus data science'
p43
I1
sS'geology'
p44
I3
sS'mathematical neuroscience'
p45
I1
sS'intelligent transportation systems control systems optimization'
p46
I1
sS'distinction statistics'
p47
I1
sS'biomedical physics'
p48
I1
sS'health informatics'
p49
I2
sS'cell/cellular molecular biology'
p50
I1
sS'operations research financial engineering'
p51
I1
sS'control engineering computational sciences'
p52
I1
sS'particle astrophysics'
p53
I1
sS'systems/industrial engineering'
p54
I1
sS'urban studies computer science'
p55
I1
sS'information systems technology management'
p56
I1
sS'managing science biotech industry'
p57
I1
sS'strategic marketing services leadership'
p58
I1
sS'visualization data analysis software engineering bioinformatics'
p59
I1
sVpsychology - neuropsychology treatment outcome
p60
I1
sS'statistics financial econometrics'
p61
I1
sS'theoretical mathematical physics'
p62
I5
sS'marketing analytics communications'
p63
I1
sS'mathematical behavioral sciences'
p64
I1
sS'theological ministerial studies'
p65
I1
sS'business administration computer information systems'
p66
I1
sS'finance mathematical economics'
p67
I2
sS'statistics communications'
p68
I1
sS'engineering management'
p69
I1
sS'civil engineering'
p70
I15
sS'electrical engrg. computer science'
p71
I1
sS'spatial information systems engineering'
p72
I1
sS'business management marketing related support services'
p73
I1
sS'solid state chemistry'
p74
I1
sS'integrated marketing communications market analytics concentration'
p75
I1
sS'philosophy physics astronomy'
p76
I2
sS'statistics economics modeling'
p77
I2
sS'predictive analytics'
p78
I37
sS'computer science online'
p79
I1
sS'electrical engineering nanotechnology finance'
p80
I1
sS'computer science predictive analytics computational methods'
p81
I1
sS'machine learning artificial intelligence'
p82
I1
sS'research evaluation methodology'
p83
I1
sS'english history'
p84
I1
sS'computational biology bioinformatics'
p85
I5
sS'bioengineering biotechnology / management science'
p86
I1
sS'metalinguistics e-discovery forensic research'
p87
I1
sS'actuarial science'
p88
I4
sS'data mining predictive analytics'
p89
I1
sS'concentration business analytics'
p90
I1
sS'design'
p91
I1
sS'dynamic systems control'
p92
I1
sS'strategic intelligence'
p93
I1
sS'environmental health'
p94
I2
sS'data science operations research'
p95
I1
sS'cognitive affective neuroscience'
p96
I2
sS'computational neurobiology multi-scale biology'
p97
I1
sS'cell molecular developmental biology'
p98
I1
sS'systems biology physiology'
p99
I1
sS'information technology integration application'
p100
I1
sS'engineering applied science'
p101
I1
sS'political science mass communication'
p102
I1
sS'high technology'
p103
I1
sS'mechanical industrial engineering'
p104
I1
sS'commerce mathematics it business analytics'
p105
I1
sS'chemical systems biology'
p106
I1
sVapplied statistic
p107
I2
sS'computer modelling atmosphere'
p108
I1
sS'autonomous systems'
p109
I1
sS'double major mathematics financial economics'
p110
I1
sS'writing editiing communications business'
p111
I1
sS'cell developmental biology'
p112
I1
sS'mathematics w/ spec. statistics'
p113
I1
sS'business administration management'
p114
I1
sS'interdisciplinary computer science mathematics'
p115
I1
sS'finance international business physics'
p116
I1
sS'applied mathematics economics'
p117
I1
sS'arithmetic geometry'
p118
I1
sS'executive/managerial'
p119
I1
sS'digital communication'
p120
I1
sS'molecular cell biology designated emphasis computational genomic biology'
p121
I1
sS'computer science electrical engineering machine learning'
p122
I1
sS'transportation'
p123
I1
sS'environmental science'
p124
I2
sS'information technology managment'
p125
I1
sS'finance health care mgt'
p126
I1
sS'biology concentration statistical genomics'
p127
I1
sS'computer systems networking telecommunications'
p128
I1
sS'computer science geographic information science statistics'
p129
I1
sS'anthropology'
p130
I1
sS'ecology evolution behavior'
p131
I1
sS'informatics emphasis bioinformatics'
p132
I1
sS'marketing analysis'
p133
I1
sS'neural science'
p134
I2
sS'transportation planning'
p135
I1
sS'berkeley'
p136
I2
sS'electrical electronics engineering'
p137
I1
sS'information systems operations'
p138
I1
sS'asian studies economics'
p139
I1
sS'applied mathematics computational science'
p140
I1
sS'ocean sciences'
p141
I1
sS'information technology'
p142
I1
sS'computer music multimedia composition'
p143
I1
sS'medical imaging'
p144
I1
sS'modeling simulation visualization engineering'
p145
I1
sS'business - managerial sciences'
p146
I1
sS'industrial organizational psychology'
p147
I1
sS'marketing / behavioral economics'
p148
I1
sS'business administration operations supply chain'
p149
I1
sS'computational neuroscience'
p150
I5
sS'integrated manufacturing systems engineering'
p151
I1
sS'mechanical aerospace engineering'
p152
I3
sS'mechanics computation group mechanical engineering'
p153
I1
sS'city/urban community regional planning'
p154
I1
sS'epidmiology public health informatics'
p155
I1
sS'urban planning'
p156
I1
sS'mathematical sciences - statistics concentration'
p157
I1
sS'statistics biochemical sciences'
p158
I1
sS'management information systems business intelligence analytics'
p159
I1
sS'machine learning data science'
p160
I1
sS'cognitive science artificial intelligence'
p161
I1
sS'curriculum instruction'
p162
I1
sS'robotics control'
p163
I1
sS'theoretical macroecology'
p164
I1
sS'biomedical/medical engineering'
p165
I9
sS'hospitality management'
p166
I1
sS'business administration'
p167
I12
sS'quantitative methods social sciences'
p168
I1
sS'statistics probability'
p169
I1
sS'pharmacoeconomics/pharmaceutical economics'
p170
I2
sS'applied physics / electrical engineering / signal image processing / statistics'
p171
I1
sS'applied economics'
p172
I8
sS'marketing/marketing management general'
p173
I1
sS'statistics analytics'
p174
I1
sS'environmental management'
p175
I1
sS'computing information sciences'
p176
I1
sS'statistical computing sociology'
p177
I1
sS'computer science - artificial intelligence'
p178
I1
sS'financial mathematics'
p179
I9
sS'ecosystem science management'
p180
I1
sS'immunology molecular genetics'
p181
I1
sS'statistics operations research'
p182
I3
sS'theoretical particle physics'
p183
I2
sS'computer software engineering'
p184
I3
sS'biomedical image analysis'
p185
I1
sS'pure mathematics'
p186
I1
sS'aeronautics astronautics'
p187
I1
sS'statistics actuarial science'
p188
I1
sS'applied mathematics / mechanical engineering'
p189
I1
sS'international relations affairs'
p190
I1
sS'quantitative ecology'
p191
I1
sS'hydraulics water resources engineering'
p192
I1
sS'music'
p193
I1
sS'supply chain management marketing'
p194
I1
sS'production engineering logistics'
p195
I1
sS'communications'
p196
I1
sS'analytical/physical chemistry'
p197
I1
sS'social sciences/ geography'
p198
I1
sS'complex systems networks'
p199
I1
sS'computer engineering science'
p200
I1
sS'operations reseach'
p201
I1
sS'operations research major quant finance'
p202
I1
sS'finance marketing'
p203
I1
sS'geophysics'
p204
I5
sS'computational linguistics'
p205
I2
sS'psychology neurobiology neurosciences'
p206
I1
sS'perceptual systems'
p207
I1
sS'department cognitive science'
p208
I1
sS'applied mathematics - atmosphere-biosphere modelling'
p209
I1
sS'statistics emphasis biostatistics'
p210
I1
sS'applied quantitative research'
p211
I1
sS'economics statistics double major'
p212
I1
sS'strategy entrepreneurship'
p213
I1
sS'finance statistics'
p214
I1
sS'operations research environmental resources/gis'
p215
I1
sS'data scientist data analysis modeling'
p216
I2
sS'computer science machine learning artificial intelligence'
p217
I1
sS'applied mathematics'
p218
I50
sS'educational psychology evaluation measurement statistics'
p219
I1
sS'statistics actuarial studies'
p220
I1
sS'industrial/organizational psychology'
p221
I1
sS'food science'
p222
I1
sS'machine learning'
p223
I1
sS'digital communication media/multimedia'
p224
I2
sS'enterprise information systems'
p225
I1
sS'entrepreneurship marketing information systems'
p226
I1
sS'bioengineering'
p227
I1
sS'data mining machine learning'
p228
I1
sS'computational linguistics cognitive science'
p229
I1
sS'history'
p230
I2
sS'computer science w/ management'
p231
I1
sS'marketing analytics'
p232
I2
sS'astronomy astrophysics'
p233
I2
sS'advanced infrastructure system - civil engineering'
p234
I1
sS'master statistical science'
p235
I1
sS'cognitive science biology emphasis'
p236
I1
sS'integrated marketing communication analytics track'
p237
I1
sS'computer science machine learning/comp bio'
p238
I1
sS'finance supply chain'
p239
I1
sS'cognitive science'
p240
I7
sS'survey methodology'
p241
I1
sS'international policy studies'
p242
I2
sS'logic / philosophy'
p243
I1
sS'atmospheric physics'
p244
I1
sS'clinical medicine'
p245
I1
sS'information'
p246
I1
sS'analytics analytics'
p247
I1
sS'physics experimental physics particle physics'
p248
I1
sS'finance mathematics statistics'
p249
I1
sS'enginnering sciences mae'
p250
I1
sS'human genetics'
p251
I2
sS'information management big data analytics focus'
p252
I1
sS'department biological engineering'
p253
I1
sS'neuroscience quantitative biology'
p254
I1
sS'energy resources engineering'
p255
I1
sS'mathematics art studio 2010'
p256
I1
sS'information data science mids'
p257
I2
sS'political science social welfare'
p258
I1
sS'general engineering economics'
p259
I1
sS'social psychology'
p260
I1
sS'political science ap/methodology'
p261
I1
sS'media computer science'
p262
I1
sS'business communications'
p263
I1
sS'quantitative analysis dgcs temporal lobe epilepsy'
p264
I1
sS'information technology management'
p265
I1
sS'experimental high energy physics'
p266
I2
sS'nejs'
p267
I1
sS'bioengineering data science'
p268
I1
sS'computational biology'
p269
I9
sS'psychological studies'
p270
I1
sS'neural computing finance'
p271
I1
sS'epidemiology/biostatistics'
p272
I1
sS'philosophy'
p273
I2
sS'statistical modeling/physics'
p274
I1
sS'entrepreneurship'
p275
I3
sS'chemistry biochemistry'
p276
I1
sS'sustainability'
p277
I1
sS'information systems technology'
p278
I1
sS'international development nonprofit management'
p279
I1
sS'structural engineering'
p280
I3
sS'political science'
p281
I11
sS'bioinformatics'
p282
I14
sS'computational mathematics'
p283
I2
sS'physical biological anthropology'
p284
I2
sS'law'
p285
I2
sS'finance data analytics'
p286
I2
sS'analytics predictive modeling'
p287
I1
sVphysic
p288
I2
sS'management science operations management'
p289
I1
sS'statistics/decision sci.-phd'
p290
I1
sS'communication systems'
p291
I1
sS'industrial engineering - business administration minor'
p292
I1
sS'process controls finance'
p293
I1
sS'marketing economics'
p294
I1
sS'specializations finance business strategy business analytics'
p295
I1
sS'applied informatics'
p296
I1
sS'data science analytics'
p297
I1
sS'master science ms'
p298
I1
sS'mathematics probability statistics track chemistry'
p299
I1
sS'geosciences'
p300
I1
sS'experimental particle physics'
p301
I2
sS'information computer science'
p302
I1
sS'applied cultural anthropology'
p303
I1
sS'physics computational biophysics'
p304
I1
sS'operations research information engineering'
p305
I3
sS'technology commercialization entrepreneurship'
p306
I1
sS'electrical engineering telecommunications'
p307
I1
sS'industrial engineering concentration operations research statistics'
p308
I1
sS'aerospace engineering'
p309
I6
sS'technology information management'
p310
I1
sS'math specializing economics'
p311
I1
sS'information data science'
p312
I1
sS'marketing market research'
p313
I1
sS'forensic psychology'
p314
I1
sS'middle eastern/religious studies'
p315
I1
sVneuroscience statistical modeling brain signal
p316
I1
sS'atmospheric chemistry'
p317
I1
sS'geospatial enviornmental analysis'
p318
I1
sS'management technology'
p319
I3
sS'computational finance'
p320
I1
sS'particle theory cosmology'
p321
I1
sS'financial analytics'
p322
I1
sS'statistics/bioinformatics'
p323
I1
sS'computation design optimization'
p324
I1
sS'molecular biology bioinformatics thesis'
p325
I1
sS'economics history'
p326
I1
sS'linguistics'
p327
I6
sS'major finance international business minor anthropology'
p328
I1
sS'mathematics biology'
p329
I1
sS'predictive analytics computational methods'
p330
I1
sS'mathematics special education'
p331
I1
sS'nuclear engineering'
p332
I3
sS'demography population health'
p333
I1
sS'marketing small business management'
p334
I1
sS'digital media'
p335
I1
sS'management science quantitative method concentration marketing'
p336
I1
sS'computer science software engineering'
p337
I1
sS'plant pathology'
p338
I2
sS'mathematics computer science double concentration biomathematics applied mathematics'
p339
I1
sS'psychology neuroscience'
p340
I1
sS'finance'
p341
I15
sS'finance general'
p342
I2
sS'applied statisitcs'
p343
I1
sS'biostatistics genetic epidemiology'
p344
I2
sS'mathematics art history'
p345
I1
sS'stochastic optimization'
p346
I1
sS'computer sciences'
p347
I2
sS'chemical engineering/biophysics/developmental biology'
p348
I1
sS'applied urban informatics'
p349
I1
sS'environmental science engineering'
p350
I1
sS'industrial/organizational psychology minor quantitative psychology'
p351
I1
sS'cognitive science history philosophy science'
p352
I1
sS'machine learning big data'
p353
I1
sS'human resource management'
p354
I1
sS'management sciences quantitative methods'
p355
I1
sS'applied math data science'
p356
I1
sS'institute computational mathematical engineering'
p357
I1
sS'statistics computer science computational biology'
p358
I1
sS'mathematics economics statistics'
p359
I1
sS'complex systems computer music'
p360
I1
sS'computing information systems'
p361
I1
sS'corporate innovation'
p362
I1
sS'environmental health toxicoinformatics'
p363
I1
sS'compuer engineering'
p364
I1
sS'business administration - social impact management'
p365
I1
sS"brigham women's hospital"
p366
I1
sS'mathematical finance'
p367
I3
sS'nuclear neutrino physics'
p368
I1
sS'epidemiology/health care management'
p369
I1
sS'quantum science'
p370
I1
sS'logistics materials supply chain management'
p371
I1
sS'computational models human learning'
p372
I1
sS'human development quantitative methodology minor statistics'
p373
I1
sS'focusing project management data analysis'
p374
I1
sS'systems industrial engineering'
p375
I1
sS'sociology statistics'
p376
I1
sS'statistical practice'
p377
I2
sS'analytics marketing finance operations'
p378
I1
sS'medical imaging informatics'
p379
I1
sS'startegic brand management'
p380
I2
sS'data analytics'
p381
I7
sS'marketing strategy'
p382
I1
sS'philosophy concentration linguistics'
p383
I1
sS'experimental psychology developmental cognitive neuroscience'
p384
I1
sVmathematics economics honor
p385
I1
sS'ecosystem science conservation'
p386
I1
sS'integrated marketing communications'
p387
I2
sS'business analytics project management'
p388
I1
sS'communication'
p389
I2
sS'public policy analysis'
p390
I4
sS'double major economics philosophy'
p391
I1
sS'computational materials science'
p392
I1
sS'language technologies computer science'
p393
I1
sS'business analytics/ data science'
p394
I1
sS'energy economics'
p395
I1
sS'information analysis retrieval/human computer interaction'
p396
I1
sS'entrepreneurship/entrepreneurial studies'
p397
I1
sS'applied statistics research methods'
p398
I1
sS'marketing intelligence'
p399
I1
sS'machine learning data mining'
p400
I1
sS'operations research industrial engineering'
p401
I1
sS'public social policy'
p402
I1
sS'research methodology quantitative methods'
p403
I3
sS'magna cum laude applied mathematics economics'
p404
I1
sS'molecular biophysics'
p405
I2
sS'quantum chemistry'
p406
I1
sS'psychology'
p407
I15
sS'pharmaceutical sciences'
p408
I1
sS'history philosophy science'
p409
I1
sS'computer systems lab'
p410
I1
sS'statistics focus data science'
p411
I1
sS'scientific computing'
p412
I1
sS'marketing management'
p413
I1
sS'statistical population genetics'
p414
I1
sS'computer science/management'
p415
I1
sS'quantitative psychology'
p416
I4
sS'engineering management human relations'
p417
I1
sS'management science quantitative methods'
p418
I1
sS'international comparative education'
p419
I1
sS'environmental fluid mechanics hydrology'
p420
I1
sS'medicine'
p421
I1
sS'mathematics minor biology'
p422
I1
sS'electronics'
p423
I1
sS'executive program growing companies'
p424
I1
sS'human evolutionary biology'
p425
I1
sS'opinion mining / sentiment analysis'
p426
I1
sS'masters statistical practice'
p427
I1
sS'professional meteorology'
p428
I1
sS'ece'
p429
I1
sS'data science business analytics'
p430
I1
sS'health outcomes research'
p431
I1
sS'statistical signal processing'
p432
I1
sS'innovation entrepreneurship'
p433
I2
sS'geology/earth science general'
p434
I1
sS'econometrics quantitative economics'
p435
I6
sS'industrial engineering operational research'
p436
I1
sS'applied mathematics/computer science'
p437
I1
sS'managerial science applied economics'
p438
I1
sS'business analytics'
p439
I1
sS'architectural building sciences'
p440
I1
sS'computational finance/risk management cfrm'
p441
I1
sS'industrial engineering statistics'
p442
I1
sS'health policy management'
p443
I1
sS'applied cognition neuroscience'
p444
I1
sS'marketing analytics integrated marketing communication'
p445
I1
sS'biophysics'
p446
I7
sS'health services'
p447
I1
sS'computer science artificial intelligence'
p448
I1
sS'general engineering'
p449
I1
sVphysics applications statistical physic random graph model network
p450
I1
sS'genetics genomics'
p451
I1
sS'architecture sculpture'
p452
I1
sS'computer science economics double majors'
p453
I1
sS'machine-learning/data science'
p454
I1
sS'imaging science'
p455
I1
sS'applied probability statistics'
p456
I1
sS'data analyst'
p457
I4
sS'medical informatics'
p458
I1
sS'data science/informatics data mining analysis track'
p459
I1
sS'statistical computing - data mining'
p460
I1
sS'liberal arts biology concentration'
p461
I1
sS'industrial engineering statistical modeling human factors'
p462
I1
sS'biochemistry molecular biology'
p463
I2
sS'geological earth sciences/geosciences'
p464
I2
sS'neurobiology neurosciences'
p465
I1
sS'math concentration statistics operations research'
p466
I1
sS'mathematics actuarial sciences'
p467
I1
sVatmospheric oceanic science
p468
I1
sS'aerospace aeronautical astronautical engineering'
p469
I3
sS'symbolic systems'
p470
I2
sS'biological physical sciences'
p471
I1
sS'statistics computer science'
p472
I1
sS'industrial design business systems integration consulting'
p473
I1
sS'marine biology fisheries'
p474
I1
sS'measurement evaluation'
p475
I1
sS'natural resource economics'
p476
I1
sS'public health / biostatistics'
p477
I1
sS'quantum optics'
p478
I1
sS'cognitive psychology neuroscience'
p479
I1
sS'string theory high energy theory'
p480
I1
sS'operations research industrial engineering orie'
p481
I1
sS'marketing finance'
p482
I1
sS'statistics economic modeling'
p483
I1
sS'mis'
p484
I1
sS'data analytics engineering'
p485
I2
sS'intelligent systems'
p486
I1
sS'applied statistics'
p487
I35
sS'mechanical engineering design manufacturing'
p488
I1
sS'theoretical applied mechanics'
p489
I2
sS'computer science economics'
p490
I1
sS'data analytics business'
p491
I1
sS'information analysis retrieval'
p492
I5
sS'management'
p493
I3
sS'ocean/atmospheric engineering'
p494
I1
sVelectrical engineering control
p495
I1
sS'biomathematics'
p496
I2
sS'psychology psycholinguistics'
p497
I1
sS'business information analytics finance'
p498
I1
sS'cyber/computer forensics counterterrorism'
p499
I1
sS'dept env sciences'
p500
I1
sS'analytics data sciences'
p501
I1
sS'fiction'
p502
I1
sS'information science'
p503
I7
sS'systems engineering/operations research'
p504
I1
sS'industrial operations engineering'
p505
I1
sS'phd'
p506
I1
sS'advanced analytics'
p507
I1
sS'medical biophysics'
p508
I1
sS'city regional planning'
p509
I1
sS'economics concentration operations information decisions'
p510
I1
sS'biomedical medical engineering'
p511
I1
sS'industrial systems engineering engineering management'
p512
I1
sS'development practice'
p513
I1
sS'mechanical engineering technology'
p514
I1
sS'it strategy'
p515
I1
sS'minor biology / genetics'
p516
I1
sS'economic development'
p517
I1
sS'geography - remote sensing'
p518
I1
sS'policy analysis evaluation'
p519
I1
sS'quantitative genetics statistics'
p520
I1
sS'eng - or ie'
p521
I1
sS'business administration marketing'
p522
I1
sS'mathematics sociology'
p523
I1
sS'astrophysics philosophy double major'
p524
I1
sS'entrepreneurial management marketing'
p525
I1
sS'technical entrepreneurship management'
p526
I1
sS'physics statistical physics'
p527
I1
sS'materials science engineering polymer biomaterials'
p528
I1
sS'theoretical computational biophysics'
p529
I1
sS'biostatistics epidemiology'
p530
I1
sS'human resources management'
p531
I1
sS'electronic design automation'
p532
I1
sS'microbiology immunology infection'
p533
I1
sS'bio-statistics'
p534
I1
sS'engineering education'
p535
I1
sS'double major economics international relations'
p536
I1
sS'biosystems engineering computer science'
p537
I1
sS'machine learning business analytics'
p538
I1
sS'video processing computer vision'
p539
I1
sS'chemical biomolecular engineering biomedical sciences'
p540
I1
sS'ee cs'
p541
I1
sS'applied mathematics - fluid mechanics'
p542
I1
sS'economics computation'
p543
I1
sS'computer information sciences'
p544
I2
sS'business management'
p545
I1
sS'computation systems biology'
p546
I1
sS'business/managerial economics'
p547
I1
sS'computer science - data science'
p548
I1
sS'atomic/molecular physics'
p549
I1
sS'natural resources environmental economics policy making'
p550
I1
sS'systems information engineering'
p551
I1
sS'informatics data science computer science'
p552
I1
sS'business intelligence analytics'
p553
I2
sS'industrial engineering - statistics'
p554
I1
sS'computer systems analysis/analyst'
p555
I1
sS'fine studio arts'
p556
I1
sS'mathematics philosophy'
p557
I2
sS'physics mathematics'
p558
I1
sS'computer information sciences general'
p559
I2
sS'economics public policy'
p560
I1
sS'analytical chemistry'
p561
I2
sS'computational mathematical engineering'
p562
I1
sS'mathematical methods social sciences mmss'
p563
I1
sS'climate society'
p564
I1
sS'applied math operation research'
p565
I1
sS'electrical engineering physics'
p566
I1
sS'health policy management / informatics'
p567
I1
sS'applied mathematics statistics'
p568
I1
sS'computational biology / computational neuroscience'
p569
I1
sS'computer science machine learning track'
p570
I1
sS'biological sciences'
p571
I1
sS'epidemiology health policy'
p572
I1
sS'concentration business intelligence data analytics'
p573
I1
sS'concentration biostatistics'
p574
I1
sS'marketing finance accounting'
p575
I1
sS'zoology comparative physiology'
p576
I1
sS'physics specialty computational science'
p577
I1
sS'informatics data mining'
p578
I1
sS'computational neuroscience electrical engineering'
p579
I1
sS'management information systems'
p580
I19
sS'network system administration/administrator'
p581
I1
sS'ieor'
p582
I1
sS'political science statistical methodology'
p583
I1
sS'finance strategic mgmt'
p584
I1
sS'thesis a study world indian demographics - using statistical computing methodology'
p585
I1
sS'physics/biophysics'
p586
I1
sS'biology ecology statistics'
p587
I1
sS'computer science databases computational biology'
p588
I1
sS'computational material science'
p589
I1
sS'data science iot big data analytics'
p590
I1
sS'experimental particle beam physics'
p591
I1
sS'master science applied economics'
p592
I1
sS'industrial manufacturing engineering'
p593
I1
sS'cis - an improved weighted-concept-driven relation extraction process'
p594
I1
sS'genome science technology'
p595
I1
sS'algebraic topology quantum spin electrodynamics'
p596
I1
sS'information systems technology specialization remote sensing computational geoscience'
p597
I1
sS'master science business analytics'
p598
I1
sS'statistics biology'
p599
I1
sS'computer applications'
p600
I2
sS'economics math'
p601
I1
sS'coursera'
p602
I1
sS'integrative life sciences'
p603
I1
sS'banking finance'
p604
I1
sS'systems science industrial engineering'
p605
I1
sS'theoretical computational physics'
p606
I2
sS'geophysics statistical data analysis'
p607
I1
sS'entrepreneurship finance'
p608
I1
sS'concentration sustainable development'
p609
I1
sS'information system'
p610
I1
sS'biomedical informatics'
p611
I8
sS'mathematical statistics'
p612
I1
sS'electrical computer engineering'
p613
I1
sS'electrical computer engineering - nanoscale devices systems'
p614
I1
sS'survey sampling'
p615
I1
sS'electrical eng.'
p616
I1
sS'statistical economic modeling'
p617
I1
sS'environmental systems engineering'
p618
I1
sS'ecology evolutionary biology'
p619
I2
sS'climate change ecology environmental policy analysis'
p620
I1
sS'statistics / data science'
p621
I1
sS'nutrition sciences'
p622
I1
sS'agronomy crop science'
p623
I1
sS'systems design management fellow'
p624
I1
sS'biomathematics bioinformatics computational biology'
p625
I3
sS'applied plasma physics'
p626
I1
sS'marketing research'
p627
I1
sS'statistics - advanced methods data analysis'
p628
I1
sS'financial engineering'
p629
I17
sS'theoretical high energy physics string theory'
p630
I1
sS'information management systems'
p631
I1
sS'analytics data science'
p632
I1
sS'finance accounting'
p633
I1
sS'statistics data mining'
p634
I1
sS'physics'
p635
I170
sS'quantitative systems biology'
p636
I1
sS'chemistry/geology combined'
p637
I1
sS'health services research'
p638
I1
sS'epidemiology biostatistics'
p639
I3
sS'machine learning computer science bioinformatics'
p640
I1
sS'computation neural systems'
p641
I1
sS'economic sociology'
p642
I1
sS'computational science engineering'
p643
I1
sS'mba international business'
p644
I1
sS'biomedical genetics'
p645
I1
sS'computer science computer engineering'
p646
I1
sS'applided statistics'
p647
I1
sS'business intelligence data analytics concentration'
p648
I1
sS'operations management'
p649
I6
sS'computer science statistics'
p650
I1
sS'finance business policy'
p651
I1
sS'molecular biology biochemistry'
p652
I1
sS'data science concentration economics'
p653
I1
sS'system information engineering'
p654
I1
sS'chemistry/psychology'
p655
I1
sS'computational theoretical biology'
p656
I1
sS'european intellectual history'
p657
I1
sS'liberal arts sciences/liberal studies'
p658
I1
sS'economics international studies'
p659
I1
sS'data mining/data science'
p660
I1
sS'geography'
p661
I5
sS'business administrations'
p662
I1
sS'information sciences technology'
p663
I2
sS'biotechnology genetics'
p664
I1
sS'big data'
p665
I2
sS'earth systems geoinformation science'
p666
I1
sS'applied networking systems administration'
p667
I1
sS'computational science engineering mathematics'
p668
I1
sS'applied physics health physics'
p669
I1
sS'electrical engineering information technology'
p670
I1
sS'statistical signal processing medical imaging'
p671
I1
sS'aerospace mechanical engineering'
p672
I1
sS'biomedical science/molecular biology'
p673
I1
sS'general management'
p674
I1
sS'msba'
p675
I1
sS'physical chemistry'
p676
I1
sS'electrical engineering - speech recognition machine translation'
p677
I1
sS'electrical engineering electrical engineering'
p678
I1
sS'marketing minor economics'
p679
I1
sS'gis remote sensing env. monitoring'
p680
I1
sS'big data analytics business decisions'
p681
I1
sS'statistical science'
p682
I2
sS'public health'
p683
I2
sS'creative writing'
p684
I1
sS'business intelligence data analytics'
p685
I1
sS'appropriate energy technology'
p686
I1
sS'applied mathematics technical science'
p687
I1
sS'masters computer applications'
p688
I1
sS'mathematics statistics'
p689
I1
sS'engineering sciences applied mathematics'
p690
I1
sS'physics solar energy electrical materials engineering'
p691
I1
sS'physics-quantum optics'
p692
I1
sS'economics management'
p693
I1
sS'health/medical physics'
p694
I1
sS'data mining predictive analysis'
p695
I1
sS'applied mathematics theoretical computer science'
p696
I1
sS'biomedical engineering applied mathematics statistics'
p697
I1
sS'physics math philosophy'
p698
I1
sS'information systems management'
p699
I1
sS'machine learning nlp graphical models game theory'
p700
I1
sS'applied mathematics electrical engineering computer sciences philosophy'
p701
I1
sS'computer science all thesis'
p702
I1
sS'finance economics'
p703
I1
sS'data science focus analytics business intelligence'
p704
I1
sS'statistics/data science/econometrics'
p705
I1
sS'statistics applied mathematics'
p706
I1
sS'computer engineering'
p707
I30
sS'computational social science'
p708
I1
sS'applied math'
p709
I2
sS'quantitative economics'
p710
I1
sS'mit fintech certificate course future commerce'
p711
I1
sS'physics astronomy'
p712
I1
sS'business/commerce general'
p713
I1
sS'logic computation methodology'
p714
I1
sS'eecs'
p715
I1
sS'open information computer systems'
p716
I1
sS'civil systems - data analytics machine learning applied smart cities'
p717
I1
sS'molecular/developmental biology'
p718
I1
sS'applied mathematics systems engineering'
p719
I1
sS'industrial engineering operations research'
p720
I2
sS'computational astrophysics'
p721
I3
sS'plasma physics'
p722
I1
sS'strategic marketing operations'
p723
I1
sS'electrical engineering computer science eecs'
p724
I1
sS'analytics'
p725
I75
sS'computational cognitive science'
p726
I1
sVexperimental high energy physic
p727
I1
sS'computer application'
p728
I1
sS'nanotechnology engineering'
p729
I1
sS'biological engineering'
p730
I2
sS'mathematical modelling scientific computing'
p731
I1
sS'botany/plant biology'
p732
I1
sS'computer science telecommunication engineering'
p733
I1
sS'integrative life sciences systems biology data science'
p734
I1
sS'electronics computers'
p735
I1
sS'quantitative finance'
p736
I5
sS'applied statistics actuarial science'
p737
I2
sS'corporate finance'
p738
I1
sS'specializing business analytics digital marketing'
p739
I1
sS'applied mathematics statistics scientific computing'
p740
I1
sS'analytics innovation strategy'
p741
I2
sS'statistical computing'
p742
I1
sS'physics economics'
p743
I2
sS'information management'
p744
I3
sS'industrial system engineering information system'
p745
I1
sS'finance operations research'
p746
I1
sS'big data analytics'
p747
I1
sS'aeronautical astronautical engineering'
p748
I1
sS'demography population studies'
p749
I2
sS'distributed systems'
p750
I1
sS'theoretical chemistry'
p751
I1
sS'computational physics'
p752
I4
sS'human genetics genomics'
p753
I1
sS'engineering technology policy innovation'
p754
I1
sS'applied physics'
p755
I6
sS'biomedical engineering economics'
p756
I1
sS'earth planetary science'
p757
I1
sS'quantitative sociology'
p758
I1
sS'computer science operations research'
p759
I1
sS'marine science'
p760
I1
sS'master science business analytics project management'
p761
I1
sVapplied statistic informatics
p762
I1
sS'finance mathematics'
p763
I1
sS'planetary science'
p764
I1
sVinformation science technology
p765
I1
sS'computer engineering software engineering'
p766
I1
sS'data management analysis'
p767
I1
sS'communication systems theory electrical engineering'
p768
I1
sS'chemistry chemistry biochemistry'
p769
I1
sS'aerospace engineering sciences'
p770
I1
sS'science'
p771
I1
sS'electrical engineering computer science'
p772
I1
sS'quantitative finance / mathematics'
p773
I1
sS'chemical physics'
p774
I2
sS'language communicative disorders'
p775
I1
sS'operation research information engineering'
p776
I1
sS'statistical physics'
p777
I1
sS'computation information theory'
p778
I1
sS'machine learning quantitative marketing'
p779
I1
sS'computational finance risk management'
p780
I1
sS'hydrology'
p781
I1
sS'industrial enginerring'
p782
I1
sS'child family health global community'
p783
I1
sS'international science technology policy'
p784
I1
sS'statistics operations management'
p785
I1
sS'oracle database administration'
p786
I1
sS'machine learning adaptive control'
p787
I1
sS'political science biology'
p788
I1
sS'ebusiness technology'
p789
I1
sS'industrial engineering-statistics'
p790
I1
sS'industrial engineering - operations research applied statistics'
p791
I1
sS'operations information management'
p792
I2
sS'applied technology training development econometrics'
p793
I1
sS'high tech business management'
p794
I1
sS'mechanical engineering pending'
p795
I1
sS'database systems technologies'
p796
I1
sS'computer science data mining'
p797
I1
sS'communications business'
p798
I1
sS'computer science machine learning'
p799
I1
sS'pharmacy administration concentration pharmaceutical marketing'
p800
I1
sS'general management managerial organizational behavior finance'
p801
I1
sS'self taught'
p802
I1
sS'electronic engineering'
p803
I1
sS'data science'
p804
I2
sS'robotics'
p805
I2
sS'urban science informatics'
p806
I1
sS'reinforcement learning'
p807
I1
sS'biology general'
p808
I2
sS'mathematical engineering'
p809
I1
sS'management information systems finance'
p810
I1
sS'mechancial engineering material science'
p811
I1
sS'applied urban science informatics'
p812
I5
sS'physical oceanography'
p813
I2
sS'management science systems analysis'
p814
I1
sS'biochemistry molecular biology business strategy'
p815
I1
sS'data mining'
p816
I3
sS'quantitative computational biology'
p817
I1
sS'pharmacy'
p818
I2
sS'telecommunications'
p819
I1
sS'international relations'
p820
I1
sS'computer sciense'
p821
I1
sS'horticulture'
p822
I1
sS'space physics'
p823
I1
sS'arts'
p824
I1
sS'innovation research informatics data mining business intelligence'
p825
I1
sS'mechanical engineering'
p826
I49
sS'major public health studies'
p827
I1
sS'economics international relations'
p828
I1
sS'mathematics finance'
p829
I2
sS'applied econometrics'
p830
I2
sS'cognitive neuroscience cognitive psychology psycholinguistics'
p831
I1
sS'computational analysis public policy'
p832
I1
sS'engineering physics'
p833
I3
sS'telecommunication'
p834
I1
sS'industrial engineering management sciences'
p835
I1
sS'geophysics seismology'
p836
I1
sS'mechanical manufacturing engineering'
p837
I1
sS'supply chain management'
p838
I1
sS'management information systems services'
p839
I1
sS'digital signal processing communication systems'
p840
I1
sS'life sciences'
p841
I1
sS'operations research'
p842
I52
sS'electronics telecommunication'
p843
I1
sS'human biology'
p844
I1
sS'computational science engineering cse'
p845
I1
sS'international business'
p846
I4
sS'business analysis'
p847
I1
sS'molecular biology'
p848
I2
sS'decision sciences finance business economics'
p849
I1
sS'management information systems big data track'
p850
I1
sS'business administration management operations'
p851
I4
sS'machine learning statistics'
p852
I1
sS'bioinformatics track'
p853
I1
sS'special education'
p854
I1
sS'computer science mathematics'
p855
I1
sS'theoretical computational chemistry'
p856
I1
sVmath course
p857
I1
sS'electrical engineering computer sciences'
p858
I1
sS'integrated computing emphasis information quality'
p859
I1
sS'water resources engineering'
p860
I1
sS'alm candidate software engineering via extension school'
p861
I1
sS'health sciences'
p862
I1
sS'gravitation astrophysics'
p863
I1
sS'computer science data science'
p864
I1
sS'information systems accounting'
p865
I1
sS'biochemical engineering biotechnology'
p866
I1
sS'urban geography'
p867
I1
sS'history sociology science'
p868
I1
sS'operations information decisions department'
p869
I1
sS'finance/economics'
p870
I1
sS'school computer science'
p871
I1
sVsolving problem thinking outside box
p872
I1
sS'physical geography'
p873
I1
sS'computational genetics'
p874
I1
sS'physics computer science'
p875
I1
sS'electrical engineering control systems'
p876
I1
sS'mathematical sciences/cs'
p877
I1
sS'operations supply chain'
p878
I1
sS'mathematics economics w/ minor computer science'
p879
I1
sS'statistics cognitive science'
p880
I1
sS'marketing concentration innovative product development capstone'
p881
I1
sS'applied statistics quantitative marketing analysis'
p882
I1
sS'communication media studies'
p883
I1
sS'm.s. predictive analytics'
p884
I1
sS'electrical electronics engineering mathematics'
p885
I1
sS'mathematics computer science'
p886
I1
sS'biophysical chemistry'
p887
I1
sS'physics astrophysics'
p888
I1
sS'mathematical sciences'
p889
I5
sS'economics'
p890
I2
sS'chemistry/economics'
p891
I1
sS'computational engineering'
p892
I1
sS'geographic information science g.i.s.'
p893
I1
sS'certificate data mining'
p894
I1
sS'applied statistics with specialization in business analytics'
p895
I1
sS'management science'
p896
I6
sS'remote sensing gis'
p897
I1
sS'pharmaceutical science'
p898
I1
sS'statistics minor computer science'
p899
I1
sS'physics biophysics'
p900
I1
sS'systems engineering management'
p901
I1
sS'neuroscience psychology genetics'
p902
I1
sS'data mining/web crawling/web development'
p903
I1
sS'statistical genetics'
p904
I2
sS'finance biochemistry vagelos life science management program'
p905
I1
sS'statistics economics'
p906
I1
sS'management - specialization organizational behavior'
p907
I1
sS'high energy particle physics experiment'
p908
I1
sS'mathematics statistics economics'
p909
I1
sS'quantitative finance risk analytics'
p910
I1
sS'petroleum engineering'
p911
I3
sS'atmospheric sciences meteorology'
p912
I1
sS'chemistry applied mathematics statistics'
p913
I1
sS'quantitative business analysis marketing'
p914
I1
sS'ees ms e'
p915
I1
sS'college human ecology biology health society'
p916
I1
sS'decision sciences engineering-economic systems'
p917
I2
sS'industrial system engineering'
p918
I1
sS'physics computational statistical physics'
p919
I1
sS'economic research'
p920
I1
sS'operations manufacturing management'
p921
I1
sS'mathematical statistics probability'
p922
I1
sS'web development'
p923
I1
sS'industrial engineering minor computer science'
p924
I1
sS'ancient greek roman history'
p925
I1
sS'theoretical nuclear physics'
p926
I1
sS'theoretical computational biological physics'
p927
I1
sS'business - marketing'
p928
I1
sS'systems engineering operations research'
p929
I1
sS'ocean engineering'
p930
I2
sS'business intellegence analytics'
p931
I1
sS'engineering sciences spec. multi-scale biology'
p932
I1
sS'automation'
p933
I1
sS'artificial intelligence machine learning'
p934
I1
sS'microbiology'
p935
I1
sS'operations strategy'
p936
I1
sS'chemistry / biophysics'
p937
I1
sS'dual degree mechanical engineering studio art'
p938
I1
sS'field genetics genomics development'
p939
I1
sS'mechanical engineering mechanics'
p940
I1
sS'nursing/informatics'
p941
I1
sS'master information data science'
p942
I1
sS'economics german'
p943
I1
sS'operations technology management'
p944
I1
sS'industrial information systems machine condition monitoring'
p945
I1
sS'information systems'
p946
I13
sS'engineering physics/applied physics'
p947
I1
sS'educational psychology'
p948
I2
sS'executive mba'
p949
I1
sS'sociology/ survey research'
p950
I1
sS'applied science technology'
p951
I1
sS"electrical engineering system's health management research"
p952
I1
sS'management marketing'
p953
I1
sS'energy science technology policy'
p954
I1
sS'business management media arts society'
p955
I1
sS'english language literature'
p956
I1
sS'cognitive development psycholinguistics'
p957
I1
sS'molecular cell biology neuroscience'
p958
I1
sS'public policy management'
p959
I1
sS'english'
p960
I2
sS'machine learning random processes probability statistics signals systems communication theory'
p961
I1
sS'machine learning applied statistics'
p962
I1
sS'chemistry'
p963
I11
sS'environmental engineering'
p964
I6
sS'statistics information tech'
p965
I1
sS'experimental psychology'
p966
I3
sS'graph theory'
p967
I1
sS'structural engineering construction management'
p968
I1
sS'finance statistics/econometrics operations'
p969
I1
sS'biostatistics'
p970
I49
sS'transportation highway engineering'
p971
I4
sS'systems engineering physics'
p972
I1
sS'international affairs'
p973
I3
sS'probability statistics'
p974
I1
sS'economics computer science'
p975
I1
sS'neuroscience psychology'
p976
I1
sS'computer science engineering'
p977
I1
sS'economics finance'
p978
I1
sS'astronomy astrobiology'
p979
I1
sS'biology/biological sciences general'
p980
I1
sS'electrical engineering nanoscale devices systems'
p981
I1
sS'spatial analytics'
p982
I1
sS'computational biolog'
p983
I1
sS'strategy marketing'
p984
I1
sS'physics mathematics double'
p985
I1
sS'computer science operation research'
p986
I1
sS'management science engineering'
p987
I3
sS'statisitcs'
p988
I1
sS'quantitative methods'
p989
I1
sS'electrical engineering signals systems'
p990
I1
sS'integrated engineering'
p991
I1
sS'quantitative modeling statistics'
p992
I1
sS'public administration'
p993
I2
sS'decision sciences'
p994
I3
sS'mathematics specialization economics'
p995
I1
sS'economics markets organization policy'
p996
I1
sS'experimental physics optoelectronics'
p997
I1
sS'civil environmental engineering'
p998
I5
sS'business leadership'
p999
I1
sS'genie electrique'
p1000
I1
sS'plasma physics optical spectroscopy fusion energy'
p1001
I1
sS'intelligent systems robotics control'
p1002
I1
sS'computational science'
p1003
I4
sS'data informatics'
p1004
I1
sS'computer science applied math'
p1005
I1
sS'psychometrics quantitative psychology'
p1006
I1
sS'finance quant'
p1007
I1
sS'library information science'
p1008
I1
sS'information systems communication'
p1009
I1
sS'nuclear physics'
p1010
I4
sS'business public policy'
p1011
I1
sS'finance computer science double major'
p1012
I1
sS'research experimental psychology'
p1013
I1
sS'information systems statistics'
p1014
I1
sS'information engineering'
p1015
I2
sS'computational data analytics'
p1016
I1
sS'natural language processing'
p1017
I1
sS'business administration management information systems concentration finance concentration'
p1018
I1
sS'quantitative methods social sciences data science concentration'
p1019
I1
sS'master information management systems focus data science'
p1020
I1
sS'secondary mathematics education'
p1021
I1
sS'advanced infrastructure system'
p1022
I1
sS'neuroscience computer science'
p1023
I1
sS'chemistry math biology medicinal chemistry'
p1024
I1
sS'statistics mathematics co-majors'
p1025
I1
sS'decision information technologies'
p1026
I1
sS'information science/studies'
p1027
I1
sS'math computational sciences concentration statistics'
p1028
I1
sS'industrial systems engineering operations research'
p1029
I1
sS'integrated sciences statistics geographic information systems'
p1030
I1
sS'operation research industrial engineering'
p1031
I1
sS'cognitive science computational modeling'
p1032
I1
sS'data science statistics track'
p1033
I1
sS'journalism'
p1034
I1
sS'science technology colloid interface'
p1035
I1
sS'chemical engg'
p1036
I1
sS'machine learning engineer'
p1037
I2
sS'nuclear/particle physics'
p1038
I1
sS'applied mathematics/neuroscience'
p1039
I1
sS'theoretical high energy physics'
p1040
I1
sS'computer science minor sociology'
p1041
I1
sVm.s. equivalent physics/applied mathematics
p1042
I1
sS'quantitative methods social science'
p1043
I1
sS'computer science - artificial intelligence / machine learning'
p1044
I1
sS'biological environmental engineering'
p1045
I1
sS'systems science engineering'
p1046
I1
sS'mis / health system operations research'
p1047
I1
sS'agricultural engineering'
p1048
I1
sS'comparative study religion philosophy'
p1049
I1
sS'international studies - south asia'
p1050
I1
sS'music technology'
p1051
I1
sS'mathematical computational science'
p1052
I1
sS'network security'
p1053
I1
sS'information retrieval'
p1054
I1
sS'concentration optimization'
p1055
I1
sS'organizational psychology'
p1056
I1
sS'physical chemistry theory/computation'
p1057
I1
sS'technology innovation education'
p1058
I1
sS'decision system science'
p1059
I1
sS'international commerce policy'
p1060
I1
sS'statistic'
p1061
I1
sS'public policy'
p1062
I5
sS'horticulture experimental design analysis'
p1063
I1
sS'ms business analytics'
p1064
I1
sS'econometrics'
p1065
I2
sS'applied mathematics computer science'
p1066
I1
sS'criminology'
p1067
I2
sS'solid state physics'
p1068
I1
sS'computational analysis modeling - data mining'
p1069
I1
sS'biological design'
p1070
I1
sS'sociology'
p1071
I6
sS'genetics'
p1072
I3
sS'computational science informatics'
p1073
I1
sS'cognitive psychology'
p1074
I5
sS'behavioral psychology'
p1075
I1
sS'industrial engineering'
p1076
I49
sS'finance financial management services'
p1077
I1
sS'energy computational science engineering'
p1078
I1
sS'applied computational mathematics'
p1079
I5
sS'quantitative computational finance'
p1080
I2
sS'political science government'
p1081
I2
sS'bioengineering - analytics - mechanical engineering'
p1082
I1
sS'biochemistry chemistry'
p1083
I1
sS'electrical engineering economics'
p1084
I1
sS'environmental health sciences'
p1085
I1
sS'industrial engineering business analytics'
p1086
I1
sS'bioinformatics systems biology'
p1087
I1
sS'environmental science policy management'
p1088
I1
sS'statistics focus area computational statistics'
p1089
I1
sS'computer information sciences - big data predictive analytics track'
p1090
I1
sS'psychology computer science'
p1091
I1
sS'biology'
p1092
I8
sS'earth sciences'
p1093
I1
sS'business'
p1094
I1
sS'machine learning robotics'
p1095
I1
sS'mathematical science statistics'
p1096
I1
sS'marketing'
p1097
I13
sS'computational mathematical egineering'
p1098
I1
sS'finance/writing'
p1099
I1
sS'public policy planning'
p1100
I1
sS'high energy physics'
p1101
I1
sS'epidemiology'
p1102
I8
sS'biophysics/soft matter physics'
p1103
I1
sS'project management'
p1104
I1
sS'enterprise software technologies'
p1105
I1
sS'industrial/systems engineering specialty environmental science'
p1106
I1
sS'informatics'
p1107
I2
sS'software engineering'
p1108
I5
sS'information system engineering'
p1109
I1
sS'computer science systems'
p1110
I1
sS'biomedical engineering'
p1111
I21
sS'political science quantitative'
p1112
I1
sS'computational applied mathematics'
p1113
I2
sS'predictive analytics - computational methods concentration'
p1114
I1
sS'organic chemistry'
p1115
I1
sS'public affairs administration'
p1116
I1
sS'economics political science'
p1117
I1
sS'economics policy analysis'
p1118
I1
sS'business computer information systems'
p1119
I1
sS'analytics / data science'
p1120
I1
sS'physics computational statistical'
p1121
I1
sS'management information systems general'
p1122
I12
sS'computational systems biology'
p1123
I1
sS'software systems'
p1124
I2
sS'organizational psychology statistics minor'
p1125
I1
sS'computer science information extraction'
p1126
I1
sS'electrical engineering electrical electronics engineering'
p1127
I1
sS'computer information systems'
p1128
I1
sS'materials science engineering'
p1129
I1
sS"engineering sciences docteur en sciences de l'ingnieur"
p1130
I1
sS'international policy studies economics track public policy health policy track'
p1131
I1
sS'secondary education teaching - mathematics'
p1132
I1
sS'gis geostatistics'
p1133
I1
sS'quantitative marketing'
p1134
I2
sS'computer science - machine learning'
p1135
I2
sS'environmental science public policy'
p1136
I1
sS'pharmacology concentration neuroscience'
p1137
I1
sS'astrophysics/theoretical physics'
p1138
I1
sS'mathematics economics'
p1139
I1
sS'nuclear particle physics'
p1140
I1
sS'math art history'
p1141
I1
sS'marketing/finance'
p1142
I1
sS'data science/ machine learning/deep learning/predictive analytics'
p1143
I1
sS'clinical psychology'
p1144
I2
sS'environmental water resources engineering'
p1145
I1
sS'business administration business analytics supply chain management'
p1146
I1
sS'mba'
p1147
I2
sS'mathematics computational science'
p1148
I1
sS'mathematical physics'
p1149
I2
sS'elementary particle physics'
p1150
I7
sS'high energy experimental particle physics'
p1151
I1
sS'language science technology'
p1152
I1
sS'theoretical ecology'
p1153
I1
sS'computational sciences informatics'
p1154
I1
sS'science technology policy'
p1155
I1
sS'stem cell research'
p1156
I1
sS'forensic sciences'
p1157
I1
sS'industrial systems engineering'
p1158
I1
sS'transportation engineering'
p1159
I5
sS'statistics'
p1160
I299
sS'chemical engineering - minor computational science'
p1161
I1
sS'financial statistics risk management'
p1162
I1
sS'condensed matter materials physics'
p1163
I3
sS'applied music conducting'
p1164
I1
sS'data science quantitative methods social sciences'
p1165
I1
sS'energy science'
p1166
I1
sS'neural engineering computational neuroscience statistical modeling'
p1167
I1
sS'global economics'
p1168
I1
sS'ee'
p1169
I1
sS'data analyst nanodegree'
p1170
I1
sS'health economics outcomes research'
p1171
I1
sS'quantitative finance / industrial engineering'
p1172
I1
sS'knowledge management'
p1173
I1
sS'astrophysics'
p1174
I11
sS'information technology development'
p1175
I1
sS'biosystems engineering'
p1176
I1
sS'entrepreneurship technology'
p1177
I1
sS'artificial intelligence'
p1178
I1
sS'data science engineering'
p1179
I2
sS'systems engineering'
p1180
I8
sS'public policy administration'
p1181
I1
sS'machine learning apache spark'
p1182
I1
sS'politics international relations'
p1183
I1
sS'geographic information science cartography'
p1184
I1
sS'finance supply chain decision analytics certification'
p1185
I1
sS'computer science w/ certificate business'
p1186
I1
sS'education administration policy analysis'
p1187
I1
sS'chemical engineering'
p1188
I26
sS'computer security'
p1189
I1
sS'computer information technology'
p1190
I1
sS'biomedical engineering neuroengineering'
p1191
I1
sS'ee computer science'
p1192
I1
sS'geographic information systems'
p1193
I1
sS'international management finance concentration'
p1194
I1
sS'staistics'
p1195
I1
sS'condensed matter physics'
p1196
I2
sS'integrated marketing communication'
p1197
I1
sS'finance business information analytics real estate'
p1198
I1
sS'international economics'
p1199
I4
sS'electrical electronics communications engineering'
p1200
I7
sS'library science'
p1201
I1
sS'epidemiology microbial diseases'
p1202
I1
sS'applied math computer science'
p1203
I1
sS'nielsen audience measurement'
p1204
I1
sS'biostatistics bioinformatics computational biology'
p1205
I1
sS'the study biomedical informatics'
p1206
I1
sS'business administration management general'
p1207
I8
sS'electrical engineering'
p1208
I1
sS'applied mathematics applied statistics scientific computing'
p1209
I1
sS'international business concentration finance econometrics'
p1210
I1
sS'computer science/artificial intelligence'
p1211
I1
sS'agricultural resource economics'
p1212
I2
sS'computing'
p1213
I3
sS'hci hri'
p1214
I1
sS'engineering/industrial management'
p1215
I3
sS'ee systems'
p1216
I1
sS'bioinformatics computational biology'
p1217
I1
sS'general'
p1218
I1
sVinformation system information security
p1219
I1
sS'engineering'
p1220
I8
sS'systems analysis geography environmental engineering'
p1221
I1
sS'data analyis/data science'
p1222
I1
sS'theoretical physics'
p1223
I4
sS'master science analytics'
p1224
I2
sS'accounting'
p1225
I1
sS'business economics'
p1226
I1
sS'chemical biochemical engineering'
p1227
I1
sS'industrial engineering mgmt'
p1228
I1
sS'operations research supply chain'
p1229
I2
sS'business information systems'
p1230
I1
sS'biological basis behavior / philosophy science'
p1231
I1
sS'applied mathematics statistics high performance computing applications'
p1232
I1
sS'nuclear astrophysics'
p1233
I1
sS'information system management'
p1234
I1
sS'educational measurement statastics'
p1235
I1
sS'mathematics applied/computational'
p1236
I1
sS'economics psychology sociology'
p1237
I1
sS'biochemistry'
p1238
I6
sS'computational chemistry'
p1239
I10
sS'telecommunication networking'
p1240
I1
sS'particle physics'
p1241
I4
sS'economics labor'
p1242
I1
sS'mems micro electro mechanical systems'
p1243
I1
sS'electrical'
p1244
I1
sS'computer science'
p1245
I1
sS'entrepreneurship big data'
p1246
I1
sS'predictive analytics mspa'
p1247
I1
sS'mathematics'
p1248
I118
sS'ee robotics'
p1249
I1
sS'accounting finance'
p1250
I1
sS'palaeopathology'
p1251
I1
sS'biosatistics'
p1252
I1
sS'computer speech text internet technology'
p1253
I1
sS'systems control engineering'
p1254
I1
sS'computer engineering computer science'
p1255
I1
sS'natural resources conservation'
p1256
I1
sS'design planning community environmental planning'
p1257
I1
sS'master information systems management'
p1258
I1
sS'technology management'
p1259
I2
sVcomputational earth science
p1260
I1
sS'mathematics physics'
p1261
I1
sS'computational biology / statistics'
p1262
I1
sS'masters analytics'
p1263
I1
sS'computer science data analytics'
p1264
I1
sS'operations research decision risk analysis'
p1265
I1
sS'cognitive science psychology linguistics'
p1266
I1
sS'industrial engineering information systems'
p1267
I1
sS'mechanical'
p1268
I1
sS'molecular bioengineering'
p1269
I1
sS'neuroscience'
p1270
I21
sS'astronomy'
p1271
I5
sS'material science engineering'
p1272
I1
sS'dual concentration biostatistics epidemiology'
p1273
I1
sS'marine biology'
p1274
I1
sS'computer science - data mining'
p1275
I1
sS'physics communications culture double major'
p1276
I1
sS'industrial engineering management science'
p1277
I1
sS'political science marketing science technology society'
p1278
I1
sS'interdisciplinary computer science'
p1279
I1
sS'analytics business technology'
p1280
I1
sS'statistical computingdata mining track'
p1281
I2
sS'oncology cancer biology'
p1282
I1
sS'microelectronics'
p1283
I1
sS'high performance computing'
p1284
I1
sS'computer science philosophy'
p1285
I1
sS'environmental science management'
p1286
I1
sS'economics-mathematics'
p1287
I2
sS'action line health wellbeing'
p1288
I1
sS'data mining / machine learning'
p1289
I1
sS'biotechnology'
p1290
I5
sS'marketing management science'
p1291
I1
sS'buiness analytics'
p1292
I1
sS'civil engineering structures'
p1293
I1
sS'crop sciences'
p1294
I1
sS'computer vision. data science.'
p1295
I1
s.