(dp1
S'and evolutionary'
p2
I2
sS'economics statistics'
p3
I1
sS'computational biophysics'
p4
I1
sS'via extension'
p5
I1
sS'environemental policy'
p6
I2
sS'modeling physics'
p7
I1
sS'epidmiology public'
p8
I1
sS'cognitive neuroscience'
p9
I1
sS'perceptual systems'
p10
I1
sS'- nanoscale'
p11
I1
sS'natural language'
p12
I1
sS'engineering science'
p13
I2
sS'resources gis'
p14
I1
sS'health informatics'
p15
I1
sS'gis remote'
p16
I1
sS'applied networking'
p17
I1
sS'chemistry and'
p18
I1
sS'informatics data'
p19
I1
sS'sciences and'
p20
I1
sS'analytics data'
p21
I1
sS'engineering management'
p22
I1
sS'in bioinformatics'
p23
I1
sS'signals and'
p24
I1
sS'actuarial science'
p25
I1
sS'language processing'
p26
I1
sS'science studies'
p27
I1
sS'environmental fluid'
p28
I1
sS'device diagnostic'
p29
I1
sS'informatics emphasis'
p30
I1
sS'physics particle'
p31
I1
sS'digital signal'
p32
I1
sS'actuarial sciences'
p33
I1
sS'life science'
p34
I1
sS'math biology'
p35
I1
sS'environmental science'
p36
I1
sS'- managerial'
p37
I1
sS'neural science'
p38
I2
sS'statistical modeling'
p39
I1
sS'information technology'
p40
I1
sS'engineering polymer'
p41
I1
sS'and aesthetics'
p42
I1
sS'- machine'
p43
I2
sS'modeling human'
p44
I1
sS'neural systems'
p45
I1
sS'and statastics'
p46
I1
sS'and research'
p47
I1
sS'chemistry psychology'
p48
I1
sS'mathematical sciences'
p49
I1
sS'arts society'
p50
I1
sS'hospitality management'
p51
I1
sS'population genetics'
p52
I1
sS'and environmental'
p53
I1
sS'administration concentration'
p54
I1
sS'telecommunication engineering'
p55
I1
sS'communication theory'
p56
I1
sS'environmental management'
p57
I1
sS'sciences technology'
p58
I1
sS'aeronautics astronautics'
p59
I1
sS'statistics information'
p60
I1
sS'and theory'
p61
I1
sS'risk management'
p62
I1
sS'engineering orie'
p63
I1
sS'biological and'
p64
I1
sS'video processing'
p65
I1
sS'optimal and'
p66
I1
sS'computational linguistics'
p67
I1
sS'quantitative and'
p68
I1
sS'business computer'
p69
I1
sS'extension school'
p70
I1
sS'research supply'
p71
I2
sS'psychology minor'
p72
I1
sS'psychology neurobiology'
p73
I1
sS'mechanical industrial'
p74
I1
sS'and affective'
p75
I2
sS'bioinformatics thesis'
p76
I1
sS'area computational'
p77
I1
sS'and cosmology'
p78
I1
sS'and mechanical'
p79
I1
sS'economics w'
p80
I1
sS'media arts'
p81
I1
sS'executive managerial'
p82
I1
sS'pure mathematics'
p83
I1
sS'of data'
p84
I1
sS'and seismology'
p85
I1
sS'physics applications'
p86
I1
sS'science data'
p87
I1
sS'analysis of'
p88
I1
sS'certificate course'
p89
I1
sS'studies economics'
p90
I1
sS'biostatistics and'
p91
I1
sS'statistics -'
p92
I1
sS'analytics -'
p93
I1
sS'business policy'
p94
I1
sS'fluid mechanics'
p95
I1
sS'and teaching'
p96
I1
sS'statistics economics'
p97
I1
sS'technology integration'
p98
I1
sS'sociology survey'
p99
I1
sS'communicative disorders'
p100
I1
sS'global community'
p101
I1
sS'energy experimental'
p102
I1
sS'cultural anthropology'
p103
I1
sS'health economics'
p104
I1
sS'engineering industrial'
p105
I3
sS'psychometrics and'
p106
I1
sS'- operations'
p107
I1
sS'of brain'
p108
I1
sS'line health'
p109
I1
sS'statistical signal'
p110
I1
sS'and roman'
p111
I1
sS'mining web'
p112
I1
sS'biomedical sciences'
p113
I1
sS'comparative study'
p114
I1
sS'banking and'
p115
I1
sS'economics double'
p116
I1
sS'on data'
p117
I1
sS'random graph'
p118
I1
sS'applied statisitcs'
p119
I1
sS'ees now'
p120
I1
sS'integrative life'
p121
I1
sS'neuroscience quantitative'
p122
I1
sS'bayesian econometrics'
p123
I1
sS'science databases'
p124
I1
sS'mechanical systems'
p125
I1
sS'systems industrial'
p126
I1
sS'and biotechnology'
p127
I1
sS'w spec'
p128
I1
sS'corporate innovation'
p129
I1
sS'spatial information'
p130
I1
sS'mis health'
p131
I1
sS'and counterterrorism'
p132
I1
sS'medical biophysics'
p133
I1
sS'learning track'
p134
I1
sS'ocean atmospheric'
p135
I1
sS'of finance'
p136
I2
sS'opinion mining'
p137
I1
sS'mining track'
p138
I2
sS'demography and'
p139
I1
sS'information technologies'
p140
I1
sS'engineering cse'
p141
I1
sS'basis of'
p142
I1
sS'particle physics'
p143
I1
sS'in world'
p144
I1
sS'mathematics physics'
p145
I1
sS'arts biology'
p146
I1
sS'science biology'
p147
I1
sVsystem information
p148
I1
sS'curriculum and'
p149
I1
sS'data scientist'
p150
I2
sS'materials physics'
p151
I3
sS'international policy'
p152
I1
sS'and market'
p153
I1
sS'genetics genomics'
p154
I1
sS'organizational behavior'
p155
I1
sS'economics concentration'
p156
I1
sS'engineering nanoscale'
p157
I1
sS'stochastic optimization'
p158
I1
sS'double majors'
p159
I1
sS'engineering design'
p160
I1
sS'computer information'
p161
I1
sS'and wellbeing'
p162
I1
sS'and risk'
p163
I1
sS'major public'
p164
I1
sVms equivalent
p165
I1
sS'health services'
p166
I1
sS'information science'
p167
I1
sS'it strategy'
p168
I1
sS'condition monitoring'
p169
I1
sS'resource management'
p170
I1
sS'science double'
p171
I1
sS'engineering biophysics'
p172
I1
sS'solar energy'
p173
I1
sS'high tech'
p174
I1
sS'science engineering'
p175
I1
sS'bioengineering -'
p176
I1
sS'marketing intelligence'
p177
I1
sS'quantitative sociology'
p178
I1
sS'information decisions'
p179
I1
sS'string theory'
p180
I1
sS'comparative physiology'
p181
I1
sS'chemistry math'
p182
I1
sS'plasma physics'
p183
I1
sS'editiing communications'
p184
I1
sS'and economic'
p185
I1
sS'image analysis'
p186
I1
sS'and enviornmental'
p187
I1
sS'business intelligence'
p188
I1
sS'biological sciences'
p189
I1
sS'in remote'
p190
I1
sS'finance biochemistry'
p191
I1
sS'european intellectual'
p192
I1
sS'spec in'
p193
I1
sS'engineering electrical'
p194
I1
sS'operations reseach'
p195
I1
sS'improved weighted-concept-driven'
p196
I1
sS'mathematics computer'
p197
I1
sS'analysis geography'
p198
I1
sS'theory electrical'
p199
I1
sS'and digital'
p200
I1
sS'operations engineering'
p201
I1
sS'analyst nanodegree'
p202
I1
sS'philosophy double'
p203
I1
sS'genome science'
p204
I1
sS'statistics bioinformatics'
p205
I1
sS'science with'
p206
I1
sS'pharmacoeconomics pharmaceutical'
p207
I2
sS'and regional'
p208
I1
sS'operations and'
p209
I1
sS'and manufacturing'
p210
I1
sS'biotechnology genetics'
p211
I1
sS'management cfrm'
p212
I1
sS'economics philosophy'
p213
I1
sS'- or'
p214
I1
sS'applied cognition'
p215
I1
sS'graph theory'
p216
I1
sS'health in'
p217
I1
sS'business communications'
p218
I1
sS'transportation and'
p219
I4
sS'structural engineering'
p220
I1
sS'medicinal chemistry'
p221
I1
sS'robotics control'
p222
I1
sS'physics-quantum optics'
p223
I1
sS'of markets'
p224
I1
sS'physical and'
p225
I2
sS'biochemistry biophysics'
p226
I2
sS'communication analytics'
p227
I1
sS'policy health'
p228
I1
sS'physics astronomy'
p229
I2
sS'agronomy and'
p230
I1
sS'innovative product'
p231
I1
sS'and analytics'
p232
I1
sS'managerial sciences'
p233
I1
sS'nanotechnology engineering'
p234
I1
sS'and molecular'
p235
I1
sS'with distinction'
p236
I1
sS'and policy'
p237
I1
sS'engineering biomedical'
p238
I1
sS'economics computer'
p239
I1
sS'physics economics'
p240
I2
sS'managing science'
p241
I1
sS'human learning'
p242
I1
sS'machine translation'
p243
I1
sS'startegic brand'
p244
I2
sS'and logistics'
p245
I1
sS'learning comp'
p246
I1
sS'pharmacology with'
p247
I1
sS'systems operations'
p248
I1
sS'quantitative research'
p249
I1
sS'engrg and'
p250
I1
sS'data sciences'
p251
I1
sS'ebusiness technology'
p252
I1
sS'fusion energy'
p253
I1
sS'communications with'
p254
I1
sS'and communicative'
p255
I1
sS'communications business'
p256
I1
sS'self taught'
p257
I1
sS'transportation planning'
p258
I1
sS'computational material'
p259
I1
sS'on biomathematics'
p260
I1
sS'ancient greek'
p261
I1
sS'systems design'
p262
I1
sS'cell cellular'
p263
I1
sS'with specialty'
p264
I1
sS'deep learning'
p265
I1
sS'management information'
p266
I1
sS'bioengineering biotechnology'
p267
I1
sS'and sociology'
p268
I1
sS'technology policy'
p269
I1
sS'- computational'
p270
I1
sS'emphasis biostatistics'
p271
I1
sS'biology statistics'
p272
I1
sS"system's health"
p273
I1
sS'technology society'
p274
I1
sS'science history'
p275
I1
sS'sciences data'
p276
I1
sS'visual cognition'
p277
I1
sS'in sustainable'
p278
I1
sS'specialization in'
p279
I1
sS'eastern religious'
p280
I1
sS'analytics computational'
p281
I1
sS'nuclear and'
p282
I1
sS'math operation'
p283
I1
sS'in applied'
p284
I1
sS'computational mathematical'
p285
I1
sS'and resource'
p286
I2
sS'intellectual history'
p287
I1
sS'system engineering'
p288
I1
sS'energy in'
p289
I1
sS'nuclear physics'
p290
I1
sS'biology neuroscience'
p291
I1
sS'on marketing'
p292
I1
sS'database administration'
p293
I1
sS'biological physics'
p294
I1
sS'biology genetics'
p295
I1
sS'pharmaceutical science'
p296
I1
sS'in analytics'
p297
I1
sS'geospatial and'
p298
I1
sS'forensics and'
p299
I1
sS'financial economics'
p300
I1
sS'management -'
p301
I1
sS'particle and'
p302
I1
sS'health physics'
p303
I1
sS'engineering and'
p304
I1
sS'and technology'
p305
I1
sS'ocean engineering'
p306
I2
sS'biology bioinformatics'
p307
I1
sS'linguistics cognitive'
p308
I1
sS'biochemistry and'
p309
I1
sS'geography and'
p310
I1
sS'in economics'
p311
I1
sS'biotechnology management'
p312
I1
sS'english language'
p313
I1
sS'and actuarial'
p314
I1
sS'tech business'
p315
I1
sS'methods in'
p316
I1
sS'systems robotics'
p317
I1
sS'psychology with'
p318
I1
sS'engineering signal'
p319
I1
sS'experimental psychology'
p320
I1
sS'transportation systems'
p321
I1
sS'a study'
p322
I1
sS'biomathematics and'
p323
I1
sS'and oceanic'
p324
I1
sS'international affairs'
p325
I3
sS'neuroscience psychology'
p326
I1
sS'science artificial'
p327
I1
sS'development practice'
p328
I1
sS'distributed systems'
p329
I1
sS'and material'
p330
I1
sS'sciences docteur'
p331
I1
sS'science philosophy'
p332
I1
sS'genie electrique'
p333
I1
sS'high energy'
p334
I1
sS'computational statistical'
p335
I1
sS'physics optical'
p336
I1
sS'biostatistics genetic'
p337
I2
sS'human computer'
p338
I1
sS'and computational'
p339
I1
sS'analysis modeling'
p340
I2
sS'dept of'
p341
I1
sS'policy making'
p342
I1
sS'of microbial'
p343
I1
sS'and econometrics'
p344
I1
sS'and optical'
p345
I1
sS'system management'
p346
I1
sS'gis and'
p347
I1
sS'agricultural engineering'
p348
I1
sS'methods concentration'
p349
I1
sS'survey sampling'
p350
I1
sS'health policy'
p351
I1
sS'ministerial studies'
p352
I1
sS'financial analytics'
p353
I1
sS'greek and'
p354
I1
sS'biological design'
p355
I1
sS'biomedical science'
p356
I1
sS'economics track'
p357
I1
sS'econometrics and'
p358
I1
sS'cognitive psychology'
p359
I1
sS'business concentration'
p360
I1
sS'economics psychology'
p361
I1
sS'and application'
p362
I1
sS'population studies'
p363
I2
sS'philosophy of'
p364
I1
sS'topology quantum'
p365
I1
sS'botany plant'
p366
I1
sS'product development'
p367
I1
sS'services research'
p368
I1
sS'pharmacy administration'
p369
I1
sS'polymer and'
p370
I1
sVmath course
p371
I1
sS'south asia'
p372
I1
sS'computation information'
p373
I1
sS'and biomolecular'
p374
I1
sS'entrepreneurship finance'
p375
I1
sS'strategic marketing'
p376
I1
sS'math specializing'
p377
I1
sS'statistical population'
p378
I1
sS'zoology comparative'
p379
I1
sS'brigham and'
p380
I1
sS'pharmaceutical marketing'
p381
I1
sS'forensic psychology'
p382
I1
sS'materials and'
p383
I1
sS'systems with'
p384
I1
sS'modeling simulation'
p385
I1
sS'environmental policy'
p386
I1
sS'molecular and'
p387
I1
sS'secondary mathematics'
p388
I1
sS'minor anthropology'
p389
I1
sS'and high'
p390
I1
sS'imaging science'
p391
I1
sS'global economics'
p392
I1
sS'technical entrepreneurship'
p393
I1
sS'high performance'
p394
I1
sS'math art'
p395
I1
sS'statistical and'
p396
I1
sS'specialization organizational'
p397
I1
sS'systems business'
p398
I1
sS'human factors'
p399
I1
sS'minor economics'
p400
I1
sS'statistics econometrics'
p401
I1
sS'electrical engineering'
p402
I1
sS'design automation'
p403
I1
sS'business minor'
p404
I1
sS'analytics predictive'
p405
I1
sS'of behavior'
p406
I1
sS'engineering signals'
p407
I1
sS'modelling and'
p408
I1
sS'theoretical physics'
p409
I1
sS'advanced methods'
p410
I1
sS'science online'
p411
I1
sS'mathematics with'
p412
I1
sS'petroleum engineering'
p413
I3
sS'economic research'
p414
I1
sVstatistic and
p415
I1
sS'decision information'
p416
I1
sS'library science'
p417
I1
sS'forensic research'
p418
I1
sS'social sciences'
p419
I1
sS'signals systems'
p420
I1
sS'computer science'
p421
I1
sS'epidemiology of'
p422
I1
sS'cognition neuroscience'
p423
I1
sS'research methodology'
p424
I3
sS'technology management'
p425
I1
sS'dynamic systems'
p426
I1
sS'- using'
p427
I1
sS'in finance'
p428
I1
sS'planning community'
p429
I1
sS'highway engineering'
p430
I4
sS'analytics for'
p431
I1
sS'emphasis in'
p432
I1
sS'finance mathematics'
p433
I1
sS'technology of'
p434
I1
sS'systems general'
p435
I12
sS'intelligence analytics'
p436
I2
sS'business physics'
p437
I1
sS'international science'
p438
I1
sS'software technologies'
p439
I1
sS'computation neural'
p440
I1
sS'and public'
p441
I1
sS'sciences geography'
p442
I1
sS'for computational'
p443
I1
sS'analysis software'
p444
I1
sS'and treatment'
p445
I1
sS'materials engineering'
p446
I1
sS'behavior finance'
p447
I1
sS'particle theory'
p448
I1
sS'business decisions'
p449
I1
sS'and sub-optimal'
p450
I1
sS'with market'
p451
I1
sS'economics modeling'
p452
I2
sS'biology computational'
p453
I1
sS'media and'
p454
I1
sS'appropriate energy'
p455
I1
sS'field of'
p456
I1
sS'industrial organizational'
p457
I1
sS'cognitive development'
p458
I1
sS'electronics engineering'
p459
I1
sS'science electrical'
p460
I1
sS'processing and'
p461
I1
sS'computational cognitive'
p462
I1
sS'in statistics'
p463
I1
sS'engineering applied'
p464
I1
sS'and aerospace'
p465
I3
sS'sciences statistics'
p466
I1
sS'math computational'
p467
I1
sS'cum laude'
p468
I1
sS'finance general'
p469
I2
sS'atmospheric sciences'
p470
I1
sS'recognition and'
p471
I1
sS'physics string'
p472
I1
sS'comparative education'
p473
I1
sS'civil engineering'
p474
I1
sS'engineering computational'
p475
I1
sS'sociology of'
p476
I1
sS'real estate'
p477
I1
sS'and predictive'
p478
I1
sS'education and'
p479
I1
sS'statistics risk'
p480
I2
sS'w minor'
p481
I1
sS'solid state'
p482
I1
sS'systems networking'
p483
I1
sS'mining data'
p484
I1
sS'strategic intelligence'
p485
I1
sS'theoretical computer'
p486
I1
sS'certificate of'
p487
I1
sS'in computational'
p488
I1
sS'visualization and'
p489
I1
sS'learning in'
p490
I1
sS'creative writing'
p491
I1
sS'digital communication'
p492
I1
sS'and experimental'
p493
I1
sS'and organizational'
p494
I5
sS'visualization engineering'
p495
I1
sS'marketing analysis'
p496
I1
sS'financial management'
p497
I1
sS'elementary particle'
p498
I7
sS'financial statistics'
p499
I1
sS'special education'
p500
I1
sS'focus in'
p501
I1
sS'audience measurement'
p502
I1
sS'minor in'
p503
I1
sS'of biological'
p504
I1
sS'electronics and'
p505
I1
sS'sciences with'
p506
I1
sS'sciences engineering-economic'
p507
I2
sS'and ministerial'
p508
I1
sS'computational science'
p509
I1
sS'chemistry chemistry'
p510
I1
sS'aerospace aeronautical'
p511
I3
sS'distinction statistics'
p512
I1
sS'beam physics'
p513
I1
sS'care management'
p514
I1
sS'with statistics'
p515
I1
sS'and project'
p516
I1
sS'and statistics'
p517
I1
sS'mathematics probability'
p518
I1
sS'course future'
p519
I1
sS'of cognitive'
p520
I1
sS'engineering statistics'
p521
I1
sS'data management'
p522
I1
sS'comp bio'
p523
I1
sS'theory and'
p524
I1
sS'change ecology'
p525
I1
sS'engineering-economic systems'
p526
I2
sS'health medical'
p527
I1
sS'ecology biology'
p528
I1
sS'health outcomes'
p529
I1
sS'administration operations'
p530
I1
sS'science statistics'
p531
I1
sS'and media'
p532
I1
sS'engineering nanotechnology'
p533
I1
sS'statistical genomics'
p534
I1
sS'machine learning'
p535
I1
sS'marketing communication'
p536
I1
sS'to smart'
p537
I1
sS'finance data'
p538
I2
sS'design and'
p539
I1
sS'engineering database'
p540
I1
sS'and consulting'
p541
I1
sS'administration business'
p542
I1
sS'executive program'
p543
I1
sS'applied plasma'
p544
I1
sS'biophysics developmental'
p545
I1
sS'science gis'
p546
I1
sS'atmospheric physics'
p547
I1
sS'of colloid'
p548
I1
sS'human genetics'
p549
I1
sS'city urban'
p550
I1
sS'computer vision'
p551
I1
sS'library and'
p552
I1
sS'sciences liberal'
p553
I1
sS'social psychology'
p554
I1
sS'neurobiology multi-scale'
p555
I1
sS'computational biology'
p556
I1
sS'policy and'
p557
I1
sS'medical engineering'
p558
I1
sS'political science'
p559
I1
sS'- artificial'
p560
I1
sS'electrical electronics'
p561
I1
sS'and health'
p562
I1
sS'candidate software'
p563
I1
sS'energy technology'
p564
I1
sS'a designated'
p565
I1
sS'strategy marketing'
p566
I1
sS'research and'
p567
I1
sS'training and'
p568
I1
sVtreatment outcome
p569
I1
sS'mathematics theoretical'
p570
I1
sS'and strategy'
p571
I1
sS'mathematics economics'
p572
I1
sS'analysis analyst'
p573
I1
sS'now ms'
p574
I1
sS'international economics'
p575
I4
sS'administration and'
p576
I1
sS'and psycholinguistics'
p577
I1
sS'research in'
p578
I1
sS'nuclear engineering'
p579
I3
sS'language and'
p580
I1
sS'engineering software'
p581
I1
sS'culture double'
p582
I1
sS'physical sciences'
p583
I1
sS'survey research'
p584
I1
sS'and comparative'
p585
I1
sS'statistics data'
p586
I1
sS'computer sciences'
p587
I1
sS'executive mba'
p588
I1
sS'and social'
p589
I1
sS'statistics concentration'
p590
I1
sS'science quantitative'
p591
I1
sS'simulation and'
p592
I1
sS'minor quantitative'
p593
I1
sS'liberal arts'
p594
I1
sS'econometrics bayesian'
p595
I1
sS'and neutrino'
p596
I1
sS'psychology and'
p597
I1
sS'forensic sciences'
p598
I1
sS'design planning'
p599
I1
sS'nuclear particle'
p600
I1
sS'operation research'
p601
I1
sS'aeronautics and'
p602
I1
sS'in quantitative'
p603
I1
sS'molecular biophysics'
p604
I1
sS'child family'
p605
I1
sS'experimental particle'
p606
I1
sS'and genomic'
p607
I1
sS'impact management'
p608
I1
sS'temporal lobe'
p609
I1
sS'business analytics'
p610
I1
sS'in predictive'
p611
I1
sS'measurement and'
p612
I1
sS'general engineering'
p613
I1
sS'natural resources'
p614
I1
sS'sustainable development'
p615
I1
sS'data analyst'
p616
I1
sS'natural resource'
p617
I1
sS'a concentration'
p618
I1
sS'vagelos life'
p619
I1
sS'symbolic systems'
p620
I2
sS'ecosystem science'
p621
I1
sS'learning deep'
p622
I1
sS'of computer'
p623
I1
sS'energy physics'
p624
I1
sS'of technology'
p625
I3
sS'for env'
p626
I1
sS'roman history'
p627
I1
sS'computer forensics'
p628
I1
sS'image processing'
p629
I1
sS'and geographic'
p630
I1
sS'and development'
p631
I1
sS'marketing marketing'
p632
I1
sS'computer application'
p633
I1
sS'track and'
p634
I1
sS'analyis data'
p635
I1
sS'management with'
p636
I1
sS'stem cell'
p637
I1
sS'science technology'
p638
I1
sS'and analysis'
p639
I1
sS'- speech'
p640
I1
sS'information computer'
p641
I1
sS'art history'
p642
I1
sS'crawling web'
p643
I1
sS'business commerce'
p644
I1
sS'business management'
p645
I1
sS'retrieval human'
p646
I1
sS'learning predictive'
p647
I1
sS'mathematics philosophy'
p648
I2
sS'physics mathematics'
p649
I1
sS'the study'
p650
I1
sS'hydraulics and'
p651
I1
sS'atmospheric engineering'
p652
I1
sS"engineering system's"
p653
I1
sS'business managerial'
p654
I1
sS'mathematics and'
p655
I1
sS'management program'
p656
I1
sS'and astronomy'
p657
I1
sS'and biomedical'
p658
I10
sS'and informatics'
p659
I1
sS'management media'
p660
I1
sS'adaptive control'
p661
I1
sS'marine science'
p662
I1
sS'computer software'
p663
I3
sS'w management'
p664
I1
sS'computer applications'
p665
I1
sS'statistical data'
p666
I1
sS'matter physics'
p667
I1
sS'information system'
p668
I1
sS'institute for'
p669
I1
sS'statistics signals'
p670
I1
sS'marketing concentration'
p671
I1
sS'cellular and'
p672
I1
sS'in biostatistics'
p673
I1
sVof network
p674
I1
sS'- big'
p675
I1
sS'chemical and'
p676
I1
sS'physics electrical'
p677
I1
sS'financial engineering'
p678
I1
sS'- south'
p679
I1
sS'economics major'
p680
I1
sS'biomedical genetics'
p681
I1
sS'laude applied'
p682
I1
sS'computational statistics'
p683
I1
sS'social policy'
p684
I1
sS'physics statistical'
p685
I1
sS'engineering product'
p686
I1
sS'and geoinformation'
p687
I1
sS'oncology and'
p688
I1
sS'network security'
p689
I1
sS'- mathematics'
p690
I1
sS'language technologies'
p691
I1
sS'and interface'
p692
I1
sS'and decisions'
p693
I1
sS'systems optimization'
p694
I1
sS'development capstone'
p695
I1
sS'geological and'
p696
I2
sS'eng -'
p697
I1
sS'risk analysis'
p698
I1
sS'economics management'
p699
I1
sS'systems biology'
p700
I1
sS'nanoscale devices'
p701
I1
sS'docteur en'
p702
I1
sS'computing applications'
p703
I1
sS'theoretical chemistry'
p704
I1
sS'and statistical'
p705
I1
sS'in biology'
p706
I1
sS'applied math'
p707
I1
sVequivalent in
p708
I1
sS'statistics quantitative'
p709
I1
sS'science industrial'
p710
I1
sS'w certificate'
p711
I1
sS'economic development'
p712
I1
sS'and accounting'
p713
I1
sS'human ecology'
p714
I1
sS'evolutionary biology'
p715
I1
sS'quantitative finance'
p716
I1
sS'corporate finance'
p717
I1
sS'science ap'
p718
I1
sVbrain signal
p719
I1
sS'urban studies'
p720
I1
sS'computational physics'
p721
I2
sS'commercialization entrepreneurship'
p722
I1
sS'- social'
p723
I1
sS'atomic molecular'
p724
I1
sS'resources environmental'
p725
I1
sS'school of'
p726
I1
sS'group mechanical'
p727
I1
sS'markets organization'
p728
I1
sS'geophysics and'
p729
I1
sS'management managerial'
p730
I1
sS'industrial engineering-statistics'
p731
I1
sS'study of'
p732
I1
sS'music and'
p733
I1
sS'intelligence machine'
p734
I1
sS'management of'
p735
I3
sS'data mining'
p736
I1
sS'web crawling'
p737
I1
sS'management general'
p738
I1
sS'chain management'
p739
I1
sS'economics public'
p740
I1
sS'community environmental'
p741
I1
sS'certificate in'
p742
I1
sS'biochemical sciences'
p743
I1
sS'molecular biology'
p744
I1
sS'and materials'
p745
I1
sS'bioinformatics track'
p746
I1
sS'science psychology'
p747
I1
sS'- atmosphere-biosphere'
p748
I1
sS'business administration'
p749
I1
sS'thinking outside'
p750
I1
sS'computational genetics'
p751
I1
sS'methods and'
p752
I1
sS'mining and'
p753
I1
sS'services leadership'
p754
I1
sS'administration -'
p755
I1
sS'computational geoscience'
p756
I1
sS'mechancial engineering'
p757
I1
sS'applications of'
p758
I1
sS'physics astrophysics'
p759
I1
sS'mass communication'
p760
I1
sS'geology combined'
p761
I1
sS'in sociology'
p762
I1
sS'management science'
p763
I1
sS'strategy business'
p764
I1
sS'history sociology'
p765
I1
sS'statistical genetics'
p766
I2
sS'and multimedia'
p767
I1
sS'mathematics mechanical'
p768
I1
sS'concentration on'
p769
I1
sS'analytics focus'
p770
I1
sS'environmental planning'
p771
I1
sS'state chemistry'
p772
I1
sS'computational neurobiology'
p773
I1
sS'aeronautical and'
p774
I3
sS'control systems'
p775
I1
sS'computational social'
p776
I1
sS'engineering education'
p777
I1
sS'and finance'
p778
I1
sS'learning data'
p779
I1
sS'civil and'
p780
I5
sS'and computers'
p781
I1
sS'applied probability'
p782
I1
sS'methodology minor'
p783
I1
sS'science iot'
p784
I1
sS'optical spectroscopy'
p785
I1
sS'management informatics'
p786
I1
sS'physics health'
p787
I1
sS'economics finance'
p788
I1
sS'of religion'
p789
I1
sS'computational biolog'
p790
I1
sS'for business'
p791
I1
sS'studio 2010'
p792
I1
sS'integrated engineering'
p793
I1
sS'public administration'
p794
I2
sS'decision sciences'
p795
I1
sS'and genomics'
p796
I1
sS'finance quant'
p797
I1
sS'industrial system'
p798
I1
sS'systems administration'
p799
I1
sS'environmental resources'
p800
I1
sS'in the'
p801
I1
sS'mathematics education'
p802
I1
sS'space physics'
p803
I1
sS'and mass'
p804
I1
sS'cancer biology'
p805
I1
sS'epidemiology health'
p806
I1
sS'in informatics'
p807
I1
sS'sub-optimal algorithm'
p808
I1
sS'information retrieval'
p809
I1
sS'engineering telecommunications'
p810
I1
sS'and innovation'
p811
I1
sS'and computation'
p812
I1
sS'administration management'
p813
I1
sS'cyber computer'
p814
I1
sS'using statistical'
p815
I1
sS'behavioral psychology'
p816
I1
sS'physics applied'
p817
I1
sS'and networks'
p818
I1
sS'studies computer'
p819
I1
sS'mathematical methods'
p820
I1
sS'science mathematics'
p821
I1
sS'spatial econometrics'
p822
I1
sS'genetic epidemiology'
p823
I2
sS'research information'
p824
I1
sS'sensing for'
p825
I1
sS'operational research'
p826
I1
sS'middle eastern'
p827
I1
sS'manufacturing engineering'
p828
I1
sS'secondary education'
p829
I1
sS'biology and'
p830
I1
sS'an improved'
p831
I1
sS'in multi-scale'
p832
I1
sS'an emphasis'
p833
I1
sS'ap methodology'
p834
I1
sS'biomedical engineering'
p835
I1
sS'organic chemistry'
p836
I1
sS'and biochemistry'
p837
I1
sS'chemistry biophysics'
p838
I1
sS'math computer'
p839
I1
sS'geology earth'
p840
I1
sS'computer sciense'
p841
I1
sS'modelling of'
p842
I1
sS'quantitative marketing'
p843
I1
sS'engineering information'
p844
I1
sS'systems -'
p845
I1
sS'systems science'
p846
I1
sS'genomic biology'
p847
I1
sS'learning with'
p848
I1
sS'biology ecology'
p849
I1
sS'focus data'
p850
I1
sS'math concentration'
p851
I1
sS'resources and'
p852
I1
sS'transportation engineering'
p853
I5
sS'health studies'
p854
I1
sS'electrical eng'
p855
I1
sS'biochemistry vagelos'
p856
I1
sS'sensing computational'
p857
I1
sS'management sciences'
p858
I1
sS'energy science'
p859
I1
sS'management human'
p860
I1
sS'interdisciplinary visual'
p861
I1
sS'and sciences'
p862
I1
sS'mathematics computational'
p863
I1
sS'biosystems engineering'
p864
I1
sS'entrepreneurship technology'
p865
I1
sS'in pharmaceutical'
p866
I1
sS'ecology evolution'
p867
I1
sS'human relations'
p868
I1
sS'philosophy with'
p869
I1
sS'matter and'
p870
I3
sS'electrical and'
p871
I1
sS'and big'
p872
I1
sS'statistics double'
p873
I1
sS'computer security'
p874
I1
sS'and philosophy'
p875
I1
sS'system science'
p876
I1
sS'environmental economics'
p877
I1
sS'science machine'
p878
I1
sS'extraction process'
p879
I1
sS'affairs and'
p880
I1
sS'information tech'
p881
I1
sS'and economics'
p882
I1
sS'information analytics'
p883
I1
sS'and retrieval'
p884
I1
sS'hci hri'
p885
I1
sS'business strategy'
p886
I1
sS"women's hospital"
p887
I1
sS'e-discovery forensic'
p888
I1
sS'industrial information'
p889
I1
sS'actuarial studies'
p890
I1
sS'commerce and'
p891
I1
sS'gravitation and'
p892
I1
sS'marketing economics'
p893
I1
sS'modeling and'
p894
I1
sS'economics labor'
p895
I1
sS'and physiology'
p896
I1
sS'analytics certification'
p897
I1
sS'public and'
p898
I1
sS'mathematics systems'
p899
I1
sS'physics computer'
p900
I1
sS'sciences cs'
p901
I1
sS'development and'
p902
I1
sS'administration marketing'
p903
I1
sS'teaching -'
p904
I1
sS'statistics high'
p905
I1
sS'international and'
p906
I1
sS'chemistry economics'
p907
I1
sS'department of'
p908
I1
sS'research statistics'
p909
I1
sS'medical device'
p910
I1
sS'marine biology'
p911
I1
sS'evaluation and'
p912
I1
sS'controls and'
p913
I1
sS'administration minor'
p914
I1
sS'networking and'
p915
I1
sS'resource economics'
p916
I1
sS'mit fintech'
p917
I1
sS'analytics concentration'
p918
I1
sS'research industrial'
p919
I1
sS'crop sciences'
p920
I1
sS'sociomedical science'
p921
I1
sS'engineering technology'
p922
I1
sS'processes probability'
p923
I1
sS'horticulture experimental'
p924
I1
sS'sciences philosophy'
p925
I1
sS'a focus'
p926
I1
sS'and scientific'
p927
I1
sS'computing methodology'
p928
I1
sS'engineering machine'
p929
I1
sS'management systems'
p930
I1
sS'databases computational'
p931
I1
sS'materials science'
p932
I1
sS'performance computing'
p933
I1
sS'analytics and'
p934
I1
sS'quantitative biology'
p935
I1
sS'and system'
p936
I1
sS'and quantitative'
p937
I1
sS'telecommunication and'
p938
I1
sS'theoretical particle'
p939
I2
sS'evaluation measurement'
p940
I1
sS'concentration and'
p941
I1
sS'quantum optics'
p942
I1
sS'the global'
p943
I1
sS'state physics'
p944
I1
sS'astronautical engineering'
p945
I1
sS'in computer'
p946
I1
sS'systems analysis'
p947
I1
sS'in temporal'
p948
I1
sS'and earth'
p949
I2
sS'survey methodology'
p950
I1
sS'and biology'
p951
I1
sS'environmental health'
p952
I1
sS'biochemistry molecular'
p953
I1
sS'and education'
p954
I1
sS'biology emphasis'
p955
I1
sS'magna cum'
p956
I1
sS'earth systems'
p957
I1
sVapplied statistic
p958
I1
sS'autonomous systems'
p959
I1
sS'information data'
p960
I1
sS'engineering operations'
p961
I1
sS'energy resources'
p962
I1
sS'science software'
p963
I1
sS'engineering with'
p964
I1
sS'statistics and'
p965
I1
sS'health sciences'
p966
I1
sS'urban geography'
p967
I1
sS'- specialization'
p968
I1
sS'computational neuroscience'
p969
I1
sS'statistics computer'
p970
I1
sS'arts and'
p971
I1
sS'quantitative modeling'
p972
I1
sS'systems spatial'
p973
I1
sS'quantum spin'
p974
I1
sS'and communication'
p975
I1
sS'statistical computing'
p976
I1
sS'sciences mmss'
p977
I1
sS'information sciences'
p978
I1
sS'applied economics'
p979
I1
sS'financial mathematics'
p980
I9
sS'computer modelling'
p981
I1
sS'finance industrial'
p982
I1
sS'experimental high'
p983
I1
sS'industrial management'
p984
I3
sS'system -'
p985
I1
sS'engineering studio'
p986
I1
sS'en sciences'
p987
I1
sS'- civil'
p988
I1
sS'quantitative business'
p989
I1
sS'organization and'
p990
I1
sS'intelligence data'
p991
I1
sS'finance statistics'
p992
I1
sS'commerce mathematics'
p993
I1
sS'engineering mgmt'
p994
I1
sS'food science'
p995
I1
sVenergy physic
p996
I1
sS'immunology infection'
p997
I1
sS'affective neuroscience'
p998
I2
sS'and building'
p999
I1
sS'computational models'
p1000
I1
sS'data track'
p1001
I1
sS'astronomy astrophysics'
p1002
I2
sS'engineering bioinformatics'
p1003
I1
sS'operations information'
p1004
I1
sS'science mids'
p1005
I2
sS'clinical medicine'
p1006
I1
sS'statistics decision'
p1007
I1
sS'neurobiology and'
p1008
I1
sS'and population'
p1009
I1
sS'of dgcs'
p1010
I1
sS'mathematical neuroscience'
p1011
I1
sS'biology health'
p1012
I1
sS'nonprofit management'
p1013
I1
sS'mems micro'
p1014
I1
sS'science ms'
p1015
I1
sS'and biological'
p1016
I2
sS'analytics integrated'
p1017
I1
sS'analysis marketing'
p1018
I1
sS'chemistry biochemistry'
p1019
I1
sS'physics experiment'
p1020
I1
sS'biophysics and'
p1021
I1
sS'system and'
p1022
I1
sS'text and'
p1023
I1
sS'remote sensing'
p1024
I1
sS'care mgt'
p1025
I1
sS'technology innovation'
p1026
I1
sS'with focus'
p1027
I1
sS'neutrino physics'
p1028
I1
sS'atmosphere-biosphere modelling'
p1029
I1
sS'and managment'
p1030
I1
sS'- minor'
p1031
I1
sS'atmospheric chemistry'
p1032
I1
sS'multimedia composition'
p1033
I1
sS'computational finance'
p1034
I1
sS'science -'
p1035
I1
sS'market analytics'
p1036
I1
sS'control engineering'
p1037
I1
sS'with spec'
p1038
I1
sS'- marketing'
p1039
I1
sS'sciences geosciences'
p1040
I2
sS'information and'
p1041
I1
sS'plant pathology'
p1042
I2
sS'weighted-concept-driven relation'
p1043
I1
sS'and hydrology'
p1044
I1
sS'science w'
p1045
I1
sS'brand management'
p1046
I2
sS'health toxicoinformatics'
p1047
I1
sS'economics with'
p1048
I1
sS'computer systems'
p1049
I1
sS'compuer engineering'
p1050
I1
sS'and theoretical'
p1051
I1
sS'integration and'
p1052
I1
sS'computer music'
p1053
I1
sS'computer interaction'
p1054
I1
sS'behavior philosophy'
p1055
I1
sS'cell research'
p1056
I1
sS'marketing strategy'
p1057
I1
sS'research methods'
p1058
I1
sS'sciences -'
p1059
I1
sS'knowledge management'
p1060
I1
sS'mining sentiment'
p1061
I1
sS'urban informatics'
p1062
I1
sS'dgcs in'
p1063
I1
sS'energy economics'
p1064
I1
sS'support services'
p1065
I1
sS'with apache'
p1066
I1
sS'communications culture'
p1067
I1
sS'quantitative economics'
p1068
I1
sS'quantum chemistry'
p1069
I1
sS'pharmaceutical sciences'
p1070
I1
sS'entrepreneurial management'
p1071
I1
sS'finance and'
p1072
I1
sS'quantitative psychology'
p1073
I1
sS'analytics engineering'
p1074
I2
sS'statistics communications'
p1075
I1
sS'professional meteorology'
p1076
I1
sS'and control'
p1077
I1
sS'algorithm design'
p1078
I1
sS'and visualization'
p1079
I1
sS'metalinguistics e-discovery'
p1080
I1
sS'and conservation'
p1081
I1
sS'civil systems'
p1082
I1
sS'and systems'
p1083
I1
sS'administration computer'
p1084
I1
sS'physics optoelectronics'
p1085
I1
sS'intelligence and'
p1086
I1
sS'decision and'
p1087
I1
sS'and bioinformatics'
p1088
I5
sS'policy track'
p1089
I1
sS'ms e'
p1090
I1
sS'designated emphasis'
p1091
I1
sS'science minor'
p1092
I1
sS'systems control'
p1093
I1
sS'masters in'
p1094
I1
sS'international management'
p1095
I1
sS'theoretical macroecology'
p1096
I1
sS'entrepreneurship and'
p1097
I1
sS'mathematical science'
p1098
I1
sS'mathematics minor'
p1099
I1
sS'ee cs'
p1100
I1
sS'manufacturing systems'
p1101
I1
sS'and meteorology'
p1102
I1
sS'in environmental'
p1103
I1
sS'neuroscience statistical'
p1104
I1
sS'apache spark'
p1105
I1
sS'technology training'
p1106
I1
sS'mathematics it'
p1107
I1
sS'science bioinformatics'
p1108
I1
sS'analytics innovation'
p1109
I2
sS'- statistics'
p1110
I1
sS'analytics marketing'
p1111
I1
sS'with concentration'
p1112
I1
sS'cognitive and'
p1113
I2
sS'signal and'
p1114
I1
sS'learning applied'
p1115
I1
sS'game theory'
p1116
I1
sS'data analyis'
p1117
I1
sS'with computer'
p1118
I2
sS'financial econometrics'
p1119
I1
sS'engineering multimedia'
p1120
I1
sS'computational methods'
p1121
I1
sS'biology business'
p1122
I1
sS'resources engineering'
p1123
I1
sS'predictive modeling'
p1124
I1
sS'complex systems'
p1125
I1
sS'for design'
p1126
I1
sS'iot and'
p1127
I1
sS'molecular developmental'
p1128
I1
sS'building sciences'
p1129
I1
sS'sciences systems'
p1130
I1
sS'- fluid'
p1131
I1
sS'earth sciences'
p1132
I1
sS'and astronautical'
p1133
I3
sS'economics international'
p1134
I1
sS'biophysics biochemistry'
p1135
I1
sS'geoinformation science'
p1136
I1
sS'marketing science'
p1137
I1
sS'sciences de'
p1138
I1
sS'science systems'
p1139
I1
sS'statistical computingdata'
p1140
I2
sS'environmental engineering'
p1141
I1
sS'in business'
p1142
I1
sS'statistics research'
p1143
I1
sS'science informatics'
p1144
I1
sS'epidemiology biostatistics'
p1145
I1
sS'spectroscopy fusion'
p1146
I1
sS'economic sociology'
p1147
I1
sS'international relations'
p1148
I1
sS'digital marketing'
p1149
I1
sS'music conducting'
p1150
I1
sS'operations management'
p1151
I1
sS'multi-scale biology'
p1152
I1
sVoceanic science
p1153
I1
sS'and minor'
p1154
I1
sS'and electronics'
p1155
I1
sS'specialty in'
p1156
I1
sS'and physical'
p1157
I1
sS'physics math'
p1158
I1
sS'science all'
p1159
I1
sS'risk analytics'
p1160
I1
sS'biomathematics bioinformatics'
p1161
I3
sS'physical chemistry'
p1162
I1
sS'and business'
p1163
I1
sS'industrial design'
p1164
I1
sS'it business'
p1165
I1
sS'analytics mspa'
p1166
I1
sS'earth and'
p1167
I1
sS'physics and'
p1168
I1
sS'administration administrator'
p1169
I1
sS'computer engineering'
p1170
I1
sS'strategy and'
p1171
I1
sS'entrepreneurial studies'
p1172
I1
sS'developmental biology'
p1173
I1
sS'mathematical modelling'
p1174
I1
sS'quantitative computational'
p1175
I1
sS'resources management'
p1176
I1
sS'research major'
p1177
I1
sS'ee and'
p1178
I1
sS'and services'
p1179
I1
sS'major economics'
p1180
I1
sS'neural computing'
p1181
I1
sS'statistics track'
p1182
I1
sS'and information'
p1183
I1
sS'applied physics'
p1184
I1
sS'pharmaceutical economics'
p1185
I2
sS'and fisheries'
p1186
I1
sS'applied technology'
p1187
I1
sS'management and'
p1188
I1
sS'chemical physics'
p1189
I2
sS'studies -'
p1190
I1
sS'of the'
p1191
I1
sS'industrial enginerring'
p1192
I1
sS'and mathematics'
p1193
I1
sS'scientist data'
p1194
I2
sS'physics with'
p1195
I1
sS'and astronautics'
p1196
I1
sS'nanotechnology finance'
p1197
I1
sS'biology with'
p1198
I1
sS'mechanical and'
p1199
I3
sS'applied mechanics'
p1200
I2
sS'and geostatistics'
p1201
I1
sS'reinforcement learning'
p1202
I1
sS'writing and'
p1203
I1
sS'health society'
p1204
I1
sVsolving problem
p1205
I1
sS'computational materials'
p1206
I1
sS'engineering construction'
p1207
I1
sS'enginnering sciences'
p1208
I1
sS'env sciences'
p1209
I1
sS'and history'
p1210
I1
sS'theological and'
p1211
I1
sS'double major'
p1212
I1
sS'in neuroscience'
p1213
I1
sS'physics computational'
p1214
I1
sS'applied and'
p1215
I5
sS'engineering neuroengineering'
p1216
I1
sS'track chemistry'
p1217
I1
sS'and related'
p1218
I1
sS'and government'
p1219
I2
sS'operations research'
p1220
I1
sS'business analysis'
p1221
I1
sS'major finance'
p1222
I1
sS'open information'
p1223
I1
sS'technology in'
p1224
I1
sS'computing and'
p1225
I1
sS'systems big'
p1226
I1
sS'bioengineering and'
p1227
I10
sS'and physics'
p1228
I1
sS'statistics focus'
p1229
I1
sS'experimental physics'
p1230
I1
sS'physical geography'
p1231
I1
sS'and probability'
p1232
I1
sS'neural engineering'
p1233
I1
sS'plant biology'
p1234
I1
sS'emphasis economics'
p1235
I1
sS'electro mechanical'
p1236
I1
sS'and german'
p1237
I1
sS'computation for'
p1238
I1
sS'math data'
p1239
I1
sS'in statistical'
p1240
I1
sS'machine-learning data'
p1241
I1
sS'neuropsychology and'
p1242
I1
sS'immunology and'
p1243
I1
sS'analytics track'
p1244
I1
sS'quantitative methodology'
p1245
I1
sS'process controls'
p1246
I1
sS'dual concentration'
p1247
I1
sS'major quant'
p1248
I1
sS'astrophysics theoretical'
p1249
I1
sS'information systems'
p1250
I1
sS'international development'
p1251
I1
sS'and applied'
p1252
I1
sS'processing medical'
p1253
I1
sS'statistical methodology'
p1254
I1
sS'management marketing'
p1255
I1
sS'concentration biostatistics'
p1256
I1
sS'double concentration'
p1257
I1
sS'small business'
p1258
I1
sS'electronics computer'
p1259
I1
sS'media studies'
p1260
I1
sS'applied music'
p1261
I1
sS'liberal studies'
p1262
I1
sS'major in'
p1263
I1
sS'data and'
p1264
I1
sS'and operations'
p1265
I1
sS'learning artificial'
p1266
I1
sS'random processes'
p1267
I1
sS'applied quantitative'
p1268
I1
sS'psychological studies'
p1269
I1
sS'- remote'
p1270
I1
sS'systems and'
p1271
I1
sS'science statistical'
p1272
I1
sS'with a'
p1273
I1
sS'molecular physics'
p1274
I1
sS'learning and'
p1275
I1
sS'- analytics'
p1276
I1
sS'statistical physics'
p1277
I1
sS'public affairs'
p1278
I1
sS'mining machine'
p1279
I1
sS'industrial and'
p1280
I1
sS'biostatistics bioinformatics'
p1281
I1
sS'in operations'
p1282
I1
sS'for growing'
p1283
I1
sS'health management'
p1284
I1
sS'energy electrical'
p1285
I1
sS'signal processing'
p1286
I1
sS'through coursera'
p1287
I1
sS'astrophysics and'
p1288
I1
sS'experimental design'
p1289
I1
sS'research evaluation'
p1290
I1
sS'probability statistics'
p1291
I1
sS'analytics supply'
p1292
I1
sS'mechanical manufacturing'
p1293
I1
sS'engineering control'
p1294
I1
sS'methodology and'
p1295
I3
sS'statistics emphasis'
p1296
I1
sS'outcomes research'
p1297
I1
sS'and data'
p1298
I1
sS'focus on'
p1299
I1
sS'smart cities'
p1300
I1
sS'theoretical and'
p1301
I1
sS'social impact'
p1302
I1
sS'music technology'
p1303
I1
sS'mathematical economics'
p1304
I2
sS'lobe epilepsy'
p1305
I1
sS'and chemistry'
p1306
I1
sS'and special'
p1307
I1
sS'technology commercialization'
p1308
I1
sS'finance international'
p1309
I1
sS'psychology sociology'
p1310
I1
sS'computing with'
p1311
I1
sS'psychology evaluation'
p1312
I1
sS'vision data'
p1313
I1
sS'computing in'
p1314
I1
sS'in development'
p1315
I1
sS'and optimization'
p1316
I1
sS'medical imaging'
p1317
I1
sS'community and'
p1318
I1
sS'- an'
p1319
I1
sS'and modeling'
p1320
I1
sS'science policy'
p1321
I1
sS'of biomedical'
p1322
I1
sS'software systems'
p1323
I2
sS'microbiology immunology'
p1324
I1
sS'and literature'
p1325
I1
sS'and telecommunication'
p1326
I1
sVmodel of
p1327
I1
sS'and methodology'
p1328
I1
sS'mathematics applied'
p1329
I1
sS'engineering concentration'
p1330
I1
sS'- neuropsychology'
p1331
I1
sS'and gis'
p1332
I1
sS'theoretical ecology'
p1333
I1
sS'sciences mae'
p1334
I1
sS'computingdata mining'
p1335
I2
sS'and epidemiology'
p1336
I1
sS'psychology linguistics'
p1337
I1
sS'atmospheric and'
p1338
I1
sS'and highway'
p1339
I4
sS'research applied'
p1340
I1
sS'research financial'
p1341
I1
sS'and nonprofit'
p1342
I1
sS'systems integration'
p1343
I1
sS'business administrations'
p1344
I1
sS'neuroscience cognitive'
p1345
I1
sS'life sciences'
p1346
I1
sS'technologies computer'
p1347
I1
sS'chemistry theory'
p1348
I1
sS'and instruction'
p1349
I1
sS'indian demographics'
p1350
I1
sS'creative technologies'
p1351
I1
sS'biology concentration'
p1352
I1
sS'electronic engineering'
p1353
I1
sS'history philosophy'
p1354
I1
sS'advanced infrastructure'
p1355
I1
sS'human resources'
p1356
I1
sS'philosophy psychology'
p1357
I1
sS'biomolecular engineering'
p1358
I1
sS'science molecular'
p1359
I1
sS'geographic information'
p1360
I1
sS'enterprise information'
p1361
I1
sS'and behavior'
p1362
I1
sS'economic modeling'
p1363
I1
sS'ee robotics'
p1364
I1
sS'media multimedia'
p1365
I2
sS'and studio'
p1366
I1
sS'fine and'
p1367
I1
sS'cell molecular'
p1368
I1
sS'economics and'
p1369
I1
sS'finance supply'
p1370
I1
sS'mathematics of'
p1371
I2
sS'of human'
p1372
I1
sS'finance marketing'
p1373
I1
sS'models game'
p1374
I1
sS'religious studies'
p1375
I1
sS'buiness analytics'
p1376
I1
sS'computer and'
p1377
I1
sS'concentration business'
p1378
I1
sVproblem by
p1379
I1
sS'economics mathematics'
p1380
I1
sS'engineering pending'
p1381
I1
sS'aeronautical astronautical'
p1382
I1
sS'supply chain'
p1383
I1
sS'sentiment analysis'
p1384
I1
sS'theoretical high'
p1385
I1
sS'processing statistics'
p1386
I1
sS'statistics operations'
p1387
I1
sS'behavioral economics'
p1388
I1
sS'nursing informatics'
p1389
I1
sS'and biochemical'
p1390
I1
sS'management fellow'
p1391
I1
sS'science business'
p1392
I1
sS'world and'
p1393
I1
sS'mba international'
p1394
I1
sS'candidate in'
p1395
I1
sS'analysis and'
p1396
I1
sS'education administration'
p1397
I1
sS'statistics biology'
p1398
I1
sS'specializations in'
p1399
I1
sS'learning computer'
p1400
I1
sS'in mechanical'
p1401
I1
sS'neuroscience and'
p1402
I1
sS'biomedical physics'
p1403
I1
sS'all but'
p1404
I1
sS'modeling -'
p1405
I1
sS'concentration innovative'
p1406
I1
sS'in information'
p1407
I1
sVgraph model
p1408
I1
sS'theoretical nuclear'
p1409
I1
sS'climate and'
p1410
I1
sS'physics solar'
p1411
I1
sS'predictive analytics'
p1412
I1
sS'mathematics -'
p1413
I1
sS'communications engineering'
p1414
I7
sS'science management'
p1415
I1
sS'science geographic'
p1416
I1
sS'of science'
p1417
I1
sS'urban community'
p1418
I1
sS'high technology'
p1419
I1
sS'and science'
p1420
I1
sS'science and'
p1421
I1
sS'computing -'
p1422
I1
sS'arithmetic geometry'
p1423
I1
sS'systems management'
p1424
I4
sVphysic to
p1425
I1
sS'electrical computer'
p1426
I1
sS'health system'
p1427
I1
sS'engineering economics'
p1428
I1
sS'mathematics w'
p1429
I1
sS'ocean sciences'
p1430
I1
sS'big data'
p1431
I1
sS'computational data'
p1432
I1
sS'management finance'
p1433
I1
sS'statistics applied'
p1434
I1
sS'robotics and'
p1435
I1
sS'statistics analytics'
p1436
I1
sS'information engineering'
p1437
I1
sS'quant finance'
p1438
I1
sS'mathematical and'
p1439
I1
sS'biotech industry'
p1440
I1
sS'system operations'
p1441
I1
sS'religion philosophy'
p1442
I1
sVearth science
p1443
I1
sS'history and'
p1444
I1
sS'computational biological'
p1445
I1
sS'focus area'
p1446
I1
sS'method with'
p1447
I1
sS'genetics and'
p1448
I1
sS'econometrics operations'
p1449
I1
sS'but thesis'
p1450
I1
sS'mathematics art'
p1451
I1
sS'particle astrophysics'
p1452
I1
sS'the biotech'
p1453
I1
sS'and computer'
p1454
I1
sS'psychology developmental'
p1455
I1
sS'fintech certificate'
p1456
I1
sS'project management'
p1457
I1
sS'and telecommunications'
p1458
I1
sS'strategy entrepreneurship'
p1459
I1
sS'studies and'
p1460
I1
sS'and neuroscience'
p1461
I1
sS'applied mathematics'
p1462
I1
sS'study in'
p1463
I1
sS'marketing minor'
p1464
I1
sS'quantitative ecology'
p1465
I1
sS'speech recognition'
p1466
I1
sS'alm candidate'
p1467
I1
sS'evolution and'
p1468
I1
sS'cognitive science'
p1469
I1
sS'cognition environments'
p1470
I1
sS'research emphasis'
p1471
I1
sS'bioinformatics and'
p1472
I1
sS'and industrial'
p1473
I1
sS'health biostatistics'
p1474
I1
sVstatistical physic
p1475
I1
sS'analytics analytics'
p1476
I1
sS'population health'
p1477
I1
sS'sciences finance'
p1478
I1
sS'science general'
p1479
I1
sS'modeling of'
p1480
I1
sS'market research'
p1481
I1
sS'and financial'
p1482
I1
sS'systems communication'
p1483
I1
sS'and planetary'
p1484
I1
sS'and machine'
p1485
I1
sS'and image'
p1486
I1
sS'the atmosphere'
p1487
I1
sS'interdisciplinary computer'
p1488
I1
sS'engineering statistical'
p1489
I1
sS'energy particle'
p1490
I1
sS'integrated manufacturing'
p1491
I1
sS'computational mathematics'
p1492
I1
sS'physics experimental'
p1493
I1
sS'architectural and'
p1494
I1
sS'ecology statistics'
p1495
I1
sS'communication systems'
p1496
I1
sS'dual degree'
p1497
I1
sS'mathematics statistics'
p1498
I1
sS'applied informatics'
p1499
I1
sS'future commerce'
p1500
I1
sS'applied science'
p1501
I1
sS'business -'
p1502
I1
sS'managerial organizational'
p1503
I1
sS'probability and'
p1504
I1
sS'aerospace engineering'
p1505
I1
sS'computational analysis'
p1506
I1
sS'quantitative method'
p1507
I1
sS'social science'
p1508
I1
sS'and neurosciences'
p1509
I1
sS'business and'
p1510
I1
sS'enviornmental analysis'
p1511
I1
sS'and communications'
p1512
I1
sS'marketing research'
p1513
I1
sS'- data'
p1514
I1
sS'engineering structures'
p1515
I1
sS'computational sciences'
p1516
I1
sS'human resource'
p1517
I1
sS'systems concentration'
p1518
I1
sS'analytics project'
p1519
I2
sS'neuroscience electrical'
p1520
I1
sS'psychology neuroscience'
p1521
I1
sS'science concentration'
p1522
I1
sS'and supply'
p1523
I1
sS'with specialization'
p1524
I1
sS'and affairs'
p1525
I1
sS'applied urban'
p1526
I1
sS'integrated sciences'
p1527
I1
sS'economics of'
p1528
I1
sS'economics history'
p1529
I1
sS'mathematical finance'
p1530
I3
sS'mathematical physics'
p1531
I2
sS'economics political'
p1532
I1
sS'relations and'
p1533
I1
sS'strategic mgmt'
p1534
I1
sS'and crop'
p1535
I1
sS'degree in'
p1536
I1
sS'data analytics'
p1537
I1
sS'on project'
p1538
I1
sS'- business'
p1539
I1
sS'thesis a'
p1540
I1
sS'crop science'
p1541
I1
sS'information extraction'
p1542
I1
sS'epidemiology and'
p1543
I1
sS'enterprise software'
p1544
I1
sS'systems technologies'
p1545
I1
sS'applied computational'
p1546
I1
sS'and internet'
p1547
I1
sS'science in'
p1548
I1
sS'cell biology'
p1549
I1
sS'logic computation'
p1550
I1
sS'scientific computing'
p1551
I1
sS'mechanics and'
p1552
I1
sS'management big'
p1553
I1
sS'managerial science'
p1554
I1
sS'innovation entrepreneurship'
p1555
I2
sS'electronic design'
p1556
I1
sS'mathematics electrical'
p1557
I1
sS'genomics and'
p1558
I1
sS'research decision'
p1559
I1
sS'relation extraction'
p1560
I1
sS'of genetics'
p1561
I1
sS'behavioral sciences'
p1562
I1
sS'with an'
p1563
I1
sS'of information'
p1564
I1
sS'architecture sculpture'
p1565
I1
sS'and operational'
p1566
I1
sS'human evolutionary'
p1567
I1
sS'and biomaterials'
p1568
I1
sS'intellegence analytics'
p1569
I1
sS'learning adaptive'
p1570
I1
sS'ms in'
p1571
I1
sS'entrepreneurship entrepreneurial'
p1572
I1
sS'mathematical egineering'
p1573
I1
sS'applied statistics'
p1574
I1
sS'statistics actuarial'
p1575
I2
sS'analysis track'
p1576
I1
sS'outside of'
p1577
I1
sS'marketing management'
p1578
I1
sS'business intellegence'
p1579
I1
sS'design business'
p1580
I1
sS'quantitative genetics'
p1581
I1
sS'concentration in'
p1582
I1
sS'city and'
p1583
I1
sS'intelligent systems'
p1584
I1
sS'marketing finance'
p1585
I1
sS'and artificial'
p1586
I1
sS'advanced analytics'
p1587
I1
sS'educational measurement'
p1588
I1
sS'economics policy'
p1589
I1
sS'human development'
p1590
I1
sS'logic philosophy'
p1591
I1
sS'quantitative methods'
p1592
I1
sS'engineering computer'
p1593
I1
sS'and cartography'
p1594
I1
sS'systems computer'
p1595
I1
sS'biology medicinal'
p1596
I1
sS'systems lab'
p1597
I1
sS'artificial intelligence'
p1598
I1
sS'finance operations'
p1599
I1
sS'theoretical biology'
p1600
I1
sS'nlp graphical'
p1601
I1
sS'technology with'
p1602
I1
sS'analytical chemistry'
p1603
I2
sS'the box'
p1604
I1
sS'biological engineering'
p1605
I1
sS'graphical models'
p1606
I1
sS'physics biophysics'
p1607
I1
sS'molecular bioengineering'
p1608
I1
sS'master of'
p1609
I1
sS'finance strategic'
p1610
I1
sS'and society'
p1611
I1
sS'biophysics soft'
p1612
I1
sS'water resources'
p1613
I1
sS'related support'
p1614
I1
sS'colloid and'
p1615
I1
sS'and management'
p1616
I1
sS'cis -'
p1617
I1
sS'psychology genetics'
p1618
I1
sS'economics math'
p1619
I1
sS'technical science'
p1620
I1
sS'entrepreneurship marketing'
p1621
I1
sS'condensed matter'
p1622
I2
sS'the social'
p1623
I1
sS'infrastructure system'
p1624
I1
sS'and administration'
p1625
I1
sS'biomedical informatics'
p1626
I1
sS'sociology statistics'
p1627
I1
sS'engineering sciences'
p1628
I1
sS'industrial operations'
p1629
I1
sS'software engineering'
p1630
I1
sS'and mechanics'
p1631
I1
sS'international commerce'
p1632
I1
sS'material science'
p1633
I1
sS'environments and'
p1634
I1
sS'program for'
p1635
I1
sS'multimedia creative'
p1636
I1
sS'agricultural and'
p1637
I2
sS'and psychology'
p1638
I1
sS'art studio'
p1639
I1
sS'chemical engineering'
p1640
I1
sS'college of'
p1641
I1
sS'social welfare'
p1642
I1
sS'biochemical engineering'
p1643
I1
sS'medical physics'
p1644
I1
sS'applided statistics'
p1645
I1
sS'production engineering'
p1646
I1
sS'by thinking'
p1647
I1
sS'and evaluation'
p1648
I1
sS'and networking'
p1649
I1
sS'and engineering'
p1650
I1
sS'general management'
p1651
I1
sS"de l'ingnieur"
p1652
I1
sS'international studies'
p1653
I1
sS'business information'
p1654
I1
sS'marketing behavioral'
p1655
I1
sS'public health'
p1656
I1
sS'and mathematical'
p1657
I1
sS'genetics statistics'
p1658
I1
sS'computational modeling'
p1659
I1
sS'organizational psychology'
p1660
I1
sS'medical informatics'
p1661
I1
sS'soft matter'
p1662
I1
sS'and water'
p1663
I1
sS'climate change'
p1664
I1
sS'computational astrophysics'
p1665
I3
sS'decision sci-phd'
p1666
I1
sS'internet technology'
p1667
I1
sS'system administration'
p1668
I1
sS'studio arts'
p1669
I1
sS'speech text'
p1670
I1
sS'integrated marketing'
p1671
I1
sS'quantum science'
p1672
I1
sS'planetary science'
p1673
I1
sS'information management'
p1674
I1
sS'specializing in'
p1675
I1
sS'biology biological'
p1676
I1
sS'policy studies'
p1677
I1
sS'of env'
p1678
I1
sS'database design'
p1679
I1
sS'computational and'
p1680
I1
sS'mathematical behavioral'
p1681
I1
sS"and women's"
p1682
I1
sS'politics and'
p1683
I1
sS'in optimization'
p1684
I1
sS'and editiing'
p1685
I1
sS'family health'
p1686
I1
sS'molecular genetics'
p1687
I1
sS'science information'
p1688
I1
sS'computation group'
p1689
I1
sS'devices systems'
p1690
I1
sS'marketing and'
p1691
I1
sS'algebraic topology'
p1692
I1
sS'predictive analysis'
p1693
I1
sS'biomedical medical'
p1694
I1
sS'data science'
p1695
I1
sS'data informatics'
p1696
I1
sS'biology general'
p1697
I2
sS'physical oceanography'
p1698
I2
sS'integrated computing'
p1699
I1
sS'analytical physical'
p1700
I1
sS'science econometrics'
p1701
I1
sS'mechanical engineering'
p1702
I1
sS'digital media'
p1703
I1
sS'applied econometrics'
p1704
I1
sS'statistics minor'
p1705
I1
sS'engineering physics'
p1706
I1
sS'and developmental'
p1707
I1
sS'management services'
p1708
I1
sS'applied to'
p1709
I1
sS'marketing communications'
p1710
I1
sS'engineering via'
p1711
I1
sS'business systems'
p1712
I1
sS'action line'
p1713
I1
sS'health care'
p1714
I1
sS'environmental systems'
p1715
I1
sS'growing companies'
p1716
I1
sS'focusing on'
p1717
I1
sS'biophysical chemistry'
p1718
I1
sS'computational engineering'
p1719
I1
sS'biological anthropology'
p1720
I2
sS'science predictive'
p1721
I1
sS'analysis public'
p1722
I1
sS'business economics'
p1723
I1
sS'learning robotics'
p1724
I1
sS'finance business'
p1725
I1
sS'computational earth'
p1726
I1
sS'urban planning'
p1727
I1
sS'construction management'
p1728
I1
sS'and real'
p1729
I1
sS'decision analytics'
p1730
I1
sS'web development'
p1731
I1
sS'electrical engrg'
p1732
I1
sS'biological basis'
p1733
I1
sS'and cell'
p1734
I1
sS'educational psychology'
p1735
I1
sS'information theory'
p1736
I1
sS'sciences general'
p1737
I1
sS'studio art'
p1738
I1
sS'demographics -'
p1739
I1
sS'finance writing'
p1740
I1
sS'neuroscience computer'
p1741
I1
sS'geography -'
p1742
I1
sS'computational chemistry'
p1743
I1
sS'and outcomes'
p1744
I1
sS'major mathematics'
p1745
I1
sS'and international'
p1746
I1
sS'policy analysis'
p1747
I1
sS'statistical science'
p1748
I1
sS'interdisciplinary materials'
p1749
I1
sS'decisions department'
p1750
I1
sS'biomedical image'
p1751
I1
sS'finance economics'
p1752
I1
sS'energy theory'
p1753
I1
sS'philosophy physics'
p1754
I2
sS'and astrophysics'
p1755
I1
sS'mathematical engineering'
p1756
I1
sS'business leadership'
p1757
I1
sS'managerial economics'
p1758
I1
sS'in social'
p1759
I1
sS'models of'
p1760
I1
sS'math and'
p1761
I1
sS'diagnostic engineering'
p1762
I1
sS'theory computation'
p1763
I1
sS'and astrobiology'
p1764
I1
sS'systems technology'
p1765
I1
sS'urban science'
p1766
I1
sS'learning engineer'
p1767
I2
sS'engineering -'
p1768
I1
sS'sensing and'
p1769
I1
sS'language science'
p1770
I1
sS'chemical engg'
p1771
I1
sS'environmental conservation'
p1772
I1
sS'sciences concentration'
p1773
I1
sS'information analysis'
p1774
I1
sS'spin electrodynamics'
p1775
I1
sS'manufacturing management'
p1776
I1
sS'industrial systems'
p1777
I1
sS'english and'
p1778
I1
sS'public policy'
p1779
I1
sS'health and'
p1780
I1
sS'of statistical'
p1781
I1
sS'accounting finance'
p1782
I1
sS'chain decision'
p1783
I1
sS'industrial engineering'
p1784
I1
sS'mathematical statistics'
p1785
I1
sS'information security'
p1786
I1
sS'data analysis'
p1787
I1
sS'policy management'
p1788
I1
sS'nielsen audience'
p1789
I1
sS'mathematics neuroscience'
p1790
I1
sS'optical physics'
p1791
I1
sS'- advanced'
p1792
I1
sS'statistics cognitive'
p1793
I1
sS'analytics business'
p1794
I1
sS'in linguistics'
p1795
I1
sS'scientific computation'
p1796
I1
sS'marketing analytics'
p1797
I1
sS'logistics materials'
p1798
I1
sS'imaging informatics'
p1799
I1
sS'oracle database'
p1800
I1
sS'intelligent transportation'
p1801
I1
sS'- mechanical'
p1802
I1
sS'in marketing'
p1803
I1
sS'database systems'
p1804
I1
sS'clinical psychology'
p1805
I2
sS'network and'
p1806
I1
sS'applied cultural'
p1807
I1
sS'statistical practice'
p1808
I1
sS'quantitative analysis'
p1809
I1
sS'to random'
p1810
I1
sS'marketing information'
p1811
I1
sS'nutrition sciences'
p1812
I1
sS'and beam'
p1813
I1
sS'ecology and'
p1814
I1
sS'and marketing'
p1815
I1
sS'psychology psycholinguistics'
p1816
I1
sS'finance accounting'
p1817
I1
sS'mathematics double'
p1818
I1
sS'learning nlp'
p1819
I1
sS'chemistry geology'
p1820
I1
sS'astronomy and'
p1821
I1
sS'information quality'
p1822
I1
sS'finance risk'
p1823
I1
sS'systems engineering'
p1824
I1
sS'science eecs'
p1825
I1
sS'statistics financial'
p1826
I1
sS'statistics with'
p1827
I1
sS'bioengineering data'
p1828
I1
sS'human biology'
p1829
I1
sS'psychology -'
p1830
I1
sS'machine condition'
p1831
I1
sS'ee systems'
p1832
I1
sS'technology and'
p1833
I1
sS'and planning'
p1834
I1
sS'computer speech'
p1835
I1
sS'asian studies'
p1836
I1
sS'regional planning'
p1837
I1
sS'and cancer'
p1838
I1
sS'innovation and'
p1839
I1
sS'mathematics technical'
p1840
I1
sS'environmental and'
p1841
I1
sS'developmental cognitive'
p1842
I1
sS'micro electro'
p1843
I1
sS'and indian'
p1844
I1
sS'international business'
p1845
I1
sS'or ie'
p1846
I1
sS'env monitoring'
p1847
I1
sS'nuclear astrophysics'
p1848
I1
sS'spatial analytics'
p1849
I1
sS'aerospace and'
p1850
I1
sS'communication and'
p1851
I1
sS'microbial diseases'
p1852
I1
sS'finance concentration'
p1853
I1
sS'computation and'
p1854
I1
sS'mathematics sociology'
p1855
I1
sS'marketing small'
p1856
I1
sS'in physics'
p1857
I1
sS'science marketing'
p1858
I1
sVwith honor
p1859
I1
sS'commerce general'
p1860
I1
sS'cell and'
p1861
I1
sS'science operation'
p1862
I1
sS'mathematics co-majors'
p1863
I1
sS'management research'
p1864
I1
sS'learning random'
p1865
I1
s.