(dp1
Vdifferential equations
p2
I14
sVelectrophysiology
p3
I18
sVsystem design
p4
I21
sVpersonnel selection
p5
I6
sVcontent management
p6
I15
sVcognitive neuroscience
p7
I28
sVmatlab
p8
I23
sVquantum computing
p9
I6
sVteaching
p10
I356
sVdata entry
p11
I12
sVgeology
p12
I11
sVetl tools
p13
I7
sVhealth informatics
p14
I7
sVcategorical data analysis
p15
I20
sVembedded c
p16
I10
sVsurface chemistry
p17
I13
sVvoip
p18
I11
sVunity3d
p19
I10
sVcross-functional team leadership
p20
I145
sVrisk assessment
p21
I13
sVdatabase management
p22
I6
sVengineering management
p23
I33
sVfinancial services
p24
I27
sVcms
p25
I8
sVnumerical analysis
p26
I318
sVvhdl
p27
I31
sVstatistical mechanics
p28
I10
sVjapanese
p29
I9
sVprocess improvement
p30
I169
sVvirtualization
p31
I18
sVassociation rules
p32
I6
sVstatistical signal processing
p33
I16
sVasic
p34
I7
sVtime management
p35
I59
sVmac os
p36
I17
sVenvironmental science
p37
I34
sVrandom forests
p38
I8
sVagile project management
p39
I61
sVtransportation planning
p40
I14
sVinformation technology
p41
I39
sVglm
p42
I16
sVeconomics
p43
I251
sVsql database design
p44
I6
sVcredit
p45
I13
sVweb mining
p46
I11
sVmilitary
p47
I27
sVsas enterprise miner
p48
I67
sVcomputer architecture
p49
I13
sVclassification
p50
I34
sVpopulation genetics
p51
I14
sVjulia
p52
I10
sVunix
p53
I7
sVexperimentation
p54
I114
sVderivatives
p55
I78
sVdna
p56
I16
sVarmy
p57
I6
sVregression models
p58
I53
sVrisk management
p59
I160
sVcampaign management
p60
I10
sVstructural equation modeling
p61
I13
sVweb design
p62
I40
sVsap2000
p63
I6
sVjmp
p64
I112
sVdrug design
p65
I7
sVprocess automation
p66
I6
sVcomputational linguistics
p67
I25
sVenergy efficiency
p68
I16
sVerp
p69
I35
sVeclipse
p70
I107
sVroot
p71
I21
sVscripting
p72
I10
sVdynamical systems
p73
I13
sVportfolio management
p74
I80
sVrevenue analysis
p75
I7
sVeducational technology
p76
I9
sVportfolio optimization
p77
I15
sVcontract negotiation
p78
I11
sVsharepoint
p79
I56
sVsas enterprise guide
p80
I10
sVbusiness planning
p81
I33
sVtext classification
p82
I17
sVfinal cut pro
p83
I6
sVwebsite development
p84
I13
sVoracle e-business suite
p85
I8
sVcomputer graphics
p86
I14
sVfluid mechanics
p87
I24
sVsparql
p88
I8
sVbootstrap
p89
I26
sVe-commerce
p90
I102
sValgorithms
p91
I1126
sVhealth economics
p92
I21
sVintellectual property
p93
I8
sVrt-pcr
p94
I8
sVrnaseq
p95
I10
sVcapital markets
p96
I42
sVgoogle docs
p97
I10
sVcounterterrorism
p98
I7
sVr programming
p99
I16
sVwriting
p100
I59
sVstatistical software
p101
I26
sVmolecular dynamics
p102
I30
sVchromatography
p103
I7
sVsurvey design
p104
I73
sVsap erp
p105
I17
sVbusiness transformation
p106
I16
sVcloudera
p107
I13
sVpharmaceutical industry
p108
I27
sVbiomaterials
p109
I10
sVrequirements gathering
p110
I58
sVcartography
p111
I13
sVspanish
p112
I65
sVtrading
p113
I48
sVrelational databases
p114
I41
sVdirect marketing
p115
I42
sVparticle physics
p116
I36
sVdsp
p117
I6
sVrf
p118
I10
sVdatabase marketing
p119
I61
sVmedicine
p120
I10
sVspatial databases
p121
I13
sVcancer research
p122
I11
sVdata scientist
p123
I9
sVsensors
p124
I60
sVcell culture
p125
I58
sVmachining
p126
I8
sVstochastic optimization
p127
I11
sVmicrosoft azure
p128
I8
sVproteomics
p129
I14
sVoperational planning
p130
I10
sVproperty & casualty insurance
p131
I12
sVneo4j
p132
I23
sVprocess simulation
p133
I16
sVbasic html
p134
I7
sVmicrofabrication
p135
I7
sVinvestment banking
p136
I25
sVnetbeans
p137
I7
sVsocial media measurement
p138
I6
sVstruts
p139
I21
sVorganic synthesis
p140
I6
sVidl programming
p141
I9
sVabap
p142
I10
sVlifesciences
p143
I53
sVdimensional modeling
p144
I13
sVoperating systems
p145
I23
sVtext mining
p146
I180
sVit strategy
p147
I76
sVactuarial science
p148
I33
sVstrategic thinking
p149
I10
sVit service management
p150
I14
sVperformance improvement
p151
I8
sVsolar energy
p152
I14
sVdata collection
p153
I45
sVampl
p154
I29
sVkalman filtering
p155
I8
sVfixed income
p156
I59
sVsupply chain optimization
p157
I24
sVdrug delivery
p158
I6
sVphotolithography
p159
I8
sVfunctional genomics
p160
I7
sVbusiness intelligence
p161
I654
sVangularjs
p162
I37
sVmarket basket analysis
p163
I9
sVunix shell scripting
p164
I96
sVcontrol systems design
p165
I9
sVuser experience
p166
I53
sVfirmware
p167
I14
sVmarketing automation
p168
I7
sVsocial media marketing
p169
I65
sVproject coordination
p170
I9
sVdna sequencing
p171
I12
sVnatural language processing
p172
I385
sVptc creo
p173
I10
sVfinancial analysis
p174
I184
sVperformance measurement
p175
I7
sVbigquery
p176
I6
sVmetrics
p177
I8
sVpentaho
p178
I17
sVinventory management
p179
I13
sVnonprofits
p180
I69
sVgeographic information science
p181
I10
sVgsm
p182
I9
sVtissue culture
p183
I11
sVdod
p184
I28
sVos x
p185
I13
sVlaboratory skills
p186
I8
sVsupply chain
p187
I17
sVstrategic planning
p188
I255
sVvisual studio
p189
I79
sVcreative problem solving
p190
I7
sVd3
p191
I17
sVtechnical communication
p192
I6
sVhealthcare management
p193
I17
sVcritical thinking
p194
I38
sVweb marketing
p195
I7
sVgraph theory
p196
I36
sVcryptography
p197
I11
sVstructural engineering
p198
I10
sVsharepoint designer
p199
I7
sVevent planning
p200
I67
sVcustomer relationship management (crm)
p201
I30
sVcollaborative filtering
p202
I15
sVdigital strategy
p203
I34
sVprogram evaluation
p204
I54
sVdrug development
p205
I9
sVpsychophysics
p206
I8
sVmicroscopy
p207
I46
sVj2ee web services
p208
I7
sVsequence analysis
p209
I19
sVarchitecture
p210
I45
sVemr
p211
I14
sVhigh availability
p212
I11
sVmergers
p213
I7
sVacademic tutoring
p214
I10
sVactive directory
p215
I7
sVtesting
p216
I156
sVanalytics
p217
I1084
sVstatistical computing
p218
I50
sVcorporate development
p219
I7
sVr&d
p220
I87
sVbiomechanics
p221
I10
sVfield work
p222
I12
sVcustomer service
p223
I166
sVhtml5
p224
I65
sVmodeling
p225
I178
sVdecision analysis
p226
I29
sVquantitative research
p227
I206
sVsecurity clearance
p228
I29
sVtechnical analysis
p229
I6
sVpress releases
p230
I9
sVcustomer support
p231
I6
sVdata integration
p232
I51
sVnegotiation
p233
I28
sVstatistical modeling
p234
I1126
sVshell scripting
p235
I158
sVprotein purification
p236
I18
sVsystems design
p237
I7
sVfourier analysis
p238
I6
sVtelecommunications
p239
I42
sVpricing optimization
p240
I6
sVnonlinear dynamics
p241
I11
sVfortran
p242
I164
sVdeep learning
p243
I6
sVonline research
p244
I8
sVdreamweaver
p245
I11
sVnumpy
p246
I129
sVanalysis services
p247
I9
sVinternational business
p248
I9
sVdecision trees
p249
I109
sVaviation
p250
I9
sVich-gcp
p251
I8
sVlean six sigma
p252
I11
sVprogram development
p253
I30
sVoptimization algorithms
p254
I7
sVdashboard
p255
I17
sVproduct management
p256
I182
sVunstructured data
p257
I9
sVadvertising research
p258
I6
sVr studio
p259
I7
sVip
p260
I24
sVemployee training
p261
I13
sVdatabase administration
p262
I41
sVgams
p263
I26
sVic
p264
I13
sVcommunity outreach
p265
I72
sVcopy editing
p266
I7
sVonline advertising
p267
I72
sVlogistics management
p268
I6
sVmedical devices
p269
I53
sVbloomberg
p270
I53
sVhipaa
p271
I13
sVdigital image processing
p272
I36
sVperformance metrics
p273
I6
sVpresto
p274
I11
sVmarket data
p275
I8
sVimage analysis
p276
I43
sVgoogle adwords
p277
I28
sVmaterials
p278
I12
sVnetezza
p279
I27
sVobiee
p280
I13
sVpeople skills
p281
I6
sVinvestments
p282
I55
sVinformation security management
p283
I7
sVweb applications
p284
I70
sVsolaris
p285
I10
sVbiostatistics
p286
I117
sVperformance tuning
p287
I18
sVpsychometrics
p288
I25
sVsystem identification
p289
I6
sVproduct strategy
p290
I7
sVdistributed systems
p291
I235
sVvisualization
p292
I15
sVwater resources
p293
I9
sVagile
p294
I9
sVsoftware project management
p295
I140
sVopencv
p296
I44
sVevolutionary computation
p297
I7
sVoracle sql
p298
I28
sVstrategic communications
p299
I7
sVuser research
p300
I9
sVsalesforce.com
p301
I52
sVnumerical simulation
p302
I75
sVmobile marketing
p303
I17
sVsocial networking
p304
I71
sVscikit-learn
p305
I10
sVsecurities
p306
I9
sVonline marketing
p307
I45
sVmanaged care
p308
I9
sVwindows 7
p309
I7
sVsecurity
p310
I55
sVrstudio
p311
I8
sVcentos
p312
I7
sVtext analytics
p313
I80
sVgel electrophoresis
p314
I9
sVhealth policy
p315
I8
sVsocial sciences
p316
I12
sVflow cytometry
p317
I15
sVsociology
p318
I8
sVcognitive psychology
p319
I19
sVdata migration
p320
I18
sVuml
p321
I40
sVmonetization
p322
I8
sVproduct development
p323
I133
sVgenomics
p324
I76
sVmarketing
p325
I187
sVmicrofluidics
p326
I9
sVscience communication
p327
I7
sVopen source
p328
I20
sVmanufacturing
p329
I41
sVinvestment strategies
p330
I6
sVpostgresql
p331
I176
sVgis analysis
p332
I7
sVjoomla
p333
I6
sVproduct innovation
p334
I7
sVsoa
p335
I60
sVsoc
p336
I9
sVintelligence analysis
p337
I20
sVdashboards
p338
I8
sVhaskell
p339
I15
sVenvironmental policy
p340
I18
sVgit
p341
I258
sVgis
p342
I112
sVabaqus
p343
I7
sVsustainable development
p344
I10
sVcombinatorics
p345
I7
sVwordpress
p346
I27
sVastrophysics
p347
I46
sVmusic
p348
I9
sVfpga
p349
I19
sVeconometric modeling
p350
I24
sVwireless
p351
I36
sVjob analysis
p352
I6
sVhuman factors
p353
I6
sVdata architecture
p354
I13
sVelectrical engineering
p355
I40
sVorganizational effectiveness
p356
I8
sVpowershell
p357
I6
sVhigher education
p358
I104
sVhealth insurance
p359
I11
sVtheoretical physics
p360
I33
sVsimulations
p361
I506
sVaccounting
p362
I29
sVsoftware as a service (saas)
p363
I13
sVeconomic research
p364
I27
sVexcel
p365
I103
sVsybase
p366
I6
sVcomputer science
p367
I310
sVcheminformatics
p368
I6
sVjenkins
p369
I13
sVsocial media analytics
p370
I9
sVtoad
p371
I6
sVcustomer retention
p372
I10
sVsql
p373
I2607
sVneuroscience
p374
I85
sVdisaster recovery
p375
I13
sVcloud computing
p376
I205
sVamazon web services (aws)
p377
I232
sVbusiness strategy
p378
I230
sVexploratory data analysis
p379
I30
sVnlp
p380
I79
sVchaid
p381
I6
sVinterest rate derivatives
p382
I10
sVweb 2.0
p383
I6
sVtechnical leadership
p384
I28
sVflask
p385
I23
sVjava enterprise edition
p386
I52
sVscientific visualization
p387
I12
sVdrug discovery
p388
I30
sVclinical decision support
p389
I6
sVvisual c++
p390
I15
sVcloudera impala
p391
I9
sVbiopharmaceuticals
p392
I6
sVword
p393
I22
sVobject recognition
p394
I8
sVsolver
p395
I6
sVruby on rails
p396
I72
sVcivil engineering
p397
I20
sVreal estate
p398
I8
sVpmp
p399
I21
sVglobal health
p400
I7
sVspeech processing
p401
I6
sVmicroarray analysis
p402
I15
sVdata-driven decision making
p403
I7
sVit management
p404
I30
sVpmo
p405
I15
sVhdfs
p406
I9
sVssis
p407
I45
sVcreative writing
p408
I13
sVprofessional services
p409
I18
sVtransportation
p410
I9
sVgeostatistics
p411
I6
sVfrench
p412
I23
sVwater
p413
I10
sVapache
p414
I22
sVsoftware development
p415
I509
sVspecial education
p416
I6
sVvb.net
p417
I28
sVthin films
p418
I20
sVsemiconductor device
p419
I7
sVenvironmental consulting
p420
I7
sVhealthcare analytics
p421
I18
sVcausal inference
p422
I11
sVaccount management
p423
I22
sVperl
p424
I271
sVcrowdsourcing
p425
I9
sVvisio
p426
I76
sVdata management
p427
I147
sVneurophysiology
p428
I8
sVcplex
p429
I41
sVbusiness process
p430
I58
sVb testing
p431
I41
sVgeophysics
p432
I15
sVindustrial organization
p433
I6
sVdata processing
p434
I8
sVsap bi
p435
I12
sVfunctional programming
p436
I13
sVmachine learning
p437
I2493
sVreverse engineering
p438
I6
sVhidden markov models
p439
I12
sVcluster analysis
p440
I99
sVsap bw
p441
I11
sVdisplay advertising
p442
I7
sVweb content
p443
I7
sVspc
p444
I14
sVrandom forest
p445
I10
sVbusiness modeling
p446
I7
sVsimulink
p447
I62
sVpyspark
p448
I7
sVtechnical recruiting
p449
I7
sVcomputer vision
p450
I163
sVadobe creative suite
p451
I39
sVsocial psychology
p452
I6
sVwireless sensor networks
p453
I6
sVhtml 5
p454
I38
sVphotography
p455
I19
sVcomputational biology
p456
I105
sVsustainability
p457
I23
sVpolitical science
p458
I18
sVdata wrangling
p459
I22
sVdata
p460
I13
sVcredit cards
p461
I12
sVextract, transform, load (etl)
p462
I29
sVpurification
p463
I9
sVarena simulation software
p464
I29
sVcatastrophe modeling
p465
I8
sVtutoring
p466
I34
sVsd
p467
I6
sVppc
p468
I16
sVoncology
p469
I20
sVdata warehouse architecture
p470
I17
sVconsulting
p471
I207
sVquality control
p472
I12
sVheat transfer
p473
I14
sVdb2
p474
I29
sVarduino
p475
I15
sVprocess engineering
p476
I33
sVproduct marketing
p477
I45
sVcontrol theory
p478
I10
sVdigital media
p479
I25
sVcoaching
p480
I24
sVmicrostrategy
p481
I17
sVpolicy
p482
I46
sVsurvey research
p483
I44
sVfinance
p484
I104
sVuser interface design
p485
I13
sVqualitative & quantitative research methodologies
p486
I6
sVanalytical skills
p487
I87
sVinnovation management
p488
I11
sVcognition
p489
I13
sVlogistic regression
p490
I247
sVrenewable energy
p491
I36
sVlinear programming
p492
I61
sVfeature extraction
p493
I9
sVc++
p494
I1294
sVair force
p495
I7
sVmahout
p496
I37
sVcomputer hardware
p497
I7
sVhibernate
p498
I23
sVembedded software
p499
I23
sVtheory
p500
I28
sVcissp
p501
I6
sVcart
p502
I6
sVbusiness analytics
p503
I230
sVajax
p504
I37
sVjdbc
p505
I8
sVentrepreneurship
p506
I150
sVmarketing mix modeling
p507
I8
sVtraining
p508
I100
sVprogramming
p509
I777
sVbusiness objects
p510
I47
sVdata security
p511
I6
sVansys
p512
I24
sVcustomer insight
p513
I72
sVproofreading
p514
I7
sVcomputer forensics
p515
I6
sVmathematical modeling
p516
I725
sVnmr spectroscopy
p517
I7
sVimage processing
p518
I241
sVfmri
p519
I23
sVenterprise architecture
p520
I106
sVmultivariable calculus
p521
I7
sVcontent strategy
p522
I14
sVscanning electron microscopy
p523
I23
sVmems
p524
I8
sVsemantics
p525
I6
sVlucene
p526
I19
sVorganizational leadership
p527
I8
sVr
I2743
sVstart-ups
p528
I185
sVant
p529
I7
sVwestern blotting
p530
I27
sVsas
p531
I1133
sVsap
p532
I35
sVcassandra
p533
I41
sVpcb design
p534
I7
sVcomsol
p535
I13
sVmicrocontrollers
p536
I18
sVwcf
p537
I7
sVapache hive
p538
I8
sVerdas imagine
p539
I6
sVcompetitive intelligence
p540
I36
sVgreenplum
p541
I17
sVprotein chemistry
p542
I27
sVlatex
p543
I929
sVdesign patterns
p544
I22
sVsystem testing
p545
I8
sVsql server
p546
I27
sVmutual funds
p547
I7
sVmicrosoft word
p548
I314
sVfinancial engineering
p549
I18
sVapache storm
p550
I19
sVsas certified base programmer
p551
I36
sVsurvival analysis
p552
I71
sVgerman
p553
I11
sVnonlinear optimization
p554
I7
sVemail marketing
p555
I39
sVnetwork security
p556
I28
sVbiometrics
p557
I10
sVgeography
p558
I11
sVxml
p559
I196
sVweb scraping
p560
I74
sVandroid development
p561
I34
sVaudio engineering
p562
I6
sVgroovy
p563
I10
sVdata modeling
p564
I314
sVstata
p565
I8
sVrisk analysis
p566
I23
sVcomputational physics
p567
I49
sVsystems biology
p568
I37
sVamazon ec2
p569
I23
sVpostgis
p570
I10
sVstatistical tools
p571
I9
sVcommunity organizing
p572
I7
sVgoogle api
p573
I6
sVquality improvement
p574
I6
sVuv
p575
I12
sVeconomic development
p576
I13
sVlean startup
p577
I7
sVquantitative finance
p578
I89
sVcorporate finance
p579
I47
sVprogramming languages
p580
I8
sVoutsourcing
p581
I11
sVbig data analytics
p582
I146
sVstructural bioinformatics
p583
I6
sVmandarin
p584
I28
sVregulatory affairs
p585
I8
sVjboss application server
p586
I6
sVelectronic trading
p587
I14
sVsocial network analysis
p588
I63
sVcombinatorial optimization
p589
I11
sVdata structures
p590
I91
sVtranscad
p591
I6
sVspark
p592
I181
sVdata visualization
p593
I494
sVsolidworks
p594
I26
sVmicrosoft visual studio c++
p595
I7
sVprobability theory
p596
I33
sVoptimal control
p597
I9
sVforecasting
p598
I164
sVcancer
p599
I21
sVcharacterization
p600
I59
sVrobotics
p601
I46
sVgrants
p602
I18
sVdata warehousing
p603
I235
sVdata mining
p604
I1969
sVweb crawling
p605
I10
sVqlikview
p606
I34
sVuniversity teaching
p607
I90
sVsap r/3
p608
I9
sVstatistical data analysis
p609
I326
sVpowerpivot
p610
I6
sVvisual analytics
p611
I9
sVmolecular biology
p612
I120
sVqlikview development
p613
I8
sVspotfire
p614
I21
sVsales operations
p615
I7
sVruby
p616
I79
sVhedis
p617
I6
sVcollege teaching
p618
I8
sVnetwork optimization
p619
I6
sVdecision modeling
p620
I7
sVgo-to-market strategy
p621
I13
sVeditorial
p622
I6
sVapplication development
p623
I6
sVios development
p624
I8
sVcluster
p625
I6
sVcobol
p626
I6
sVprogram management
p627
I273
sVservlets
p628
I14
sVstructural biology
p629
I8
sVmicroarray
p630
I6
sVhtml
p631
I439
sVreliability engineering
p632
I6
sVroot cause analysis
p633
I12
sVpro engineer
p634
I12
sVin vivo
p635
I9
sVt-sql
p636
I46
sVawesomeness
p637
I7
sVconsumer behaviour
p638
I16
sVenvironmental engineering
p639
I12
sVapplied probability
p640
I15
sVdigital marketing
p641
I91
sVassembly language
p642
I8
sVnosql
p643
I112
sVperformance testing
p644
I7
sVvolunteer management
p645
I14
sVrest
p646
I51
sVtechnical documentation
p647
I6
sVsales presentations
p648
I6
sVdigital analytics
p649
I6
sVchange management
p650
I49
sVautocad
p651
I83
sVbayesian statistics
p652
I171
sVd3.js
p653
I148
sVsubversion
p654
I38
sVomniture
p655
I36
sVsalesforce.com administration
p656
I6
sVprezi
p657
I6
sVdata science
p658
I939
sVwindows server
p659
I16
sVamazon s3
p660
I10
sVinformation visualization
p661
I17
sVmilitary experience
p662
I7
sVvacuum
p663
I6
sVclient presentation
p664
I8
sVmathematics education
p665
I14
sVpharmacovigilance
p666
I6
sVcustomer experience
p667
I6
sVmathematical biology
p668
I6
sVmicrosoft office
p669
I1050
sVstatistical inference
p670
I25
sVb2b marketing
p671
I10
sVimagej
p672
I9
sVventure capital
p673
I25
sVsolid mechanics
p674
I6
sVpublic relations
p675
I34
sVinformation retrieval
p676
I127
sVsoftware design
p677
I86
sVmass spectrometry
p678
I18
sVmilitary operations
p679
I16
sVmarket risk
p680
I18
sVgenetics
p681
I64
sVredis
p682
I22
sVequity research
p683
I26
sVmathcad
p684
I7
sVgeographic information systems (gis)
p685
I17
sVnmr
p686
I12
sVmicrosoft crm
p687
I6
sVnvivo
p688
I7
sVleadership
p689
I582
sVbiomedical engineering
p690
I83
sVbusiness process improvement
p691
I83
sVorganic chemistry
p692
I11
sVspss
p693
I541
sVmedicare
p694
I12
sVcuda
p695
I29
sVcyber-security
p696
I10
sVoutlook
p697
I16
sVfundraising
p698
I38
sVcommunication
p699
I38
sVstochastic calculus
p700
I23
sVdue diligence
p701
I23
sVmathematical physics
p702
I9
sVtransportation engineering
p703
I11
sVehr
p704
I10
sVopengl
p705
I19
sVstrategic consulting
p706
I13
sVemacs
p707
I10
sVdata munging
p708
I13
sVgrowth hacking
p709
I11
sVgraphical models
p710
I8
sVapis
p711
I29
sVknowledge representation
p712
I6
sVchemical engineering
p713
I16
sVcomputer security
p714
I18
sVfraud
p715
I12
sVillustrator
p716
I24
sVsap netweaver
p717
I8
sVstatistical learning
p718
I12
sVamazon redshift
p719
I28
sVsqoop
p720
I33
sVsales
p721
I61
sVobjective-c
p722
I38
sVssrs
p723
I49
sVhigh performance computing
p724
I119
sVlaboratory
p725
I39
sVpolitics
p726
I22
sVnanofabrication
p727
I16
sVhospitals
p728
I11
sVbiochemistry
p729
I71
sVcomputational chemistry
p730
I20
sVstorage
p731
I7
sVequity derivatives
p732
I19
sVdatabase development
p733
I11
sVmathematics
p734
I209
sVggplot
p735
I7
sVquantum chemistry
p736
I7
sVsap implementation
p737
I7
sVparallel programming
p738
I25
sVwifi
p739
I7
sVstochastic modeling
p740
I33
sVinteraction design
p741
I6
sVqualitative research
p742
I185
sVchinese
p743
I19
sVhedge funds
p744
I39
sVuser experience design
p745
I8
sVmicrosoft sql server
p746
I331
sVagile methodologies
p747
I275
sVsolar cells
p748
I7
sVmaterials science
p749
I60
sVmpi
p750
I38
sVgovernment contracting
p751
I6
sVmergers & acquisitions
p752
I26
sVinfectious diseases
p753
I10
sVemployee engagement
p754
I11
sVbioconductor
p755
I7
sVlisp
p756
I11
sVmapreduce
p757
I343
sVcommon lisp
p758
I10
sVservers
p759
I8
sVlecturing
p760
I12
sVsystems analysis
p761
I25
sVinformation design
p762
I6
sVbatch processing
p763
I8
sVacademic writing
p764
I12
sVresearch and development (r&d)
p765
I8
sVstatistical consulting
p766
I35
sVpowder x-ray diffraction
p767
I6
sVmicrobiology
p768
I12
sVlarge-scale data analysis
p769
I30
sVbayesian networks
p770
I21
sVsegmentation
p771
I193
sVmachine vision
p772
I10
sVwritten & oral presentation skills
p773
I13
sVb2b
p774
I14
sVarena
p775
I9
sVsearch
p776
I22
sVcomputational neuroscience
p777
I22
sVadvertising
p778
I33
sVoptions
p779
I36
sVqualtrics
p780
I12
sVsemiconductors
p781
I50
sVpolitical campaigns
p782
I8
sVvim
p783
I17
sVgraphic design
p784
I21
sVvis
p785
I13
sVmobile advertising
p786
I10
sVesri
p787
I12
sVweb analytics
p788
I155
sVstructured products
p789
I13
sVpetroleum
p790
I7
sVgovernance
p791
I14
sVquantum mechanics
p792
I11
sVrequirements management
p793
I9
sVgrant writing
p794
I62
sVgenetic algorithms
p795
I27
sVorganization
p796
I6
sVqpcr
p797
I17
sVscience
p798
I361
sVprimary research
p799
I7
sVmobile applications
p800
I69
sVbudgets
p801
I33
sVcustomer acquisition
p802
I13
sVvisual basic
p803
I110
sVequities
p804
I70
sVsql server management studio
p805
I21
sVstatistical arbitrage
p806
I8
sVmvc
p807
I6
sValgorithm development
p808
I27
sVasset allocation
p809
I7
sVcss
p810
I235
sValgebra
p811
I6
sVbiophysics
p812
I31
sVpartial differential equations
p813
I19
sVbioinformatics
p814
I205
sVclinical trials
p815
I62
sVa
I103
sVgithub
p816
I105
sVremote sensing
p817
I39
sVdocumentation
p818
I7
sVmathematica
p819
I362
sVdjango
p820
I51
sVembedded systems
p821
I75
sVnltk
p822
I32
sVphotoshop
p823
I113
sVhealthcare industry
p824
I6
sVdata acquisition
p825
I11
sVstrategic partnerships
p826
I49
sVradar
p827
I8
sVpanel data analysis
p828
I8
sVevolutionary biology
p829
I8
sVanomaly detection
p830
I19
sVpcr
p831
I47
sVc
I887
sVmonte carlo simulation
p832
I221
sVsupply chain management
p833
I64
sVuser interface
p834
I6
sVcurriculum development
p835
I14
sVpca
p836
I7
sVproject engineering
p837
I8
sVbayesian methods
p838
I35
sVscipy
p839
I86
sVstaff development
p840
I8
sVbusiness development
p841
I139
sV python
p842
I6
sVcommunication skills
p843
I11
sVknowledge management
p844
I21
sVenergy
p845
I33
sVdecision support
p846
I12
sVms excel pivot tables
p847
I27
sVenvironmental awareness
p848
I21
sVprincipal component analysis
p849
I33
sVimmunohistochemistry
p850
I22
sVinsurance
p851
I22
sVcollaborative problem solving
p852
I9
sVfluid dynamics
p853
I22
sVpsychology
p854
I46
sVresearch
p855
I1432
sVdimensionality reduction
p856
I14
sVsdlc
p857
I182
sVbusiness requirements
p858
I11
sVmicroeconomics
p859
I23
sVasp
p860
I9
sValgorithm design
p861
I80
sVmathematical analysis
p862
I15
sVbash
p863
I100
sVhedging
p864
I8
sVdrupal
p865
I11
sVmobile devices
p866
I51
sVclinical data management
p867
I20
sVcdma
p868
I10
sVrapid prototyping
p869
I14
sVprobability
p870
I59
sVrecruiting
p871
I19
sVtranscriptomics
p872
I6
sVmarketing strategy
p873
I142
sVc++ stl
p874
I22
sVfinancial reporting
p875
I23
sVwpf
p876
I9
sVmaple
p877
I27
sVinterviews
p878
I9
sVtrading systems
p879
I29
sVweblogic
p880
I6
sVgpu
p881
I12
sVscheme
p882
I9
sVgps
p883
I14
sVcredit derivatives
p884
I15
sVapache spark
p885
I468
sVinstructional design
p886
I13
sVtranslation
p887
I8
sVjquery
p888
I117
sVbusiness intelligence tools
p889
I14
sVquantitative analytics
p890
I335
sVstl
p891
I7
sVdisease management
p892
I7
sVsolution architecture
p893
I60
sVfluorescence microscopy
p894
I32
sVdiscrete mathematics
p895
I11
sVgame theory
p896
I27
sVdebugging
p897
I29
sVinformation theory
p898
I12
sVearly-stage startups
p899
I8
sV3d printing
p900
I7
sVsocial entrepreneurship
p901
I6
sVconfocal microscopy
p902
I25
sVamazon web services
p903
I8
sVinternet of things
p904
I17
sVcurriculum design
p905
I21
sVpredictive modeling
p906
I653
sVcomplex systems
p907
I8
sVtest planning
p908
I7
sVnumerical linear algebra
p909
I8
sVjsp
p910
I45
sVwindows
p911
I112
sVconvex optimization
p912
I15
sVexcel vba
p913
I7
sVlinear regression
p914
I157
sVh2o
p915
I9
sVtheano
p916
I11
sVphysics
p917
I372
sVmolecular cloning
p918
I26
sVinternational relations
p919
I39
sVoperations management
p920
I52
sVgrid computing
p921
I11
sVspring mvc
p922
I6
sVvulnerability assessment
p923
I6
sVnetwork science
p924
I6
sVgeomatics
p925
I9
sVnetwork engineering
p926
I6
sVsql db2
p927
I6
sVbusiness process management
p928
I7
sVbig data
p929
I6
sVasset management
p930
I16
sVgeospatial intelligence
p931
I6
sVdevelopment economics
p932
I6
sVrisk analytics
p933
I22
sVphysical chemistry
p934
I15
sVapache kafka
p935
I39
sVrecommender systems
p936
I90
sVimmunoassays
p937
I6
sVtalent management
p938
I10
sVanimal models
p939
I11
sVoracle sql developer
p940
I24
sVfinite element analysis
p941
I53
sVlaser physics
p942
I10
sVblogging
p943
I30
sVsupport vector machine (svm)
p944
I6
sVspss modeler
p945
I10
sVmac os x
p946
I18
sVgeospatial modeling
p947
I8
sVbanking
p948
I20
sVpersonalization
p949
I8
sVhplc
p950
I18
sVcro
p951
I7
sVinformation architecture
p952
I18
sVintelligence
p953
I15
sVhealthcare information technology (hit)
p954
I8
sVeviews
p955
I12
sVproposal writing
p956
I57
sVdefense
p957
I19
sVseo
p958
I45
sVsem
p959
I43
sVarm
p960
I6
sVdirect mail
p961
I8
sVorganization skills
p962
I6
sVxslt
p963
I10
sVjavascript
p964
I14
sValteryx
p965
I20
sVscalability
p966
I78
sVmolecular genetics
p967
I9
sVmentoring
p968
I29
sVminitab
p969
I121
sVwater quality
p970
I10
sVsolr
p971
I32
sVj2ee
p972
I8
sVcustomer analytics
p973
I13
sVpl
p974
I131
sVrna isolation
p975
I6
sVresearch design
p976
I99
sVattribution modeling
p977
I9
sVreinforcement learning
p978
I15
sVlinux
p979
I760
sVsimulation modeling
p980
I8
sVjava
p981
I1262
sVpublishing
p982
I6
sVplasma physics
p983
I11
sVstrategy
p984
I475
sVcommodity markets
p985
I7
sVmixed model
p986
I7
sVtensorflow
p987
I6
sVasset managment
p988
I9
sVoperations research
p989
I213
sVdashboarding
p990
I7
sVcomputational genomics
p991
I8
sVbusiness analysis
p992
I469
sVamazon mechanical turk
p993
I6
sVgas
p994
I6
sVforeign languages
p995
I8
sVfuzzy logic
p996
I12
sVtechnical training
p997
I9
sVexperimental physics
p998
I24
sVoptimization
p999
I461
sVoriginlab
p1000
I6
sVlingo
p1001
I10
sVtrend analysis
p1002
I8
sVavro
p1003
I7
sVoperational excellence
p1004
I7
sVadobe photoshop
p1005
I8
sVinteger programming
p1006
I10
sVcustomer segmentation strategy
p1007
I10
sVhadoop
p1008
I7
sVcoffeescript
p1009
I6
sVsql server reporting services (ssrs)
p1010
I6
sVfinancial structuring
p1011
I6
sVenterprise search
p1012
I6
sVmedicaid
p1013
I6
sVbayesian inference
p1014
I29
sVimmunofluorescence
p1015
I9
sVmodel selection
p1016
I6
sVprocess development
p1017
I6
sVpattern recognition
p1018
I240
sVinternational development
p1019
I26
sVanalysis
p1020
I968
sVfinancial accounting
p1021
I11
sVsystem architecture
p1022
I58
sVbusiness process re-engineering
p1023
I7
sVdocker
p1024
I23
sVchemistry
p1025
I52
sVtechnology transfer
p1026
I12
sVsap hana
p1027
I10
sVmodel validation
p1028
I9
sVtrading strategies
p1029
I12
sVapi development
p1030
I7
sVmysql
p1031
I574
sVbiomarker discovery
p1032
I8
sVconservation issues
p1033
I6
sVmicrosoft powerpoint
p1034
I6
sVanova
p1035
I27
sVnuclear physics
p1036
I9
sVsignal processing
p1037
I275
sVdesign thinking
p1038
I10
sVkpi dashboards
p1039
I10
sVexperimental design
p1040
I165
sVproduct design
p1041
I20
sVtest driven development
p1042
I14
sVaerospace
p1043
I15
sVproprietary trading
p1044
I6
sVdistributed algorithms
p1045
I6
sVoutcomes research
p1046
I13
sVregular expressions
p1047
I22
sVpolymers
p1048
I8
sVcisco technologies
p1049
I7
sVsemantic technologies
p1050
I9
sVeeg
p1051
I11
sVecology
p1052
I20
sVspring
p1053
I17
sVseries 7
p1054
I6
sVpricing
p1055
I29
sVunix operating systems
p1056
I6
sVteradata sql
p1057
I17
sVscala
p1058
I241
sVteam building
p1059
I81
sVsaas
p1060
I94
sVintegration
p1061
I186
sVweb services
p1062
I108
sVinnovation
p1063
I20
sVteradata
p1064
I83
sVprocess optimization
p1065
I16
sVinformatica
p1066
I35
sVprocessing
p1067
I8
sVmedical imaging
p1068
I42
sVbiomarkers
p1069
I10
sVinformatics
p1070
I37
sVrapidminer
p1071
I30
sVsimulation
p1072
I29
sVidl
p1073
I36
sVapache pig
p1074
I244
sVexecutive management
p1075
I11
sVshiny
p1076
I27
sVcrystal ball
p1077
I7
sVneural networks
p1078
I175
sVdevops
p1079
I6
sVfinancial markets
p1080
I22
sVtroubleshooting
p1081
I31
sVsports
p1082
I7
sVliterature reviews
p1083
I27
sVnetwork theory
p1084
I6
sVclustering
p1085
I17
sVstatistics
p1086
I2300
sVmarkov chain monte carlo
p1087
I22
sVvbscript
p1088
I6
sVdemand forecasting
p1089
I15
sVstatistica
p1090
I8
sVheroku
p1091
I6
sVdevice drivers
p1092
I7
sVlinq
p1093
I7
sVhealth services research
p1094
I7
sVfda
p1095
I13
sVlife sciences
p1096
I90
sVdynamic programming
p1097
I11
sVinternational economics
p1098
I7
sVaccess
p1099
I178
sVlabview
p1100
I72
sVcredit scoring
p1101
I15
sVspectroscopy
p1102
I81
sVcascading style sheets (css)
p1103
I16
sVhuman resources
p1104
I11
sVengineering
p1105
I121
sVdata governance
p1106
I13
sVgephi
p1107
I16
sVwinbugs
p1108
I12
sVmicrosoft technologies
p1109
I7
sVagent-based modeling
p1110
I16
sVeconomic modeling
p1111
I19
sVmplus
p1112
I7
sVpandas
p1113
I29
sVproduct lifecycle management
p1114
I8
sVfinancial modeling
p1115
I281
sVmongodb
p1116
I226
sVscrum
p1117
I97
sVprocess modeling
p1118
I7
sVsql tuning
p1119
I12
sVsplunk
p1120
I22
sVpivot tables
p1121
I10
sVemerging markets
p1122
I17
sVsvm
p1123
I31
sVfluorescence
p1124
I7
sVunit testing
p1125
I8
sVorganizational development
p1126
I17
sVinformation assurance
p1127
I6
sVfocus groups
p1128
I10
sVoracle
p1129
I205
sVoop
p1130
I38
sVedc
p1131
I7
sVparallel algorithms
p1132
I10
sVvisual basic for applications (vba)
p1133
I24
sVsentiment analysis
p1134
I40
sVggplot2
p1135
I7
sVgo
p1136
I9
sVsurvey methodology
p1137
I10
sVmri
p1138
I17
sValternative investments
p1139
I13
sVdigital imaging
p1140
I8
sVbehavioral targeting
p1141
I17
sVquality assurance
p1142
I39
sVmaster data management
p1143
I16
sVjunit
p1144
I9
sVsemiconductor industry
p1145
I10
sVautomotive
p1146
I6
sVfacebook
p1147
I18
sVnanomaterials
p1148
I25
sVmetabolomics
p1149
I6
sVnode.js
p1150
I47
sVnon-profits
p1151
I26
sVmercurial
p1152
I9
sVrisk modeling
p1153
I9
sVhive
p1154
I439
sVolap
p1155
I22
sVpenetration testing
p1156
I6
sVoptics
p1157
I48
sVpredictive analytics
p1158
I556
sVlogistics
p1159
I22
sVsas base
p1160
I39
sVcfd
p1161
I26
sVdata analysis
p1162
I2946
sVelisa
p1163
I9
sVvmware
p1164
I10
sVsolution selling
p1165
I7
sVapache zookeeper
p1166
I9
sVdatastage
p1167
I6
sVclinical development
p1168
I11
sVcell
p1169
I20
sVdistributed computing
p1170
I7
sVstochastic processes
p1171
I38
sVmatplotlib
p1172
I46
sVcustomer analysis
p1173
I58
sVoctave
p1174
I57
sVubuntu
p1175
I26
sVopenmp
p1176
I12
sVvba
p1177
I306
sVmulti-channel marketing
p1178
I28
sVdata cleaning
p1179
I25
sVconsumer insights
p1180
I8
sVtest automation
p1181
I18
sVrdf
p1182
I11
sVproduct launch
p1183
I10
sVwindows azure
p1184
I20
sVmicrosoft access
p1185
I36
sVcad
p1186
I21
sVpatents
p1187
I11
sVprobabilistic models
p1188
I24
sVclinical study design
p1189
I13
sVmanagerial finance
p1190
I7
sVearth science
p1191
I6
sVsocial media
p1192
I221
sVmllib
p1193
I6
sVclinical research
p1194
I69
sVperformance management
p1195
I16
sViis
p1196
I11
sVconjoint analysis
p1197
I6
sVproject management
p1198
I652
sVapplied mathematics
p1199
I163
sVerwin
p1200
I7
sVred hat linux
p1201
I7
sVpersonalized medicine
p1202
I6
sVspeech recognition
p1203
I15
sVsqlite
p1204
I30
sVparallel computing
p1205
I95
sVreporting & analysis
p1206
I14
sVequity trading
p1207
I7
sVvisual c#
p1208
I12
sVsemantic web
p1209
I27
sVcognitive science
p1210
I17
sVafm
p1211
I27
sVsip
p1212
I6
sVpower bi
p1213
I11
sVtableau
p1214
I612
sVapplication architecture
p1215
I7
sVmarket research
p1216
I272
sVgcp
p1217
I7
sVlamp
p1218
I11
sVc++ language
p1219
I14
sVhypothesis testing
p1220
I40
sVuser acceptance testing
p1221
I8
sVhealthcare information technology
p1222
I41
sVagile & waterfall methodologies
p1223
I7
sVphilosophy
p1224
I7
sVleadership development
p1225
I26
sVmultivariate testing
p1226
I10
sVcomputational mathematics
p1227
I9
sVmarket making
p1228
I6
sVfacebook api
p1229
I6
sVgoogle analytics
p1230
I108
sVhealthcare
p1231
I74
sVaerospace engineering
p1232
I7
sVjira
p1233
I33
sVobservational astronomy
p1234
I9
sVstrategic leadership
p1235
I8
sVmarketing research
p1236
I80
sVhbase
p1237
I68
sVoracle pl
p1238
I11
sVlinguistics
p1239
I14
sVbloomberg terminal
p1240
I16
sVscientific analysis
p1241
I7
sVlinux system administration
p1242
I6
sVmultithreading
p1243
I13
sVpython
p1244
I20
sVsemantic analysis
p1245
I7
sVprivate equity
p1246
I24
sVfx options
p1247
I8
sVspatial analysis
p1248
I40
sV.net
p1249
I93
sVgraph databases
p1250
I11
sVoracle database
p1251
I19
sVbasel ii
p1252
I6
sVinformation extraction
p1253
I22
sVenterprise software
p1254
I119
sVec2
p1255
I6
sVcell biology
p1256
I45
sVssas
p1257
I9
sVquestionnaire design
p1258
I11
sVscientific computing
p1259
I243
sVvendor management
p1260
I57
sVelectronics
p1261
I39
sVunsupervised learning
p1262
I30
sVmolecular modeling
p1263
I17
sVfactor analysis
p1264
I19
sVhl7
p1265
I10
sVdata quality
p1266
I35
sVforeign policy
p1267
I8
sVnetworking
p1268
I50
sVcustomer relations
p1269
I9
sVknime
p1270
I11
sVopen source software
p1271
I10
sVfinancial risk management
p1272
I6
sVtraffic engineering
p1273
I6
sVelasticsearch
p1274
I41
sV3d visualization
p1275
I9
sVlte
p1276
I12
sVretail
p1277
I26
sVscalding
p1278
I7
sVhealthcare consulting
p1279
I13
sVindesign
p1280
I20
sVtortoise svn
p1281
I10
sVstructural analysis
p1282
I9
sVmarketing management
p1283
I10
sVmanagement
p1284
I599
sVweka
p1285
I99
sVproject portfolio management
p1286
I16
sVgurobi
p1287
I6
sVadvanced analytics
p1288
I7
sVsoftware documentation
p1289
I35
sVflume
p1290
I16
sVmathematical programming
p1291
I28
sVscientific writing
p1292
I120
sVdiscrete event simulation
p1293
I16
sVcommodity
p1294
I11
sVlinear algebra
p1295
I53
sVdata engineering
p1296
I17
sVnew business development
p1297
I33
sVobject oriented design
p1298
I72
sVimpala
p1299
I11
sVlitigation support
p1300
I8
sVmanagement consulting
p1301
I132
sVanalytical chemistry
p1302
I12
sVcompetitive analysis
p1303
I118
sVcosmology
p1304
I8
sVdesign of experiments
p1305
I96
sVinstrumentation
p1306
I9
sVasp.net
p1307
I45
sVpspice
p1308
I14
sVvertica
p1309
I23
sVms project
p1310
I40
sVfailure analysis
p1311
I11
sVsoap
p1312
I16
sVcalculus
p1313
I25
sVcollaboration
p1314
I8
sVaws
p1315
I10
sVfinancial risk
p1316
I39
sVawk
p1317
I14
sVbiomedical informatics
p1318
I6
sVoozie
p1319
I12
sVtechnical writing
p1320
I118
sVsoftware engineering
p1321
I312
sVsmart grid
p1322
I8
sVprotein expression
p1323
I14
sVdatabases
p1324
I629
sVinvestment management
p1325
I6
sVpre-sales
p1326
I21
sVadult education
p1327
I6
sV21 cfr part 11
p1328
I6
sVsales management
p1329
I11
sVenvi
p1330
I7
sVc  
p1331
I11
sVsoftware development life cycle (sdlc)
p1332
I39
sVms office suite
p1333
I9
sVpharmacology
p1334
I8
sVbonds
p1335
I7
sVpublic health
p1336
I49
sVneuroimaging
p1337
I21
sVcomputational modeling
p1338
I43
sVcredit risk
p1339
I37
sVcredit analysis
p1340
I8
sVcognos
p1341
I33
sVftir
p1342
I7
sVclimate change
p1343
I27
sVpresentation skills
p1344
I15
sVgame design
p1345
I7
sVsystem administration
p1346
I25
sVintegrated marketing
p1347
I21
sVpricing analysis
p1348
I10
sVinformation management
p1349
I16
sVlua
p1350
I8
sVassay development
p1351
I18
sVverilog
p1352
I22
sVcopywriting
p1353
I9
sVkeynote
p1354
I6
sVdatabase design
p1355
I123
sVtechnical presentations
p1356
I24
sVe-learning
p1357
I17
sVswift
p1358
I9
sVhydrology
p1359
I9
sVbudgeting
p1360
I12
sVpresentations
p1361
I23
sVsas programming
p1362
I200
sVcore java
p1363
I56
sVetl
p1364
I158
sVimage segmentation
p1365
I17
sVpublic speaking
p1366
I493
sVmicrosoft excel
p1367
I1046
sV.net framework
p1368
I7
sVthought leadership
p1369
I12
sVrdbms
p1370
I12
sVmechanical engineering
p1371
I24
sVasp.net mvc
p1372
I12
sVjson
p1373
I49
sVsecondary research
p1374
I6
sVteamwork
p1375
I163
sVontologies
p1376
I11
sVrequirements analysis
p1377
I201
sVmarketing communications
p1378
I26
sVc#
p1379
I246
sVdigital signal processors
p1380
I34
sVcapital iq
p1381
I6
sVhardware diagnostics
p1382
I7
sVsoftware quality assurance
p1383
I11
sVcvs
p1384
I6
sVstem cells
p1385
I7
sVcrystal reports
p1386
I18
sVcvd
p1387
I7
sVscientific programming
p1388
I8
sVproject planning
p1389
I79
sVlean manufacturing
p1390
I36
sVhardware
p1391
I6
sVansible
p1392
I7
sVstatistical analysis
p1393
I12
sVregression
p1394
I29
sVquickbooks
p1395
I6
sVmetrology
p1396
I6
sVdigital signal processing
p1397
I26
sVquantitative investing
p1398
I11
sVurban planning
p1399
I8
sVspring framework
p1400
I15
sVfraud detection
p1401
I26
sVgoogle cloud platform
p1402
I8
sVandroid
p1403
I40
sVweb development
p1404
I124
sVhuman computer interaction
p1405
I30
sVsix sigma
p1406
I83
sVquality management
p1407
I9
sVios
p1408
I6
sVautomation
p1409
I20
sVarcmap
p1410
I9
sVarchitectures
p1411
I20
sVphp
p1412
I187
sVartificial neural networks
p1413
I61
sVstatistical programming
p1414
I56
sVin vitro
p1415
I10
sVbootstrapping
p1416
I6
sVeye tracking
p1417
I10
sVni labview
p1418
I17
sVdata center
p1419
I22
sVprocurement
p1420
I7
sVcommand
p1421
I8
sVbusiness process design
p1422
I11
sVenglish
p1423
I67
sVvideo editing
p1424
I8
sVmfc
p1425
I7
sVpolicy analysis
p1426
I96
sVtcp
p1427
I18
sVtcl
p1428
I7
sVmicrosoft visio
p1429
I6
sVmicrosoft project
p1430
I26
sVtime series analysis
p1431
I457
sVteam management
p1432
I75
sVthermodynamics
p1433
I14
sVnanoparticles
p1434
I12
sVgmp
p1435
I8
sVcss3
p1436
I19
sVoptimizations
p1437
I49
sVgovernment
p1438
I49
sVgnu octave
p1439
I24
sVsequencing
p1440
I16
sVnanotechnology
p1441
I66
sVenergy policy
p1442
I8
sVimmunology
p1443
I18
sVxquery
p1444
I7
sVmarket analysis
p1445
I58
sVperl script
p1446
I7
sVregression testing
p1447
I18
sVsql development
p1448
I9
sVgeospatial data
p1449
I6
sVusability testing
p1450
I9
sVpublic policy
p1451
I72
sVeconometrics
p1452
I228
sVstructured finance
p1453
I7
sVindustrial engineering
p1454
I37
sVlead generation
p1455
I22
sVmathematical statistics
p1456
I6
sVinformation security
p1457
I26
sVoptical microscopy
p1458
I6
sVbiology
p1459
I17
sVmeta-analysis
p1460
I7
sVteam leadership
p1461
I154
sVmaven
p1462
I11
sVepidemiology
p1463
I53
sVloans
p1464
I7
sVnational security
p1465
I12
sVmarketing analytics
p1466
I79
sVarcgis
p1467
I113
sVdata analytics
p1468
I102
sVclojure
p1469
I16
sVpowerpoint
p1470
I499
sVowl
p1471
I10
sVstatistical sampling
p1472
I10
sVproblem solving
p1473
I99
sVenvironmental impact assessment
p1474
I10
sVquantitative analysis
p1475
I39
sVenterprise risk management
p1476
I9
sVmacroeconomics
p1477
I30
sVmultivariate analysis
p1478
I64
sVcontinuous improvement
p1479
I20
sVcommunity development
p1480
I7
sVartificial intelligence
p1481
I304
sVsystems engineering
p1482
I80
sVconstruction
p1483
I8
sVpricing strategy
p1484
I18
sVediting
p1485
I85
sVvaluation
p1486
I79
sVevent management
p1487
I18
sVdigital photography
p1488
I6
sVitil
p1489
I17
sVcondensed matter physics
p1490
I7
sVbusiness insights
p1491
I8
sVdemand generation
p1492
I8
sVwireless networking
p1493
I6
sVworkshop facilitation
p1494
I8
sVoracle applications
p1495
I7
sVcustomer satisfaction
p1496
I10
sVregression analysis
p1497
I156
sVcrm
p1498
I169
sVrestful webservices
p1499
I9
sVpig
p1500
I40
sVreport writing
p1501
I26
sVmultivariate statistics
p1502
I89
sVeducation
p1503
I8
sVcmos
p1504
I6
sVquantitative models
p1505
I6
sVnetlogo
p1506
I7
sVactuarial exams
p1507
I6
sVtransfection
p1508
I8
sVfmea
p1509
I10
sVsolid state physics
p1510
I6
sVastronomy
p1511
I33
sVtomcat
p1512
I26
sVphotonics
p1513
I10
sVbiotechnology
p1514
I86
sVvalidation
p1515
I14
s.