(dp1
S'differential equations'
p2
I14
sS'electrophysiology'
p3
I18
sS'devops'
p4
I6
sS'system design'
p5
I21
sS'personnel selection'
p6
I6
sS'content management'
p7
I15
sS'cognitive neuroscience'
p8
I28
sS'matlab'
p9
I23
sS'quantum computing'
p10
I6
sS'teaching'
p11
I356
sS'data entry'
p12
I12
sS'geology'
p13
I11
sS'etl tools'
p14
I7
sS'health informatics'
p15
I7
sS'categorical data analysis'
p16
I20
sS'embedded c'
p17
I10
sS'surface chemistry'
p18
I13
sS'molecular dynamics'
p19
I30
sS'event management'
p20
I18
sS'unity3d'
p21
I10
sS'cross-functional team leadership'
p22
I145
sS'risk assessment'
p23
I13
sS'database management'
p24
I6
sS'engineering management'
p25
I33
sS'financial services'
p26
I27
sS'cms'
p27
I8
sS'numerical analysis'
p28
I318
sS'vhdl'
p29
I31
sS'statistical mechanics'
p30
I10
sS'actuarial science'
p31
I33
sS'process improvement'
p32
I169
sS'virtualization'
p33
I18
sS'association rules'
p34
I6
sVpanda
p35
I29
sS'theory'
p36
I28
sS'asic'
p37
I7
sS'time management'
p38
I59
sS'mac os'
p39
I17
sS'environmental science'
p40
I34
sS'random forests'
p41
I8
sS'agile project management'
p42
I61
sS'statistical modeling'
p43
I1126
sS'information technology'
p44
I39
sS'glm'
p45
I16
sS'economics'
p46
I251
sS'sql database design'
p47
I6
sS'credit'
p48
I13
sS'web mining'
p49
I11
sS'military'
p50
I27
sS'sas enterprise miner'
p51
I67
sS'computer architecture'
p52
I13
sS'classification'
p53
I34
sS'population genetics'
p54
I14
sS'healthcare information technology hit'
p55
I8
sS'julia'
p56
I10
sS'unix'
p57
I7
sS'experimentation'
p58
I114
sS'derivatives'
p59
I78
sS'open source'
p60
I20
sS'army'
p61
I6
sS'regression models'
p62
I53
sS'risk management'
p63
I160
sS'campaign management'
p64
I10
sS'structural equation modeling'
p65
I13
sS'web design'
p66
I40
sS'sap2000'
p67
I6
sS'jmp'
p68
I112
sS'drug design'
p69
I7
sS'process automation'
p70
I6
sS'computational linguistics'
p71
I25
sS'energy efficiency'
p72
I16
sS'word'
p73
I22
sS'eclipse'
p74
I107
sS'root'
p75
I21
sS'scripting'
p76
I10
sS'dynamical systems'
p77
I13
sS'portfolio management'
p78
I80
sS'revenue analysis'
p79
I7
sS'display advertising'
p80
I7
sS'portfolio optimization'
p81
I15
sS'contract negotiation'
p82
I11
sS'sharepoint'
p83
I56
sS'sas enterprise guide'
p84
I10
sS'business planning'
p85
I33
sS'text classification'
p86
I17
sS'final cut pro'
p87
I6
sS'data security'
p88
I6
sS'oracle e-business suite'
p89
I8
sS'copy editing'
p90
I7
sS'fluid mechanics'
p91
I24
sS'sparql'
p92
I8
sS'bootstrap'
p93
I26
sS'e-commerce'
p94
I102
sS'algorithms'
p95
I1126
sS'network security'
p96
I28
sS'intellectual property'
p97
I8
sS'customer insight'
p98
I72
sS'rnaseq'
p99
I10
sS'capital markets'
p100
I42
sS'google docs'
p101
I10
sS'counterterrorism'
p102
I7
sS'r programming'
p103
I16
sS'writing'
p104
I59
sS'statistical software'
p105
I26
sS'voip'
p106
I11
sS'chromatography'
p107
I7
sS'survey design'
p108
I73
sS'sap erp'
p109
I17
sS'business transformation'
p110
I16
sS'cloudera'
p111
I13
sS'pharmaceutical industry'
p112
I27
sS'biomaterials'
p113
I10
sS'requirements gathering'
p114
I58
sS'cartography'
p115
I13
sS'computer forensics'
p116
I6
sS'trading'
p117
I48
sS'laboratory'
p118
I39
sS'direct marketing'
p119
I42
sS'particle physics'
p120
I36
sS'dsp'
p121
I6
sS'rf'
p122
I10
sS'database marketing'
p123
I61
sS'medicine'
p124
I10
sS'spatial databases'
p125
I13
sS'cancer research'
p126
I11
sS'data scientist'
p127
I9
sS'sensors'
p128
I60
sS'cell culture'
p129
I58
sS'machining'
p130
I8
sS'stochastic optimization'
p131
I11
sS'microsoft azure'
p132
I8
sS'proteomics'
p133
I14
sS'operational planning'
p134
I10
sS'neo4j'
p135
I23
sS'process simulation'
p136
I16
sS'basic html'
p137
I7
sS'microfabrication'
p138
I7
sS'investment banking'
p139
I25
sS'netbeans'
p140
I7
sS'social media measurement'
p141
I6
sS'struts'
p142
I21
sS'recruiting'
p143
I19
sS'idl programming'
p144
I9
sS'abap'
p145
I10
sS'lifesciences'
p146
I53
sS'dimensional modeling'
p147
I13
sS'operating systems'
p148
I23
sS'text mining'
p149
I180
sS'it strategy'
p150
I76
sS'japanese'
p151
I9
sS'strategic thinking'
p152
I10
sS'it service management'
p153
I14
sS'performance improvement'
p154
I8
sS'solar energy'
p155
I14
sS'financial analysis'
p156
I184
sS'ampl'
p157
I29
sS'kalman filtering'
p158
I8
sS'fixed income'
p159
I59
sS'supply chain optimization'
p160
I24
sS'drug delivery'
p161
I6
sS'photolithography'
p162
I8
sS'plasma physics'
p163
I11
sS'business intelligence'
p164
I654
sS'angularjs'
p165
I37
sS'market basket analysis'
p166
I9
sS'unix shell scripting'
p167
I96
sS'control systems design'
p168
I9
sS'user experience'
p169
I53
sS'firmware'
p170
I14
sS'marketing automation'
p171
I7
sS'social media marketing'
p172
I65
sS'project coordination'
p173
I9
sS'dna sequencing'
p174
I12
sS'natural language processing'
p175
I385
sS'ptc creo'
p176
I10
sS'performance measurement'
p177
I7
sS'bigquery'
p178
I6
sS'metrics'
p179
I8
sS'pentaho'
p180
I17
sS'inventory management'
p181
I13
sS'nonprofits'
p182
I69
sS'geographic information science'
p183
I10
sS'technology transfer'
p184
I12
sS'powder x-ray diffraction'
p185
I6
sS'tissue culture'
p186
I11
sS'dod'
p187
I28
sS'os x'
p188
I13
sS'laboratory skills'
p189
I8
sS'supply chain'
p190
I17
sS'strategic planning'
p191
I255
sS'visual studio'
p192
I79
sS'creative problem solving'
p193
I7
sS'd3'
p194
I17
sS'technical communication'
p195
I6
sS'healthcare management'
p196
I17
sS'critical thinking'
p197
I38
sS'web marketing'
p198
I7
sS'graph theory'
p199
I36
sS'cryptography'
p200
I11
sS'structural engineering'
p201
I10
sS'sharepoint designer'
p202
I7
sS'event planning'
p203
I67
sS'collaborative filtering'
p204
I15
sS'digital strategy'
p205
I34
sS'program evaluation'
p206
I54
sS'drug development'
p207
I9
sS'system identification'
p208
I6
sS'microscopy'
p209
I46
sS'j2ee web services'
p210
I7
sS'sequence analysis'
p211
I19
sS'architecture'
p212
I45
sS'emr'
p213
I14
sS'high availability'
p214
I11
sS'mergers'
p215
I7
sS'academic tutoring'
p216
I10
sS'active directory'
p217
I7
sS'testing'
p218
I156
sS'analytics'
p219
I1084
sS'statistical computing'
p220
I50
sS'corporate development'
p221
I7
sS'biomechanics'
p222
I10
sS'visualization'
p223
I15
sS'customer service'
p224
I166
sS'html5'
p225
I65
sS'modeling'
p226
I178
sS'decision analysis'
p227
I29
sS'quantitative research'
p228
I206
sS'security clearance'
p229
I29
sS'technical analysis'
p230
I6
sS'press releases'
p231
I9
sS'customer support'
p232
I6
sS'internet things'
p233
I17
sS'data integration'
p234
I51
sS'negotiation'
p235
I28
sS'transportation planning'
p236
I14
sS'shell scripting'
p237
I158
sS'protein purification'
p238
I18
sS'systems design'
p239
I7
sS'fourier analysis'
p240
I6
sS'telecommunications'
p241
I42
sS'pricing optimization'
p242
I6
sS'nonlinear dynamics'
p243
I11
sS'fortran'
p244
I164
sS'deep learning'
p245
I6
sS'environmental impact assessment'
p246
I10
sS'dreamweaver'
p247
I11
sS'numpy'
p248
I129
sS'analysis services'
p249
I9
sS'international business'
p250
I9
sS'decision trees'
p251
I109
sS'aviation'
p252
I9
sS'ich-gcp'
p253
I8
sVbayesian network
p254
I21
sS'lean six sigma'
p255
I11
sS'program development'
p256
I30
sS'optimization algorithms'
p257
I7
sS'dashboard'
p258
I17
sS'product management'
p259
I182
sS'unstructured data'
p260
I9
sS'advertising research'
p261
I6
sS'r studio'
p262
I7
sS'ip'
p263
I24
sS'employee training'
p264
I13
sS'database administration'
p265
I41
sS'signal processing'
p266
I275
sS'ic'
p267
I13
sS'community outreach'
p268
I72
sS'computer graphics'
p269
I14
sS'online advertising'
p270
I72
sS'design thinking'
p271
I10
sS'logistics management'
p272
I6
sS'medical devices'
p273
I53
sS'bloomberg'
p274
I53
sS'hipaa'
p275
I13
sS'digital image processing'
p276
I36
sS'performance metrics'
p277
I6
sS'presto'
p278
I11
sS'market data'
p279
I8
sS'image analysis'
p280
I43
sS'solar cells'
p281
I7
sS'materials'
p282
I12
sS'netezza'
p283
I27
sS'obiee'
p284
I13
sS'people skills'
p285
I6
sS'investments'
p286
I55
sS'information security management'
p287
I7
sS'web applications'
p288
I70
sS'solaris'
p289
I10
sS'biostatistics'
p290
I117
sS'proprietary trading'
p291
I6
sS'psychometrics'
p292
I25
sS'psychophysics'
p293
I8
sS'product strategy'
p294
I7
sS'distributed systems'
p295
I235
sS'field work'
p296
I12
sS'water resources'
p297
I9
sS'agile'
p298
I9
sS'software project management'
p299
I140
sS'opencv'
p300
I44
sS'evolutionary computation'
p301
I7
sS'oracle sql'
p302
I28
sS'strategic communications'
p303
I7
sS'user research'
p304
I9
sS'salesforce.com'
p305
I52
sS'numerical simulation'
p306
I75
sS'mobile marketing'
p307
I17
sS'social networking'
p308
I71
sS'scikit-learn'
p309
I10
sS'securities'
p310
I9
sS'online marketing'
p311
I45
sS'managed care'
p312
I9
sS'windows 7'
p313
I7
sS'security'
p314
I55
sS'rstudio'
p315
I8
sS'centos'
p316
I7
sS'text analytics'
p317
I80
sS'gel electrophoresis'
p318
I9
sS'health policy'
p319
I8
sS'social sciences'
p320
I12
sS'flow cytometry'
p321
I15
sS'sociology'
p322
I8
sS'cognitive psychology'
p323
I19
sS'data migration'
p324
I18
sS'uml'
p325
I40
sS'monetization'
p326
I8
sS'product development'
p327
I133
sS'genomics'
p328
I76
sS'marketing'
p329
I187
sS'microfluidics'
p330
I9
sS'science communication'
p331
I7
sS'dna'
p332
I16
sS'manufacturing'
p333
I41
sS'b testing'
p334
I41
sS'postgresql'
p335
I176
sS'gis analysis'
p336
I7
sS'joomla'
p337
I6
sS'product innovation'
p338
I7
sS'ppc'
p339
I16
sS'soc'
p340
I9
sS'intelligence analysis'
p341
I20
sS'dashboards'
p342
I8
sS'haskell'
p343
I15
sS'environmental policy'
p344
I18
sS'jdbc'
p345
I8
sS'gis'
p346
I112
sS'marketing mix modeling'
p347
I8
sS'sustainable development'
p348
I10
sS'combinatorics'
p349
I7
sS'digital signal processors'
p350
I34
sS'wordpress'
p351
I6
sS'astrophysics'
p352
I46
sS'music'
p353
I9
sS'fpga'
p354
I19
sS'wireless'
p355
I36
sS'job analysis'
p356
I6
sS'human factors'
p357
I6
sS'network engineering'
p358
I6
sS'data architecture'
p359
I13
sS'electrical engineering'
p360
I40
sS'organizational effectiveness'
p361
I8
sS'powershell'
p362
I6
sS'higher education'
p363
I104
sS'health insurance'
p364
I11
sS'theoretical physics'
p365
I33
sS'simulations'
p366
I506
sS'accounting'
p367
I29
sS'economic research'
p368
I27
sS'excel'
p369
I103
sS'sybase'
p370
I6
sS'computer science'
p371
I310
sS'cheminformatics'
p372
I6
sS'jenkins'
p373
I13
sS'social media analytics'
p374
I9
sS'toad'
p375
I6
sS'customer retention'
p376
I10
sS'sql'
p377
I2607
sS'neuroscience'
p378
I85
sS'disaster recovery'
p379
I13
sS'cloud computing'
p380
I205
sS'business strategy'
p381
I230
sS'exploratory data analysis'
p382
I30
sS'nlp'
p383
I79
sS'chaid'
p384
I6
sS'interest rate derivatives'
p385
I10
sS'web 2.0'
p386
I6
sS'technical leadership'
p387
I28
sS'flask'
p388
I23
sS'java enterprise edition'
p389
I52
sS'scientific visualization'
p390
I12
sS'drug discovery'
p391
I30
sS'clinical decision support'
p392
I6
sS'nonlinear optimization'
p393
I7
sS'cloudera impala'
p394
I9
sS'biopharmaceuticals'
p395
I6
sS'erp'
p396
I35
sS'object recognition'
p397
I8
sS'support vector machine svm'
p398
I6
sS'solver'
p399
I6
sS'civil engineering'
p400
I20
sS'real estate'
p401
I8
sS'reporting analysis'
p402
I14
sS'pmp'
p403
I21
sS'global health'
p404
I7
sS'speech processing'
p405
I6
sS'microarray analysis'
p406
I15
sS'data-driven decision making'
p407
I7
sS'21 cfr part 11'
p408
I6
sS'pmo'
p409
I15
sS'hdfs'
p410
I9
sS'ssis'
p411
I45
sS'creative writing'
p412
I13
sS'professional services'
p413
I18
sS'transportation'
p414
I9
sS'geostatistics'
p415
I6
sS'french'
p416
I23
sS'water'
p417
I10
sS'apache'
p418
I22
sS'software development'
p419
I509
sS'special education'
p420
I6
sS'vb.net'
p421
I28
sS'thin films'
p422
I20
sS'semiconductor device'
p423
I7
sS'environmental consulting'
p424
I7
sS'healthcare analytics'
p425
I18
sS'test driven development'
p426
I14
sS'account management'
p427
I22
sS'perl'
p428
I271
sS'crowdsourcing'
p429
I9
sS'visio'
p430
I76
sS'data management'
p431
I147
sS'neurophysiology'
p432
I8
sS'cplex'
p433
I41
sS'business process'
p434
I58
sS'investment strategies'
p435
I6
sS'geophysics'
p436
I15
sS'oop'
p437
I38
sS'data processing'
p438
I8
sS'sap bi'
p439
I12
sS'functional programming'
p440
I13
sS'machine learning'
p441
I2493
sS'reverse engineering'
p442
I6
sS'hidden markov models'
p443
I12
sS'cluster analysis'
p444
I99
sS'sap bw'
p445
I11
sS'educational technology'
p446
I9
sS'web content'
p447
I7
sS'spc'
p448
I14
sS'random forest'
p449
I10
sS'business modeling'
p450
I7
sS'simulink'
p451
I62
sS'pyspark'
p452
I7
sS'technical recruiting'
p453
I7
sS'computer vision'
p454
I163
sS'social psychology'
p455
I6
sS'wireless sensor networks'
p456
I6
sS'html 5'
p457
I38
sS'public health'
p458
I49
sS'computational biology'
p459
I105
sS'sustainability'
p460
I23
sS'political science'
p461
I18
sS'data wrangling'
p462
I22
sS'data'
p463
I13
sS'commodity'
p464
I11
sS'object oriented design'
p465
I72
sS'purification'
p466
I9
sS'arena simulation software'
p467
I29
sS'catastrophe modeling'
p468
I8
sS'tutoring'
p469
I34
sS'sd'
p470
I6
sS'soa'
p471
I60
sS'oncology'
p472
I20
sS'sql server reporting services ssrs'
p473
I6
sS'data warehouse architecture'
p474
I17
sS'consulting'
p475
I207
sS'quality control'
p476
I12
sS'heat transfer'
p477
I14
sS'credit risk'
p478
I37
sS'arduino'
p479
I15
sS'process engineering'
p480
I33
sS'product marketing'
p481
I45
sS'control theory'
p482
I10
sS'digital media'
p483
I25
sS'coaching'
p484
I24
sS'microstrategy'
p485
I16
sS'policy'
p486
I46
sS'survey research'
p487
I44
sS'finance'
p488
I104
sS'user interface design'
p489
I13
sS'analytical skills'
p490
I87
sS'innovation management'
p491
I11
sS'cognition'
p492
I13
sS'logistic regression'
p493
I247
sS'renewable energy'
p494
I36
sS'linear programming'
p495
I61
sS'feature extraction'
p496
I9
sS'postgis'
p497
I10
sS'air force'
p498
I7
sS'mahout'
p499
I37
sS'computer hardware'
p500
I7
sS'hibernate'
p501
I23
sS'embedded software'
p502
I23
sS'statistical signal processing'
p503
I16
sS'cissp'
p504
I6
sS'cart'
p505
I6
sS'business analytics'
p506
I230
sS'ajax'
p507
I37
sS'git'
p508
I6
sS'biophysics'
p509
I31
sS'abaqus'
p510
I7
sS'training'
p511
I100
sS'qualitative quantitative research methodologies'
p512
I6
sS'programming'
p513
I777
sS'business objects'
p514
I47
sS'website development'
p515
I13
sS'ansys'
p516
I24
sS'rt-pcr'
p517
I8
sS'proofreading'
p518
I7
sS'spanish'
p519
I65
sS'mathematical modeling'
p520
I725
sS'nmr spectroscopy'
p521
I7
sS'image processing'
p522
I241
sS'fmri'
p523
I23
sS'enterprise architecture'
p524
I106
sS'multivariable calculus'
p525
I7
sS'content strategy'
p526
I14
sS'scanning electron microscopy'
p527
I23
sS'mems'
p528
I8
sS'semantics'
p529
I6
sS'lucene'
p530
I19
sS'organizational leadership'
p531
I8
sS'r'
I2743
sS'start-ups'
p532
I185
sS'ant'
p533
I7
sS'western blotting'
p534
I27
sS'sas'
p535
I1133
sS'sap'
p536
I35
sS'cassandra'
p537
I41
sS'pcb design'
p538
I7
sS'comsol'
p539
I13
sS'microcontrollers'
p540
I18
sS'wcf'
p541
I7
sS'apache hive'
p542
I8
sS'erdas imagine'
p543
I6
sS'competitive intelligence'
p544
I36
sS'greenplum'
p545
I17
sS'protein chemistry'
p546
I27
sS'latex'
p547
I929
sS'design patterns'
p548
I22
sS'system testing'
p549
I8
sS'sql server'
p550
I27
sS'mutual funds'
p551
I7
sS'microsoft word'
p552
I314
sS'financial engineering'
p553
I18
sS'apache storm'
p554
I19
sS'sas certified base programmer'
p555
I36
sS'survival analysis'
p556
I71
sS'german'
p557
I11
sS'visual c++'
p558
I15
sS'email marketing'
p559
I39
sS'health economics'
p560
I21
sS'biometrics'
p561
I10
sS'geography'
p562
I11
sS'xml'
p563
I196
sS'web scraping'
p564
I74
sS'android development'
p565
I34
sS'audio engineering'
p566
I6
sS'fda'
p567
I13
sS'data modeling'
p568
I314
sS'stata'
p569
I8
sS'risk analysis'
p570
I23
sS'computational physics'
p571
I49
sS'systems biology'
p572
I37
sS'amazon web services aws'
p573
I232
sS'amazon ec2'
p574
I23
sS'c++'
p575
I1294
sS'statistical tools'
p576
I9
sS'community organizing'
p577
I7
sS'google api'
p578
I6
sS'quality improvement'
p579
I6
sS'economic development'
p580
I13
sS'lean startup'
p581
I7
sS'quantitative finance'
p582
I89
sS'corporate finance'
p583
I47
sS'programming languages'
p584
I8
sS'outsourcing'
p585
I11
sS'big data analytics'
p586
I146
sS'structural bioinformatics'
p587
I6
sS'mandarin'
p588
I28
sS'regulatory affairs'
p589
I8
sS'jboss application server'
p590
I6
sS'electronic trading'
p591
I14
sS'social network analysis'
p592
I63
sS'combinatorial optimization'
p593
I11
sS'data structures'
p594
I91
sS'transcad'
p595
I6
sS'spark'
p596
I181
sS'data visualization'
p597
I494
sS'solidworks'
p598
I26
sS'microsoft visual studio c++'
p599
I7
sS'probability theory'
p600
I33
sS'optimal control'
p601
I9
sS'forecasting'
p602
I164
sS'cancer'
p603
I21
sS'characterization'
p604
I59
sS'robotics'
p605
I46
sS'grants'
p606
I18
sS'data warehousing'
p607
I235
sS'data mining'
p608
I1969
sS'web crawling'
p609
I10
sS'qlikview'
p610
I34
sS'university teaching'
p611
I90
sS'sap r/3'
p612
I9
sS'statistical data analysis'
p613
I326
sS'powerpivot'
p614
I6
sS'visual analytics'
p615
I9
sS'molecular biology'
p616
I120
sS'qlikview development'
p617
I8
sS'spotfire'
p618
I21
sS'sales operations'
p619
I7
sS'ruby'
p620
I79
sS'hedis'
p621
I6
sS'college teaching'
p622
I8
sS'network optimization'
p623
I6
sS'decision modeling'
p624
I7
sS'go-to-market strategy'
p625
I13
sS'editorial'
p626
I6
sS'application development'
p627
I6
sS'ios development'
p628
I8
sS'cluster'
p629
I6
sS'cobol'
p630
I6
sS'program management'
p631
I273
sS'servlets'
p632
I14
sS'structural biology'
p633
I8
sS'microarray'
p634
I6
sS'html'
p635
I439
sS'reliability engineering'
p636
I6
sS'root cause analysis'
p637
I12
sS'mergers acquisitions'
p638
I26
sS'pro engineer'
p639
I12
sS'in vivo'
p640
I9
sS'wpf'
p641
I9
sS'awesomeness'
p642
I7
sS'property casualty insurance'
p643
I12
sS'consumer behaviour'
p644
I16
sS'environmental engineering'
p645
I12
sS'applied probability'
p646
I15
sS'digital marketing'
p647
I91
sS'assembly language'
p648
I8
sS'nosql'
p649
I112
sS'performance testing'
p650
I7
sS'volunteer management'
p651
I14
sS'rest'
p652
I51
sS'spss modeler'
p653
I10
sS'sales presentations'
p654
I6
sS'digital analytics'
p655
I6
sS'change management'
p656
I49
sS'autocad'
p657
I83
sS'bayesian statistics'
p658
I6
sS'd3.js'
p659
I35
sS'subversion'
p660
I38
sS'omniture'
p661
I36
sS'salesforce.com administration'
p662
I6
sS'prezi'
p663
I6
sS'microsoft excel'
p664
I1046
sS'windows server'
p665
I16
sS'amazon s3'
p666
I10
sS'information visualization'
p667
I17
sS'military experience'
p668
I7
sS'vacuum'
p669
I6
sS'client presentation'
p670
I8
sS'mathematics education'
p671
I14
sS'pharmacovigilance'
p672
I6
sS'customer experience'
p673
I6
sS'mathematical biology'
p674
I6
sS'microsoft office'
p675
I1050
sS'statistical inference'
p676
I25
sS'b2b marketing'
p677
I10
sS'imagej'
p678
I9
sS'venture capital'
p679
I25
sS'financial markets'
p680
I22
sS'public relations'
p681
I34
sS'information retrieval'
p682
I127
sS'software design'
p683
I86
sS'mass spectrometry'
p684
I18
sS'military operations'
p685
I16
sS'market risk'
p686
I18
sS'genetics'
p687
I64
sS'redis'
p688
I22
sS'equity research'
p689
I26
sS'mathcad'
p690
I7
sS'metabolomics'
p691
I6
sS'nmr'
p692
I12
sS'microsoft crm'
p693
I6
sS'nvivo'
p694
I7
sS'leadership'
p695
I582
sS'biomedical engineering'
p696
I83
sS'rdbms'
p697
I12
sS'organic chemistry'
p698
I11
sS'spss'
p699
I541
sS'medicare'
p700
I12
sS'cuda'
p701
I29
sS'cyber-security'
p702
I10
sS'outlook'
p703
I16
sS'fundraising'
p704
I38
sS'communication'
p705
I38
sS'stochastic calculus'
p706
I23
sS'due diligence'
p707
I23
sS'mathematical physics'
p708
I9
sS'transportation engineering'
p709
I11
sS'ehr'
p710
I10
sS'opengl'
p711
I19
sS'strategic consulting'
p712
I13
sS'emacs'
p713
I10
sS'data munging'
p714
I13
sS'growth hacking'
p715
I11
sS'graphical models'
p716
I8
sS'apis'
p717
I29
sS'knowledge representation'
p718
I6
sS'chemical engineering'
p719
I16
sS'computer security'
p720
I18
sS'fraud'
p721
I12
sS'illustrator'
p722
I24
sS'sap netweaver'
p723
I8
sS'ontologies'
p724
I11
sS'amazon redshift'
p725
I28
sS'personalization'
p726
I8
sS'sales'
p727
I61
sS'objective-c'
p728
I38
sS'ssrs'
p729
I49
sS'high performance computing'
p730
I119
sS'relational databases'
p731
I41
sS'politics'
p732
I22
sS'nanofabrication'
p733
I16
sS'hospitals'
p734
I11
sS'biochemistry'
p735
I71
sS'computational chemistry'
p736
I20
sS'storage'
p737
I7
sS'equity derivatives'
p738
I19
sS'database development'
p739
I11
sS'mathematics'
p740
I209
sS'ggplot'
p741
I7
sS'cascading style sheets css'
p742
I16
sS'quantum chemistry'
p743
I7
sS'sap implementation'
p744
I7
sS'parallel programming'
p745
I25
sS'wifi'
p746
I7
sS'netlogo'
p747
I7
sS'interaction design'
p748
I6
sS'qualitative research'
p749
I185
sS'chinese'
p750
I19
sS'hedge funds'
p751
I39
sS'design experiments'
p752
I96
sS'user experience design'
p753
I8
sS'microsoft sql server'
p754
I331
sS'agile methodologies'
p755
I275
sS'materials science'
p756
I60
sS'mpi'
p757
I38
sS'government contracting'
p758
I6
sS'infectious diseases'
p759
I10
sS'employee engagement'
p760
I11
sS'bioconductor'
p761
I7
sS'lisp'
p762
I11
sS'mapreduce'
p763
I343
sS'common lisp'
p764
I10
sS'lecturing'
p765
I12
sS'systems analysis'
p766
I25
sS'information design'
p767
I6
sS'batch processing'
p768
I8
sS'academic writing'
p769
I12
sS'statistical consulting'
p770
I35
sS'statistical arbitrage'
p771
I8
sS'microbiology'
p772
I12
sS'large-scale data analysis'
p773
I30
sS'segmentation'
p774
I193
sS'machine vision'
p775
I10
sS'agile waterfall methodologies'
p776
I7
sS'b2b'
p777
I14
sS'arena'
p778
I9
sS'search'
p779
I22
sS'computational neuroscience'
p780
I22
sS'advertising'
p781
I33
sS'google adwords'
p782
I28
sS'qualtrics'
p783
I12
sS'semiconductors'
p784
I50
sS'political campaigns'
p785
I8
sS'vim'
p786
I17
sS'graphic design'
p787
I21
sS'vis'
p788
I13
sS'mobile advertising'
p789
I10
sS'esri'
p790
I12
sS'web analytics'
p791
I155
sS'structured products'
p792
I13
sS'petroleum'
p793
I7
sS'governance'
p794
I14
sS'quantum mechanics'
p795
I11
sS'requirements management'
p796
I9
sS'grant writing'
p797
I62
sS'genetic algorithms'
p798
I27
sS'organization'
p799
I6
sS'qpcr'
p800
I17
sS'science'
p801
I361
sS'primary research'
p802
I7
sS'mobile applications'
p803
I69
sS'budgets'
p804
I33
sS'customer acquisition'
p805
I13
sS'visual basic'
p806
I110
sS'equities'
p807
I70
sS'sql server management studio'
p808
I21
sS'mvc'
p809
I6
sS'algorithm development'
p810
I27
sS'asset allocation'
p811
I7
sS'css'
p812
I235
sS'algebra'
p813
I6
sS'requirements analysis'
p814
I201
sS'entrepreneurship'
p815
I150
sS'partial differential equations'
p816
I19
sS'bioinformatics'
p817
I205
sS'extract transform load etl'
p818
I29
sS'metrology'
p819
I6
sS'a'
I103
sS'github'
p820
I105
sS'remote sensing'
p821
I39
sS'documentation'
p822
I7
sS'mathematica'
p823
I362
sS'django'
p824
I51
sS'embedded systems'
p825
I75
sS'nltk'
p826
I32
sS'photoshop'
p827
I113
sS'r d'
p828
I87
sS'healthcare industry'
p829
I6
sS'data acquisition'
p830
I11
sS'strategic partnerships'
p831
I49
sS'radar'
p832
I8
sS'panel data analysis'
p833
I8
sS'evolutionary biology'
p834
I8
sS'anomaly detection'
p835
I19
sS'pcr'
p836
I47
sS'monte carlo simulation'
p837
I221
sS'supply chain management'
p838
I64
sS'user interface'
p839
I6
sS'fraud detection'
p840
I26
sS'pca'
p841
I7
sS'project engineering'
p842
I8
sS'scipy'
p843
I86
sS'staff development'
p844
I8
sS'business development'
p845
I139
sVbayesian method
p846
I35
sS'communication skills'
p847
I11
sS'knowledge management'
p848
I21
sS'energy'
p849
I33
sS'decision support'
p850
I12
sS'ms excel pivot tables'
p851
I27
sS'environmental awareness'
p852
I21
sS'principal component analysis'
p853
I33
sS'immunohistochemistry'
p854
I22
sS'insurance'
p855
I22
sS'collaborative problem solving'
p856
I9
sS'fluid dynamics'
p857
I22
sS'psychology'
p858
I46
sS'research'
p859
I1432
sS'dimensionality reduction'
p860
I14
sS'sdlc'
p861
I182
sS'business requirements'
p862
I11
sS'microeconomics'
p863
I23
sS'asp'
p864
I9
sS'algorithm design'
p865
I80
sS'mathematical analysis'
p866
I15
sS'bash'
p867
I100
sS'hedging'
p868
I8
sS'drupal'
p869
I11
sS'mobile devices'
p870
I51
sS'clinical data management'
p871
I20
sS'cdma'
p872
I10
sS'rapid prototyping'
p873
I14
sS'probability'
p874
I59
sS'organic synthesis'
p875
I6
sS'transcriptomics'
p876
I6
sS'marketing strategy'
p877
I142
sS'c++ stl'
p878
I22
sS'financial reporting'
p879
I23
sS't-sql'
p880
I46
sS'maple'
p881
I27
sS'interviews'
p882
I9
sS'trading systems'
p883
I29
sS'weblogic'
p884
I6
sS'gpu'
p885
I12
sS'scheme'
p886
I9
sS'gps'
p887
I14
sS'credit derivatives'
p888
I15
sS'apache spark'
p889
I468
sS'instructional design'
p890
I13
sS'translation'
p891
I8
sS'jquery'
p892
I117
sS'business intelligence tools'
p893
I14
sS'quantitative analytics'
p894
I335
sS'stl'
p895
I7
sS'disease management'
p896
I7
sS'solution architecture'
p897
I60
sS'fluorescence microscopy'
p898
I32
sS'discrete mathematics'
p899
I11
sS'game theory'
p900
I27
sS'debugging'
p901
I29
sS'ni labview'
p902
I17
sS'early-stage startups'
p903
I8
sS'3d printing'
p904
I7
sS'social entrepreneurship'
p905
I6
sS'confocal microscopy'
p906
I25
sS'amazon web services'
p907
I8
sS'data center'
p908
I22
sS'predictive modeling'
p909
I653
sS'complex systems'
p910
I8
sS'test planning'
p911
I7
sS'numerical linear algebra'
p912
I8
sS'jsp'
p913
I45
sS'windows'
p914
I112
sS'convex optimization'
p915
I15
sS'excel vba'
p916
I7
sS'linear regression'
p917
I157
sS'h2o'
p918
I9
sS'theano'
p919
I11
sS'physics'
p920
I372
sS'molecular cloning'
p921
I26
sS'international relations'
p922
I39
sS'operations management'
p923
I52
sS'grid computing'
p924
I11
sS'spring mvc'
p925
I6
sS'vulnerability assessment'
p926
I6
sS'network science'
p927
I6
sS'geomatics'
p928
I9
sS'cell'
p929
I20
sS'sql db2'
p930
I6
sS'business process management'
p931
I7
sS'multi-channel marketing'
p932
I28
sS'asset management'
p933
I16
sS'geospatial intelligence'
p934
I6
sS'development economics'
p935
I6
sS'risk analytics'
p936
I22
sS'physical chemistry'
p937
I15
sS'apache kafka'
p938
I39
sS'recommender systems'
p939
I90
sS'immunoassays'
p940
I6
sS'talent management'
p941
I10
sS'animal models'
p942
I11
sS'oracle sql developer'
p943
I24
sS'finite element analysis'
p944
I53
sS'laser physics'
p945
I10
sS'blogging'
p946
I30
sS'mac os x'
p947
I18
sS'geospatial modeling'
p948
I8
sS'banking'
p949
I20
sS'hplc'
p950
I18
sS'cro'
p951
I7
sS'information architecture'
p952
I18
sS'intelligence'
p953
I15
sS'eviews'
p954
I12
sS'proposal writing'
p955
I57
sS'defense'
p956
I19
sS'seo'
p957
I45
sS'sem'
p958
I43
sS'arm'
p959
I6
sS'direct mail'
p960
I8
sS'organization skills'
p961
I6
sS'xslt'
p962
I10
sS'javascript'
p963
I14
sS'alteryx'
p964
I20
sS'scalability'
p965
I78
sS'molecular genetics'
p966
I9
sS'mentoring'
p967
I29
sS'minitab'
p968
I121
sS'water quality'
p969
I10
sS'solr'
p970
I32
sS'j2ee'
p971
I8
sS'customer analytics'
p972
I13
sS'rna isolation'
p973
I6
sS'research design'
p974
I99
sS'attribution modeling'
p975
I9
sS'reinforcement learning'
p976
I15
sS'linux'
p977
I760
sS'simulation modeling'
p978
I8
sS'java'
p979
I6
sS'publishing'
p980
I6
sS'functional genomics'
p981
I7
sS'strategy'
p982
I475
sS'commodity markets'
p983
I7
sS'options'
p984
I36
sS'mixed model'
p985
I7
sS'pricing strategy'
p986
I18
sS'asset managment'
p987
I9
sS'pl'
p988
I131
sS'dashboarding'
p989
I7
sS'customer satisfaction'
p990
I10
sS'business analysis'
p991
I469
sS'amazon mechanical turk'
p992
I6
sS'gas'
p993
I6
sS'foreign languages'
p994
I8
sS'fuzzy logic'
p995
I12
sS'econometric modeling'
p996
I24
sS'experimental physics'
p997
I24
sS'optimization'
p998
I461
sS'originlab'
p999
I6
sS'lingo'
p1000
I10
sS'trend analysis'
p1001
I8
sS'avro'
p1002
I7
sS'operational excellence'
p1003
I7
sS'adobe photoshop'
p1004
I8
sS'geographic information systems gis'
p1005
I17
sS'integer programming'
p1006
I10
sS'customer segmentation strategy'
p1007
I10
sS'hadoop'
p1008
I7
sS'coffeescript'
p1009
I6
sS'financial structuring'
p1010
I6
sS'enterprise search'
p1011
I6
sS'medicaid'
p1012
I6
sS'bayesian inference'
p1013
I29
sS'immunofluorescence'
p1014
I9
sS'model selection'
p1015
I6
sS'process development'
p1016
I6
sS'pattern recognition'
p1017
I240
sS'international development'
p1018
I26
sS'analysis'
p1019
I968
sS'financial accounting'
p1020
I11
sS'system architecture'
p1021
I58
sS'business process re-engineering'
p1022
I7
sS'docker'
p1023
I23
sS'chemistry'
p1024
I52
sS'gsm'
p1025
I9
sS'sap hana'
p1026
I10
sS'model validation'
p1027
I9
sS'trading strategies'
p1028
I12
sS'api development'
p1029
I7
sS'mysql'
p1030
I574
sS'biomarker discovery'
p1031
I8
sS'conservation issues'
p1032
I6
sS'microsoft powerpoint'
p1033
I6
sS'anova'
p1034
I27
sS'nuclear physics'
p1035
I9
sS'gams'
p1036
I26
sS'adobe creative suite'
p1037
I39
sS'kpi dashboards'
p1038
I10
sS'experimental design'
p1039
I165
sS'product design'
p1040
I20
sS'causal inference'
p1041
I11
sS'aerospace'
p1042
I15
sS'performance tuning'
p1043
I18
sS'distributed algorithms'
p1044
I6
sS'outcomes research'
p1045
I13
sS'regular expressions'
p1046
I22
sS'polymers'
p1047
I8
sS'cisco technologies'
p1048
I7
sS'semantic technologies'
p1049
I9
sS'eeg'
p1050
I11
sS'ecology'
p1051
I20
sS'spring'
p1052
I17
sS'series 7'
p1053
I6
sS'pricing'
p1054
I29
sS'unix operating systems'
p1055
I6
sS'teradata sql'
p1056
I17
sS'scala'
p1057
I241
sS'team building'
p1058
I81
sS'saas'
p1059
I94
sS'integration'
p1060
I186
sS'web services'
p1061
I108
sS'innovation'
p1062
I20
sS'teradata'
p1063
I83
sS'process optimization'
p1064
I16
sS'informatica'
p1065
I35
sS'processing'
p1066
I8
sS'medical imaging'
p1067
I42
sS'biomarkers'
p1068
I10
sS'informatics'
p1069
I37
sS'rapidminer'
p1070
I30
sS'simulation'
p1071
I29
sS'idl'
p1072
I36
sS'apache pig'
p1073
I244
sS'executive management'
p1074
I11
sS'shiny'
p1075
I27
sS'crystal ball'
p1076
I7
sS'neural networks'
p1077
I175
sS'servers'
p1078
I8
sS'solid mechanics'
p1079
I6
sS'troubleshooting'
p1080
I31
sS'sports'
p1081
I7
sS'literature reviews'
p1082
I27
sS'network theory'
p1083
I6
sS'clustering'
p1084
I17
sS'statistics'
p1085
I2300
sS'markov chain monte carlo'
p1086
I22
sS'vbscript'
p1087
I6
sS'demand forecasting'
p1088
I15
sS'statistica'
p1089
I8
sS'heroku'
p1090
I6
sS'ruby rails'
p1091
I72
sS'device drivers'
p1092
I7
sS'linq'
p1093
I7
sS'health services research'
p1094
I7
sS'groovy'
p1095
I10
sS'life sciences'
p1096
I90
sS'dynamic programming'
p1097
I11
sS'international economics'
p1098
I7
sS'uv'
p1099
I12
sS'labview'
p1100
I35
sS'credit scoring'
p1101
I15
sS'spectroscopy'
p1102
I81
sS'human resources'
p1103
I11
sS'engineering'
p1104
I121
sS'data governance'
p1105
I13
sS'gephi'
p1106
I16
sS'winbugs'
p1107
I12
sS'microsoft technologies'
p1108
I7
sS'agent-based modeling'
p1109
I16
sS'economic modeling'
p1110
I19
sS'data collection'
p1111
I45
sS'mplus'
p1112
I7
sS'pandas'
p1113
I75
sS'product lifecycle management'
p1114
I8
sS'financial modeling'
p1115
I281
sS'mongodb'
p1116
I226
sS'scrum'
p1117
I97
sS'process modeling'
p1118
I7
sS'sql tuning'
p1119
I12
sS'splunk'
p1120
I22
sS'pivot tables'
p1121
I10
sS'emerging markets'
p1122
I17
sS'svm'
p1123
I31
sS'fluorescence'
p1124
I7
sS'unit testing'
p1125
I8
sS'organizational development'
p1126
I17
sS'information assurance'
p1127
I6
sS'focus groups'
p1128
I10
sS'oracle'
p1129
I205
sS'industrial organization'
p1130
I6
sS'edc'
p1131
I7
sS'parallel algorithms'
p1132
I10
sS'sentiment analysis'
p1133
I40
sS'ggplot2'
p1134
I7
sS'go'
p1135
I9
sS'survey methodology'
p1136
I10
sS'mri'
p1137
I17
sS'alternative investments'
p1138
I13
sS'digital imaging'
p1139
I8
sS'behavioral targeting'
p1140
I17
sS'quality assurance'
p1141
I39
sS'master data management'
p1142
I16
sS'junit'
p1143
I9
sS'semiconductor industry'
p1144
I10
sS'automotive'
p1145
I6
sS'facebook'
p1146
I18
sS'nanomaterials'
p1147
I25
sS'node.js'
p1148
I47
sS'non-profits'
p1149
I26
sS'mercurial'
p1150
I9
sS'risk modeling'
p1151
I9
sS'hive'
p1152
I439
sS'olap'
p1153
I22
sS'penetration testing'
p1154
I6
sS'research development r d'
p1155
I8
sS'optics'
p1156
I48
sS'predictive analytics'
p1157
I556
sS'logistics'
p1158
I22
sS'sas base'
p1159
I39
sS'cfd'
p1160
I26
sS'data analysis'
p1161
I2946
sS'elisa'
p1162
I9
sS'vmware'
p1163
I10
sS'solution selling'
p1164
I7
sS'apache zookeeper'
p1165
I9
sS'datastage'
p1166
I6
sS'clinical development'
p1167
I11
sS'access'
p1168
I178
sS'distributed computing'
p1169
I7
sS'stochastic processes'
p1170
I38
sS'matplotlib'
p1171
I46
sS'customer analysis'
p1172
I58
sS'octave'
p1173
I57
sS'ubuntu'
p1174
I26
sS'openmp'
p1175
I12
sS'vba'
p1176
I306
sS'big data'
p1177
I6
sS'data cleaning'
p1178
I25
sS'consumer insights'
p1179
I8
sS'test automation'
p1180
I18
sS'rdf'
p1181
I11
sS'product launch'
p1182
I10
sS'windows azure'
p1183
I20
sS'microsoft access'
p1184
I36
sS'cad'
p1185
I21
sS'patents'
p1186
I11
sS'probabilistic models'
p1187
I24
sS'clinical study design'
p1188
I13
sS'managerial finance'
p1189
I7
sS'earth science'
p1190
I6
sS'social media'
p1191
I221
sS'mllib'
p1192
I6
sS'clinical research'
p1193
I69
sS'performance management'
p1194
I16
sS'iis'
p1195
I11
sS'conjoint analysis'
p1196
I6
sS'project management'
p1197
I652
sS'applied mathematics'
p1198
I163
sS'erwin'
p1199
I7
sS'red hat linux'
p1200
I7
sS'personalized medicine'
p1201
I6
sS'speech recognition'
p1202
I15
sS'sqlite'
p1203
I30
sS'parallel computing'
p1204
I95
sS'equity trading'
p1205
I7
sS'semantic web'
p1206
I27
sS'cognitive science'
p1207
I17
sS'afm'
p1208
I27
sS'sip'
p1209
I6
sS'power bi'
p1210
I11
sS'tableau'
p1211
I612
sS'visual basic applications vba'
p1212
I24
sS'market research'
p1213
I272
sS'gcp'
p1214
I7
sS'lamp'
p1215
I11
sS'c++ language'
p1216
I14
sS'hypothesis testing'
p1217
I40
sS'graph databases'
p1218
I11
sS'healthcare information technology'
p1219
I41
sS'philosophy'
p1220
I7
sS'leadership development'
p1221
I26
sS'multivariate testing'
p1222
I10
sS'computational mathematics'
p1223
I9
sS'technical training'
p1224
I9
sS'market making'
p1225
I6
sS'facebook api'
p1226
I6
sS'google analytics'
p1227
I108
sS'healthcare'
p1228
I74
sS'visual c'
p1229
I12
sS'jira'
p1230
I33
sS'observational astronomy'
p1231
I9
sS'strategic leadership'
p1232
I8
sS'marketing research'
p1233
I80
sS'hbase'
p1234
I68
sS'application architecture'
p1235
I7
sS'oracle pl'
p1236
I11
sS'linguistics'
p1237
I14
sS'bloomberg terminal'
p1238
I16
sS'scientific analysis'
p1239
I7
sS'linux system administration'
p1240
I6
sS'multithreading'
p1241
I13
sS'customer relationship management crm'
p1242
I30
sS'python'
p1243
I6
sS'semantic analysis'
p1244
I7
sS'private equity'
p1245
I24
sS'fx options'
p1246
I8
sS'spatial analysis'
p1247
I40
sS'.net'
p1248
I93
sS'user acceptance testing'
p1249
I8
sS'data analytics'
p1250
I102
sS'basel ii'
p1251
I6
sS'information extraction'
p1252
I22
sS'enterprise software'
p1253
I119
sS'ec2'
p1254
I6
sS'cell biology'
p1255
I45
sS'ssas'
p1256
I9
sS'questionnaire design'
p1257
I11
sS'scientific computing'
p1258
I243
sS'vendor management'
p1259
I57
sS'electronics'
p1260
I39
sS'unsupervised learning'
p1261
I30
sS'molecular modeling'
p1262
I17
sS'factor analysis'
p1263
I19
sS'hl7'
p1264
I10
sS'data quality'
p1265
I35
sS'foreign policy'
p1266
I8
sS'networking'
p1267
I50
sS'customer relations'
p1268
I9
sS'knime'
p1269
I11
sS'open source software'
p1270
I10
sS'financial risk management'
p1271
I6
sS'traffic engineering'
p1272
I6
sS'elasticsearch'
p1273
I41
sS'3d visualization'
p1274
I9
sS'lte'
p1275
I12
sS'retail'
p1276
I26
sS'scalding'
p1277
I7
sS'healthcare consulting'
p1278
I13
sS'indesign'
p1279
I20
sS'tortoise svn'
p1280
I10
sS'structural analysis'
p1281
I9
sS'marketing management'
p1282
I10
sS'management'
p1283
I599
sS'weka'
p1284
I99
sS'project portfolio management'
p1285
I16
sS'gurobi'
p1286
I6
sS'advanced analytics'
p1287
I7
sS'software documentation'
p1288
I35
sS'flume'
p1289
I16
sS'mathematical programming'
p1290
I28
sS'scientific writing'
p1291
I120
sS'discrete event simulation'
p1292
I16
sS'credit cards'
p1293
I12
sS'linear algebra'
p1294
I53
sS'data engineering'
p1295
I17
sS'new business development'
p1296
I33
sS'impala'
p1297
I11
sS'litigation support'
p1298
I8
sS'management consulting'
p1299
I132
sS'analytical chemistry'
p1300
I12
sS'competitive analysis'
p1301
I118
sS'cosmology'
p1302
I8
sS'instrumentation'
p1303
I9
sS'asp.net'
p1304
I45
sS'pspice'
p1305
I14
sS'vertica'
p1306
I23
sS'ms project'
p1307
I40
sS'failure analysis'
p1308
I11
sS'soap'
p1309
I16
sS'calculus'
p1310
I25
sS'collaboration'
p1311
I8
sS'aws'
p1312
I10
sS'financial risk'
p1313
I39
sS'awk'
p1314
I14
sS'biomedical informatics'
p1315
I6
sS'oozie'
p1316
I12
sS'technical writing'
p1317
I118
sS'software engineering'
p1318
I312
sS'smart grid'
p1319
I8
sS'protein expression'
p1320
I14
sS'databases'
p1321
I629
sS'investment management'
p1322
I6
sS'aerospace engineering'
p1323
I7
sS'pre-sales'
p1324
I21
sS'adult education'
p1325
I6
sS'it management'
p1326
I30
sS'sales management'
p1327
I11
sS'envi'
p1328
I7
sS'ms office suite'
p1329
I9
sS'software development life cycle sdlc'
p1330
I39
sS'pharmacology'
p1331
I8
sS'bonds'
p1332
I7
sS'photography'
p1333
I19
sS'neuroimaging'
p1334
I21
sS'computational modeling'
p1335
I43
sS'db2'
p1336
I29
sS'credit analysis'
p1337
I8
sS'cognos'
p1338
I33
sS'ftir'
p1339
I7
sS'climate change'
p1340
I27
sS'presentation skills'
p1341
I15
sS'game design'
p1342
I7
sS'system administration'
p1343
I25
sS'integrated marketing'
p1344
I21
sS'demand generation'
p1345
I8
sS'information management'
p1346
I16
sS'lua'
p1347
I8
sS'assay development'
p1348
I18
sS'verilog'
p1349
I22
sS'copywriting'
p1350
I9
sS'wireless networking'
p1351
I6
sS'keynote'
p1352
I6
sS'database design'
p1353
I123
sS'technical presentations'
p1354
I24
sS'e-learning'
p1355
I17
sS'swift'
p1356
I9
sS'hydrology'
p1357
I9
sS'software service saas'
p1358
I13
sS'budgeting'
p1359
I12
sS'presentations'
p1360
I23
sS'sas programming'
p1361
I200
sS'core java'
p1362
I56
sVbayesian statistic
p1363
I171
sS'etl'
p1364
I158
sS'image segmentation'
p1365
I17
sS'public speaking'
p1366
I493
sS'data science'
p1367
I939
sS'.net framework'
p1368
I7
sS'thought leadership'
p1369
I12
sS'business process improvement'
p1370
I83
sS'mechanical engineering'
p1371
I24
sS'asp.net mvc'
p1372
I12
sS'json'
p1373
I49
sS'secondary research'
p1374
I6
sS'teamwork'
p1375
I163
sS'statistical learning'
p1376
I12
sS'sqoop'
p1377
I33
sS'marketing communications'
p1378
I26
sS'c'
I11
sS'capital iq'
p1379
I6
sS'hardware diagnostics'
p1380
I7
sS'software quality assurance'
p1381
I11
sS'cvs'
p1382
I6
sS'stem cells'
p1383
I7
sS'crystal reports'
p1384
I18
sS'cvd'
p1385
I7
sS'scientific programming'
p1386
I8
sS'project planning'
p1387
I79
sS'lean manufacturing'
p1388
I36
sS'hardware'
p1389
I6
sS'ansible'
p1390
I7
sS'statistical analysis'
p1391
I12
sS'regression'
p1392
I29
sS'quickbooks'
p1393
I6
sS'clinical trials'
p1394
I62
sS'digital signal processing'
p1395
I26
sS'quantitative investing'
p1396
I11
sS'urban planning'
p1397
I8
sS'spring framework'
p1398
I15
sS'curriculum development'
p1399
I14
sS'google cloud platform'
p1400
I8
sS'android'
p1401
I40
sS'web development'
p1402
I124
sS'human computer interaction'
p1403
I30
sS'six sigma'
p1404
I83
sS'quality management'
p1405
I9
sS'ios'
p1406
I6
sS'automation'
p1407
I20
sS'arcmap'
p1408
I9
sS'architectures'
p1409
I20
sS'php'
p1410
I187
sS'artificial neural networks'
p1411
I61
sS'statistical programming'
p1412
I56
sS'in vitro'
p1413
I10
sS'bootstrapping'
p1414
I6
sS'eye tracking'
p1415
I10
sS'information theory'
p1416
I12
sS'curriculum design'
p1417
I21
sS'procurement'
p1418
I7
sS'command'
p1419
I8
sS'business process design'
p1420
I11
sS'english'
p1421
I67
sS'video editing'
p1422
I8
sS'mfc'
p1423
I7
sS'policy analysis'
p1424
I96
sS'tcp'
p1425
I18
sS'written oral presentation skills'
p1426
I13
sS'tcl'
p1427
I7
sS'microsoft visio'
p1428
I6
sS'microsoft project'
p1429
I26
sS'time series analysis'
p1430
I457
sS'team management'
p1431
I75
sS'thermodynamics'
p1432
I14
sS'nanoparticles'
p1433
I12
sS'gmp'
p1434
I8
sS'css3'
p1435
I19
sS'optimizations'
p1436
I49
sS'government'
p1437
I49
sS'gnu octave'
p1438
I24
sS'sequencing'
p1439
I16
sS'nanotechnology'
p1440
I66
sS'energy policy'
p1441
I8
sS'immunology'
p1442
I18
sS'xquery'
p1443
I7
sS'market analysis'
p1444
I58
sS'perl script'
p1445
I7
sS'regression testing'
p1446
I18
sS'sql development'
p1447
I9
sS'geospatial data'
p1448
I6
sS'usability testing'
p1449
I9
sS'public policy'
p1450
I72
sS'econometrics'
p1451
I228
sS'structured finance'
p1452
I7
sS'industrial engineering'
p1453
I37
sS'lead generation'
p1454
I22
sS'mathematical statistics'
p1455
I6
sS'information security'
p1456
I26
sS'optical microscopy'
p1457
I6
sS'biology'
p1458
I17
sS'meta-analysis'
p1459
I7
sS'team leadership'
p1460
I154
sS'maven'
p1461
I11
sS'epidemiology'
p1462
I53
sS'loans'
p1463
I7
sS'national security'
p1464
I12
sS'marketing analytics'
p1465
I79
sS'arcgis'
p1466
I113
sS'oracle database'
p1467
I19
sS'clojure'
p1468
I16
sS'powerpoint'
p1469
I499
sS'owl'
p1470
I10
sS'statistical sampling'
p1471
I10
sS'problem solving'
p1472
I99
sS'online research'
p1473
I8
sS'quantitative analysis'
p1474
I39
sS'enterprise risk management'
p1475
I9
sS'macroeconomics'
p1476
I30
sS'multivariate analysis'
p1477
I64
sS'continuous improvement'
p1478
I20
sS'community development'
p1479
I7
sS'artificial intelligence'
p1480
I304
sS'systems engineering'
p1481
I80
sS'construction'
p1482
I8
sS'tensorflow'
p1483
I6
sS'editing'
p1484
I85
sS'valuation'
p1485
I79
sS'technical documentation'
p1486
I6
sS'digital photography'
p1487
I6
sS'itil'
p1488
I17
sS'condensed matter physics'
p1489
I7
sS'business insights'
p1490
I8
sS'pricing analysis'
p1491
I10
sS'operations research'
p1492
I213
sS'workshop facilitation'
p1493
I8
sS'oracle applications'
p1494
I7
sS'computational genomics'
p1495
I8
sS'regression analysis'
p1496
I156
sS'crm'
p1497
I169
sS'restful webservices'
p1498
I9
sS'pig'
p1499
I40
sS'report writing'
p1500
I26
sS'multivariate statistics'
p1501
I89
sS'education'
p1502
I8
sS'cmos'
p1503
I6
sS'quantitative models'
p1504
I6
sS'stochastic modeling'
p1505
I33
sS'actuarial exams'
p1506
I6
sS'transfection'
p1507
I8
sS'fmea'
p1508
I10
sS'solid state physics'
p1509
I6
sS'astronomy'
p1510
I33
sS'tomcat'
p1511
I26
sS'photonics'
p1512
I10
sS'biotechnology'
p1513
I86
sS'validation'
p1514
I14
s.