(dp1
S'differential equations'
p2
I14
sS'electrophysiology'
p3
I18
sS'devops'
p4
I6
sS'system design'
p5
I21
sS'personnel selection'
p6
I6
sS'content management'
p7
I15
sS'cognitive neuroscience'
p8
I28
sS'matlab'
p9
I23
sS'quantum computing'
p10
I6
sS'teaching'
p11
I356
sS'data entry'
p12
I12
sS'geology'
p13
I11
sS'etl tools'
p14
I7
sS'health informatics'
p15
I7
sS'categorical data analysis'
p16
I20
sS'embedded c'
p17
I10
sS'surface chemistry'
p18
I13
sS'molecular dynamics'
p19
I30
sS'event management'
p20
I18
sS'unity3d'
p21
I10
sS'cross-functional team leadership'
p22
I145
sS'risk assessment'
p23
I13
sS'database management'
p24
I6
sS'engineering management'
p25
I33
sS'financial services'
p26
I27
sS'cms'
p27
I8
sS'numerical analysis'
p28
I318
sS'vhdl'
p29
I31
sS'statistical mechanics'
p30
I10
sS'actuarial science'
p31
I33
sS'process improvement'
p32
I169
sS'virtualization'
p33
I18
sS'association rules'
p34
I6
sVpanda
p35
I29
sS'theory'
p36
I28
sS'asic'
p37
I7
sS'time management'
p38
I59
sS'mac os'
p39
I17
sS'environmental science'
p40
I34
sS'random forests'
p41
I8
sS'agile project management'
p42
I61
sS'statistical modeling'
p43
I1126
sS'information technology'
p44
I39
sS'glm'
p45
I16
sS'economics'
p46
I251
sS'sql database design'
p47
I6
sS'credit'
p48
I13
sS'web mining'
p49
I11
sS'military'
p50
I27
sS'sas enterprise miner'
p51
I67
sS'computer architecture'
p52
I13
sS'classification'
p53
I34
sS'population genetics'
p54
I14
sS'healthcare information technology hit'
p55
I8
sS'julia'
p56
I10
sS'unix'
p57
I7
sS'experimentation'
p58
I114
sS'derivatives'
p59
I78
sS'open source'
p60
I20
sS'army'
p61
I6
sS'regression models'
p62
I53
sS'risk management'
p63
I160
sS'campaign management'
p64
I10
sS'structural equation modeling'
p65
I13
sS'web design'
p66
I40
sS'sap2000'
p67
I6
sS'jmp'
p68
I112
sS'drug design'
p69
I7
sS'process automation'
p70
I6
sS'computational linguistics'
p71
I25
sS'energy efficiency'
p72
I16
sS'word'
p73
I22
sS'eclipse'
p74
I107
sS'root'
p75
I21
sS'scripting'
p76
I10
sS'dynamical systems'
p77
I13
sS'portfolio management'
p78
I80
sS'revenue analysis'
p79
I7
sS'display advertising'
p80
I7
sS'portfolio optimization'
p81
I15
sS'contract negotiation'
p82
I11
sS'sharepoint'
p83
I56
sS'sas enterprise guide'
p84
I10
sS'business planning'
p85
I33
sS'text classification'
p86
I17
sS'final cut pro'
p87
I6
sS'data security'
p88
I6
sS'oracle e-business suite'
p89
I8
sS'copy editing'
p90
I7
sS'fluid mechanics'
p91
I24
sS'sparql'
p92
I8
sS'bootstrap'
p93
I26
sS'e-commerce'
p94
I102
sS'algorithms'
p95
I1126
sS'network security'
p96
I28
sS'intellectual property'
p97
I8
sS'customer insight'
p98
I72
sS'rnaseq'
p99
I10
sS'capital markets'
p100
I42
sS'google docs'
p101
I10
sS'counterterrorism'
p102
I7
sS'r programming'
p103
I16
sS'writing'
p104
I59
sS'statistical software'
p105
I26
sS'voip'
p106
I11
sS'chromatography'
p107
I7
sS'survey design'
p108
I73
sS'sap erp'
p109
I17
sS'business transformation'
p110
I16
sS'cloudera'
p111
I13
sS'pharmaceutical industry'
p112
I27
sS'biomaterials'
p113
I10
sS'requirements gathering'
p114
I58
sS'cartography'
p115
I13
sS'computer forensics'
p116
I6
sS'trading'
p117
I48
sS'laboratory'
p118
I39
sS'direct marketing'
p119
I42
sS'particle physics'
p120
I36
sS'dsp'
p121
I6
sS'rf'
p122
I10
sS'database marketing'
p123
I61
sS'medicine'
p124
I10
sS'spatial databases'
p125
I13
sS'cancer research'
p126
I11
sS'data scientist'
p127
I9
sS'sensors'
p128
I60
sS'cell culture'
p129
I58
sS'machining'
p130
I8
sS'stochastic optimization'
p131
I11
sS'microsoft azure'
p132
I8
sS'proteomics'
p133
I14
sS'operational planning'
p134
I10
sS'property & casualty insurance'
p135
I12
sS'neo4j'
p136
I23
sS'process simulation'
p137
I16
sS'basic html'
p138
I7
sS'microfabrication'
p139
I7
sS'investment banking'
p140
I25
sS'netbeans'
p141
I7
sS'social media measurement'
p142
I6
sS'struts'
p143
I21
sS'recruiting'
p144
I19
sS'idl programming'
p145
I9
sS'abap'
p146
I10
sS'lifesciences'
p147
I53
sS'dimensional modeling'
p148
I13
sS'operating systems'
p149
I23
sS'text mining'
p150
I180
sS'it strategy'
p151
I76
sS'japanese'
p152
I9
sS'strategic thinking'
p153
I10
sS'it service management'
p154
I14
sS'performance improvement'
p155
I8
sS'solar energy'
p156
I14
sS'financial analysis'
p157
I184
sS'ampl'
p158
I29
sS'kalman filtering'
p159
I8
sS'fixed income'
p160
I59
sS'supply chain optimization'
p161
I24
sS'drug delivery'
p162
I6
sS'photolithography'
p163
I8
sS'plasma physics'
p164
I11
sS'business intelligence'
p165
I654
sS'angularjs'
p166
I37
sS'market basket analysis'
p167
I9
sS'unix shell scripting'
p168
I96
sS'control systems design'
p169
I9
sS'user experience'
p170
I53
sS'firmware'
p171
I14
sS'marketing automation'
p172
I7
sS'social media marketing'
p173
I65
sS'project coordination'
p174
I9
sS'dna sequencing'
p175
I12
sS'natural language processing'
p176
I385
sS'ptc creo'
p177
I10
sS'performance measurement'
p178
I7
sS'bigquery'
p179
I6
sS'metrics'
p180
I8
sS'pentaho'
p181
I17
sS'inventory management'
p182
I13
sS'nonprofits'
p183
I69
sS'geographic information science'
p184
I10
sS'technology transfer'
p185
I12
sS'powder x-ray diffraction'
p186
I6
sS'tissue culture'
p187
I11
sS'dod'
p188
I28
sS'os x'
p189
I13
sS'laboratory skills'
p190
I8
sS'supply chain'
p191
I17
sS'strategic planning'
p192
I255
sS'visual studio'
p193
I79
sS'creative problem solving'
p194
I7
sS'd3'
p195
I17
sS'technical communication'
p196
I6
sS'healthcare management'
p197
I17
sS'critical thinking'
p198
I38
sS'web marketing'
p199
I7
sS'graph theory'
p200
I36
sS'cryptography'
p201
I11
sS'structural engineering'
p202
I10
sS'sharepoint designer'
p203
I7
sS'event planning'
p204
I67
sS'collaborative filtering'
p205
I15
sS'digital strategy'
p206
I34
sS'program evaluation'
p207
I54
sS'drug development'
p208
I9
sS'system identification'
p209
I6
sS'microscopy'
p210
I46
sS'j2ee web services'
p211
I7
sS'sequence analysis'
p212
I19
sS'architecture'
p213
I45
sS'emr'
p214
I14
sS'high availability'
p215
I11
sS'mergers'
p216
I7
sS'academic tutoring'
p217
I10
sS'active directory'
p218
I7
sS'testing'
p219
I156
sS'analytics'
p220
I1084
sS'statistical computing'
p221
I50
sS'corporate development'
p222
I7
sS'r&d'
p223
I87
sS'biomechanics'
p224
I10
sS'visualization'
p225
I15
sS'customer service'
p226
I166
sS'html5'
p227
I65
sS'modeling'
p228
I178
sS'decision analysis'
p229
I29
sS'quantitative research'
p230
I206
sS'security clearance'
p231
I29
sS'technical analysis'
p232
I6
sS'press releases'
p233
I9
sS'customer support'
p234
I6
sS'internet things'
p235
I17
sS'data integration'
p236
I51
sS'negotiation'
p237
I28
sS'transportation planning'
p238
I14
sS'shell scripting'
p239
I158
sS'protein purification'
p240
I18
sS'systems design'
p241
I7
sS'fourier analysis'
p242
I6
sS'telecommunications'
p243
I42
sS'pricing optimization'
p244
I6
sS'nonlinear dynamics'
p245
I11
sS'fortran'
p246
I164
sS'deep learning'
p247
I6
sS'environmental impact assessment'
p248
I10
sS'dreamweaver'
p249
I11
sS'numpy'
p250
I129
sS'analysis services'
p251
I9
sS'international business'
p252
I9
sS'decision trees'
p253
I109
sS'aviation'
p254
I9
sS'ich-gcp'
p255
I8
sVbayesian network
p256
I21
sS'lean six sigma'
p257
I11
sS'program development'
p258
I30
sS'optimization algorithms'
p259
I7
sS'dashboard'
p260
I17
sS'product management'
p261
I182
sS'unstructured data'
p262
I9
sS'advertising research'
p263
I6
sS'r studio'
p264
I7
sS'ip'
p265
I24
sS'employee training'
p266
I13
sS'database administration'
p267
I41
sS'signal processing'
p268
I275
sS'ic'
p269
I13
sS'community outreach'
p270
I72
sS'computer graphics'
p271
I14
sS'online advertising'
p272
I72
sS'design thinking'
p273
I10
sS'logistics management'
p274
I6
sS'medical devices'
p275
I53
sS'bloomberg'
p276
I53
sS'hipaa'
p277
I13
sS'digital image processing'
p278
I36
sS'performance metrics'
p279
I6
sS'presto'
p280
I11
sS'market data'
p281
I8
sS'image analysis'
p282
I43
sS'solar cells'
p283
I7
sS'materials'
p284
I12
sS'netezza'
p285
I27
sS'obiee'
p286
I13
sS'people skills'
p287
I6
sS'investments'
p288
I55
sS'information security management'
p289
I7
sS'web applications'
p290
I70
sS'solaris'
p291
I10
sS'biostatistics'
p292
I117
sS'proprietary trading'
p293
I6
sS'psychometrics'
p294
I25
sS'psychophysics'
p295
I8
sS'product strategy'
p296
I7
sS'distributed systems'
p297
I235
sS'field work'
p298
I12
sS'water resources'
p299
I9
sS'agile'
p300
I9
sS'software project management'
p301
I140
sS'opencv'
p302
I44
sS'evolutionary computation'
p303
I7
sS'oracle sql'
p304
I28
sS'strategic communications'
p305
I7
sS'user research'
p306
I9
sS'salesforce.com'
p307
I52
sS'numerical simulation'
p308
I75
sS'mobile marketing'
p309
I17
sS'social networking'
p310
I71
sS'scikit-learn'
p311
I10
sS'securities'
p312
I9
sS'online marketing'
p313
I45
sS'managed care'
p314
I9
sS'windows 7'
p315
I7
sS'security'
p316
I55
sS'rstudio'
p317
I8
sS'centos'
p318
I7
sS'text analytics'
p319
I80
sS'gel electrophoresis'
p320
I9
sS'health policy'
p321
I8
sS'social sciences'
p322
I12
sS'flow cytometry'
p323
I15
sS'sociology'
p324
I8
sS'cognitive psychology'
p325
I19
sS'data migration'
p326
I18
sS'uml'
p327
I40
sS'monetization'
p328
I8
sS'product development'
p329
I133
sS'genomics'
p330
I76
sS'marketing'
p331
I187
sS'microfluidics'
p332
I9
sS'science communication'
p333
I7
sS'dna'
p334
I16
sS'manufacturing'
p335
I41
sS'b testing'
p336
I41
sS'postgresql'
p337
I176
sS'gis analysis'
p338
I7
sS'joomla'
p339
I6
sS'product innovation'
p340
I7
sS'ppc'
p341
I16
sS'soc'
p342
I9
sS'intelligence analysis'
p343
I20
sS'dashboards'
p344
I8
sS'haskell'
p345
I15
sS'environmental policy'
p346
I18
sS'jdbc'
p347
I8
sS'gis'
p348
I112
sS'marketing mix modeling'
p349
I8
sS'sustainable development'
p350
I10
sS'combinatorics'
p351
I7
sS'digital signal processors'
p352
I34
sS'wordpress'
p353
I6
sS'astrophysics'
p354
I46
sS'music'
p355
I9
sS'fpga'
p356
I19
sS'wireless'
p357
I36
sS'job analysis'
p358
I6
sS'human factors'
p359
I6
sS'network engineering'
p360
I6
sS'data architecture'
p361
I13
sS'electrical engineering'
p362
I40
sS'organizational effectiveness'
p363
I8
sS'powershell'
p364
I6
sS'higher education'
p365
I104
sS'health insurance'
p366
I11
sS'theoretical physics'
p367
I33
sS'simulations'
p368
I506
sS'accounting'
p369
I29
sS'economic research'
p370
I27
sS'excel'
p371
I103
sS'sybase'
p372
I6
sS'computer science'
p373
I310
sS'cheminformatics'
p374
I6
sS'jenkins'
p375
I13
sS'social media analytics'
p376
I9
sS'toad'
p377
I6
sS'customer retention'
p378
I10
sS'sql'
p379
I2607
sS'neuroscience'
p380
I85
sS'disaster recovery'
p381
I13
sS'cloud computing'
p382
I205
sS'business strategy'
p383
I230
sS'exploratory data analysis'
p384
I30
sS'nlp'
p385
I79
sS'chaid'
p386
I6
sS'interest rate derivatives'
p387
I10
sS'web 2.0'
p388
I6
sS'technical leadership'
p389
I28
sS'flask'
p390
I23
sS'java enterprise edition'
p391
I52
sS'scientific visualization'
p392
I12
sS'drug discovery'
p393
I30
sS'clinical decision support'
p394
I6
sS'nonlinear optimization'
p395
I7
sS'cloudera impala'
p396
I9
sS'biopharmaceuticals'
p397
I6
sS'erp'
p398
I35
sS'object recognition'
p399
I8
sS'support vector machine svm'
p400
I6
sS'solver'
p401
I6
sS'civil engineering'
p402
I20
sS'real estate'
p403
I8
sS'pmp'
p404
I21
sS'global health'
p405
I7
sS'speech processing'
p406
I6
sS'microarray analysis'
p407
I15
sS'data-driven decision making'
p408
I7
sS'21 cfr part 11'
p409
I6
sS'pmo'
p410
I15
sS'hdfs'
p411
I9
sS'ssis'
p412
I45
sS'creative writing'
p413
I13
sS'professional services'
p414
I18
sS'transportation'
p415
I9
sS'geostatistics'
p416
I6
sS'french'
p417
I23
sS'water'
p418
I10
sS'apache'
p419
I22
sS'software development'
p420
I509
sS'special education'
p421
I6
sS'vb.net'
p422
I28
sS'thin films'
p423
I20
sS'semiconductor device'
p424
I7
sS'environmental consulting'
p425
I7
sS'healthcare analytics'
p426
I18
sS'test driven development'
p427
I14
sS'account management'
p428
I22
sS'perl'
p429
I271
sS'crowdsourcing'
p430
I9
sS'visio'
p431
I76
sS'data management'
p432
I147
sS'neurophysiology'
p433
I8
sS'cplex'
p434
I41
sS'business process'
p435
I58
sS'investment strategies'
p436
I6
sS'geophysics'
p437
I15
sS'oop'
p438
I38
sS'data processing'
p439
I8
sS'sap bi'
p440
I12
sS'functional programming'
p441
I13
sS'machine learning'
p442
I2493
sS'reverse engineering'
p443
I6
sS'hidden markov models'
p444
I12
sS'cluster analysis'
p445
I99
sS'sap bw'
p446
I11
sS'educational technology'
p447
I9
sS'web content'
p448
I7
sS'spc'
p449
I14
sS'random forest'
p450
I10
sS'business modeling'
p451
I7
sS'simulink'
p452
I62
sS'pyspark'
p453
I7
sS'technical recruiting'
p454
I7
sS'computer vision'
p455
I163
sS'social psychology'
p456
I6
sS'wireless sensor networks'
p457
I6
sS'html 5'
p458
I38
sS'public health'
p459
I49
sS'computational biology'
p460
I105
sS'sustainability'
p461
I23
sS'political science'
p462
I18
sS'data wrangling'
p463
I22
sS'data'
p464
I13
sS'commodity'
p465
I11
sS'object oriented design'
p466
I72
sS'purification'
p467
I9
sS'arena simulation software'
p468
I29
sS'catastrophe modeling'
p469
I8
sS'tutoring'
p470
I34
sS'sd'
p471
I6
sS'soa'
p472
I60
sS'oncology'
p473
I20
sS'sql server reporting services ssrs'
p474
I6
sS'data warehouse architecture'
p475
I17
sS'consulting'
p476
I207
sS'quality control'
p477
I12
sS'heat transfer'
p478
I14
sS'credit risk'
p479
I37
sS'arduino'
p480
I15
sS'process engineering'
p481
I33
sS'product marketing'
p482
I45
sS'control theory'
p483
I10
sS'digital media'
p484
I25
sS'coaching'
p485
I24
sS'microstrategy'
p486
I16
sS'policy'
p487
I46
sS'survey research'
p488
I44
sS'finance'
p489
I104
sS'sap r 3'
p490
I9
sS'user interface design'
p491
I13
sS'qualitative & quantitative research methodologies'
p492
I6
sS'analytical skills'
p493
I87
sS'innovation management'
p494
I11
sS'cognition'
p495
I13
sS'logistic regression'
p496
I247
sS'renewable energy'
p497
I36
sS'linear programming'
p498
I61
sS'feature extraction'
p499
I9
sS'postgis'
p500
I10
sS'air force'
p501
I7
sS'mahout'
p502
I37
sS'computer hardware'
p503
I7
sS'hibernate'
p504
I23
sS'embedded software'
p505
I23
sS'statistical signal processing'
p506
I16
sS'cissp'
p507
I6
sS'cart'
p508
I6
sS'business analytics'
p509
I230
sS'ajax'
p510
I37
sS'git'
p511
I6
sS'biophysics'
p512
I31
sS'abaqus'
p513
I7
sS'training'
p514
I100
sS'programming'
p515
I777
sS'business objects'
p516
I47
sS'website development'
p517
I13
sS'ansys'
p518
I24
sS'rt-pcr'
p519
I8
sS'proofreading'
p520
I7
sS'spanish'
p521
I65
sS'mathematical modeling'
p522
I725
sS'nmr spectroscopy'
p523
I7
sS'image processing'
p524
I241
sS'fmri'
p525
I23
sS'enterprise architecture'
p526
I106
sS'multivariable calculus'
p527
I7
sS'content strategy'
p528
I14
sS'scanning electron microscopy'
p529
I23
sS'mems'
p530
I8
sS'semantics'
p531
I6
sS'lucene'
p532
I19
sS'organizational leadership'
p533
I8
sS'r'
I2743
sS'start-ups'
p534
I185
sS'ant'
p535
I7
sS'western blotting'
p536
I27
sS'sas'
p537
I1133
sS'sap'
p538
I35
sS'cassandra'
p539
I41
sS'pcb design'
p540
I7
sS'comsol'
p541
I13
sS'microcontrollers'
p542
I18
sS'wcf'
p543
I7
sS'apache hive'
p544
I8
sS'erdas imagine'
p545
I6
sS'competitive intelligence'
p546
I36
sS'greenplum'
p547
I17
sS'protein chemistry'
p548
I27
sS'latex'
p549
I929
sS'design patterns'
p550
I22
sS'system testing'
p551
I8
sS'sql server'
p552
I27
sS'mutual funds'
p553
I7
sS'microsoft word'
p554
I314
sS'financial engineering'
p555
I18
sS'apache storm'
p556
I19
sS'sas certified base programmer'
p557
I36
sS'survival analysis'
p558
I71
sS'german'
p559
I11
sS'visual c++'
p560
I15
sS'email marketing'
p561
I39
sS'health economics'
p562
I21
sS'biometrics'
p563
I10
sS'geography'
p564
I11
sS'xml'
p565
I196
sS'web scraping'
p566
I74
sS'android development'
p567
I34
sS'audio engineering'
p568
I6
sS'fda'
p569
I13
sS'data modeling'
p570
I314
sS'stata'
p571
I8
sS'risk analysis'
p572
I23
sS'computational physics'
p573
I49
sS'systems biology'
p574
I37
sS'amazon web services aws'
p575
I232
sS'amazon ec2'
p576
I23
sS'c++'
p577
I1294
sS'statistical tools'
p578
I9
sS'community organizing'
p579
I7
sS'google api'
p580
I6
sS'quality improvement'
p581
I6
sS'economic development'
p582
I13
sS'lean startup'
p583
I7
sS'quantitative finance'
p584
I89
sS'corporate finance'
p585
I47
sS'programming languages'
p586
I8
sS'outsourcing'
p587
I11
sS'big data analytics'
p588
I146
sS'structural bioinformatics'
p589
I6
sS'mandarin'
p590
I28
sS'regulatory affairs'
p591
I8
sS'jboss application server'
p592
I6
sS'electronic trading'
p593
I14
sS'social network analysis'
p594
I63
sS'combinatorial optimization'
p595
I11
sS'data structures'
p596
I91
sS'transcad'
p597
I6
sS'spark'
p598
I181
sS'data visualization'
p599
I494
sS'solidworks'
p600
I26
sS'microsoft visual studio c++'
p601
I7
sS'probability theory'
p602
I33
sS'optimal control'
p603
I9
sS'forecasting'
p604
I164
sS'cancer'
p605
I21
sS'characterization'
p606
I59
sS'robotics'
p607
I46
sS'grants'
p608
I18
sS'data warehousing'
p609
I235
sS'data mining'
p610
I1969
sS'web crawling'
p611
I10
sS'qlikview'
p612
I34
sS'university teaching'
p613
I90
sS'statistical data analysis'
p614
I326
sS'powerpivot'
p615
I6
sS'visual analytics'
p616
I9
sS'molecular biology'
p617
I120
sS'qlikview development'
p618
I8
sS'spotfire'
p619
I21
sS'sales operations'
p620
I7
sS'ruby'
p621
I79
sS'hedis'
p622
I6
sS'college teaching'
p623
I8
sS'network optimization'
p624
I6
sS'decision modeling'
p625
I7
sS'go-to-market strategy'
p626
I13
sS'editorial'
p627
I6
sS'application development'
p628
I6
sS'ios development'
p629
I8
sS'cluster'
p630
I6
sS'cobol'
p631
I6
sS'program management'
p632
I273
sS'servlets'
p633
I14
sS'structural biology'
p634
I8
sS'microarray'
p635
I6
sS'html'
p636
I439
sS'reliability engineering'
p637
I6
sS'root cause analysis'
p638
I12
sS'pro engineer'
p639
I12
sS'in vivo'
p640
I9
sS'wpf'
p641
I9
sS'awesomeness'
p642
I7
sS'consumer behaviour'
p643
I16
sS'environmental engineering'
p644
I12
sS'applied probability'
p645
I15
sS'digital marketing'
p646
I91
sS'assembly language'
p647
I8
sS'nosql'
p648
I112
sS'performance testing'
p649
I7
sS'volunteer management'
p650
I14
sS'rest'
p651
I51
sS'spss modeler'
p652
I10
sS'sales presentations'
p653
I6
sS'digital analytics'
p654
I6
sS'change management'
p655
I49
sS'autocad'
p656
I83
sS'bayesian statistics'
p657
I6
sS'd3.js'
p658
I35
sS'subversion'
p659
I38
sS'omniture'
p660
I36
sS'salesforce.com administration'
p661
I6
sS'prezi'
p662
I6
sS'microsoft excel'
p663
I1046
sS'windows server'
p664
I16
sS'amazon s3'
p665
I10
sS'information visualization'
p666
I17
sS'military experience'
p667
I7
sS'vacuum'
p668
I6
sS'client presentation'
p669
I8
sS'mathematics education'
p670
I14
sS'pharmacovigilance'
p671
I6
sS'customer experience'
p672
I6
sS'mathematical biology'
p673
I6
sS'microsoft office'
p674
I1050
sS'statistical inference'
p675
I25
sS'b2b marketing'
p676
I10
sS'imagej'
p677
I9
sS'venture capital'
p678
I25
sS'financial markets'
p679
I22
sS'public relations'
p680
I34
sS'information retrieval'
p681
I127
sS'software design'
p682
I86
sS'mass spectrometry'
p683
I18
sS'military operations'
p684
I16
sS'market risk'
p685
I18
sS'genetics'
p686
I64
sS'redis'
p687
I22
sS'equity research'
p688
I26
sS'mathcad'
p689
I7
sS'metabolomics'
p690
I6
sS'nmr'
p691
I12
sS'microsoft crm'
p692
I6
sS'nvivo'
p693
I7
sS'leadership'
p694
I582
sS'biomedical engineering'
p695
I83
sS'rdbms'
p696
I12
sS'organic chemistry'
p697
I11
sS'spss'
p698
I541
sS'medicare'
p699
I12
sS'cuda'
p700
I29
sS'cyber-security'
p701
I10
sS'outlook'
p702
I16
sS'fundraising'
p703
I38
sS'communication'
p704
I38
sS'stochastic calculus'
p705
I23
sS'due diligence'
p706
I23
sS'mathematical physics'
p707
I9
sS'transportation engineering'
p708
I11
sS'ehr'
p709
I10
sS'opengl'
p710
I19
sS'strategic consulting'
p711
I13
sS'emacs'
p712
I10
sS'data munging'
p713
I13
sS'growth hacking'
p714
I11
sS'graphical models'
p715
I8
sS'apis'
p716
I29
sS'knowledge representation'
p717
I6
sS'chemical engineering'
p718
I16
sS'computer security'
p719
I18
sS'fraud'
p720
I12
sS'illustrator'
p721
I24
sS'sap netweaver'
p722
I8
sS'ontologies'
p723
I11
sS'amazon redshift'
p724
I28
sS'personalization'
p725
I8
sS'sales'
p726
I61
sS'objective-c'
p727
I38
sS'ssrs'
p728
I49
sS'high performance computing'
p729
I119
sS'relational databases'
p730
I41
sS'politics'
p731
I22
sS'nanofabrication'
p732
I16
sS'hospitals'
p733
I11
sS'biochemistry'
p734
I71
sS'computational chemistry'
p735
I20
sS'storage'
p736
I7
sS'equity derivatives'
p737
I19
sS'database development'
p738
I11
sS'mathematics'
p739
I209
sS'ggplot'
p740
I7
sS'cascading style sheets css'
p741
I16
sS'quantum chemistry'
p742
I7
sS'sap implementation'
p743
I7
sS'parallel programming'
p744
I25
sS'wifi'
p745
I7
sS'netlogo'
p746
I7
sS'interaction design'
p747
I6
sS'qualitative research'
p748
I185
sS'chinese'
p749
I19
sS'hedge funds'
p750
I39
sS'design experiments'
p751
I96
sS'user experience design'
p752
I8
sS'microsoft sql server'
p753
I331
sS'agile methodologies'
p754
I275
sS'materials science'
p755
I60
sS'mpi'
p756
I38
sS'government contracting'
p757
I6
sS'mergers & acquisitions'
p758
I26
sS'infectious diseases'
p759
I10
sS'employee engagement'
p760
I11
sS'bioconductor'
p761
I7
sS'lisp'
p762
I11
sS'mapreduce'
p763
I343
sS'common lisp'
p764
I10
sS'lecturing'
p765
I12
sS'systems analysis'
p766
I25
sS'information design'
p767
I6
sS'batch processing'
p768
I8
sS'academic writing'
p769
I12
sS'statistical consulting'
p770
I35
sS'statistical arbitrage'
p771
I8
sS'microbiology'
p772
I12
sS'large-scale data analysis'
p773
I30
sS'segmentation'
p774
I193
sS'machine vision'
p775
I10
sS'written & oral presentation skills'
p776
I13
sS'b2b'
p777
I14
sS'arena'
p778
I9
sS'search'
p779
I22
sS'computational neuroscience'
p780
I22
sS'advertising'
p781
I33
sS'google adwords'
p782
I28
sS'qualtrics'
p783
I12
sS'semiconductors'
p784
I50
sS'political campaigns'
p785
I8
sS'vim'
p786
I17
sS'graphic design'
p787
I21
sS'vis'
p788
I13
sS'mobile advertising'
p789
I10
sS'esri'
p790
I12
sS'web analytics'
p791
I155
sS'structured products'
p792
I13
sS'petroleum'
p793
I7
sS'governance'
p794
I14
sS'quantum mechanics'
p795
I11
sS'requirements management'
p796
I9
sS'grant writing'
p797
I62
sS'genetic algorithms'
p798
I27
sS'organization'
p799
I6
sS'qpcr'
p800
I17
sS'science'
p801
I361
sS'primary research'
p802
I7
sS'mobile applications'
p803
I69
sS'budgets'
p804
I33
sS'customer acquisition'
p805
I13
sS'visual basic'
p806
I110
sS'equities'
p807
I70
sS'sql server management studio'
p808
I21
sS'mvc'
p809
I6
sS'algorithm development'
p810
I27
sS'asset allocation'
p811
I7
sS'css'
p812
I235
sS'algebra'
p813
I6
sS'requirements analysis'
p814
I201
sS'entrepreneurship'
p815
I150
sS'partial differential equations'
p816
I19
sS'bioinformatics'
p817
I205
sS'extract transform load etl'
p818
I29
sS'metrology'
p819
I6
sS'a'
I103
sS'github'
p820
I105
sS'remote sensing'
p821
I39
sS'documentation'
p822
I7
sS'mathematica'
p823
I362
sS'django'
p824
I51
sS'embedded systems'
p825
I75
sS'nltk'
p826
I32
sS'photoshop'
p827
I113
sS'healthcare industry'
p828
I6
sS'data acquisition'
p829
I11
sS'strategic partnerships'
p830
I49
sS'radar'
p831
I8
sS'panel data analysis'
p832
I8
sS'evolutionary biology'
p833
I8
sS'anomaly detection'
p834
I19
sS'pcr'
p835
I47
sS'monte carlo simulation'
p836
I221
sS'supply chain management'
p837
I64
sS'user interface'
p838
I6
sS'fraud detection'
p839
I26
sS'pca'
p840
I7
sS'project engineering'
p841
I8
sS'scipy'
p842
I86
sS'staff development'
p843
I8
sS'business development'
p844
I139
sVbayesian method
p845
I35
sS'communication skills'
p846
I11
sS'knowledge management'
p847
I21
sS'energy'
p848
I33
sS'decision support'
p849
I12
sS'ms excel pivot tables'
p850
I27
sS'environmental awareness'
p851
I21
sS'principal component analysis'
p852
I33
sS'immunohistochemistry'
p853
I22
sS'insurance'
p854
I22
sS'collaborative problem solving'
p855
I9
sS'fluid dynamics'
p856
I22
sS'psychology'
p857
I46
sS'research'
p858
I1432
sS'dimensionality reduction'
p859
I14
sS'sdlc'
p860
I182
sS'business requirements'
p861
I11
sS'microeconomics'
p862
I23
sS'asp'
p863
I9
sS'algorithm design'
p864
I80
sS'mathematical analysis'
p865
I15
sS'bash'
p866
I100
sS'hedging'
p867
I8
sS'drupal'
p868
I11
sS'mobile devices'
p869
I51
sS'clinical data management'
p870
I20
sS'cdma'
p871
I10
sS'rapid prototyping'
p872
I14
sS'probability'
p873
I59
sS'organic synthesis'
p874
I6
sS'transcriptomics'
p875
I6
sS'marketing strategy'
p876
I142
sS'c++ stl'
p877
I22
sS'financial reporting'
p878
I23
sS't-sql'
p879
I46
sS'maple'
p880
I27
sS'interviews'
p881
I9
sS'trading systems'
p882
I29
sS'weblogic'
p883
I6
sS'gpu'
p884
I12
sS'scheme'
p885
I9
sS'gps'
p886
I14
sS'credit derivatives'
p887
I15
sS'apache spark'
p888
I468
sS'instructional design'
p889
I13
sS'translation'
p890
I8
sS'jquery'
p891
I117
sS'business intelligence tools'
p892
I14
sS'quantitative analytics'
p893
I335
sS'stl'
p894
I7
sS'disease management'
p895
I7
sS'solution architecture'
p896
I60
sS'fluorescence microscopy'
p897
I32
sS'discrete mathematics'
p898
I11
sS'game theory'
p899
I27
sS'debugging'
p900
I29
sS'ni labview'
p901
I17
sS'early-stage startups'
p902
I8
sS'3d printing'
p903
I7
sS'social entrepreneurship'
p904
I6
sS'confocal microscopy'
p905
I25
sS'amazon web services'
p906
I8
sS'data center'
p907
I22
sS'predictive modeling'
p908
I653
sS'complex systems'
p909
I8
sS'test planning'
p910
I7
sS'numerical linear algebra'
p911
I8
sS'jsp'
p912
I45
sS'windows'
p913
I112
sS'convex optimization'
p914
I15
sS'excel vba'
p915
I7
sS'linear regression'
p916
I157
sS'h2o'
p917
I9
sS'theano'
p918
I11
sS'physics'
p919
I372
sS'molecular cloning'
p920
I26
sS'international relations'
p921
I39
sS'operations management'
p922
I52
sS'grid computing'
p923
I11
sS'spring mvc'
p924
I6
sS'vulnerability assessment'
p925
I6
sS'network science'
p926
I6
sS'geomatics'
p927
I9
sS'cell'
p928
I20
sS'sql db2'
p929
I6
sS'business process management'
p930
I7
sS'multi-channel marketing'
p931
I28
sS'asset management'
p932
I16
sS'geospatial intelligence'
p933
I6
sS'development economics'
p934
I6
sS'risk analytics'
p935
I22
sS'physical chemistry'
p936
I15
sS'apache kafka'
p937
I39
sS'recommender systems'
p938
I90
sS'immunoassays'
p939
I6
sS'talent management'
p940
I10
sS'animal models'
p941
I11
sS'oracle sql developer'
p942
I24
sS'finite element analysis'
p943
I53
sS'laser physics'
p944
I10
sS'blogging'
p945
I30
sS'mac os x'
p946
I18
sS'geospatial modeling'
p947
I8
sS'banking'
p948
I20
sS'hplc'
p949
I18
sS'cro'
p950
I7
sS'information architecture'
p951
I18
sS'intelligence'
p952
I15
sS'eviews'
p953
I12
sS'proposal writing'
p954
I57
sS'defense'
p955
I19
sS'seo'
p956
I45
sS'sem'
p957
I43
sS'arm'
p958
I6
sS'direct mail'
p959
I8
sS'organization skills'
p960
I6
sS'xslt'
p961
I10
sS'javascript'
p962
I14
sS'alteryx'
p963
I20
sS'scalability'
p964
I78
sS'molecular genetics'
p965
I9
sS'mentoring'
p966
I29
sS'minitab'
p967
I121
sS'water quality'
p968
I10
sS'solr'
p969
I32
sS'j2ee'
p970
I8
sS'customer analytics'
p971
I13
sS'rna isolation'
p972
I6
sS'research design'
p973
I99
sS'attribution modeling'
p974
I9
sS'reinforcement learning'
p975
I15
sS'linux'
p976
I760
sS'simulation modeling'
p977
I8
sS'java'
p978
I6
sS'publishing'
p979
I6
sS'functional genomics'
p980
I7
sS'strategy'
p981
I475
sS'commodity markets'
p982
I7
sS'options'
p983
I36
sS'mixed model'
p984
I7
sS'pricing strategy'
p985
I18
sS'asset managment'
p986
I9
sS'pl'
p987
I131
sS'dashboarding'
p988
I7
sS'customer satisfaction'
p989
I10
sS'business analysis'
p990
I469
sS'amazon mechanical turk'
p991
I6
sS'gas'
p992
I6
sS'foreign languages'
p993
I8
sS'fuzzy logic'
p994
I12
sS'econometric modeling'
p995
I24
sS'experimental physics'
p996
I24
sS'optimization'
p997
I461
sS'originlab'
p998
I6
sS'lingo'
p999
I10
sS'trend analysis'
p1000
I8
sS'avro'
p1001
I7
sS'operational excellence'
p1002
I7
sS'adobe photoshop'
p1003
I8
sS'geographic information systems gis'
p1004
I17
sS'integer programming'
p1005
I10
sS'customer segmentation strategy'
p1006
I10
sS'hadoop'
p1007
I7
sS'coffeescript'
p1008
I6
sS'financial structuring'
p1009
I6
sS'enterprise search'
p1010
I6
sS'medicaid'
p1011
I6
sS'bayesian inference'
p1012
I29
sS'immunofluorescence'
p1013
I9
sS'model selection'
p1014
I6
sS'process development'
p1015
I6
sS'pattern recognition'
p1016
I240
sS'international development'
p1017
I26
sS'analysis'
p1018
I968
sS'financial accounting'
p1019
I11
sS'system architecture'
p1020
I58
sS'business process re-engineering'
p1021
I7
sS'docker'
p1022
I23
sS'chemistry'
p1023
I52
sS'gsm'
p1024
I9
sS'sap hana'
p1025
I10
sS'model validation'
p1026
I9
sS'trading strategies'
p1027
I12
sS'api development'
p1028
I7
sS'mysql'
p1029
I574
sS'biomarker discovery'
p1030
I8
sS'conservation issues'
p1031
I6
sS'microsoft powerpoint'
p1032
I6
sS'anova'
p1033
I27
sS'nuclear physics'
p1034
I9
sS'gams'
p1035
I26
sS'adobe creative suite'
p1036
I39
sS'kpi dashboards'
p1037
I10
sS'experimental design'
p1038
I165
sS'product design'
p1039
I20
sS'causal inference'
p1040
I11
sS'aerospace'
p1041
I15
sS'performance tuning'
p1042
I18
sS'distributed algorithms'
p1043
I6
sS'outcomes research'
p1044
I13
sS'regular expressions'
p1045
I22
sS'polymers'
p1046
I8
sS'cisco technologies'
p1047
I7
sS'semantic technologies'
p1048
I9
sS'eeg'
p1049
I11
sS'ecology'
p1050
I20
sS'spring'
p1051
I17
sS'series 7'
p1052
I6
sS'pricing'
p1053
I29
sS'unix operating systems'
p1054
I6
sS'teradata sql'
p1055
I17
sS'scala'
p1056
I241
sS'team building'
p1057
I81
sS'saas'
p1058
I94
sS'integration'
p1059
I186
sS'web services'
p1060
I108
sS'innovation'
p1061
I20
sS'teradata'
p1062
I83
sS'process optimization'
p1063
I16
sS'informatica'
p1064
I35
sS'processing'
p1065
I8
sS'medical imaging'
p1066
I42
sS'biomarkers'
p1067
I10
sS'informatics'
p1068
I37
sS'rapidminer'
p1069
I30
sS'simulation'
p1070
I29
sS'idl'
p1071
I36
sS'apache pig'
p1072
I244
sS'executive management'
p1073
I11
sS'shiny'
p1074
I27
sS'crystal ball'
p1075
I7
sS'neural networks'
p1076
I175
sS'servers'
p1077
I8
sS'solid mechanics'
p1078
I6
sS'troubleshooting'
p1079
I31
sS'sports'
p1080
I7
sS'literature reviews'
p1081
I27
sS'network theory'
p1082
I6
sS'clustering'
p1083
I17
sS'statistics'
p1084
I2300
sS'markov chain monte carlo'
p1085
I22
sS'vbscript'
p1086
I6
sS'demand forecasting'
p1087
I15
sS'statistica'
p1088
I8
sS'heroku'
p1089
I6
sS'ruby rails'
p1090
I72
sS'device drivers'
p1091
I7
sS'linq'
p1092
I7
sS'health services research'
p1093
I7
sS'groovy'
p1094
I10
sS'life sciences'
p1095
I90
sS'dynamic programming'
p1096
I11
sS'international economics'
p1097
I7
sS'uv'
p1098
I12
sS'labview'
p1099
I35
sS'credit scoring'
p1100
I15
sS'spectroscopy'
p1101
I81
sS'human resources'
p1102
I11
sS'engineering'
p1103
I121
sS'data governance'
p1104
I13
sS'gephi'
p1105
I16
sS'winbugs'
p1106
I12
sS'microsoft technologies'
p1107
I7
sS'agent-based modeling'
p1108
I16
sS'economic modeling'
p1109
I19
sS'data collection'
p1110
I45
sS'mplus'
p1111
I7
sS'pandas'
p1112
I75
sS'product lifecycle management'
p1113
I8
sS'financial modeling'
p1114
I281
sS'mongodb'
p1115
I226
sS'scrum'
p1116
I97
sS'process modeling'
p1117
I7
sS'sql tuning'
p1118
I12
sS'splunk'
p1119
I22
sS'pivot tables'
p1120
I10
sS'emerging markets'
p1121
I17
sS'svm'
p1122
I31
sS'fluorescence'
p1123
I7
sS'unit testing'
p1124
I8
sS'organizational development'
p1125
I17
sS'information assurance'
p1126
I6
sS'focus groups'
p1127
I10
sS'oracle'
p1128
I205
sS'industrial organization'
p1129
I6
sS'edc'
p1130
I7
sS'parallel algorithms'
p1131
I10
sS'sentiment analysis'
p1132
I40
sS'ggplot2'
p1133
I7
sS'go'
p1134
I9
sS'survey methodology'
p1135
I10
sS'mri'
p1136
I17
sS'alternative investments'
p1137
I13
sS'digital imaging'
p1138
I8
sS'behavioral targeting'
p1139
I17
sS'quality assurance'
p1140
I39
sS'master data management'
p1141
I16
sS'junit'
p1142
I9
sS'semiconductor industry'
p1143
I10
sS'automotive'
p1144
I6
sS'facebook'
p1145
I18
sS'nanomaterials'
p1146
I25
sS'node.js'
p1147
I47
sS'non-profits'
p1148
I26
sS'mercurial'
p1149
I9
sS'risk modeling'
p1150
I9
sS'hive'
p1151
I439
sS'olap'
p1152
I22
sS'penetration testing'
p1153
I6
sS'optics'
p1154
I48
sS'predictive analytics'
p1155
I556
sS'logistics'
p1156
I22
sS'sas base'
p1157
I39
sS'cfd'
p1158
I26
sS'data analysis'
p1159
I2946
sS'elisa'
p1160
I9
sS'vmware'
p1161
I10
sS'solution selling'
p1162
I7
sS'apache zookeeper'
p1163
I9
sS'datastage'
p1164
I6
sS'clinical development'
p1165
I11
sS'access'
p1166
I178
sS'distributed computing'
p1167
I7
sS'stochastic processes'
p1168
I38
sS'matplotlib'
p1169
I46
sS'customer analysis'
p1170
I58
sS'octave'
p1171
I57
sS'ubuntu'
p1172
I26
sS'openmp'
p1173
I12
sS'vba'
p1174
I306
sS'big data'
p1175
I6
sS'data cleaning'
p1176
I25
sS'consumer insights'
p1177
I8
sS'test automation'
p1178
I18
sS'rdf'
p1179
I11
sS'product launch'
p1180
I10
sS'windows azure'
p1181
I20
sS'microsoft access'
p1182
I36
sS'cad'
p1183
I21
sS'patents'
p1184
I11
sS'probabilistic models'
p1185
I24
sS'clinical study design'
p1186
I13
sS'managerial finance'
p1187
I7
sS'earth science'
p1188
I6
sS'social media'
p1189
I221
sS'mllib'
p1190
I6
sS'clinical research'
p1191
I69
sS'performance management'
p1192
I16
sS'iis'
p1193
I11
sS'conjoint analysis'
p1194
I6
sS'project management'
p1195
I652
sS'applied mathematics'
p1196
I163
sS'erwin'
p1197
I7
sS'red hat linux'
p1198
I7
sS'personalized medicine'
p1199
I6
sS'speech recognition'
p1200
I15
sS'sqlite'
p1201
I30
sS'parallel computing'
p1202
I95
sS'reporting & analysis'
p1203
I14
sS'equity trading'
p1204
I7
sS'semantic web'
p1205
I27
sS'cognitive science'
p1206
I17
sS'afm'
p1207
I27
sS'sip'
p1208
I6
sS'power bi'
p1209
I11
sS'tableau'
p1210
I612
sS'visual basic applications vba'
p1211
I24
sS'market research'
p1212
I272
sS'gcp'
p1213
I7
sS'lamp'
p1214
I11
sS'c++ language'
p1215
I14
sS'hypothesis testing'
p1216
I40
sS'graph databases'
p1217
I11
sS'healthcare information technology'
p1218
I41
sS'agile & waterfall methodologies'
p1219
I7
sS'philosophy'
p1220
I7
sS'leadership development'
p1221
I26
sS'multivariate testing'
p1222
I10
sS'computational mathematics'
p1223
I9
sS'technical training'
p1224
I9
sS'market making'
p1225
I6
sS'facebook api'
p1226
I6
sS'google analytics'
p1227
I108
sS'healthcare'
p1228
I74
sS'visual c'
p1229
I12
sS'jira'
p1230
I33
sS'observational astronomy'
p1231
I9
sS'strategic leadership'
p1232
I8
sS'marketing research'
p1233
I80
sS'hbase'
p1234
I68
sS'application architecture'
p1235
I7
sS'oracle pl'
p1236
I11
sS'linguistics'
p1237
I14
sS'bloomberg terminal'
p1238
I16
sS'scientific analysis'
p1239
I7
sS'linux system administration'
p1240
I6
sS'multithreading'
p1241
I13
sS'customer relationship management crm'
p1242
I30
sS'python'
p1243
I6
sS'semantic analysis'
p1244
I7
sS'private equity'
p1245
I24
sS'fx options'
p1246
I8
sS'spatial analysis'
p1247
I40
sS'.net'
p1248
I93
sS'user acceptance testing'
p1249
I8
sS'data analytics'
p1250
I102
sS'basel ii'
p1251
I6
sS'information extraction'
p1252
I22
sS'enterprise software'
p1253
I119
sS'ec2'
p1254
I6
sS'cell biology'
p1255
I45
sS'ssas'
p1256
I9
sS'questionnaire design'
p1257
I11
sS'scientific computing'
p1258
I243
sS'vendor management'
p1259
I57
sS'electronics'
p1260
I39
sS'unsupervised learning'
p1261
I30
sS'molecular modeling'
p1262
I17
sS'factor analysis'
p1263
I19
sS'hl7'
p1264
I10
sS'data quality'
p1265
I35
sS'foreign policy'
p1266
I8
sS'networking'
p1267
I50
sS'customer relations'
p1268
I9
sS'knime'
p1269
I11
sS'open source software'
p1270
I10
sS'financial risk management'
p1271
I6
sS'traffic engineering'
p1272
I6
sS'elasticsearch'
p1273
I41
sS'3d visualization'
p1274
I9
sS'lte'
p1275
I12
sS'retail'
p1276
I26
sS'scalding'
p1277
I7
sS'healthcare consulting'
p1278
I13
sS'indesign'
p1279
I20
sS'tortoise svn'
p1280
I10
sS'structural analysis'
p1281
I9
sS'marketing management'
p1282
I10
sS'management'
p1283
I599
sS'weka'
p1284
I99
sS'project portfolio management'
p1285
I16
sS'gurobi'
p1286
I6
sS'advanced analytics'
p1287
I7
sS'software documentation'
p1288
I35
sS'flume'
p1289
I16
sS'mathematical programming'
p1290
I28
sS'scientific writing'
p1291
I120
sS'discrete event simulation'
p1292
I16
sS'credit cards'
p1293
I12
sS'linear algebra'
p1294
I53
sS'data engineering'
p1295
I17
sS'new business development'
p1296
I33
sS'impala'
p1297
I11
sS'litigation support'
p1298
I8
sS'management consulting'
p1299
I132
sS'analytical chemistry'
p1300
I12
sS'competitive analysis'
p1301
I118
sS'cosmology'
p1302
I8
sS'instrumentation'
p1303
I9
sS'asp.net'
p1304
I45
sS'pspice'
p1305
I14
sS'vertica'
p1306
I23
sS'ms project'
p1307
I40
sS'failure analysis'
p1308
I11
sS'soap'
p1309
I16
sS'calculus'
p1310
I25
sS'collaboration'
p1311
I8
sS'aws'
p1312
I10
sS'financial risk'
p1313
I39
sS'awk'
p1314
I14
sS'biomedical informatics'
p1315
I6
sS'oozie'
p1316
I12
sS'technical writing'
p1317
I118
sS'software engineering'
p1318
I312
sS'smart grid'
p1319
I8
sS'protein expression'
p1320
I14
sS'databases'
p1321
I629
sS'investment management'
p1322
I6
sS'aerospace engineering'
p1323
I7
sS'pre-sales'
p1324
I21
sS'adult education'
p1325
I6
sS'it management'
p1326
I30
sS'sales management'
p1327
I11
sS'envi'
p1328
I7
sS'ms office suite'
p1329
I9
sS'software development life cycle sdlc'
p1330
I39
sS'pharmacology'
p1331
I8
sS'bonds'
p1332
I7
sS'photography'
p1333
I19
sS'neuroimaging'
p1334
I21
sS'computational modeling'
p1335
I43
sS'db2'
p1336
I29
sS'credit analysis'
p1337
I8
sS'cognos'
p1338
I33
sS'ftir'
p1339
I7
sS'climate change'
p1340
I27
sS'presentation skills'
p1341
I15
sS'game design'
p1342
I7
sS'system administration'
p1343
I25
sS'integrated marketing'
p1344
I21
sS'demand generation'
p1345
I8
sS'information management'
p1346
I16
sS'lua'
p1347
I8
sS'assay development'
p1348
I18
sS'verilog'
p1349
I22
sS'copywriting'
p1350
I9
sS'wireless networking'
p1351
I6
sS'keynote'
p1352
I6
sS'database design'
p1353
I123
sS'technical presentations'
p1354
I24
sS'e-learning'
p1355
I17
sS'swift'
p1356
I9
sS'hydrology'
p1357
I9
sS'software service saas'
p1358
I13
sS'budgeting'
p1359
I12
sS'presentations'
p1360
I23
sS'sas programming'
p1361
I200
sS'research development r&d'
p1362
I8
sS'core java'
p1363
I56
sVbayesian statistic
p1364
I171
sS'etl'
p1365
I158
sS'image segmentation'
p1366
I17
sS'public speaking'
p1367
I493
sS'data science'
p1368
I939
sS'.net framework'
p1369
I7
sS'thought leadership'
p1370
I12
sS'business process improvement'
p1371
I83
sS'mechanical engineering'
p1372
I24
sS'asp.net mvc'
p1373
I12
sS'json'
p1374
I49
sS'secondary research'
p1375
I6
sS'teamwork'
p1376
I163
sS'statistical learning'
p1377
I12
sS'sqoop'
p1378
I33
sS'marketing communications'
p1379
I26
sS'c'
I11
sS'capital iq'
p1380
I6
sS'hardware diagnostics'
p1381
I7
sS'software quality assurance'
p1382
I11
sS'cvs'
p1383
I6
sS'stem cells'
p1384
I7
sS'crystal reports'
p1385
I18
sS'cvd'
p1386
I7
sS'scientific programming'
p1387
I8
sS'project planning'
p1388
I79
sS'lean manufacturing'
p1389
I36
sS'hardware'
p1390
I6
sS'ansible'
p1391
I7
sS'statistical analysis'
p1392
I12
sS'regression'
p1393
I29
sS'quickbooks'
p1394
I6
sS'clinical trials'
p1395
I62
sS'digital signal processing'
p1396
I26
sS'quantitative investing'
p1397
I11
sS'urban planning'
p1398
I8
sS'spring framework'
p1399
I15
sS'curriculum development'
p1400
I14
sS'google cloud platform'
p1401
I8
sS'android'
p1402
I40
sS'web development'
p1403
I124
sS'human computer interaction'
p1404
I30
sS'six sigma'
p1405
I83
sS'quality management'
p1406
I9
sS'ios'
p1407
I6
sS'automation'
p1408
I20
sS'arcmap'
p1409
I9
sS'architectures'
p1410
I20
sS'php'
p1411
I187
sS'artificial neural networks'
p1412
I61
sS'statistical programming'
p1413
I56
sS'in vitro'
p1414
I10
sS'bootstrapping'
p1415
I6
sS'eye tracking'
p1416
I10
sS'information theory'
p1417
I12
sS'curriculum design'
p1418
I21
sS'procurement'
p1419
I7
sS'command'
p1420
I8
sS'business process design'
p1421
I11
sS'english'
p1422
I67
sS'video editing'
p1423
I8
sS'mfc'
p1424
I7
sS'policy analysis'
p1425
I96
sS'tcp'
p1426
I18
sS'tcl'
p1427
I7
sS'microsoft visio'
p1428
I6
sS'microsoft project'
p1429
I26
sS'time series analysis'
p1430
I457
sS'team management'
p1431
I75
sS'thermodynamics'
p1432
I14
sS'nanoparticles'
p1433
I12
sS'gmp'
p1434
I8
sS'css3'
p1435
I19
sS'optimizations'
p1436
I49
sS'government'
p1437
I49
sS'gnu octave'
p1438
I24
sS'sequencing'
p1439
I16
sS'nanotechnology'
p1440
I66
sS'energy policy'
p1441
I8
sS'immunology'
p1442
I18
sS'xquery'
p1443
I7
sS'market analysis'
p1444
I58
sS'perl script'
p1445
I7
sS'regression testing'
p1446
I18
sS'sql development'
p1447
I9
sS'geospatial data'
p1448
I6
sS'usability testing'
p1449
I9
sS'public policy'
p1450
I72
sS'econometrics'
p1451
I228
sS'structured finance'
p1452
I7
sS'industrial engineering'
p1453
I37
sS'lead generation'
p1454
I22
sS'mathematical statistics'
p1455
I6
sS'information security'
p1456
I26
sS'optical microscopy'
p1457
I6
sS'biology'
p1458
I17
sS'meta-analysis'
p1459
I7
sS'team leadership'
p1460
I154
sS'maven'
p1461
I11
sS'epidemiology'
p1462
I53
sS'loans'
p1463
I7
sS'national security'
p1464
I12
sS'marketing analytics'
p1465
I79
sS'arcgis'
p1466
I113
sS'oracle database'
p1467
I19
sS'clojure'
p1468
I16
sS'powerpoint'
p1469
I499
sS'owl'
p1470
I10
sS'statistical sampling'
p1471
I10
sS'problem solving'
p1472
I99
sS'online research'
p1473
I8
sS'quantitative analysis'
p1474
I39
sS'enterprise risk management'
p1475
I9
sS'macroeconomics'
p1476
I30
sS'multivariate analysis'
p1477
I64
sS'continuous improvement'
p1478
I20
sS'community development'
p1479
I7
sS'artificial intelligence'
p1480
I304
sS'systems engineering'
p1481
I80
sS'construction'
p1482
I8
sS'tensorflow'
p1483
I6
sS'editing'
p1484
I85
sS'valuation'
p1485
I79
sS'technical documentation'
p1486
I6
sS'digital photography'
p1487
I6
sS'itil'
p1488
I17
sS'condensed matter physics'
p1489
I7
sS'business insights'
p1490
I8
sS'pricing analysis'
p1491
I10
sS'operations research'
p1492
I213
sS'workshop facilitation'
p1493
I8
sS'oracle applications'
p1494
I7
sS'computational genomics'
p1495
I8
sS'regression analysis'
p1496
I156
sS'crm'
p1497
I169
sS'restful webservices'
p1498
I9
sS'pig'
p1499
I40
sS'report writing'
p1500
I26
sS'multivariate statistics'
p1501
I89
sS'education'
p1502
I8
sS'cmos'
p1503
I6
sS'quantitative models'
p1504
I6
sS'stochastic modeling'
p1505
I33
sS'actuarial exams'
p1506
I6
sS'transfection'
p1507
I8
sS'fmea'
p1508
I10
sS'solid state physics'
p1509
I6
sS'astronomy'
p1510
I33
sS'tomcat'
p1511
I26
sS'photonics'
p1512
I10
sS'biotechnology'
p1513
I86
sS'validation'
p1514
I14
s.