(dp1
S'skills'
p2
(lp3
S'owl'
p4
aS'soc'
p5
aS'ip'
p6
aS'healthcare analytics'
p7
aS'integration'
p8
aS'ant'
p9
aS'analytics'
p10
aS'product strategy'
p11
aS'ic'
p12
aS'management'
p13
aS'agile'
p14
aS'product marketing'
p15
aS'hadoop'
p16
aS'strategy'
p17
aS'cell'
p18
aS'lua'
p19
aS'envi'
p20
aS'design thinking'
p21
aS'pl'
p22
aS'product development'
p23
aS'marketing'
p24
aS'innovation'
p25
aS'data scientist'
p26
aS'entrepreneurship'
p27
aS'leadership'
p28
aS'oop'
p29
aS'data'
p30
aS'a'
aS'c'
aS'saas'
p31
aS'solver'
p32
aS'excel'
p33
aS'product design'
p34
aS'r'
aS'architecture'
p35
aS'healthcare'
p36
aS'product management'
p37
aS'organization'
p38
aS'data analytics'
p39
asS'working-year'
p40
(lp41
S'7 year'
p42
aS'5 - 7 year'
p43
asS'major'
p44
(lp45
S'ece'
p46
aS'management'
p47
aS'ee'
p48
aS'marketing'
p49
aS'entrepreneurship'
p50
aS'analytics'
p51
aS'design'
p52
aS'general'
p53
aS'data analytics'
p54
asS'education'
p55
(lp56
VBachelor
p57
aVMaster
p58
asS'responsibility'
p59
(lp60
S'development'
p61
aS'analytic'
p62
aS'product'
p63
aS'design'
p64
as.