(dp1
S'skills'
p2
(lp3
S'consulting'
p4
aS'excel'
p5
aS'communication'
p6
aS'ant'
p7
aS'analytics'
p8
aS'engineering'
p9
aS'angularjs'
p10
aS'go'
p11
aS'ic'
p12
aS'strategy'
p13
aS'visualization'
p14
aS'management'
p15
aS'gis'
p16
aS'mathematica'
p17
aS'asic'
p18
aS'innovation'
p19
aS'research'
p20
aS'cell'
p21
aS'statistica'
p22
aS'envi'
p23
aS'scientific visualization'
p24
aS'computer science'
p25
aS'ip'
p26
aS'pl'
p27
aS'a'
aS'theory'
p28
aS'government'
p29
aS'javascript'
p30
aS'data scientist'
p31
aS'c'
aS'sql'
p32
aS'java'
p33
aS'data'
p34
aS'software development'
p35
aS'search'
p36
aS'data visualization'
p37
aS'vis'
p38
aS'science'
p39
aS'access'
p40
aS'programming'
p41
aS'html'
p42
aS'analysis'
p43
aS'r'
aS'architecture'
p44
aS'security'
p45
aS'rapid prototyping'
p46
aS'cro'
p47
aS'cad'
p48
asS'working-year'
p49
(lp50
S'100 year'
p51
aS'2+ year'
p52
asS'major'
p53
(lp54
S'information'
p55
aS'management'
p56
aS'business'
p57
aS'ee'
p58
aS'science'
p59
aS'communication'
p60
aS'analytics'
p61
aS'engineering'
p62
aS'design'
p63
aS'computer science'
p64
aS'statistic'
p65
aS'management technology'
p66
aS'mis'
p67
asS'education'
p68
(lp69
VBachelor
p70
aVMaster
p71
asS'responsibility'
p72
(lp73
S'development'
p74
aS'information'
p75
aS'mine data'
p76
aS'business problem'
p77
aS'pattern'
p78
aVinsight
p79
aS'analysis'
p80
aS'analytic'
p81
aS'design'
p82
aS'implement'
p83
as.