(dp1
S'advisory'
p2
I1
sS'concept'
p3
I1
sS'data scientist'
p4
I1
sS'help'
p5
I2
sS'insight'
p6
I2
sVmanager
p7
I1
sVscientist
p8
I3
sS'including'
p9
I1
sS'statistical'
p10
I2
sS'business development'
p11
I1
sS'messy'
p12
I1
sS'skill'
p13
I2
sS'find'
p14
I2
sS'r d'
p15
I1
sS'completion'
p16
I1
sS'application'
p17
I1
sS'pragmatically'
p18
I1
sS'complex'
p19
I1
sS'writing'
p20
I1
sS'interested'
p21
I1
sS'between.'
p22
I1
sS'communication'
p23
I1
sS'5'
I1
sS'presentation'
p24
I2
sS'case'
p25
I1
sS'weve'
p26
I1
sS'python'
p27
I1
sS'big'
p28
I1
sS'material'
p29
I1
sS'background'
p30
I1
sS'scalable'
p31
I1
sS'preferred'
p32
I1
sS'creatively'
p33
I1
sS'framing'
p34
I1
sS'closely'
p35
I1
sS'using'
p36
I2
sS'maintaining'
p37
I1
sS'timely'
p38
I1
sS'necessary'
p39
I1
sS'like'
p40
I1
sS'level'
p41
I2
sS'experiencing'
p42
I1
sS'states.'
p43
I1
sS'large'
p44
I3
sS'solved'
p45
I1
sS'manages'
p46
I1
sS'math'
p47
I1
sS'team'
p48
I5
sS'analytical'
p49
I1
sS'enhance'
p50
I1
sS'identifies'
p51
I1
sS'difficult'
p52
I1
sS'predictive analytics'
p53
I2
sS'predictive'
p54
I1
sS'requirement'
p55
I1
sS'set'
p56
I2
sS'energy'
p57
I1
sS'hard'
p58
I1
sS'startup'
p59
I1
sS'analytics'
p60
I1
sS'growth'
p61
I1
sS'result'
p62
I2
sS'statistic'
p63
I1
sS'arm'
p64
I1
sS'subject'
p65
I1
sS'asks'
p66
I1
sS'projects.'
p67
I1
sS'collaborates'
p68
I1
sS'federal'
p69
I1
sS'pattern'
p70
I1
sS'decision'
p71
I1
sS'pro-actively'
p72
I1
sS'increase'
p73
I1
sS'everything'
p74
I1
sS'new business development'
p75
I1
sS'various'
p76
I2
sS'stata'
p77
I1
sS'new'
p78
I2
sS'participation'
p79
I1
sS'consultant'
p80
I1
sS'collateral'
p81
I1
sS'ability'
p82
I1
sS'eligibility'
p83
I1
sS'communicate'
p84
I1
sS'stakeholder'
p85
I1
sS'deliver'
p86
I1
sS'understanding'
p87
I1
sS'completely'
p88
I1
sS'mentoring'
p89
I1
sS'peer'
p90
I1
sVteach
p91
I1
sS'beginning'
p92
I1
sS'excellence.'
p93
I1
sS'proficiency'
p94
I1
sS'convert'
p95
I1
sS'engage'
p96
I1
sS'working'
p97
I3
sS'data visualization'
p98
I1
sS'package'
p99
I1
sS'study'
p100
I1
sS'compliance'
p101
I1
sVbachelor
p102
I1
sS'experience'
p103
I5
sS'practical'
p104
I1
sS'etc'
p105
I2
sS'range'
p106
I1
sS'important'
p107
I1
sS'plus'
p108
I1
sS'mentor'
p109
I1
sVqualification
p110
I2
sS'social'
p111
I2
sS'nonprofit'
p112
I1
sS'microsoft office'
p113
I1
sS'software'
p114
I1
sS'degree'
p115
I1
sS'campaign'
p116
I1
sS'within'
p117
I1
sS'data science'
p118
I2
sS'manage'
p119
I1
sS'minimum'
p120
I1
sS'appropriate'
p121
I1
sS'cross-functional'
p122
I2
sS'civis'
p123
I1
sS'scoping'
p124
I1
sS'engineer'
p125
I1
sS'service'
p126
I1
sS'area'
p127
I1
sS'opportunity'
p128
I1
sS'create'
p129
I1
sS'engagement'
p130
I1
sS'creativity'
p131
I1
sVresponsibility
p132
I1
sS'needed'
p133
I1
sS'identity'
p134
I1
sS'way'
p135
I2
sS'proposal'
p136
I1
sS'analyze'
p137
I1
sS'consistent'
p138
I1
sS'imperfect'
p139
I1
sS'company'
p140
I1
sS'excellent'
p141
I1
sS'junior'
p142
I1
sS'applied'
p143
I4
sS'wide'
p144
I1
sS'translate'
p145
I1
sS'science'
p146
I1
sS'challenge'
p147
I1
sS'work'
p148
I5
sS'value'
p149
I1
sS'machine learning'
p150
I2
sS'project'
p151
I3
sS'record'
p152
I1
sS'individual'
p153
I1
sS'problem'
p154
I3
sS'0 year'
p155
I2
sS'economics'
p156
I1
sS'supervisor'
p157
I1
sVad
p158
I1
sS'proven'
p159
I2
sS'physic'
p160
I1
sS'collaborate'
p161
I1
sS'large data set'
p162
I1
sS'united'
p163
I1
sS'end'
p164
I1
sS'person'
p165
I1
sS'verify'
p166
I1
sS'travel'
p167
I1
sS'tableau'
p168
I1
sS'member'
p169
I1
sS'figuring'
p170
I1
sS'vital'
p171
I1
sS'role'
p172
I1
sS'build'
p173
I3
sS'finding'
p174
I2
sS'green'
p175
I1
sS'brand'
p176
I1
sS'toughest'
p177
I1
sS'context'
p178
I1
sS'communicating'
p179
I1
sS'track'
p180
I1
sVassist
p181
I1
sS'tool'
p182
I1
sS'interpersonal'
p183
I1
sS'helping'
p184
I1
sS'hired'
p185
I2
sS'political science'
p186
I2
sS'sql'
p187
I1
sS'changing'
p188
I1
sS'law'
p189
I1
sS'data'
p190
I8
sS'senior'
p191
I1
sS'structure'
p192
I2
sS'building'
p193
I1
sS'independently'
p194
I1
sS'clear'
p195
I1
sS'required'
p196
I1
sS'science.'
p197
I1
sS'actionable'
p198
I1
sS'academic'
p199
I1
sS'client'
p200
I5
sS'solve'
p201
I2
sS'model'
p202
I2
sS'consumer'
p203
I1
s.