(dp1
S'code'
p2
I1
sS'manager'
p3
I1
sS'manages'
p4
I3
sS'wholly'
p5
I1
sS'technique'
p6
I1
sS'disability'
p7
I2
sS'environment'
p8
I1
sS'program'
p9
I1
sS'include'
p10
I1
sS'facebook'
p11
I1
sS'considered.'
p12
I1
sS'fast-paced'
p13
I1
sS'gender'
p14
I2
sS'list'
p15
I1
sS'applicable'
p16
I1
sS'assigned.'
p17
I2
sS'leave'
p18
I2
sS'race'
p19
I1
sS'team'
p20
I1
sS'essential.'
p21
I1
sS'logistics'
p22
I2
sS'thinker'
p23
I1
sS'design'
p24
I1
sS'new'
p25
I1
sS'tasks.'
p26
I1
sS'contributes'
p27
I3
sS'degree'
p28
I2
sS'making'
p29
I1
sS'strong'
p30
I4
sS'search'
p31
I1
sS'skills.'
p32
I3
sS'experience'
p33
I5
sS'prior'
p34
I1
sS'implement'
p35
I1
sS'simultaneously.'
p36
I1
sS'composed'
p37
I1
sS'highly'
p38
I1
sS'analyzing'
p39
I1
sS'establish'
p40
I1
sS'working'
p41
I1
sS'two'
p42
I1
sS'next'
p43
I1
sS'scope'
p44
I1
sS'organization.'
p45
I1
sS'data management'
p46
I1
sS'benchmark'
p47
I2
sS'responsibilities.'
p48
I1
sS'effort'
p49
I1
sS'must'
p50
I2
sS'account'
p51
I1
sS'work'
p52
I4
sS"api's"
p53
I1
sS'meet'
p54
I1
sS'dedicated'
p55
I1
sS'minimum'
p56
I2
sS'none.'
p57
I1
sS'goal'
p58
I1
sS'provide'
p59
I1
sS'criterion'
p60
I1
sS'communicating'
p61
I1
sS'may'
p62
I1
sS'membership'
p63
I2
sS'goals.'
p64
I1
sS'law'
p65
I1
sS'meaningful'
p66
I1
sS'applicant'
p67
I1
sS'platforms.'
p68
I1
sVsa
p69
I1
sS'2 years'
p70
I1
sS'r d'
p71
I1
sS'mission'
p72
I1
sS'including'
p73
I2
sS'statistical'
p74
I1
sS'innovative'
p75
I1
sS'group'
p76
I1
sS'monitor'
p77
I1
sS'personal'
p78
I1
sS'writing'
p79
I1
sS'holiday'
p80
I1
sS"masters'"
p81
I1
sS'motivated'
p82
I1
sS'material'
p83
I1
sS'day'
p84
I2
sS'association'
p85
I1
sS'analytical skills'
p86
I1
sS'merge'
p87
I1
sS'data analytics'
p88
I2
sS'related'
p89
I1
sS'society'
p90
I2
sS'year'
p91
I1
sS'sexual'
p92
I1
sS'event'
p93
I2
sS'special'
p94
I1
sS'research'
p95
I1
sS'imperative'
p96
I1
sS'following.'
p97
I1
sS'math'
p98
I1
sS'data science business analytics'
p99
I1
sS'resume'
p100
I1
sS'timeline'
p101
I1
sS'business analytics'
p102
I2
sS'programming'
p103
I1
sS'data analyst'
p104
I1
sVqualification
p105
I1
sS'invitation'
p106
I1
sS'initiative.'
p107
I1
sS'origin'
p108
I1
sS'improving'
p109
I1
sS'management'
p110
I2
sS'data'
p111
I5
sS'recruiting'
p112
I1
sS'needed'
p113
I1
sS'tool'
p114
I1
sS'self-directed'
p115
I1
sS'tracking'
p116
I1
sS'consult'
p117
I2
sS'copy'
p118
I1
sS'10'
p119
I1
sS'data collection'
p120
I2
sS'target'
p121
I1
sS'accordance'
p122
I1
sS'extraordinarily'
p123
I1
sS'serf'
p124
I1
sS'protected'
p125
I1
sS'extracting'
p126
I1
sS'business intelligence'
p127
I1
sS'data.'
p128
I1
sS'veteran'
p129
I1
sS'responsible'
p130
I1
sS'able'
p131
I1
sS'acumen'
p132
I1
sS'internal'
p133
I1
sS'performance'
p134
I1
sS'effectiveness'
p135
I1
sS'gym'
p136
I1
sS"bachelor's"
p137
I1
sS'multiple'
p138
I1
sS'performance measurement'
p139
I1
sS'paid'
p140
I3
sS'sfn'
p141
I1
sS'plan'
p142
I1
sS'letter'
p143
I2
sS'quantitative'
p144
I1
sS'retaining'
p145
I1
sS'salary'
p146
I1
sS'reimbursement'
p147
I1
sS'medical'
p148
I1
sS'gather'
p149
I1
sS'cover'
p150
I2
sS'actionable'
p151
I1
sS'senior'
p152
I1
sS'detailed-oriented'
p153
I1
sS'planning'
p154
I1
sS'email marketing'
p155
I1
sS'staff'
p156
I2
sS'indicator'
p157
I1
sS'based'
p158
I1
sS'employer'
p159
I1
sS'analytic'
p160
I1
sS'employee'
p161
I1
sS'scalable'
p162
I1
sS'preferred'
p163
I1
sS'12'
p164
I2
sS'closely'
p165
I1
sS'meeting.'
p166
I1
sS'report'
p167
I1
sS'resource'
p168
I1
sS'activity'
p169
I1
sS'analytical'
p170
I2
sVrequirement
p171
I2
sS'set'
p172
I1
sS'committee'
p173
I1
sS'national'
p174
I1
sS'committed'
p175
I1
sS'individual'
p176
I2
sS'result'
p177
I1
sS'applicants.'
p178
I1
sS'creating'
p179
I1
sS'project'
p180
I8
sS'capacity'
p181
I1
sS'managing'
p182
I1
sVposse
p183
I1
sS'please'
p184
I1
sS'preferred.'
p185
I1
sS'written'
p186
I1
sS'various'
p187
I3
sS'stata'
p188
I1
sS'approach'
p189
I1
sS'across'
p190
I1
sS"years'"
p191
I1
sS'ability'
p192
I3
sS'analyses.'
p193
I1
sS'job'
p194
I1
sS'key'
p195
I1
sS'talented'
p196
I1
sS'implementing'
p197
I1
sS'taking'
p198
I1
sS'annual'
p199
I1
sS'equal'
p200
I1
sS'leadership.'
p201
I1
sS'contribution'
p202
I2
sS'duty'
p203
I2
sS'relevant'
p204
I1
sS'color'
p205
I1
sS'data science'
p206
I2
sS'initiative'
p207
I1
sS'throughout'
p208
I1
sS'source'
p209
I1
sS'create'
p210
I3
sS'due'
p211
I1
sS'strategy'
p212
I2
sS'flexible'
p213
I1
sS'meeting'
p214
I3
sS'life'
p215
I1
sS'needed.'
p216
I2
sS'external'
p217
I1
sS'volunteer'
p218
I1
sS'developing'
p219
I1
sS'align'
p220
I1
sS'dashboard'
p221
I1
sS'orientation'
p222
I1
sS'visualization.'
p223
I1
sS'perform'
p224
I1
sS'make'
p225
I1
sS"sfn's"
p226
I1
sS'development'
p227
I1
sVassist
p228
I5
sS'opportunity'
p229
I1
sS'statistical programming'
p230
I1
sS'identity'
p231
I1
sS'task'
p232
I1
sS'database'
p233
I1
sS'people.'
p234
I1
sS'analysis'
p235
I2
sS'deliverable'
p236
I1
sS'without'
p237
I2
sS'organization'
p238
I1
sS'model'
p239
I1
sS'programs.'
p240
I1
sS'organization-wide'
p241
I1
sS'web'
p242
I1
sS'generous'
p243
I1
sS'retirement'
p244
I1
sS'eager'
p245
I1
sS'python.'
p246
I1
sS'big'
p247
I1
sS'required.'
p248
I1
sS'traffic'
p249
I1
sS'supervisory'
p250
I1
sS'using'
p251
I1
sS'execution'
p252
I1
sS'dates.'
p253
I1
sS'qualitative'
p254
I1
sS'benefit'
p255
I1
sS'essential'
p256
I1
sS'verbal'
p257
I1
sS'twitter'
p258
I1
sS'creation'
p259
I1
sS'searching'
p260
I1
sS'recommendation'
p261
I1
sS'matching'
p262
I1
sS'collaboratively.'
p263
I1
sS'lead'
p264
I1
sS'decision'
p265
I1
sS'religion'
p266
I1
sS'critical'
p267
I1
sS'non-profit'
p268
I1
sS'demonstrated'
p269
I1
sS'data analysis'
p270
I2
sS'schedule'
p271
I1
sS'dental'
p272
I1
sS'bi'
p273
I1
sS'tuition'
p274
I1
sS'step'
p275
I1
sS'reimbursement.'
p276
I1
sS'package'
p277
I2
sS'nonmatching'
p278
I1
sS'measurement.'
p279
I1
sS'language/package'
p280
I1
sS'communication'
p281
I1
sS'vacation'
p282
I1
sS'appropriate'
p283
I1
sS'additional'
p284
I1
sS'spending'
p285
I1
sS'submit'
p286
I1
sS'systems.'
p287
I1
sVfunction
p288
I1
sS'head'
p289
I1
sS'form'
p290
I1
sS'regard'
p291
I1
sS'consideration.'
p292
I1
sS'intuitive'
p293
I1
sS'proactively'
p294
I1
sS'etc.'
p295
I1
sS'statistic'
p296
I1
sS'diverse'
p297
I1
sS'education'
p298
I1
sS'assessing'
p299
I1
sS'insurance'
p300
I1
sVapplication
p301
I1
sS'role'
p302
I1
sS'computer science'
p303
I2
sS'sick'
p304
I1
sS'department'
p305
I4
sS'picture'
p306
I1
sS'welcome'
p307
I1
sS'includes'
p308
I2
sS'important'
p309
I1
sS'sql'
p310
I2
sS'neuroscience'
p311
I2
sS'building'
p312
I1
sS'independently'
p313
I1
sS'age'
p314
I1
s.