(dp1
S'skills'
p2
(lp3
S'owl'
p4
aS'consulting'
p5
aS'ip'
p6
aS'ant'
p7
aS'vis'
p8
aS'engineering'
p9
aS'go'
p10
aS'ic'
p11
aS'visualization'
p12
aS'management'
p13
aS'gis'
p14
aS'mathematica'
p15
aS'asic'
p16
aS'strategy'
p17
aS'statistica'
p18
aS'envi'
p19
aS'computer science'
p20
aS'innovation'
p21
aS'pl'
p22
aS'a'
aS'government'
p23
aS'data scientist'
p24
aS'mpi'
p25
aS'leadership'
p26
aS'sql'
p27
aS'data'
p28
aS'software development'
p29
aS'c'
aS'data visualization'
p30
aS'analytics'
p31
aS'science'
p32
aS'analysis'
p33
aS'r'
aS'security'
p34
aS'cro'
p35
asS'working-year'
p36
(lp37
S'100 year'
p38
asS'major'
p39
(lp40
S'management'
p41
aS'business'
p42
aS'ee'
p43
aS'science'
p44
aS'analytics'
p45
aS'engineering'
p46
aS'management technology'
p47
aS'computer science'
p48
aS'statistic'
p49
aS'design'
p50
aS'mis'
p51
asS'education'
p52
(lp53
VBachelor
p54
aVMaster
p55
asS'responsibility'
p56
(lp57
S'development'
p58
aS'mine data'
p59
aS'business problem'
p60
aS'pattern'
p61
aVinsight
p62
aS'analysis'
p63
aS'analytic'
p64
aS'design'
p65
aS'report'
p66
aS'implement'
p67
as.