(dp1
S'skills'
p2
(lp3
S'consulting'
p4
aS'r d'
p5
aS'ip'
p6
aS'data science'
p7
aS'sql'
p8
aS'ant'
p9
aS'analytics'
p10
aS'problem solving'
p11
aS'ic'
p12
aS'd3'
p13
aS'visualization'
p14
aS'management'
p15
aS'complex systems'
p16
aS'excel'
p17
aS'envi'
p18
aS'writing'
p19
aS'risk management'
p20
aS'rf'
p21
aS'marketing'
p22
aS'pandas'
p23
aS'pl'
p24
aS'ios'
p25
aS'finance'
p26
aS'python'
p27
aS'customer service'
p28
aS'data scientist'
p29
aS'financial risk'
p30
aS'data wrangling'
p31
aS'modeling'
p32
aS'data'
p33
aS'a'
aS'c'
aS'data visualization'
p34
aS'vis'
p35
aS'stl'
p36
aS'science'
p37
aVpanda
p38
aS'r'
aS'healthcare'
p39
aS'organization'
p40
aS'data analytics'
p41
asS'working-year'
p42
(lp43
S'0 year'
p44
asS'major'
p45
(lp46
S'information'
p47
aS'management'
p48
aS'finance'
p49
aS'business'
p50
aS'ee'
p51
aS'marketing'
p52
aS'data science'
p53
aS'analytics'
p54
aS'science'
p55
aS'data analytics'
p56
asS'education'
p57
(lp58
VBachelor
p59
aVMaster
p60
asS'responsibility'
p61
(lp62
S'information'
p63
aS'product'
p64
aS'business problem'
p65
aVinsight
p66
aS'analytic'
p67
aS'understand'
p68
aS'ownership'
p69
aS'data wrangling'
p70
aS'modeling'
p71
aS'model'
p72
as.