(dp1
S'skills'
p2
(lp3
S'r d'
p4
aS'ip'
p5
aS'data science'
p6
aS'pig'
p7
aS'ant'
p8
aS'vis'
p9
aS'engineering'
p10
aS'hive'
p11
aS'go'
p12
aS'sas'
p13
aS'ic'
p14
aS'monetization'
p15
aS'simulink'
p16
aS'big data'
p17
aS'excel'
p18
aS'hadoop'
p19
aS'cell'
p20
aS'rf'
p21
aS'matlab'
p22
aS'communication'
p23
aS'mathematics'
p24
aS'pl'
p25
aS'computer science'
p26
aS'data analysis'
p27
aS'python'
p28
aS'marketing'
p29
aS'jmp'
p30
aS'innovation'
p31
aS'data scientist'
p32
aS'oop'
p33
aS'sql'
p34
aS'spark'
p35
aS'data'
p36
aS'a'
aS'c'
aS'erp'
p37
aS'ampl'
p38
aS'science'
p39
aS'analysis'
p40
aS'machine learning'
p41
aS'r'
aS'english'
p42
asS'working-year'
p43
(lp44
S'0 year'
p45
asS'major'
p46
(lp47
S'information'
p48
aS'business'
p49
aS'big data'
p50
aS'ee'
p51
aS'marketing'
p52
aS'data science'
p53
aS'statistic'
p54
aS'communication'
p55
aS'machine learning'
p56
aS'engineering'
p57
aS'computer science'
p58
aS'english'
p59
aS'mathematics'
p60
aS'ee computer science'
p61
aS'science'
p62
asS'education'
p63
(lp64
VBachelor
p65
aVMaster
p66
asS'responsibility'
p67
(lp68
S'information'
p69
aS'product'
p70
aS'data analysis'
p71
aS'formulate'
p72
aS'analysis'
p73
aS'understand'
p74
aS'solve problem'
p75
as.