(dp1
S'skills'
p2
(lp3
S'jira'
p4
aS'integration'
p5
aS'r d'
p6
aS'owl'
p7
aS'ip'
p8
aS'testing'
p9
aS'communication'
p10
aS'rest'
p11
aS'hadoop'
p12
aS'ant'
p13
aS'analytics'
p14
aS'engineering'
p15
aS'innovation'
p16
aS'linux'
p17
aS'go'
p18
aS'ic'
p19
aS'sap'
p20
aS'scrum'
p21
aS'git'
p22
aS'java'
p23
aS'big data'
p24
aS'scala'
p25
aS'agile'
p26
aS'recruiting'
p27
aS'rf'
p28
aS'writing'
p29
aS'ssis'
p30
aS'computer science'
p31
aS'visio'
p32
aS'pl'
p33
aS'r programming'
p34
aS'flume'
p35
aS'asp'
p36
aS'product development'
p37
aS'python'
p38
aS'mongodb'
p39
aS'mac os'
p40
aS'data scientist'
p41
aS'scalability'
p42
aS'devops'
p43
aS'management'
p44
aS'test driven development'
p45
aS'software engineering'
p46
aS'data'
p47
aS'customer experience'
p48
aS'a'
aS'c'
aS'github'
p49
aS'erp'
p50
aS'saas'
p51
aS'ampl'
p52
aS'vis'
p53
aS'science'
p54
aS'aws'
p55
aS'programming'
p56
aS'hive'
p57
aS'r'
aS'english'
p58
aS'product management'
p59
aS'organization'
p60
aS'security'
p61
aS'cro'
p62
aS'etl'
p63
aS'oop'
p64
asS'working-year'
p65
(lp66
S'0 year'
p67
asS'major'
p68
(lp69
S'management'
p70
aS'business'
p71
aS'big data'
p72
aS'ee'
p73
aS'science'
p74
aS'software engineering'
p75
aS'analytics'
p76
aS'engineering'
p77
aS'computer science software engineering'
p78
aS'computer science'
p79
aS'english'
p80
aS'communication'
p81
aS'design'
p82
aS'mis'
p83
aS'ee computer science'
p84
aVphysic
p85
asS'education'
p86
(lp87
VBachelor
p88
aVMaster
p89
asS'responsibility'
p90
(lp91
S'development'
p92
aS'product'
p93
aVinsight
p94
aS'analytic'
p95
aS'design'
p96
aS'ownership'
p97
aS'model'
p98
as.