(dp1
S'skills'
p2
(lp3
S'negotiation'
p4
aS'owl'
p5
aS'r d'
p6
aS'ip'
p7
aS'data science'
p8
aS'communication'
p9
aS'sales'
p10
aS'ant'
p11
aS'analytics'
p12
aS'engineering'
p13
aS'product strategy'
p14
aS'go'
p15
aS'ic'
p16
aS'management'
p17
aS'excel'
p18
aS'strategy'
p19
aS'cell'
p20
aS'risk management'
p21
aS'envi'
p22
aS'visio'
p23
aS'policy'
p24
aS'construction'
p25
aS'leadership development'
p26
aS'pl'
p27
aS'product development'
p28
aS'marketing'
p29
aS'collaboration'
p30
aS'data scientist'
p31
aS'apache spark'
p32
aS'oracle'
p33
aS'leadership'
p34
aS'apache'
p35
aS'spark'
p36
aS'manufacturing'
p37
aS'data'
p38
aS'a'
aS'c'
aS'fraud'
p39
aS'erp'
p40
aS'software engineering'
p41
aS'vis'
p42
aS'science'
p43
aS'documentation'
p44
aS'advanced analytics'
p45
aS'r'
aS'financial services'
p46
aS'executive management'
p47
aS'product management'
p48
aS'organization'
p49
aS'pre-sales'
p50
asS'working-year'
p51
(lp52
S'8 year'
p53
aS'10 year'
p54
asS'major'
p55
(lp56
S'information'
p57
aS'ece'
p58
aS'management'
p59
aS'software engineering'
p60
aS'business'
p61
aS'ee'
p62
aS'marketing'
p63
aS'data science'
p64
aS'communication'
p65
aS'mba'
p66
aS'analytics'
p67
aS'engineering'
p68
aS'design'
p69
aS'science'
p70
aS'advanced analytics'
p71
aS'law'
p72
aS'data science engineering'
p73
asS'education'
p74
(lp75
VBachelor
p76
aVMaster
p77
asS'responsibility'
p78
(lp79
S'development'
p80
aS'information'
p81
aS'product'
p82
aS'documentation'
p83
aS'communicate'
p84
aS'construct'
p85
aS'analytic'
p86
aVrequirement specification
p87
aS'design'
p88
aS'understand'
p89
aS'implement'
p90
as.