(dp1
S'responsible'
p2
I2
sS'data scientist'
p3
I1
sS'inspire'
p4
I1
sS'office'
p5
I1
sS'photo'
p6
I1
sS'roll-outs.'
p7
I1
sS'3+ year'
p8
I1
sS'webdam'
p9
I1
sS'existing'
p10
I1
sS'manager'
p11
I1
sS'deadline'
p12
I1
sS'responsive'
p13
I1
sS'follow'
p14
I1
sS'value-oriented'
p15
I1
sS'research'
p16
I1
sS'happiness'
p17
I1
sS'help'
p18
I2
sS'impact'
p19
I1
sS'group'
p20
I1
sS'knowledge'
p21
I1
sS'twitter'
p22
I1
sS'paris'
p23
I1
sS'agile'
p24
I2
sS'equal'
p25
I1
sS'r d'
p26
I1
sS'methodology'
p27
I1
sS'individual.'
p28
I1
sS'ideation'
p29
I1
sS'platform'
p30
I1
sS'high-fidelity'
p31
I1
sS'facebook.'
p32
I1
sS'compelling'
p33
I1
sS'presentation'
p34
I1
sS'excited'
p35
I1
sS'global'
p36
I2
sS'around'
p37
I2
sVget
p38
I1
sS'big'
p39
I1
sS'advocate'
p40
I2
sS'scalable'
p41
I2
sS'collaboratively'
p42
I1
sS'product design'
p43
I1
sS'know'
p44
I2
sS'closely'
p45
I1
sS'foot'
p46
I1
sS'world'
p47
I2
sS'realize'
p48
I1
sS'cool'
p49
I1
sS'service'
p50
I1
sS'conception'
p51
I1
sS'qualitative'
p52
I1
sS'compassionate'
p53
I1
sS'solution'
p54
I2
sS'berlin'
p55
I1
sS'stuff'
p56
I1
sS'source'
p57
I1
sS'team'
p58
I3
sS'quick'
p59
I1
sS'end-to-end'
p60
I1
sS'passionate'
p61
I1
sS'arises'
p62
I1
sS'available.'
p63
I1
sS'vision'
p64
I1
sS'mean'
p65
I2
sS'enjoy'
p66
I1
sVrequirement
p67
I1
sS'shutterstock'
p68
I8
sS'hundred'
p69
I1
sS'other.'
p70
I1
sS'idea'
p71
I1
sS'library'
p72
I1
sS'licensed'
p73
I1
sS'translating'
p74
I1
sS'contributor'
p75
I2
sS'thinker'
p76
I1
sS'used'
p77
I1
sS'video'
p78
I3
sS'vocal'
p79
I1
sS'best'
p80
I1
sS'high-performance'
p81
I1
sS'rex'
p82
I1
sS'throughout'
p83
I1
sS'business'
p84
I8
sS'lead'
p85
I1
sS'chicago'
p86
I1
sS'decision'
p87
I1
sS'currently'
p88
I1
sS'please'
p89
I1
sS'solve problem'
p90
I1
sS'creative'
p91
I2
sS'written'
p92
I1
sS'vector'
p93
I1
sS'designing'
p94
I2
sS'new'
p95
I2
sS'enjoys'
p96
I1
sS'nyse'
p97
I1
sS'discovery'
p98
I1
sS'million'
p99
I2
sS'creating'
p100
I1
sS'power'
p101
I1
sS'city'
p102
I1
sS'marketing'
p103
I2
sS'empower'
p104
I1
sS'stakeholder'
p105
I1
sS'deliver'
p106
I1
sS'employer'
p107
I1
sS'illustration'
p108
I2
sS'ability'
p109
I1
sS'analytical'
p110
I1
sS'add'
p111
I1
sS'york'
p112
I1
sS'meet'
p113
I1
sS'premiumbeat'
p114
I1
sS'estimate'
p115
I1
sS'care'
p116
I1
sS'great'
p117
I1
sS'curated'
p118
I1
sS'high-end'
p119
I1
sS'valley'
p120
I1
sS'html/css'
p121
I1
sS'provider'
p122
I1
sS'experience'
p123
I3
sS'plus'
p124
I1
sS'way.'
p125
I1
sS'logic'
p126
I1
sS'commit'
p127
I1
sS'think'
p128
I1
sS'montreal'
p129
I1
sS'first'
p130
I1
sS'major'
p131
I1
sS'final'
p132
I1
sS'simple'
p133
I1
sS'image'
p134
I5
sS'offset'
p135
I1
sS'community'
p136
I1
sS'one'
p137
I1
sS'190'
p138
I1
sS'adult.'
p139
I1
sS'initiative'
p140
I1
sS'denver'
p141
I1
sS'owner'
p142
I1
sS'amsterdam'
p143
I1
sS'technologist'
p144
I1
sS'thousand'
p145
I1
sS'ecommerce'
p146
I1
sS'engineer'
p147
I1
sS'code'
p148
I1
sS"doesn't"
p149
I1
sS'working'
p150
I6
sS'los'
p151
I1
sS'data'
p152
I1
sS'create'
p153
I2
sS'visit'
p154
I1
sS"world's"
p155
I3
sS'cloud-based'
p156
I1
sS'grow'
p157
I1
sS'sstk'
p158
I1
sS'music'
p159
I4
sS"we're"
p160
I2
sS'lot'
p161
I1
sS'6'
I1
sS'prototype'
p162
I2
sS'iterate.'
p163
I1
sS'footage'
p164
I1
sS'leading'
p165
I1
sS'bigstock'
p166
I1
sS'medium'
p167
I4
sS'on.'
p168
I1
sS'editorial'
p169
I1
sS'tool'
p170
I1
sS'sophisticated'
p171
I1
sS'visual'
p172
I1
sS'm/f/d/v'
p173
I1
sS'integrity.'
p174
I1
sS'customer'
p175
I7
sS"they're"
p176
I1
sS'photograph'
p177
I1
sS'made'
p178
I1
sS'high-quality'
p179
I2
sS'solid'
p180
I1
sS'professionals.'
p181
I1
sS'work'
p182
I2
sS'smooth'
p183
I1
sS'professionally'
p184
I1
sS'achieving'
p185
I1
sS'storytellers.'
p186
I1
sS'silicon'
p187
I1
sS'actively'
p188
I1
sS'asset management'
p189
I1
sS'developers.'
p190
I1
sS'owns'
p191
I1
sS'growing'
p192
I1
sS'design'
p193
I8
sS'experiences.'
p194
I2
sS'beautiful'
p195
I1
sS'150'
p196
I1
sS'marketplace'
p197
I2
sS'san'
p198
I1
sS'clip'
p199
I1
sS'process'
p200
I4
sS'www.shutterstock.com'
p201
I1
sS"shutterstock's"
p202
I1
sS'engaged'
p203
I1
sS'site'
p204
I1
sS'sizes.'
p205
I1
sS'comfortable'
p206
I1
sS'globally'
p207
I1
sS'effectively'
p208
I1
sS'research.'
p209
I1
sS'good'
p210
I1
sS'countries.'
p211
I1
sS'want'
p212
I1
sS'need'
p213
I1
sS'ie.'
p214
I1
sS'technology'
p215
I1
sS'risk'
p216
I1
sS'concept'
p217
I1
sS'angeles'
p218
I1
sS'goal'
p219
I1
sS'e-commerce'
p220
I1
sS'agency'
p221
I3
sS'-'
I2
sVfeature
p222
I1
sS'royalty-free'
p223
I1
sS'also'
p224
I2
sS'high'
p225
I1
sS'complex'
p226
I1
sS'digital'
p227
I3
sS'largest'
p228
I1
sVresponsibility
p229
I1
sS'world.'
p230
I1
sS'company'
p231
I2
sS'stock'
p232
I1
sS'week'
p233
I1
sS'independent'
p234
I1
sS'product'
p235
I5
sS'designer'
p236
I3
sS'premier'
p237
I1
sS'collaboration'
p238
I2
sS'headquartered'
p239
I1
sS'collection'
p240
I1
sS'000'
p241
I1
sS'user'
p242
I1
sS'organization'
p243
I3
sS'improving'
p244
I1
sS'communicator'
p245
I1
sS'information'
p246
I1
sS'opportunity'
p247
I2
sS'class'
p248
I1
sS'francisco'
p249
I1
sS'building'
p250
I2
sS'businesses.'
p251
I1
sS'oral'
p252
I1
sS'dallas'
p253
I1
sS'drive'
p254
I1
sS'london'
p255
I1
sS'scare'
p256
I1
sS'inform'
p257
I1
sS"you'll"
p258
I1
sS'solve'
p259
I1
sS'time'
p260
I1
sS'quantitative'
p261
I1
sS'genuinely'
p262
I1
sS'requires'
p263
I1
sS'defend'
p264
I1
sS'inc.'
p265
I1
sS'125'
p266
I1
s.