(dp1
S'represent'
p2
I1
sS'responsible'
p3
I1
sS'help'
p4
I1
sS'office'
p5
I2
sS'consideration.'
p6
I1
sS'please'
p7
I1
sS'global'
p8
I1
sS'satisfied'
p9
I1
sS'existing'
p10
I1
sS'produced'
p11
I1
sS'bring'
p12
I1
sS'shape'
p13
I1
sS'manages'
p14
I2
sS'deadline'
p15
I2
sS'innovative'
p16
I2
sS'responsive'
p17
I1
sS'portfolio'
p18
I1
sS'skill'
p19
I1
sS'fine'
p20
I1
sS'find'
p21
I1
sS'based'
p22
I1
sS'planning'
p23
I1
sS'web'
p24
I1
sS'inspiring'
p25
I1
sS'busy'
p26
I1
sS'group'
p27
I2
sS'pharma'
p28
I1
sS'candidate'
p29
I1
sS'tight'
p30
I1
sS'effort'
p31
I1
sS'product marketing'
p32
I1
sS'send'
p33
I1
sS'demonstrate'
p34
I1
sS'unparalleled'
p35
I1
sS'promoting'
p36
I1
sS'top-tier'
p37
I1
sS'billable'
p38
I1
sS'employee'
p39
I1
sS'health-oriented'
p40
I1
sS'size.'
p41
I1
sS'customer experience'
p42
I1
sS'world.'
p43
I2
sS'take'
p44
I1
sS'division'
p45
I2
sS'phcg'
p46
I1
sS'insight'
p47
I1
sS'exceptional'
p48
I1
sS'role'
p49
I1
sS'digital'
p50
I1
sS'overall'
p51
I1
sS'account'
p52
I7
sS'preferred'
p53
I2
sS'traffic'
p54
I1
sS'interview'
p55
I1
sS'workload'
p56
I2
sS'facebook'
p57
I1
sS'closely'
p58
I2
sS'performance'
p59
I2
sS'using'
p60
I1
sS'strategic'
p61
I3
sS'strive'
p62
I1
sS'razorfish'
p63
I4
sS'responsiveness'
p64
I1
sS'jenna'
p65
I1
sS'issue'
p66
I1
sS'solution'
p67
I2
sS'expectation'
p68
I1
sS'team'
p69
I7
sS'identify'
p70
I1
sS"years'"
p71
I1
sS'mile'
p72
I1
sS'cranston'
p73
I1
sS'employer.'
p74
I1
sS'everyone'
p75
I1
sS'city.'
p76
I1
sS'trained'
p77
I1
sS'time'
p78
I1
sS'branding'
p79
I2
sS'twitter'
p80
I1
sS'participate'
p81
I1
sS'related'
p82
I1
sS'budget'
p83
I1
sS'go'
p84
I1
sS'juggling'
p85
I1
sS'creative/hands-on'
p86
I1
sS'mentored'
p87
I1
sS'needs.'
p88
I1
sS'best'
p89
I2
sS'ability'
p90
I3
sS'3 year'
p91
I1
sS'jenna.cranston'
p92
I1
sS'please.'
p93
I1
sS'throughout'
p94
I1
sS'judgment'
p95
I1
sS'network'
p96
I2
sS's.a.'
p97
I1
sS'giving'
p98
I1
sS'quality'
p99
I2
sS'review'
p100
I2
sS'workflow'
p101
I1
sS'feedback'
p102
I2
sS'brief'
p103
I1
sS'creative'
p104
I16
sS'access'
p105
I1
sS'consistently'
p106
I1
sS'written'
p107
I2
sS'health'
p108
I11
sS'contact'
p109
I1
sS'innovation'
p110
I1
sS'new'
p111
I1
sS'10 years'
p112
I1
sVstrategist
p113
I1
sVpublic
p114
I1
sS'health.'
p115
I1
sS'groupe'
p116
I2
sS'vendor/agency'
p117
I1
sS'creating'
p118
I1
sS'business'
p119
I2
sS'associate'
p120
I2
sS'data scientist'
p121
I1
sS'standard'
p122
I1
sS'met'
p123
I1
sS'management'
p124
I3
sS'focused'
p125
I1
sS'york'
p126
I1
sS'become'
p127
I1
sS'reach.'
p128
I1
sS'estimate'
p129
I1
sS'includes'
p130
I1
sS'change'
p131
I1
sS'improve'
p132
I1
sS'standout'
p133
I1
sS'service'
p134
I1
sS'world'
p135
I1
sS'acd'
p136
I3
sS'career'
p137
I1
sS'annual'
p138
I1
sS'copywriter'
p139
I1
sS'equal'
p140
I1
sS'countries.'
p141
I1
sS'assure'
p142
I1
sS'outcomes.'
p143
I1
sS'leadership'
p144
I2
sS'ensure'
p145
I2
sS'advertising'
p146
I3
sVqualification
p147
I1
sS'social'
p148
I1
sS'action'
p149
I1
sS'assign'
p150
I1
sS'degree'
p151
I1
sS'prospective'
p152
I1
sS'campaign'
p153
I1
sS'extra'
p154
I1
sS'communication'
p155
I3
sS'manage'
p156
I2
sS'commitment'
p157
I1
sS'philadelphia'
p158
I1
sS'60'
p159
I1
sS'appropriate'
p160
I3
sS'maximize'
p161
I1
sS'account management'
p162
I1
sS'art'
p163
I3
sS'message'
p164
I1
sVtechnologist
p165
I1
sS'communications.'
p166
I1
sS'market'
p167
I1
sS'specializing'
p168
I1
sS'www.publicishealth.com'
p169
I1
sS'working'
p170
I2
sS'needed'
p171
I1
sS'leading'
p172
I1
sS'recruiter'
p173
I1
sS'engagement'
p174
I1
sS'two'
p175
I2
sS'specifically'
p176
I1
sS'background'
p177
I1
sS'start'
p178
I2
sS'describes'
p179
I1
sS'intelligence'
p180
I1
sS'clicking'
p181
I1
sS'meeting'
p182
I2
sS'final'
p183
I1
sS'500'
p184
I1
sS'insightful'
p185
I1
sS'life'
p186
I1
sVmedium
p187
I1
sS'relationship'
p188
I1
sS'successful'
p189
I2
sS'brand'
p190
I1
sS'face-to-face'
p191
I1
sS'immediate'
p192
I1
sS'delivery'
p193
I1
sS'part'
p194
I1
sS'understand'
p195
I1
sS'excellent'
p196
I1
sS'copy'
p197
I5
sS'assigning'
p198
I1
sS'project management'
p199
I2
sS'amplify'
p200
I1
sS'customer'
p201
I1
sS'10'
p202
I1
sS'clients.'
p203
I1
sS'15'
p204
I1
sS'hour'
p205
I1
sS'presentation'
p206
I2
sS'challenge'
p207
I1
sS'work'
p208
I11
sS'strategically'
p209
I1
sS'value'
p210
I1
sS'2-3 year'
p211
I1
sS'project'
p212
I3
sS'record'
p213
I1
sS'ongoing'
p214
I1
sS'three'
p215
I1
sS'editorial'
p216
I1
sS'following'
p217
I1
sS'meet'
p218
I1
sS'voice'
p219
I1
sS'address'
p220
I1
sS'experiences.'
p221
I1
sS'strongly'
p222
I1
sS'www.facebook.com/publicishealth'
p223
I1
sS'dedicated'
p224
I1
sS'solicitation'
p225
I1
sS'share'
p226
I1
sS'proven'
p227
I1
sS'hand-in-hand'
p228
I1
sS'good'
p229
I1
sS'experience'
p230
I5
sS'field'
p231
I1
sS'need'
p232
I1
sS'technology'
p233
I1
sS'resume'
p234
I1
sS'concept'
p235
I4
sS'develop'
p236
I3
sS'goal'
p237
I1
sS'depending'
p238
I1
sS'provide'
p239
I2
sS'ensuring'
p240
I1
sS'agency'
p241
I6
sS'compel'
p242
I1
sS'event'
p243
I1
sS'market research'
p244
I1
sS'located'
p245
I1
sS'publicis'
p246
I9
sS'5'
I1
sS'build'
p247
I1
sS'largest'
p248
I4
sS'department'
p249
I1
sS'responsibility'
p250
I2
sS'personalized'
p251
I1
sS'maintain'
p252
I1
sS'company'
p253
I1
sS'development'
p254
I1
sS'requested'
p255
I1
sS'product'
p256
I1
sS'finish'
p257
I1
sS'multiple'
p258
I2
sS'description'
p259
I1
sS'attend'
p260
I1
sS'track'
p261
I1
sS'contacted.'
p262
I1
sS'healthcare'
p263
I2
sS'execution'
p264
I1
sS'creatives'
p265
I1
sS'director'
p266
I2
sS'ba'
p267
I1
sS'produce'
p268
I2
sS'plan'
p269
I1
sS'suited'
p270
I1
sS'productivity'
p271
I1
sS'grow'
p272
I1
sS'inspiration'
p273
I1
sS'independently'
p274
I1
sS'lead'
p275
I2
sS'third'
p276
I1
sS'collaboratively'
p277
I1
sS'long-range'
p278
I1
sS'medical'
p279
I1
sS'applicant'
p280
I1
sS'well'
p281
I1
sS'managing'
p282
I1
sS'directly'
p283
I1
sS'client'
p284
I8
sS'u'
I1
sS'behavioral'
p285
I1
sS'position'
p286
I1
sS'publicishealth.com'
p287
I1
sS'opportunity'
p288
I1
sS'www.twitter.com/publicishealth'
p289
I1
s.