(dp1
S'nlp'
p2
I1
sS'considered.'
p3
I1
sS'semantic'
p4
I2
sS'help'
p5
I1
sS'office'
p6
I1
sS'incorporate'
p7
I1
sS'intellectual property'
p8
I1
sS'131192'
p9
I1
sS'executive'
p10
I1
sS'cognitive science'
p11
I2
sS'information extraction'
p12
I1
sS'bring'
p13
I1
sS'scientist'
p14
I1
sS'including'
p15
I3
sS'participate'
p16
I1
sS'mentioned'
p17
I1
sS'skill'
p18
I2
sS'integrity'
p19
I1
sS'developer'
p20
I1
sS'discipline'
p21
I1
sS'linguistics'
p22
I1
sS'group'
p23
I2
sS'knowledge'
p24
I3
sS'title'
p25
I1
sS'r d'
p26
I1
sS'state'
p27
I1
sS'environment'
p28
I1
sS'internal'
p29
I1
sS'location'
p30
I2
sS'opportunities.'
p31
I1
sS'policy'
p32
I1
sS'main'
p33
I1
sS'local'
p34
I1
sS'transformation'
p35
I1
sS'computer science'
p36
I2
sS'seeking'
p37
I1
sS'practice'
p38
I1
sS'background'
p39
I1
sS'number'
p40
I1
sS'qualified'
p41
I1
sS'closely'
p42
I1
sS'please.'
p43
I1
sS'information retrieval'
p44
I2
sS'business development'
p45
I1
sS'highly'
p46
I1
sS'employer/disability/veteran.'
p47
I1
sS'advanced'
p48
I2
sS'resource.'
p49
I1
sS'cognitive'
p50
I11
sS'executing'
p51
I1
sS'developing'
p52
I1
sS'solution'
p53
I2
sS'facing'
p54
I2
sS'ph.d'
p55
I1
sS'guiding'
p56
I1
sS'team'
p57
I3
sS'data analytics'
p58
I2
sS'mathematical'
p59
I1
sS'three year'
p60
I1
sS'domain'
p61
I1
sS'applied statistics'
p62
I1
sS'verbal'
p63
I1
sS'people'
p64
I3
sS'other.'
p65
I1
sS'successfully'
p66
I1
sS'related'
p67
I1
sS'applicable'
p68
I1
sS'design'
p69
I2
sS'kpmg'
p70
I8
sS'employment'
p71
I1
sS'best'
p72
I1
sS'subject'
p73
I1
sS'specific'
p74
I1
sS'federal'
p75
I1
sS'degree'
p76
I1
sS'expert'
p77
I1
sS'team.countless'
p78
I1
sS"master's"
p79
I1
sS'establish'
p80
I1
sS'decision'
p81
I2
sS'currently'
p82
I1
sVapplied statistic
p83
I1
sS'benefit'
p84
I1
sS'written'
p85
I1
sS'various'
p86
I1
sS'productize'
p87
I1
sS'new'
p88
I4
sS'sme'
p89
I1
sS'leader'
p90
I1
sS'maintains'
p91
I1
sS'ability'
p92
I1
sS'business'
p93
I2
sS'marketing'
p94
I1
sS'data scientist'
p95
I1
sS'job'
p96
I1
sS'operating'
p97
I1
sS'york'
p98
I3
sS'backgrounds.'
p99
I1
sS'post'
p100
I1
sS'strong'
p101
I2
sS'artificial intelligence machine learning'
p102
I1
sS'engage'
p103
I1
sS'working'
p104
I1
sS'launch'
p105
I1
sS'freely'
p106
I1
sS'area'
p107
I5
sS'equal'
p108
I1
sS'experience'
p109
I3
sS'honest'
p110
I1
sS'creates'
p111
I1
sS'consider'
p112
I1
sS'range'
p113
I1
sVqualification
p114
I1
sS'leading'
p115
I1
sS'drug-free'
p116
I1
sS'implement'
p117
I1
sS'deep learning'
p118
I1
sS'software'
p119
I1
sS'rooted'
p120
I1
sS'matrixed'
p121
I1
sS'communication'
p122
I2
sS'image'
p123
I2
sS'integral'
p124
I1
sS'functional'
p125
I1
sS'one'
p126
I4
sS'flexibility'
p127
I1
sS'eminence'
p128
I1
sS'trust'
p129
I1
sS'open'
p130
I1
sS'engineer'
p131
I1
sS'package.'
p132
I1
sS'service'
p133
I1
sS'extraction'
p134
I1
sS'probabilistic'
p135
I2
sS'support'
p136
I3
sS'least'
p137
I1
sS'.'
I1
sS'ai'
p138
I2
sS'call'
p139
I1
sS'asset'
p140
I1
sS'interest'
p141
I1
sS'advanced analytics'
p142
I2
sS'prototype'
p143
I1
sS'consistent'
p144
I1
sS'artificial intelligence'
p145
I2
sS'define'
p146
I2
sS'ordinance'
p147
I1
sS'diversity'
p148
I1
sS'offering'
p149
I1
sS'offer'
p150
I1
sS'influence'
p151
I1
sS'tool'
p152
I1
sS'serve'
p153
I2
sS'phone'
p154
I1
sS'product development'
p155
I1
sS'part'
p156
I1
sS'external'
p157
I1
sS'excellent'
p158
I1
sS'believe'
p159
I1
sS'effort'
p160
I1
sS'customer'
p161
I1
sS'wide'
p162
I1
sS'criminal'
p163
I1
sS'join'
p164
I1
sS'consist'
p165
I1
sS'culture'
p166
I2
sS'work'
p167
I4
sS'value'
p168
I1
sS'machine learning'
p169
I2
sS'project'
p170
I2
sS'matter'
p171
I1
sS'compensation'
p172
I1
sS'optimization'
p173
I1
sS'following'
p174
I1
sS'making'
p175
I2
sS'algorithm development'
p176
I1
sS'recognition'
p177
I2
sS'history'
p178
I1
sS'san'
p179
I1
sS'process'
p180
I1
sS'share'
p181
I1
sS'deep'
p182
I1
sS'engineering'
p183
I1
sS'minimum'
p184
I1
sS'manner'
p185
I1
sS'need'
p186
I1
sS'activity'
p187
I2
sS'information'
p188
I1
sS'develop'
p189
I3
sS'specialization'
p190
I1
sS'perform'
p191
I1
sS'agency'
p192
I1
sS'field'
p193
I1
sS'client'
p194
I3
sS'build'
p195
I1
sS'natural language processing'
p196
I2
sS'several'
p197
I1
sS'opportunity'
p198
I1
sS'development'
p199
I2
sS'product'
p200
I2
sS'francisco'
p201
I1
sS'competency'
p202
I1
sS'comprehensive'
p203
I1
sS'collaboration'
p204
I1
sS'mathematics physics'
p205
I1
sS'automation'
p206
I1
sS'workplace.'
p207
I1
sS'62098'
p208
I1
sS'quantitative'
p209
I1
sS'law'
p210
I1
sS'senior'
p211
I1
sVphysic
p212
I1
sS'firm.'
p213
I1
sS'independently'
p214
I1
sS'task'
p215
I1
sS"kpmg's"
p216
I2
sS'algorithm'
p217
I2
sS'business process'
p218
I1
sS'applicant'
p219
I1
sS'well'
p220
I4
sS'sale'
p221
I1
sS'thought'
p222
I1
sS'academic'
p223
I1
sS'requisition'
p224
I1
sVresponsibility
p225
I1
sS'professional'
p226
I2
sS'model'
p227
I4
sS'requirement'
p228
I1
sS'diverse'
p229
I1
s.