(dp1
S'skills'
p2
(lp3
S'soc'
p4
aS'r d'
p5
aS'intellectual property'
p6
aS'ip'
p7
aS'communication'
p8
aS'ant'
p9
aS'vis'
p10
aS'go'
p11
aS'seo'
p12
aS'ic'
p13
aS'arm'
p14
aS'git'
p15
aS'gis'
p16
aS'publishing'
p17
aS'strategy'
p18
aS'rf'
p19
aS'optimization'
p20
aS'visio'
p21
aS'pl'
p22
aS'content strategy'
p23
aS'marketing'
p24
aS'data scientist'
p25
aS'performance measurement'
p26
aS'data'
p27
aS'a'
aS'c'
aS'analytics'
p28
aS'analysis'
p29
aS'r'
aS'editorial'
p30
aS'website development'
p31
aS'cro'
p32
aS'sd'
p33
asS'working-year'
p34
(lp35
S'10 year'
p36
aS'5-10 year'
p37
asS'major'
p38
(lp39
S'information'
p40
aS'business'
p41
aS'ee'
p42
aS'marketing'
p43
aS'analytics'
p44
aS'design'
p45
aS'communication'
p46
asS'education'
p47
(lp48
VBachelor
p49
aVMaster
p50
asS'responsibility'
p51
(lp52
S'development'
p53
aS'information'
p54
aVinsight
p55
aS'analysis'
p56
aS'analytic'
p57
aS'optimization'
p58
aS'design'
p59
aS'recommendation'
p60
aS'understand'
p61
aS'implement'
p62
aS'presentation'
p63
aS'model'
p64
as.