(dp1
S'background'
p2
I1
sS'nosql'
p3
I1
sS'demand'
p4
I2
sS'dynamic'
p5
I1
sS'competitive'
p6
I1
sS'hadoop'
p7
I1
sS'analysts.'
p8
I1
sS'executing'
p9
I1
sS'employer.'
p10
I1
sS'transforms'
p11
I1
sS'aspect'
p12
I1
sS'fairness'
p13
I1
sS'skill'
p14
I2
sS'delivers'
p15
I2
sS'data quality'
p16
I1
sS'r d'
p17
I1
sS'extra'
p18
I1
sS'based'
p19
I2
sS'monitor'
p20
I1
sS'also'
p21
I1
sS'thinking'
p22
I1
sS'fix'
p23
I1
sS'redshift'
p24
I1
sS'distributed'
p25
I1
sS'advancement'
p26
I1
sS'environment'
p27
I1
sS'source'
p28
I1
sS'team.'
p29
I1
sS'production'
p30
I1
sS'field.'
p31
I1
sS'401'
p32
I1
sS'technological'
p33
I1
sS'employee'
p34
I3
sS'extensive'
p35
I1
sS'include'
p36
I2
sS'defining'
p37
I1
sS'computer science'
p38
I2
sS'usable'
p39
I1
sS'premium'
p40
I1
sS'downstream'
p41
I2
sS'python'
p42
I1
sS'diagnosing'
p43
I1
sS'overall'
p44
I1
sS'serviceshboand'
p45
I1
sS'preferred'
p46
I1
sS'commitment'
p47
I1
sS'qualified'
p48
I1
sS"you've"
p49
I1
sS'closely'
p50
I1
sS'upstream'
p51
I1
sS'feature'
p52
I1
sS'product'
p53
I1
sS'matched'
p54
I1
sS'data modeling'
p55
I1
sS'workload'
p56
I1
sS'bs/ms/phd'
p57
I1
sS'workforce.'
p58
I1
sS'issue'
p59
I1
sS'mapreduce'
p60
I1
sS'hive'
p61
I1
sS'summary'
p62
I1
sS'benefit'
p63
I2
sS'underlying'
p64
I1
sS'excellence'
p65
I1
sS'architecture'
p66
I1
sS'team'
p67
I2
sS'end-to-end'
p68
I1
sS'passionate'
p69
I1
sS'noted'
p70
I1
sS'vision'
p71
I2
sS'pain'
p72
I1
sVrequirement
p73
I1
sS'gender'
p74
I2
sS'mental'
p75
I1
sS'verbal'
p76
I1
sS'national'
p77
I1
sS'committed'
p78
I1
sS'youtu.be'
p79
I1
sS'related'
p80
I1
sS'presentation'
p81
I1
sS'offer'
p82
I1
sVservice
p83
I2
sS'curious'
p84
I1
sS'harassment'
p85
I1
sS'employment'
p86
I1
sS'needs.'
p87
I1
sS'detect'
p88
I1
sS'marts.'
p89
I1
sS'http'
p90
I1
sS'availability'
p91
I1
sS'looking'
p92
I1
sS'religion'
p93
I1
sS'written'
p94
I1
sS'race'
p95
I1
sS'various'
p96
I1
sS'web services'
p97
I1
sS'innovation'
p98
I1
sS'new'
p99
I1
sS'amazon web services aws'
p100
I1
sS'numerous'
p101
I1
sS'across'
p102
I1
sS'minimal'
p103
I1
sS'performant'
p104
I1
sS'teradata'
p105
I1
sS'processing'
p106
I1
sS'distributed computing'
p107
I1
sS'business'
p108
I1
sS'dental'
p109
I1
sS'attention'
p110
I1
sS'data scientist'
p111
I1
sS'24-hour'
p112
I1
sS'tuition'
p113
I1
sS'continuously'
p114
I1
sS'key'
p115
I1
sS'cinemax.'
p116
I1
sS'strong'
p117
I3
sS'optimize'
p118
I1
sS'improve'
p119
I1
sS'box'
p120
I1
sS'great'
p121
I1
sS'reimbursement.'
p122
I1
sS'talented'
p123
I1
sS'//www.youtube.com/watch'
p124
I1
sS'k'
I1
sS'basis'
p125
I1
sS'programming'
p126
I2
sS'equal'
p127
I1
sS'experience'
p128
I4
sS'etc'
p129
I1
sS'data analytics'
p130
I2
sVqualification
p131
I1
sS'logic'
p132
I1
sS'warehouse/data'
p133
I1
sS'expression'
p134
I1
sS'create'
p135
I1
sS'etl'
p136
I2
sS'origin'
p137
I1
sS'point'
p138
I1
sS'color'
p139
I1
sS'communication'
p140
I1
sS'data science'
p141
I2
sS'skilled'
p142
I1
sS'intelligence analysis'
p143
I1
sS'primary'
p144
I1
sS'retaining'
p145
I1
sS'flexibility'
p146
I1
sS'cross-functional'
p147
I1
sS'categories.'
p148
I1
sS'equity'
p149
I1
sS'trust'
p150
I1
sS'gosm'
p151
I2
sS'0 year'
p152
I2
sS'data mining'
p153
I3
sS'sexual'
p154
I1
sS'commuter'
p155
I1
sS'working'
p156
I4
sS'platform'
p157
I1
sS'spending'
p158
I1
sS'extremely'
p159
I1
sS'support'
p160
I2
sS'placing'
p161
I1
sS'design/build/maintain'
p162
I1
sS'two'
p163
I1
sS'disability'
p164
I1
sS'priority'
p165
I1
sS'genetic'
p166
I1
sS'program'
p167
I1
sS'asset'
p168
I1
sS'hd.'
p169
I1
sS'knowledge'
p170
I1
sS'applicable'
p171
I1
sS'diversity'
p172
I1
sS'valued.'
p173
I1
sS'recruiting'
p174
I1
sS'successful'
p175
I1
sS'company'
p176
I3
sS'acquire'
p177
I1
sS'hbo'
p178
I11
sS'mpp/columnar'
p179
I1
sS'excellent'
p180
I1
sS'worked'
p181
I1
sS'marital'
p182
I1
sS'effort'
p183
I2
sS'must'
p184
I1
sS'television'
p185
I2
sS'join'
p186
I1
sS'work'
p187
I2
sS'business intelligence'
p188
I1
sS'data architecture'
p189
I1
sS'record'
p190
I1
sS'architect'
p191
I1
sS'v'
I1
sS'growing'
p192
I1
sS'meet'
p193
I1
sS'age'
p194
I1
sS'scripting'
p195
I1
sS'applicant'
p196
I2
sS'pre-emptively'
p197
I1
sS'orientation'
p198
I1
sS'process'
p199
I2
sS'data science analytics'
p200
I1
sS'contribute'
p201
I1
sS'pig'
p202
I1
sS'motivated'
p203
I1
sS'player'
p204
I1
sS'engineering'
p205
I1
sS'cinemax'
p206
I1
sS'expertise'
p207
I1
sS'home'
p208
I1
sS'partner'
p209
I1
sS'technology'
p210
I2
sS'amazon web services'
p211
I1
sS'tuk52gxjvlq'
p212
I1
sS'physical'
p213
I1
sS'information'
p214
I1
sS'law.'
p215
I1
sS'develop'
p216
I1
sS'advantage'
p217
I1
sS'pay'
p218
I1
sS'make'
p219
I1
sS'comfort'
p220
I1
sS'detail'
p221
I1
sS'write'
p222
I1
sS'vertica'
p223
I1
sS'potential'
p224
I1
sS'role'
p225
I1
sS'take'
p226
I1
sS'online'
p227
I1
sVu
I1
sS'tool'
p228
I1
sS'opportunity'
p229
I1
sS'status'
p230
I1
sS'prohibits'
p231
I1
sS'play'
p232
I1
sS'continues'
p233
I1
sS'multiple'
p234
I1
sS'though'
p235
I1
sS"it's"
p236
I1
sS'office'
p237
I1
sS'effect'
p238
I1
sS'hand'
p239
I1
sS"america's"
p240
I1
sS'plan'
p241
I1
sS'sql'
p242
I1
sS'hbosm'
p243
I1
sS'discriminate'
p244
I1
sS'protected'
p245
I2
sS'data'
p246
I2
sS'flexible'
p247
I1
sS'identity'
p248
I1
sS'recent'
p249
I1
sS'billion'
p250
I1
sS'max'
p251
I1
sS'individual'
p252
I1
sS'database'
p253
I1
sS'medical'
p254
I1
sS'documentation'
p255
I1
sS'well'
p256
I2
sS'maintain'
p257
I1
sVresponsibility
p258
I2
sS'data integration'
p259
I1
sS'stakeholder'
p260
I2
sS'netezza'
p261
I1
sS'organization'
p262
I1
sS'consumer'
p263
I1
sS'latest'
p264
I1
s.