(dp1
S'r d'
p2
I1
sS'excellent'
p3
I1
sS'existing'
p4
I1
sS'bring'
p5
I1
sS'manager'
p6
I2
sS'big data analytics'
p7
I2
sS'candidate'
p8
I2
sS'agile'
p9
I1
sS'now.'
p10
I1
sS'distributed'
p11
I2
sS'written'
p12
I1
sS'platform'
p13
I4
sS'travelling'
p14
I1
sS'tb'
p15
I1
sS'408'
p16
I1
sS'collaborate'
p17
I1
sS'big'
p18
I1
sS'practices.'
p19
I1
sS'practice'
p20
I1
sS'scalable'
p21
I1
sS'competing'
p22
I1
sS'using'
p23
I1
sS'kafka'
p24
I1
sS'desire'
p25
I1
sS'regarding'
p26
I1
sS'resource'
p27
I1
sS'like'
p28
I3
sS'hive'
p29
I1
sS'email'
p30
I1
sS'team'
p31
I4
sS'data analytics'
p32
I2
sS'requirement'
p33
I1
sS'verbal'
p34
I1
sS'testing'
p35
I1
sS'reduce'
p36
I1
sS"bachelor's"
p37
I1
sS'design'
p38
I2
sS'enhancement'
p39
I1
sS'best'
p40
I1
sS'scale'
p41
I1
sS'degree'
p42
I1
sS'lead'
p43
I1
sS'4+ year'
p44
I1
sS'managing'
p45
I1
sS'posse'
p46
I1
sS'please'
p47
I1
sS'looking'
p48
I1
sS'ssis'
p49
I1
sS'architect'
p50
I2
sS'equivalent'
p51
I1
sS'ability'
p52
I1
sS'80-100'
p53
I1
sS'data scientist'
p54
I1
sS'informatica'
p55
I1
sS'processing'
p56
I2
sS'commercial'
p57
I1
sS'supervision.'
p58
I1
sS'delivering'
p59
I1
sS'key'
p60
I1
sS'spark'
p61
I1
sS'strong'
p62
I1
sS'software development'
p63
I1
sS'skills.'
p64
I1
sS'big data'
p65
I2
sS'technical'
p66
I1
sS'experience'
p67
I11
sS'prita'
p68
I2
sS'fulltime'
p69
I1
sS'mentor'
p70
I1
sVqualification
p71
I1
sS'etl'
p72
I1
sS'software'
p73
I1
sS'redshift'
p74
I1
sS'600-2007'
p75
I1
sS'test driven development'
p76
I1
sS'flexibility'
p77
I1
sS'frameworks.'
p78
I1
sS'apply'
p79
I1
sS'emr'
p80
I1
sS'engineer'
p81
I2
sS'little'
p82
I1
sS'working'
p83
I3
sS'capable'
p84
I1
sS'data'
p85
I4
sS'support'
p86
I1
sS'system'
p87
I1
sS'.'
I1
sS'priority'
p88
I1
sS'maintenance'
p89
I1
sS'organization.'
p90
I1
sS'define'
p91
I1
sS'flume'
p92
I1
sS'enable'
p93
I1
sS'impress'
p94
I1
sS'improvement.'
p95
I1
sS'phone'
p96
I1
sS'environment.'
p97
I1
sS'data processing'
p98
I1
sS'automated'
p99
I1
sS'reqroute.com'
p100
I1
sS'scrum/agile'
p101
I1
sS'must'
p102
I1
sS'multi'
p103
I1
sS'join'
p104
I1
sS'developing'
p105
I1
sS'work'
p106
I1
sS'solutions.'
p107
I2
sS'ongoing'
p108
I1
sS'providing'
p109
I1
sS'etc.'
p110
I3
sS'communication skills'
p111
I1
sS'ec2'
p112
I1
sS'business intelligence analytics'
p113
I1
sS'continuous improvement'
p114
I1
sS'shark'
p115
I1
sS'willingness'
p116
I1
sS'ee computer science'
p117
I1
sS'experience.'
p118
I1
sS'recommendation'
p119
I1
sS'influence'
p120
I1
sS'pig'
p121
I1
sS'database administration'
p122
I1
sS'business intelligence'
p123
I1
sS'expertise'
p124
I1
sS'technology'
p125
I4
sS'technologies.'
p126
I1
sS'develop'
p127
I1
sS'provide'
p128
I1
sS'-'
I3
sS'hadoop'
p129
I1
sS'member'
p130
I1
sS'ideal'
p131
I1
sVrole
p132
I1
sS'computer science'
p133
I2
sS'warehouse'
p134
I1
sS'talend'
p135
I1
sS'10+ year'
p136
I1
sS'nice'
p137
I1
sS'development'
p138
I4
sS'map'
p139
I1
sS'product'
p140
I2
sS'multiple'
p141
I1
sS'large data set'
p142
I1
sS'aws'
p143
I1
sS'driven'
p144
I1
sS'shukla'
p145
I1
sS'products.'
p146
I1
sS'user'
p147
I1
sS'significant'
p148
I1
sS'oozie'
p149
I1
sS'methodologies.'
p150
I1
sS'hands-on'
p151
I3
sS'building'
p152
I2
sS'platforms.'
p153
I1
sS's3'
p154
I1
sS'client'
p155
I1
sVresponsibility
p156
I1
sS'enterprise'
p157
I1
sS'netezza'
p158
I1
sS'position'
p159
I1
s.