(dp1
S'concept'
p2
I1
sS'data scientist'
p3
I1
sS'help'
p4
I1
sS'nosql'
p5
I2
sS'certification'
p6
I1
sVinsight
p7
I1
sS'dynamic'
p8
I1
sS'mission'
p9
I2
sS'assigned'
p10
I1
sS'bring'
p11
I1
sS'manager'
p12
I1
sS'skill'
p13
I2
sS'creative'
p14
I1
sS'data'
p15
I12
sS'developer'
p16
I3
sS'candidate'
p17
I1
sS'implementation'
p18
I1
sS'guidance'
p19
I1
sS'r d'
p20
I1
sS'resolving'
p21
I1
sS'platform'
p22
I1
sS'expertise.'
p23
I1
sS'communication'
p24
I1
sS'presentation'
p25
I1
sS'achieve'
p26
I1
sS'real'
p27
I1
sS'risk'
p28
I1
sS'big'
p29
I7
sS'background'
p30
I1
sS'counsel'
p31
I1
sS'space.'
p32
I1
sS'finding'
p33
I1
sS'closely'
p34
I1
sS'deployment'
p35
I1
sS'using'
p36
I1
sS'customer experience'
p37
I1
sS'desire'
p38
I2
sS'issue'
p39
I1
sS'solution'
p40
I6
sS'capability'
p41
I1
sS'team'
p42
I2
sS'mpp'
p43
I1
sS'requirement'
p44
I1
sS'art'
p45
I1
sS'problem solving'
p46
I1
sS'customer-focused'
p47
I1
sS'consistent'
p48
I1
sS'testing'
p49
I1
sS'staying'
p50
I1
sS'best'
p51
I1
sS'inspire.'
p52
I1
sVu
I1
sS'giving'
p53
I1
sS'consultative'
p54
I1
sS'consistently'
p55
I1
sS'critical'
p56
I1
sS'designing'
p57
I1
sS'new'
p58
I1
sS'approach'
p59
I1
sS'across'
p60
I1
sS'supporting'
p61
I1
sS'ability'
p62
I1
sS'business'
p63
I1
sS'timeline'
p64
I1
sS'deliver'
p65
I3
sS'business analytics'
p66
I2
sS'implementing'
p67
I1
sS'focused'
p68
I2
sS'100'
p69
I1
sS'strong'
p70
I1
sS'improve'
p71
I1
sS'training'
p72
I1
sS'providing'
p73
I2
sS'talent'
p74
I1
sS'working'
p75
I1
sS'receive'
p76
I1
sS'completing'
p77
I2
sS'according'
p78
I1
sS'experience'
p79
I3
sS'3+'
p80
I1
sS'thinking'
p81
I1
sVqualification
p82
I1
sS'leading'
p83
I1
sS'mentoring'
p84
I1
sS'data integration'
p85
I1
sS'5+ year'
p86
I1
sS'consulting'
p87
I3
sS'whole.'
p88
I1
sS'grade'
p89
I1
sS'overview'
p90
I1
sS'data science'
p91
I2
sS'authenticity'
p92
I1
sS'functional'
p93
I1
sS'demonstrable'
p94
I1
sS'highly'
p95
I1
sS'appropriate'
p96
I1
sS'data warehousing'
p97
I1
sS'learning'
p98
I1
sS'table'
p99
I1
sS'scoping'
p100
I1
sS'big data'
p101
I2
sS'quality'
p102
I2
sS'intersys'
p103
I3
sS'management'
p104
I4
sS'fields.'
p105
I1
sS'service'
p106
I3
sS'value.'
p107
I1
sS'support'
p108
I1
sS'trend'
p109
I1
sS'collaborating'
p110
I1
sS'expected'
p111
I1
sS'architect'
p112
I1
sS'meeting'
p113
I1
sS'store'
p114
I1
sS'define'
p115
I1
sS'enable'
p116
I1
sS'maintenance'
p117
I1
sS'relationship'
p118
I1
sS'business problem'
p119
I1
sS'relevant'
p120
I1
sS'tool'
p121
I2
sS'delivery'
p122
I1
sS'environment.'
p123
I1
sS'excellent'
p124
I1
sS'highest'
p125
I1
sS'analyst'
p126
I1
sS'case'
p127
I1
sS'hire'
p128
I1
sS'look'
p129
I2
sVdatabase
p130
I1
sS'hands-on'
p131
I1
sS'budget'
p132
I1
sS'project'
p133
I3
sS'technical'
p134
I2
sS'ongoing'
p135
I2
sS'data management'
p136
I1
sS'learn'
p137
I1
sS'mitigating'
p138
I1
sS'voice'
p139
I1
sS'similar'
p140
I1
sS'application development'
p141
I1
sS'business intelligence analytics'
p142
I1
sS'science.'
p143
I1
sS'partnership'
p144
I1
sS'deep'
p145
I1
sS'business intelligence'
p146
I1
sS'education'
p147
I1
sS'technology'
p148
I3
sS'clearly'
p149
I1
sS'technologies.'
p150
I1
sS'respective'
p151
I1
sS'provide'
p152
I2
sS'hadoop'
p153
I2
sS'member'
p154
I2
sS'amazing'
p155
I1
sS'complex'
p156
I1
sS'build'
p157
I1
sS'objective'
p158
I2
sVresponsibility
p159
I1
sS'development'
p160
I1
sS'product'
p161
I2
sS'multiple'
p162
I1
sS'communicating'
p163
I1
sS'collaboration'
p164
I1
sS'enterprise'
p165
I1
sS'never-ending'
p166
I1
sS'expectation'
p167
I1
sS'warehouse'
p168
I1
sS'plan'
p169
I1
sS'significant'
p170
I1
sS'organization'
p171
I2
sS'date'
p172
I1
sS'frequently'
p173
I1
sS'authentic'
p174
I1
sS'building'
p175
I3
sS'ten year'
p176
I1
sS'framework'
p177
I1
sS'proud'
p178
I1
sS'well'
p179
I1
sS'managing'
p180
I1
sS'client'
p181
I7
sS'solve'
p182
I2
sS'cultivating'
p183
I1
sS'time'
p184
I1
sS'professional'
p185
I3
sS'build solution'
p186
I1
sS'latest'
p187
I2
s.