(dp1
S'sector'
p2
I1
sS'considered.'
p3
I1
sS'tibco'
p4
I1
sS'please'
p5
I1
sS'executive'
p6
I1
sS'forecasting'
p7
I1
sS'tableau'
p8
I1
sS'scientist'
p9
I1
sS'confidence.'
p10
I1
sS'skill'
p11
I1
sS'bain'
p12
I1
sS'business intelligence'
p13
I1
sS'group'
p14
I2
sS'monitor'
p15
I1
sS'candidate'
p16
I4
sS'field'
p17
I1
sS'cornell'
p18
I1
sS'square'
p19
I3
sS'young'
p20
I1
sS'institution'
p21
I1
sS'charles'
p22
I1
sS'analytic'
p23
I2
sS'critical'
p24
I2
sS'colby'
p25
I1
sS'top-tier'
p26
I1
sS'cray'
p27
I1
sS'dartmouth'
p28
I1
sS'world.'
p29
I1
sS'lake'
p30
I1
sS'smart'
p31
I1
sS'global'
p32
I1
sS'around'
p33
I1
sS'get'
p34
I1
sS'ksr'
p35
I3
sS'big'
p36
I2
sS'practice'
p37
I1
sS'report'
p38
I1
sS'required.'
p39
I1
sS'mission'
p40
I2
sS'results.'
p41
I1
sS'qualified'
p42
I1
sS'preference'
p43
I2
sS'background'
p44
I1
sS'compass'
p45
I1
sS'oxford'
p46
I1
sS'erp'
p47
I1
sS'highly'
p48
I1
sS'advanced'
p49
I2
sS'.net'
p50
I1
sS'data processing'
p51
I1
sS'bowdoin'
p52
I1
sS'level'
p53
I1
sS'opera'
p54
I2
sS'princeton'
p55
I1
sS'extremely'
p56
I1
sS'solution'
p57
I3
sS'c++'
p58
I1
sS'mit'
p59
I1
sS'large'
p60
I1
sS'banking'
p61
I1
sS'ph.d'
p62
I2
sS'terabyte'
p63
I1
sS'quick'
p64
I1
sS'cmu'
p65
I1
sS'river'
p66
I1
sS'kearney'
p67
I1
sS'predictive analytics'
p68
I2
sS'thinking'
p69
I2
sS'logistics'
p70
I1
sS'r'
I1
sS'desirable.'
p71
I1
sS'financial'
p72
I1
sS'statistical'
p73
I2
sS'intelligence'
p74
I1
sS'national'
p75
I1
sS'related'
p76
I2
sS'individual'
p77
I1
sS'wisconsin'
p78
I1
sVstatistic
p79
I3
sS'kpmg'
p80
I1
sS'dataupia'
p81
I1
sS'endeca'
p82
I1
sS'london.'
p83
I1
sS'established'
p84
I1
sS'data migration'
p85
I1
sVcooper
p86
I1
sS'degree'
p87
I2
sS'deeply'
p88
I1
sS'boutique'
p89
I1
sS'datastage'
p90
I2
sS'learner'
p91
I1
sS'integration'
p92
I1
sS'/'
I2
sS'research'
p93
I3
sS'preferred.'
p94
I1
sS'version'
p95
I1
sS'knightsbridge'
p96
I1
sS'tends'
p97
I1
sS'deloitte'
p98
I1
sS'new'
p99
I1
sS'trillium'
p100
I1
sS'public'
p101
I1
sS'demonstrated'
p102
I1
sS'metadata'
p103
I2
sS'model'
p104
I1
sS'teradata'
p105
I1
sS'processing'
p106
I1
sS'bmartin'
p107
I1
sS'ability'
p108
I1
sS'business'
p109
I1
sS'associate'
p110
I2
sS'ph.d.'
p111
I2
sS'informatica'
p112
I3
sS'martin'
p113
I1
sS'scalability'
p114
I1
sS'delivering'
p115
I2
sS'job'
p116
I1
sS'harvard'
p117
I1
sS'york'
p118
I1
sS'mdex'
p119
I1
sS'strong'
p120
I2
sS'software development'
p121
I1
sS'search'
p122
I1
sS'bates'
p123
I1
sS'big data'
p124
I2
sS'technical'
p125
I1
sS'performance tuning'
p126
I1
sS'programming'
p127
I1
sS'experience'
p128
I4
sS'spss'
p129
I1
sS'prior'
p130
I1
sS'accomplished'
p131
I1
sS'airline'
p132
I1
sS'2+ years'
p133
I1
sS'ernst'
p134
I1
sS'cto'
p135
I1
sS'etl'
p136
I2
sS'wpi'
p137
I1
sS'kendall'
p138
I3
sS'mathematics economics'
p139
I1
sS'consulting'
p140
I5
sS'cambridge'
p141
I1
sS'real-time'
p142
I1
sS'modeling/analytics'
p143
I1
sS'hpc'
p144
I2
sS'distributed computing'
p145
I1
sS'essex'
p146
I1
sS'one'
p147
I1
sS'a.t.'
p148
I1
sS'amherst'
p149
I1
sS'data mining'
p150
I3
sS'rpi'
p151
I1
sS'poc'
p152
I1
sS'specializing'
p153
I1
sS'city'
p154
I1
sS'java'
p155
I1
sS'tuning'
p156
I1
sS'service'
p157
I5
sS'area'
p158
I3
sS'data'
p159
I7
sS'mainframe'
p160
I1
sS'system'
p161
I3
sS'columbia'
p162
I1
sS'.'
I2
sS'telecommunication'
p163
I1
sS'combined'
p164
I2
sS'experience.'
p165
I1
sS'forward'
p166
I1
sS'analytics predictive modeling'
p167
I1
sS'yale'
p168
I1
sS'energy'
p169
I1
sS'williams'
p170
I1
sS'firm'
p171
I4
sS'mining'
p172
I1
sS'mellon'
p173
I1
sS'transportation'
p174
I1
sS'predictive modeling'
p175
I1
sS'datamining'
p176
I1
sS'mckinsey'
p177
I1
sS'company'
p178
I1
sS'benchmark'
p179
I1
sS'immediate'
p180
I1
sS'delivery'
p181
I1
sS'pwc'
p182
I1
sS'reperio'
p183
I2
sS'penn'
p184
I1
sS'ee computer science'
p185
I1
sS'analyst'
p186
I2
sS'vp'
p187
I4
sS'hire'
p188
I1
sS'quantitative'
p189
I3
sS'word'
p190
I1
sS'ibm'
p191
I1
sS'stanford'
p192
I1
sVconsultant
p193
I2
sS'middleware'
p194
I1
sS'work'
p195
I1
sS'hands-on'
p196
I1
sS'recruit'
p197
I1
sS'resume'
p198
I1
sS'data architecture'
p199
I1
sS'institute'
p200
I1
sS'yearsof'
p201
I1
sS'architect'
p202
I2
sS'reperio.com'
p203
I1
sS'dts'
p204
I1
sS'expertise'
p205
I1
sS'doctorate'
p206
I2
sS'etc.'
p207
I4
sS'cloud computing'
p208
I1
sS'strongly'
p209
I1
sS'biotech'
p210
I1
sS'ab'
p211
I1
sS'e.g.'
p212
I2
sS'boston'
p213
I3
sS'management consulting'
p214
I1
sS'engaged'
p215
I1
sS'deep'
p216
I1
sS'emory'
p217
I2
sS'exist'
p218
I1
sS'accenture'
p219
I1
sS'ascential'
p220
I1
sS'allen'
p221
I1
sS'pricewaterhouse'
p222
I1
sS'technology'
p223
I1
sS'inductis'
p224
I1
sS'finance'
p225
I1
sS'sagence'
p226
I1
sS'booz'
p227
I1
sS'computer science mathematics'
p228
I1
sS'brandeis'
p229
I1
sS'high performance computing'
p230
I2
sS'travel'
p231
I1
sS'government'
p232
I1
sS'-'
I1
sS'hadoop'
p233
I1
sS'csc'
p234
I1
sS'graduate'
p235
I1
sS'machine'
p236
I2
sS'also'
p237
I1
sS'ideal'
p238
I1
sS'caltech'
p239
I1
sS'initio'
p240
I1
sS'computer science'
p241
I2
sS'largest'
p242
I1
sS'warehouse'
p243
I1
sS'lexecon'
p244
I1
sS'tool'
p245
I1
sS'computer engineering'
p246
I1
sS'development'
p247
I1
sS'multiple'
p248
I1
sS'sapient'
p249
I1
sS'bruce'
p250
I1
sS'contacted.'
p251
I1
sS'banking finance'
p252
I1
sVm
I1
sS'carnegie'
p253
I1
sS'phd'
p254
I4
sS'director'
p255
I1
sS'database'
p256
I1
sS'gigabyte'
p257
I1
sS'massachusetts'
p258
I1
sS'data analysis'
p259
I2
sS'sql'
p260
I2
sS'president'
p261
I1
sS'data analytics'
p262
I2
sS'opportunity'
p263
I1
sS'parallel'
p264
I1
sVphysic
p265
I3
sS'recent'
p266
I1
sS'building'
p267
I1
sS'volume'
p268
I1
sS'retail'
p269
I2
sS'client-facing'
p270
I1
sS'algorithm'
p271
I1
sS'vice'
p272
I1
sS'considered'
p273
I1
sS'exl'
p274
I2
sS'bcg'
p275
I1
sS'analytics.'
p276
I1
sS'academic'
p277
I1
sS'client'
p278
I3
sS'u'
I1
sS'parallelism'
p279
I1
sS'computer engineering computer science'
p280
I1
sS'enterprise'
p281
I1
sS'netezza'
p282
I1
sS'professional'
p283
I2
sVsa
p284
I2
sS'implementation'
p285
I1
sS'inc.'
p286
I2
s.