(dp1
S'code'
p2
I1
sS'consider'
p3
I2
sS'founder'
p4
I1
sS'executing'
p5
I1
sS'manager'
p6
I4
sS'broader'
p7
I1
sS'resourceful'
p8
I1
sS'disability'
p9
I1
sS'send'
p10
I1
sS'environment'
p11
I1
sS'position.'
p12
I1
sS'data-driven'
p13
I1
sS'advantage'
p14
I2
sS'corp.'
p15
I1
sS'bringing'
p16
I1
sS'gender'
p17
I1
sS'list'
p18
I1
sS'applicable'
p19
I4
sS'race'
p20
I1
sS'team'
p21
I4
sS'enjoy'
p22
I1
sS'consistent'
p23
I1
sS'entities.'
p24
I1
sS'perspective'
p25
I1
sS'rigorous'
p26
I1
sS'highest-impact'
p27
I1
sS'richard'
p28
I1
sVsection
p29
I1
sS'capital'
p30
I19
sS'shared'
p31
I1
sS'increasing'
p32
I1
sS'million'
p33
I1
sS'explosion'
p34
I1
sS'degree'
p35
I1
sS'component'
p36
I1
sS'lgbt'
p37
I1
sVbachelor
p38
I1
sS'humility'
p39
I1
sS'path'
p40
I1
sS'100'
p41
I2
sS'strong'
p42
I1
sS'change'
p43
I2
sS'receive'
p44
I1
sS'experience'
p45
I2
sS'drug-free'
p46
I1
sS'industry.'
p47
I1
sS'named'
p48
I1
sVcampaign
p49
I1
sS'manage'
p50
I1
sS'collaborating'
p51
I1
sS'highly'
p52
I1
sS'3-5 year'
p53
I1
sS'apply'
p54
I1
sS'dreams.'
p55
I1
sS'working'
p56
I3
sS'authorization'
p57
I1
sS'successful'
p58
I1
sS'company'
p59
I4
sS'award'
p60
I1
sS'effort'
p61
I1
sS'customer'
p62
I5
sS'23-a'
p63
I1
sS'work'
p64
I3
sS'advocacy'
p65
I1
sS'9th'
p66
I1
sS'history'
p67
I1
sS'dedicated'
p68
I1
sS'ingenuity'
p69
I1
sS'process'
p70
I1
sS'guarantee'
p71
I1
sS'information'
p72
I3
sS'educational'
p73
I1
sS'united'
p74
I4
sS'goal'
p75
I1
sS'provide'
p76
I3
sS'magazine'
p77
I1
sS'located'
p78
I1
sS'nyc'
p79
I1
sS'simplicity'
p80
I1
sS'product'
p81
I3
sS'designer'
p82
I1
sS'lab'
p83
I1
sS'produce'
p84
I1
sS'law'
p85
I3
sS'ambiguous'
p86
I1
sS'credit cards'
p87
I1
sS'6th'
p88
I1
sS'applicant'
p89
I3
sS'chief'
p90
I1
sS'responsibility'
p91
I3
sS'5 year'
p92
I1
sS'lines-of-business.'
p93
I1
sS'help'
p94
I1
sS'mission'
p95
I1
sS'including'
p96
I2
sS'committed'
p97
I1
sS'still'
p98
I1
sS'avenue'
p99
I1
sS'superior'
p100
I1
sS'group'
p101
I3
sS'criminal'
p102
I4
sS'motivated'
p103
I1
sS'seeking'
p104
I1
sS'ceo'
p105
I1
sS'qualified'
p106
I3
sS'one'
p107
I17
sS'realize'
p108
I1
sS'bank'
p109
I6
sS'equality'
p110
I1
sS'exhibit.'
p111
I1
sS'mode'
p112
I1
sS'reasonable'
p113
I1
sS'fairbank.'
p114
I1
sS'development'
p115
I1
sS'financial'
p116
I2
sS'mental'
p117
I1
sS'marital'
p118
I1
sS'measure'
p119
I1
sS'sexual'
p120
I1
sS'canada'
p121
I2
sS'self-starter'
p122
I1
sS'issue'
p123
I1
sS"one's"
p124
I1
sS'high-performing'
p125
I1
sS'associate'
p126
I2
sS'299'
p127
I1
sS'data scientist'
p128
I1
sS'management'
p129
I1
sS'california'
p130
I1
sS'york'
p131
I6
sS'accommodation'
p132
I1
sS'revolutionary'
p133
I1
sS'accommodations.'
p134
I1
sS'products.'
p135
I1
sVplace
p136
I1
sVqualification
p137
I2
sS'retail'
p138
I1
sS'origin'
p139
I1
sS'strategic'
p140
I1
sS'list.'
p141
I1
sS'approximately'
p142
I1
sVcity
p143
I1
sS'derives'
p144
I1
sS'problem-solvers'
p145
I1
sS'service'
p146
I3
sS'leading'
p147
I1
sS'recruiting'
p148
I2
sS'least'
p149
I1
sS'needed'
p150
I1
sS'regulation'
p151
I1
sS'casework'
p152
I2
sS'exploring'
p153
I1
sS'relationship'
p154
I1
sS'business problem'
p155
I1
sS'tool'
p156
I2
sS'serve'
p157
I1
sS'information-based'
p158
I1
sS'believe'
p159
I1
sS'wide'
p160
I1
sS'15'
p161
I1
sS'require'
p162
I1
sS'project'
p163
I1
sS'protected'
p164
I1
sS'1-800-304-9102'
p165
I1
sS'addressing'
p166
I1
sS'san'
p167
I1
sS'correction'
p168
I1
sVphilippine
p169
I2
sS'comfortable'
p170
I1
sS'manner'
p171
I1
sS'teams.'
p172
I1
sS'cards.'
p173
I1
sS'law.'
p174
I1
sS'veteran'
p175
I1
sS'agency'
p176
I1
sS'-'
I3
sS'contact'
p177
I1
sS'note'
p178
I1
sS'potential'
p179
I1
sS'build'
p180
I1
sS'finding'
p181
I2
sS'performance'
p182
I1
sVphiladelphia
p183
I1
sS'park'
p184
I1
sS'collaboration'
p185
I1
sS'business.'
p186
I1
sS'position'
p187
I4
sS'america'
p188
I1
sS'thought-partners.'
p189
I1
sS'police'
p190
I1
sS'upend'
p191
I1
sS'lines-of-business'
p192
I1
sS'drive'
p193
I1
sS'traditional'
p194
I1
sS'professional'
p195
I1
sS'senior'
p196
I2
sS'one.'
p197
I1
sS'elevate'
p198
I1
sS'r d'
p199
I1
sS'title'
p200
I1
sS'employer'
p201
I1
sS'screening'
p202
I1
sS'rich'
p203
I1
sS'inherited'
p204
I1
sS'local'
p205
I2
sS'achieve'
p206
I1
sS'endorse'
p207
I1
sS'preferred'
p208
I1
sS'closely'
p209
I3
sS'please.'
p210
I1
sS'regarding'
p211
I2
sS'banking'
p212
I6
sS'liable'
p213
I1
sS'maternity'
p214
I1
sS'europe'
p215
I1
sS'requirement'
p216
I1
sS'inventive'
p217
I1
sS'fair'
p218
I2
sS'national'
p219
I2
sS'sex'
p220
I1
sS'culture'
p221
I1
sS'best'
p222
I3
sS'50+-person'
p223
I1
sS'workstreams'
p224
I2
sS'federal'
p225
I2
sS'please'
p226
I3
sVstate
p227
I5
sS'future'
p228
I1
sS'numerous'
p229
I1
sS'email'
p230
I1
sS'thrive'
p231
I1
sS'available'
p232
I1
sS'2 year'
p233
I1
sS'inquiries.'
p234
I1
sS'commercial'
p235
I14
sS'deliver'
p236
I1
sS'analyses.'
p237
I1
sS'job'
p238
I2
sS'succeed'
p239
I1
sS'selectively'
p240
I1
sS'extent'
p241
I2
sS'dedication'
p242
I1
sS'article'
p243
I2
sS'loans.'
p244
I1
sVcareer
p245
I1
sS'equal'
p246
I1
sS'site.'
p247
I1
sS'among'
p248
I1
sS'relevant'
p249
I1
sS'color'
p250
I1
sS'solve'
p251
I1
sS'65'
p252
I1
sS'66'
p253
I1
sS'consideration'
p254
I1
sS'pregnancy'
p255
I1
sS'respect'
p256
I2
sS'technologist'
p257
I1
sS'powered'
p258
I1
sS'create'
p259
I1
sS'strategy'
p260
I9
sS'genetic'
p261
I1
sS'teamwork'
p262
I1
sS'basic'
p263
I1
sS'expected'
p264
I1
sS'management consulting'
p265
I1
sS'define'
p266
I1
sS'direction'
p267
I2
sS'contribute'
p268
I1
sS'diversity'
p269
I1
sS'new'
p270
I8
sS'disruptive'
p271
I1
sS'present'
p272
I1
sS'case'
p273
I1
sS'value'
p274
I2
sS'promotes'
p275
I1
sS'technical'
p276
I1
sS'orientation'
p277
I1
sS'partner'
p278
I1
sS'engages'
p279
I1
sS'technology'
p280
I1
sS'different'
p281
I1
sS'develop'
p282
I1
sS'perform'
p283
I1
sS'identity/assignment'
p284
I1
sS'22957'
p285
I1
sS'complex'
p286
I1
sS'inquiry'
p287
I1
sS'largest'
p288
I2
sS'several'
p289
I1
sS'confidential'
p290
I1
sS'status'
p291
I3
sS'used'
p292
I1
sS'third-party'
p293
I1
sS'workplace.'
p294
I2
sS'000'
p295
I1
sS'opportunity'
p296
I2
sS'recent'
p297
I1
sS'kept'
p298
I1
sS'analysis'
p299
I1
sS'substantive'
p300
I1
sS'without'
p301
I1
sS'thing.'
p302
I1
sVmother
p303
I1
sS'organization'
p304
I1
sS'model'
p305
I1
sS'company.'
p306
I1
sS'guided'
p307
I1
sS'executive'
p308
I1
sS'identify'
p309
I1
sS'human'
p310
I1
sS'succeeding'
p311
I1
sS'grounded'
p312
I1
sS'eager'
p313
I1
sS'location'
p314
I1
sS'capitalone.com'
p315
I2
sS'disrupt'
p316
I1
sS'humanity'
p317
I1
sS'chairman'
p318
I1
sS'kingdom'
p319
I1
sS'quest'
p320
I1
sS'background'
p321
I2
sS'unique'
p322
I1
sS'fortune'
p323
I1
sS'success'
p324
I1
sS'officer'
p325
I1
sS'copssc'
p326
I1
sS'right'
p327
I2
sS'old'
p328
I1
sS'people'
p329
I1
sS'recommendation'
p330
I3
sS'employment'
p331
I3
sS'lead'
p332
I3
sS'religion'
p333
I1
sS'critical'
p334
I1
sS'sponsoring'
p335
I1
sS'innovation'
p336
I8
sS'results.'
p337
I1
sS'leader'
p338
I3
sS'good.'
p339
I1
sS'core'
p340
I1
sS'data analysis'
p341
I2
sS'banking.'
p342
I1
sS'business'
p343
I1
sS'communicate'
p344
I1
sS'chart'
p345
I1
sS'prohibited'
p346
I1
sS'ob'
p347
I1
sS'tbli'
p348
I1
sS'range'
p349
I1
sS'act'
p350
I2
sS'credible'
p351
I1
sS'within'
p352
I2
sS'harness'
p353
I2
sS'succeeding.'
p354
I1
sS'.'
I2
sS'segment'
p355
I1
sS'support'
p356
I1
sS'question'
p357
I2
sS'transform'
p358
I1
sS'way'
p359
I1
sS'forward'
p360
I1
sS'building'
p361
I1
sS'valued.'
p362
I1
sS'regard'
p363
I1
sS'sophisticated'
p364
I1
sS'4901-4920'
p365
I1
sS'promote'
p366
I1
sS'posted'
p367
I3
sVhire
p368
I1
sS'made'
p369
I1
sS'founder-led'
p370
I1
sS'record'
p371
I2
sS'fairbank'
p372
I1
sS'citizenship'
p373
I1
sS'deep'
p374
I1
sS'openness'
p375
I1
sS'physical'
p376
I1
sS'49'
p377
I1
sS'45'
p378
I1
sS'field'
p379
I1
sS'setting'
p380
I1
sS'role'
p381
I1
sS'digital'
p382
I3
sS'francisco'
p383
I1
sS'collaborative'
p384
I1
sS'helping'
p385
I2
sS'chance'
p386
I1
sS'billion'
p387
I1
sS'assume'
p388
I1
sS'age'
p389
I1
sS'required'
p390
I1
sS'together'
p391
I1
sS'recruitingaccommodation'
p392
I1
s.