(dp1
S'skills'
p2
(lp3
S'logistics'
p4
aS'owl'
p5
aS'soc'
p6
aS'r d'
p7
aS'model validation'
p8
aS'ip'
p9
aS'rest'
p10
aS'ant'
p11
aS'engineering'
p12
aS'pricing'
p13
aS'go'
p14
aS'ic'
p15
aS'research'
p16
aS'git'
p17
aS'gis'
p18
aS'scala'
p19
aS'valuation'
p20
aS'writing'
p21
aS'lua'
p22
aS'computer science'
p23
aS'mathematics'
p24
aS'operations research'
p25
aS'pl'
p26
aS'python'
p27
aS'marketing'
p28
aS'javascript'
p29
aS'data scientist'
p30
aS'c'
aS'mpi'
p31
aS'statistics'
p32
aS'sql'
p33
aS'java'
p34
aS'spark'
p35
aS'data'
p36
aS'a'
aS'search'
p37
aS'validation'
p38
aS'erp'
p39
aS'science'
p40
aS'economics'
p41
aS'machine learning'
p42
aS'e-commerce'
p43
aS'r'
aS'dashboard'
p44
aS'organization'
p45
aS'retail'
p46
asS'working-year'
p47
(lp48
S'3+ year'
p49
asS'major'
p50
(lp51
S'computer science operations research'
p52
aS'statistics'
p53
aS'business'
p54
aS'economics math'
p55
aS'statistics economics'
p56
aS'ee'
p57
aS'economics mathematics'
p58
aS'economics'
p59
aS'statistic'
p60
aS'machine learning'
p61
aS'engineering'
p62
aS'computer science'
p63
aS'phd'
p64
aS'marketing'
p65
aS'mathematics'
p66
aS'mathematics computer science'
p67
aS'operations research'
p68
aS'science'
p69
asS'education'
p70
(lp71
VBachelor
p72
aVMaster
p73
aVDoctor
p74
asS'responsibility'
p75
(lp76
S'product'
p77
aS'build dashboard'
p78
aS'business problem'
p79
aS'predict'
p80
aS'extract'
p81
aVinsight
p82
aS'solve problem'
p83
aS'model'
p84
aS'build solution'
p85
aS'evaluation'
p86
as.