(dp1
S'skills'
p2
(lp3
S'a'
aS'c'
aS'ip'
p4
aS'data scientist'
p5
aS'integration'
p6
aS'analytics'
p7
aS'r'
aS'ic'
p8
aS'data'
p9
aS'pl'
p10
asS'working-year'
p11
(lp12
S'0 year'
p13
asS'major'
p14
(lp15
S'ee'
p16
aS'analytics'
p17
aS'design'
p18
asS'education'
p19
(lp20
VMaster
p21
asS'responsibility'
p22
(lp23
S'mine data'
p24
aS'pattern'
p25
aVinsight
p26
aS'product'
p27
aS'analytic'
p28
aS'design'
p29
as.