(dp1
S'skills'
p2
(lp3
S'digital marketing'
p4
aS'consulting'
p5
aS'r d'
p6
aS'owl'
p7
aS'regression analysis'
p8
aS'ip'
p9
aS'chaid'
p10
aS'soc'
p11
aS'rest'
p12
aS'pig'
p13
aS'ant'
p14
aS'analytics'
p15
aS'engineering'
p16
aS'pricing'
p17
aS'go'
p18
aS'modeling'
p19
aS'sas'
p20
aS'accounting'
p21
aS'ic'
p22
aS'strategy'
p23
aS'random forest'
p24
aS'clustering'
p25
aS'vis'
p26
aS'git'
p27
aS'big data'
p28
aS'lua'
p29
aS'predictive modeling'
p30
aS'excel'
p31
aS'hadoop'
p32
aS'research'
p33
aS'cell'
p34
aS'statistica'
p35
aS'rf'
p36
aS'computer science'
p37
aS'communication'
p38
aS'hive'
p39
aS'pl'
p40
aS'econometrics'
p41
aS'segmentation'
p42
aS'envi'
p43
aS'distributed computing'
p44
aS'finance'
p45
aS'python'
p46
aS'marketing'
p47
aS'data scientist'
p48
aS'c'
aS'experimental design'
p49
aS'metrics'
p50
aS'web analytics'
p51
aS'oop'
p52
aS'sql'
p53
aS'regression'
p54
aS'word'
p55
aS'data'
p56
aS'a'
aS'decision analysis'
p57
aS'search'
p58
aS'erp'
p59
aS'cluster'
p60
aS'science'
p61
aS'economics'
p62
aS'education'
p63
aS'analysis'
p64
aS'machine learning'
p65
aS'r'
aS'lte'
p66
aS'organization'
p67
aS'security'
p68
aS'product marketing'
p69
asS'working-year'
p70
(lp71
S'5-10 years'
p72
aS'5 year'
p73
aS'6 year'
p74
aS'8 year'
p75
aS'10 years'
p76
asS'major'
p77
(lp78
S'computing'
p79
aS'ee'
p80
aS'communication'
p81
aS'analytics'
p82
aS'engineering'
p83
aS'design'
p84
aS'finance economics'
p85
aS'statistic'
p86
aS'accounting'
p87
aS'econometrics'
p88
aS'accounting finance'
p89
aS'information'
p90
aS'big data'
p91
aS'computer science'
p92
aS'finance'
p93
aS'business'
p94
aS'marketing'
p95
aVphysic
p96
aS'science'
p97
aS'economics'
p98
aS'machine learning'
p99
aS'applied math'
p100
asS'education'
p101
(lp102
VBachelor
p103
aVMaster
p104
asS'responsibility'
p105
(lp106
S'modeling'
p107
aS'large data set'
p108
aS'product'
p109
aVtest hypothesis
p110
aS'formulate'
p111
aS'business problem'
p112
aS'predict'
p113
aVinsight
p114
aS'communicate'
p115
aS'information'
p116
aS'analysis'
p117
aS'analytic'
p118
aS'design'
p119
aS'recommendation'
p120
aS'report'
p121
aS'understand'
p122
aS'implement'
p123
aS'model'
p124
as.