(dp1
S'skills'
p2
(lp3
S'jira'
p4
aS'r d'
p5
aS'ip'
p6
aS'software design'
p7
aS'analytics'
p8
aS'engineering'
p9
aS'data-driven decision making'
p10
aS'ic'
p11
aS'insurance'
p12
aS'management'
p13
aS'agile'
p14
aS'integration'
p15
aS'envi'
p16
aS'computer science'
p17
aS'innovation'
p18
aS'pl'
p19
aS'asp'
p20
aS'apis'
p21
aS'data scientist'
p22
aS'automation'
p23
aS'modeling'
p24
aS'data'
p25
aS'project management'
p26
aS'a'
aS'ant'
p27
aS'c'
aS'software engineering'
p28
aS'science'
p29
aS'r'
aS'organization'
p30
aS'cro'
p31
asS'working-year'
p32
(lp33
S'0 year'
p34
asS'major'
p35
(lp36
S'information'
p37
aS'management'
p38
aS'software engineering'
p39
aS'business'
p40
aS'ee'
p41
aS'science'
p42
aS'automation'
p43
aS'analytics'
p44
aS'engineering'
p45
aS'design'
p46
aS'computer science'
p47
aS'development practice'
p48
aS'project management'
p49
asS'education'
p50
(lp51
VBachelor
p52
aVMaster
p53
asS'responsibility'
p54
(lp55
S'development'
p56
aS'information'
p57
aS'product'
p58
aS'communicate'
p59
aS'analytic'
p60
aS'design'
p61
aS'ownership'
p62
aS'modeling'
p63
aS'implement'
p64
aS'model'
p65
as.