(dp1
S'skills'
p2
(lp3
S'consulting'
p4
aS'r d'
p5
aS'ip'
p6
aS'management consulting'
p7
aS'soc'
p8
aS'ant'
p9
aS'go'
p10
aS'ic'
p11
aS'education'
p12
aS'quantitative analysis'
p13
aS'git'
p14
aS'gis'
p15
aS'credit'
p16
aS'loans'
p17
aS'recruiting'
p18
aS'envi'
p19
aS'strategy'
p20
aS'rf'
p21
aS'asic'
p22
aS'teamwork'
p23
aS'innovation'
p24
aS'pl'
p25
aS'data analysis'
p26
aS'management'
p27
aS'collaboration'
p28
aS'data scientist'
p29
aS'leadership'
p30
aS'data'
p31
aS'project management'
p32
aS'a'
aS'c'
aS'credit cards'
p33
aS'solver'
p34
aS'analysis'
p35
aS'banking'
p36
aS'r'
aS'organization'
p37
aS'retail'
p38
aS'cro'
p39
asS'working-year'
p40
(lp41
S'5+ year'
p42
aS'2 year'
p43
aS'1 year'
p44
asS'major'
p45
(lp46
S'information'
p47
aS'ece'
p48
aS'management'
p49
aS'business'
p50
aS'ee'
p51
aS'design'
p52
aS'project management'
p53
aS'mis'
p54
aS'law'
p55
aVphysic
p56
aS'history'
p57
asS'education'
p58
(lp59
VBachelor
p60
aVMaster
p61
asS'responsibility'
p62
(lp63
S'development'
p64
aS'information'
p65
aS'product'
p66
aS'data analysis'
p67
aS'business problem'
p68
aS'analysis'
p69
aS'design'
p70
aS'recommendation'
p71
aS'model'
p72
aS'quantitative analysis'
p73
as.