(dp1
S'skills'
p2
(lp3
S'nlp'
p4
aS'soc'
p5
aS'financial markets'
p6
aS'probability'
p7
aS'information extraction'
p8
aS'ant'
p9
aS'sentiment analysis'
p10
aS'engineering'
p11
aS'analysis'
p12
aS'go'
p13
aS'ic'
p14
aS'statistics'
p15
aS'open source'
p16
aS'swift'
p17
aS'mathematica'
p18
aS'research'
p19
aS'pricing'
p20
aS'statistica'
p21
aS'rf'
p22
aS'natural language processing'
p23
aS'pl'
p24
aS'processing'
p25
aS'data scientist'
p26
aS'c'
aS'bloomberg'
p27
aS'java'
p28
aS'data'
p29
aS'a'
aS'search'
p30
aS'software engineering'
p31
aS'ampl'
p32
aS'analytics'
p33
aS'science'
p34
aS'.net'
p35
aS'programming'
p36
aS'c++'
p37
aS'machine learning'
p38
aS'r'
aS'cognition'
p39
aS'cro'
p40
aS'cad'
p41
asS'working-year'
p42
(lp43
S'5+ year'
p44
aS'2+ year'
p45
asS'major'
p46
(lp47
S'information'
p48
aS'statistics'
p49
aS'software engineering'
p50
aS'ee'
p51
aS'science'
p52
aS'statistic'
p53
aS'mba'
p54
aS'machine learning'
p55
aS'analytics'
p56
aS'engineering'
p57
aS'design'
p58
aS'natural language processing'
p59
aS'probability statistics'
p60
asS'education'
p61
(lp62
VBachelor
p63
aVMaster
p64
asS'responsibility'
p65
(lp66
S'information'
p67
aS'product'
p68
aS'processing'
p69
aS'analysis'
p70
aS'analytic'
p71
aS'design'
p72
aS'model'
p73
aS'extract'
p74
as.