(dp1
S'externally'
p2
I1
sS'selection'
p3
I1
sS'protocol'
p4
I1
sS'r d'
p5
I1
sS'global'
p6
I2
sS'existing'
p7
I1
sS'assigned'
p8
I1
sS'manager'
p9
I2
sS'managers.'
p10
I2
sS'including'
p11
I2
sS'statistical'
p12
I1
sS'skill'
p13
I1
sS'retention'
p14
I1
sS'qualifications/experience'
p15
I1
sS'group'
p16
I1
sS'monitor'
p17
I1
sS'field'
p18
I1
sS'implementation'
p19
I1
sS'disability'
p20
I1
sS'written'
p21
I1
sS'measurement-related'
p22
I1
sS'team.'
p23
I1
sS'//prophase.com/'
p24
I1
sS'wirb-copernicus'
p25
I1
sS'include'
p26
I1
sS'cumulative'
p27
I1
sS'data entry'
p28
I1
sS'//www.wcgclinical.com/'
p29
I1
sS'dm'
p30
I7
sS'risk'
p31
I1
sS'outlined'
p32
I1
sS'innovation'
p33
I1
sS'data collection'
p34
I2
sS'spss'
p35
I1
sS'report'
p36
I1
sS'using'
p37
I1
sS'execution'
p38
I1
sS'employer.'
p39
I1
sS'internally'
p40
I1
sS'investigator'
p41
I1
sS'troubleshoot'
p42
I1
sS'solution'
p43
I1
sS'specific'
p44
I1
sS'quality control'
p45
I1
sS'uploads'
p46
I1
sS'activity'
p47
I1
sS'apply.'
p48
I1
sVcro
p49
I1
sS'system'
p50
I1
sVrequirement
p51
I2
sS'maximize'
p52
I1
sS'problem'
p53
I1
sS'related'
p54
I1
sS'individual'
p55
I1
sVsponsor
p56
I5
sS'measurement'
p57
I1
sS'http'
p58
I2
sS'regionally'
p59
I1
sS'social sciences'
p60
I1
sS'encouraged'
p61
I1
sS'preparation'
p62
I1
sS'scale'
p63
I1
sS'lead'
p64
I1
sS'procedures.'
p65
I2
sS'managing'
p66
I1
sS'review'
p67
I1
sS'please'
p68
I1
sS'preferred.'
p69
I1
sS'contained'
p70
I1
sS'version'
p71
I1
sS'provider'
p72
I1
sS'new'
p73
I1
sS'adaptive'
p74
I1
sS'previous'
p75
I1
sS'approach'
p76
I1
sS'method'
p77
I1
sS'supporting'
p78
I1
sS'processing'
p79
I1
sS'ability'
p80
I1
sS'degree'
p81
I2
sS'schedule'
p82
I2
sS'risk-based'
p83
I1
sS'team'
p84
I1
sS'deliver'
p85
I1
sS'ideal.'
p86
I1
sS'implementing'
p87
I1
sS'operating'
p88
I1
sS'dedication'
p89
I1
sS'requirements.'
p90
I1
sS'likelihood'
p91
I1
sS'optimize'
p92
I1
sS'improve'
p93
I2
sS'support.'
p94
I1
sS'training'
p95
I1
sS'trials.'
p96
I2
sS'deliverables.'
p97
I1
sS'multi-center'
p98
I1
sS'study'
p99
I8
sS'equal'
p100
I1
sS'experience'
p101
I2
sS'essential'
p102
I1
sS'english'
p103
I1
sS'trial'
p104
I4
sS'information system'
p105
I1
sS'ensure'
p106
I3
sS'qualification'
p107
I1
sS'social'
p108
I1
sS'implement'
p109
I2
sS'adapted'
p110
I1
sS'create'
p111
I1
sS'restructures'
p112
I1
sS'protocol.'
p113
I1
sS'evidence-based'
p114
I1
sS'partnering'
p115
I1
sS'communication'
p116
I1
sS'data science'
p117
I2
sS'collaborating'
p118
I1
sS'primary'
p119
I1
sS'highly'
p120
I1
sS'flexibility'
p121
I1
sS'least'
p122
I1
sS'primarily'
p123
I1
sS'microsoft excel'
p124
I1
sS'quality'
p125
I1
sS'use'
p126
I1
sS'management'
p127
I6
sS'service'
p128
I2
sS'psychometric'
p129
I1
sS'support'
p130
I2
sS'visit'
p131
I1
sS'transform'
p132
I1
sS'specifically'
p133
I1
sS'.'
I1
sS'needed'
p134
I1
sS'confirming'
p135
I1
sS'clinical'
p136
I6
sS'rater'
p137
I1
sS'maintenance'
p138
I2
sS'collected'
p139
I1
sS'knowledge'
p140
I3
sS'data management'
p141
I1
sS'website'
p142
I1
sS'software'
p143
I1
sS'ecoa'
p144
I1
sS'success.'
p145
I1
sS'initiated'
p146
I1
sS'distribution'
p147
I1
sS'concerning'
p148
I1
sS'sciences.'
p149
I1
sS'specialty'
p150
I1
sS'validity'
p151
I1
sS'veteran'
p152
I1
sS'ensuring'
p153
I1
sS'transfers.'
p154
I1
sS'excellent'
p155
I1
sS'prophase'
p156
I1
sS'editing'
p157
I1
sS'applies'
p158
I1
sS'databases.'
p159
I1
sS'directed'
p160
I1
sS'structure.'
p161
I1
sS'endpoint'
p162
I2
sS'communicate'
p163
I2
sS'science'
p164
I2
sS'work'
p165
I2
sS'budget'
p166
I1
sS'duties/responsibilities'
p167
I1
sS'project'
p168
I2
sS'record'
p169
I1
sS'one year'
p170
I1
sS'neurocognitive'
p171
I1
sS'non-deliverable'
p172
I1
sS'learn'
p173
I2
sS'meet'
p174
I1
sS'stakeholders.'
p175
I1
sS'outcome'
p176
I2
sS'pertain'
p177
I1
sS'procedure'
p178
I2
sS'result'
p179
I1
sS'control'
p180
I2
sS'required'
p181
I1
sS'activities.'
p182
I1
sS'file'
p183
I3
sS'willingness'
p184
I1
sS'process'
p185
I1
sS'start-up'
p186
I1
sS'measure'
p187
I1
sS'site'
p188
I2
sS'gcp'
p189
I1
sS'female'
p190
I1
sS'collaborate'
p191
I1
sS'statistical analysis'
p192
I1
sS'study-specific'
p193
I2
sS'studies.'
p194
I2
sS'need'
p195
I2
sS'education'
p196
I1
sS'complete'
p197
I1
sS'information'
p198
I1
sS'data.'
p199
I1
sS'goal'
p200
I1
sS'provide'
p201
I1
sS'travel'
p202
I1
sS'responsible'
p203
I1
sS'storage'
p204
I1
sS'surveillance'
p205
I1
sS'member'
p206
I1
sS'necessary'
p207
I1
sS'role'
p208
I1
sS'take'
p209
I1
sS'teams.'
p210
I1
sS'document'
p211
I2
sS'opportunity'
p212
I1
sS'status'
p213
I1
sS"bachelor's"
p214
I1
sS'multiple'
p215
I1
sVminority
p216
I1
sS'collaboration'
p217
I1
sS'assist'
p218
I2
sS'director'
p219
I2
sS'ich'
p220
I1
sS'plan'
p221
I4
sS'coverage'
p222
I1
sS'organization'
p223
I1
sS'data'
p224
I14
sS'structure'
p225
I1
sS'clinical trials'
p226
I1
sS'mitigate'
p227
I1
sS'database'
p228
I5
sS'industry'
p229
I1
sS'medical'
p230
I1
sS'documentation'
p231
I2
sS'flow'
p232
I1
sS'customized'
p233
I1
sS'analysis'
p234
I1
sS'deliverable'
p235
I1
sS'maintain'
p236
I2
sS'behavioral'
p237
I1
sS'coordinate'
p238
I1
sS'entry'
p239
I1
sVsa
p240
I1
sS'validation'
p241
I2
sS'oral'
p242
I1
s.