(dp1
S'skills'
p2
(lp3
S'consulting'
p4
aS'nosql'
p5
aS'ip'
p6
aS'data science'
p7
aS'rest'
p8
aS'ant'
p9
aS'vis'
p10
aS'engineering'
p11
aS'data analysis'
p12
aS'statistical analysis'
p13
aS'mysql'
p14
aS'ic'
p15
aS'insurance'
p16
aS'visualization'
p17
aS'technical leadership'
p18
aS'statistics'
p19
aS'java'
p20
aS'big data'
p21
aS'solr'
p22
aS'hadoop'
p23
aS'statistica'
p24
aS'ssis'
p25
aS'computer science'
p26
aS'natural language processing'
p27
aS'pl'
p28
aS'envi'
p29
aS'hbase'
p30
aS'python'
p31
aS'processing'
p32
aS'data scientist'
p33
aS'c'
aS'leadership'
p34
aS'oop'
p35
aS'sql'
p36
aS'spark'
p37
aS'data'
p38
aS'a'
aS'search'
p39
aS'erp'
p40
aS'science'
p41
aS'programming'
p42
aS'analysis'
p43
aS'machine learning'
p44
aS'r'
aS'oracle'
p45
aS'management'
p46
aS'scripting'
p47
asS'working-year'
p48
(lp49
S'3 - 5 year'
p50
aS'5 year'
p51
asS'major'
p52
(lp53
S'management'
p54
aS'business'
p55
aS'big data'
p56
aS'ee'
p57
aS'science'
p58
aS'data science'
p59
aS'statistic'
p60
aS'computer science statistics'
p61
aS'machine learning'
p62
aS'engineering'
p63
aS'statistics'
p64
aS'design'
p65
aS'computer science'
p66
aS'natural language processing'
p67
aS'ee computer science'
p68
asS'education'
p69
(lp70
VBachelor
p71
aVMaster
p72
asS'responsibility'
p73
(lp74
S'development'
p75
aS'data analysis'
p76
aS'processing'
p77
aS'mapping'
p78
aS'analysis'
p79
aS'understand'
p80
aS'design'
p81
aS'extract'
p82
as.