(dp1
S'skills'
p2
(lp3
S'research design'
p4
aS'owl'
p5
aS'soc'
p6
aS'convex optimization'
p7
aS'political science'
p8
aS'cell'
p9
aS'ip'
p10
aS'data science'
p11
aS'testing'
p12
aS'communication'
p13
aS'reinforcement learning'
p14
aS'causal inference'
p15
aS'ant'
p16
aS'cluster'
p17
aS'engineering'
p18
aS'hive'
p19
aS'go'
p20
aS'ic'
p21
aS'research'
p22
aS'sem'
p23
aS'r d'
p24
aS'clustering'
p25
aS'visualization'
p26
aS'git'
p27
aS'java'
p28
aS'scala'
p29
aS'deep learning'
p30
aS'mathematica'
p31
aS'excel'
p32
aS'hadoop'
p33
aS'writing'
p34
aS'control theory'
p35
aS'statistica'
p36
aS'rf'
p37
aS'optimization'
p38
aS'computer science'
p39
aS'visio'
p40
aS'teaching'
p41
aS'pl'
p42
aS'envi'
p43
aS'theory'
p44
aS'python'
p45
aS'marketing'
p46
aS'innovation'
p47
aS'data scientist'
p48
aS'c'
aS'mpi'
p49
aS'oop'
p50
aS'statistical modeling'
p51
aS'mathematics'
p52
aS'modeling'
p53
aS'spark'
p54
aS'bayesian inference'
p55
aS'data'
p56
aS'a'
aS'search'
p57
aS'fraud'
p58
aS'vis'
p59
aS'statistical analysis'
p60
aS'science'
p61
aS'applied mathematics'
p62
aS'economics'
p63
aS'programming'
p64
aS'analysis'
p65
aS'machine learning'
p66
aS'r'
aS'product innovation'
p67
aS'advertising'
p68
aS'experimental design'
p69
aS'root'
p70
aS'cro'
p71
aS'scripting'
p72
aS'cad'
p73
asS'working-year'
p74
(lp75
S'5 + years'
p76
aS'2+ years'
p77
asS'major'
p78
(lp79
S'ee'
p80
aS'communication'
p81
aS'data science'
p82
aS'reinforcement learning'
p83
aS'general'
p84
aS'engineering'
p85
aS'design'
p86
aS'statistic'
p87
aS'machine learning'
p88
aS'computer science'
p89
aS'mathematics'
p90
aS'business'
p91
aS'marketing'
p92
aS'phd'
p93
aS'political science'
p94
aVphysic
p95
aS'economics political science'
p96
aS'science'
p97
aS'applied mathematics'
p98
aS'economics'
p99
aS'machine learning engineer'
p100
aS'applied math'
p101
asS'education'
p102
(lp103
VBachelor
p104
aVMaster
p105
aVDoctor
p106
asS'responsibility'
p107
(lp108
S'product'
p109
aS'business problem'
p110
aVinsight
p111
aS'communicate'
p112
aS'construct'
p113
aS'statistical model'
p114
aS'optimization'
p115
aS'design'
p116
aS'analysis'
p117
aS'modeling'
p118
aS'understand'
p119
aS'model'
p120
aS'prototype'
p121
as.