(dp1
S'skills'
p2
(lp3
S'owl'
p4
aS'nosql'
p5
aS'rest'
p6
aS'analytics'
p7
aS'engineering'
p8
aS'statistical analysis'
p9
aS'go'
p10
aS'ic'
p11
aS'research'
p12
aS'random forest'
p13
aS'access'
p14
aS'gis'
p15
aS'big data'
p16
aS'scala'
p17
aS'deep learning'
p18
aS'predictive modeling'
p19
aS'hadoop'
p20
aVpanda
p21
aS'big data analytics'
p22
aS'statistica'
p23
aS'optimization'
p24
aS'computer science'
p25
aS'advanced analytics'
p26
aS'mathematics'
p27
aS'pandas'
p28
aS'pl'
p29
aS'government'
p30
aS'python'
p31
aS'data scientist'
p32
aS'c'
aS'oop'
p33
aS'sql'
p34
aS'regression'
p35
aS'modeling'
p36
aS'spark'
p37
aS'data'
p38
aS'a'
aS'search'
p39
aS'word'
p40
aS'science'
p41
aS'scikit-learn'
p42
aS'analysis'
p43
aS'machine learning'
p44
aS'r'
aS'logistic regression'
p45
aS'databases'
p46
aS'data analytics'
p47
aS'cad'
p48
asS'working-year'
p49
(lp50
S'0 year'
p51
asS'major'
p52
(lp53
S'business'
p54
aS'big data'
p55
aS'computing'
p56
aS'ee'
p57
aS'science'
p58
aS'machine learning'
p59
aS'big data analytics'
p60
aS'analytics'
p61
aS'engineering'
p62
aS'computer science'
p63
aS'statistic'
p64
aS'advanced analytics'
p65
aS'mathematics'
p66
aS'computer science mathematics'
p67
aS'data analytics'
p68
asS'education'
p69
(lp70
VBachelor
p71
aVMaster
p72
asS'responsibility'
p73
(lp74
S'large data set'
p75
aS'exploratory analysis'
p76
aS'predict'
p77
aVinsight
p78
aS'communicate'
p79
aS'analysis'
p80
aS'analytic'
p81
aS'optimization'
p82
aS'understand'
p83
aS'modeling'
p84
aS'model'
p85
aS'extract'
p86
aS'develop model'
p87
as.