(dp1
S'skills'
p2
(lp3
S'integration'
p4
aS'r d'
p5
aS'owl'
p6
aS'r programming'
p7
aS'eviews'
p8
aS'vis'
p9
aS'engineering'
p10
aS'ansible'
p11
aS'devops'
p12
aS'go'
p13
aS'ic'
p14
aS'hbase'
p15
aS'git'
p16
aS'open source'
p17
aS'big data'
p18
aS'agile'
p19
aS'storage'
p20
aS'hadoop'
p21
aS'rf'
p22
aS'computer science'
p23
aS'visio'
p24
aS'jenkins'
p25
aS'pl'
p26
aS'ip'
p27
aS'scrum'
p28
aS'aws'
p29
aS'collaboration'
p30
aS'javascript'
p31
aS'data scientist'
p32
aS'automation'
p33
aS'leadership'
p34
aS'mentoring'
p35
aS'oop'
p36
aS'sql'
p37
aS'postgresql'
p38
aS'data'
p39
aS'a'
aS'java'
p40
aS'c'
aS'erp'
p41
aS'software engineering'
p42
aS'analytics'
p43
aS'science'
p44
aS'.net'
p45
aS'programming'
p46
aS'test automation'
p47
aS'r'
aS'architecture'
p48
aS'cro'
p49
aS'ec2'
p50
asS'working-year'
p51
(lp52
S'10+ year'
p53
asS'major'
p54
(lp55
S'software engineering'
p56
aS'big data'
p57
aS'ee'
p58
aS'science'
p59
aS'automation'
p60
aS'analytics'
p61
aS'engineering'
p62
aS'computer science engineering'
p63
aS'computer science'
p64
aS'ee computer science'
p65
asS'education'
p66
(lp67
VBachelor
p68
aVMaster
p69
asS'responsibility'
p70
(lp71
S'report'
p72
aS'analytic'
p73
aS'implement'
p74
aS'product'
p75
aS'improvement'
p76
as.