(dp1
S'skills'
p2
(lp3
S'owl'
p4
aS'r d'
p5
aS'probability'
p6
aS'asic'
p7
aS'communication'
p8
aS'integration'
p9
aS'ant'
p10
aS'analytics'
p11
aS'engineering'
p12
aS'statistical analysis'
p13
aS'go'
p14
aS'data mining'
p15
aS'sas'
p16
aS'multivariate statistics'
p17
aS'ic'
p18
aS'research'
p19
aS'regression'
p20
aS'visualization'
p21
aS'statistics'
p22
aS'java'
p23
aS'lua'
p24
aS'excel'
p25
aS'hadoop'
p26
aS'vis'
p27
aS'cell'
p28
aS'statistica'
p29
aS'rf'
p30
aS'computer science'
p31
aS'natural language processing'
p32
aS'mathematics'
p33
aS'unstructured data'
p34
aS'pl'
p35
aS'text mining'
p36
aS'data analysis'
p37
aS'theory'
p38
aS'python'
p39
aS'processing'
p40
aS'data scientist'
p41
aS'c'
aS'oop'
p42
aS'data processing'
p43
aS'sql'
p44
aS'modeling'
p45
aS'data'
p46
aS'statistical programming'
p47
aS'a'
aS'search'
p48
aS'erp'
p49
aS'data visualization'
p50
aS'cluster'
p51
aS'science'
p52
aS'programming'
p53
aS'analysis'
p54
aS'machine learning'
p55
aS'data architecture'
p56
aS'ip'
p57
aS'r'
aS'architecture'
p58
asS'working-year'
p59
(lp60
S'5 year'
p61
aS'3 year'
p62
asS'major'
p63
(lp64
S'information'
p65
aS'statistics'
p66
aS'business'
p67
aS'ee'
p68
aS'science'
p69
aS'data mining'
p70
aS'statistic'
p71
aS'machine learning'
p72
aS'analytics'
p73
aS'engineering'
p74
aS'computer science'
p75
aS'natural language processing'
p76
aS'communication'
p77
aS'mathematics'
p78
aS'mis'
p79
aS'phd'
p80
asS'education'
p81
(lp82
VBachelor
p83
aVMaster
p84
aVDoctor
p85
asS'responsibility'
p86
(lp87
S'development'
p88
aS'information'
p89
aS'data analysis'
p90
aS'business problem'
p91
aS'processing'
p92
aS'communicate'
p93
aS'analysis'
p94
aS'improvement'
p95
aS'analytic'
p96
aS'understand'
p97
aS'data mining'
p98
aS'modeling'
p99
aS'implement'
p100
aS'model'
p101
as.