(dp1
S'job'
p2
I2
sS'emerging'
p3
I1
sS'concept'
p4
I2
sVpa
p5
I1
sS'r d'
p6
I1
sS'healthcare industry'
p7
I1
sS'probe'
p8
I1
sS'dynamic'
p9
I1
sS'atmosphere'
p10
I1
sS'cross-segment'
p11
I1
sS'manager'
p12
I1
sS'serving'
p13
I1
sVrelation
p14
I1
sS'directs'
p15
I1
sS'day-to-day'
p16
I1
sS'keywords'
p17
I1
sS'goods.'
p18
I1
sS'find'
p19
I2
sS'developer'
p20
I1
sS'impact'
p21
I1
sS'gather'
p22
I1
sS'difference'
p23
I1
sS'group'
p24
I2
sS'work.'
p25
I2
sS'analytics'
p26
I3
sS'disability'
p27
I1
sS'minnesota'
p28
I1
sS'improvement'
p29
I1
sS'retirement.the'
p30
I1
sS'audiences.'
p31
I1
sS'ambiguity'
p32
I1
sS'exempt'
p33
I1
sS'achieve'
p34
I2
sS'minnetonka'
p35
I1
sS'division'
p36
I1
sS'python'
p37
I1
sS'overall'
p38
I1
sS'preferred'
p39
I1
sS'nation'
p40
I1
sS'test'
p41
I1
sS'qualified'
p42
I1
sS'fastest'
p43
I1
sS'word'
p44
I1
sS'unique'
p45
I2
sS'day'
p46
I1
sS'bigger'
p47
I1
sS'public relations'
p48
I1
sS'data scientist'
p49
I1
sS'solves'
p50
I1
sS'system.'
p51
I1
sS'gender'
p52
I1
sS'performing'
p53
I2
sS'solution'
p54
I1
sS'translates'
p55
I1
sS'large'
p56
I2
sS'race'
p57
I1
sS'team'
p58
I3
sS'them.'
p59
I1
sS"isn't"
p60
I1
sS'status'
p61
I3
sS'requirement'
p62
I1
sS'employment.'
p63
I1
sS'opportunity/affirmative'
p64
I1
sS'accepted'
p65
I1
sS'people'
p66
I1
sS'generation'
p67
I1
sS'national'
p68
I1
sS'innovative'
p69
I1
sS'idea'
p70
I1
sS'dedicated'
p71
I1
sS'sex'
p72
I1
sS'quality control'
p73
I1
sS'understood'
p74
I1
sS'organizational'
p75
I1
sS'data analysis'
p76
I2
sS'design'
p77
I2
sS'result'
p78
I2
sS'expression'
p79
I1
sS'employment'
p80
I2
sS'skill'
p81
I2
sS'best'
p82
I3
sS'ability'
p83
I3
sS'that.'
p84
I1
sS'and/or'
p85
I4
sS'degree'
p86
I2
sS'marketing/product'
p87
I1
sS'managing'
p88
I2
sS'broad'
p89
I1
sS'decision'
p90
I1
sS'proficient'
p91
I1
sS'segment'
p92
I1
sS'approaches.'
p93
I1
sS'businesssegment'
p94
I1
sS'religion'
p95
I1
sS'protected'
p96
I2
sS'health'
p97
I4
sS'new'
p98
I2
sS'statistics communications'
p99
I1
sS'demonstrated'
p100
I2
sS'deliverymodel'
p101
I1
sS'platinum'
p102
I1
sVassist
p103
I7
sS'creating'
p104
I1
sS'business'
p105
I3
sS'marketing'
p106
I3
sS'predicting'
p107
I1
sS'packaged'
p108
I1
sS'understanding'
p109
I1
sS'characteristic'
p110
I1
sS'drug'
p111
I1
sS'bachelor'
p112
I1
sS'leadership'
p113
I1
sS'drug-free'
p114
I1
sS'brightest'
p115
I1
sS'key'
p116
I1
sS"people's"
p117
I1
sS'interface'
p118
I1
sS'beginning'
p119
I1
sS'care.'
p120
I1
sS'improve'
p121
I1
sVcandidate
p122
I1
sS'technical'
p123
I2
sS'shift'
p124
I1
sS'equal'
p125
I1
sS'experience'
p126
I9
sS'unitedhealthcare'
p127
I1
sS'healthier'
p128
I1
sS'medicare'
p129
I2
sS'advertising'
p130
I1
sVqualification
p131
I3
sS"it's"
p132
I2
sS'action'
p133
I1
sS'3+ year'
p134
I3
sS'facilitate'
p135
I1
sS'support'
p136
I1
sS'user'
p137
I1
sS'origin'
p138
I1
sS'overtimestatus'
p139
I1
sS'major'
p140
I1
sS'statistical modeling'
p141
I1
sS'color'
p142
I1
sVcommunication
p143
I1
sS'manage'
p144
I1
sS'primary'
p145
I1
sS'highly'
p146
I1
sS'strategy.'
p147
I1
sS'2+ year'
p148
I1
sS'initiative'
p149
I1
sS'cross-functional'
p150
I1
sS'consideration'
p151
I1
sS'employer'
p152
I1
sS'quality'
p153
I1
sS'citizenshipstatus'
p154
I1
sS'market'
p155
I1
sS'customers.'
p156
I1
sS'stakeholder'
p157
I3
sS"you're"
p158
I1
sS'contestnumber'
p159
I1
sS'wealth'
p160
I1
sS'leading'
p161
I1
sS'own.'
p162
I1
sS'grow'
p163
I1
sS'start'
p164
I1
sS'genetic'
p165
I1
sS'influencing'
p166
I1
sS'call'
p167
I1
sS'way'
p168
I2
sS'time'
p169
I1
sVmaster
p170
I1
sS'utilizing'
p171
I1
sS'translate'
p172
I1
sS'function'
p173
I1
sS'life'
p174
I2
sS'diversity'
p175
I1
sS'objectives.'
p176
I2
sS'tool'
p177
I1
sS'regard'
p178
I1
sS'statistical model'
p179
I1
sS'scientists.'
p180
I1
sS'orientation'
p181
I1
sS'proven'
p182
I1
sS'boomer'
p183
I1
sS'flexible'
p184
I1
sS'marital'
p185
I1
sS'project management'
p186
I2
sS'center'
p187
I1
sS'customer'
p188
I2
sS'join'
p189
I2
sS'developing'
p190
I1
sS'proactively'
p191
I1
sS'challenge'
p192
I2
sS'work'
p193
I3
sS'project'
p194
I1
sVcareer
p195
I1
sS'r'
I2
sS'exploration'
p196
I2
sS'prioritize'
p197
I1
sS'growing'
p198
I1
sS'making'
p199
I1
sS'problem'
p200
I1
sS'unitedhealth'
p201
I2
sS'similar'
p202
I1
sS'age'
p203
I1
sS'care'
p204
I1
sS'statistical analysis'
p205
I1
sS'non-technical'
p206
I1
sS'required'
p207
I2
sS'ad'
p208
I1
sS'process'
p209
I1
sS'business strategy'
p210
I1
sVstatistic
p211
I1
sS'bold'
p212
I1
sS'direction'
p213
I1
sS'deep'
p214
I1
sS'effectively'
p215
I1
sS'strengthen'
p216
I1
sS'together'
p217
I1
sS'teams.'
p218
I1
sS'lifetime'
p219
I1
sS'need'
p220
I1
sS'well-being'
p221
I1
sS'mn'
p222
I1
sS'data analytics'
p223
I2
sS'deeper'
p224
I1
sS'creates'
p225
I1
sS'law.'
p226
I1
sS'develop'
p227
I1
sS'hoc'
p228
I1
sS'variety'
p229
I1
sS'provide'
p230
I1
sS'sexual'
p231
I1
sS'veteran'
p232
I1
sS'excel'
p233
I1
sS'tableau'
p234
I1
sS'needs.'
p235
I1
sS'field'
p236
I1
sS'complex'
p237
I3
sS'travel'
p238
I1
sS'off-shore'
p239
I1
sS'largest'
p240
I1
sS'9'
I1
sS'u'
I1
sS'heal'
p241
I1
sS'opportunity'
p242
I1
sS'development'
p243
I1
sS'product'
p244
I1
sS'description'
p245
I1
sS'information'
p246
I1
sS'may'
p247
I1
sS'reporting'
p248
I4
sS'business.'
p249
I1
sVhand
p250
I1
sS'workplace.'
p251
I1
sS'retirement'
p252
I1
sS'develops'
p253
I1
sS'visa'
p254
I1
sS'mathematics statistics'
p255
I1
sS'plan'
p256
I1
sS'sql'
p257
I2
sS'ready'
p258
I1
sS'700169'
p259
I1
sS'impact.'
p260
I1
sS'data'
p261
I1
sVsa
p262
I2
sS'identity'
p263
I1
sS'applicant'
p264
I1
sS'million'
p265
I1
sS'segment-wide'
p266
I1
sS'using'
p267
I1
sS'database'
p268
I2
sS'starting'
p269
I1
sS"life's"
p270
I2
sS'adopt'
p271
I1
sS'well'
p272
I1
sS'analysis'
p273
I1
sS'powerpoint'
p274
I1
sS'deliverable'
p275
I1
sS"you'll"
p276
I1
sS'without'
p277
I1
sVresponsibility
p278
I1
sS'presenting'
p279
I1
sS'sm'
p280
I2
sS'coordinate'
p281
I1
sS'senior'
p282
I2
sS'corporate'
p283
I1
sS'receive'
p284
I1
sS'meet'
p285
I1
s.