(dp1
S'concept'
p2
I1
sS'dist'
p3
I1
sS'economics mathematics'
p4
I1
sS'go'
p5
I1
sS'integrity'
p6
I1
sS'day.'
p7
I1
sS'technique'
p8
I3
sS'disability'
p9
I1
sS'unitedhealth'
p10
I3
sS'collaborate'
p11
I1
sS'far'
p12
I1
sS'every'
p13
I1
sS'interpreting'
p14
I1
sS'difference'
p15
I2
sS'presented'
p16
I1
sS'gender'
p17
I1
sS'solution'
p18
I4
sS'vector'
p19
I1
sS'team'
p20
I4
sS'predictive analytics'
p21
I2
sS'mn'
p22
I1
sS'discover'
p23
I1
sS'thinker'
p24
I1
sS'new'
p25
I1
sS'degree'
p26
I2
sS'understanding'
p27
I1
sS'studio'
p28
I1
sS'others'
p29
I1
sS'consideration'
p30
I1
sS'strong'
p31
I1
sS'receive'
p32
I1
sS'k'
I1
sS'experience'
p33
I9
sS'healthier'
p34
I2
sS'action'
p35
I1
sS'sas enterprise miner'
p36
I1
sS'company.'
p37
I1
sS'classification'
p38
I1
sS'strat'
p39
I1
sS'market'
p40
I1
sS'use'
p41
I1
sS'wealth'
p42
I1
sS'working'
p43
I1
sS'next'
p44
I1
sS'live'
p45
I1
sS'door'
p46
I1
sS'naive'
p47
I1
sS'excellent'
p48
I1
sS'customer'
p49
I3
sS'work'
p50
I3
sS'machine learning'
p51
I2
sS'meet'
p52
I1
sS'history'
p53
I1
sS'process'
p54
I1
sS'organized'
p55
I1
sS'want'
p56
I2
sS'information'
p57
I1
sS'provide'
p58
I1
sS'verify'
p59
I1
sS'tableau'
p60
I1
sS'variances/trends/root'
p61
I1
sS'machine'
p62
I1
sS'methodology'
p63
I1
sVforest
p64
I1
sS'product'
p65
I1
sS'description'
p66
I1
sS'summarize'
p67
I1
sS'data'
p68
I8
sS'analytics predictive modeling'
p69
I1
sS'applicant'
p70
I1
sVresponsibility
p71
I1
sS'sm'
p72
I1
sS'healthcare'
p73
I1
sVsa
p74
I1
sS'talk'
p75
I1
sS'origin'
p76
I1
sS'help'
p77
I3
sS'insight'
p78
I2
sS'scientist'
p79
I1
sS'statistical'
p80
I1
sS'innovative'
p81
I1
sS'25'
p82
I1
sS'group'
p83
I3
sS'unitedhealthcare'
p84
I1
sS'platform'
p85
I1
sS'finance'
p86
I2
sS'disparate'
p87
I1
sS'propose'
p88
I1
sS'number'
p89
I2
sS'qualified'
p90
I1
sS'hearing'
p91
I1
sS'easily'
p92
I1
sS'market research'
p93
I1
sS'2+ year'
p94
I2
sS'problem solving'
p95
I1
sS'idea'
p96
I1
sS'related'
p97
I1
sS'marital'
p98
I1
sS'extract'
p99
I1
sS'network'
p100
I1
sS'looking'
p101
I1
sS'race'
p102
I1
sS'health'
p103
I2
sS'cause'
p104
I1
sS'timeline'
p105
I1
sS'million'
p106
I1
sS'data scientist'
p107
I1
sS'free'
p108
I1
sS'bayes'
p109
I1
sS'beginning'
p110
I1
sS'care'
p111
I1
sS'definition'
p112
I1
sS'go.'
p113
I1
sS'data analyst'
p114
I1
sS'creates'
p115
I1
sS'thing'
p116
I1
sVqualification
p117
I3
sS'5+ year'
p118
I1
sS'primary'
p119
I2
sS'one'
p120
I1
sS'open'
p121
I1
sS'size'
p122
I1
sS'leverage'
p123
I1
sS'system'
p124
I1
sS'business problem'
p125
I1
sS'tool'
p126
I2
sS'proficiency'
p127
I2
sS'networks/'
p128
I1
sS'elite'
p129
I1
sS'tree'
p130
I1
sS'preparation'
p131
I1
sS'protected'
p132
I2
sS'lover'
p133
I1
sS'providing'
p134
I1
sS'self-motivated'
p135
I1
sS'affirmative'
p136
I1
sS'business intelligence'
p137
I1
sS'need'
p138
I1
sS'seek'
p139
I1
sS'law.'
p140
I1
sS'do.'
p141
I1
sS'veteran'
p142
I1
sS'predictive modeling'
p143
I1
sS'-'
I3
sS'acumen'
p144
I1
sS'internal'
p145
I1
sS'take'
p146
I1
sS'finding'
p147
I1
sS'economics math'
p148
I1
sS'statistical method'
p149
I1
sS'quantitative'
p150
I1
sS'sometimes'
p151
I1
sVsale
p152
I1
sS"you'll"
p153
I3
sS'clean'
p154
I1
sS'professional'
p155
I1
sS'senior'
p156
I2
sS'quantity'
p157
I1
sS'detective'
p158
I1
sS'atmosphere'
p159
I1
sS'angoss'
p160
I1
sS'keywords'
p161
I1
sS'find'
p162
I2
sS'r d'
p163
I1
sS'knowledge'
p164
I1
sS'minnesota'
p165
I1
sS'employer'
p166
I2
sS'analytic'
p167
I2
sS'local'
p168
I1
sS'data modeling'
p169
I1
sS'get'
p170
I2
sS'expectation'
p171
I1
sS'preferred'
p172
I1
sS'mathematics statistics'
p173
I1
sS'nearly'
p174
I1
sS'imagine.'
p175
I1
sS'relational'
p176
I1
sS'marketing.'
p177
I1
sS'factorization'
p178
I1
sS'analytical'
p179
I1
sS'uncover'
p180
I1
sS'requirement'
p181
I1
sS'national'
p182
I1
sS'sex'
p183
I1
sS'result'
p184
I2
sS'best'
p185
I2
sS'familiarity'
p186
I1
sS'written'
p187
I1
sS'across'
p188
I1
sVopening
p189
I1
sS'job'
p190
I2
sS'key'
p191
I1
sS'modeling'
p192
I1
sS'distribution'
p193
I1
sS'improve'
p194
I2
sS'full-time'
p195
I1
sVcandidate
p196
I1
sVcareer
p197
I2
sS'equal'
p198
I1
sS'drug'
p199
I2
sS'expression'
p200
I1
sS'etl'
p201
I1
sS'load'
p202
I1
sS'color'
p203
I1
sS'sampling'
p204
I1
sS'data warehousing'
p205
I1
sS"couldn't"
p206
I1
sS'path'
p207
I1
sS'undergraduate'
p208
I1
sS'deep learning'
p209
I1
sS'validating'
p210
I1
sS'genetic'
p211
I1
sVpa
p212
I1
sS'diversity'
p213
I1
sS'gap'
p214
I1
sS'understand'
p215
I1
sS'look'
p216
I1
sS'employment.'
p217
I1
sS'solid'
p218
I1
sS'say'
p219
I1
sS'care.'
p220
I1
sS'further.'
p221
I1
sS'orientation'
p222
I1
sS'r studio'
p223
I1
sS'statistical analysis'
p224
I1
sS'partner'
p225
I3
sS'technology'
p226
I2
sS'regression'
p227
I2
sS'develop'
p228
I2
sS'make'
p229
I4
sS'member'
p230
I3
sS'document'
p231
I1
sS'status'
p232
I3
sS'visually'
p233
I1
sS'used'
p234
I1
sS'workplace.'
p235
I1
sS'opportunity'
p236
I4
sS'identity'
p237
I1
sS'database'
p238
I1
sS'variety'
p239
I1
sS'analysis'
p240
I1
sS'without'
p241
I1
sS'1'
I1
sS'solve'
p242
I1
sS'organization'
p243
I1
sS'model'
p244
I3
sS'shape'
p245
I1
sS'aspect'
p246
I1
sS'skill'
p247
I4
sS'lives.'
p248
I1
sS'visualization'
p249
I2
sS'work.'
p250
I1
sS'individual.'
p251
I1
sS'source'
p252
I4
sS'combine'
p253
I1
sS'location'
p254
I1
sS'build'
p255
I1
sS'minnetonka'
p256
I2
sS'manage'
p257
I1
sS'around'
p258
I1
sS'using'
p259
I4
sS'advanced'
p260
I2
sS'like'
p261
I3
sS'identifying'
p262
I1
sS'data mining'
p263
I3
sS'understood'
p264
I1
sVstatistic
p265
I2
sS'employment'
p266
I2
sS'scale'
p267
I1
sS'decision'
p268
I2
sS'/'
I1
sS'religion'
p269
I1
sS'critical'
p270
I1
sS'verbally'
p271
I1
sS'results.'
p272
I1
sS'demonstrated'
p273
I1
sS'data analysis'
p274
I2
sS'run'
p275
I1
sS'business'
p276
I6
sS'schedule'
p277
I1
sS'real-world'
p278
I1
sS'equivalent'
p279
I1
sS'communicate'
p280
I1
sS'chapter'
p281
I1
sS'industry'
p282
I2
sS'spss'
p283
I1
sS'microsoft office'
p284
I1
sS'powerpoint'
p285
I1
sS'software'
p286
I1
sS'consulting'
p287
I1
sS'neural networks'
p288
I1
sS'communication'
p289
I1
sS'appropriate'
p290
I1
sS'determine'
p291
I1
sS'clustering'
p292
I1
sS'business-savvy'
p293
I1
sS'support'
p294
I2
sS'transform'
p295
I1
sS"we're"
p296
I1
sS'way'
p297
I2
sS'happy'
p298
I1
sS'buy'
p299
I1
sS'regard'
p300
I1
sS'machine learning data mining'
p301
I1
sS'analyst'
p302
I2
sS'datasets'
p303
I1
sS'characteristic'
p304
I1
sS'statistics computer science'
p305
I1
sS'problem'
p306
I2
sS'etc.'
p307
I2
sS"life's"
p308
I1
sS'cross-train'
p309
I1
sS'engineering'
p310
I2
sS'fill'
p311
I1
sS'nn'
p312
I1
sS'us-mn-minnetonka'
p313
I1
sS'sexual'
p314
I1
sS'excel'
p315
I1
sS'field'
p316
I2
sS'computer science'
p317
I2
sS'test'
p318
I1
sS'mn-704376'
p319
I1
sS'sql'
p320
I1
sS'matrix'
p321
I1
sS'svm'
p322
I1
sS'e'
I1
sS'algorithm'
p323
I1
sS'age'
p324
I1
sS'required'
p325
I2
sS'business strategy'
p326
I1
sS'write'
p327
I1
sS'warehousing/analytics'
p328
I1
sS'oral'
p329
I1
s.