(dp1
S'outlining'
p2
I1
sS'code'
p3
I1
sS'global'
p4
I1
sS'sentiment analysis'
p5
I1
sVmanager
p6
I1
sS'concept'
p7
I3
sS'integrity'
p8
I1
sS'graph'
p9
I1
sS'technique'
p10
I3
sS'environment'
p11
I2
sS'suite'
p12
I2
sS'collaborate'
p13
I1
sS'advantage'
p14
I1
sS'join'
p15
I1
sS'large'
p16
I2
sS'geospatial'
p17
I1
sS'team'
p18
I5
sS'enhance'
p19
I1
sS'powerpoint.'
p20
I1
sS'construed'
p21
I1
sS'prediction'
p22
I1
sS'design'
p23
I1
sS'ms/phd'
p24
I1
sS'ssis'
p25
I1
sS'version'
p26
I1
sS'conduct'
p27
I1
sS'method'
p28
I2
sS'understanding'
p29
I1
sS'desired'
p30
I2
sS'explore'
p31
I1
sS'along'
p32
I1
sS'strong'
p33
I2
sS'experience'
p34
I8
sS'amount'
p35
I1
sS'mentor'
p36
I1
sS'implement'
p37
I1
sS'company.'
p38
I1
sS'classification'
p39
I1
sS'highly'
p40
I1
sS'establish'
p41
I1
sS'cloud'
p42
I1
sS'use'
p43
I2
sS'automate'
p44
I1
sS'data management'
p45
I1
sS'successful'
p46
I1
sS'excellent'
p47
I1
sS'customer'
p48
I2
sS'word'
p49
I2
sS'ibm'
p50
I2
sS'work'
p51
I6
sS'machine learning'
p52
I2
sS'learn'
p53
I1
sS'scripting'
p54
I1
sS'control'
p55
I1
sS'e.g.'
p56
I1
sS'hyatt'
p57
I1
sS'process'
p58
I2
sS'topic'
p59
I1
sS'effectively'
p60
I1
sS'data modeling'
p61
I1
sS'sources/api'
p62
I1
sS'provide'
p63
I2
sS'tableau'
p64
I1
sS'methodology'
p65
I1
sS'plus'
p66
I1
sS'parameter'
p67
I1
sS'description'
p68
I1
sS'may'
p69
I2
sS'curiosity'
p70
I1
sS'data'
p71
I12
sS'persuasiveness'
p72
I1
sS'natural'
p73
I1
sS'effective'
p74
I1
sS'appreciate'
p75
I1
sVresponsibility
p76
I3
sVsa
p77
I1
sS'r d'
p78
I1
sS'office'
p79
I1
sS'developed'
p80
I1
sS'scientist'
p81
I2
sS'statistical'
p82
I2
sS'ethic'
p83
I1
sS'personal'
p84
I1
sS'r programming'
p85
I1
sS'platform'
p86
I2
sS'2010'
p87
I1
sS'good'
p88
I4
sS'python'
p89
I1
sS'outlined'
p90
I1
sS'practice'
p91
I2
sS'commitment'
p92
I1
sS'milestone'
p93
I1
sS'association'
p94
I1
sS'execute'
p95
I1
sS'workload'
p96
I1
sS'name'
p97
I1
sS'strategy.'
p98
I1
sS'upward'
p99
I1
sS'capabilities/solutions'
p100
I1
sS'series'
p101
I1
sS'related'
p102
I1
sS'driving'
p103
I1
sS'research'
p104
I3
sS'evaluation'
p105
I1
sS'data scientist'
p106
I1
sS'teach'
p107
I1
sS'definition'
p108
I1
sS'language'
p109
I1
sS'qualification'
p110
I1
sS'intuition'
p111
I1
sS'coding'
p112
I1
sS'strategic'
p113
I2
sS'clarity'
p114
I1
sS'engineer'
p115
I1
sS'un-supervised'
p116
I1
sS'leverage'
p117
I1
sS'structured'
p118
I1
sS'least'
p119
I1
sS'needed'
p120
I3
sS'final'
p121
I1
sS'mining'
p122
I1
sS'objectives.'
p123
I1
sS'tool'
p124
I3
sS'sentiment'
p125
I1
sS'self-directed'
p126
I1
sS'project'
p127
I4
sS'future'
p128
I1
sS'outcome'
p129
I1
sS'willingness'
p130
I1
sS'alongside'
p131
I1
sS'manipulation/wrangling'
p132
I1
sS'well.'
p133
I1
sS'manner'
p134
I1
sS'teams.'
p135
I1
sS'need'
p136
I1
sS'responsible'
p137
I1
sS'also'
p138
I1
sS'internal'
p139
I1
sS'build'
p140
I1
sS'plan'
p141
I1
sS'significant'
p142
I2
sS'position'
p143
I4
sS'especially'
p144
I2
sS'software engineering'
p145
I2
sS'sql server'
p146
I1
sS'clear'
p147
I1
sS'h2o'
p148
I1
sS'professional'
p149
I1
sS'microsoft'
p150
I1
sS'nlp'
p151
I1
sS'relation'
p152
I1
sS'based'
p153
I1
sS'knowledge'
p154
I2
sS'analytic'
p155
I1
sS'handle'
p156
I1
sS'preferred'
p157
I2
sS'report'
p158
I2
sS'db2'
p159
I1
sVssa
p160
I1
sS'collaborative filtering'
p161
I1
sS'summary'
p162
I1
sS'interpersonal'
p163
I2
sS'analytical'
p164
I1
sS'implication'
p165
I1
sS'vision'
p166
I1
sS'detection'
p167
I1
sS'analytics'
p168
I10
sS'result'
p169
I1
sS'projects.'
p170
I1
sS'expert'
p171
I2
sS'pattern'
p172
I1
sS'review'
p173
I1
sS'familiarity'
p174
I3
sS'written'
p175
I1
sS'various'
p176
I1
sS'across'
p177
I4
sS'available'
p178
I1
sS'infrastructure'
p179
I1
sS'ability'
p180
I4
sS'importance'
p181
I1
sS'stakeholder'
p182
I2
sS'alteryx'
p183
I1
sS'job'
p184
I1
sS'key'
p185
I2
sS'modeling'
p186
I1
sS'spark'
p187
I1
sS'on-premise'
p188
I1
sS'data visualization'
p189
I1
sS'statistical method'
p190
I1
sS'etl'
p191
I1
sS'duty'
p192
I1
sS'data warehousing'
p193
I1
sS'cross-functional'
p194
I1
sS'poc'
p195
I1
sS'capable'
p196
I1
sS'trajectory'
p197
I1
sS'linux/windows'
p198
I1
sS'define'
p199
I1
sS'direction'
p200
I1
sS'statistical model'
p201
I1
sS'determination'
p202
I1
sS'value'
p203
I1
sS'situation'
p204
I1
sS'metric'
p205
I1
sS'statistical analysis'
p206
I1
sS'regression'
p207
I1
sS'management.'
p208
I1
sS'capture'
p209
I1
sS'develop'
p210
I1
sS'perform'
p211
I3
sS'make'
p212
I1
sS'member'
p213
I1
sS'operationalize'
p214
I1
sS'used'
p215
I1
sS'director'
p216
I1
sS"hyatt's"
p217
I2
sS'opportunity'
p218
I1
sS'database'
p219
I1
sS'well'
p220
I1
sS'analysis'
p221
I3
sS'deliverable'
p222
I1
sS'quantitative'
p223
I1
sS'model'
p224
I2
sS'unified'
p225
I1
sS'competitive'
p226
I1
sS'assigned'
p227
I1
sS'skill'
p228
I6
sS'customer.'
p229
I1
sS'candidate'
p230
I2
sS'three year'
p231
I1
sS'input'
p232
I2
sS'using'
p233
I2
sS'advanced'
p234
I1
sS'necessary'
p235
I1
sS'specific'
p236
I1
sS'audience'
p237
I1
sS'time-series'
p238
I1
sS'statistical inference'
p239
I1
sS'verbal'
p240
I1
sS'statistic'
p241
I1
sS'econometrics'
p242
I1
sS'scale'
p243
I1
sS'/'
I1
sS'unit'
p244
I1
sS'core'
p245
I1
sS'data analysis'
p246
I2
sS'business'
p247
I4
sS'processing'
p248
I1
sS'stage'
p249
I1
sS'spss'
p250
I1
sS'range'
p251
I1
sS'supervised'
p252
I1
sS'microsoft office'
p253
I1
sS'powerpoint'
p254
I1
sS'communication'
p255
I2
sS'functional'
p256
I1
sS'appropriate'
p257
I2
sS'encompassing.'
p258
I1
sS'git'
p259
I1
sS'area'
p260
I1
sS'influencing'
p261
I1
sS'way'
p262
I1
sS'analyze'
p263
I1
sS'decisions.'
p264
I1
sS'databases.'
p265
I1
sS'exploration'
p266
I1
sS'demonstrate'
p267
I1
sS'detailed'
p268
I1
sS'articulating'
p269
I1
sS'influence'
p270
I2
sS'proven'
p271
I1
sS'ssrs'
p272
I1
sS'exist'
p273
I1
sS'unit testing'
p274
I1
sS'formulation'
p275
I1
sS'education'
p276
I1
sS'excel'
p277
I2
sS'field'
p278
I2
sS'computer science'
p279
I2
sS'mathematics'
p280
I1
sS'3 year'
p281
I1
sS'includes'
p282
I1
sS'and/or'
p283
I3
sS'sql'
p284
I1
sS'self-motivated'
p285
I1
sS'structure'
p286
I1
sS'building'
p287
I3
sS'command-line'
p288
I1
sS'algorithm'
p289
I2
sS'required'
p290
I3
sS'rule'
p291
I1
sS'time'
p292
I1
sS'understand'
p293
I1
sS'validation'
p294
I1
s.