(dp1
S'prioritized'
p2
I1
sS'global'
p3
I3
sS'desirable'
p4
I1
sS'focus'
p5
I3
sS'existing'
p6
I2
sS'query'
p7
I1
sS'disability'
p8
I1
sS'environment'
p9
I1
sS'case'
p10
I7
sS'collaborate'
p11
I1
sS'confidential'
p12
I1
sS'dynamic'
p13
I1
sS'custom-developed'
p14
I1
sS'every'
p15
I2
sS'interpreting'
p16
I2
sS'level'
p17
I1
sS'fast-paced'
p18
I1
sS'gender'
p19
I1
sS'problems.'
p20
I2
sVsolution
p21
I4
sS'adjust'
p22
I1
sS'team'
p23
I17
sS'applied mathematics'
p24
I2
sS'thinker'
p25
I1
sS'click'
p26
I1
sS'index'
p27
I1
sS'stressful'
p28
I1
sS'assistance'
p29
I1
sS'time management'
p30
I1
sS'access'
p31
I1
sS'ssis'
p32
I1
sS'designing'
p33
I1
sS'new'
p34
I2
sS'increasing'
p35
I1
sVspecialist
p36
I1
sS'full'
p37
I1
sS'degree'
p38
I2
sS'poise'
p39
I1
sS'applicable.'
p40
I1
sS'growing'
p41
I2
sS'focused'
p42
I1
sS'meet'
p43
I1
sS'consideration'
p44
I1
sS'strong'
p45
I3
sS'mindset'
p46
I1
sS'deliverables.'
p47
I1
sS'receive'
p48
I2
sS'experience'
p49
I6
sS'inspires'
p50
I1
sS'via'
p51
I1
sS'useful'
p52
I1
sS'patience'
p53
I1
sS'analyzing'
p54
I1
sS'use'
p55
I1
sS'working'
p56
I2
sS'perl'
p57
I1
sS'quick-response'
p58
I1
sS'scope'
p59
I1
sS'data management'
p60
I1
sS'successful'
p61
I1
sS'excellent'
p62
I4
sS'postgresql'
p63
I1
sS'customer'
p64
I5
sS'join'
p65
I1
sS'challenge'
p66
I1
sS'work'
p67
I10
sS'following'
p68
I2
sS'making'
p69
I1
sS'scripting'
p70
I1
sS'hadoop/hive'
p71
I1
sS'value-chain'
p72
I1
sS'e.g.'
p73
I2
sS'give'
p74
I1
sS'high'
p75
I2
sS'effectively'
p76
I3
sS'sense'
p77
I1
sS'information'
p78
I2
sS'provide'
p79
I3
sS'r d'
p80
I1
sS'travel'
p81
I1
sS'cleansing'
p82
I1
sS'write'
p83
I1
sS'methodology'
p84
I1
sS'algorithm development'
p85
I1
sS'profile'
p86
I2
sS'product'
p87
I1
sS'demonstrates'
p88
I1
sS'tact'
p89
I1
sS'demanding'
p90
I1
sS'designed'
p91
I1
sS'demonstrating'
p92
I1
sS'law'
p93
I1
sS'data'
p94
I12
sS'summarization'
p95
I1
sS'client-facing'
p96
I1
sS'documentation'
p97
I1
sS'fluent'
p98
I1
sVresponsibility
p99
I1
sS'help'
p100
I1
sS'insight'
p101
I2
sS'data acquisition'
p102
I1
sS'characteristic'
p103
I1
sS'including'
p104
I1
sS'innovative'
p105
I1
sS'ethic'
p106
I1
sS'position'
p107
I1
sS'group'
p108
I2
sS'personal'
p109
I1
sS'edge'
p110
I1
sS'colleague'
p111
I1
sS'python'
p112
I1
sS'practice'
p113
I2
sS'qualified'
p114
I1
sS'execute'
p115
I1
sS'capability'
p116
I2
sS'status'
p117
I1
sS'2+ year'
p118
I1
sS'related'
p119
I1
sVprogrammer
p120
I1
sS'sexual'
p121
I1
sS'network'
p122
I1
sS'driving'
p123
I1
sS'geospatial'
p124
I1
sS'issue'
p125
I1
sS'workflow'
p126
I1
sS'vevraa'
p127
I1
sS'data scientist'
p128
I1
sS'business analytics'
p129
I2
sS'base'
p130
I1
sS'definition'
p131
I1
sS'training'
p132
I2
sS'language'
p133
I1
sS"bcg's"
p134
I1
sS'programming'
p135
I1
sS'honest'
p136
I1
sS'out-of-the-box'
p137
I1
sS'origin'
p138
I1
sS'organize'
p139
I2
sS'spoken'
p140
I1
sS'powerful'
p141
I1
sS'workbench'
p142
I1
sS'one'
p143
I2
sS'neo4j'
p144
I1
sS'quality'
p145
I1
sVengineer
p146
I1
sS'management'
p147
I2
sS'service'
p148
I1
sS'leading'
p149
I1
sS'interact'
p150
I1
sS'priority'
p151
I1
sS'computer application'
p152
I1
sS'statement'
p153
I2
sS'advanced analytics'
p154
I2
sS'self-motivated'
p155
I1
sS'business problem'
p156
I1
sS'tool'
p157
I5
sS'focusing'
p158
I1
sS'anticipate'
p159
I1
sS'fact-bases'
p160
I1
sS'project'
p161
I7
sS'matter'
p162
I2
sS'protected'
p163
I2
sS'1-2+'
p164
I1
sS'proactive'
p165
I1
sS'highest-quality'
p166
I1
sS'gathering'
p167
I1
sS'applicant'
p168
I1
sS'service.'
p169
I1
sS'willingness'
p170
I1
sS'boston'
p171
I1
sS'need'
p172
I2
sS'linked'
p173
I1
sVcompetency
p174
I1
sS'efficient'
p175
I1
sS'veteran'
p176
I1
sS'able'
p177
I3
sS'client'
p178
I4
sS'internal'
p179
I1
sS'objective'
p180
I1
sS'competence'
p181
I1
sS'established'
p182
I1
sS'plan'
p183
I1
sS'organization'
p184
I2
sS'hands-on'
p185
I1
sS'sql server'
p186
I1
sS'gather'
p187
I3
sS'request'
p188
I1
sS'3279br'
p189
I1
sS'federal'
p190
I2
sS'clean'
p191
I2
sS'enterprise'
p192
I1
sS'professional'
p193
I2
sS'urgency'
p194
I1
sS'area.'
p195
I1
sS'employer.'
p196
I2
sS'planning'
p197
I1
sS'delivers'
p198
I1
sS'feedback'
p199
I1
sS'knowledge'
p200
I1
sS'implementation'
p201
I1
sS'state'
p202
I1
sS'analytic'
p203
I1
sS'local'
p204
I1
sS'graph theory'
p205
I2
sS'handle'
p206
I1
sS'dependent'
p207
I1
sS'preferred'
p208
I4
sS'oracle sql developer'
p209
I1
sS'framing'
p210
I1
sS'closely'
p211
I1
sS'applied math'
p212
I1
sS'resource'
p213
I1
sS'communicates'
p214
I1
sS'summary'
p215
I1
sS'interpersonal'
p216
I2
sS'activity'
p217
I1
sS'analytical'
p218
I3
sS'requirement'
p219
I6
sS'national'
p220
I1
sS'sex'
p221
I1
sS'analytics'
p222
I9
sS'intensity'
p223
I1
sS'result'
p224
I1
sS'constellation'
p225
I1
sS'subject'
p226
I2
sS'data engineering'
p227
I1
sS'managing'
p228
I1
sS'posse'
p229
I1
sS'familiarity'
p230
I1
sS'written'
p231
I1
sS'customer service'
p232
I1
sS'approach'
p233
I1
sS'across'
p234
I1
sS'thrive'
p235
I1
sS'stakeholder'
p236
I1
sS'ability'
p237
I4
sS'deliver'
p238
I1
sS'attention'
p239
I2
sS'alteryx'
p240
I1
sS'job'
p241
I3
sS'loading'
p242
I1
sS'key'
p243
I1
sS'rapidly'
p244
I1
sS'spark'
p245
I1
sS'improve'
p246
I1
sS'c'
I1
sS'data visualization'
p247
I1
sS'region'
p248
I1
sS'equal'
p249
I1
sS'expression'
p250
I1
sS'duty'
p251
I1
sS'relevant'
p252
I1
sS'color'
p253
I1
sS'modeling'
p254
I1
sS'respect'
p255
I1
sS'trust'
p256
I1
sS'undergraduate'
p257
I1
sS'basic'
p258
I1
sS'collected'
p259
I1
sS'flexible'
p260
I2
sS'firm'
p261
I1
sS'business analysis'
p262
I2
sS'modelling'
p263
I1
sS'present'
p264
I1
sS'consultant'
p265
I1
sVas
p266
I2
sVvalue
p267
I1
sS'technical'
p268
I3
sS'optimization'
p269
I2
sS'situation'
p270
I1
sS'mathematics computer science'
p271
I1
sS'orientation'
p272
I1
sS'pressing'
p273
I1
sS'partner'
p274
I1
sS'id'
p275
I1
sS'develop'
p276
I1
sS'perform'
p277
I1
sS'realizing'
p278
I1
sS'member'
p279
I5
sS'difficult'
p280
I1
sS'portal'
p281
I1
sS'user'
p282
I1
sS'opportunity'
p283
I2
sS'identity'
p284
I1
sS'database'
p285
I1
sS'prioritize'
p286
I1
sS'well'
p287
I1
sS'analysis'
p288
I3
sS'without'
p289
I1
sS'solve'
p290
I1
sS'english'
p291
I1
sS'analytics-based'
p292
I1
sVmodeler
p293
I1
sS'assigned'
p294
I1
sS'identify'
p295
I2
sS'skill'
p296
I6
sS'previous'
p297
I1
sS'visualization'
p298
I2
sS'rapid'
p299
I1
sS'candidate'
p300
I1
sS'field'
p301
I2
sS'character'
p302
I1
sS'contractor'
p303
I1
sS'oracle sql'
p304
I1
sS'quality.'
p305
I1
sS'transformation'
p306
I1
sS'...'
p307
I1
sS'race'
p308
I1
sS'format'
p309
I1
sS'finding'
p310
I1
sS'deployment'
p311
I1
sS'execution'
p312
I1
sS'advanced'
p313
I2
sS'accelerate'
p314
I1
sS'employment'
p315
I1
sS'applied mathematics computer science'
p316
I1
sS'and/or'
p317
I1
sS'broad'
p318
I1
sS'decision'
p319
I1
sS'approaches.'
p320
I1
sS'/'
I2
sS'religion'
p321
I1
sS'critical'
p322
I2
sS'core'
p323
I3
sS'data analysis'
p324
I2
sS'scientific'
p325
I2
sS'business'
p326
I7
sS'bi'
p327
I1
sS'central'
p328
I1
sS'industry'
p329
I2
sS'practical'
p330
I2
sS'plus'
p331
I1
sS'consulting'
p332
I1
sS'presence'
p333
I1
sS'communication'
p334
I3
sS'within'
p335
I1
sS'tackle'
p336
I1
sS'problem solving'
p337
I1
sS'balanced'
p338
I1
sS'area'
p339
I1
sS'support'
p340
I4
sS'consultation'
p341
I1
sS'regard'
p342
I1
sS'teaming'
p343
I1
sVanalyst
p344
I2
sS'clients.'
p345
I1
sS'applying'
p346
I1
sS'proactively'
p347
I1
sS"clients'"
p348
I1
sS'non-discrimination'
p349
I1
sS'e-verify'
p350
I1
sS'bcg'
p351
I7
sS'e-verify.'
p352
I1
sS'engineering'
p353
I4
sS'expertise'
p354
I4
sS'organizational'
p355
I2
sS'education'
p356
I1
sS'large data set'
p357
I1
sS'excel'
p358
I1
sS'detail'
p359
I2
sS'occasional'
p360
I1
sS'computer science'
p361
I2
sS'worldwide.'
p362
I1
sS'collaborative'
p363
I2
sS'ssms'
p364
I1
sS'sql'
p365
I1
sS'variable'
p366
I1
sS'building'
p367
I1
sS'independently'
p368
I1
sS'age'
p369
I1
sS'required'
p370
I2
sS'together'
p371
I1
s.