(dp1
S'integrated'
p2
I1
sS'help'
p3
I2
sS'guided'
p4
I1
sS'insight'
p5
I7
sS'dynamic'
p6
I1
sS'cross'
p7
I1
sS'founded'
p8
I1
sS'manager'
p9
I1
sS'interpersonal'
p10
I1
sS'identify'
p11
I1
sS'mysql'
p12
I1
sS'process-driven'
p13
I1
sS'skill'
p14
I4
sS'consultative'
p15
I1
sS'functionally'
p16
I1
sS'row'
p17
I1
sS'looking'
p18
I2
sS'derive'
p19
I1
sS'based'
p20
I3
sS'processes.'
p21
I1
sS'varied'
p22
I1
sS'guidance'
p23
I1
sS'r d'
p24
I1
sS'complex'
p25
I2
sS'source'
p26
I1
sS'add'
p27
I1
sS'program'
p28
I2
sS'adoption'
p29
I1
sS'resourcefulness.'
p30
I1
sS'knowledge'
p31
I2
sS'employee'
p32
I1
sS'include'
p33
I1
sS'advanced'
p34
I1
sS'achieve'
p35
I1
sS'regularly'
p36
I1
sS'business objects'
p37
I1
sS'founding'
p38
I1
sS'get'
p39
I2
sS'scalable'
p40
I1
sS'redshift'
p41
I1
sS'workload'
p42
I1
sS'smes.'
p43
I1
sS"world's"
p44
I2
sS'report'
p45
I2
sS'specific'
p46
I1
sS'execution'
p47
I1
sS"forbes's"
p48
I1
sS'salesforce.'
p49
I2
sS'successful.'
p50
I1
sS'resource'
p51
I1
sS'five year'
p52
I1
sS'success'
p53
I5
sS'level'
p54
I3
sS'challenges.'
p55
I1
sS'manual'
p56
I1
sS'hive'
p57
I1
sS'correct'
p58
I1
sS'large'
p59
I2
sS'team'
p60
I4
sS'including'
p61
I2
sS'crm'
p62
I1
sS'experience/skills'
p63
I1
sS'requirement'
p64
I3
sS'set'
p65
I1
sS'concise'
p66
I1
sS'innovative'
p67
I1
sS'back'
p68
I1
sS'scrum'
p69
I1
sS'self'
p70
I1
sS"fortune's"
p71
I1
sS'understood'
p72
I2
sS'thinker'
p73
I1
sS'individual'
p74
I1
sS'connect'
p75
I1
sS'recommendation'
p76
I3
sS'best'
p77
I1
sS'ability'
p78
I4
sS'sized'
p79
I1
sS'tableau'
p80
I1
sS'matrix'
p81
I1
sS'driving'
p82
I1
sS'product.'
p83
I1
sS'decision'
p84
I2
sS'equal'
p85
I1
sS'creative'
p86
I1
sS'increase'
p87
I1
sS'state'
p88
I1
sS'critical'
p89
I1
sS'various'
p90
I1
sS'results.'
p91
I1
sS'new'
p92
I3
sS'content'
p93
I1
sS'approach'
p94
I1
sS'across'
p95
I1
sS'demonstrated'
p96
I2
sS'centric'
p97
I1
sS'creating'
p98
I1
sS'business'
p99
I11
sS'visualization'
p100
I1
sS'data scientist'
p101
I1
sS'stakeholder'
p102
I2
sS'deliver'
p103
I1
sS'understanding'
p104
I1
sS'prescriptive'
p105
I1
sS'eight year'
p106
I1
sS'leadership'
p107
I1
sS'focused'
p108
I2
sS'opportunity'
p109
I1
sS'key'
p110
I4
sS'address'
p111
I1
sS'assemble'
p112
I1
sS'path'
p113
I1
sS'100'
p114
I1
sS'strong'
p115
I2
sS'stakeholders.'
p116
I2
sS'mindset'
p117
I1
sS'great'
p118
I1
sS'providing'
p119
I1
sS'consumption'
p120
I1
sS'data visualization'
p121
I1
sS'technical'
p122
I3
sS'wherever'
p123
I1
sS'top'
p124
I1
sS'experience'
p125
I3
sS'reporting/data'
p126
I1
sS'enabling'
p127
I1
sS'amount'
p128
I1
sS'ensure'
p129
I1
sS'way.'
p130
I1
sS'act'
p131
I1
sS'plus.'
p132
I3
sS'whole'
p133
I2
sS'think'
p134
I1
sS'load'
p135
I1
sS'appropriately'
p136
I1
sS'named'
p137
I1
sS'enterprise software'
p138
I1
sS'agile'
p139
I1
sS'family'
p140
I1
sS'point'
p141
I1
sS'communication'
p142
I1
sS"'journeys'"
p143
I1
sS'community'
p144
I1
sS'one'
p145
I3
sS'ask'
p146
I1
sS'4+ year'
p147
I1
sS'analyzing'
p148
I1
sS'platform'
p149
I2
sS'problem solving'
p150
I1
sS'apply'
p151
I1
sS'.'
I1
sS'cloud'
p152
I1
sS'engineer'
p153
I1
sS'2-4+'
p154
I1
sS'story'
p155
I2
sS'honing'
p156
I1
sS'service'
p157
I1
sS'analytic'
p158
I1
sS'empowers'
p159
I1
sS'create'
p160
I4
sS'engagement'
p161
I2
sS'question'
p162
I1
sS'team.'
p163
I1
sS'fast'
p164
I1
sS'next'
p165
I1
sS'priority'
p166
I1
sS'philanthropy'
p167
I1
sS'willing'
p168
I1
sS'growth'
p169
I1
sS'low'
p170
I1
sS'automate'
p171
I2
sS'pay-as-you-go'
p172
I1
sS'taken'
p173
I1
sS'analyze'
p174
I2
sS'organization.'
p175
I2
sS'tell'
p176
I1
sS'enable'
p177
I1
sS'form'
p178
I1
sS'business problem'
p179
I1
sS'started'
p180
I1
sS'detail'
p181
I2
sS'tool'
p182
I1
sS'three'
p183
I1
sS'immediate'
p184
I1
sS'idea'
p185
I1
sS'manner.'
p186
I1
sS'business process'
p187
I1
sS'scientists.'
p188
I1
sS'continuously'
p189
I1
sS'understand'
p190
I2
sS'related'
p191
I1
sS'recommendations.'
p192
I1
sS'automated'
p193
I1
sS'working'
p194
I4
sS'analyst'
p195
I3
sS'present'
p196
I4
sS'customer'
p197
I11
sS'10'
p198
I1
sS'salesforce'
p199
I2
sS'solid'
p200
I2
sS'consultant'
p201
I1
sS'work'
p202
I3
sS'attention'
p203
I2
sS'project'
p204
I1
sS'career'
p205
I1
sS'skills.'
p206
I1
sS'qlik'
p207
I1
sS'ongoing'
p208
I1
sS'dashboard'
p209
I2
sS'evaluating'
p210
I1
sS'prioritize'
p211
I1
sS'growing'
p212
I2
sS'demonstrate'
p213
I1
sS'problem'
p214
I2
sS'outcome'
p215
I1
sS'etc.'
p216
I2
sS'cloud computing'
p217
I1
sS'row.'
p218
I1
sS'detailed'
p219
I1
sS'audiences.'
p220
I1
sS'ad'
p221
I1
sS'process'
p222
I3
sS'partnership'
p223
I1
sS'together'
p224
I1
sS'general'
p225
I1
sS'organizational'
p226
I1
sS'business intelligence'
p227
I1
sS'diverse'
p228
I1
sS'model.'
p229
I1
sS'partner'
p230
I1
sS'need'
p231
I3
sS'kpis'
p232
I2
sS'made'
p233
I1
sS'technology'
p234
I2
sS'fastest'
p235
I1
sS'environment.'
p236
I1
sS'data.'
p237
I1
sS'develop'
p238
I1
sS'goal'
p239
I1
sS'incredible'
p240
I1
sS'provide'
p241
I2
sS'translate'
p242
I2
sS'make'
p243
I3
sS'exceptional'
p244
I1
sS'excel'
p245
I2
sS'mid'
p246
I1
sS'virtual'
p247
I1
sS'1'
I2
sS'methodology'
p248
I1
sS'internal'
p249
I2
sS'role'
p250
I1
sS'take'
p251
I1
sS'finding'
p252
I1
sS'solve'
p253
I1
sS'world.'
p254
I1
sS'document'
p255
I1
sS'company'
p256
I6
sS'channel'
p257
I1
sS'conclusion'
p258
I1
sS'improve'
p259
I1
sS'play'
p260
I1
sS'experienced'
p261
I1
sS'multiple'
p262
I3
sS'energetic'
p263
I1
sS'web-based'
p264
I1
sS'height'
p265
I1
sS'hawaiian'
p266
I1
sVobject
p267
I1
sS'business.'
p268
I1
sS'possible'
p269
I1
sS'driven'
p270
I1
sS'journey'
p271
I4
sS'data analysis'
p272
I2
sS'sql'
p273
I1
sS'data'
p274
I13
sS'grow'
p275
I1
sS'hoc'
p276
I1
sS'insights.'
p277
I2
sS'sql server'
p278
I1
sS'utilized.'
p279
I1
sS'clear'
p280
I1
sS'required'
p281
I1
sS'flow'
p282
I2
sS'salesforce.com'
p283
I1
sS'actionable'
p284
I3
sS'ohana'
p285
I1
sS'repeatable'
p286
I1
sVresponsibility
p287
I1
sS'principle'
p288
I1
sS'oracle'
p289
I2
sS'organization'
p290
I1
sS'model'
p291
I2
sS'corporate'
p292
I1
sS'fashion.'
p293
I1
sS'paced'
p294
I1
sS'disruptive'
p295
I1
s.