(dp1
S'concept'
p2
I1
sS'better.'
p3
I1
sS'focus'
p4
I1
sS'devoted'
p5
I1
sS'disability'
p6
I1
sS'environment'
p7
I1
sS'program'
p8
I1
sS'suite'
p9
I1
sS'viewpoints.'
p10
I1
sS'case'
p11
I1
sS'enterprise-wide'
p12
I1
sS'join'
p13
I1
sS'vast'
p14
I1
sS'issue'
p15
I1
sS'developing'
p16
I1
sS'solution'
p17
I3
sS'hive'
p18
I2
sS'race'
p19
I1
sS'excellence'
p20
I1
sS'team'
p21
I4
sS'small'
p22
I1
sS'enhance'
p23
I1
sS'expectations.'
p24
I1
sS'employment.'
p25
I1
sS'dealing'
p26
I1
sS'discover'
p27
I1
sS'second'
p28
I1
sS'process improvement'
p29
I1
sS'scientific'
p30
I1
sS'change.'
p31
I1
sS'consistently'
p32
I1
sS'new'
p33
I2
sS'ever'
p34
I1
sS'exercise'
p35
I1
sS'million'
p36
I1
sS'degree'
p37
I2
sS'focused'
p38
I1
sS'meet'
p39
I1
sS'consideration'
p40
I1
sS'strong'
p41
I2
sS'change'
p42
I4
sS'software development'
p43
I1
sS'skills.'
p44
I1
sS'technical'
p45
I1
sS'study'
p46
I1
sS'experience'
p47
I3
sS'amount'
p48
I1
sS'healthier'
p49
I1
sS'mentor'
p50
I1
sS'action'
p51
I1
sS'military'
p52
I1
sS'implement'
p53
I1
sS'family'
p54
I1
sS'extra'
p55
I1
sS'manage'
p56
I1
sS'logical'
p57
I3
sS'use'
p58
I4
sS'working'
p59
I2
sS'positive'
p60
I1
sS'ways.'
p61
I1
sS'visio'
p62
I1
sS'globe.'
p63
I1
sS'resolution.'
p64
I1
sS'successful'
p65
I1
sS'company'
p66
I1
sS'business process'
p67
I1
sS'opposing'
p68
I1
sS'excellent'
p69
I1
sS'scale.'
p70
I1
sS'effort'
p71
I2
sS'customer'
p72
I3
sS'word'
p73
I1
sVchallenge
p74
I1
sS'work'
p75
I3
sS'machine learning'
p76
I2
sS'making'
p77
I2
sS'rework'
p78
I2
sS'unitedhealth'
p79
I2
sS'root'
p80
I1
sS'claim'
p81
I1
sS'agent'
p82
I1
sS'none.'
p83
I1
sS'information'
p84
I2
sS'productive'
p85
I1
sS'thing'
p86
I1
sS'get'
p87
I1
sS'tableau'
p88
I1
sS'description'
p89
I1
sS'singular'
p90
I1
sS'bioinformatics'
p91
I1
sS'goals.'
p92
I2
sS'telecommuting'
p93
I1
sS'applicant'
p94
I1
sS'orally'
p95
I1
sVresponsibility
p96
I1
sS'sm'
p97
I1
sVsa
p98
I1
sS'talk'
p99
I1
sS"that's"
p100
I2
sS'team-working'
p101
I1
sS'serving'
p102
I2
sS'help'
p103
I1
sS'mission'
p104
I1
sS'attitude'
p105
I1
sS'including'
p106
I1
sS'statistical'
p107
I2
sS'innovative'
p108
I2
sS'group'
p109
I2
sS'unitedhealthcare'
p110
I2
sS'r programming'
p111
I1
sS'compelling'
p112
I1
sS'hidden'
p113
I1
sS'python'
p114
I1
sS'propose'
p115
I1
sS'primary'
p116
I1
sS'qualified'
p117
I1
sS'ambiguity.'
p118
I1
sS'analytical skills'
p119
I1
sS'execute'
p120
I1
sS'gender'
p121
I1
sS'end-to-end'
p122
I1
sS'identifies'
p123
I1
sS'data analytics'
p124
I2
sS'status'
p125
I4
sS'2+ year'
p126
I3
sS'opportunity/affirmative'
p127
I1
sS'energy'
p128
I1
sS'reduce'
p129
I1
sS'idea'
p130
I1
sS'related'
p131
I1
sS'marital'
p132
I1
sS'overhead.'
p133
I1
sS'sexual'
p134
I1
sS'85'
p135
I1
sS'actively'
p136
I1
sS'driving'
p137
I2
sS'research'
p138
I1
sS'problem-solving'
p139
I1
sS'cause'
p140
I1
sS'maintains'
p141
I1
sS'data scientist'
p142
I1
sS'drug-free'
p143
I1
sVput
p144
I1
sS'beginning'
p145
I1
sS'quo'
p146
I1
sS'data analyst'
p147
I1
sS'creates'
p148
I2
sS'initiate'
p149
I1
sS'outcomes.'
p150
I1
sS'massive'
p151
I1
sVqualification
p152
I3
sS'first'
p153
I1
sS'origin'
p154
I1
sS'already'
p155
I1
sS'r/sas'
p156
I1
sS'strategic'
p157
I1
sS'improving'
p158
I2
sS'done'
p159
I1
sS'quality'
p160
I2
sS'leading'
p161
I1
sS'structured'
p162
I1
sS'system'
p163
I1
sS'strategy'
p164
I1
sS'relationship'
p165
I1
sS'business problem'
p166
I1
sS'execution.'
p167
I1
sS'part'
p168
I2
sS'wide'
p169
I1
sS'quantitative analytics'
p170
I1
sS'project'
p171
I1
sS'matter'
p172
I1
sS'fact-based'
p173
I1
sS'outcome'
p174
I1
sS'production-alize'
p175
I1
sS'outstanding'
p176
I2
sS'law.'
p177
I1
sS'efficient'
p178
I1
sS'veteran'
p179
I2
sS'acumen'
p180
I1
sS'internal'
p181
I1
sS'finding'
p182
I2
sS'performance'
p183
I2
sS'accuracy'
p184
I1
sS'regard'
p185
I1
sS'business.'
p186
I1
sS'quantitative'
p187
I1
sS'understands'
p188
I1
sS'especially'
p189
I1
sS'clear'
p190
I1
sS'drive'
p191
I2
sS'actionable'
p192
I1
sS'reputation'
p193
I1
sS'enterprise'
p194
I1
sS'urgency'
p195
I1
sS'atmosphere'
p196
I1
sS'bring'
p197
I1
sS'keywords'
p198
I1
sS'r d'
p199
I1
sS'impact'
p200
I1
sS'knowledge'
p201
I1
sS'big data'
p202
I2
sS'state'
p203
I1
sS'employer'
p204
I2
sS'analytic'
p205
I4
sS'achieve'
p206
I2
sS'handle'
p207
I1
sS'exceptional'
p208
I1
sS'preferred'
p209
I1
sS'telecommuter'
p210
I1
sS'closely'
p211
I1
sS'resource'
p212
I2
sS'adapts'
p213
I1
sS'vision'
p214
I2
sS'predictive'
p215
I2
sS'national'
p216
I1
sS'sex'
p217
I1
sS'unitedhealthcare.'
p218
I2
sS'best'
p219
I2
sS'subject'
p220
I1
sS'projects.'
p221
I1
sS'managing'
p222
I1
sS'forecast'
p223
I1
sS'big data analytics'
p224
I2
sS'written'
p225
I1
sS'protected'
p226
I2
sS'correctly'
p227
I1
sS'across'
p228
I1
sS'ability'
p229
I2
sS'deliver'
p230
I3
sS'ideas.'
p231
I1
sS'analyses.'
p232
I1
sS'job'
p233
I1
sS'hypothesis'
p234
I1
sS'key'
p235
I2
sS'spark'
p236
I2
sS"company's"
p237
I1
sS'improve'
p238
I4
sS'improved'
p239
I1
sS'work.'
p240
I1
sVcareer
p241
I1
sS'etc.'
p242
I1
sS'equal'
p243
I1
sS'drug'
p244
I1
sS'exceeds'
p245
I1
sS'3+ year'
p246
I1
sS'expression'
p247
I1
sS'forecasting'
p248
I1
sS'simple'
p249
I1
sS'data science'
p250
I2
sS'community'
p251
I1
sS'data mining'
p252
I3
sS'constructively'
p253
I1
sS'refocuses'
p254
I1
sS'techniques.'
p255
I1
sS'i.e.'
p256
I1
sS'business process improvement'
p257
I1
sS'near-obsession'
p258
I1
sS"it's"
p259
I1
sS'quickly'
p260
I2
sS'genetic'
p261
I1
sVpa
p262
I1
sS'statistical software'
p263
I1
sS"industry's"
p264
I1
sS'life'
p265
I1
sS'pursing'
p266
I1
sS'diversity'
p267
I1
sS'business analysis'
p268
I2
sS'presentations.'
p269
I1
sS'needed.'
p270
I2
sS'manner.'
p271
I1
sS'engage'
p272
I1
sS'understand'
p273
I1
sVpresent
p274
I1
sS'sound'
p275
I1
sS'look'
p276
I1
sS'opportunity.'
p277
I2
sS'receive'
p278
I1
sS'applies'
p279
I1
sS'orientation'
p280
I1
sS'statistical analysis'
p281
I1
sS'technology'
p282
I1
sS'develop'
p283
I4
sS'make'
p284
I4
sS'hadoop'
p285
I2
sS'complex'
p286
I1
sS'potentially'
p287
I1
sS'smarter'
p288
I1
sS'document'
p289
I1
sS'higher'
p290
I1
sS'visually'
p291
I1
sS'workplace.'
p292
I1
sS'opinion'
p293
I1
sS'validate'
p294
I1
sS'impeccable'
p295
I1
sS'identity'
p296
I1
sS'well'
p297
I1
sS'analysis'
p298
I1
sS'without'
p299
I1
sS'organization'
p300
I1
sS'model'
p301
I1
sS'tactfully'
p302
I1
sS'skill'
p303
I10
sS'leaders.'
p304
I1
sS'processes.'
p305
I2
sS'candidate'
p306
I2
sS'thinking'
p307
I1
sS'agile'
p308
I1
sS'color'
p309
I1
sS'add'
p310
I1
sS'easy'
p311
I1
sS'big'
p312
I2
sS'disagreement'
p313
I1
sS'required.'
p314
I1
sS'objective'
p315
I1
sS'using'
p316
I1
sS'advanced'
p317
I2
sS'issues.'
p318
I1
sS'fortune'
p319
I1
sS'telecommute'
p320
I1
sS'reduced'
p321
I1
sS'cross-functional'
p322
I1
sS'people'
p323
I1
sS'library'
p324
I1
sS'statistic'
p325
I1
sS'home'
p326
I1
sS'employment'
p327
I2
sS'short-term'
p328
I1
sS'describing'
p329
I1
sS'demonstrates'
p330
I1
sS'decision'
p331
I4
sS'/'
I2
sS'considers'
p332
I1
sS'religion'
p333
I1
sS'passion'
p334
I1
sS'leader'
p335
I1
sS'models.'
p336
I1
sS'bold'
p337
I1
sS'business'
p338
I3
sS'predicting'
p339
I1
sS'epidemiology'
p340
I1
sS'found'
p341
I1
sS'teammate'
p342
I1
sS'getting'
p343
I1
sS'industry'
p344
I1
sS'microsoft office'
p345
I1
sS'powerpoint'
p346
I1
sS'consulting'
p347
I1
sS'communication'
p348
I5
sS'commitment'
p349
I2
sS'reducing'
p350
I1
sS'support'
p351
I1
sS'long'
p352
I1
sS'start'
p353
I1
sS'way'
p354
I1
sS'improvements.'
p355
I1
sS'offering'
p356
I1
sS'6'
I1
sS'remote'
p357
I1
sS'decisions.'
p358
I1
sS'analyst'
p359
I1
sS"they're"
p360
I1
sVcharacteristic
p361
I2
sS'effectively.'
p362
I1
sS'demonstrate'
p363
I2
sS'similar'
p364
I4
sS'age'
p365
I1
sS'influence'
p366
I1
sS'pig'
p367
I1
sS'expertise'
p368
I2
sS'excel'
p369
I1
sS'field'
p370
I1
sS'computer science'
p371
I2
sS'test'
p372
I3
sS'mathematics'
p373
I1
sS'picture'
p374
I1
sS"let's"
p375
I1
sS'develops'
p376
I1
sS'sql'
p377
I2
sS'building'
p378
I2
sS'individual'
p379
I1
sS"life's"
p380
I1
sS'required'
p381
I2
sS'presenting'
p382
I1
sS'time'
p383
I2
sS'oral'
p384
I1
s.