(dp1
S'skills'
p2
(lp3
S'owl'
p4
aS'consulting'
p5
aS'r d'
p6
aS'r programming'
p7
aS'data science'
p8
aS'bioinformatics'
p9
aS'communication'
p10
aS'forecasting'
p11
aS'tableau'
p12
aS'ant'
p13
aS'analytics'
p14
aS'process improvement'
p15
aS'hive'
p16
aS'go'
p17
aS'data mining'
p18
aS'sas'
p19
aS'ic'
p20
aS'strategy'
p21
aS'cell'
p22
aS'powerpoint'
p23
aS'business process improvement'
p24
aS'big data'
p25
aS'agile'
p26
aS'excel'
p27
aS'hadoop'
p28
aS'research'
p29
aS'big data analytics'
p30
aS'statistica'
p31
aS'rf'
p32
aS'statistical software'
p33
aS'computer science'
p34
aS'visio'
p35
aS'mathematics'
p36
aS'energy'
p37
aS'pl'
p38
aS'ip'
p39
aS'a'
aS'envi'
p40
aS'business analysis'
p41
aS'python'
p42
aS'healthcare'
p43
aS'data scientist'
p44
aS'c'
aS'business process'
p45
aS'oop'
p46
aS'sql'
p47
aS'informatics'
p48
aS'word'
p49
aS'spark'
p50
aS'pig'
p51
aS'data'
p52
aS'software development'
p53
aS'analytical skills'
p54
aS'search'
p55
aS'organization'
p56
aS'erp'
p57
aS'presentations'
p58
aS'vis'
p59
aS'science'
p60
aS'quantitative analytics'
p61
aS'programming'
p62
aS'analysis'
p63
aS'machine learning'
p64
aS'r'
aS'microsoft office'
p65
aS'military'
p66
aS'epidemiology'
p67
aS'root'
p68
aS'cro'
p69
aS'data analytics'
p70
aS'statistical analysis'
p71
asS'working-year'
p72
(lp73
S'3+ year'
p74
aS'2+ year'
p75
asS'major'
p76
(lp77
S'ee'
p78
aS'communication'
p79
aS'data science'
p80
aS'statistic'
p81
aS'analytics'
p82
aS'data mining'
p83
aS'information'
p84
aS'big data'
p85
aS'big data analytics'
p86
aS'computer science'
p87
aS'mathematics'
p88
aS'mis'
p89
aS'ece'
p90
aS'business analysis'
p91
aS'business'
p92
aS'epidemiology'
p93
aS'bioinformatics'
p94
aS'informatics'
p95
aS'law'
p96
aS'science'
p97
aS'data analyst'
p98
aS'machine learning'
p99
aS'data analytics'
p100
asS'education'
p101
(lp102
VBachelor
p103
aVMaster
p104
asS'responsibility'
p105
(lp106
S'development'
p107
aS'information'
p108
aS'forecasting'
p109
aS'business problem'
p110
aS'predict'
p111
aS'product'
p112
aS'construct'
p113
aS'improvement'
p114
aS'analytic'
p115
aS'understand'
p116
aS'analysis'
p117
aS'data mining'
p118
aS'implement'
p119
aS'presentation'
p120
aS'model'
p121
as.