(dp1
S'code'
p2
I5
sS'happy.'
p3
I1
sS'existing'
p4
I1
sS'deadline'
p5
I1
sS'environment'
p6
I2
sS'program'
p7
I5
sS'include'
p8
I1
sS'norm'
p9
I1
sS'collaborate'
p10
I1
sS'confidential'
p11
I1
sS'automotive'
p12
I2
sS'30 years'
p13
I1
sS'more.'
p14
I1
sS'employee engagement'
p15
I1
sS'solution'
p16
I2
sS'team'
p17
I4
sS'other.'
p18
I1
sS'design'
p19
I3
sS'others.'
p20
I1
sS'scraped'
p21
I1
sS'investment'
p22
I1
sS'chicago'
p23
I3
sS'assistance'
p24
I1
sS'//ch.tbe.taleo.net/'
p25
I1
sS'current'
p26
I1
sS'consistently'
p27
I1
sS'supplier'
p28
I1
sS'new'
p29
I1
sS'degree'
p30
I2
sS'delivering'
p31
I2
sVbachelor
p32
I1
sS'100'
p33
I1
sS'strong'
p34
I5
sS'skills.'
p35
I1
sS'technical'
p36
I3
sS'k'
I1
sS'exceptionally'
p37
I1
sS'experience'
p38
I2
sS'plus.'
p39
I1
sS'fantastic'
p40
I1
sS'love'
p41
I1
sS'manage'
p42
I1
sS'unit'
p43
I2
sS'vehicle'
p44
I1
sS'property/casualty'
p45
I1
sS'company'
p46
I6
sS'downtown'
p47
I1
sS'customer'
p48
I7
sS'science'
p49
I5
sS'work'
p50
I3
sS'learn'
p51
I1
sS'following'
p52
I1
sS'meet'
p53
I1
sS'decision-support'
p54
I1
sS'claim'
p55
I4
sS'process'
p56
I2
sS'collision'
p57
I2
sS'arise'
p58
I1
sS'building.'
p59
I1
sS'information'
p60
I3
sS'goal'
p61
I1
sS'arrangement'
p62
I1
sS'located'
p63
I1
sS'tuition'
p64
I2
sS'stock'
p65
I1
sS'continues'
p66
I1
sS'chicago.'
p67
I1
sS'huge'
p68
I3
sS'leadership development'
p69
I1
sS'designed'
p70
I1
sS'improving'
p71
I1
sS'data'
p72
I11
sS'efficiently'
p73
I1
sS'documentation'
p74
I1
sS'headquarters'
p75
I1
sS'maintain'
p76
I2
sVresponsibility
p77
I1
sS'help'
p78
I3
sS'insight'
p79
I2
sS'including'
p80
I3
sS'developer'
p81
I2
sS'21'
p82
I1
sS'production'
p83
I4
sS'choose'
p84
I1
sS'401'
p85
I1
sS'good'
p86
I1
sS'python'
p87
I2
sS'auto'
p88
I1
sS'practice'
p89
I1
sS'functional'
p90
I1
sS'year.'
p91
I1
sS'strategic'
p92
I1
sS'rental'
p93
I1
sS'repairer'
p94
I1
sS'energy'
p95
I1
sS'related'
p96
I1
sS'measure'
p97
I1
sS'insurance'
p98
I2
sS'research'
p99
I1
sS'contained'
p100
I1
sS'adapt'
p101
I1
sS'electronics'
p102
I1
sS'architecture'
p103
I1
sS'u.s.'
p104
I1
sS'million'
p105
I1
sS'certified'
p106
I1
sS'training'
p107
I1
sS'keep'
p108
I1
sVqualification
p109
I1
sS'feed'
p110
I1
sS'staggered'
p111
I1
sS'coding'
p112
I2
sS'one'
p113
I1
sS'owner'
p114
I1
sS'engineer'
p115
I2
sS'management'
p116
I1
sVservice
p117
I2
sS'top'
p118
I1
sS'least'
p119
I1
sS'priority'
p120
I1
sS'needed'
p121
I1
sVmaster
p122
I2
sS'tool'
p123
I1
sS'serve'
p124
I1
sS'innovate'
p125
I1
sS'environmental'
p126
I1
sS'part'
p127
I1
sS'15'
p128
I1
sS'phd-level'
p129
I1
sS'compensation'
p130
I1
sS'future'
p131
I1
sS'willingness'
p132
I1
sS'need'
p133
I1
sS'car'
p134
I2
sS'-'
I2
sS'majority'
p135
I1
sS'ideal'
p136
I1
sS'internal'
p137
I1
sS'collaboration'
p138
I1
sS'aws'
p139
I1
sS'bybuilt'
p140
I1
sS'plan'
p141
I3
sS'phase'
p142
I1
sS'salary'
p143
I1
sS'reimbursement'
p144
I2
sS'url'
p145
I1
sS'medical'
p146
I1
sS'request'
p147
I1
sS'3-4 year'
p148
I1
sS'ccc'
p149
I7
sS'professional'
p150
I1
sS'consumer'
p151
I1
sS'strong.'
p152
I1
sS'show'
p153
I1
sS'computer science computer engineering'
p154
I1
sS'participate'
p155
I1
sS'find'
p156
I1
sS'r d'
p157
I1
sS'decisions.'
p158
I1
sS'knowledge'
p159
I1
sS'guidance'
p160
I1
sS'score'
p161
I1
sS'enriched'
p162
I2
sS'employee'
p163
I6
sS'regularly'
p164
I1
sS'get'
p165
I1
sS'preferred'
p166
I1
sS'merchandise'
p167
I1
sS'resource'
p168
I1
sS'ad-hoc'
p169
I1
sS'wellness'
p170
I1
sS'computer engineering'
p171
I1
sS'processed'
p172
I1
sS'vision'
p173
I1
sS'set'
p174
I3
sS'visiting'
p175
I1
sS'mind.'
p176
I1
sS'years.'
p177
I1
sS'ability'
p178
I1
sS'stakeholder'
p179
I1
sS'deliver'
p180
I1
sS'job'
p181
I3
sS'ranked'
p182
I1
sS'improve'
p183
I2
sS'last'
p184
I1
sS'country'
p185
I1
sS'taking'
p186
I1
sS'vacation/pto/holidays'
p187
I1
sVduty
p188
I1
sS'among'
p189
I1
sS'simple'
p190
I1
sS'data science'
p191
I2
sS'community'
p192
I1
sS'satisfaction'
p193
I2
sS'deadlines.'
p194
I1
sS'learning'
p195
I1
sS'poc'
p196
I1
sS'java'
p197
I1
sS'capable'
p198
I1
sS'informed'
p199
I1
sS'.'
I1
sS'mart'
p200
I1
sS'flexible'
p201
I1
sS'handoff'
p202
I1
sS'options.'
p203
I1
sS'environment.'
p204
I1
sS'external'
p205
I1
sS'pilot'
p206
I2
sS'solid'
p207
I1
sS'value'
p208
I3
sS'healthy'
p209
I3
sS'balance'
p210
I1
sS'site'
p211
I1
sS'embrace'
p212
I1
sS'technology'
p213
I5
sS'develop'
p214
I2
sS'make'
p215
I3
sS'cross'
p216
I1
sS'practice.'
p217
I1
sS'member'
p218
I2
sS'largest'
p219
I1
sS'development'
p220
I1
sS'http'
p221
I1
sS'bonus'
p222
I1
sS'000'
p223
I1
sS'opportunity'
p224
I2
sS'transaction'
p225
I1
sS'well'
p226
I1
sS'350'
p227
I1
sS'position'
p228
I1
sS'model'
p229
I2
sS'corporate'
p230
I1
sS'inc.'
p231
I1
sS'latest'
p232
I1
sS'able'
p233
I1
sS'accurate'
p234
I1
sS'competitive'
p235
I1
sVskill
p236
I4
sS'previous'
p237
I1
sS'web'
p238
I1
sS'generous'
p239
I1
sS'candidate'
p240
I1
sS'communication.'
p241
I1
sS'add'
p242
I1
sS'extensive'
p243
I1
sS'match'
p244
I1
sS'process.'
p245
I1
sS'warehouse'
p246
I1
sS'historic'
p247
I1
sS'know'
p248
I2
sS'using'
p249
I2
sS'claims-related'
p250
I1
sS'work-life'
p251
I1
sS'benefit'
p252
I2
sS'people'
p253
I1
sS'back'
p254
I1
sS'recognition'
p255
I1
sS'and/or'
p256
I1
sS'lead'
p257
I1
sS'provides'
p258
I1
sS'innovation'
p259
I1
sS'leader'
p260
I1
sS'run'
p261
I2
sS'dental'
p262
I1
sS'processing'
p263
I1
sS'production.'
p264
I1
sS'stem'
p265
I1
sS'discount'
p266
I1
sS'leadership'
p267
I1
sS'paid'
p268
I1
sS'includes'
p269
I1
sS'package'
p270
I1
sS'industry'
p271
I3
sS'carrier'
p272
I3
sS'plus'
p273
I3
sS'software'
p274
I2
sS'repair'
p275
I4
sS'facility'
p276
I1
sS'communication'
p277
I2
sS'within'
p278
I1
sS'commitment'
p279
I2
sS'entrepreneur'
p280
I1
sS'quickly'
p281
I1
sS'area'
p282
I1
sS'support'
p283
I2
sS'apps'
p284
I1
sS'start'
p285
I1
sS'way'
p286
I1
sS'happy'
p287
I1
sS'4 year'
p288
I1
sS'offer'
p289
I2
sS'java.'
p290
I1
sS'delivery'
p291
I1
sS'gain'
p292
I1
sS'promote'
p293
I1
sS'ee computer science'
p294
I1
sS'hire'
p295
I1
sS'mobile'
p296
I1
sS'problem'
p297
I1
sS'clear'
p298
I2
sS'perkspot/employee'
p299
I1
sS'contribute'
p300
I2
sS'education'
p301
I1
sS'accident.'
p302
I1
sS'field'
p303
I1
sS'leed'
p304
I1
sS'computer science'
p305
I2
sS'digital'
p306
I1
sS'test'
p307
I2
sS'mathematics'
p308
I1
sS'draw'
p309
I1
sS'stay'
p310
I1
sS'aggregated'
p311
I1
sS'exposure'
p312
I1
sS'required'
p313
I1
sS'u'
I1
sS'time'
p314
I1
s.