(dp1
S'skills'
p2
(lp3
S'ip'
p4
aS'data science'
p5
aS'sales'
p6
aS'vis'
p7
aS'engineering'
p8
aS'sas'
p9
aS'ic'
p10
aS'sem'
p11
aS'management'
p12
aS'gis'
p13
aS'big data'
p14
aS'strategy'
p15
aS'risk management'
p16
aS'rf'
p17
aS'communication'
p18
aS'pl'
p19
aS'product development'
p20
aS'marketing'
p21
aS'data scientist'
p22
aS'data'
p23
aS'customer relations'
p24
aS'a'
aS'c'
aS'erp'
p25
aS'software engineering'
p26
aS'analytics'
p27
aS'science'
p28
aS'r'
aS'customer support'
p29
aS'english'
p30
aS'predictive analytics'
p31
asS'working-year'
p32
(lp33
S'0 year'
p34
asS'major'
p35
(lp36
S'science'
p37
aS'management'
p38
aS'business'
p39
aS'big data'
p40
aS'ee'
p41
aS'marketing'
p42
aS'data science'
p43
aS'communication'
p44
aS'analytics'
p45
aS'engineering'
p46
aS'english'
p47
aS'software engineering'
p48
aS'data science engineering'
p49
aS'predictive analytics'
p50
asS'education'
p51
(lp52
VMaster
p53
asS'responsibility'
p54
(lp55
S'development'
p56
aS'product'
p57
aS'predict'
p58
aS'analytic'
p59
aS'understand'
p60
aS'ownership'
p61
aS'report'
p62
aS'implement'
p63
aS'model'
p64
as.