(dp1
S'office'
p2
I1
sS'able'
p3
I1
sS'desk'
p4
I1
sS'mission'
p5
I1
sS'including'
p6
I1
sS'aspect'
p7
I1
sS'innovative'
p8
I1
sS'skill'
p9
I5
sS'retirement'
p10
I1
sS'based'
p11
I1
sS'candidate'
p12
I3
sS'majority'
p13
I1
sS'explain'
p14
I1
sS'disability'
p15
I3
sS'writing'
p16
I1
sS'environment'
p17
I1
sS'planwith'
p18
I1
sS'linear algebra'
p19
I1
sS'program'
p20
I2
sS'matlab'
p21
I1
sS'homeland'
p22
I2
sS'relate'
p23
I1
sS'employee'
p24
I3
sS'c5isr'
p25
I1
sS'insufficient.'
p26
I1
sS'divergent'
p27
I1
sS'pay'
p28
I2
sS'lacking'
p29
I1
sS'government'
p30
I2
sS'evaluate'
p31
I1
sS'safe'
p32
I1
sS'preferred'
p33
I1
sS'finding'
p34
I1
sS'fusion'
p35
I5
sS'background'
p36
I1
sS'progress'
p37
I1
sS'using'
p38
I1
sS'applied math'
p39
I1
sVcondition
p40
I1
sS'regarding'
p41
I1
sS'harbor'
p42
I1
sS'gender'
p43
I1
sS'solution'
p44
I2
sS'vesting'
p45
I1
sS'capability'
p46
I1
sS'benefit'
p47
I1
sS'race'
p48
I1
sS'adverse'
p49
I1
sS'team'
p50
I1
sS'small'
p51
I1
sS'security'
p52
I2
sS'river'
p53
I1
sS'discussing'
p54
I1
sS'characterized'
p55
I1
sS'status'
p56
I1
sS'0 year'
p57
I2
sS'verbal'
p58
I1
sS'trend'
p59
I1
sS'national'
p60
I1
sS'secret'
p61
I1
sS'cyber'
p62
I1
sS'sex'
p63
I1
sS'workday.'
p64
I1
sS'defense'
p65
I1
sS'design'
p66
I2
sS'click'
p67
I1
sS'recommendation'
p68
I2
sS'critique'
p69
I1
sS'employment'
p70
I4
sS'needs.'
p71
I1
sS'ability'
p72
I1
sS'provided'
p73
I1
sS'and/or'
p74
I1
sS'degree'
p75
I2
sS'federal'
p76
I2
sS'decision'
p77
I2
sS'b.s.'
p78
I1
sS'research'
p79
I2
sS'current'
p80
I1
sS'include'
p81
I1
sS'state'
p82
I1
sS'protected'
p83
I1
sS'concisely'
p84
I1
sS'conduct'
p85
I1
sS'new'
p86
I1
sS'approach'
p87
I1
sS'leader'
p88
I1
sS'math'
p89
I2
sS'working'
p90
I1
sS'md.'
p91
I1
sS'disciplines.'
p92
I1
sS'business'
p93
I1
sVassociate
p94
I8
sS'eligibility'
p95
I1
sS'dental'
p96
I1
sS'genetic'
p97
I1
sS'constructive'
p98
I1
sS'desired'
p99
I1
sS'active'
p100
I1
sS'requirements.'
p101
I1
sS'search'
p102
I1
sS'service'
p103
I1
sS'technical'
p104
I6
sS'industry'
p105
I1
sS'equal'
p106
I3
sS'experience'
p107
I1
sS'range'
p108
I1
sS'ensure'
p109
I1
sS'vision'
p110
I1
sS'long-term'
p111
I1
sS'military'
p112
I1
sS'status.'
p113
I1
sS'plan'
p114
I2
sS'origin'
p115
I1
sS'probability'
p116
I1
sS'color'
p117
I1
sS'woman-owned'
p118
I1
sS'profit'
p119
I1
sS'complies'
p120
I1
sS'highly'
p121
I1
sS'email'
p122
I1
sS'throughout'
p123
I1
sS'cubicle'
p124
I1
sS'engineer'
p125
I2
sS'management'
p126
I1
sS'e.g.'
p127
I2
sS'would'
p128
I1
sS'basis'
p129
I1
sS'engineering.'
p130
I1
sS'support'
p131
I1
sS'system'
p132
I3
sS'.'
I3
sS'call'
p133
I1
sS'identity'
p134
I1
sS'strong'
p135
I4
sS'assistance'
p136
I1
sS'on-site'
p137
I1
sS'artificial intelligence'
p138
I2
sS'life'
p139
I1
sS'sharing'
p140
I2
sS'401'
p141
I1
sS'offer'
p142
I1
sS'successful'
p143
I1
sS'tool'
p144
I1
sS'immediate'
p145
I1
sS'co-workers.'
p146
I1
sS'understand'
p147
I1
sS'related'
p148
I2
sS'review'
p149
I1
sS'effort'
p150
I1
sS'pierce'
p151
I8
sS'novel'
p152
I1
sS'calculus'
p153
I1
sS'employment.'
p154
I1
sS'science'
p155
I1
sS'require'
p156
I1
sS'work'
p157
I4
sS'verifies'
p158
I1
sS'duties/responsibilities'
p159
I1
sS'machine learning'
p160
I2
sS'career'
p161
I1
sS'm.s.'
p162
I1
sS'computer'
p163
I1
sS'e-verify'
p164
I1
sS'religion'
p165
I1
sS'problem'
p166
I3
sS'providing'
p167
I1
sS'k'
I1
sS'acquisition'
p168
I1
sS'helpful.'
p169
I1
sS'applicant'
p170
I2
sS'orientation'
p171
I1
sS'willingness'
p172
I1
sS'process'
p173
I2
sS'statistic'
p174
I1
sS'affirmative'
p175
I2
sS'engineering'
p176
I3
sS'asking'
p177
I1
sS'dod'
p178
I1
sS'ampierce.com'
p179
I1
sS'need'
p180
I2
sS'education'
p181
I1
sS'technology'
p182
I1
sS'clearly'
p183
I1
sS'physical'
p184
I1
sS'information'
p185
I3
sS'develop'
p186
I1
sS'andholidays'
p187
I1
sS'provide'
p188
I2
sS'sexual'
p189
I1
sS'veteran'
p190
I1
sS'sitting'
p191
I1
sS'excel'
p192
I1
sS'detail'
p193
I1
sS'insurance'
p194
I3
sS'application'
p195
I2
sS'complex'
p196
I1
sS'take'
p197
I2
sS'department'
p198
I2
sS'performance'
p199
I1
sS'short-term'
p200
I1
sS'regulation'
p201
I1
sS'concerning'
p202
I1
sS'opportunity'
p203
I4
sS'workplace'
p204
I1
sS'development'
p205
I3
sS'includes'
p206
I1
sS'may'
p207
I1
sS'comprehensive'
p208
I1
sS'paid'
p209
I1
sS'stay'
p210
I1
sS'artificial intelligence machine learning'
p211
I1
sS'action'
p212
I3
sS'products.'
p213
I1
sS'purpose'
p214
I1
sS'professional'
p215
I1
sS'discriminate'
p216
I1
sS'law'
p217
I1
sS'data'
p218
I5
sS'physic'
p219
I1
sS'understands'
p220
I1
sS'ts/sci'
p221
I1
sVindividual
p222
I1
sS'especially'
p223
I1
sS'algorithm'
p224
I2
sS'patuxent'
p225
I1
sS'medical'
p226
I1
sS'required'
p227
I1
sS'well'
p228
I1
sS'analysis'
p229
I1
sS'precedent'
p230
I1
sS'agencies.'
p231
I1
sS'240-718-3800'
p232
I1
sS'setr'
p233
I1
sS'time'
p234
I1
sS'position'
p235
I1
sS'machine learning artificial intelligence'
p236
I1
sS'clearance'
p237
I1
sS'requires'
p238
I1
sS'drawing'
p239
I1
sS'inc.'
p240
I1
sS'computer science'
p241
I2
s.