(dp1
S'managed'
p2
I1
sS'help'
p3
I1
sS'nosql'
p4
I2
sS'global'
p5
I2
sS'mission'
p6
I2
sS'ended'
p7
I1
sS'employer.'
p8
I1
sS'scientist'
p9
I2
sS'human'
p10
I1
sS'grandparent'
p11
I1
sS'skill'
p12
I2
sS'research'
p13
I2
sS'find'
p14
I2
sS'r d'
p15
I1
sS'data wrangling'
p16
I2
sS'forma'
p17
I1
sS'based'
p18
I1
sS'hiv.'
p19
I1
sS'work.'
p20
I1
sS'revenue'
p21
I1
sS'disability'
p22
I1
sS'environment'
p23
I1
sS'civil'
p24
I1
sS'biomedical'
p25
I2
sS'homeland'
p26
I1
sS'leading-edge'
p27
I1
sS'health'
p28
I1
sS'2016'
p29
I1
sS'woman'
p30
I1
sS'combination'
p31
I1
sS'government'
p32
I2
sS'virginia'
p33
I1
sS'watson'
p34
I1
sS'qualified'
p35
I1
sS'every'
p36
I1
sS'closely'
p37
I1
sS'markets.'
p38
I1
sS'world'
p39
I2
sS'desire'
p40
I1
sS'helpful'
p41
I1
sS'level'
p42
I1
sS'january'
p43
I1
sS"martin's"
p44
I1
sS'solution'
p45
I3
sS'become'
p46
I1
sS'security'
p47
I1
sS'passionate'
p48
I2
sS'apply.'
p49
I1
sS'view'
p50
I1
sS'requirement'
p51
I2
sS'0 year'
p52
I2
sS'intelligence'
p53
I1
sS'national'
p54
I4
sS'hard'
p55
I1
sS'discover'
p56
I1
sS'related'
p57
I2
sS'qlik'
p58
I1
sS'college'
p59
I1
sS'anyways'
p60
I1
sS'query'
p61
I1
sS'laboratory'
p62
I2
sS'event'
p63
I1
sS'minority'
p64
I1
sS'and/or'
p65
I1
sS'business'
p66
I1
sS'giving'
p67
I1
sVlaureate
p68
I1
sS'creative'
p69
I2
sS'looking'
p70
I2
sS'cancer research'
p71
I1
sS'rewarding'
p72
I1
sS'protected'
p73
I1
sS'passion'
p74
I1
sS'new'
p75
I1
sS'leader'
p76
I1
sS'health.'
p77
I1
sS'recently'
p78
I1
sS'degree'
p79
I1
sS'institute.'
p80
I1
sS'headquartered'
p81
I1
sS'u.s.'
p82
I1
sS'commercial'
p83
I2
sS'attending'
p84
I1
sS'job'
p85
I2
sS'focused'
p86
I1
sS'key'
p87
I1
sS'others'
p88
I1
sS'group'
p89
I1
sS'lockheed'
p90
I1
sS'come'
p91
I1
sS'change'
p92
I1
sS'improve'
p93
I1
sS'training'
p94
I1
sS'defense'
p95
I1
sS'would'
p96
I1
sVg
I1
sS'reported'
p97
I1
sS'institute'
p98
I1
sS'many'
p99
I1
sS'study'
p100
I1
sS'annual'
p101
I1
sVbachelor
p102
I1
sS'experience'
p103
I2
sS'trial'
p104
I1
sS'information system'
p105
I1
sS'leidos'
p106
I6
sS'let'
p107
I1
sS'dont'
p108
I1
sS'cancer'
p109
I4
sS'redshift'
p110
I2
sS'researcher'
p111
I1
sS'overview'
p112
I1
sS'data science'
p113
I2
sS'bioinformatics'
p114
I1
sS'one'
p115
I1
sS'linux'
p116
I1
sS'apply'
p117
I2
sS'throughout'
p118
I1
sS'cloud'
p119
I1
sS'engineer'
p120
I1
sS'conference'
p121
I1
sS'working'
p122
I3
sS'opportunity'
p123
I1
sS'support'
p124
I3
sS'visit'
p125
I1
sS'approximately'
p126
I1
sS'.'
I1
sS'clinical'
p127
I1
sS'seasoned'
p128
I1
sS'flexible'
p129
I1
sS'analyze'
p130
I1
sS'data scientist'
p131
I1
sS'fiscal'
p132
I1
sS'offer'
p133
I1
sS'company'
p134
I2
sS'immediate'
p135
I1
sS'employee'
p136
I3
sS'part'
p137
I1
sS'child'
p138
I1
sS'worked'
p139
I1
sS'wholly'
p140
I1
sS'databases.'
p141
I1
sS'10'
p142
I1
sS'science'
p143
I1
sS'challenge'
p144
I1
sS'work'
p145
I2
sS'value'
p146
I1
sS'33'
p147
I1
sS'learn'
p148
I2
sS'reston'
p149
I1
sS'etc.'
p150
I1
sS'medical'
p151
I1
sS'continuous improvement'
p152
I1
sS'dedicated'
p153
I1
sS'customers.'
p154
I2
sS'e.g.'
p155
I1
sS'pro'
p156
I1
sS'equal'
p157
I1
sS'cure'
p158
I1
sS'need'
p159
I1
sS'education'
p160
I1
sS'technology'
p161
I2
sS'technologies.'
p162
I2
sS'renowned'
p163
I1
sS'www.leidos.com.'
p164
I1
sS'veteran'
p165
I1
sS'tableau'
p166
I3
sS'graduate'
p167
I1
sS'1'
I2
sVqualification
p168
I1
sS'vital'
p169
I2
sS'computer science'
p170
I2
sS'answer'
p171
I1
sS'encouraged'
p172
I1
sS'completed'
p173
I1
sS'toughest'
p174
I1
sS'noble'
p175
I1
sS'description'
p176
I1
sS'may'
p177
I1
sS'collaboration'
p178
I1
sS'aws'
p179
I1
sS'effect'
p180
I1
sS'helping'
p181
I1
sS'000'
p182
I1
sS'innovate'
p183
I1
sS'sql'
p184
I1
sS'data'
p185
I3
sS'billion'
p186
I1
sS'studied.'
p187
I1
sS'information systems'
p188
I1
sS'individual'
p189
I1
sS'age'
p190
I1
sS'frederick'
p191
I1
sS'year.'
p192
I1
sS'together'
p193
I1
sS'person'
p194
I1
sS'solve'
p195
I1
sS'time'
p196
I1
sS'professional'
p197
I1
sS'diverse'
p198
I1
sS'related.'
p199
I1
sS'inc.'
p200
I1
s.