(dp1
S'serving'
p2
I1
sS'r d'
p3
I1
sS'nosql'
p4
I1
sS'aggregating'
p5
I1
sS'dynamic'
p6
I1
sS'mission'
p7
I1
sS'competitive'
p8
I1
sS'scientist'
p9
I1
sS'including'
p10
I1
sS'innovative'
p11
I2
sS'llc'
p12
I2
sS'find'
p13
I1
sS'row'
p14
I1
sS'impact'
p15
I3
sS'style'
p16
I1
sS'based'
p17
I1
sVcandidate
p18
I1
sS'located'
p19
I1
sVdisability
p20
I1
sS'employer'
p21
I1
sS'environment'
p22
I1
sS'source'
p23
I1
sS'team.'
p24
I2
sS'foster'
p25
I1
sS'advanced'
p26
I1
sS'teaching'
p27
I8
sS'extensive'
p28
I1
sS'pride'
p29
I1
sS'defining'
p30
I1
sS'real'
p31
I1
sS'someone'
p32
I1
sS'years.'
p33
I1
sS'disparate'
p34
I1
sS'python'
p35
I1
sS'practice'
p36
I1
sS'early'
p37
I4
sS'five'
p38
I1
sS'valuable'
p39
I1
sS'birth'
p40
I1
sS'big data'
p41
I2
sS'vast'
p42
I2
sS'execute'
p43
I1
sS'resource'
p44
I1
sS'solution'
p45
I1
sS'specific'
p46
I1
sS'benefit'
p47
I1
sS'serious'
p48
I1
sS'architecture'
p49
I1
sS'sql'
p50
I1
sS'team'
p51
I1
sS'become'
p52
I1
sS'vision'
p53
I1
sS'thinkers.'
p54
I1
sVfemale
p55
I1
sS'reduce'
p56
I1
sS"bachelor's"
p57
I1
sS'related'
p58
I1
sVdesign
p59
I1
sS'result'
p60
I1
sS'defines'
p61
I1
sS'casual'
p62
I1
sS'best'
p63
I2
sS'ability'
p64
I1
sS'large'
p65
I1
sS'degree'
p66
I1
sS"master's"
p67
I1
sS'pattern'
p68
I1
sS'creative'
p69
I1
sS'looking'
p70
I2
sS'quickly'
p71
I1
sS'critical'
p72
I1
sS'discovers'
p73
I1
sS'provides'
p74
I1
sS'innovation'
p75
I1
sS'across'
p76
I1
sS'math'
p77
I1
sS'supporting'
p78
I2
sS'belief'
p79
I1
sS'business'
p80
I2
sS'data scientist'
p81
I1
sS'stakeholder'
p82
I1
sS'communicate'
p83
I1
sS'step'
p84
I1
sS'growth.'
p85
I1
sS'api-based'
p86
I1
sS'along'
p87
I1
sS'strong'
p88
I1
sS'teacher'
p89
I2
sS'improve'
p90
I1
sS'great'
p91
I1
sS'fit'
p92
I1
sS'metro'
p93
I1
sS'package'
p94
I1
sS'career'
p95
I1
sS'programming'
p96
I1
sS'equal'
p97
I1
sS'experience'
p98
I5
sS'connection'
p99
I1
sS'stop.'
p100
I1
sS'data analytics'
p101
I2
sVqualification
p102
I1
sS'childhood'
p103
I4
sS'datastores'
p104
I1
sS'secure'
p105
I1
sS'family'
p106
I1
sS'overview'
p107
I1
sS'data science'
p108
I2
sS'within'
p109
I1
sS'powerful'
p110
I1
sS'highly'
p111
I2
sS'patience'
p112
I1
sS'education.'
p113
I1
sS'technologist'
p114
I1
sS'wanted'
p115
I1
sS'working'
p116
I2
sS'meaningful'
p117
I1
sS'creativity'
p118
I1
sS'system'
p119
I3
sVstrategy
p120
I6
sS'confident'
p121
I1
sS'program'
p122
I1
sS"we're"
p123
I1
sS'way'
p124
I1
sS'assessment'
p125
I1
sS'data management'
p126
I1
sS'define'
p127
I1
sS'company'
p128
I2
sS'curriculum'
p129
I1
sS'c'
I1
sVveteran
p130
I1
sS'downtown'
p131
I1
sS'child'
p132
I3
sS'talented'
p133
I1
sS'md'
p134
I2
sS'join'
p135
I1
sS'language'
p136
I1
sS'strategies.'
p137
I1
sS'work'
p138
I5
sS'hands-on'
p139
I1
sS'value'
p140
I1
sS'machine learning'
p141
I2
sS'compensation'
p142
I1
sS'future'
p143
I1
sS'applies'
p144
I1
sS'fun'
p145
I1
sS"company's"
p146
I1
sS'outcome'
p147
I2
sS'customers.'
p148
I1
sS'process'
p149
I1
sS'ground-breaking'
p150
I1
sS'minimum'
p151
I1
sS'commonly'
p152
I1
sS'want'
p153
I1
sS'kindergarten.'
p154
I1
sS'need'
p155
I1
sS'education'
p156
I1
sS'technology'
p157
I2
sS'clearly'
p158
I1
sS'geeks.'
p159
I1
sS'information'
p160
I1
sS'realizing'
p161
I1
sS'-'
I1
sS'amount'
p162
I2
sS'member'
p163
I1
sS'field'
p164
I2
sS'role'
p165
I1
sS'computer science'
p166
I2
sS'bethesda'
p167
I4
sS'educator'
p168
I1
sS'effectiveness'
p169
I1
sS'development'
p170
I2
sS'map'
p171
I1
sS'product'
p172
I1
sS'used'
p173
I1
sS'multiple'
p174
I1
sVminority
p175
I1
sS'collaborative'
p176
I1
sS'transforming'
p177
I1
sS'philosophy'
p178
I1
sS'develops'
p179
I1
sS'important'
p180
I1
sS'rigor'
p181
I1
sS'plan'
p182
I1
sS'position'
p183
I1
sS'protected'
p184
I1
sS'data'
p185
I7
sS'aggregated'
p186
I1
sS'instrumental'
p187
I1
sS'individual'
p188
I1
sS'25 years'
p189
I1
sS'effective'
p190
I1
sS'database'
p191
I3
sS'headquarters'
p192
I1
sS'together'
p193
I1
sS'responsibility'
p194
I1
sS'professional'
p195
I1
sS'5 year'
p196
I1
sS'opportunity'
p197
I1
sS'make'
p198
I1
s.