(dp1
S'sector'
p2
I1
sS'concept'
p3
I1
sS'help'
p4
I2
sS'insight'
p5
I1
sS'mission'
p6
I1
sS'competitive'
p7
I1
sS'including'
p8
I1
sS'statistical'
p9
I1
sS'committed'
p10
I1
sS'missions.'
p11
I1
sS'knowledge'
p12
I1
sS'analytic'
p13
I2
sS'expertise.'
p14
I1
sS'discovering'
p15
I1
sS'hidden'
p16
I1
sS'setting'
p17
I1
sS'achieve'
p18
I1
sS'disparate'
p19
I1
sS'government'
p20
I1
sVb
I1
sS'hamilton'
p21
I1
sS'fortune'
p22
I1
sS'mathematician'
p23
I1
sS'problems.'
p24
I1
sS'solution'
p25
I1
sS'public'
p26
I1
sS'100 year'
p27
I1
sS'analytical'
p28
I1
sS'management technology'
p29
I1
sS'toughest'
p30
I1
sS'side'
p31
I1
sS'mathematical'
p32
I1
sS'domain'
p33
I1
sS'aspect'
p34
I1
sS'people'
p35
I1
sS'cybersecurity'
p36
I1
sS'machine learning data mining'
p37
I1
sS'crossfunctional'
p38
I1
sS'analytics'
p39
I2
sS'design'
p40
I1
sS'result'
p41
I1
sS'operation'
p42
I1
sS'subject'
p43
I1
sS'capability'
p44
I1
sS'mine data'
p45
I1
sS'degree'
p46
I1
sS'pattern'
p47
I1
sS'provides'
p48
I1
sS'innovation'
p49
I1
sS'across'
p50
I2
sS'infrastructure'
p51
I1
sS'ability'
p52
I2
sS'business'
p53
I1
sS'workflow'
p54
I1
sS'data scientist'
p55
I1
sS'deliver'
p56
I1
sS'delivering'
p57
I1
sS'job'
p58
I1
sS'leadership'
p59
I1
sS'lowerlevel'
p60
I1
sS'key'
p61
I1
sS'address'
p62
I1
sS'strong'
p63
I1
sS'change'
p64
I1
sS'software development'
p65
I1
sS'data visualization'
p66
I1
sS'technical'
p67
I1
sS'explore'
p68
I1
sS'experience'
p69
I1
sS'turn'
p70
I1
sS'range'
p71
I1
sVqualification
p72
I1
sS'implement'
p73
I1
sS'software'
p74
I1
sS'consulting'
p75
I3
sS'previously'
p76
I1
sS'number'
p77
I1
sS'private'
p78
I1
sS'one'
p79
I1
sS'm/f/disability/vet.'
p80
I1
sS'data mining'
p81
I3
sS'forefront'
p82
I1
sS'technologist'
p83
I1
sS'unit'
p84
I1
sS'use'
p85
I1
sS'leverage'
p86
I2
sS'service'
p87
I1
sS'source'
p88
I1
sS'leading'
p89
I1
sS'system'
p90
I1
sS'strategy'
p91
I1
sS'endure.'
p92
I1
sS'basic'
p93
I1
sS'r0003866'
p94
I1
sS'500'
p95
I1
sS'firm'
p96
I2
sS'globe.'
p97
I1
sS'business problem'
p98
I1
sS'tool'
p99
I1
sS'employees.'
p100
I1
sS'gap'
p101
I1
sS'delivery'
p102
I1
sS'ensuring'
p103
I1
sS'automated'
p104
I1
sS'analyze'
p105
I1
sS'eoe'
p106
I1
sS'requirements.'
p107
I1
sS'integrating'
p108
I1
sS'challenge'
p109
I1
sS'work'
p110
I2
sS'examine'
p111
I1
sS'machine learning'
p112
I2
sS'project'
p113
I1
sS'matter'
p114
I1
sS'today'
p115
I1
sS'grasp'
p116
I1
sS'meet'
p117
I1
sS'advantage'
p118
I1
sS'bridge'
p119
I1
sS'full'
p120
I1
sS'visualizations.'
p121
I1
sS'process'
p122
I2
sS'statistic'
p123
I1
sS'problem.'
p124
I1
sS'engineering'
p125
I2
sS'pressing'
p126
I1
sS'expertise'
p127
I3
sS'partner'
p128
I1
sS'allen'
p129
I4
sS'technology'
p130
I4
sS'large data set'
p131
I1
sS'booz'
p132
I4
sS'develop'
p133
I1
sS'combination'
p134
I1
sS'provide'
p135
I2
sS'corporation'
p136
I1
sS'complex'
p137
I1
sS'role'
p138
I1
sS'computer science'
p139
I2
sS'difficult'
p140
I1
sS'multiple'
p141
I2
sS'diverseenvironment'
p142
I1
sS'ba'
p143
I1
sS'goal'
p144
I1
sS'not-for-profit'
p145
I1
sS'proud'
p146
I1
sS'analysis'
p147
I1
sS'client'
p148
I2
sS'solve'
p149
I2
sS'senior'
p150
I1
sS'requires'
p151
I1
sS'latest'
p152
I1
s.