(dp1
S'lda'
p2
I1
sS'f/m/protected'
p3
I1
sS'nosql'
p4
I1
sS'hp'
p5
I1
sS'emerging'
p6
I1
sS'hadoop'
p7
I2
sS'course'
p8
I1
sS'including'
p9
I3
sS'tough'
p10
I1
sS'skill'
p11
I3
sS'latent'
p12
I1
sS'knowledge'
p13
I2
sS'big data'
p14
I2
sS'implementation'
p15
I1
sS'tagline'
p16
I1
sS'written'
p17
I1
sS'demonstrate'
p18
I1
sS'appropriate'
p19
I1
sS'matlab'
p20
I1
sS'validation.'
p21
I1
sS'tenacity'
p22
I1
sS'usage'
p23
I1
sS'probabilistic'
p24
I1
sS'pca'
p25
I1
sS'achieve'
p26
I1
sS'take'
p27
I2
sS'real'
p28
I1
sS'good'
p29
I3
sS'premium'
p30
I1
sS'risk'
p31
I1
sS'python'
p32
I1
sS'frequentist'
p33
I1
sS'scaling'
p34
I1
sS'framework'
p35
I2
sS'amazon'
p36
I2
sS'background'
p37
I1
sS'world'
p38
I1
sS'veteran/'
p39
I1
sS'like'
p40
I2
sS'disabilities.'
p41
I1
sS'issue'
p42
I1
sS'mapreduce'
p43
I1
sS'factorization'
p44
I1
sS'summary'
p45
I1
sS'capability'
p46
I1
sS'can-do'
p47
I1
sS'interpersonal'
p48
I1
sS'architecture'
p49
I2
sS'ecosystem'
p50
I3
sS'analytical'
p51
I1
sS'statistical inference'
p52
I1
sS'markov'
p53
I1
sS'challenge'
p54
I1
sS'kernel'
p55
I1
sS'cleaning/imputing'
p56
I1
sVset
p57
I1
sS'art'
p58
I1
sS'verbal'
p59
I1
sS'related'
p60
I1
sS'computer science statistics'
p61
I1
sS'data analysis'
p62
I2
sS'noisy/missing'
p63
I1
sVstatistic
p64
I1
sS'event'
p65
I1
sS'deploying'
p66
I2
sS'linear'
p67
I1
sS'large'
p68
I1
sS'judgment'
p69
I1
sVnetwork
p70
I1
sS'scala'
p71
I1
sS'decision'
p72
I2
sS'familiarity'
p73
I1
sS'eeo'
p74
I2
sS'research'
p75
I1
sS'state'
p76
I2
sS'innovation'
p77
I1
sS'approach'
p78
I2
sS'method'
p79
I4
sS'participation'
p80
I1
sS'full'
p81
I1
sS'theory'
p82
I1
sS'business'
p83
I2
sS'schedule'
p84
I1
sS'data scientist'
p85
I1
sS'team'
p86
I1
sS'deliver'
p87
I1
sS'cart'
p88
I1
sS'understanding'
p89
I2
sS'desired'
p90
I1
sS'job'
p91
I3
sS'bayes'
p92
I1
sS'key'
p93
I1
sS'humility'
p94
I1
sS'based'
p95
I1
sS'spark'
p96
I2
sS'strong'
p97
I4
sS'yes'
p98
I1
sS'identifies'
p99
I1
sS'5 year'
p100
I1
sS'conducting'
p101
I1
sS'working'
p102
I1
sVlanguage
p103
I1
sS'shift'
p104
I2
sS'larger'
p105
I1
sS'experience'
p106
I1
sS'practical'
p107
I1
sS'range'
p108
I1
sS'system architecture'
p109
I1
sS'positive'
p110
I1
sS'plus.'
p111
I2
sS'deep learning'
p112
I1
sS'ability'
p113
I1
sS'relevant'
p114
I1
sS'masters/phd'
p115
I1
sS'communication'
p116
I1
sS'data science'
p117
I2
sS'others'
p118
I1
sS'commitment'
p119
I1
sS'exercise'
p120
I1
sS'tackle'
p121
I1
sS'flexibility'
p122
I1
sS'initiative'
p123
I1
sS'learning'
p124
I3
sS'quality'
p125
I1
sS'cloud'
p126
I1
sS'head-on'
p127
I1
sS'dynamodb'
p128
I1
sS'confidence'
p129
I1
sS'management'
p130
I1
sVservice
p131
I1
sS'relocation'
p132
I1
sS'strategy'
p133
I1
sS'master'
p134
I1
sS'phd'
p135
I1
sS'role.'
p136
I1
sS'graphical'
p137
I1
sS'naive'
p138
I1
sS'java.'
p139
I1
sS'understand'
p140
I1
sS'excellent'
p141
I1
sS'bayesian'
p142
I2
sS'promote'
p143
I1
sS'wide'
p144
I1
sS'compute'
p145
I3
sS'developing'
p146
I1
sS'pursue'
p147
I1
sS'anticipate'
p148
I1
sS'tree'
p149
I1
sS'machine learning'
p150
I2
sS'project'
p151
I1
sS'record'
p152
I1
sS'r'
I1
sS'smart'
p153
I2
sS'fun'
p154
I1
sS'making'
p155
I1
sS'problem'
p156
I1
sS'etc.'
p157
I2
sS'willingness'
p158
I1
sS'consults'
p159
I1
sS'proven'
p160
I2
sS'cluster'
p161
I2
sS'engineering'
p162
I2
sS'education'
p163
I1
sS'statistics.'
p164
I1
sS'cassandra'
p165
I1
sS'competitions/competitive'
p166
I1
sVcompetency
p167
I1
sS'united'
p168
I1
sS'travel'
p169
I1
sS'-'
I7
sS'feature'
p170
I1
sS'random forest'
p171
I1
sS'machine'
p172
I3
sS'field'
p173
I1
sS'recognizing'
p174
I1
sS'complex'
p175
I1
sS'role'
p176
I1
sS'tactic'
p177
I1
sS'objective'
p178
I1
sS'performance'
p179
I1
sS'3 year'
p180
I1
sS'tool'
p181
I1
sS'serverless'
p182
I1
sS'independent'
p183
I1
sS'description'
p184
I1
sS'hdfs'
p185
I1
sS'track'
p186
I1
sS'aws'
p187
I2
sS'proactively'
p188
I1
sS'driven'
p189
I1
sS'develops'
p190
I1
sS'programming languages'
p191
I1
sS'sql'
p192
I2
sS'device'
p193
I2
sS'america'
p194
I1
sS'opportunity'
p195
I2
sS'model'
p196
I5
sVstructure
p197
I1
sS'matrix'
p198
I1
sS'building'
p199
I1
sS'svm'
p200
I1
sS'individual'
p201
I1
sS'especially'
p202
I1
sS'algorithm'
p203
I1
sVdatabase
p204
I3
sS'required'
p205
I2
sS'logistic regression'
p206
I1
sS'drive'
p207
I1
sS'exploratory data analysis'
p208
I1
sS'aws-lambda'
p209
I1
sS'time'
p210
I1
sS'quantitative'
p211
I1
sS'senior'
p212
I1
sS'typically'
p213
I1
sS'ica'
p214
I1
sS'inc.'
p215
I1
sS'computer science'
p216
I2
s.