(dp1
S'skills'
p2
(lp3
S'nlp'
p4
aS'r d'
p5
aS'classification'
p6
aS'owl'
p7
aS'ip'
p8
aS'communication'
p9
aS'julia'
p10
aS'integration'
p11
aS'ant'
p12
aS'analytics'
p13
aS'business intelligence'
p14
aS'management'
p15
aS'statistical analysis'
p16
aS'go'
p17
aS'sas'
p18
aS'it management'
p19
aS'ic'
p20
aS'education'
p21
aS'random forest'
p22
aS'performance management'
p23
aS'clustering'
p24
aS'vis'
p25
aS'statistics'
p26
aS'gis'
p27
aS'healthcare industry'
p28
aS'government'
p29
aS'excel'
p30
aS'outsourcing'
p31
aS'research'
p32
aS'cell'
p33
aS'statistica'
p34
aS'rf'
p35
aS'knime'
p36
aS'matlab'
p37
aS'visio'
p38
aS'intelligence'
p39
aS'quality management'
p40
aS'pl'
p41
aS'asp'
p42
aS'transportation'
p43
aS'finance'
p44
aS'octave'
p45
aS'python'
p46
aS'collaboration'
p47
aS'processing'
p48
aS'data scientist'
p49
aS'c'
aS'arm'
p50
aS'data quality'
p51
aS'business process'
p52
aS'svm'
p53
aS'rest'
p54
aS'data processing'
p55
aS'sql'
p56
aS'regression'
p57
aS'modeling'
p58
aS'translation'
p59
aS'data'
p60
aS'customer relations'
p61
aS'a'
aS'search'
p62
aS'decision trees'
p63
aS'erp'
p64
aS'organization'
p65
aS'cluster'
p66
aS'programming'
p67
aS'analysis'
p68
aS'machine learning'
p69
aS'r'
aS'scripting'
p70
aS'logistic regression'
p71
aS'healthcare'
p72
aS'military'
p73
aS'cro'
p74
aS'data integration'
p75
aS'envi'
p76
asS'working-year'
p77
(lp78
S'5 year'
p79
asS'major'
p80
(lp81
S'information'
p82
aS'management'
p83
aS'transportation'
p84
aS'finance'
p85
aS'business'
p86
aS'ee'
p87
aS'communication'
p88
aS'machine learning'
p89
aS'analytics'
p90
aS'statistics'
p91
aS'design'
p92
aS'phd'
p93
aS'statistic'
p94
aS'law'
p95
aVphysic
p96
asS'education'
p97
(lp98
VBachelor
p99
aVMaster
p100
aVDoctor
p101
asS'responsibility'
p102
(lp103
S'large data set'
p104
aS'product'
p105
aS'processing'
p106
aS'information'
p107
aS'predict'
p108
aVinsight
p109
aS'communicate'
p110
aS'analysis'
p111
aS'statistical model'
p112
aS'analytic'
p113
aS'statistical method'
p114
aS'design'
p115
aS'modeling'
p116
aS'understand'
p117
aS'model'
p118
as.