(dp1
S'global'
p2
I4
sS'manager'
p3
I3
sS'mile'
p4
I1
sS'messy'
p5
I1
sS'user experience design'
p6
I1
sS'technique'
p7
I1
sS'disability'
p8
I3
sS'environment'
p9
I1
sS'include'
p10
I2
sS'presentation'
p11
I1
sS'collaborate'
p12
I1
sS'web services'
p13
I1
sS'level'
p14
I3
sS'gender'
p15
I1
sS'applicable'
p16
I2
sS'race'
p17
I1
sS'world-class'
p18
I1
sS'team'
p19
I8
sS'trend'
p20
I1
sS'domain.'
p21
I1
sS'establishes'
p22
I1
sS'designing'
p23
I1
sS'new'
p24
I1
sS'public'
p25
I1
sS'supporting'
p26
I1
sS'degree'
p27
I1
sS'understanding'
p28
I1
sS'reported'
p29
I1
sS'focused'
p30
I1
sS'thinker/'
p31
I1
sS'xtreme'
p32
I1
sS'interpret'
p33
I1
sS'software development'
p34
I1
sS'skills.'
p35
I1
sS'compliance'
p36
I1
sS'experience'
p37
I3
sS'loop'
p38
I1
sS'military'
p39
I1
sS'implement'
p40
I1
sS'team-oriented'
p41
I1
sS'highly'
p42
I2
sS'apply'
p43
I1
sS'select'
p44
I1
sS'use'
p45
I1
sS'exciting'
p46
I1
sS'open source'
p47
I1
sS'working'
p48
I2
sS'visit'
p49
I1
sS'call'
p50
I1
sS'incident'
p51
I3
sS'company'
p52
I1
sS'adaaa'
p53
I1
sS'must'
p54
I1
sS'customer'
p55
I3
sS'word'
p56
I1
sS'hour'
p57
I1
sS'work'
p58
I6
sS'learn'
p59
I2
sS'meet'
p60
I2
sS'beautiful'
p61
I1
sS'process'
p62
I1
sS'organized'
p63
I1
sS'effectively'
p64
I3
sS'documenting'
p65
I1
sS'simple'
p66
I1
sS'end'
p67
I1
sS'goal'
p68
I2
sS'provide'
p69
I2
sS'utilize'
p70
I1
sS'sector.'
p71
I1
sS'intelligent'
p72
I1
sS'product'
p73
I1
sS'derived'
p74
I1
sS'wholesale'
p75
I1
sS'data wrangling'
p76
I2
sS'law'
p77
I1
sS'data'
p78
I4
sS'response'
p79
I1
sVphysic
p80
I1
sS'microsoft office'
p81
I1
sS'documentation'
p82
I1
sS'platforms.'
p83
I1
sS'infors'
p84
I1
sVresponsibility
p85
I3
sS'healthcare'
p86
I1
sS'order'
p87
I1
sS'r d'
p88
I1
sS'office'
p89
I1
sS'insight'
p90
I1
sS'including'
p91
I3
sS'statistical'
p92
I1
sS'design.'
p93
I1
sS'superior'
p94
I2
sS'monitor'
p95
I1
sS'solving'
p96
I2
sS'identify trend'
p97
I1
sS'policy'
p98
I1
sS'motivated'
p99
I1
sS'python'
p100
I1
sS'material'
p101
I1
sS'one'
p102
I1
sS'represents'
p103
I1
sS'workload'
p104
I1
sS'status'
p105
I3
sS'0 year'
p106
I2
sS'idea'
p107
I1
sS'marital'
p108
I1
sS'engaging'
p109
I1
sS'operation'
p110
I3
sS'sexual'
p111
I1
sS'open'
p112
I1
sS'departmentally.'
p113
I1
sS'319-8000'
p114
I1
sS'headquartered'
p115
I1
sS'data scientist'
p116
I1
sVstandard
p117
I4
sS'base'
p118
I1
sS'york'
p119
I1
sS'obligation'
p120
I1
sS'accommodation'
p121
I1
sS'proficiency'
p122
I1
sS'interaction'
p123
I1
sS'language'
p124
I1
sS'could'
p125
I1
sS'www.infor.com.'
p126
I1
sS'retail'
p127
I1
sS'origin'
p128
I1
sS'situations.'
p129
I1
sS'strategic'
p130
I2
sS'hook'
p131
I1
sS'customization'
p132
I1
sS'quality'
p133
I1
sS'city'
p134
I1
sS'management'
p135
I2
sVservice
p136
I2
sVsystem
p137
I6
sS'needed'
p138
I1
sS'objectives.'
p139
I1
sS'relationship'
p140
I1
sS'improvement.'
p141
I1
sS'15'
p142
I1
sS'solutions.'
p143
I1
sS'solely'
p144
I1
sS'procedural'
p145
I1
sS'fashion'
p146
I1
sS'service.'
p147
I1
sS'need'
p148
I2
sS'amazon web services'
p149
I1
sS'user experience'
p150
I1
sS'veteran'
p151
I2
sS'responsible'
p152
I3
sS'able'
p153
I2
sS'also'
p154
I2
sS'potential'
p155
I1
sS'build'
p156
I2
sS'objective'
p157
I2
sS'200'
p158
I1
sS'departmental'
p159
I2
sS'deploys'
p160
I1
sS'plan'
p161
I1
sS'organization'
p162
I3
sS'clear'
p163
I1
sS'request'
p164
I1
sS'please'
p165
I2
sS'operations management'
p166
I2
sS'employer.'
p167
I1
sS'staff'
p168
I2
sS'knowledge'
p169
I2
sS'written'
p170
I1
sS'operational'
p171
I2
sS'employee'
p172
I1
sS'achieve'
p173
I1
sS'preferred'
p174
I3
sS'mathematics statistics'
p175
I1
sS'nearly'
p176
I1
sS'closely'
p177
I1
sS'relational'
p178
I1
sS'report'
p179
I3
sS'deductive'
p180
I1
sS'summary'
p181
I1
sS'investigate'
p182
I1
sS'interpersonal'
p183
I1
sS'activity'
p184
I1
sS'analytical'
p185
I3
sS'achieved'
p186
I1
sS'national'
p187
I1
sS'sex'
p188
I1
sS'individual'
p189
I2
sS'ability'
p190
I7
sS'project'
p191
I5
sS'currently'
p192
I1
sS'familiarity'
p193
I2
sS'state'
p194
I1
sS'protected'
p195
I2
sS'progress'
p196
I1
sS'email'
p197
I1
sS'computer science operations research'
p198
I1
sS'multi-task'
p199
I1
sS'deliver'
p200
I1
sS'efficiency'
p201
I1
sS'job'
p202
I2
sS'mentoring'
p203
I1
sS'distribution'
p204
I1
sS'improve'
p205
I1
sS'last'
p206
I1
sS'data visualization'
p207
I1
sS'country'
p208
I1
sS'equal'
p209
I1
sS'customer support'
p210
I1
sS'contribution'
p211
I1
sS'expression'
p212
I1
sS'color'
p213
I1
sS's-plus'
p214
I1
sS'table'
p215
I1
sS'strong'
p216
I2
sS'basis'
p217
I1
sS'quickly'
p218
I1
sS'change'
p219
I1
sS'flexible'
p220
I2
sS'territory'
p221
I1
sS'operations research'
p222
I2
sS'customer satisfaction'
p223
I1
sS'deep'
p224
I1
sS'assigning'
p225
I1
sS'present'
p226
I1
sS'developing'
p227
I1
sS'dashboard'
p228
I1
sS'fun'
p229
I1
sS'procedure'
p230
I1
sS'orientation'
p231
I1
sS'player'
p232
I1
sS'ready'
p233
I1
sS'develop'
p234
I3
sS'make'
p235
I1
sS'cross'
p236
I3
sS'member'
p237
I1
sS'complex'
p238
I4
sS'incumbent'
p239
I1
sS'largest'
p240
I1
sVdocument
p241
I1
sS'root cause analysis'
p242
I1
sS'difficult'
p243
I1
sS'practice'
p244
I1
sS'downloads'
p245
I1
sS'reporting'
p246
I6
sS'director'
p247
I1
sS'running'
p248
I1
sS'000'
p249
I1
sS'portal'
p250
I1
sS'user'
p251
I1
sS'hospitality'
p252
I1
sS'validate'
p253
I1
sS'opportunity'
p254
I3
sS'identity'
p255
I1
sS'reporting.'
p256
I1
sS'tracking'
p257
I2
sS'database'
p258
I1
sS'prioritize'
p259
I1
sS'well'
p260
I2
sS'analysis'
p261
I2
sS'command'
p262
I1
sS'english'
p263
I1
sS'position'
p264
I2
sS'agency'
p265
I1
sS'executive'
p266
I1
sS'assigned'
p267
I1
sVskill
p268
I5
sS'work.'
p269
I1
sS'improvement'
p270
I1
sS'internal'
p271
I1
sS'678'
p272
I1
sS'possible'
p273
I1
sS'experimental design'
p274
I1
sS'finding'
p275
I3
sS'using'
p276
I2
sS'formal'
p277
I1
sS'desire'
p278
I1
sS'necessary'
p279
I1
sS'like'
p280
I1
sS'articulates'
p281
I1
sS'exceed'
p282
I1
sS'oada'
p283
I1
sS'creed'
p284
I1
sS'intern'
p285
I1
sS'recommendation'
p286
I2
sS'home'
p287
I2
sS'employment'
p288
I1
sS'delivered'
p289
I1
sS'genetics'
p290
I1
sS'creative'
p291
I1
sS'religion'
p292
I1
sS'critical'
p293
I1
sS'passion'
p294
I1
sS'eliminate'
p295
I1
sS'knowledgebase'
p296
I1
sS'scientific'
p297
I1
sS'business'
p298
I1
sS'schedule'
p299
I1
sS'communicate'
p300
I1
sS'manufacturing'
p301
I1
sS'reports.'
p302
I1
sS'would'
p303
I1
sS'staff.'
p304
I1
sS'package'
p305
I1
sS'industry'
p306
I3
sS'ensure'
p307
I2
sS'university/college'
p308
I1
sS'powerpoint'
p309
I1
sS'software'
p310
I2
sS'communication'
p311
I3
sS'within'
p312
I2
sS'functional'
p313
I1
sS'primarily'
p314
I2
sS'pivot'
p315
I1
sS'area'
p316
I1
sS'support'
p317
I12
sS'apps'
p318
I1
sS'analyze'
p319
I1
sS'infor.com.'
p320
I1
sS'automates'
p321
I1
sS'recommends'
p322
I1
sS'offer'
p323
I1
sS'cloud'
p324
I2
sS'infor'
p325
I11
sS'ee computer science'
p326
I1
sS'embedded'
p327
I1
sS'characteristic'
p328
I1
sS'effectively.'
p329
I1
sS'maximum'
p330
I1
sS'statistics computer science'
p331
I1
sS'problem'
p332
I3
sS'etc.'
p333
I1
sS'citizenship'
p334
I1
sVstatistic
p335
I1
sS'proven'
p336
I2
sS'problem solving'
p337
I1
sS'organizational'
p338
I2
sS'education'
p339
I1
sS'discriminate'
p340
I1
sS'fast-thinking'
p341
I1
sS'excel'
p342
I1
sS'detail'
p343
I1
sS'graduate'
p344
I1
sS'application'
p345
I3
sS'functionality'
p346
I1
sS'computer science'
p347
I2
sS'manhattan'
p348
I1
sS'collaborative'
p349
I1
sS'helping'
p350
I1
sS'sql'
p351
I1
sS'independently'
p352
I1
sS'remote'
p353
I1
sS'algorithm'
p354
I2
sS'age'
p355
I1
sS'required'
p356
I1
sS'depth'
p357
I1
sVu
I2
sS'time'
p358
I1
sS'oral'
p359
I1
s.