(dp1
S'skills'
p2
(lp3
S'r d'
p4
aS'nosql'
p5
aS'amazon web services'
p6
aS'ip'
p7
aS'data science'
p8
aS'ant'
p9
aS'analytics'
p10
aS'engineering'
p11
aS'problem solving'
p12
aS'data mining'
p13
aS'go'
p14
aS'ic'
p15
aS'research'
p16
aS'web crawling'
p17
aS'statistics'
p18
aS'java'
p19
aS'education'
p20
aS'envi'
p21
aS'perl'
p22
aS'statistica'
p23
aS'rf'
p24
aS'computer science'
p25
aS'web services'
p26
aS'communication'
p27
aS'pl'
p28
aS'python'
p29
aS'ios'
p30
aS'data scientist'
p31
aS'c'
aS'arm'
p32
aS'management'
p33
aS'sql'
p34
aS'data'
p35
aS'a'
aS'search'
p36
aS'data collection'
p37
aS'science'
p38
aS'programming'
p39
aS'machine learning'
p40
aS'r'
aS'data analytics'
p41
aS'physics'
p42
aS'scripting'
p43
asS'working-year'
p44
(lp45
S'4 year'
p46
asS'major'
p47
(lp48
S'ee'
p49
aS'communication'
p50
aS'data science'
p51
aS'data mining'
p52
aS'general'
p53
aS'analytics'
p54
aS'engineering'
p55
aS'computer science engineering'
p56
aS'statistic'
p57
aS'management'
p58
aS'computer science'
p59
aS'data mining machine learning'
p60
aS'ece'
p61
aS'business'
p62
aS'phd'
p63
aS'statistics'
p64
aS'machine learning data mining'
p65
aVphysic
p66
aS'science'
p67
aS'machine learning'
p68
aS'physics'
p69
aS'data analytics'
p70
asS'education'
p71
(lp72
VBachelor
p73
aVMaster
p74
aVDoctor
p75
asS'responsibility'
p76
(lp77
S'product'
p78
aS'data collection'
p79
aS'business problem'
p80
aS'predict'
p81
aVinsight
p82
aS'statistical model'
p83
aS'analytic'
p84
aS'statistical method'
p85
aS'solve problem'
p86
aS'data mining'
p87
aS'implement'
p88
aS'extract'
p89
aS'model'
p90
as.