(dp1
S'global'
p2
I2
sS'go'
p3
I1
sS'graph'
p4
I1
sS'technique'
p5
I3
sS'disability'
p6
I1
sS'environment'
p7
I3
sS'position.'
p8
I1
sS'matlab'
p9
I1
sS'include'
p10
I1
sS'automotive'
p11
I1
sS'parallel/grid'
p12
I1
sS'timely'
p13
I1
sS'level'
p14
I1
sS'gender'
p15
I1
sS'solution'
p16
I2
sS'race'
p17
I1
sS'demonstrated'
p18
I1
sS'team'
p19
I2
sS'assessand'
p20
I1
sS'enhance'
p21
I1
sS'discover'
p22
I1
sS'thinker'
p23
I1
sS'manipulating'
p24
I1
sS'business'
p25
I7
sS'optimization'
p26
I1
sS'new'
p27
I1
sS'method'
p28
I1
sS'degree'
p29
I1
sS'eligibility'
p30
I1
sS'explore'
p31
I1
sS'leader.'
p32
I1
sS'consideration'
p33
I1
sS'strong'
p34
I3
sS'interpret'
p35
I1
sS'receive'
p36
I1
sS'consumer-related'
p37
I1
sS'economics'
p38
I2
sS'commonly'
p39
I1
sS'motor'
p40
I3
sS'unit'
p41
I1
sS'previously-developed'
p42
I1
sS'develop model'
p43
I1
sS'working'
p44
I1
sS'conjoint analysis'
p45
I1
sVcompany
p46
I3
sS'industrial organization'
p47
I1
sS'must'
p48
I1
sS'customer'
p49
I2
sS'join'
p50
I1
sS'work'
p51
I2
sS'machine learning'
p52
I2
sS'following'
p53
I1
sS'example'
p54
I1
sS'statistical analysis'
p55
I1
sS'compare'
p56
I1
sS'e.g.'
p57
I1
sS'topic'
p58
I1
sS'united'
p59
I1
sS'hoc'
p60
I1
sS'tableau'
p61
I1
sS'market research'
p62
I1
sS'methodology'
p63
I3
sS'product'
p64
I4
sS'description'
p65
I1
sS'unix/linux'
p66
I1
sS'techniques.opportunities'
p67
I1
sS'data'
p68
I2
sVphysic
p69
I2
sS'applicant'
p70
I1
sS'supervision'
p71
I1
sS'maintain'
p72
I1
sVresponsibility
p73
I1
sVsa
p74
I2
sS'survival analysis'
p75
I1
sS'r d'
p76
I1
sVinsight
p77
I1
sS'including'
p78
I2
sS'committed'
p79
I1
sS'position'
p80
I2
sS'monitor'
p81
I1
sS'platform'
p82
I2
sS'permanent'
p83
I1
sS'statistical software'
p84
I1
sS'within'
p85
I2
sS'framework'
p86
I1
sS'qualified'
p87
I1
sS'customer-oriented'
p88
I1
sS'easily'
p89
I1
sS'workforce.'
p90
I1
sS'always'
p91
I1
sS'creation.'
p92
I1
sS'ph.d.-level'
p93
I1
sS'development'
p94
I3
sS'formulate'
p95
I1
sS'related'
p96
I1
sS'expect'
p97
I1
sS'year'
p98
I1
sS'sexual'
p99
I1
sS'research'
p100
I3
sS'microeconomics'
p101
I1
sS'problem-solving'
p102
I1
sS'theory'
p103
I2
sS'data scientist'
p104
I1
sS'programming'
p105
I3
sS'moment'
p106
I1
sVqualification
p107
I2
sS'origin'
p108
I1
sS'already'
p109
I1
sS'primary'
p110
I1
sS'strategic'
p111
I1
sS'directly'
p112
I1
sS'open'
p113
I1
sS'given'
p114
I1
sS'management'
p115
I1
sS'leading'
p116
I1
sS'least'
p117
I1
sVmaster
p118
I2
sS'legally'
p119
I1
sS'business problem'
p120
I1
sS'tool'
p121
I2
sS'well-organized'
p122
I1
sS'part'
p123
I1
sS'sex'
p124
I1
sS'distance'
p125
I1
sS'translate'
p126
I1
sS'project'
p127
I2
sS'protected'
p128
I1
sS'game theory'
p129
I1
sS'ingenious'
p130
I1
sS'physics mathematics'
p131
I1
sS'problem-formulation'
p132
I1
sS'manner'
p133
I1
sS'hire.'
p134
I1
sS'veteran'
p135
I1
sS'performance'
p136
I1
sS'accuracy'
p137
I1
sS'multiple'
p138
I2
sS'track'
p139
I1
sS'collaboration'
p140
I1
sS'basis.'
p141
I1
sS'visa'
p142
I1
sS'organization'
p143
I1
sS'measured'
p144
I1
sS'delivery'
p145
I1
sS'gather'
p146
I1
sS'request'
p147
I1
sS'drive'
p148
I1
sS'brilliance.'
p149
I1
sS'consumer'
p150
I1
sS'grid computing'
p151
I1
sS'planning'
p152
I1
sS'forecast'
p153
I1
sS'knowledge'
p154
I1
sS'big data'
p155
I2
sS'implementation'
p156
I1
sS'written'
p157
I1
sS'employer'
p158
I1
sS'analytic'
p159
I1
sS'handle'
p160
I1
sS'preferred'
p161
I1
sS'mathematics statistics'
p162
I1
sS'competing'
p163
I1
sS'report'
p164
I1
sS'analytical'
p165
I1
sS'national'
p166
I1
sS'eviews'
p167
I1
sS'analytics'
p168
I2
sS'result'
p169
I4
sS'skill'
p170
I3
sS'ability'
p171
I2
sS'statistics computer science'
p172
I1
sS'sponsorship'
p173
I1
sVstate
p174
I1
sS'various'
p175
I2
sS'stata'
p176
I1
sS'timeframe'
p177
I1
sS'youll'
p178
I1
sS'available'
p179
I1
sS'creating'
p180
I1
sS'ph.d.'
p181
I1
sS'job'
p182
I1
sS'modeling'
p183
I1
sS'data visualization'
p184
I1
sS'equal'
p185
I1
sS'contract'
p186
I1
sS'proactive'
p187
I1
sVbayesian statistic
p188
I1
sS'color'
p189
I1
sS'inquisitive'
p190
I1
sS'data mining'
p191
I3
sS'table'
p192
I1
sS'qlikview'
p193
I1
sS'applied econometrics'
p194
I1
sS'theoretical/empirical'
p195
I1
sS'pc'
p196
I1
sS'teamwork'
p197
I1
sS'basic'
p198
I1
sS'demand'
p199
I2
sS'present'
p200
I1
sS'technical'
p201
I1
sS'mainframe'
p202
I1
sS'further.'
p203
I1
sS'orientation'
p204
I1
sS'oligopoly'
p205
I1
sS'experience'
p206
I7
sS'ready'
p207
I2
sS'partner'
p208
I1
sS'technology'
p209
I1
sS'develop'
p210
I1
sS'complex'
p211
I2
sS'status'
p212
I1
sS'independent'
p213
I1
sS'used'
p214
I1
sS'driven'
p215
I1
sS'macroeconomic'
p216
I1
sS'opportunity'
p217
I2
sS'identity'
p218
I1
sS'tracking'
p219
I1
sS'scenario'
p220
I1
sS'analysis'
p221
I3
sS'academic'
p222
I2
sS'without'
p223
I1
sS'quantitative'
p224
I2
sS'model'
p225
I3
sS'reward'
p226
I1
sS'subgroup'
p227
I1
sS'executive'
p228
I1
sS'gdi'
p229
I1
sS'applicants.'
p230
I1
sS'web'
p231
I1
sVcandidate
p232
I1
sS'field'
p233
I2
sS'source'
p234
I3
sS'evaluate'
p235
I2
sS'culturally'
p236
I1
sS'deployment'
p237
I1
sS'using'
p238
I2
sS'benefit'
p239
I1
sS'become'
p240
I1
sS'understood'
p241
I1
sS'pricing'
p242
I2
sS'statistic'
p243
I2
sS'employment'
p244
I2
sS'short-term'
p245
I1
sS'and/or'
p246
I1
sS'back-test'
p247
I1
sS'religion'
p248
I1
sS'market'
p249
I2
sS'innovation'
p250
I1
sS'minimal'
p251
I1
sS'considering'
p252
I1
sS'teradata'
p253
I1
sS'economist/data'
p254
I1
sS'marketing'
p255
I1
sS'communicate'
p256
I1
sS'conducting'
p257
I1
sS'status.'
p258
I1
sS'microsoft office'
p259
I1
sS'software'
p260
I2
sS'3+ year'
p261
I2
sS'communication'
p262
I1
sS'youd'
p263
I1
sS'appropriate'
p264
I1
sS'pivot'
p265
I1
sS'prepare'
p266
I1
sS'area'
p267
I1
sS'support'
p268
I3
sS'1+ year'
p269
I1
sS'authorized'
p270
I1
sS'way'
p271
I1
sS'analyze'
p272
I1
sS'regard'
p273
I1
sS'ford'
p274
I5
sS'volume'
p275
I1
sS'attainable'
p276
I1
sS'record'
p277
I1
sS'verification'
p278
I1
sS'etc.'
p279
I1
sS'ad'
p280
I1
sVsale
p281
I1
sS'imagination'
p282
I1
sS'diverse'
p283
I2
sS'exist'
p284
I1
sS'variety'
p285
I1
sS'three year'
p286
I1
sS'interested'
p287
I1
sS'computer science'
p288
I2
sS'department'
p289
I1
sS'sql'
p290
I1
sS'age'
p291
I1
sS'required'
p292
I1
sS'time'
p293
I1
sS'oral'
p294
I1
s.