(dp1
S'skills'
p2
(lp3
S'owl'
p4
aS'supply chain'
p5
aS'ip'
p6
aS'communication'
p7
aS'soc'
p8
aS'integration'
p9
aS'vis'
p10
aS'problem solving'
p11
aS'business development'
p12
aS'ic'
p13
aS'git'
p14
aS'scala'
p15
aS'valuation'
p16
aS'storage'
p17
aS'hadoop'
p18
aS'research'
p19
aS'cell'
p20
aS'lua'
p21
aS'rf'
p22
aS'visio'
p23
aS'data management'
p24
aS'customer satisfaction'
p25
aS'performance management'
p26
aS'collaboration'
p27
aS'innovation'
p28
aS'data scientist'
p29
aS'search'
p30
aS'business process'
p31
aS'management'
p32
aS'oop'
p33
aS'training'
p34
aS'data'
p35
aS'project management'
p36
aS'customer experience'
p37
aS'a'
aS'c'
aS'analytics'
p38
aS'excel'
p39
aS'analysis'
p40
aS'idl'
p41
aS'r'
aS'pl'
p42
aS'organization'
p43
aS'cro'
p44
asS'working-year'
p45
(lp46
S'0 year'
p47
asS'major'
p48
(lp49
S'analytics'
p50
aS'management'
p51
aS'business'
p52
aS'project management'
p53
aS'communication'
p54
asS'education'
p55
(lp56
VBachelor
p57
aVMaster
p58
asS'responsibility'
p59
(lp60
S'development'
p61
aS'product'
p62
aS'analytic'
p63
aS'presentation'
p64
aVinsight
p65
aS'analysis'
p66
aS'improvement'
p67
aS'cross-functionally'
p68
aS'understand'
p69
aS'solve problem'
p70
aS'implement'
p71
aS'evaluation'
p72
as.