(dp1
S'skills'
p2
(lp3
S'nosql'
p4
aS'ip'
p5
aS'ant'
p6
aS'vis'
p7
aS'data governance'
p8
aS'go'
p9
aS'ic'
p10
aS'sem'
p11
aS'management'
p12
aS'rdbms'
p13
aS'big data'
p14
aS'asic'
p15
aS'integration'
p16
aS'governance'
p17
aS'strategy'
p18
aS'lua'
p19
aS'rf'
p20
aS'data management'
p21
aS'data scientist'
p22
aS'data quality'
p23
aS'metrics'
p24
aS'sql'
p25
aS'data'
p26
aS'a'
aS'c'
aS'erp'
p27
aS'analytics'
p28
aS'r'
aS'pl'
p29
aS'organization'
p30
aS'data integration'
p31
asS'working-year'
p32
(lp33
S'0 year'
p34
asS'major'
p35
(lp36
S'information'
p37
aS'ece'
p38
aS'management'
p39
aS'business'
p40
aS'big data'
p41
aS'ee'
p42
aS'analytics'
p43
asS'education'
p44
(lp45
VBachelor
p46
aVMaster
p47
asS'responsibility'
p48
(lp49
S'information'
p50
aS'product'
p51
aVinsight
p52
aS'mapping'
p53
aS'analytic'
p54
aS'understand'
p55
aS'implement'
p56
aS'model'
p57
as.