(dp1
S'skills'
p2
(lp3
S'r d'
p4
aS'intelligence'
p5
aS'energy'
p6
aS'ant'
p7
aS'vis'
p8
aS'engineering'
p9
aS'defense'
p10
aS'go'
p11
aS'ic'
p12
aS'management'
p13
aS'big data'
p14
aS'asic'
p15
aS'strategy'
p16
aS'envi'
p17
aS'computer science'
p18
aS'visio'
p19
aS'policy'
p20
aS'data management'
p21
aS'ip'
p22
aS'government'
p23
aS'data scientist'
p24
aS'data quality'
p25
aS'data'
p26
aS'a'
aS'c'
aS'national security'
p27
aS'science'
p28
aS'r'
aS'pl'
p29
aS'security'
p30
aS'cro'
p31
asS'working-year'
p32
(lp33
S'6+ year'
p34
aS'12 year'
p35
asS'major'
p36
(lp37
S'information'
p38
aS'management'
p39
aS'business'
p40
aS'big data'
p41
aS'ee'
p42
aS'science'
p43
aS'computer science computer engineering'
p44
aS'engineering'
p45
aS'data analyst'
p46
aS'computer engineering'
p47
aS'design'
p48
aS'computer science'
p49
aS'ee computer science'
p50
asS'education'
p51
(lp52
VBachelor
p53
aVMaster
p54
asS'responsibility'
p55
(lp56
S'information'
p57
aS'implement'
p58
aS'design'
p59
as.