(dp1
S'skills'
p2
(lp3
S'soc'
p4
aS'uv'
p5
aS'r d'
p6
aS'ip'
p7
aS'testing'
p8
aS'rest'
p9
aS'tableau'
p10
aS'ant'
p11
aS'vis'
p12
aS'data analysis'
p13
aS'go'
p14
aS'ic'
p15
aS'education'
p16
aS'd3'
p17
aS'visualization'
p18
aS'git'
p19
aS'open source'
p20
aS'big data'
p21
aS'banking'
p22
aS'recruiting'
p23
aS'hadoop'
p24
aS'writing'
p25
aS'statistica'
p26
aS'rf'
p27
aS'asic'
p28
aS'teamwork'
p29
aS'intelligence'
p30
aS'teaching'
p31
aS'pl'
p32
aS'envi'
p33
aS'distributed computing'
p34
aS'apis'
p35
aS'python'
p36
aS'aws'
p37
aS'collaboration'
p38
aS'innovation'
p39
aS'data scientist'
p40
aS'military experience'
p41
aS'oop'
p42
aS'statistical modeling'
p43
aS'modeling'
p44
aS'spark'
p45
aS'data'
p46
aS'a'
aS'c'
aS'data visualization'
p47
aS'scala'
p48
aS'programming'
p49
aS'analysis'
p50
aS'machine learning'
p51
aS'data center'
p52
aS'credit'
p53
aS'h2o'
p54
aS'r'
aS'artificial intelligence'
p55
aS'military'
p56
aS'validation'
p57
aS'cro'
p58
asS'working-year'
p59
(lp60
S'5 year'
p61
aS'3 year'
p62
aS'five year'
p63
aS'1 year'
p64
asS'major'
p65
(lp66
S'information'
p67
aS'ece'
p68
aS'big data'
p69
aS'computing'
p70
aS'ee'
p71
aS'machine learning'
p72
aS'design'
p73
aS'artificial intelligence'
p74
aS'machine learning artificial intelligence'
p75
aS'statistic'
p76
aS'mis'
p77
aS'law'
p78
aS'phd'
p79
aVphysic
p80
aS'history'
p81
asS'education'
p82
(lp83
VBachelor
p84
aVMaster
p85
aVDoctor
p86
asS'responsibility'
p87
(lp88
S'development'
p89
aS'information'
p90
aS'product'
p91
aS'data analysis'
p92
aS'decision-making'
p93
aS'communicate'
p94
aS'analysis'
p95
aS'statistical model'
p96
aS'design'
p97
aS'modeling'
p98
aS'model'
p99
aS'extract'
p100
aS'transformation'
p101
as.