(dp1
S'code'
p2
I2
sS'consider'
p3
I2
sS'roc'
p4
I1
sS'manager'
p5
I2
sS'messy'
p6
I1
sS'content'
p7
I1
sS'curating'
p8
I1
sS'everything'
p9
I1
sS'disability'
p10
I1
sS'environment'
p11
I2
sS'position.'
p12
I1
sS'discovering'
p13
I1
sS'passion'
p14
I1
sS'programmatically'
p15
I1
sS'bringing'
p16
I1
sS'college.'
p17
I1
sS'bring'
p18
I2
sS'gender'
p19
I1
sS'solution'
p20
I1
sS'large'
p21
I3
sS'race'
p22
I1
sS'team'
p23
I2
sS'enjoy'
p24
I1
sS'trend'
p25
I1
sS'consistent'
p26
I1
sS'discover'
p27
I1
sS'perspective'
p28
I1
sS'promotes'
p29
I1
sS'investment'
p30
I1
sS'change.'
p31
I1
sS'richard'
p32
I1
sVsection
p33
I1
sS'experiment'
p34
I1
sS'conduct'
p35
I1
sS'new'
p36
I7
sS'ever'
p37
I1
sS'led'
p38
I1
sS'degree'
p39
I2
sS'continuing'
p40
I1
sS'smartest'
p41
I1
sS'explore'
p42
I1
sS'humility'
p43
I1
sS'consideration'
p44
I1
sS'change'
p45
I1
sS'skills.'
p46
I1
sS'talent'
p47
I1
sS'technical'
p48
I1
sS'experience'
p49
I10
sS'company.'
p50
I2
sS'love'
p51
I1
sS'highly'
p52
I1
sS'api'
p53
I1
sS'analyzing'
p54
I1
sS'apply'
p55
I1
sS'dreams.'
p56
I1
sS'use'
p57
I1
sS'open source'
p58
I1
sS'working'
p59
I2
sS'19050'
p60
I1
sS'two'
p61
I1
sS'authorization'
p62
I1
sS'started'
p63
I1
sS'brings'
p64
I1
sS'company'
p65
I4
sS'curriculum'
p66
I1
sS'effort'
p67
I1
sS'customer'
p68
I7
sS'market.'
p69
I1
sS'23-a'
p70
I1
sS'join'
p71
I3
sS'integrating'
p72
I1
sS'us.'
p73
I1
sS'work'
p74
I1
sS'advocacy'
p75
I1
sS'machine learning'
p76
I2
sS'learn'
p77
I1
sS'history'
p78
I1
sS'ingenuity'
p79
I2
sS're-imagined'
p80
I1
sS'something'
p81
I1
sS'want'
p82
I1
sS'information'
p83
I1
sS'educational'
p84
I1
sS'united'
p85
I1
sS'goal'
p86
I2
sS'tableau'
p87
I1
sS'machine'
p88
I1
sS'amazing'
p89
I1
sS'map'
p90
I1
sS'unmined'
p91
I1
sS'building'
p92
I2
sS'may'
p93
I2
sS'products.'
p94
I1
sS'3 years'
p95
I3
sS'law'
p96
I3
sS'data'
p97
I7
sS'applicant'
p98
I3
sS'chief'
p99
I1
sS'responsibility'
p100
I1
sS'operate'
p101
I1
sS'five year'
p102
I1
sS'help'
p103
I3
sS"don't"
p104
I1
sS'mission'
p105
I1
sS'companies.'
p106
I1
sS'including'
p107
I1
sS'committed'
p108
I1
sS'still'
p109
I2
sS'superior'
p110
I1
sS'police'
p111
I1
sS'fit'
p112
I1
sS'interesting'
p113
I1
sS'writing'
p114
I1
sS'production'
p115
I1
sS'criminal'
p116
I4
sS'python'
p117
I2
sS'qualified'
p118
I3
sS"you've"
p119
I1
sS'day'
p120
I1
sS'bank'
p121
I1
sS'founder.'
p122
I1
sS'exhibit.'
p123
I1
sS'status'
p124
I3
sS'financial'
p125
I2
sS'mental'
p126
I1
sS'simplicity'
p127
I3
sS'idea'
p128
I1
sS'marital'
p129
I1
sS'breakthrough'
p130
I1
sS'measure'
p131
I1
sS'extract'
p132
I1
sS"america's"
p133
I1
sS'human-readable'
p134
I1
sS'looking'
p135
I1
sS'twenty-five'
p136
I1
sS'associate'
p137
I3
sS'million'
p138
I1
sS'data scientist'
p139
I1
sS'drug-free'
p140
I1
sS'york'
p141
I2
sS'cutting-edge'
p142
I1
sS'ask'
p143
I1
sS'accommodation'
p144
I1
sS'training'
p145
I1
sS'language'
p146
I1
sS'programming'
p147
I1
sVqualification
p148
I2
sS'relational'
p149
I1
sS'think'
p150
I1
sS'first'
p151
I1
sS'origin'
p152
I1
sS'one'
p153
I12
sS'open'
p154
I1
sS'tomorrow'
p155
I2
sS"you're"
p156
I3
sS'given'
p157
I1
sS'leading'
p158
I2
sS'top'
p159
I2
sS'recruiting'
p160
I2
sS'least'
p161
I8
sS'regulation'
p162
I1
sS'california'
p163
I1
sS'exploring'
p164
I1
sS'hub'
p165
I1
sS'tool'
p166
I2
sS'serve'
p167
I1
sS'information-based'
p168
I2
sS'part'
p169
I1
sS'differentiate'
p170
I1
sS'believe'
p171
I1
sS'require'
p172
I1
sS'r'
I1
sS'next-generation'
p173
I1
sS'non-technical'
p174
I1
sS'san'
p175
I1
sS'correction'
p176
I1
sS'creative.'
p177
I1
sS'manner'
p178
I1
sS"engineer's"
p179
I1
sS'law.'
p180
I1
sS'tools.'
p181
I1
sS'do.'
p182
I1
sS'valued.'
p183
I1
sS'veteran'
p184
I1
sS'responsible'
p185
I1
sS'contact'
p186
I1
sS'ideal'
p187
I1
sS'without'
p188
I1
sS'build'
p189
I4
sS"bachelor's"
p190
I1
sS'collaboration'
p191
I1
sS'aws'
p192
I2
sS'america'
p193
I1
sS'idea.'
p194
I1
sS'managing'
p195
I1
sS'h2o'
p196
I1
sS'tech'
p197
I9
sS'clean'
p198
I1
sS'senior'
p199
I2
sS'elevate'
p200
I1
sS'd3'
p201
I1
sS'r d'
p202
I1
sS'impact'
p203
I2
sS'big data'
p204
I2
sS'writes'
p205
I1
sVstate
p206
I3
sS'employer'
p207
I1
sS'team.'
p208
I1
sS'screening'
p209
I1
sS'rich'
p210
I1
sS'fuel'
p211
I1
sS'local'
p212
I2
sS'achieve'
p213
I1
sS'capital'
p214
I11
sS'preferred'
p215
I1
sS'please.'
p216
I1
sS'regarding'
p217
I2
sS'banking'
p218
I3
sS'investigate'
p219
I1
sS'1 year'
p220
I2
sS'5 years'
p221
I3
sS'requirement'
p222
I1
sS'set'
p223
I1
sS'fair'
p224
I2
sS'national'
p225
I2
sS'testing'
p226
I1
sS'sex'
p227
I1
sS'see'
p228
I1
sS'college'
p229
I4
sS'blurt'
p230
I1
sS'please'
p231
I1
sS'future'
p232
I2
sS'probably'
p233
I1
sS'thrive'
p234
I1
sS"years'"
p235
I6
sS'creating'
p236
I3
sS'inquiries.'
p237
I1
sS'job'
p238
I2
sS'succeed'
p239
I1
sS'extent'
p240
I1
sS'1-800-304-9102'
p241
I1
sS'article'
p242
I2
sS'techniques.'
p243
I1
sS'data visualization'
p244
I1
sS'met'
p245
I1
sS'curious.'
p246
I1
sS'equal'
p247
I1
sS'simple'
p248
I1
sS'overview'
p249
I2
sS'data science'
p250
I2
sS'ground-up.'
p251
I1
sS'community'
p252
I1
sS'learning'
p253
I3
sS'pregnancy'
p254
I1
sS'respect'
p255
I2
sS'spark'
p256
I1
sS'powered'
p257
I1
sS"it's"
p258
I1
sS'.'
I1
sS'genetic'
p259
I1
sS'teamwork'
p260
I1
sS'basic'
p261
I1
sS'diversity'
p262
I1
sS'external'
p263
I1
sS'developing'
p264
I2
sS'value'
p265
I1
sS'transformation'
p266
I1
sS'receive'
p267
I1
sS'investigating'
p268
I2
sS'designing'
p269
I2
sS'orientation'
p270
I1
sS'ripe'
p271
I1
sS'ready'
p272
I1
sS'wrangler.'
p273
I1
sS'technology'
p274
I6
sS'develop'
p275
I1
sS'perform'
p276
I1
sS'identity/assignment'
p277
I1
sS'make'
p278
I1
sS'hadoop'
p279
I1
sS'member'
p280
I1
sS'complex'
p281
I1
sS'inquiry'
p282
I1
sS'development'
p283
I1
sS'used'
p284
I1
sS'numerical'
p285
I1
sS'phd'
p286
I1
sS'workplace.'
p287
I2
sS'afraid'
p288
I1
sS'protected'
p289
I1
sS'opportunity'
p290
I2
sS'transaction'
p291
I1
sS'undefined'
p292
I1
sS'database'
p293
I2
sS'analysis'
p294
I1
sS'data center'
p295
I1
sS'1'
I1
sS'thing.'
p296
I1
sS'model'
p297
I2
sS'latest'
p298
I1
sS'mclean'
p299
I2
sS'agency'
p300
I1
sS'guided'
p301
I1
sS'executive'
p302
I1
sS'territories.'
p303
I1
sS'maternity'
p304
I1
sS'using'
p305
I1
sS'skill'
p306
I2
sS'succeeding'
p307
I1
sS'visualization'
p308
I1
sS'rapid'
p309
I1
sS'candidate'
p310
I1
sS'agile'
p311
I1
sS'realize'
p312
I1
sS'source'
p313
I2
sS'technical training'
p314
I1
sS'humanity'
p315
I3
sS'chairman'
p316
I1
sS'virginia'
p317
I1
sS'quest'
p318
I1
sS'military experience'
p319
I1
sS'know'
p320
I2
sS'background'
p321
I2
sS'world'
p322
I2
sS'unique'
p323
I1
sS'color'
p324
I1
sS'customer experience'
p325
I1
sS'like'
p326
I1
sS'success'
p327
I1
sS'officer'
p328
I1
sS'right'
p329
I1
sS'people'
p330
I2
sS'growth'
p331
I1
sS'openness'
p332
I1
sS"master's"
p333
I1
sS'employment'
p334
I3
sS'scale'
p335
I2
sS'lead'
p336
I1
sS'scala'
p337
I2
sS'religion'
p338
I1
sS'sponsoring'
p339
I1
sS'innovation'
p340
I1
sS'results.'
p341
I1
sS'leader'
p342
I2
sS'good.'
p343
I1
sS'data analysis'
p344
I2
sS'banking.'
p345
I2
sS'bold'
p346
I1
sS'communicate'
p347
I1
sS'30+'
p348
I1
sS'prohibited'
p349
I1
sS'peer'
p350
I1
sS'science'
p351
I1
sS'industry'
p352
I1
sS'ob'
p353
I1
sS'act'
p354
I2
sS'shared'
p355
I1
sS'software'
p356
I2
sS'inclusion'
p357
I1
sS'within'
p358
I1
sS'difference.'
p359
I1
sS'succeeding.'
p360
I1
sS'federal'
p361
I2
sS'unprecedented'
p362
I1
sS'innovates'
p363
I1
sS'constantly'
p364
I1
sS'textual'
p365
I1
sS"we're"
p366
I1
sS'you.'
p367
I1
sS'form'
p368
I1
sS'apis'
p369
I1
sS'regard'
p370
I1
sS'applicable'
p371
I4
sS'4901-4920'
p372
I1
sS'engaging'
p373
I1
sS'founder-led'
p374
I1
sS'record'
p375
I2
sS'petabyte'
p376
I1
sS'fairbank'
p377
I1
sS'problem'
p378
I1
sS'etc.'
p379
I1
sS'citizenship'
p380
I1
sS'frighten'
p381
I1
sS'abstract'
p382
I1
sS'deep'
p383
I1
sS'physical'
p384
I1
sS'chance'
p385
I1
sS'49'
p386
I1
sS'sexual'
p387
I1
sS"you'll"
p388
I2
sS'digital'
p389
I2
sS'francisco'
p390
I1
sS'stay'
p391
I1
sS'helping'
p392
I2
sS'develops'
p393
I1
sS'sql'
p394
I1
sS'billion'
p395
I1
sS'age'
p396
I1
sS'curve'
p397
I1
sS"city's"
p398
I1
sS'together'
p399
I2
sS"philadelphia's"
p400
I1
sS'narrative'
p401
I1
sS'validation'
p402
I1
sS'others'
p403
I1
sS'disruptive'
p404
I1
s.