(dp1
S'skills'
p2
(lp3
S'ppc'
p4
aS'life sciences'
p5
aS'consulting'
p6
aS'r d'
p7
aS'owl'
p8
aS'ip'
p9
aS'data science'
p10
aS'vis'
p11
aS'soc'
p12
aS'ant'
p13
aS'analytics'
p14
aS'engineering'
p15
aS'defense'
p16
aS'analysis'
p17
aS'data mining'
p18
aS'go'
p19
aS'ic'
p20
aS'strategy'
p21
aS'genomics'
p22
aS'statistics'
p23
aS'genetics'
p24
aS'biomedical engineering'
p25
aS'government'
p26
aS'asic'
p27
aS'envi'
p28
aS'research'
p29
aS'access'
p30
aS'statistica'
p31
aS'rf'
p32
aS'html'
p33
aS'natural language processing'
p34
aS'advanced analytics'
p35
aS'mathematics'
p36
aS'energy'
p37
aS'pl'
p38
aS'biology'
p39
aS'processing'
p40
aS'visualization'
p41
aS'python'
p42
aS'collaboration'
p43
aS'innovation'
p44
aS'data scientist'
p45
aS'c'
aS'mpi'
p46
aS'medical imaging'
p47
aS'management'
p48
aS'facebook'
p49
aS'data analysis'
p50
aS'bioinformatics'
p51
aS'apache'
p52
aS'neuroscience'
p53
aS'informatics'
p54
aS'data'
p55
aS'a'
aS'java'
p56
aS'search'
p57
aS'data visualization'
p58
aS'solver'
p59
aS'non-profits'
p60
aS'science'
p61
aS'.net'
p62
aS'programming'
p63
aS'security clearance'
p64
aS'machine learning'
p65
aS'data cleaning'
p66
aS'r'
aS'financial services'
p67
aS'operations research'
p68
aS'organization'
p69
aS'security'
p70
aS'root'
p71
aS'cro'
p72
aS'statistical analysis'
p73
asS'working-year'
p74
(lp75
S'100 year'
p76
aS'100 years'
p77
aS'2 year'
p78
aS'1 year'
p79
asS'major'
p80
(lp81
S'ee'
p82
aS'data science'
p83
aS'statistic'
p84
aS'analytics'
p85
aS'engineering'
p86
aS'management technology'
p87
aS'data mining'
p88
aS'information'
p89
aS'management'
p90
aS'genetics'
p91
aS'natural language processing'
p92
aS'advanced analytics'
p93
aS'mathematics'
p94
aS'mis'
p95
aS'ee cs'
p96
aS'operations research'
p97
aS'data mining machine learning'
p98
aS'biology'
p99
aS'business'
p100
aS'phd'
p101
aS'medical imaging'
p102
aS'statistics'
p103
aS'bioinformatics'
p104
aS'informatics'
p105
aS'neuroscience'
p106
aS'biomedical engineering'
p107
aS'life sciences'
p108
aS'science'
p109
aS'machine learning'
p110
aS'history'
p111
asS'education'
p112
(lp113
VBachelor
p114
aVMaster
p115
aVDoctor
p116
asS'responsibility'
p117
(lp118
S'development'
p119
aS'information'
p120
aS'data analysis'
p121
aS'business problem'
p122
aS'processing'
p123
aS'analysis'
p124
aS'analytic'
p125
aS'data mining'
p126
aS'model'
p127
aS'data gathering'
p128
as.