(dp1
S'skills'
p2
(lp3
S'negotiation'
p4
aS'owl'
p5
aS'soc'
p6
aS'pmp'
p7
aS'r d'
p8
aS'asic'
p9
aS'communication'
p10
aS'rest'
p11
aS'eviews'
p12
aS'ant'
p13
aS'unix'
p14
aS'process improvement'
p15
aS'troubleshooting'
p16
aS'problem solving'
p17
aS'linux'
p18
aS'go'
p19
aS'it management'
p20
aS'ic'
p21
aS'itil'
p22
aS'management'
p23
aS'excel'
p24
aS'rf'
p25
aS'research'
p26
aS'cell'
p27
aS'ssis'
p28
aS'ip'
p29
aS'ms project'
p30
aS'pl'
p31
aS'envi'
p32
aS'product development'
p33
aS'iis'
p34
aS'innovation'
p35
aS'data scientist'
p36
aS'c'
aS'leadership'
p37
aS'apache'
p38
aS'word'
p39
aS'data'
p40
aS'b2b'
p41
aS'a'
aS'search'
p42
aS'saas'
p43
aS'erp'
p44
aS'windows'
p45
aS'microsoft word'
p46
aS'documentation'
p47
aS'engineering'
p48
aS'analysis'
p49
aS'powerpoint'
p50
aS'r'
aS'command'
p51
aS'architecture'
p52
aS'security'
p53
aS'root'
p54
aS'cro'
p55
asS'working-year'
p56
(lp57
S'65 year'
p58
asS'major'
p59
(lp60
S'information'
p61
aS'ece'
p62
aS'management'
p63
aS'business'
p64
aS'ee'
p65
aS'communication'
p66
aS'general'
p67
aS'business leadership'
p68
aS'engineering'
p69
aS'management technology'
p70
aS'law'
p71
aVphysic
p72
asS'education'
p73
(lp74
VBachelor
p75
aVMaster
p76
asS'responsibility'
p77
(lp78
S'development'
p79
aS'information'
p80
aS'product'
p81
aS'documentation'
p82
aS'predict'
p83
aVinsight
p84
aS'communicate'
p85
aS'analysis'
p86
aS'improvement'
p87
aS'understand'
p88
aS'ownership'
p89
aS'recommendation'
p90
aS'implement'
p91
aS'presentation'
p92
as.