(dp1
S'skills'
p2
(lp3
S'r d'
p4
aS'ip'
p5
aS'data science'
p6
aS'vis'
p7
aS'ant'
p8
aS'analytics'
p9
aS'engineering'
p10
aS'go'
p11
aS'mathematical modeling'
p12
aS'ic'
p13
aS'simulation'
p14
aS'quantitative analysis'
p15
aS'open source'
p16
aS'big data'
p17
aS'scala'
p18
aS'c'
aS'mathematica'
p19
aS'recruiting'
p20
aS'envi'
p21
aS'research'
p22
aS'big data analytics'
p23
aS'statistica'
p24
aS'rf'
p25
aS'optimization'
p26
aS'computer science'
p27
aS'policy'
p28
aS'mathematics'
p29
aS'pl'
p30
aS'text mining'
p31
aS'a'
aS'asp'
p32
aS'algebra'
p33
aS'valuation'
p34
aS'collaboration'
p35
aS'philosophy'
p36
aS'search'
p37
aS'algorithm development'
p38
aS'modeling'
p39
aS'e-learning'
p40
aS'data'
p41
aS'software development'
p42
aS'training'
p43
aVbayesian method
p44
aS'collaborative filtering'
p45
aS'solver'
p46
aS'science'
p47
aS'analysis'
p48
aS'machine learning'
p49
aS'r'
aS'lte'
p50
aS'linear algebra'
p51
aS'organization'
p52
aS'physics'
p53
aS'lua'
p54
aS'data analytics'
p55
asS'working-year'
p56
(lp57
S'10+ year'
p58
asS'major'
p59
(lp60
S'physics mathematics'
p61
aS'ee'
p62
aS'data science'
p63
aS'general'
p64
aS'analytics'
p65
aS'engineering'
p66
aS'computer science engineering'
p67
aS'statistic'
p68
aS'information'
p69
aS'big data'
p70
aS'big data analytics'
p71
aS'engineering physics'
p72
aS'computer science'
p73
aS'mathematics'
p74
aS'business'
p75
aS'philosophy'
p76
aS'law'
p77
aS'ee computer science'
p78
aVphysic
p79
aS'science'
p80
aS'machine learning'
p81
aS'physics'
p82
aS'data analytics'
p83
asS'education'
p84
(lp85
VBachelor
p86
aVMaster
p87
aVDoctor
p88
asS'responsibility'
p89
(lp90
S'development'
p91
aS'information'
p92
aS'evaluation'
p93
aS'formulate'
p94
aS'presentation'
p95
aVinsight
p96
aS'analysis'
p97
aS'simulation'
p98
aS'analytic'
p99
aS'optimization'
p100
aS'recommendation'
p101
aS'modeling'
p102
aS'model'
p103
aS'quantitative analysis'
p104
as.