(dp1
S'research design'
p2
I1
sS'help'
p3
I1
sS'mission'
p4
I1
sS'characteristic'
p5
I1
sS'employer.'
p6
I1
sS'developer'
p7
I1
sS'discipline'
p8
I2
sS'bringing'
p9
I1
sS'solving'
p10
I1
sS'disability'
p11
I1
sS'operational'
p12
I1
sS'analytic'
p13
I1
sS'homeland'
p14
I1
sS'citizen'
p15
I1
sS'suite'
p16
I1
sS'0-3 year'
p17
I1
sS'combination'
p18
I1
sS'government'
p19
I2
sS'evaluate'
p20
I1
sS'enterprise-wide'
p21
I1
sS'preferred'
p22
I1
sS'multi-intelligence'
p23
I1
sS'qualified'
p24
I1
sS'deployment'
p25
I1
sS'using'
p26
I1
sS'provision'
p27
I1
sS'requirement'
p28
I1
sS'open-source'
p29
I2
sS'solution'
p30
I2
sS'shelf'
p31
I2
sS'capability'
p32
I1
sS'race'
p33
I1
sS'excellence'
p34
I1
sS'team'
p35
I1
sS'security'
p36
I1
sS'beneficial'
p37
I1
sS'opportunity/affirmative'
p38
I1
sS'generation'
p39
I1
sS'national'
p40
I1
sS'testing'
p41
I1
sS'searching'
p42
I1
sS'sex'
p43
I1
sS'culture'
p44
I1
sS'defense'
p45
I1
sS'employment'
p46
I1
sS'and/or'
p47
I2
sS"master's"
p48
I1
sS'religion'
p49
I1
sS'innovation'
p50
I1
sS'mission.'
p51
I1
sS'leader'
p52
I1
sS'degree'
p53
I3
sS'modify'
p54
I1
sS'commercial'
p55
I2
sS'delivering'
p56
I1
sS'job'
p57
I1
sS'interface'
p58
I1
sS'gots'
p59
I1
sS'standard'
p60
I1
sS'mindset'
p61
I1
sVcot
p62
I1
sS'receive'
p63
I1
sS'compliance'
p64
I1
sS'equal'
p65
I1
sS'experience'
p66
I1
sS'altamira'
p67
I3
sS'ensure'
p68
I1
sVqualification
p69
I1
sS'action'
p70
I1
sS'status.'
p71
I1
sS'software'
p72
I4
sS'origin'
p73
I1
sS'color'
p74
I1
sS'data science'
p75
I2
sS'intelligence analysis'
p76
I1
sS'functional'
p77
I1
sS"altamira's"
p78
I1
sS'consideration'
p79
I1
sS'service'
p80
I1
sS'top'
p81
I1
sS'system'
p82
I4
sS'next'
p83
I1
sS'mid-market-size'
p84
I1
sS'off-the'
p85
I2
sS'maintenance'
p86
I1
sS'brings'
p87
I1
sS'company'
p88
I1
sS'regard'
p89
I1
sS'national security'
p90
I1
sS'technical'
p91
I3
sS'protected'
p92
I1
sS'meet'
p93
I1
sS'problem'
p94
I1
sS'application development'
p95
I1
sS'correction'
p96
I1
sS'premier'
p97
I1
sS'hardware'
p98
I1
sS'communities.'
p99
I1
sS'technology'
p100
I3
sS'technologies.'
p101
I1
sS'develop'
p102
I2
sS'veteran'
p103
I1
sS'cross'
p104
I1
sS'application'
p105
I2
sS'complex'
p106
I1
sS'functionality'
p107
I1
sS'online'
p108
I1
sS'u'
I2
sS'document'
p109
I1
sS'3 year'
p110
I1
sS'development'
p111
I1
sS"bachelor's"
p112
I2
sS'overall'
p113
I1
sS'plan'
p114
I1
sS'applicant'
p115
I1
sS'without'
p116
I1
sVresponsibility
p117
I1
sS'position'
p118
I1
s.