(dp1
S'reviews.'
p2
I2
sS'temperament'
p3
I1
sS'dynamic'
p4
I1
sS'existing'
p5
I1
sS'manages'
p6
I1
sS'integrity'
p7
I1
sS'depend'
p8
I1
sS'environment'
p9
I1
sS'presentation'
p10
I1
sS'collaborate'
p11
I1
sS'risk'
p12
I1
sS'responsibility.'
p13
I1
sS'every'
p14
I3
sS'more.'
p15
I1
sS'level'
p16
I2
sS'issue'
p17
I1
sS'solution'
p18
I4
sS'excellence'
p19
I1
sS'team'
p20
I1
sS'enjoy'
p21
I1
sS'pmp'
p22
I1
sS'direction.'
p23
I1
sS'process improvement'
p24
I1
sS'it management'
p25
I1
sS'week'
p26
I2
sS'established'
p27
I1
sS'provided.'
p28
I1
sS'current'
p29
I2
sS'conduct'
p30
I1
sS'new'
p31
I2
sS'completion'
p32
I1
sS'understanding'
p33
I1
sS'operating'
p34
I2
sS'fulfill'
p35
I2
sS'active'
p36
I1
sS'100'
p37
I1
sS'strong'
p38
I2
sS'b2b'
p39
I1
sS'change'
p40
I3
sS'receive'
p41
I2
sS'experience'
p42
I6
sS'social'
p43
I1
sS'must.'
p44
I1
sS'holmes'
p45
I1
sS'named'
p46
I1
sS'via'
p47
I1
sS'manage'
p48
I2
sS'logical'
p49
I1
sS'highly'
p50
I2
sS'patience'
p51
I1
sS'unix'
p52
I1
sS'redefining'
p53
I1
sS'cloud'
p54
I1
sS'comprised'
p55
I1
sS'use'
p56
I1
sS'devops'
p57
I1
sS'live'
p58
I2
sS'call'
p59
I2
sS'asset'
p60
I1
sS'recommend'
p61
I1
sS'assessment'
p62
I1
sS'company'
p63
I2
sS'envelope'
p64
I1
sS'employees.'
p65
I1
sS'fixes.'
p66
I1
sS'comments.'
p67
I2
sS'excellent'
p68
I1
sS'known'
p69
I2
sS'effort'
p70
I1
sS'must'
p71
I2
sS'customer'
p72
I2
sS'hour'
p73
I1
sS'work'
p74
I1
sS'meet'
p75
I2
sS'root'
p76
I2
sS'control'
p77
I1
sS'challenging'
p78
I1
sS'process'
p79
I6
sS'attribute'
p80
I1
sS'high'
p81
I2
sS'sphere'
p82
I1
sVtam
p83
I1
sS"computerworld's"
p84
I1
sS'preferably'
p85
I1
sS'information'
p86
I4
sS'recovery'
p87
I1
sS'provide'
p88
I4
sS'six'
p89
I1
sS'methodology'
p90
I1
sS'vital'
p91
I1
sS'intelligent'
p92
I1
sS'profile'
p93
I1
sS'product'
p94
I2
sS'remediation'
p95
I1
sS'effective'
p96
I1
sS'documentation'
p97
I1
sS'platforms.'
p98
I1
sS'complexity'
p99
I1
sVresponsibility
p100
I1
sS'stakeholder'
p101
I1
sS"forbes'"
p102
I1
sS'development.'
p103
I1
sS'r d'
p104
I1
sS'stability'
p105
I1
sS'management technology'
p106
I1
sS'committed'
p107
I1
sS'24'
p108
I1
sS'personal'
p109
I1
sS'fix'
p110
I1
sS'platform'
p111
I4
sS'permanent'
p112
I1
sS'opportunities.'
p113
I1
sS'non'
p114
I2
sS'good'
p115
I2
sS'introduce'
p116
I1
sS'strategic'
p117
I1
sS'day'
p118
I2
sS'literacy'
p119
I1
sS'identified'
p120
I2
sS'capability'
p121
I2
sS'interruption'
p122
I1
sS'0 year'
p123
I2
sS'series'
p124
I1
sS'unlock'
p125
I1
sS'operation'
p126
I4
sVevent
p127
I1
sS'predefined'
p128
I2
sS'driving'
p129
I1
sS'research'
p130
I2
sS'investigation'
p131
I2
sS'performs'
p132
I1
sS'cause'
p133
I2
sS'million'
p134
I1
sS'data scientist'
p135
I1
sS'diagnostic'
p136
I2
sS'multi-tenant'
p137
I1
sS'interaction'
p138
I1
sS'client-server'
p139
I1
sS"adp's"
p140
I1
sS'creates'
p141
I2
sVplace
p142
I2
sS'qualification'
p143
I3
sS'unflappable'
p144
I1
sS'first'
p145
I1
sS'major'
p146
I2
sS'participates'
p147
I1
sS'one'
p148
I3
sS'carry'
p149
I1
sS'problem solving'
p150
I1
sS'engineer'
p151
I1
sS'service'
p152
I14
sS'introduction'
p153
I1
sS'leading'
p154
I1
sS'structured'
p155
I1
sS'system'
p156
I2
sS'needed'
p157
I1
sS'management/resolution'
p158
I1
sS'insightful'
p159
I1
sS'exploring'
p160
I1
sS'on.'
p161
I1
sS'disruptions/degradations'
p162
I1
sS'relationship'
p163
I1
sS'tool'
p164
I2
sS'immediate'
p165
I1
sS'determines'
p166
I1
sS'correlate'
p167
I2
sS'project'
p168
I2
sS'future'
p169
I2
sS'architect'
p170
I1
sS'customers.'
p171
I1
sS'need'
p172
I3
sS'competency'
p173
I2
sS'environments.'
p174
I1
sS'efficient'
p175
I1
sS'responsible'
p176
I1
sS'-'
I1
sS'potential'
p177
I1
sS'ms project'
p178
I1
sS'channel'
p179
I2
sS'towards'
p180
I1
sS'business.'
p181
I1
sS'react'
p182
I1
sS'plan'
p183
I1
sS'understands'
p184
I1
sS'especially'
p185
I1
sS'microsoft word'
p186
I1
sS'gather'
p187
I1
sS'request'
p188
I2
sS'tech'
p189
I1
sS'technical'
p190
I6
sS'certification'
p191
I1
sS'agreed'
p192
I2
sS'automated'
p193
I1
sS'bring'
p194
I1
sS'protocol'
p195
I1
sS'availability'
p196
I3
sS'impact'
p197
I3
sS'inspiring'
p198
I2
sS'knowledge'
p199
I5
sS'implementation'
p200
I1
sS'written'
p201
I1
sS'delivery.'
p202
I1
sS'factor'
p203
I2
sS'adequate'
p204
I1
sS'awareness'
p205
I3
sS'continuity'
p206
I1
sS'proposals.'
p207
I2
sS'overall'
p208
I1
sS'preferred'
p209
I1
sS'degradation'
p210
I1
sS'dr'
p211
I1
sS'communicates'
p212
I2
sS'deployment.'
p213
I1
sS'architecture'
p214
I1
sS'activity'
p215
I1
sS'adherence'
p216
I1
sS'them.'
p217
I2
sS'view'
p218
I1
sS'mortems'
p219
I2
sS'predictive'
p220
I1
sVrequirement
p221
I1
sS'innovative'
p222
I1
sVclose
p223
I1
sS'best'
p224
I1
sS'capacity'
p225
I1
sS'expert'
p226
I1
sS'review'
p227
I5
sS'litech'
p228
I1
sS'state'
p229
I1
sS'infrastructure'
p230
I8
sS'attention'
p231
I1
sS'deliver'
p232
I3
sS'implementing'
p233
I1
sS'incident'
p234
I4
sS'key'
p235
I1
sS'competent'
p236
I1
sS'approval'
p237
I2
sS'exist.'
p238
I2
sS'empowering'
p239
I1
sS'empathy'
p240
I1
sS'career'
p241
I3
sS'many'
p242
I1
sS'job'
p243
I1
sS'leadership.'
p244
I2
sS'workplace'
p245
I1
sS'negotiation'
p246
I1
sS'cb'
p247
I1
sS'delivering'
p248
I1
sS'apache'
p249
I1
sS'initiative'
p250
I1
sS'ensures'
p251
I5
sS'create'
p252
I1
sS'acceptance'
p253
I1
sS'.'
I1
sS'production'
p254
I4
sS'maintenance'
p255
I1
sS'basic'
p256
I1
sS'utilizing'
p257
I1
sS'life'
p258
I2
sS'enable'
p259
I1
sS'environment.'
p260
I1
sS'demand'
p261
I1
sS'standard'
p262
I5
sS'case'
p263
I2
sS'value'
p264
I1
sS'brilliant'
p265
I1
sS'ongoing'
p266
I1
sS'error'
p267
I2
sS'procedure'
p268
I2
sS'adp.'
p269
I1
sVii
p270
I1
sS'sherlock'
p271
I2
sS'technology'
p272
I4
sS'management.'
p273
I2
sS'develop'
p274
I1
sS'windows.'
p275
I2
sS'administration'
p276
I1
sS'largest'
p277
I1
sVdocument
p278
I1
sS'conflict'
p279
I1
sS'status'
p280
I2
sS'used'
p281
I1
sS'assignment'
p282
I2
sS'assist'
p283
I2
sS'driven'
p284
I1
sS'user'
p285
I7
sS'ownership'
p286
I5
sS'database'
p287
I3
sS'prioritize'
p288
I2
sS'analysis'
p289
I1
sS'person'
p290
I1
sS'accountable'
p291
I1
sS'command'
p292
I1
sS'deploys'
p293
I1
sS'coordinate'
p294
I1
sS'latest'
p295
I2
sS'solaris'
p296
I1
sS'able'
p297
I1
sS'assessments.'
p298
I1
sS'interim'
p299
I1
sS'identify'
p300
I1
sS'skill'
p301
I6
sS'alignment'
p302
I1
sS'web'
p303
I2
sS'adp'
p304
I2
sS'possible.'
p305
I1
sS'business leadership'
p306
I1
sS'source'
p307
I2
sS'strive'
p308
I1
sS'complaint'
p309
I2
sS'around'
p310
I1
sS'cultural'
p311
I1
sS'listening'
p312
I1
sS'deployment'
p313
I1
sS'like'
p314
I1
sS'success'
p315
I1
sS'identifying'
p316
I1
sS'server'
p317
I2
sS'continue'
p318
I1
sS'security'
p319
I1
sS'soft'
p320
I1
sS'essential'
p321
I1
sS'twelve'
p322
I1
sS'verbal'
p323
I1
sS'people'
p324
I1
sS'library'
p325
I1
sS'recommendation'
p326
I1
sS'disrupting'
p327
I1
sS'and/or'
p328
I2
sS'lead'
p329
I1
sS'saas'
p330
I1
sS'everything'
p331
I1
sS'critical'
p332
I1
sS'innovation'
p333
I2
sS'demonstrated'
p334
I1
sS'core'
p335
I4
sS'product development'
p336
I1
sS'business'
p337
I10
sS'post'
p338
I2
sS'requirements.'
p339
I1
sS'understanding.'
p340
I1
sS'industry'
p341
I1
sS'ensure'
p342
I2
sS'powerpoint'
p343
I1
sS'warranty'
p344
I1
sS'communication'
p345
I4
sS'obtaining'
p346
I2
sS"world's"
p347
I1
sS'appropriate'
p348
I1
sS'troubleshooting'
p349
I1
sS'work-arounds'
p350
I1
sS'additional'
p351
I1
sS'area'
p352
I1
sS'assumed'
p353
I2
sS'support'
p354
I4
sS'accountability'
p355
I3
sS'systems.'
p356
I1
sS'way'
p357
I3
sS'crucially'
p358
I1
sS'function'
p359
I1
sS'interest'
p360
I1
sS'offer'
p361
I1
sS'forever'
p362
I1
sS'volume'
p363
I1
sS'failure'
p364
I1
sS'repeated'
p365
I2
sS'services.'
p366
I4
sS'analyst'
p367
I2
sVcount
p368
I1
sS'itil'
p369
I2
sVus
p370
I2
sS'demonstrate'
p371
I1
sS'problem'
p372
I7
sS'etc.'
p373
I1
sS'associated'
p374
I2
sVm
I1
sS'general'
p375
I2
sS'engineering'
p376
I1
sS'diverse'
p377
I1
sS'expertise'
p378
I3
sS'follow-up'
p379
I1
sS'results-driven'
p380
I1
sS'excel'
p381
I1
sS'application'
p382
I8
sS'unix/linux/windows'
p383
I1
sS'requested'
p384
I2
sS'sql'
p385
I1
sS'building'
p386
I1
sS'required'
p387
I7
sVu
I1
sS'push'
p388
I1
sS'resolution'
p389
I2
s.