(dp1
S'agency'
p2
I1
sS'inspire'
p3
I1
sS'dynamic'
p4
I1
sS'mission'
p5
I2
sS'networks.'
p6
I1
sS'employer.'
p7
I1
sS'scientist'
p8
I1
sS'innovative'
p9
I2
sS'query'
p10
I1
sS'skill'
p11
I2
sVeconomist
p12
I2
sS'r d'
p13
I1
sS'1'
I1
sS'position'
p14
I1
sS'rapidly'
p15
I1
sS'analytic'
p16
I1
sS'big data'
p17
I2
sS'counterterrorism'
p18
I1
sS'possible.'
p19
I1
sS'agile'
p20
I1
sS'disability'
p21
I1
sS'source'
p22
I1
sS'expertise.'
p23
I1
sS'homeland'
p24
I1
sS'employee'
p25
I1
sS'consideration'
p26
I1
sS'achieve'
p27
I2
sS'within'
p28
I1
sS'government'
p29
I2
sS'python'
p30
I1
sS'practices.'
p31
I1
sS'preferred'
p32
I1
sS'obtain'
p33
I1
sS'finding'
p34
I1
sS'cutting'
p35
I1
sS'every'
p36
I1
sS'using'
p37
I2
sS'difference'
p38
I1
sS'day'
p39
I1
sS'service'
p40
I1
sS'querying'
p41
I1
sS'like'
p42
I1
sVmathematician
p43
I2
sS'gender'
p44
I1
sS'c4isr'
p45
I1
sVsolution
p46
I4
sS'mid-size'
p47
I1
sS'unstructured data'
p48
I1
sS'bad'
p49
I1
sS'race'
p50
I1
sS'reasonable'
p51
I1
sS'team'
p52
I4
sS'leveraging'
p53
I1
sS'security'
p54
I4
sS'essential'
p55
I1
sS'data analytics'
p56
I2
sS'locating'
p57
I1
sS'extraction.'
p58
I1
sS'domain'
p59
I1
sS'set'
p60
I2
sS'force'
p61
I1
sS'opportunity/affirmative'
p62
I1
sS'generation'
p63
I1
sS'intelligence'
p64
I2
sS'national'
p65
I3
sS'cyber'
p66
I2
sS'sex'
p67
I1
sS'defense'
p68
I3
sS'result'
p69
I1
sS'others.'
p70
I1
sS'employment'
p71
I1
sS'hdfs'
p72
I1
sS'degree'
p73
I2
sS'federal'
p74
I1
sS'please'
p75
I1
sS'looking'
p76
I1
sS'usingstatistical'
p77
I1
sS'critical'
p78
I1
sS'safety'
p79
I1
sS'new'
p80
I1
sS'protected'
p81
I2
sS'method'
p82
I1
sS'multitude'
p83
I1
sS'refer'
p84
I1
sS'repository'
p85
I1
sS'eligibility'
p86
I1
sS'u.s.'
p87
I1
sS'data scientist'
p88
I1
sS'delivering'
p89
I1
sS'analytical'
p90
I1
sVbachelor
p91
I1
sS'focused'
p92
I2
sS'put'
p93
I1
sS'group'
p94
I2
sS'spark'
p95
I1
sS'generate'
p96
I1
sS'soteradefense.com.'
p97
I1
sS'skills.'
p98
I1
sS'would'
p99
I1
sS'language'
p100
I1
sS'tease'
p101
I1
sS'technical'
p102
I1
sS'equal'
p103
I1
sS'un-phased'
p104
I1
sS'community.'
p105
I1
sS'ensuring'
p106
I1
sS'place'
p107
I1
sS'massive'
p108
I1
sS'action'
p109
I1
sS'software'
p110
I2
sS'origin'
p111
I1
sS'relevant'
p112
I1
sS'neural networks'
p113
I1
sS'mobility'
p114
I1
sS'color'
p115
I1
sS'skilled'
p116
I2
sVrequirement
p117
I1
sS'community'
p118
I1
sS'highly'
p119
I2
sS'security clearance'
p120
I1
sS'qualified'
p121
I1
sS'preferredor'
p122
I1
sS'constructively'
p123
I1
sS'apply'
p124
I2
sS'throughout'
p125
I1
sVengineer
p126
I2
sS'social media'
p127
I1
sS'use'
p128
I1
sS'java'
p129
I1
sS'working'
p130
I1
sS'capable'
p131
I1
sS'soteras'
p132
I1
sS'deep learning'
p133
I1
sS'support'
p134
I3
sS'structured'
p135
I1
sS'recruiting'
p136
I2
sS'system'
p137
I2
sS'accommodation'
p138
I1
sS'nation.'
p139
I1
sVmaster
p140
I1
sS'way'
p141
I1
sS'newsfeed'
p142
I1
sS'anomaly'
p143
I1
sS'enforcement'
p144
I1
sVmedium
p145
I1
sS'success.'
p146
I1
sS'relationship'
p147
I1
sS'tool'
p148
I1
sS'regard'
p149
I1
sS'vaguely'
p150
I1
sS'department'
p151
I2
sS'focusing'
p152
I1
sS'delivers'
p153
I1
sVanalyst
p154
I2
sS'present'
p155
I1
sS'must'
p156
I1
sS'customer'
p157
I3
sS'novel'
p158
I1
sS'join'
p159
I1
sS'characteristic'
p160
I1
sS'challenge'
p161
I2
sS'work'
p162
I3
sS'machine learning'
p163
I2
sS'receive'
p164
I1
sS'sotera'
p165
I6
sS'minimum'
p166
I2
sS'onlineapply'
p167
I1
sS'religion'
p168
I1
sS'impala'
p169
I1
sS'hive.'
p170
I1
sS'gone'
p171
I1
sS'applicant'
p172
I2
sS'orientation'
p173
I1
sS'ingenuity'
p174
I2
sS'share'
p175
I2
sS'comfortable'
p176
I1
sS'diverse'
p177
I2
sS'experience'
p178
I2
sS'technology'
p179
I4
sS'operation'
p180
I1
sVoption
p181
I1
sS'information'
p182
I1
sS'law.'
p183
I1
sS'data.'
p184
I1
sS'sexual'
p185
I1
sS'make'
p186
I1
sS'seeking'
p187
I1
sS'able'
p188
I1
sS'hadoop'
p189
I1
sS'actor'
p190
I1
sS'contact'
p191
I1
sS'without'
p192
I1
sS'online'
p193
I1
sS'eclectic'
p194
I1
sS'3 year'
p195
I1
sS'company'
p196
I1
sS'status'
p197
I1
sS'200'
p198
I1
sS'description'
p199
I1
sS'job'
p200
I2
sS'friendrefer'
p201
I1
sS'aws'
p202
I1
sS'require'
p203
I1
sS'phd'
p204
I1
sS'helping'
p205
I1
sS'meaning'
p206
I1
sS'national security'
p207
I1
sS'undetected.'
p208
I1
sS'organization'
p209
I1
sS'changing'
p210
I1
sS'law'
p211
I1
sS'data'
p212
I3
sS'identity'
p213
I1
sS'age'
p214
I1
sS'required'
p215
I1
sS'well'
p216
I2
sS'scientists.'
p217
I2
sS'face'
p218
I1
sS'thought'
p219
I1
sS'edge'
p220
I1
sS'inc.'
p221
I1
sS'leveragingcloud'
p222
I1
sS'5 year'
p223
I1
sS'otherwise'
p224
I1
sS'requires'
p225
I1
sS'veteran'
p226
I1
sS'unconventional/unorganized'
p227
I1
sS'charged'
p228
I1
s.