(dp1
S'skills'
p2
(lp3
S'classification'
p4
aS'ip'
p5
aS'data science'
p6
aS'human resources'
p7
aS'hadoop'
p8
aS'vis'
p9
aS'engineering'
p10
aS'statistical learning'
p11
aS'go'
p12
aS'sas'
p13
aS'analysis'
p14
aS'ic'
p15
aS'education'
p16
aS'sem'
p17
aS'visualization'
p18
aS'probability'
p19
aS'big data'
p20
aS'lua'
p21
aS'ssas'
p22
aS'r programming'
p23
aS'rf'
p24
aS'research'
p25
aS'statistica'
p26
aS'ssis'
p27
aS'statistical software'
p28
aS'computer science'
p29
aS'policy'
p30
aS'mathematics'
p31
aS'unstructured data'
p32
aS'pl'
p33
aS'teradata'
p34
aS'data analysis'
p35
aS'signal processing'
p36
aS'theory'
p37
aS'python'
p38
aS'jmp'
p39
aS'processing'
p40
aS'data scientist'
p41
aS'c'
aS'hive'
p42
aS'business process'
p43
aS'oop'
p44
aS'sql'
p45
aS'modeling'
p46
aS'spark'
p47
aS'manufacturing'
p48
aS'data'
p49
aS'information technology'
p50
aS'a'
aS'search'
p51
aS'word'
p52
aS'pig'
p53
aS'cognition'
p54
aS'applied mathematics'
p55
aS'programming'
p56
aS'pattern recognition'
p57
aS'high performance computing'
p58
aS'machine learning'
p59
aS'data engineering'
p60
aS'r'
aS'science'
p61
aS'cro'
p62
aS'scripting'
p63
asS'working-year'
p64
(lp65
S'0 year'
p66
asS'major'
p67
(lp68
S'information'
p69
aS'business'
p70
aS'big data'
p71
aS'computing'
p72
aS'ee'
p73
aS'science'
p74
aS'applied mathematics'
p75
aS'statistic'
p76
aS'high performance computing'
p77
aS'machine learning'
p78
aS'engineering'
p79
aS'computer science engineering'
p80
aVphysic
p81
aS'applied math'
p82
aS'mathematics'
p83
aS'mis'
p84
aS'law'
p85
aS'data science'
p86
aS'information technology'
p87
aS'computer science'
p88
asS'education'
p89
(lp90
VBachelor
p91
aVMaster
p92
aVDoctor
p93
asS'responsibility'
p94
(lp95
S'information'
p96
aVinsight
p97
aS'predict'
p98
aS'pattern'
p99
aS'processing'
p100
aS'analysis'
p101
aS'analytic'
p102
aS'data analysis'
p103
aS'analytical method'
p104
aS'modeling'
p105
aS'model'
p106
aS'extract'
p107
as.