(dp1
S'sector'
p2
I2
sS'share.url'
p3
I1
sS'mclean'
p4
I2
sS'help'
p5
I2
sS'mission'
p6
I2
sS'//www.jobs.net/jobs/booz-allen-hamilton/en-us/job/united-states/data-scientist/j3l6yg68p31q7gllp1n/'
p7
I1
sS'scientist'
p8
I8
sS'including'
p9
I1
sS'statistical'
p10
I1
sS'participate'
p11
I1
sS'find'
p12
I1
sS'missions.'
p13
I1
sS'oriented'
p14
I1
sS'based'
p15
I1
sS'implementation'
p16
I1
sS'graph'
p17
I1
sS'explain'
p18
I1
sS'canonical'
p19
I1
sS'rel'
p20
I1
sS'0'
I1
sS'expertise.'
p21
I2
sS'.attr'
p22
I3
sS'location'
p23
I2
sS'usage'
p24
I1
sS'posted'
p25
I1
sS'presentation'
p26
I1
sS'achieve'
p27
I1
sS'data-driven'
p28
I1
sS'template'
p29
I2
sS'combination'
p30
I2
sS'government'
p31
I2
sS'python'
p32
I1
sS'auto'
p33
I2
sS'chantilly'
p34
I3
sS'virginia'
p35
I2
sS'preferred'
p36
I1
sS'hamilton'
p37
I4
sS'algorithm design'
p38
I1
sS'mppc'
p39
I1
sS'using'
p40
I1
sS'required.'
p41
I1
sS'fortune'
p42
I2
sS'like'
p43
I2
sS'visible'
p44
I1
sS'100 year'
p45
I1
sS'button'
p46
I2
sS'classified'
p47
I1
sS'solution'
p48
I1
sS'c++'
p49
I1
sS'public'
p50
I3
sS'large'
p51
I1
sS'clickback'
p52
I1
sS'management technology'
p53
I1
sS'security'
p54
I1
sS'toughest'
p55
I1
sS'side'
p56
I1
sS'data analytics'
p57
I2
sS'config.ui'
p58
I1
sS'requirement'
p59
I2
sS'set'
p60
I1
sS'ga'
p61
I1
sS'cybersecurity'
p62
I2
sS"'href'"
p63
I1
sS'eg'
p64
I1
sS'committed'
p65
I1
sS'zoom'
p66
I1
sS'analytics'
p67
I1
sS'computer'
p68
I1
sS'result'
p69
I1
sS'proper'
p70
I1
sS'operation'
p71
I2
sS'machine learning'
p72
I2
sS'sectors.'
p73
I1
sS'capability'
p74
I1
sS'scale'
p75
I1
sS'degree'
p76
I2
sS"'"
I1
sS'selected'
p77
I1
sS'/'
I6
sS'access'
p78
I1
sS'track'
p79
I1
sS'investigation'
p80
I1
sS'4/10/2017'
p81
I1
sS'allocate'
p82
I1
sS'provides'
p83
I2
sS'innovation'
p84
I2
sS'new'
p85
I1
sS'main.color-bg-sidebar'
p86
I4
sS'content'
p87
I1
sS'100 years'
p88
I1
sS'across'
p89
I4
sS'full'
p90
I1
sS'ba'
p91
I1
sS'business'
p92
I1
sS'opening'
p93
I1
sS'eligibility'
p94
I1
sS'data scientist'
p95
I1
sS'delivering'
p96
I1
sS'market'
p97
I1
sS'key'
p98
I1
sS'address'
p99
I1
sS'interface'
p100
I1
sS'span'
p101
I1
sS'table'
p102
I1
sS'45px'
p103
I1
sS'50px'
p104
I1
sS'definition'
p105
I1
sS'c'
I1
sS'language'
p106
I2
sS'career'
p107
I2
sS'industry'
p108
I2
sS'programming'
p109
I1
sS'job'
p110
I10
sS'experience'
p111
I3
sS'display'
p112
I1
sS'range'
p113
I1
sS'important'
p114
I2
sS'ensure'
p115
I1
sS'massive'
p116
I1
sVqualification
p117
I2
sS'jobtitle'
p118
I1
sS'years.'
p119
I1
sS'consulting'
p120
I5
sS'iframe'
p121
I1
sS'en-us'
p122
I1
sS'number'
p123
I1
sS'private'
p124
I3
sS'one'
p125
I1
sS'email'
p126
I2
sS'm/f/disability/vet.'
p127
I1
sS'margin-right'
p128
I1
sS'apply'
p129
I2
sS'forefront'
p130
I2
sS'technologist'
p131
I2
sVu
I1
sS'cloud'
p132
I1
sS'data mining'
p133
I3
sS'management'
p134
I1
sS'java'
p135
I1
sS'additional'
p136
I1
sS'service'
p137
I2
sS'main.color-bg-white'
p138
I4
sS'leading'
p139
I3
sS'system'
p140
I3
sS'min-width'
p141
I1
sS'strategy'
p142
I2
sS'endure.'
p143
I1
sS'width'
p144
I2
sS'hamilton.'
p145
I1
sS'basic'
p146
I1
sS'var'
p147
I4
sS'analyze'
p148
I1
sS'type'
p149
I2
sS'twitter'
p150
I1
sS'today'
p151
I2
sS'firm'
p152
I3
sS'globe.'
p153
I2
sS'advanced analytics'
p154
I2
sS'company'
p155
I1
sS'dig100'
p156
I1
sS'serve'
p157
I1
sS'full-time'
p158
I1
sS'delivery'
p159
I2
sS'employee'
p160
I1
sS'overflow'
p161
I1
sS'machine learning data mining'
p162
I1
sS'true'
p163
I1
sS'algorithms.'
p164
I1
sVb
I1
sS'01220423'
p165
I1
sS'not-for-profit'
p166
I2
sS'integrating'
p167
I1
sS'science'
p168
I1
sS'challenge'
p169
I3
sS'work'
p170
I2
sS'//schema.org/blog'
p171
I1
sS'solutions.'
p172
I1
sS'500'
p173
I2
sS"'link"
p174
I1
sS'meet'
p175
I1
sS'problem'
p176
I1
sS'property'
p177
I1
sS'similar'
p178
I1
sS'html'
p179
I2
sS'va'
p180
I2
sS'gathering'
p181
I1
sS'proud'
p182
I1
sS'challenging'
p183
I1
sS'process'
p184
I1
sS'specified'
p185
I1
sS'share'
p186
I2
sS'line-height'
p187
I1
sS'ready'
p188
I1
sS'engineering'
p189
I4
sS'problems.'
p190
I1
sS'expertise'
p191
I2
sS'.addthis'
p192
I2
sS'itemscope'
p193
I1
sS'partner'
p194
I3
sS'need'
p195
I1
sS'allen'
p196
I9
sS'1'
I1
sS'technology'
p197
I5
sS'check'
p198
I1
sS'facebook'
p199
I2
sS'information'
p200
I1
sS'booz'
p201
I9
sS'develop'
p202
I1
sS'perform'
p203
I1
sS'corporation'
p204
I2
sS'snapshot'
p205
I1
sS'business problem'
p206
I1
sS'cloud computing'
p207
I1
sS'complex'
p208
I1
sS'role'
p209
I1
sS'ua-20753164-1'
p210
I1
sS'sig2017'
p211
I1
sS'subject'
p212
I1
sS'config'
p213
I3
sS'difficult'
p214
I2
sS'development'
p215
I1
sS'product'
p216
I1
sS'http'
p217
I2
sS'description'
p218
I1
sS'may'
p219
I1
sS'object'
p220
I1
sS'diverseenvironment'
p221
I1
sS'addthis'
p222
I8
sS'driven'
p223
I1
sS'products.'
p224
I1
sS'designed'
p225
I1
sS'data analysis'
p226
I2
sS'date'
p227
I1
sS'data'
p228
I3
sS'itemtype'
p229
I1
sS'lang'
p230
I2
sS'clearance'
p231
I3
sS'algorithm'
p232
I1
sS'url'
p233
I1
sS'clear'
p234
I1
sVapplicant
p235
I1
sVm
I1
sS'analysis'
p236
I3
sS'shrarejob'
p237
I1
sS'provide'
p238
I1
sS'client'
p239
I6
sS'solve'
p240
I4
sS'eoe'
p241
I1
sS'ts/sci'
p242
I2
sS'opportunity'
p243
I1
sS'va.'
p244
I1
s.