(dp1
S'skills'
p2
(lp3
S'ip'
p4
aS'data science'
p5
aS'communication'
p6
aS'sales'
p7
aS'ant'
p8
aS'vis'
p9
aS'business intelligence'
p10
aS'go'
p11
aS'ic'
p12
aS'strategy'
p13
aS'visualization'
p14
aS'statistics'
p15
aS'excel'
p16
aS'research'
p17
aS'cell'
p18
aS'rf'
p19
aS'r'
aS'customer service'
p20
aS'intelligence'
p21
aS'mathematics'
p22
aS'pl'
p23
aS'data analysis'
p24
aS'finance'
p25
aS'marketing'
p26
aS'processing'
p27
aS'c'
aS'oop'
p28
aS'data processing'
p29
aS'sql'
p30
aS'data'
p31
aS'a'
aS'search'
p32
aS'data collection'
p33
aS'data visualization'
p34
aS'science'
p35
aS'economics'
p36
aS'analysis'
p37
aS'materials'
p38
aS'organization'
p39
asS'working-year'
p40
(lp41
S'5 - 8 year'
p42
aS'8 year'
p43
asS'major'
p44
(lp45
S'ece'
p46
aS'economics statistics'
p47
aS'finance'
p48
aS'business'
p49
aS'ee'
p50
aS'marketing'
p51
aS'data science'
p52
aS'economics'
p53
aS'communication'
p54
aS'statistics'
p55
aS'design'
p56
aS'finance economics'
p57
aS'statistic'
p58
aS'mathematics'
p59
aVphysic
p60
aS'science'
p61
asS'education'
p62
(lp63
VBachelor
p64
aVMaster
p65
asS'responsibility'
p66
(lp67
S'product'
p68
aVinsight
p69
aS'processing'
p70
aS'analysis'
p71
aS'data collection'
p72
aS'design'
p73
aS'data analysis'
p74
aS'report'
p75
as.