(dp1
S'skills'
p2
(lp3
S'consulting'
p4
aS'r d'
p5
aS'german'
p6
aS'intelligence'
p7
aS'data science'
p8
aS'testing'
p9
aS'soc'
p10
aS'ant'
p11
aS'analytics'
p12
aS'business intelligence'
p13
aS'problem solving'
p14
aS'ic'
p15
aS'content management'
p16
aS'visualization'
p17
aS'git'
p18
aS'ehr'
p19
aS'big data'
p20
aS'strategy'
p21
aS'access'
p22
aS'lua'
p23
aS'rf'
p24
aS'computer science'
p25
aS'advanced analytics'
p26
aS'unstructured data'
p27
aS'pl'
p28
aS'a'
aS'ios'
p29
aS'collaboration'
p30
aS'data scientist'
p31
aS'mpi'
p32
aS'management'
p33
aS'manufacturing'
p34
aS'data'
p35
aS'software development'
p36
aS'c'
aS'erp'
p37
aS'data visualization'
p38
aS'vis'
p39
aS'science'
p40
aS'engineering'
p41
aS'analysis'
p42
aS'machine learning'
p43
aS'r'
aS'dashboard'
p44
aS'validation'
p45
aS'data analytics'
p46
asS'working-year'
p47
(lp48
S'15 year'
p49
asS'major'
p50
(lp51
S'ece'
p52
aS'management'
p53
aS'business'
p54
aS'big data'
p55
aS'ee'
p56
aS'science'
p57
aS'data science'
p58
aVapplied statistic
p59
aS'computer science engineering'
p60
aS'machine learning'
p61
aS'analytics'
p62
aS'engineering'
p63
aS'design'
p64
aS'computer science'
p65
aS'statistic'
p66
aS'advanced analytics'
p67
aS'management technology'
p68
aS'phd'
p69
aS'data analytics'
p70
asS'education'
p71
(lp72
VBachelor
p73
aVMaster
p74
aVDoctor
p75
asS'responsibility'
p76
(lp77
S'development'
p78
aS'model'
p79
aVinsight
p80
aS'communicate'
p81
aS'analysis'
p82
aS'analytic'
p83
aS'problem statement'
p84
aS'design'
p85
aS'understand'
p86
aS'implement'
p87
aS'prototype'
p88
aS'transformation'
p89
as.