(dp1
S'existing'
p2
I1
sS'integrity'
p3
I2
sS'technique'
p4
I3
sS'environment'
p5
I1
sS'position.'
p6
I2
sS'woman'
p7
I1
sS'provider'
p8
I1
sS'difference'
p9
I1
sS'level'
p10
I2
sS'fast-paced'
p11
I1
sS'problems.'
p12
I2
sS'solution'
p13
I4
sS'roadblock'
p14
I1
sS'team'
p15
I3
sS'quick'
p16
I1
sS'prediction'
p17
I1
sS'design'
p18
I1
sS'click'
p19
I1
sS'section'
p20
I1
sS'new'
p21
I1
sS'degree'
p22
I3
sS'eligibility'
p23
I1
sS'empower'
p24
I1
sVcomponent
p25
I1
sS'understanding'
p26
I1
sS'desired'
p27
I2
sS'making'
p28
I1
sS'consideration'
p29
I1
sS'discipline.'
p30
I1
sS'data gathering'
p31
I1
sS'skills.'
p32
I1
sS'receive'
p33
I1
sS'inspired'
p34
I1
sS'economics'
p35
I1
sS'experience'
p36
I1
sS'credit'
p37
I1
sS'healthier'
p38
I1
sS'social'
p39
I1
sS'action'
p40
I2
sS'via'
p41
I1
sS'regardless'
p42
I1
sS'secure'
p43
I1
sS'partnering'
p44
I1
sS'requiring'
p45
I1
sS'qualified'
p46
I1
sS'select'
p47
I1
sS'use'
p48
I2
sS'would'
p49
I1
sS'live'
p50
I1
sS'recommend'
p51
I1
sS'organization.'
p52
I2
sS'globe.'
p53
I1
sS'company'
p54
I1
sS'customer'
p55
I1
sS'join'
p56
I1
sS'work'
p57
I2
sS'machine learning'
p58
I2
sS'meet'
p59
I1
sS'claim'
p60
I1
sS'challenging'
p61
I1
sS'programming'
p62
I1
sS'validates'
p63
I1
sS'pig.'
p64
I1
sS'effectively'
p65
I1
sS'heard.'
p66
I1
sS'communities.'
p67
I1
sS'information'
p68
I6
sS'conducted'
p69
I1
sS'unstructured data'
p70
I1
sS'product'
p71
I2
sS'explores'
p72
I2
sS'may'
p73
I1
sS'derived'
p74
I1
sS'data'
p75
I10
sVphysic
p76
I1
sS'applicant'
p77
I1
sS'deposit'
p78
I1
sS'fundamental'
p79
I1
sS'healthcare'
p80
I1
sVsa
p81
I1
sS'help'
p82
I1
sS'insight'
p83
I2
sS'vary'
p84
I1
sS'tableau'
p85
I1
sS'disabilities.'
p86
I1
sS'organize'
p87
I1
sS'executes'
p88
I1
sS'statistical'
p89
I2
sS'committed'
p90
I1
sS'converting'
p91
I1
sS'personal'
p92
I2
sS'better'
p93
I1
sS'platform'
p94
I1
sS'audiences.'
p95
I1
sS'identify trend'
p96
I1
sS'good'
p97
I1
sS'python'
p98
I1
sS'cutting'
p99
I1
sS'several'
p100
I1
sS'communication skills'
p101
I1
sS'end-to-end'
p102
I1
sS'financial'
p103
I1
sS'generation'
p104
I1
sS'related'
p105
I1
sS'operation'
p106
I1
sS'extract'
p107
I1
sS'large'
p108
I2
sS'req'
p109
I1
sS'looking'
p110
I1
sS'health'
p111
I4
sS'performs'
p112
I1
sS'data scientist'
p113
I1
sS'business analytics'
p114
I2
sS'assures'
p115
I1
sS'generate'
p116
I1
sS'card'
p117
I1
sS'care'
p118
I4
sS'occur.'
p119
I1
sS'iterative'
p120
I1
sS'creates'
p121
I2
sS'outcomes.'
p122
I1
sS'place'
p123
I1
sS'support'
p124
I1
sS'engagement'
p125
I1
sS'number'
p126
I1
sS'notify'
p127
I1
sS'quality'
p128
I1
sS'health services'
p129
I1
sVservice
p130
I2
sS'privacy'
p131
I1
sS'leading'
p132
I1
sS'interact'
p133
I1
sS'structured'
p134
I1
sS'moderately'
p135
I1
sS'system'
p136
I1
sVmaster
p137
I1
sS'agility'
p138
I1
sS'business problem'
p139
I1
sS'costs.'
p140
I1
sS'direct'
p141
I1
sS'part'
p142
I1
sS'immediately.'
p143
I1
sS'expanding'
p144
I1
sS'culture'
p145
I1
sS'recruit'
p146
I1
sS'project'
p147
I3
sS'data engineering'
p148
I1
sS'future'
p149
I1
sS'outcome'
p150
I2
sS'experience.'
p151
I2
sS'affirmative'
p152
I2
sS'solve problem'
p153
I1
sS'need'
p154
I2
sS'data.'
p155
I1
sS'built'
p156
I1
sS'flexibility.'
p157
I1
sS'veteran'
p158
I1
sS'responsible'
p159
I1
sS'able'
p160
I1
sS'take'
p161
I2
sS'objective'
p162
I1
sS'effectiveness'
p163
I1
sS'tool'
p164
I2
sS"bachelor's"
p165
I2
sS'multiple'
p166
I2
sS"candidate's"
p167
I1
sS'affordability'
p168
I1
sS'detect'
p169
I1
sS'plenty'
p170
I1
sS'america'
p171
I1
sS'achievement'
p172
I1
sS'sources.'
p173
I1
sS'request'
p174
I2
sS'drive'
p175
I1
sS'consumer'
p176
I2
sS'recruiter.'
p177
I1
sS'employer.'
p178
I1
sS'r d'
p179
I1
sS'big data'
p180
I2
sS'analytic'
p181
I2
sS'employee'
p182
I1
sS'data modeling'
p183
I1
sS'exceptional'
p184
I1
sS'scalable'
p185
I1
sS'mathematics statistics'
p186
I1
sS'drivers.'
p187
I1
sS'resolve'
p188
I1
sS'summary'
p189
I1
sS'investigate'
p190
I1
sS'analytical'
p191
I2
sS'including'
p192
I3
sS'view'
p193
I1
sS'predictive'
p194
I2
sS'requirement'
p195
I1
sS'set'
p196
I1
sS'analytics'
p197
I2
sS'result'
p198
I1
sS'job.'
p199
I1
sS'needs.'
p200
I1
sS'creating'
p201
I2
sS'solutions.'
p202
I1
sS'come.'
p203
I1
sS'pattern'
p204
I1
sS'review'
p205
I1
sS'currently'
p206
I1
sS'please'
p207
I1
sS'preferred.'
p208
I2
sS'written'
p209
I1
sS'various'
p210
I2
sS'across'
p211
I1
sS'ability'
p212
I1
sS'stakeholder'
p213
I1
sS'analyses.'
p214
I1
sS'job'
p215
I2
sS'seriously.'
p216
I1
sS'improve'
p217
I4
sS'prescription'
p218
I1
sS'data visualization'
p219
I1
sS'equal'
p220
I1
sS'workplace'
p221
I1
sS'asked'
p222
I1
sS'relevant'
p223
I1
sS'color'
p224
I1
sS'data science'
p225
I2
sS'address'
p226
I1
sS'learning'
p227
I1
sS'utilizing'
p228
I1
sS'excellence.'
p229
I2
sS'website'
p230
I1
sS'diversity'
p231
I1
sS'understand'
p232
I1
sS'present'
p233
I1
sS'developing'
p234
I3
sS'value'
p235
I2
sS'dashboard'
p236
I2
sS'evaluates'
p237
I1
sS'voice'
p238
I1
sS'examines'
p239
I1
sS'someone'
p240
I1
sS'statistical analysis'
p241
I1
sS'partner'
p242
I1
sS'technology'
p243
I1
sS'id'
p244
I1
sS're-shape'
p245
I1
sS'develop'
p246
I3
sS'prior'
p247
I1
sS'make'
p248
I2
sS'hadoop'
p249
I1
sS'complex'
p250
I1
sS'evaluate'
p251
I1
sVdocument
p252
I1
sS'reporting'
p253
I1
sS'mathematical analysis'
p254
I1
sS'proficiency'
p255
I1
sS'opportunity'
p256
I4
sS'lower'
p257
I1
sS'scenario'
p258
I1
sS'analysis'
p259
I1
sS'edge'
p260
I1
sS'forms.'
p261
I1
sS'position'
p262
I4
sS'model'
p263
I1
sS'background/experience'
p264
I1
sS'assigned'
p265
I1
sS'lives.'
p266
I1
sS'visualization'
p267
I1
sS'candidate'
p268
I1
sS'making.'
p269
I1
sS'pharmacy'
p270
I3
sS'source'
p271
I2
sS'interprets'
p272
I1
sS'remaining'
p273
I1
sS'background'
p274
I1
sS'unique'
p275
I1
sS'advanced'
p276
I2
sS'collect'
p277
I1
sS'benefit'
p278
I3
sS'security'
p279
I1
sS'passionate'
p280
I1
sS'mathematical'
p281
I1
sS'verbal'
p282
I1
sS'people'
p283
I2
sS'growth'
p284
I1
sVstatistic
p285
I1
sS'employment'
p286
I1
sS'provided'
p287
I1
sS'and/or'
p288
I1
sS'demonstrates'
p289
I2
sS'decision'
p290
I2
sS'manipulate'
p291
I1
sS'innovation'
p292
I1
sS'leader'
p293
I1
sS'business'
p294
I5
sS'equivalent'
p295
I2
sS'processing'
p296
I1
sS'business.'
p297
I1
sS'40977br'
p298
I1
sS'pipeline'
p299
I1
sS'industry'
p300
I2
sS'discussed'
p301
I1
sS'status.'
p302
I1
sS'within'
p303
I1
sS'healthcare.'
p304
I1
sS'analytically'
p305
I1
sS'additional'
p306
I2
sS'area'
p307
I1
sS'recruiter'
p308
I1
sS'clinical'
p309
I1
sS'improvements.'
p310
I1
sS'function'
p311
I1
sS'recommends'
p312
I1
sS'volume'
p313
I1
sS'highest'
p314
I1
sS'metrics.'
p315
I1
sS'applying'
p316
I1
sS'algorithm'
p317
I2
sS'characteristic'
p318
I1
sS'aetnas'
p319
I1
sS'statistics computer science'
p320
I1
sS'etc.'
p321
I1
sS'detailed'
p322
I1
sS'associated'
p323
I1
sS'engineering'
p324
I1
sS'expertise'
p325
I1
sS'education'
p326
I2
sS'large data set'
p327
I1
sS'application'
p328
I1
sS'computer science'
p329
I2
sS'test'
p330
I1
sS'3 year'
p331
I1
sS'standardize'
p332
I1
sS'collaborative'
p333
I1
sS'behavioral'
p334
I1
sS'e-mail.'
p335
I1
sS'develops'
p336
I2
sS'sql'
p337
I1
sS'structure'
p338
I1
sS'individual'
p339
I1
sS'faster'
p340
I1
sVbullet
p341
I1
sS'together'
p342
I1
sS'aetna'
p343
I5
sS'u'
I3
sS'time'
p344
I1
s.