(dp1
S'skills'
p2
(lp3
S'soc'
p4
aS'nosql'
p5
aS'ip'
p6
aS'data science'
p7
aS'rest'
p8
aS'ant'
p9
aS'vis'
p10
aS'engineering'
p11
aS'linux'
p12
aS'batch processing'
p13
aS'ic'
p14
aS'education'
p15
aS'management'
p16
aS'java'
p17
aS'json'
p18
aS'big data'
p19
aS'scala'
p20
aS'storage'
p21
aS'hadoop'
p22
aS'research'
p23
aS'cell'
p24
aS'envi'
p25
aS'computer science'
p26
aS'communication'
p27
aS'pl'
p28
aS'a'
aS'python'
p29
aS'processing'
p30
aS'data scientist'
p31
aS'c'
aS'oop'
p32
aS'sql'
p33
aS'data'
p34
aS'information technology'
p35
aS'software development'
p36
aS'search'
p37
aS'erp'
p38
aS'science'
p39
aS'excel'
p40
aS'hive'
p41
aS'engineering management'
p42
aS'credit'
p43
aS'r'
aS'healthcare'
p44
aS'security'
p45
aS'cro'
p46
asS'working-year'
p47
(lp48
S'2 + year'
p49
aS'2 year'
p50
asS'major'
p51
(lp52
S'information'
p53
aS'ece'
p54
aS'management'
p55
aS'business'
p56
aS'big data'
p57
aS'ee'
p58
aS'science'
p59
aS'data science'
p60
aS'engineering management'
p61
aS'communications'
p62
aS'engineering'
p63
aS'computer science'
p64
aS'communication'
p65
aS'mis'
p66
aS'ee computer science'
p67
aS'information technology'
p68
asS'education'
p69
(lp70
VBachelor
p71
aVMaster
p72
asS'responsibility'
p73
(lp74
S'development'
p75
aS'information'
p76
aS'product'
p77
aS'support platform'
p78
aS'data infrastructure'
p79
aS'processing'
p80
aS'understand'
p81
aS'presentation'
p82
as.