(dp1
S'emerging'
p2
I1
sS'development.'
p3
I1
sS'data scientist'
p4
I1
sS'help'
p5
I5
sS'manager'
p6
I1
sS'chartered'
p7
I1
sS'innovative'
p8
I1
sS'web'
p9
I2
sS'console'
p10
I1
sS'securing'
p11
I1
sS'alternate'
p12
I1
sS'disability'
p13
I2
sS'complex'
p14
I1
sS'employer'
p15
I1
sS'user interface'
p16
I1
sS'html'
p17
I1
sS'es6.'
p18
I1
sS'friendly'
p19
I1
sS'build'
p20
I1
sS'parcel'
p21
I1
sS'big'
p22
I1
sS'practice'
p23
I1
sS'framework'
p24
I1
sS'cannot'
p25
I2
sS'report'
p26
I1
sS'world'
p27
I1
sS'always'
p28
I1
sS'gui'
p29
I1
sS'solution'
p30
I2
sS'capability'
p31
I1
sS'scientist'
p32
I1
sS'team'
p33
I5
sS'quick'
p34
I1
sS'passionate'
p35
I1
sS'bridge.'
p36
I1
sS'/work'
p37
I1
sS'information architecture'
p38
I1
sS'front-end'
p39
I3
sS'opportunity/affirmative'
p40
I1
sS'human-computer'
p41
I1
sS'pitney'
p42
I4
sS'understanding'
p43
I1
sS'ct'
p44
I1
sS'analytics'
p45
I1
sS'intern'
p46
I1
sS'design'
p47
I6
sS'interface.'
p48
I1
sS'employment'
p49
I1
sS'back-end'
p50
I1
sS'best'
p51
I1
sS'encouraged'
p52
I1
sS'material'
p53
I1
sS'visualize'
p54
I1
sS"pb's"
p55
I1
sS'degree'
p56
I1
sS'invoices.'
p57
I1
sS'proficient'
p58
I1
sS'research'
p59
I2
sS'looking'
p60
I1
sS'everything'
p61
I1
sS'w/m/veterans/individuals'
p62
I1
sS'innovation'
p63
I2
sS'backend'
p64
I1
sS'refer'
p65
I1
sS'core'
p66
I1
sS'evolving'
p67
I1
sS'power'
p68
I1
sS'deliver'
p69
I1
sS'equivalent'
p70
I1
sS'javascript'
p71
I3
sS'platform.'
p72
I1
sS'interested'
p73
I1
sS'standard'
p74
I1
sS'explore'
p75
I1
sS'leadership'
p76
I1
sS'based'
p77
I1
sS'data/user'
p78
I1
sS'meaningful'
p79
I1
sS'online.'
p80
I1
sS'react'
p81
I1
sS'enables'
p82
I1
sS'big data'
p83
I2
sS'language'
p84
I1
sS'package'
p85
I1
sS'via'
p86
I2
sS'apply.'
p87
I1
sS'programming'
p88
I1
sS'equal'
p89
I1
sS'experience'
p90
I3
sS'practical'
p91
I1
sVqualification
p92
I1
sS'action'
p93
I1
sS'implement'
p94
I1
sS'organize'
p95
I1
sS'helping'
p96
I1
sS'payment'
p97
I1
sS'within'
p98
I1
sS'powerful'
p99
I1
sS'strategic'
p100
I1
sVcs
p101
I1
sS'apply'
p102
I2
sS'guideline'
p103
I1
sS'market'
p104
I1
sS'engineer'
p105
I3
sS'use'
p106
I1
sS'management'
p107
I2
sS'leverage'
p108
I1
sS'service'
p109
I1
sS'area'
p110
I1
sS'data'
p111
I1
sS'top'
p112
I1
sS'.'
I4
sS'navigate'
p113
I1
sS'draft'
p114
I1
sS'statement'
p115
I1
sS'experience.'
p116
I1
sS'build.'
p117
I1
sS'data management'
p118
I1
sS'define'
p119
I1
sS'feedback.'
p120
I1
sS'grow.'
p121
I1
sS'modern'
p122
I1
sS'diversity'
p123
I1
sS'disabilities/lgbt'
p124
I1
sS'sending'
p125
I1
sS'relevant'
p126
I1
sS'precision'
p127
I1
sS'delivery'
p128
I1
sS'taken'
p129
I1
sS'part'
p130
I2
sS'workplace.'
p131
I1
sS'bowes'
p132
I4
sS'delivers'
p133
I1
sS'data/task'
p134
I1
sS'must'
p135
I1
sS'customer'
p136
I1
sS'commerce'
p137
I1
sS'join'
p138
I2
sS'ux'
p139
I5
sS'intuitive'
p140
I2
sS'work'
p141
I2
sS'iteration'
p142
I1
sS'maximum'
p143
I1
sS'value'
p144
I1
sS'project'
p145
I1
sS'product design'
p146
I1
sS'future'
p147
I1
sS'shelton'
p148
I1
sS'interaction'
p149
I1
sS'next-generation'
p150
I1
sS'seamlessly'
p151
I1
sS'providing'
p152
I1
sS'link.'
p153
I1
sS'e.g.'
p154
I2
sS'exert'
p155
I1
sS'process'
p156
I1
sS'flow'
p157
I1
sS'enablement'
p158
I1
sS'application.'
p159
I2
sS'enabling'
p160
I1
sS'high'
p161
I1
sS'embrace'
p162
I1
sS'ic'
p163
I1
sS'technology'
p164
I3
sS'option'
p165
I1
sS'data.'
p166
I1
sS'computer science'
p167
I2
sS'inclusiveness'
p168
I1
sS'deploy.'
p169
I1
sS'responsible'
p170
I1
sS'0 year'
p171
I2
sS'application'
p172
I5
sS'client'
p173
I3
sS'role'
p174
I1
sS'take'
p175
I1
sS'ambitious'
p176
I1
sS'online'
p177
I1
sS'performance'
p178
I1
sS'accuracy'
p179
I1
sS'product'
p180
I1
sS'designer'
p181
I1
sS'bonus'
p182
I1
sS'class'
p183
I2
sS'director'
p184
I1
sS'user'
p185
I1
sS'impact.'
p186
I1
sS'opportunity'
p187
I1
sS'grow'
p188
I1
sS'efficiently'
p189
I1
sS'building'
p190
I1
sS'individual'
p191
I3
sS'center'
p192
I1
sS'mobile'
p193
I1
sS'science.'
p194
I1
sS'drive'
p195
I1
sS'st'
p196
I1
sS'object-oriented'
p197
I1
sS"you'll"
p198
I1
sS'without'
p199
I1
sS'clean'
p200
I1
sS'enterprise'
p201
I2
sS'organization'
p202
I1
sS'redux'
p203
I1
sS'corporate'
p204
I1
sS'discussion'
p205
I1
sS'businesses.'
p206
I1
s.