(dp1
S'skills'
p2
(lp3
S'owl'
p4
aS'r d'
p5
aS'classification'
p6
aS'ip'
p7
aS'testing'
p8
aS'causal inference'
p9
aS'ant'
p10
aS'analytics'
p11
aS'thought leadership'
p12
aS'data analysis'
p13
aS'hive'
p14
aS'go'
p15
aS'linux'
p16
aS'sas'
p17
aS'ic'
p18
aS'sas programming'
p19
aS'regression'
p20
aS'teradata sql'
p21
aS'management'
p22
aS'asic'
p23
aS'hadoop'
p24
aS'research'
p25
aS'statistica'
p26
aS'rf'
p27
aS'computer science'
p28
aS'communication'
p29
aS'intelligence'
p30
aS'mathematics'
p31
aS'hypothesis testing'
p32
aS'data management'
p33
aS'text mining'
p34
aS'teradata'
p35
aS'envi'
p36
aS'business analysis'
p37
aS'education'
p38
aS'python'
p39
aS'alteryx'
p40
aS'processing'
p41
aS'data scientist'
p42
aS'c'
aS'cro'
p43
aS'business process'
p44
aS'leadership'
p45
aS'database design'
p46
aS'oop'
p47
aS'sql'
p48
aS'modeling'
p49
aS'spark'
p50
aS'data'
p51
aS'a'
aS'search'
p52
aS'erp'
p53
aS'glm'
p54
aS'science'
p55
aS'aws'
p56
aS'programming'
p57
aS'analysis'
p58
aS'spss'
p59
aS'data architecture'
p60
aS'exploratory data analysis'
p61
aS'r'
aS'command'
p62
aS'architecture'
p63
aS'lte'
p64
aS'english'
p65
aS'advanced analytics'
p66
aS'validation'
p67
aS'pl'
p68
aS'data analytics'
p69
aS'statistical analysis'
p70
asS'working-year'
p71
(lp72
S'0 year'
p73
asS'major'
p74
(lp75
S'management'
p76
aS'business analysis'
p77
aS'business'
p78
aS'analytics'
p79
aS'ee'
p80
aS'science'
p81
aS'statistic'
p82
aS'communication'
p83
aS'communications'
p84
aS'design'
p85
aS'computer science'
p86
aS'computer science mathematics'
p87
aS'english'
p88
aS'advanced analytics'
p89
aS'mathematics'
p90
aS'law'
p91
aS'ee computer science'
p92
aS'data analytics'
p93
aS'telecommunication'
p94
asS'education'
p95
(lp96
VBachelor
p97
aVMaster
p98
asS'responsibility'
p99
(lp100
S'data analysis'
p101
aS'predict'
p102
aS'processing'
p103
aS'communicate'
p104
aS'analysis'
p105
aS'improvement'
p106
aS'analytic'
p107
aS'design'
p108
aS'recommendation'
p109
aS'understand'
p110
aS'modeling'
p111
aS'presentation'
p112
aS'model'
p113
as.