(dp1
S'0 year'
p2
I2
sS'foundation'
p3
I1
sS'ca'
p4
I1
sS'powerful'
p5
I1
sS'talent.'
p6
I1
sS'together'
p7
I1
sS'innovative'
p8
I1
sS'communities.'
p9
I1
sS'greater'
p10
I3
sS'member'
p11
I1
sS'rancho'
p12
I1
sS'inc'
p13
I1
sS'anthem'
p14
I2
sS'r d'
p15
I1
sS'/'
I2
sS'.'
I1
sS'access'
p16
I1
sS'health'
p17
I2
sS'cordova'
p18
I1
sS'vision.'
p19
I1
sS'creating'
p20
I1
sS'combination'
p21
I1
sS'exceptional'
p22
I1
sS'read'
p23
I1
sS'upon'
p24
I1
sS'job'
p25
I1
sS'report'
p26
I1
sS'opportunity'
p27
I1
sS'care'
p28
I2
sS'customer'
p29
I1
sS'join'
p30
I1
sS'drive'
p31
I1
sS'value'
p32
I1
sS'future'
p33
I1
sS'u'
I1
sS'work...'
p34
I1
sS'inc.'
p35
I1
s.