(dp1
S'limited'
p2
I1
sS'code'
p3
I1
sS'global'
p4
I1
sS'activated'
p5
I1
sS'focus'
p6
I1
sS'managers.'
p7
I1
sS'query'
p8
I1
sS'technique'
p9
I2
sS'disability'
p10
I1
sS'environment'
p11
I1
sS'program'
p12
I2
sS'unstructured'
p13
I1
sS'solveproblems'
p14
I1
sS'adaptive'
p15
I4
sS'level'
p16
I1
sS'gender'
p17
I1
sS'solution'
p18
I1
sS'large'
p19
I2
sS'race'
p20
I1
sS'team'
p21
I4
sS'prediction'
p22
I1
sVdesign
p23
I1
sS'others.'
p24
I1
sS'data-drivenapplications.'
p25
I1
sVapplied statistic
p26
I1
sS'experiment'
p27
I1
sS'venture.'
p28
I1
sS'new'
p29
I4
sS'method'
p30
I1
sS'metadata'
p31
I1
sS'yearsin'
p32
I1
sS'leveraging'
p33
I2
sS'proficiencyin'
p34
I1
sS'desired'
p35
I1
sS'consideration'
p36
I1
sS'great'
p37
I1
sS'us/adaptive-intelligent-apps'
p38
I1
sS'brilliant'
p39
I1
sS'experience'
p40
I3
sS'action'
p41
I1
sS'//cloud.oracle.com/en'
p42
I1
sS'applicationspaces'
p43
I1
sS'apply'
p44
I1
sS'cloud'
p45
I6
sS'use'
p46
I3
sS'would'
p47
I1
sS'visit'
p48
I1
sS'next'
p49
I1
sS'technical/business'
p50
I1
sS'type'
p51
I1
sS'successful'
p52
I1
sS'naive'
p53
I1
sS'employees.'
p54
I1
sS'employee'
p55
I1
sS'tocustomers'
p56
I1
sS'science'
p57
I1
sS'work'
p58
I5
sS'machine learning'
p59
I2
sS'learn'
p60
I1
sS'following'
p61
I1
sS'data mining machine learning'
p62
I1
sS'real-timeanalytics'
p63
I1
sS'process'
p64
I2
sS'high'
p65
I1
sS'information'
p66
I2
sS'technology'
p67
I3
sVforest
p68
I1
sS'intelligent'
p69
I4
sS'profile'
p70
I1
sS'product'
p71
I3
sS'description'
p72
I2
sS'collection'
p73
I1
sS'k-nn'
p74
I1
sS'meaningful'
p75
I1
sS'specialization.'
p76
I1
sS'aservice'
p77
I1
sS'applicant'
p78
I1
sVshore
p79
I1
sS'andfunctionally.'
p80
I1
sS'help'
p81
I1
sS'insight'
p82
I5
sS'goodscripting'
p83
I1
sS'interpersonal'
p84
I1
sS'statistical'
p85
I1
sS'hbase'
p86
I1
sS'socialmedia'
p87
I1
sS'containedwithin'
p88
I1
sS'finance'
p89
I1
sS'disparate'
p90
I1
sS'seeking'
p91
I2
sS'number'
p92
I3
sS'qualified'
p93
I1
sS'attributes.'
p94
I1
sS'inherent'
p95
I1
sS'identifies'
p96
I1
sS'communicates'
p97
I1
sS'anddiverse'
p98
I1
sS'individually'
p99
I1
sS'status'
p100
I1
sS'generation'
p101
I1
sS'related'
p102
I1
sS'8 year'
p103
I1
sVoperation
p104
I1
sS'sexual'
p105
I1
sS'anemerging'
p106
I1
sS'adapt'
p107
I1
sS'scientistsat'
p108
I1
sS'issue'
p109
I1
sS'integrated'
p110
I1
sS'data scientist'
p111
I1
sS'kaggle'
p112
I1
sS'base'
p113
I1
sS'streamline'
p114
I1
sS'bayes'
p115
I1
sS'generate'
p116
I1
sS'language'
p117
I1
sS'programming'
p118
I1
sVqualification
p119
I1
sS'leading'
p120
I2
sS'dataand'
p121
I1
sS'origin'
p122
I1
sS'apps'
p123
I1
sS'primary'
p124
I1
sS'oraclefalse'
p125
I1
sS'quality'
p126
I1
sS'leverage'
p127
I1
sS'service'
p128
I3
sS'unknown'
p129
I1
sS'system'
p130
I2
sS'testing'
p131
I1
sS'part'
p132
I1
sS'spaces.'
p133
I1
sS'cleanse'
p134
I1
sVb
I1
sS'protected'
p135
I2
sS'venture'
p136
I3
sS'next-generation'
p137
I2
sS'providing'
p138
I1
sS'experience.'
p139
I1
sS'law.'
p140
I1
sS'veteran'
p141
I1
sS'able'
p142
I1
sS'recommended'
p143
I1
sS'without'
p144
I1
sS'build'
p145
I1
sS'finding'
p146
I1
sS'multiple'
p147
I1
sS'web-scale'
p148
I1
sS'regular'
p149
I1
sS'significant'
p150
I1
sS'non-routine'
p151
I1
sS'sources.'
p152
I1
sS'mobile'
p153
I2
sS'drive'
p154
I1
sS'actionable'
p155
I1
sS'experiencewith'
p156
I2
sS'apps.'
p157
I1
sS'blend'
p158
I1
sS'emerging'
p159
I1
sS'anorganizations'
p160
I1
sS'employer.'
p161
I1
sS'data'
p162
I5
sS'principal'
p163
I1
sS'based'
p164
I1
sS'big data'
p165
I2
sS'integrate'
p166
I1
sS'personality'
p167
I1
sS'statisticalanalysis'
p168
I1
sS'workin'
p169
I1
sS'preferred'
p170
I1
sS'tasksof'
p171
I1
sS'resource'
p172
I1
sS'experiments.'
p173
I1
sS'common'
p174
I1
sS'5 years'
p175
I1
sVrequirement
p176
I1
sS'national'
p177
I1
sS'cloudapplications'
p178
I1
sS'sex'
p179
I1
sS'analytics'
p180
I1
sS'bs/ba'
p181
I1
sS'individual'
p182
I1
sS'result'
p183
I2
sS'california-redwood'
p184
I1
sS'please'
p185
I1
sS'preferred.'
p186
I1
sS'written'
p187
I1
sS'across'
p188
I1
sS'segments.'
p189
I1
sS'vertical'
p190
I1
sS'targeted'
p191
I1
sS'deliver'
p192
I2
sS'job'
p193
I4
sS'mentoring'
p194
I1
sS'individualized'
p195
I1
sS'improve'
p196
I1
sS'outcome'
p197
I1
sS'talented'
p198
I1
sS'etc.'
p199
I2
sS'equal'
p200
I1
sS'andlearn.'
p201
I1
sS'horizontaland'
p202
I1
sS'relevant'
p203
I2
sS'color'
p204
I1
sS'us-ca'
p205
I1
sS'data science'
p206
I2
sS'data mining'
p207
I3
sS'considering'
p208
I1
sS'create'
p209
I1
sS'.'
I2
sS'emergingventure'
p210
I1
sS'direction'
p211
I1
sS'excellentunderstanding'
p212
I1
sS'professionals.'
p213
I1
sS'developing'
p214
I1
sS'solid'
p215
I1
sS'billionconsumer'
p216
I1
sS'receive'
p217
I1
sS'behavior'
p218
I1
sS'enhancement.'
p219
I1
sS'orientation'
p220
I1
sS'interacts'
p221
I1
sS'regression'
p222
I1
sS'member'
p223
I1
sS'complex'
p224
I1
sS'quant'
p225
I1
sS'evaluate'
p226
I1
sS'development'
p227
I1
sS'http'
p228
I1
sS'third-party'
p229
I1
sS'000'
p230
I1
sS'user'
p231
I2
sS'robust'
p232
I1
sS'opportunity'
p233
I3
sS'identity'
p234
I1
sS'area.'
p235
I1
sS'database'
p236
I1
sS'client'
p237
I1
sS'organization'
p238
I1
sS'latest'
p239
I2
sS'nosql'
p240
I1
sS'-'
I1
sS'data-oriented'
p241
I1
sS'identify'
p242
I1
sS'human'
p243
I1
sS'skill'
p244
I7
sS'candidate'
p245
I1
sS'r d'
p246
I1
sS'source'
p247
I3
sS'location'
p248
I1
sS'input'
p249
I1
sS'interprets'
p250
I1
sS'big'
p251
I1
sS'using'
p252
I1
sS'advanced'
p253
I2
sS'like'
p254
I2
sS'scikit-learn'
p255
I1
sS'5+'
p256
I1
sS'verbal'
p257
I1
sS'employment'
p258
I2
sS'aknowledge'
p259
I1
sS'decision'
p260
I1
sS'saas'
p261
I1
sS'creative'
p262
I1
sS'religion'
p263
I1
sS'tolearn'
p264
I1
sS'provider'
p265
I1
sS'data analysis'
p266
I2
sS'business'
p267
I5
sS'equivalent'
p268
I1
sS'exciting'
p269
I3
sS'industry'
p270
I1
sS'ingest'
p271
I1
sS'community.'
p272
I1
sS'involving'
p273
I1
sS'software'
p274
I2
sS'consolidate'
p275
I1
sS'goodapplied'
p276
I1
sS'communication'
p277
I1
sS'within'
p278
I3
sS'functional'
p279
I1
sS'contributor'
p280
I1
sS'technically'
p281
I2
sS'collaborateacross'
p282
I1
sS'area'
p283
I1
sS'question'
p284
I1
sS'cloud-based'
p285
I1
sS'way'
p286
I1
sS'analyze'
p287
I1
sS'andcloud'
p288
I1
sS'offering'
p289
I2
sS'offer'
p290
I1
sS'regard'
p291
I1
sS'greatcommunication'
p292
I1
sS'automated'
p293
I2
sS'analyst'
p294
I1
sS'hire'
p295
I1
sS'datasets'
p296
I1
sS'organizations.'
p297
I1
sS'toolkits'
p298
I1
sS'characteristic'
p299
I1
sS'msdegree'
p300
I1
sS'demonstrate'
p301
I1
sS'distribution'
p302
I1
sS'similar'
p303
I1
sS'detailed'
p304
I1
sS'thatautomatically'
p305
I1
sS'deep'
p306
I1
sS'globally'
p307
I1
sS'engineering'
p308
I1
sS'diverse'
p309
I1
sS'areally'
p310
I1
sS'45'
p311
I1
sS'inapplying'
p312
I1
sVapplication
p313
I9
sS'develops'
p314
I2
sS'sql'
p315
I1
sS'exposure'
p316
I1
sS'building'
p317
I1
sS'svm'
p318
I1
sS'algorithm'
p319
I2
sS'solutionsfrom'
p320
I1
sS'geographicallydispersed'
p321
I1
sS'behavioral'
p322
I1
sS'oracle'
p323
I11
s.