(dp1
S'origin'
p2
I1
sS'help'
p3
I1
sS'versed'
p4
I1
sS'-'
I2
sS'global'
p5
I2
sS'characteristic'
p6
I1
sS'executing'
p7
I1
sS'employer.'
p8
I1
sS'planning'
p9
I1
sS'including'
p10
I1
sS'aspect'
p11
I1
sS'innovative'
p12
I2
sS'skill'
p13
I5
sS'research'
p14
I1
sS'r d'
p15
I1
sS'visualization'
p16
I1
sS'based'
p17
I1
sS'knowledge'
p18
I2
sS'big data'
p19
I2
sS'religion'
p20
I1
sS'technique'
p21
I1
sS'disability'
p22
I1
sS'detection.'
p23
I1
sS'platform'
p24
I1
sS'program'
p25
I1
sS'2015'
p26
I1
sS'fraud detection'
p27
I1
sS'team'
p28
I2
sS'real'
p29
I1
sS'data modeling'
p30
I1
sS'yoy'
p31
I1
sS'python'
p32
I1
sS'big'
p33
I3
sS'preferred'
p34
I3
sS'cutting'
p35
I1
sS'fan'
p36
I1
sS'markets.'
p37
I1
sS'devices.'
p38
I1
sS'like'
p39
I1
sVsubmission
p40
I1
sVuniversity
p41
I1
sS'scikit-learn'
p42
I1
sS'via'
p43
I1
sS'c++'
p44
I1
sS'large'
p45
I2
sS'convenience'
p46
I1
sS'race'
p47
I1
sS'hadoop/spark/flink'
p48
I1
sS'37'
p49
I1
sS'ml'
p50
I1
sS'involvement'
p51
I1
sS'essential'
p52
I1
sS'vision'
p53
I1
sVrequirement
p54
I1
sS'math/'
p55
I1
sS'national'
p56
I1
sS'member.'
p57
I1
sS'used'
p58
I1
sS'sex'
p59
I1
sS'rate'
p60
I1
sS'modeling.'
p61
I3
sS'recommendation'
p62
I1
sS'employment'
p63
I1
sS'degree'
p64
I2
sS'scale'
p65
I2
sS'doctoral/professional'
p66
I1
sS'lead'
p67
I2
sS"master's"
p68
I1
sVspecification
p69
I1
sS'continually'
p70
I1
sS'increase'
p71
I1
sS'huawei'
p72
I1
sVstate
p73
I1
sS'protected'
p74
I2
sS'innovation'
p75
I1
sS'international'
p76
I2
sS'lowered'
p77
I1
sS'process'
p78
I1
sS'data analysis'
p79
I2
sVability
p80
I3
sS'business'
p81
I1
sS'exchange'
p82
I1
sS'heavily'
p83
I1
sS'bi'
p84
I1
sS'understanding'
p85
I3
sS'implementing'
p86
I1
sS'job'
p87
I2
sS'ranked'
p88
I1
sS"people's"
p89
I1
sS'consideration'
p90
I1
sS'100'
p91
I1
sS'refers'
p92
I1
sS'5+ year'
p93
I1
sS'improve'
p94
I2
sS'search'
p95
I1
sS'would'
p96
I1
sS'technical'
p97
I3
sS'cny395'
p98
I1
sS'programming'
p99
I1
sS'equal'
p100
I1
sS'experience'
p101
I3
sS'year-end'
p102
I1
sS'000'
p103
I1
sS'60.8'
p104
I1
sS'deep learning'
p105
I1
sS'software'
p106
I1
sVduty
p107
I1
sS'3+ year'
p108
I1
sS'relevant'
p109
I1
sS'love'
p110
I1
sS'probability'
p111
I1
sS'revenue'
p112
I1
sS'color'
p113
I1
sS'communication'
p114
I1
sS'data science'
p115
I2
sS'community'
p116
I1
sS'packaging'
p117
I1
sS'qualified'
p118
I1
sS'frameworks.'
p119
I1
sS'learning'
p120
I2
sS'apply'
p121
I2
sS'effective'
p122
I1
sS'exciting'
p123
I1
sS'java'
p124
I1
sS'50+'
p125
I1
sS'service'
p126
I1
sS'analytic'
p127
I1
sS'opportunity'
p128
I1
sS'support'
p129
I1
sS'.'
I2
sS'validating'
p130
I1
sS'ton'
p131
I1
sS'strong'
p132
I1
sS'tensorflow'
p133
I1
sS'energy'
p134
I1
sVfunction
p135
I1
sS'life'
p136
I1
sS'modern'
p137
I1
sS'tool'
p138
I2
sS'regard'
p139
I1
sS'emission'
p140
I1
sS'employee'
p141
I1
sS'part'
p142
I1
sS'hear'
p143
I1
sS'data processing'
p144
I1
sS'mobile devices'
p145
I1
sS'project management'
p146
I2
sS'000+'
p147
I2
sS'sound'
p148
I1
sS'globally'
p149
I1
sS'13'
p150
I1
sS'applying'
p151
I2
sS'scenario'
p152
I1
sS'developing'
p153
I1
sS'solid'
p154
I2
sS'work'
p155
I4
sS'machine learning'
p156
I2
sS'project'
p157
I1
sS'receive'
p158
I1
sS'r'
I1
sS'exploration'
p159
I1
sS'behavior'
p160
I1
sS'similar'
p161
I1
sS'150'
p162
I1
sS'applicant'
p163
I1
sS'ad'
p164
I1
sS'ai'
p165
I1
sS'well'
p166
I1
sS'describe'
p167
I1
sS'engaged'
p168
I1
sS'deep'
p169
I2
sS'general'
p170
I1
sS'hardware'
p171
I1
sS'engineering'
p172
I1
sS'minimum'
p173
I3
sS'daily'
p174
I1
sS'partner'
p175
I1
sS'1'
I1
sS'education'
p176
I2
sS'technology'
p177
I1
sS'management.'
p178
I1
sS'law.'
p179
I1
sS'united'
p180
I1
sS'patent'
p181
I1
sS'veteran'
p182
I1
sS'able'
p183
I1
sS'green'
p184
I2
sS'smartphones'
p185
I1
sS'application'
p186
I2
sS'without'
p187
I1
sS'caffe'
p188
I1
sS'computer science'
p189
I2
sS'incumbent'
p190
I1
sVresponsibility
p191
I1
sS'data collection'
p192
I2
sS'solution'
p193
I1
sS"huawei's"
p194
I2
sS'status'
p195
I1
sS'evolve'
p196
I1
sS'product'
p197
I1
sS'content.'
p198
I1
sS'major/discipline'
p199
I1
sS'collaboration'
p200
I1
sS'decision-making'
p201
I1
sS'reached'
p202
I1
sS'libsvm'
p203
I1
sS'co2'
p204
I1
sS'user'
p205
I1
sS'70'
p206
I1
sS'data'
p207
I3
sS'expand'
p208
I1
sS'billion'
p209
I3
sS'experienc'
p210
I1
sS'algorithm'
p211
I3
sS'invest'
p212
I2
sS'enthusiastic'
p213
I1
sS'proud'
p214
I1
sVstatistic
p215
I2
sS'science/'
p216
I1
sS'edge'
p217
I1
sVu
I3
sS'model'
p218
I1
sS'related.'
p219
I1
sS'inc.'
p220
I1
sS'latest'
p221
I1
s.