(dp1
S'skills'
p2
(lp3
S'consulting'
p4
aS'r d'
p5
aS'ip'
p6
aS'data science'
p7
aS'soc'
p8
aS'rest'
p9
aS'ant'
p10
aS'vis'
p11
aS'engineering'
p12
aS'statistical analysis'
p13
aS'go'
p14
aS'ic'
p15
aS'education'
p16
aS'public policy'
p17
aS'management'
p18
aS'c'
aS'research'
p19
aS'statistica'
p20
aS'rf'
p21
aS'policy'
p22
aS'pl'
p23
aS'asp'
p24
aS'finance'
p25
aS'python'
p26
aS'marketing'
p27
aS'data scientist'
p28
aS'training'
p29
aS'sql'
p30
aS'data'
p31
aS'a'
aS'search'
p32
aS'analytics'
p33
aS'science'
p34
aS'analysis'
p35
aS'r'
aS'product management'
p36
aS'cad'
p37
asS'working-year'
p38
(lp39
S'5 year'
p40
aS'2-5 year'
p41
asS'major'
p42
(lp43
S'management'
p44
aS'finance'
p45
aS'business'
p46
aS'ee'
p47
aS'marketing'
p48
aS'data science'
p49
aS'analytics'
p50
aS'engineering'
p51
aS'design'
p52
aS'statistic'
p53
aS'mis'
p54
aS'public policy'
p55
aS'science'
p56
asS'education'
p57
(lp58
VBachelor
p59
aVMaster
p60
asS'responsibility'
p61
(lp62
S'product'
p63
aS'analysis'
p64
aS'analytic'
p65
aS'understand'
p66
aS'design'
p67
aS'implement'
p68
aS'engineering design'
p69
as.