(dp1
S'skills'
p2
(lp3
S'consulting'
p4
aS'r d'
p5
aS'ip'
p6
aS'data science'
p7
aS'communication'
p8
aS'forecasting'
p9
aS'ant'
p10
aS'analytics'
p11
aS'engineering'
p12
aS'personalization'
p13
aS'go'
p14
aS'ic'
p15
aS'strategy'
p16
aS'team management'
p17
aS'economic research'
p18
aS'visualization'
p19
aS'statistics'
p20
aS'big data'
p21
aS'product marketing'
p22
aS'research'
p23
aS'statistica'
p24
aS'envi'
p25
aS'fraud detection'
p26
aS'computer science'
p27
aS'visio'
p28
aS'operations research'
p29
aS'pl'
p30
aS'asp'
p31
aS'finance'
p32
aS'python'
p33
aS'marketing'
p34
aS'data scientist'
p35
aS'c'
aS'sales'
p36
aS'water'
p37
aS'management'
p38
aS'sql'
p39
aS'modeling'
p40
aS'data'
p41
aS'b2b'
p42
aS'a'
aS'business analytics'
p43
aS'search'
p44
aS'fraud'
p45
aS'ampl'
p46
aS'vis'
p47
aS'science'
p48
aS'economics'
p49
aS'business strategy'
p50
aS'machine learning'
p51
aS'data engineering'
p52
aS'r'
aS'dashboard'
p53
aS'military'
p54
aS'b2b marketing'
p55
aS'physics'
p56
aS'cro'
p57
aS'sd'
p58
asS'working-year'
p59
(lp60
S'5+ year'
p61
aS'1+ year'
p62
asS'major'
p63
(lp64
S'ee'
p65
aS'communication'
p66
aS'data science'
p67
aS'analytics'
p68
aS'engineering'
p69
aS'statistic'
p70
aS'computer science economics'
p71
aS'statistics operations research'
p72
aS'economic research'
p73
aS'information'
p74
aS'management'
p75
aS'big data'
p76
aS'computer science'
p77
aS'mis'
p78
aS'operations research'
p79
aS'ece'
p80
aS'finance'
p81
aS'business'
p82
aS'marketing'
p83
aS'phd'
p84
aS'business analytics'
p85
aS'statistics'
p86
aS'law'
p87
aVphysic
p88
aS'science'
p89
aS'economics'
p90
aS'data science analytics'
p91
aS'machine learning'
p92
aS'physics computer science'
p93
aS'physics'
p94
asS'education'
p95
(lp96
VBachelor
p97
aVMaster
p98
aVDoctor
p99
asS'responsibility'
p100
(lp101
S'information'
p102
aS'forecasting'
p103
aS'prioritize lead'
p104
aVinsight
p105
aS'product'
p106
aS'improvement'
p107
aS'analytic'
p108
aS'model'
p109
aS'understand'
p110
aS'solve problem'
p111
aS'recommendation'
p112
aS'modeling'
p113
aS'implement'
p114
aS'prototype'
p115
aS'predict'
p116
as.