(dp1
S'skills'
p2
(lp3
S'owl'
p4
aS'forecasting'
p5
aS'ip'
p6
aS'ant'
p7
aS'personalization'
p8
aS'go'
p9
aS'ic'
p10
aS'continuous improvement'
p11
aS'access'
p12
aS'optimization'
p13
aS'pl'
p14
aS'marketing'
p15
aS'team leadership'
p16
aS'data scientist'
p17
aS'leadership'
p18
aS'data'
p19
aS'a'
aS'c'
aS'ampl'
p20
aS'r'
aS'algorithms'
p21
aS'organization'
p22
aS'cro'
p23
asS'working-year'
p24
(lp25
S'0 year'
p26
asS'major'
p27
(lp28
S'ee'
p29
aS'marketing'
p30
aS'design'
p31
aS'business'
p32
asS'education'
p33
(lp34
VBachelor
p35
aVMaster
p36
asS'responsibility'
p37
(lp38
S'forecasting'
p39
aS'drive key decision'
p40
aS'ensure accuracy'
p41
aVinsight
p42
aS'product'
p43
aS'improvement'
p44
aS'analytic'
p45
aS'problem statement'
p46
aS'design'
p47
aS'key decision'
p48
aS'recommendation'
p49
aS'understand'
p50
aS'model'
p51
aS'presentation'
p52
aS'optimization'
p53
as.