(dp1
S'selection'
p2
I1
sS'help'
p3
I1
sS'heavily'
p4
I1
sS'rest'
p5
I1
sS'r d'
p6
I1
sS'current'
p7
I1
sS'implementation'
p8
I1
sS'better'
p9
I1
sS'source'
p10
I1
sS'production'
p11
I2
sS'input'
p12
I1
sS'someone'
p13
I2
sS'cutting'
p14
I1
sS'targets.'
p15
I1
sS'signal'
p16
I1
sS'specific'
p17
I1
sS'team'
p18
I1
sS'debug'
p19
I1
sS'0 year'
p20
I2
sS'formulate'
p21
I1
sS'statistic'
p22
I1
sS'incorporating'
p23
I1
sS'self-reliantable'
p24
I1
sS'/'
I1
sS'research'
p25
I2
sS'looking'
p26
I1
sS'senior'
p27
I1
sS'behind'
p28
I1
sS'various'
p29
I1
sS'new'
p30
I2
sS'minimal'
p31
I1
sS'core'
p32
I1
sS'data scientist'
p33
I1
sS'explore'
p34
I1
sS'modeling'
p35
I4
sS'improve'
p36
I1
sS'improved'
p37
I1
sS'involved'
p38
I1
sS'keep'
p39
I1
sS'web-crawling.'
p40
I1
sS'vendors.'
p41
I1
sS'implement'
p42
I1
sS'researching'
p43
I1
sS'data science'
p44
I2
sS'primary'
p45
I1
sS'phase'
p46
I2
sS'respect'
p47
I1
sS'extraction'
p48
I1
sS'data science engineering'
p49
I1
sS'edge.'
p50
I1
sS'hole'
p51
I1
sS'work'
p52
I1
sS'machine learning'
p53
I2
sS'evaluating'
p54
I1
sS'problem'
p55
I1
sS'etc.'
p56
I1
sS'example'
p57
I2
sS'scripting'
p58
I1
sS'debugging'
p59
I1
sS'customers.'
p60
I1
sS'infrastructure.'
p61
I1
sS'experience.'
p62
I1
sS'contribute'
p63
I1
sS'deep'
p64
I1
sS'engineering'
p65
I1
sS'want'
p66
I1
sS'need'
p67
I1
sS'able'
p68
I1
sS'feature'
p69
I1
sS'helping'
p70
I1
sS'products.'
p71
I1
sS'improving'
p72
I2
sS'high-value'
p73
I1
sS'independently'
p74
I1
sS'algorithm'
p75
I1
sVresponsibility
p76
I1
sS'correlation'
p77
I1
sS'model'
p78
I1
sS'code.'
p79
I1
sS'external'
p80
I1
s.