(dp1
S'skills'
p2
(lp3
S'owl'
p4
aS'r d'
p5
aS'shell scripting'
p6
aS'ip'
p7
aS'ant'
p8
aS'analytics'
p9
aS'statistical analysis'
p10
aS'data mining'
p11
aS'go'
p12
aS'accounting'
p13
aS'ic'
p14
aS'research'
p15
aS'amazon web services'
p16
aS'dimensionality reduction'
p17
aS'business analysis'
p18
aS'management'
p19
aS'java'
p20
aS'anomaly detection'
p21
aS'ruby'
p22
aS'mathematica'
p23
aS'excel'
p24
aS'perl'
p25
aS'cell'
p26
aS'statistica'
p27
aS'optimization'
p28
aS'computer science'
p29
aS'web services'
p30
aS'natural language processing'
p31
aS'intelligence'
p32
aS'mathematics'
p33
aS'operating systems'
p34
aS'a'
aS'scrum'
p35
aS'distributed computing'
p36
aS'finance'
p37
aS'python'
p38
aS'marketing'
p39
aS'processing'
p40
aS'data scientist'
p41
aS'c'
aS'cro'
p42
aS'business analytics'
p43
aS'sql'
p44
aS'data'
p45
aS'software development'
p46
aS'search'
p47
aVbayesian method
p48
aS'vis'
p49
aS'science'
p50
aS'applied mathematics'
p51
aS'scala'
p52
aS'programming'
p53
aS'analysis'
p54
aS'machine learning'
p55
aS'r'
aS'scripting'
p56
aS'statistical inference'
p57
aS'pl'
p58
aS'microsoft azure'
p59
asS'working-year'
p60
(lp61
S'0 year'
p62
asS'major'
p63
(lp64
S'business analysis'
p65
aS'computing'
p66
aS'ee'
p67
aS'statistic'
p68
aS'general'
p69
aS'analytics'
p70
aS'data mining'
p71
aS'accounting'
p72
aS'applied mathematics computer science'
p73
aS'accounting finance'
p74
aS'information'
p75
aS'management'
p76
aS'computer science'
p77
aS'natural language processing'
p78
aS'mathematics'
p79
aS'finance'
p80
aS'business'
p81
aS'marketing'
p82
aS'business analytics'
p83
aS'science'
p84
aS'applied mathematics'
p85
aS'machine learning'
p86
aS'applied math'
p87
aS'mathematics computer science'
p88
asS'education'
p89
(lp90
VBachelor
p91
aVMaster
p92
asS'responsibility'
p93
(lp94
S'development'
p95
aS'information'
p96
aS'processing'
p97
aS'recommendation'
p98
aS'analysis'
p99
aS'analytic'
p100
aS'statistical method'
p101
aS'optimization'
p102
aS'understand'
p103
aS'data mining'
p104
as.