(dp1
S'skills'
p2
(lp3
S'soc'
p4
aS'r d'
p5
aS'recruiting'
p6
aS'communication'
p7
aS'vis'
p8
aS'account management'
p9
aS'ic'
p10
aS'strategy'
p11
aS'insurance'
p12
aS'access'
p13
aS'management'
p14
aS'gis'
p15
aS'excel'
p16
aS'rf'
p17
aS'arm'
p18
aS'cell'
p19
aS'ssis'
p20
aS'visio'
p21
aS'policy'
p22
aS'pl'
p23
aS'ip'
p24
aS'asp'
p25
aS'finance'
p26
aS'marketing'
p27
aS'data scientist'
p28
aS'c'
aS'leadership'
p29
aS'mentoring'
p30
aS'business development'
p31
aS'data'
p32
aS'project management'
p33
aS'a'
aS'training'
p34
aS'science'
p35
aS'education'
p36
aS'analysis'
p37
aS'managed care'
p38
aS'r'
aS'advertising'
p39
aS'cro'
p40
aS'envi'
p41
asS'working-year'
p42
(lp43
S'5+ year'
p44
asS'major'
p45
(lp46
S'ece'
p47
aS'management'
p48
aS'finance'
p49
aS'business'
p50
aS'ee'
p51
aS'marketing'
p52
aS'communication'
p53
aS'science'
p54
aS'mis'
p55
aS'project management'
p56
asS'education'
p57
(lp58
VBachelor
p59
aVMaster
p60
asS'responsibility'
p61
(lp62
S'development'
p63
aS'product'
p64
aS'analysis'
p65
aS'report'
p66
aS'implement'
p67
aS'presentation'
p68
as.