(dp1
S'summer'
p2
I1
sS'r d'
p3
I1
sS'2 year'
p4
I1
sS'vary'
p5
I1
sS'hadoop'
p6
I1
sS'i/o'
p7
I1
sS'relevant'
p8
I1
sS'gpus'
p9
I1
sS'candidates.'
p10
I1
sS'group'
p11
I2
sS'big data'
p12
I2
sS'religion'
p13
I1
sS'distributed'
p14
I2
sS'winning'
p15
I1
sS'combine'
p16
I1
sVlocation
p17
I1
sS'factor'
p18
I1
sS'fuel'
p19
I1
sS'5g'
p20
I1
sS'world.'
p21
I1
sS'transformation'
p22
I1
sS'smart'
p23
I1
sS'computer science'
p24
I2
sS'data-driven'
p25
I1
sS'around'
p26
I1
sS'combination'
p27
I1
sS'government'
p28
I1
sS'python'
p29
I1
sS'preferred'
p30
I2
sS'mpi'
p31
I1
sS'framework'
p32
I2
sS'year.'
p33
I1
sS'cutting'
p34
I1
sS'every'
p35
I1
sS'background'
p36
I1
sS'using'
p37
I2
sS'unique'
p38
I1
sS'devices.'
p39
I1
sS'service'
p40
I1
sS'school'
p41
I2
sS'intel'
p42
I1
sS'identifying'
p43
I1
sS'gender'
p44
I2
sS'architecture'
p45
I1
sS'applied math'
p46
I1
sS'requirement'
p47
I1
sS'significantly'
p48
I1
sS'national'
p49
I1
sS'hard'
p50
I1
sS'heterogenous'
p51
I1
sS'related'
p52
I1
sS'marital'
p53
I1
sS'detection'
p54
I1
sS'recommendation'
p55
I1
sS'sexual'
p56
I1
sS"intel's"
p57
I1
sS'and/or'
p58
I2
sS"master's"
p59
I1
sS'posse'
p60
I1
sS'familiarity'
p61
I1
sS'looking'
p62
I1
sS'initially'
p63
I1
sS'race'
p64
I1
sS'designing'
p65
I1
sS'new'
p66
I2
sS'previous'
p67
I1
sS'solutions-that'
p68
I1
sS'object'
p69
I1
sS'run'
p70
I1
sS'high-performance'
p71
I1
sS'business'
p72
I1
sS'localization'
p73
I1
sS'internship'
p74
I1
sS'dcg'
p75
I2
sS'u.s.'
p76
I1
sS'data scientist'
p77
I1
sS'kaggle'
p78
I1
sS'quite'
p79
I1
sS'implementing'
p80
I1
sS'job'
p81
I3
sS'california'
p82
I1
sS'based'
p83
I1
sS'spark'
p84
I1
sS'requirements.'
p85
I1
sS'obtained'
p86
I1
sS'c'
I1
sS'working'
p87
I1
sS'technical'
p88
I2
sS'computational neuroscience'
p89
I2
sS'experience'
p90
I5
sS'participating'
p91
I1
sS'plus'
p92
I1
sS'qualification'
p93
I4
sS'deep learning'
p94
I1
sS'status.'
p95
I1
sS'expression'
p96
I1
sS'processor'
p97
I2
sS'software'
p98
I2
sS'origin'
p99
I1
sS'machine learning big data'
p100
I1
sS'forecasting'
p101
I1
sS'speech recognition'
p102
I1
sS'color'
p103
I1
sS'communication'
p104
I1
sS'cg'
p105
I1
sS'period'
p106
I1
sS'one'
p107
I1
sS'exploit'
p108
I1
sS'learning'
p109
I2
sS'pregnancy'
p110
I1
sS'throughout'
p111
I1
sS'cloud'
p112
I2
sS'orientation'
p113
I1
sS'networking'
p114
I1
sS'would'
p115
I1
sS'area'
p116
I2
sS'addition'
p117
I1
sS'discrimination'
p118
I1
sS'top'
p119
I1
sS'creativity'
p120
I1
sS'system'
p121
I1
sS'disability'
p122
I1
sS'pc'
p123
I1
sS'listed'
p124
I1
sS'position.'
p125
I1
sS'artificial intelligence'
p126
I2
sS'posting'
p127
I1
sS'statement.'
p128
I1
sS'technologies-spanning'
p129
I1
sS'company'
p130
I2
sS'competition'
p131
I1
sS'legally'
p132
I1
sS'inventing'
p133
I1
sS'delivers'
p134
I1
sS'role'
p135
I1
sS'must'
p136
I1
sS'applied'
p137
I1
sS'novel'
p138
I1
sS'developing'
p139
I2
sS'ml'
p140
I1
sS'inside'
p141
I1
sS'work'
p142
I1
sS'machine learning'
p143
I2
sS'underpinning'
p144
I1
sS'diverse'
p145
I1
sS'following'
p146
I2
sS'electrical engineering'
p147
I2
sS'problem'
p148
I2
sS'work/classes/research'
p149
I1
sS'multi-core'
p150
I1
sS'experiences.'
p151
I1
sS'heart'
p152
I1
sS'san'
p153
I1
sS'computing'
p154
I2
sS'ai'
p155
I1
sS'nature'
p156
I1
sS"customers'"
p157
I1
sS'deep'
p158
I2
sS'multimodal'
p159
I1
sS'cluster'
p160
I2
sS'minimum'
p161
I2
sS'need'
p162
I1
sS'education'
p163
I1
sS'graphlab'
p164
I1
sS'depending'
p165
I1
sS'veteran'
p166
I1
sS'storage'
p167
I1
sS'detail'
p168
I1
sS'field'
p169
I1
sS'computer vision'
p170
I1
sS'eg.'
p171
I1
sVresponsibility
p172
I1
sS'natural language processing'
p173
I2
sS'supervised'
p174
I1
sS'status'
p175
I2
sS'prohibits'
p176
I1
sS'product'
p177
I1
sS'description'
p178
I1
sS'diego'
p179
I1
sS'may'
p180
I2
sS'assignment'
p181
I1
sS'phd'
p182
I1
sS'1-2 year'
p183
I1
sS'connected'
p184
I1
sS'protected'
p185
I1
sS'identity'
p186
I1
sS'billion'
p187
I1
sS'short'
p188
I1
sS'center'
p189
I2
sS'algorithm'
p190
I2
sS'unsupervised'
p191
I1
sS'considered'
p192
I2
sS'age'
p193
I1
sS'statistic'
p194
I1
sS'drive'
p195
I1
sS'data center'
p196
I1
sS'edge'
p197
I1
sS'solve'
p198
I1
sS'enterprise'
p199
I1
sS'professional'
p200
I1
sS'model'
p201
I1
sVcpu
p202
I1
s.