(dp1
S'code'
p2
I1
sS'r d'
p3
I1
sS'places.'
p4
I1
sS'global'
p5
I1
sS'mission'
p6
I1
sS'structuring'
p7
I1
sS'shape'
p8
I1
sS"factual's"
p9
I1
sS'using'
p10
I3
sS'useful'
p11
I1
sS'skill'
p12
I1
sS'based'
p13
I1
sS'insight'
p14
I1
sS'looking'
p15
I1
sS'scientistlos'
p16
I1
sS'field'
p17
I1
sS'location'
p18
I1
sS'factual'
p19
I1
sS'advanced'
p20
I1
sS'computer science'
p21
I2
sS'real'
p22
I2
sS'collaborate'
p23
I1
sS'format'
p24
I1
sS'propose'
p25
I1
sVpractice
p26
I1
sS'world'
p27
I2
sS'maintaining'
p28
I1
sS'52'
p29
I1
sS'large'
p30
I1
sS'team'
p31
I3
sS'analytical'
p32
I1
sS'passionate'
p33
I1
sS'enjoy'
p34
I1
sS'set'
p35
I1
sS'portable'
p36
I1
sS'propel'
p37
I1
sS'poi'
p38
I1
sS'understanding'
p39
I1
sS'growth'
p40
I1
sS'thoroughness'
p41
I1
sS'category'
p42
I1
sS'project'
p43
I2
sS'scale'
p44
I1
sS'degree'
p45
I2
sS'lead'
p46
I1
sS'specification'
p47
I1
sS'creative'
p48
I2
sS'current'
p49
I1
sS'written'
p50
I1
sS'score'
p51
I1
sS'closed'
p52
I1
sS'across'
p53
I1
sS'math'
p54
I1
sS'predicting'
p55
I1
sS'build model'
p56
I1
sS'business'
p57
I1
sS'workflow'
p58
I1
sS'million'
p59
I1
sS'data scientist'
p60
I1
sS'use'
p61
I2
sS'business.'
p62
I1
sS'bachelor'
p63
I1
sS'rapidly'
p64
I1
sS'100'
p65
I1
sS'delivering'
p66
I1
sS'optimize'
p67
I2
sS'pipeline'
p68
I2
sS'java/hadoop'
p69
I1
sS'technical'
p70
I1
sS'many'
p71
I1
sS'industry'
p72
I1
sS'scala/spark'
p73
I1
sS'programming'
p74
I1
sS'countries.'
p75
I1
sS'angeles'
p76
I1
sS'thing'
p77
I1
sS'range'
p78
I1
sS'place'
p79
I3
sS'design experiment'
p80
I1
sS'commit'
p81
I1
sS'cleaning'
p82
I1
sS'company.'
p83
I1
sS'organize'
p84
I1
sS'love'
p85
I1
sS'author'
p86
I1
sS'communication'
p87
I1
sS'data science'
p88
I2
sS'skilled'
p89
I1
sS'coding'
p90
I1
sS'thought leadership'
p91
I1
sS'2+ year'
p92
I1
sS'python/scikit'
p93
I1
sS'changing'
p94
I1
sS'engineer'
p95
I3
sS'given'
p96
I1
sS'strong'
p97
I2
sS'willingness'
p98
I1
sS'working'
p99
I3
sS'opportunity'
p100
I1
sS"world's"
p101
I1
sS'strategy'
p102
I1
sS'production'
p103
I1
sS"we're"
p104
I1
sS'ranging'
p105
I1
sS'dataset.'
p106
I1
sS'direction'
p107
I1
sS'business problem'
p108
I1
sS'environment.'
p109
I1
sS'data processing'
p110
I1
sS'excellent'
p111
I1
sS'decisions.'
p112
I1
sS'information.'
p113
I1
sS'wide'
p114
I1
sS'robust'
p115
I1
sS'developing'
p116
I1
sS'ml'
p117
I1
sS'work'
p118
I2
sS'machine learning'
p119
I2
sS'solutions.'
p120
I1
sS'statistics computer science'
p121
I1
sS'dirty'
p122
I1
sS'behavior'
p123
I1
sS'problem'
p124
I1
sS'data-driven'
p125
I1
sS'plus'
p126
I1
sS'processing'
p127
I1
sS'correctness'
p128
I1
sS'metric'
p129
I1
sVstatistic
p130
I1
sS'influence'
p131
I1
sS'fellow'
p132
I1
sS'engineering'
p133
I1
sS'diverse'
p134
I1
sS'expertise'
p135
I1
sS'experience'
p136
I4
sS'normalize'
p137
I1
sS'different'
p138
I1
sS'variety'
p139
I1
sS'provide'
p140
I1
sS'feature'
p141
I1
sS'also'
p142
I1
sS'tech'
p143
I1
sS'ensure'
p144
I1
sS'data-based'
p145
I1
sS'product'
p146
I3
sS'anonymized'
p147
I2
sS'mapping'
p148
I1
sS'produce'
p149
I1
sS'user'
p150
I2
sS'data wrangling'
p151
I2
sS'communicator'
p152
I1
sS'data'
p153
I7
sS'popularity'
p154
I1
sS'cover'
p155
I1
sS'drive'
p156
I1
sS'analysis'
p157
I1
sS"you'll"
p158
I1
sS'solve'
p159
I2
sS'477'
p160
I1
sS'clean'
p161
I1
sS'time'
p162
I1
sS'quantitative'
p163
I1
sS'model'
p164
I1
sS'software'
p165
I2
sS'oral'
p166
I1
s.