(dp1
S'skills'
p2
(lp3
S'owl'
p4
aS'soc'
p5
aS'higher education'
p6
aS'r d'
p7
aS'classification'
p8
aS'ip'
p9
aS'human resources'
p10
aS'strategic planning'
p11
aS'ant'
p12
aS'vis'
p13
aS'statistical analysis'
p14
aS'go'
p15
aS'sas'
p16
aS'ic'
p17
aS'research'
p18
aS'sem'
p19
aS'experimentation'
p20
aS'visualization'
p21
aS'management'
p22
aS'c'
aS'excel'
p23
aS'rf'
p24
aS'access'
p25
aS'writing'
p26
aS'cell'
p27
aS'statistica'
p28
aS'ssis'
p29
aS'education'
p30
aS'visio'
p31
aS'teaching'
p32
aS'pl'
p33
aS'envi'
p34
aS'apis'
p35
aS'innovation'
p36
aS'data scientist'
p37
aS'search'
p38
aS'mpi'
p39
aS'leadership'
p40
aS'word'
p41
aS'data'
p42
aS'science'
p43
aS'a'
aS'training'
p44
aS'erp'
p45
aS'data visualization'
p46
aS'quantitative research'
p47
aS'documentation'
p48
aS'programming'
p49
aS'analysis'
p50
aS'spss'
p51
aS'credit'
p52
aS'r'
aS'dashboard'
p53
aS'lte'
p54
aS'cognition'
p55
aS'cms'
p56
aS'powerpoint'
p57
aS'cad'
p58
asS'working-year'
p59
(lp60
S'three year'
p61
asS'major'
p62
(lp63
S'information'
p64
aS'ece'
p65
aS'management'
p66
aS'ee'
p67
aS'science'
p68
aS'general'
p69
aS'design'
p70
aS'statistic'
p71
aS'mis'
p72
asS'education'
p73
(lp74
VBachelor
p75
aVMaster
p76
aVDoctor
p77
asS'responsibility'
p78
(lp79
S'information'
p80
aS'predict'
p81
aS'documentation'
p82
aS'communicate'
p83
aS'analysis'
p84
aS'analytic'
p85
aS'statistical method'
p86
aS'design'
p87
aS'report'
p88
aS'understand'
p89
aS'model'
p90
aS'presentation'
p91
as.