(dp1
S'skills'
p2
(lp3
S'owl'
p4
aS'r d'
p5
aS'ip'
p6
aS'data science'
p7
aS'rest'
p8
aS'eviews'
p9
aS'ant'
p10
aS'analytics'
p11
aS'engineering'
p12
aS'optimizations'
p13
aS'innovation'
p14
aS'go'
p15
aS'sas'
p16
aS'ic'
p17
aS'research'
p18
aS'random forest'
p19
aS'lua'
p20
aS'visualization'
p21
aS'git'
p22
aS'scala'
p23
aS'ruby'
p24
aS'optimization'
p25
aS'asic'
p26
aS'ssis'
p27
aS'governance'
p28
aS'perl'
p29
aS'valuation'
p30
aS'vertica'
p31
aS'rf'
p32
aS'strategy'
p33
aS'computer science'
p34
aS'sem'
p35
aS'visio'
p36
aS'leadership development'
p37
aS'statistical learning'
p38
aS'pl'
p39
aS'matlab'
p40
aS'a'
aS'envi'
p41
aS'python'
p42
aS'ios'
p43
aS'c'
aS'data scientist'
p44
aS'random forests'
p45
aS'gas'
p46
aS'apache spark'
p47
aS'cro'
p48
aS'leadership'
p49
aS'data analysis'
p50
aS'apache'
p51
aS'modeling'
p52
aS'spark'
p53
aS'data quality'
p54
aS'data'
p55
aS'statistica'
p56
aS'software development'
p57
aS'search'
p58
aS'erp'
p59
aS'vis'
p60
aS'science'
p61
aS'analysis'
p62
aS'machine learning'
p63
aS'idl'
p64
aS'r'
aS'architecture'
p65
aS'options'
p66
aS'data analytics'
p67
aS'predictive analytics'
p68
asS'working-year'
p69
(lp70
S'15 year'
p71
asS'major'
p72
(lp73
S'information'
p74
aS'business'
p75
aS'ee'
p76
aS'science'
p77
aS'data science'
p78
aS'machine learning'
p79
aS'analytics'
p80
aS'engineering'
p81
aS'design'
p82
aS'computer science'
p83
aS'phd'
p84
aS'statistic'
p85
aS'mis'
p86
aS'law'
p87
aS'ee computer science'
p88
aS'data analytics'
p89
aS'predictive analytics'
p90
asS'education'
p91
(lp92
VBachelor
p93
aVMaster
p94
aVDoctor
p95
asS'responsibility'
p96
(lp97
S'modeling'
p98
aS'development'
p99
aS'product'
p100
aS'data analysis'
p101
aS'information'
p102
aS'predict'
p103
aS'provide leadership'
p104
aS'identify opportunity'
p105
aS'analysis'
p106
aS'improvement'
p107
aS'analytic'
p108
aS'optimization'
p109
aS'design'
p110
aS'recommendation'
p111
aS'understand'
p112
aS'implement'
p113
aS'prototype'
p114
aS'evaluation'
p115
aS'model'
p116
as.