(dp1
S'li-nb1'
p2
I1
sS'predictive modeling'
p3
I1
sS'unbridled'
p4
I1
sS'help'
p5
I1
sS'java.'
p6
I1
sS'recipe'
p7
I2
sS'mission'
p8
I1
sS'invent'
p9
I1
sS'performance'
p10
I1
sS'yield/efficiency/quality'
p11
I1
sS'including'
p12
I1
sS'gated'
p13
I1
sS'love'
p14
I1
sS'lstm'
p15
I1
sS'data quality'
p16
I1
sS'r d'
p17
I1
sS'machine'
p18
I2
sS'promote'
p19
I1
sS'based'
p20
I1
sS'knowledge'
p21
I3
sS'application'
p22
I1
sS'time series analysis'
p23
I1
sS'anomaly detection'
p24
I1
sS'solving'
p25
I1
sS'better'
p26
I1
sS'platform'
p27
I3
sS'must'
p28
I2
sS'th'
p29
I1
sS'quality.'
p30
I1
sS'iiot'
p31
I1
sS'world.'
p32
I1
sS'easier'
p33
I1
sS'assets.'
p34
I1
sS'collaborate'
p35
I2
sS'signal processing'
p36
I1
sS'around'
p37
I1
sS'python'
p38
I1
sS'kindles'
p39
I1
sS'term'
p40
I1
sS'required.'
p41
I4
sS'discreet'
p42
I1
sS'background'
p43
I1
sS'new'
p44
I2
sS'front'
p45
I1
sS'using'
p46
I2
sS'highly'
p47
I1
sS'like'
p48
I1
sS'desire'
p49
I2
sS'aggressively'
p50
I1
sS'execute'
p51
I1
sS'resource'
p52
I1
sS'cognitive'
p53
I3
sS'fast-paced'
p54
I1
sS'sensor'
p55
I1
sS'solution'
p56
I2
sS'communication skills'
p57
I1
sS'guiding'
p58
I1
sS'team'
p59
I2
sS'time-series'
p60
I1
sS'output'
p61
I1
sS'vision'
p62
I1
sS'predictive analytics'
p63
I2
sS'enjoy'
p64
I1
sS'predictive'
p65
I5
sS'requirement'
p66
I2
sS'revolution'
p67
I1
sS'cross-functional'
p68
I1
sS'mllib'
p69
I1
sS'energy'
p70
I1
sS'meta-learning'
p71
I1
sS'prediction'
p72
I1
sS'8+ year'
p73
I1
sS'analytics'
p74
I1
sS'cost'
p75
I1
sS'design'
p76
I1
sS'operation'
p77
I1
sS'sequence-based'
p78
I1
sS'datarpms'
p79
I2
sS'desired.'
p80
I1
sS'power'
p81
I1
sS'and/or'
p82
I1
sS'interacting'
p83
I1
sS'expert'
p84
I1
sS'frontier'
p85
I1
sS'revolutionize'
p86
I1
sS'/'
I9
sS'creative'
p87
I1
sS'increase'
p88
I1
sS'everything'
p89
I1
sS'future'
p90
I1
sS'passion'
p91
I1
sS'unit'
p92
I1
sS'progress'
p93
I1
sS'offline'
p94
I1
sS'issue'
p95
I1
sS'leader'
p96
I1
sS'thrive'
p97
I1
sS'300'
p98
I1
sS'leveraging'
p99
I1
sS'predicting'
p100
I1
sS'platform.'
p101
I2
sS'delivering'
p102
I2
sVbachelor
p103
I1
sS'leadership'
p104
I1
sS'pursuit'
p105
I1
sS'spark'
p106
I3
sS'requirements.'
p107
I1
sS'doctorate'
p108
I1
sS'information technology'
p109
I2
sS'internet things'
p110
I1
sS'revolutionary'
p111
I1
sS'great'
p112
I1
sS'skills.'
p113
I1
sS'things.'
p114
I1
sS'data visualization'
p115
I1
sS'mathematics'
p116
I1
sS'30'
p117
I1
sS'programming'
p118
I1
sS'experience'
p119
I7
sVthing
p120
I1
sS'product innovation'
p121
I1
sS'customer support'
p122
I1
sVqualification
p123
I1
sS'deep learning'
p124
I1
sS'action'
p125
I1
sS'award-winning'
p126
I1
sS'implement'
p127
I1
sS'plus.'
p128
I2
sS'learning.'
p129
I1
sS'transportation.'
p130
I1
sS'degree'
p131
I1
sS'3+ year'
p132
I1
sS'industrial'
p133
I3
sS'saving'
p134
I1
sS'neural networks'
p135
I1
sS'burning'
p136
I1
sS'revenue'
p137
I1
sS'data science'
p138
I2
sS'solve'
p139
I1
sS'one'
p140
I4
sS'brought'
p141
I1
sS'long'
p142
I1
sS'.'
I1
sS'marketing management'
p143
I2
sS'particularly'
p144
I1
sVutility
p145
I1
sS'environment'
p146
I1
sS'tuning'
p147
I1
sS'working'
p148
I3
sS'area'
p149
I2
sS'leading'
p150
I1
sS'create'
p151
I2
sS'support'
p152
I1
sS'creativity'
p153
I1
sS'transform'
p154
I1
sS'least'
p155
I1
sS'next'
p156
I1
sS'needed'
p157
I2
sVmaster
p158
I1
sS'asset'
p159
I2
sS'way'
p160
I2
sS'convention'
p161
I1
sS'forward'
p162
I1
sS'tensorflow'
p163
I1
sS'automates'
p164
I1
sS'you.'
p165
I1
sS'maintenance'
p166
I5
sS'big'
p167
I1
sS'business problem'
p168
I1
sS'relevant'
p169
I1
sS'company'
p170
I1
sS'memory'
p171
I1
sS'gas'
p172
I1
sS'challenging-the-convention'
p173
I1
sS'failure'
p174
I1
sS'train'
p175
I1
sS'understand'
p176
I1
sS'automotive'
p177
I1
sS'known'
p178
I1
sS'believe'
p179
I1
sS'ee computer science'
p180
I1
sS'ml'
p181
I1
sS'customer'
p182
I6
sS'look'
p183
I1
sS'solid'
p184
I1
sS'machine learning'
p185
I2
sS'work'
p186
I1
sS'channels.'
p187
I1
sS'preparation'
p188
I1
sS'iot.'
p189
I1
sS'growth'
p190
I1
sS'learn'
p191
I1
sS'product management'
p192
I1
sS'problem'
p193
I2
sS'equivalent.'
p194
I1
sS'constant'
p195
I1
sS'challenging'
p196
I1
sVstatistic
p197
I1
sS'sale'
p198
I1
sS'engineering'
p199
I1
sS'good'
p200
I1
sS'something'
p201
I1
sS'technology'
p202
I1
sS'management.'
p203
I1
sS'rnn'
p204
I1
sS'1/30'
p205
I1
sS'regularization'
p206
I1
sS'data.'
p207
I1
sS'do.'
p208
I1
sS'seek'
p209
I1
sS'travel'
p210
I1
sS'recurrent'
p211
I2
sS'feature'
p212
I1
sS'learning/neural'
p213
I1
sS'datarpm'
p214
I5
sS'field'
p215
I1
sS'complex'
p216
I1
sS'interact'
p217
I1
sS'computer science'
p218
I2
sS'online'
p219
I1
sVresponsibility
p220
I1
sS'strong'
p221
I1
sS'optimization'
p222
I1
sS'accuracy'
p223
I1
sS'map'
p224
I1
sS'oil'
p225
I1
sS'building'
p226
I1
sS'technologies.'
p227
I1
sS'customize'
p228
I1
sS'gru'
p229
I1
sS'cater'
p230
I1
sS'hyper-parameter'
p231
I1
sS'data'
p232
I7
sS'normalization'
p233
I1
sVnetwork
p234
I4
sS'evangelist'
p235
I1
sS'short'
p236
I1
sS'faster'
p237
I1
sS'manufacturing'
p238
I1
sS'scala'
p239
I1
sS'drive'
p240
I1
sS'daily'
p241
I1
sS'thought'
p242
I1
sS'directly'
p243
I1
sS'u'
I1
sS'principle'
p244
I1
sS'time'
p245
I1
sS'coordinate'
p246
I1
sS'model'
p247
I2
sS'looking'
p248
I1
s.