(dp1
S'limited'
p2
I1
sS'concept'
p3
I1
sS'global'
p4
I1
sS'dynamic'
p5
I1
sS'query'
p6
I2
sS'curating'
p7
I1
sS'producing'
p8
I1
sS'disability'
p9
I1
sS'environment'
p10
I2
sS'program'
p11
I1
sS'include'
p12
I1
sS'presentation'
p13
I1
sS'assay'
p14
I1
sS'hypotheses.'
p15
I1
sS'interpreting'
p16
I1
sS'condition'
p17
I1
sS'timely'
p18
I1
sS'gender'
p19
I2
sS'applicable'
p20
I1
sS'race'
p21
I1
sS'team'
p22
I3
sS'enhance'
p23
I1
sS'discover'
p24
I1
sS'time management'
p25
I1
sS'current'
p26
I1
sS'experiment'
p27
I2
sS'relational'
p28
I1
sS'health.'
p29
I1
sS'degree'
p30
I2
sS'eligibility'
p31
I1
sS'empower'
p32
I1
sS'understanding'
p33
I1
sS'growing'
p34
I1
sVbachelor
p35
I1
sS'operating'
p36
I1
sS'along'
p37
I1
sS'strong'
p38
I2
sS'change'
p39
I1
sS'study'
p40
I5
sS'biostatisticians'
p41
I2
sS'provider'
p42
I1
sS'experience'
p43
I9
sS'trial'
p44
I1
sS'action'
p45
I1
sS'implement'
p46
I1
sS'love'
p47
I1
sS'lims'
p48
I1
sS'collaborating'
p49
I1
sS'translational'
p50
I3
sS'apply'
p51
I1
sS'working'
p52
I5
sS'li-mg2'
p53
I1
sS'perl'
p54
I1
sS'live'
p55
I1
sS'automate'
p56
I1
sS'type'
p57
I1
sS'authorization'
p58
I1
sS'company'
p59
I2
sS'data processing'
p60
I1
sS'excellent'
p61
I3
sS'effort'
p62
I1
sS'project management'
p63
I2
sS'must'
p64
I5
sS'ensure data integrity'
p65
I1
sS'science'
p66
I2
sS'work'
p67
I4
sS'following'
p68
I1
sS'control'
p69
I1
sS'process'
p70
I5
sS'high'
p71
I1
sS'spanning'
p72
I1
sS'methodology'
p73
I1
sS'biopharmaceutical'
p74
I1
sS'eg.'
p75
I1
sS'description'
p76
I1
sS'may'
p77
I1
sS'collection'
p78
I2
sS'law'
p79
I1
sS'data'
p80
I20
sS'response'
p81
I1
sS'outline'
p82
I1
sS'applicant'
p83
I2
sS'inform'
p84
I1
sVresponsibility
p85
I1
sS'act.'
p86
I1
sS'prioritizing'
p87
I1
sS'development.'
p88
I1
sS'help'
p89
I3
sS'course'
p90
I1
sS'scientist'
p91
I4
sS'including'
p92
I2
sS'committed'
p93
I1
sS'multi-dimensional'
p94
I1
sS'monitor'
p95
I1
sS'r programming'
p96
I1
sS'better'
p97
I1
sVwindow
p98
I1
sS'results-oriented'
p99
I1
sS'biomedical'
p100
I1
sS'listing'
p101
I1
sS'seeking'
p102
I1
sS'python'
p103
I1
sS'therapy'
p104
I1
sS'compound'
p105
I1
sS'term'
p106
I1
sS'capability'
p107
I1
sS'related'
p108
I1
sS'laboratory'
p109
I4
sS'programmer'
p110
I1
sS'sexual'
p111
I1
sS'container'
p112
I1
sS'research'
p113
I4
sS'issue'
p114
I2
sS'independence'
p115
I1
sS'workflow'
p116
I1
sS'u.s.'
p117
I1
sS'challenge.'
p118
I1
sS'governing'
p119
I1
sS'data quality'
p120
I1
sS'biological'
p121
I1
sS'generate'
p122
I1
sS'advance'
p123
I1
sS'language'
p124
I1
sS'curation'
p125
I3
sS'programming'
p126
I1
sVqualification
p127
I1
sS'bio-us'
p128
I1
sS'omic'
p129
I1
sS'purpose'
p130
I1
sS'origin'
p131
I1
sS'r/ed'
p132
I6
sS'celgene'
p133
I5
sS'given'
p134
I1
sS'management'
p135
I4
sS'leading'
p136
I1
sS'system'
p137
I4
sS'least'
p138
I3
sS'grow'
p139
I1
sS'priority'
p140
I1
sS'needed'
p141
I2
sVmaster
p142
I1
sS'tool'
p143
I1
sS'acquire'
p144
I1
sS'scientists.'
p145
I1
sS'wide'
p146
I1
sS'translate'
p147
I1
sS'project'
p148
I1
sS'dynamically'
p149
I1
sS'seek'
p150
I1
sS'veteran'
p151
I1
sS'-'
I2
sS'mechanism'
p152
I1
sS'internal'
p153
I1
sS'objective'
p154
I1
sS'multiple'
p155
I1
sS'deploy'
p156
I1
sS'collaboration'
p157
I1
sS'aws'
p158
I1
sS'plan'
p159
I1
sS'70'
p160
I1
sS'hands-on'
p161
I1
sS'software engineering'
p162
I2
sS'medical'
p163
I2
sS'flow'
p164
I1
sS'selection'
p165
I1
sS'show'
p166
I1
sS'participate'
p167
I1
sS'high-level'
p168
I1
sS'feedback'
p169
I1
sS'knowledge'
p170
I5
sS'implementation'
p171
I2
sS'writer'
p172
I1
sS'distributed'
p173
I1
sS'state'
p174
I1
sS'operational'
p175
I1
sS'assay development'
p176
I1
sS'employee'
p177
I1
sS'employed'
p178
I1
sS'local'
p179
I1
sS'rest'
p180
I1
sS'culture.'
p181
I1
sS'target'
p182
I2
sS'resolve'
p183
I1
sS'drug development'
p184
I1
sS'multi-platform'
p185
I1
sS'quality control'
p186
I1
sS'activity'
p187
I1
sS'analytical'
p188
I2
sS'requirement'
p189
I2
sS'set'
p190
I2
sS'national'
p191
I2
sS'sex'
p192
I1
sS'computer'
p193
I1
sS'result'
p194
I1
sS'close'
p195
I1
sS'computational biolog'
p196
I1
sS'capacity'
p197
I1
sS'managing'
p198
I1
sS'review'
p199
I1
sS'information management'
p200
I2
sS'preferred.'
p201
I1
sS'written'
p202
I1
sS'future'
p203
I1
sS'approach'
p204
I1
sS'thrive'
p205
I1
sS'discovery'
p206
I1
sS'available'
p207
I1
sS'ability'
p208
I4
sS'database design'
p209
I1
sS'deliver'
p210
I1
sS'job'
p211
I1
sS'hypothesis'
p212
I1
sS'interface'
p213
I2
sS'nationality'
p214
I1
sS'adapting'
p215
I1
sS'talented'
p216
I2
sS'country'
p217
I1
sS'equal'
p218
I1
sS'drug'
p219
I1
sS'etc'
p220
I1
sS'14 year'
p221
I1
sS'expression'
p222
I1
sS'data integration'
p223
I1
sS'relevant'
p224
I1
sS'color'
p225
I1
sS'complies'
p226
I1
sS'dimensional'
p227
I1
sS's-plus'
p228
I1
sS'initiative'
p229
I1
sS'linux'
p230
I1
sS'java'
p231
I1
sS'creativity'
p232
I1
sS'strategy'
p233
I2
sS'basic'
p234
I1
sS'collaborator'
p235
I1
sS'define'
p236
I1
sS'enable'
p237
I1
sS'molecular biology'
p238
I2
sS'spotfire'
p239
I1
sS'understand'
p240
I1
sS'systematic'
p241
I1
sS'spirit'
p242
I1
sS'look'
p243
I1
sS'value'
p244
I1
sS'queuing'
p245
I1
sS'procedure'
p246
I2
sS'orientation'
p247
I1
sS'metric'
p248
I1
sS'characterize'
p249
I1
sS'contract'
p250
I1
sS'partner'
p251
I1
sS'capture'
p252
I1
sS'develop'
p253
I4
sS'make'
p254
I1
sS'complex'
p255
I2
sS'development'
p256
I1
sS'independent'
p257
I1
sS'comprehensive'
p258
I1
sS'phd'
p259
I1
sS'proficiency'
p260
I3
sS'perform/direct/assess'
p261
I1
sS'user'
p262
I1
sS'changing'
p263
I1
sS'php'
p264
I1
sS'opportunity'
p265
I1
sS'identity'
p266
I1
sS'tracking'
p267
I2
sS'database'
p268
I1
sS'prioritize'
p269
I1
sS'well'
p270
I1
sS'without'
p271
I1
sS'accurate'
p272
I1
sS'computing.'
p273
I1
sS'underlying'
p274
I1
sS'identify'
p275
I1
sS'human'
p276
I1
sS'mysql'
p277
I1
sS'biologist'
p278
I2
sS'skill'
p279
I3
sS'lives.'
p280
I1
sS'coordination'
p281
I1
sS'discipline'
p282
I2
sS'visualization'
p283
I1
sS'unique'
p284
I1
sS'candidate'
p285
I1
sS'thinking'
p286
I1
sS'agile'
p287
I1
sS'pre-clinical'
p288
I1
sS'r d'
p289
I1
sS'source'
p290
I1
sS'extensive'
p291
I2
sS'around'
p292
I1
sS'specimen'
p293
I1
sS'12 year'
p294
I1
sS'early'
p295
I1
sS'quest'
p296
I1
sS'preference'
p297
I1
sS'moa'
p298
I1
sS'interpretability'
p299
I1
sS'manual'
p300
I1
sS'indication'
p301
I1
sS'nondiscrimination'
p302
I1
sS'verbal'
p303
I1
sS'people'
p304
I1
sS'lamp/'
p305
I1
sS'data management'
p306
I1
sS'employment'
p307
I3
sS'raw/interim'
p308
I1
sS'integration'
p309
I1
sS'religion'
p310
I1
sS'passion'
p311
I1
sS'innovation'
p312
I2
sS'demonstrated'
p313
I3
sS'patient'
p314
I4
sS'scientific'
p315
I2
sS'business'
p316
I2
sS'processing'
p317
I2
sS'informatics'
p318
I1
sS'r/shiny'
p319
I1
sS'practical'
p320
I1
sS'range'
p321
I1
sS'ensure'
p322
I1
sS'status.'
p323
I1
sS'computational'
p324
I4
sS'presence'
p325
I1
sS'communication'
p326
I1
sS'.'
I1
sS'span'
p327
I1
sS'additional'
p328
I1
sS'support'
p329
I3
sS'question'
p330
I1
sS'clinical'
p331
I4
sS'summary/scope'
p332
I1
sS'way'
p333
I1
sS'highly-connected'
p334
I1
sS'complete'
p335
I1
sS'apis'
p336
I1
sS'regard'
p337
I1
sS'immigration'
p338
I1
sS'delivery'
p339
I2
sS'datasets'
p340
I1
sS'applying'
p341
I1
sS'verification'
p342
I1
sS'grasp'
p343
I1
sS'etc.'
p344
I1
sS'cloud computing'
p345
I1
sS'strongly'
p346
I1
sS'request'
p347
I1
sS'contribute'
p348
I2
sS'proven'
p349
I1
sS'6 year'
p350
I1
sS'diverse'
p351
I1
sS'organizational'
p352
I1
sS'education'
p353
I1
sS'check'
p354
I1
sS'personnel'
p355
I3
sS'setting'
p356
I1
sS'role'
p357
I1
sS'department'
p358
I1
sS'c/c++'
p359
I1
sS'structure'
p360
I1
sS'individual'
p361
I2
sS'longer'
p362
I1
sS'age'
p363
I1
sS'required'
p364
I2
sS'ingestion'
p365
I1
s.