(dp1
S'concept'
p2
I1
sS'global'
p3
I2
sS'technical leadership'
p4
I1
sS'technique'
p5
I1
sS'disability'
p6
I1
sS'environment'
p7
I2
sS'matlab'
p8
I1
sS'collaborate'
p9
I1
sS'talk.'
p10
I1
sS'markets.'
p11
I1
sS'difference'
p12
I1
sS'condition'
p13
I1
sS'fast-paced'
p14
I1
sS'gender'
p15
I1
sS'list'
p16
I1
sS'mapreduce'
p17
I1
sS'hive'
p18
I1
sS'large'
p19
I1
sS'race'
p20
I1
sS'team'
p21
I4
sS'concise'
p22
I1
sS'design'
p23
I2
sS'possibilities.'
p24
I1
sS'established'
p25
I2
sS'power'
p26
I2
sS'deeply'
p27
I1
sS'computer science statistics'
p28
I1
sS'current'
p29
I1
sS'relational'
p30
I1
sS'degree'
p31
I1
sS'delivering'
p32
I1
sS'smartest'
p33
I1
sS'strong'
p34
I1
sS'change'
p35
I1
sS'software development'
p36
I1
sS'brilliant'
p37
I1
sS'experience'
p38
I11
sS'military'
p39
I1
sS'implement'
p40
I1
sS'inspires'
p41
I1
sS'regardless'
p42
I1
sS'collaborating'
p43
I1
sS'analyzing'
p44
I1
sS'working'
p45
I2
sS"world's"
p46
I1
sS'data management'
p47
I1
sS'jmp'
p48
I1
sS'excellent'
p49
I1
sS'ibm'
p50
I1
sS'work'
p51
I5
sS'machine learning'
p52
I2
sS'following'
p53
I1
sS'making'
p54
I1
sS'data-drive'
p55
I1
sS'process'
p56
I1
sS'involve'
p57
I1
sS'minimum'
p58
I6
sS'want'
p59
I1
sS's3'
p60
I1
sS'tableau'
p61
I1
sS'1'
I1
sS"illumina's"
p62
I1
sS'may'
p63
I2
sS'fueled'
p64
I1
sS'computational mathematics'
p65
I2
sS'data'
p66
I7
sS'genome.'
p67
I1
sS'provide'
p68
I2
sVresponsibility
p69
I1
sVsa
p70
I1
sS"that's"
p71
I1
sS'oncology'
p72
I1
sS'r d'
p73
I1
sS'mission'
p74
I1
sS'hiring'
p75
I1
sS'scientist'
p76
I3
sS'including'
p77
I3
sS'statistical'
p78
I3
sS'committed'
p79
I1
sS'concepts.'
p80
I1
sS'developer'
p81
I1
sS'machine'
p82
I2
sS'revenue'
p83
I2
sS'r programming'
p84
I1
sS'production'
p85
I1
sS'python'
p86
I1
sS'7 year'
p87
I1
sS'troubleshoot'
p88
I1
sS"isn't"
p89
I1
sS'development'
p90
I1
sS'everyone'
p91
I1
sS'mental'
p92
I1
sS'related'
p93
I1
sS'marital'
p94
I1
sS'programmer'
p95
I1
sS'agriculture'
p96
I1
sS'network'
p97
I1
sS'driving'
p98
I1
sS'health'
p99
I2
sS'evaluation'
p100
I1
sS'belief'
p101
I1
sS'million'
p102
I1
sS'data scientist'
p103
I1
sS'ancestry'
p104
I1
sS'growth.'
p105
I1
sS'imagine'
p106
I1
sS'array-based'
p107
I1
sS'keep'
p108
I1
sS'place'
p109
I1
sVqualification
p110
I4
sS'origin'
p111
I1
sS'structures.'
p112
I1
sS'one'
p113
I1
sS'engineer'
p114
I1
sS'service'
p115
I1
sS'leading'
p116
I1
sS'top'
p117
I1
sS'system'
p118
I4
sS'approximately'
p119
I1
sS'tool'
p120
I2
sS'part'
p121
I2
sS'information.'
p122
I1
sS'finance.'
p123
I1
sS'10'
p124
I1
sS'grew'
p125
I1
sS'analytics'
p126
I2
sS'anticipate'
p127
I1
sS'neural'
p128
I1
sS'powerbi'
p129
I1
sS'providing'
p130
I2
sS'proactive'
p131
I1
sS'non-technical'
p132
I1
sS'service.'
p133
I1
sS'experience.'
p134
I1
sS'need'
p135
I1
sS'sap'
p136
I1
sS'built'
p137
I1
sS'veteran'
p138
I1
sS'responsible'
p139
I1
sS'sfdc'
p140
I1
sS'also'
p141
I1
sS'internal'
p142
I1
sS'dna sequencing'
p143
I1
sS'mit'
p144
I1
sS'multiple'
p145
I1
sS'track'
p146
I1
sS'collaboration'
p147
I1
sS'aws'
p148
I1
sS'position'
p149
I3
sS'extremely'
p150
I1
sS'medical'
p151
I1
sS'proud'
p152
I1
sVsale
p153
I1
sS'planning'
p154
I1
sS'impact'
p155
I1
sS'illumina'
p156
I3
sS'written'
p157
I2
sS'employer'
p158
I1
sS'preferred'
p159
I2
sS'regarding'
p160
I1
sS'c++'
p161
I1
sS'summary'
p162
I1
sS'interpersonal'
p163
I1
sS'analytical'
p164
I1
sS'predictive'
p165
I2
sVrequirement
p166
I1
sS'national'
p167
I1
sS'sex'
p168
I1
sS'culture'
p169
I1
sS'infrastructure'
p170
I1
sS'2.2'
p171
I1
sS'best'
p172
I1
sS'creating'
p173
I2
sS'projects.'
p174
I1
sS"master's"
p175
I3
sS'outside'
p176
I1
sS'thrive'
p177
I1
sS'discovery'
p178
I1
sS'2 year'
p179
I1
sS'ability'
p180
I3
sS'web'
p181
I1
sS'ph.d.'
p182
I3
sS'stakeholder'
p183
I1
sS'data structures'
p184
I1
sS'statistical method'
p185
I1
sS'ranked'
p186
I1
sS'cognos'
p187
I1
sS'spark'
p188
I1
sS'improve'
p189
I3
sS'c'
I1
sS'similar'
p190
I2
sS'equal'
p191
I1
sS'relevant'
p192
I1
sS'color'
p193
I1
sS'data science'
p194
I2
sS'periscope'
p195
I1
sS'learning'
p196
I2
sS'data mining'
p197
I3
sS'pregnancy'
p198
I1
sS'openness'
p199
I1
sS'java'
p200
I1
sS'.'
I1
sS'genetic'
p201
I1
sS'field'
p202
I1
sS'life'
p203
I2
sS'enable'
p204
I1
sS'decision trees'
p205
I1
sS'developing'
p206
I1
sS'technical'
p207
I2
sS'near'
p208
I1
sS'orientation'
p209
I1
sS'trees.'
p210
I1
sS'partner'
p211
I1
sS'mission-driven'
p212
I1
sS'technology'
p213
I1
sS'regression'
p214
I1
sS'2015.'
p215
I1
sS'develop'
p216
I3
sS'perhaps'
p217
I1
sS'appropriate.'
p218
I1
sS'make'
p219
I2
sS'hadoop'
p220
I1
sS'complex'
p221
I4
sS'reliability engineering'
p222
I1
sS'document'
p223
I1
sS'status'
p224
I4
sS'large data set'
p225
I1
sS'audience.'
p226
I1
sS"api's."
p227
I1
sS'running'
p228
I1
sS'opportunity'
p229
I2
sS'scenario'
p230
I1
sS'database'
p231
I1
sS'analysis'
p232
I1
sS'english'
p233
I1
sS'organization'
p234
I1
sS'model'
p235
I4
sS'domestic'
p236
I1
sS'human'
p237
I1
sS'skill'
p238
I2
sS'lives.'
p239
I1
sS'discipline'
p240
I1
sS'visualization'
p241
I2
sS'candidate'
p242
I4
sS'application'
p243
I1
sS"we've"
p244
I2
sS'advancement'
p245
I2
sS'simple'
p246
I1
sS'input'
p247
I1
sS'build'
p248
I1
sS'know'
p249
I1
sS'deployment'
p250
I1
sS'using'
p251
I1
sS'advanced'
p252
I1
sS'like'
p253
I1
sS'passionate'
p254
I1
sS'verbal'
p255
I1
sS'people'
p256
I1
sS'creed'
p257
I1
sS'growth'
p258
I1
sVstatistic
p259
I1
sS'technical/statistical'
p260
I1
sS'employment'
p261
I1
sS'and/or'
p262
I2
sS'processing.'
p263
I1
sS'phenomenal'
p264
I1
sS'decision'
p265
I1
sS'religion'
p266
I1
sS'connecting'
p267
I2
sS'inject'
p268
I1
sS'innovation'
p269
I1
sS'leader'
p270
I1
sS'product development'
p271
I1
sS'business'
p272
I2
sS'marketing'
p273
I1
sS'communicate'
p274
I1
sS'industry'
p275
I2
sS'simulation'
p276
I1
sS'software'
p277
I2
sS'redshift'
p278
I1
sS'communication'
p279
I2
sS'mba'
p280
I1
sS'clustering'
p281
I1
sS'support'
p282
I1
sS"we're"
p283
I1
sS'analyze'
p284
I1
sS'improvements.'
p285
I1
sS'function'
p286
I1
sS'4 year'
p287
I4
sS'analyst'
p288
I1
sS'applying'
p289
I1
sS'reproductive'
p290
I1
sS'proactively'
p291
I1
sS'record'
p292
I1
sS'etc.'
p293
I1
sS'citizenship'
p294
I1
sS'engineering'
p295
I2
sS'education'
p296
I1
sS'physical'
p297
I1
sS'technologies.'
p298
I1
sS'sexual'
p299
I1
sS'brightest.'
p300
I1
sS'three year'
p301
I1
sS'setting'
p302
I1
sS'computer science'
p303
I2
sS'test'
p304
I1
sS'company'
p305
I2
sS'collaborative'
p306
I1
sS"let's"
p307
I1
sS'sql'
p308
I1
sS'2014.'
p309
I1
sS'unlocking'
p310
I1
sS'billion'
p311
I1
sS'emerging markets'
p312
I1
sS'algorithm'
p313
I2
sS'age'
p314
I1
sS'2002'
p315
I1
sVu
I1
sS'presenting'
p316
I1
sS'oral'
p317
I1
s.