(dp1
S'skills'
p2
(lp3
S'owl'
p4
aS'r d'
p5
aS'ip'
p6
aS'communication'
p7
aS'sales'
p8
aS'ant'
p9
aS'analytics'
p10
aS'problem solving'
p11
aS'linux'
p12
aS'sas'
p13
aS'ic'
p14
aS'java'
p15
aS'big data'
p16
aS'valuation'
p17
aS'predictive modeling'
p18
aS'asic'
p19
aS'envi'
p20
aS'big data analytics'
p21
aS'lua'
p22
aS'ssis'
p23
aS'optimization'
p24
aS'computer science'
p25
aS'visio'
p26
aS'pl'
p27
aS'teradata'
p28
aS'data modeling'
p29
aS'marketing'
p30
aS'innovation'
p31
aS'data scientist'
p32
aS'c'
aS'sql'
p33
aS'modeling'
p34
aS'data'
p35
aS'a'
aS'hardware'
p36
aS'training'
p37
aS'erp'
p38
aS'vis'
p39
aS'science'
p40
aS'programming'
p41
aS'mapreduce'
p42
aS'analysis'
p43
aS'machine learning'
p44
aS'data center'
p45
aS'r'
aS'data analytics'
p46
aS'databases'
p47
aS'organization'
p48
aS'scripting'
p49
asS'working-year'
p50
(lp51
S'5+ year'
p52
aS'3+ year'
p53
asS'major'
p54
(lp55
S'big data'
p56
aS'ee'
p57
aS'marketing'
p58
aS'communication'
p59
aS'machine learning'
p60
aS'big data analytics'
p61
aS'analytics'
p62
aS'design'
p63
aS'computer science'
p64
aS'science'
p65
aS'data analytics'
p66
asS'education'
p67
(lp68
VBachelor
p69
aVMaster
p70
asS'responsibility'
p71
(lp72
S'predict'
p73
aS'presentation'
p74
aS'analysis'
p75
aS'analytic'
p76
aS'optimization'
p77
aS'design'
p78
aS'modeling'
p79
aS'model'
p80
aS'prototype'
p81
aS'evaluation'
p82
as.