(dp1
S'skills'
p2
(lp3
S'r d'
p4
aS'classification'
p5
aS'ip'
p6
aS'data science'
p7
aS'feature extraction'
p8
aS'analytics'
p9
aS'engineering'
p10
aS'personalization'
p11
aS'go'
p12
aS'ic'
p13
aS'c'
aS'rf'
p14
aS'research'
p15
aS'opencv'
p16
aS'computer vision'
p17
aS'computer science'
p18
aS'visio'
p19
aS'tensorflow'
p20
aS'pl'
p21
aS'testing'
p22
aS'product development'
p23
aS'data scientist'
p24
aS'search'
p25
aS'theano'
p26
aS'data'
p27
aS'a'
aS'training'
p28
aS'b testing'
p29
aS'pattern recognition'
p30
aS'vis'
p31
aS'cognition'
p32
aS'scikit-learn'
p33
aS'machine learning'
p34
aS'r'
aS'science'
p35
aS'electrical engineering'
p36
aS'cro'
p37
aS'cad'
p38
asS'working-year'
p39
(lp40
S'5 year'
p41
aS'2-5 year'
p42
asS'major'
p43
(lp44
S'ee'
p45
aS'science'
p46
aS'data science'
p47
aS'data science analytics'
p48
aS'machine learning'
p49
aS'analytics'
p50
aS'engineering'
p51
aS'electrical'
p52
aS'computer science'
p53
aS'electrical engineering'
p54
asS'education'
p55
(lp56
VBachelor
p57
aVMaster
p58
aVDoctor
p59
asS'responsibility'
p60
(lp61
S'development'
p62
aS'product'
p63
aS'build solution'
p64
aS'pattern'
p65
aS'analytic'
p66
aS'understand'
p67
aS'report'
p68
aS'prototype'
p69
aS'extract'
p70
as.