(dp1
S'skills'
p2
(lp3
S'r d'
p4
aS'ip'
p5
aS'data science'
p6
aS'sales'
p7
aS'ant'
p8
aS'vis'
p9
aS'engineering'
p10
aS'go'
p11
aS'ic'
p12
aS'statistics'
p13
aS'gis'
p14
aS'scala'
p15
aS'agile'
p16
aS'writing'
p17
aS'computer science'
p18
aS'mathematics'
p19
aS'pl'
p20
aS'scrum'
p21
aS'data scientist'
p22
aS'leadership'
p23
aS'data'
p24
aS'a'
aS'c'
aS'solver'
p25
aS'science'
p26
aS'thought leadership'
p27
aS'machine learning'
p28
aS'idl'
p29
aS'r'
aS'root'
p30
asS'working-year'
p31
(lp32
S'0 year'
p33
asS'major'
p34
(lp35
S'statistics'
p36
aS'business'
p37
aS'ee'
p38
aS'science'
p39
aS'data science'
p40
aS'statistic'
p41
aS'machine learning'
p42
aS'statistics computer science'
p43
aS'engineering'
p44
aS'design'
p45
aS'computer science'
p46
aS'machine learning statistics'
p47
aS'mathematics'
p48
aS'phd'
p49
aS'data science engineering'
p50
asS'education'
p51
(lp52
VBachelor
p53
aVMaster
p54
aVDoctor
p55
asS'responsibility'
p56
(lp57
S'development'
p58
aS'product'
p59
aS'business problem'
p60
aS'communicate'
p61
aS'improvement'
p62
aS'analytic'
p63
aS'design'
p64
aS'report'
p65
aS'understand'
p66
as.