(dp1
S'uhana'
p2
I1
sS'palo'
p3
I1
sS'domain'
p4
I1
sS'www.uhana.io/careers'
p5
I1
sS'frequency'
p6
I1
sS'radio'
p7
I1
sS'go'
p8
I1
sS'apply'
p9
I1
sS'technology'
p10
I1
sS'0 year'
p11
I2
sS'information'
p12
I1
sS'develop'
p13
I1
sS'please'
p14
I1
sS'ca.'
p15
I1
sS'core'
p16
I1
sS'data scientist'
p17
I1
sS'platform.'
p18
I1
sS'scalable'
p19
I1
sS'job'
p20
I1
sS'report'
p21
I1
sS'robust'
p22
I1
sS'alto'
p23
I1
sS'pipeline'
p24
I1
sS'mobile'
p25
I1
sS'machine learning'
p26
I2
sS'position'
p27
I1
sS'inc.'
p28
I1
sS'predictive analytics'
p29
I2
s.