(dp1
S'skills'
p2
(lp3
S'owl'
p4
aS'programming'
p5
aS'ant'
p6
aS'analytics'
p7
aS'engineering'
p8
aS'data mining'
p9
aS'go'
p10
aS'ic'
p11
aVpanda
p12
aS'statistics'
p13
aS'networking'
p14
aS'big data'
p15
aS'anomaly detection'
p16
aS'deep learning'
p17
aS'hadoop'
p18
aS'perl'
p19
aS'matlab'
p20
aS'communication'
p21
aS'pandas'
p22
aS'pl'
p23
aS'computer science'
p24
aS'ip'
p25
aS'asp'
p26
aS'python'
p27
aS'data scientist'
p28
aS'oop'
p29
aS'spark'
p30
aS'data'
p31
aS'a'
aS'c'
aS'science'
p32
aS'scikit-learn'
p33
aS'hive'
p34
aS'machine learning'
p35
aS'r'
aS'electrical engineering'
p36
aS'predictive analytics'
p37
aS'scripting'
p38
aS'cad'
p39
asS'working-year'
p40
(lp41
S'0 year'
p42
asS'major'
p43
(lp44
S'statistics'
p45
aS'telecommunication'
p46
aS'big data'
p47
aS'ee'
p48
aS'science'
p49
aS'machine learning statistics'
p50
aS'statistic'
p51
aS'machine learning'
p52
aS'analytics'
p53
aS'engineering'
p54
aS'electrical'
p55
aS'computer science'
p56
aS'phd'
p57
aS'data mining'
p58
aS'communication'
p59
aS'electrical engineering'
p60
aS'predictive analytics'
p61
aS'data mining machine learning'
p62
asS'education'
p63
(lp64
VBachelor
p65
aVMaster
p66
aVDoctor
p67
asS'responsibility'
p68
(lp69
S'predict'
p70
aS'analytic'
p71
aS'model'
p72
aVinsight
p73
aS'data mining'
p74
as.