(dp1
S'skills'
p2
(lp3
S'r d'
p4
aS'ip'
p5
aS'communication'
p6
aS'information retrieval'
p7
aS'ant'
p8
aS'vis'
p9
aS'engineering'
p10
aS'data analysis'
p11
aS'analysis'
p12
aS'data mining'
p13
aS'go'
p14
aS'ic'
p15
aS'research'
p16
aS'statistics'
p17
aS'java'
p18
aS'ruby'
p19
aS'asic'
p20
aS'excel'
p21
aS'perl'
p22
aS'cell'
p23
aS'lua'
p24
aS'rf'
p25
aS'optimization'
p26
aS'computer science'
p27
aS'natural language processing'
p28
aS'mathematics'
p29
aS'operations research'
p30
aS'root cause analysis'
p31
aS'a'
aS'processing'
p32
aS'python'
p33
aS'c'
aS'data scientist'
p34
aS'search'
p35
aS'hive'
p36
aS'leadership'
p37
aS'mentoring'
p38
aS'oop'
p39
aS'octave'
p40
aS'sql'
p41
aS'modeling'
p42
aS'spark'
p43
aS'data'
p44
aS'arena'
p45
aS'training'
p46
aS'science'
p47
aS'applied mathematics'
p48
aS'economics'
p49
aS'c++'
p50
aS'machine learning'
p51
aS'r'
aS'advertising'
p52
aS'hadoop'
p53
aS'root'
p54
aS'pl'
p55
aS'envi'
p56
asS'working-year'
p57
(lp58
S'3 year'
p59
asS'major'
p60
(lp61
S'ee'
p62
aS'communication'
p63
aS'statistic'
p64
aS'information retrieval'
p65
aS'engineering'
p66
aS'design'
p67
aS'data mining'
p68
aS'computer science economics'
p69
aS'information'
p70
aS'statistics'
p71
aS'computer science'
p72
aS'natural language processing'
p73
aS'mathematics'
p74
aS'operations research'
p75
aS'business'
p76
aS'phd'
p77
aS'science'
p78
aS'applied mathematics'
p79
aS'economics'
p80
aS'machine learning'
p81
aS'statistics applied mathematics'
p82
aS'applied math'
p83
asS'education'
p84
(lp85
VBachelor
p86
aVMaster
p87
aVDoctor
p88
asS'responsibility'
p89
(lp90
S'data mining'
p91
aS'development'
p92
aS'product'
p93
aVinsight
p94
aS'business problem'
p95
aS'information'
p96
aS'pattern'
p97
aS'processing'
p98
aS'communicate'
p99
aS'modeling'
p100
aS'analysis'
p101
aS'model'
p102
aS'analytic'
p103
aS'data analysis'
p104
aS'design'
p105
aS'solve problem'
p106
aS'recommendation'
p107
aS'understand'
p108
aS'implement'
p109
aS'optimization'
p110
as.