(dp1
S'skills'
p2
(lp3
S'ip'
p4
aS'testing'
p5
aS'rest'
p6
aS'ant'
p7
aS'search'
p8
aS'go'
p9
aS'accounting'
p10
aS'ic'
p11
aS'management'
p12
aS'open source'
p13
aS'scala'
p14
aS'research'
p15
aS'risk management'
p16
aS'envi'
p17
aS'communication'
p18
aS'pl'
p19
aS'finance'
p20
aS'collaboration'
p21
aS'data scientist'
p22
aS'c'
aS'sql'
p23
aS'data'
p24
aS'a'
aS'training'
p25
aS'erp'
p26
aS'securities'
p27
aS'idl'
p28
aS'r'
aS'cro'
p29
asS'working-year'
p30
(lp31
S'0 year'
p32
asS'major'
p33
(lp34
S'management'
p35
aS'finance'
p36
aS'business'
p37
aS'ee'
p38
aS'communication'
p39
aS'statistic'
p40
aS'accounting'
p41
aS'law'
p42
aVphysic
p43
asS'education'
p44
(lp45
VBachelor
p46
aVMaster
p47
asS'responsibility'
p48
(lp49
S'report'
p50
aS'implement'
p51
aS'understand'
p52
aS'product'
p53
as.