(dp1
S'roi'
p2
I2
sS'externally'
p3
I1
sS'global'
p4
I2
sVmanager
p5
I2
sS'candidates.'
p6
I1
sS'technique'
p7
I1
sS'environment'
p8
I1
sS'quarterly'
p9
I1
sS'data-driven'
p10
I1
sS'every'
p11
I1
sS"roi's"
p12
I1
sS'today.'
p13
I1
sS'internally'
p14
I2
sVstrategist
p15
I1
sS'solution'
p16
I2
sS'large'
p17
I1
sS'excellence'
p18
I1
sS'team'
p19
I4
sS'lever'
p20
I1
sS'attracting'
p21
I1
sS'direct'
p22
I1
sS'dev'
p23
I1
sS'feedback'
p24
I1
sS'designing'
p25
I1
sS'new'
p26
I5
sS'specialist'
p27
I1
sS'commercial'
p28
I1
sS'understanding'
p29
I2
sS'focused'
p30
I1
sS'strong'
p31
I1
sS'publisher'
p32
I1
sS'technical'
p33
I1
sS'experience'
p34
I4
sS'prior'
p35
I2
sS'advertising'
p36
I2
sS'1-3 year'
p37
I1
sS'uniquely'
p38
I1
sS'fantastic'
p39
I1
sS'campaign'
p40
I5
sS'app'
p41
I2
sS'manage'
p42
I1
sS'highly'
p43
I1
sS'mobile advertising'
p44
I1
sS'market'
p45
I4
sS'use'
p46
I3
sS'adtech'
p47
I1
sS'excellent'
p48
I1
sS'scale.'
p49
I1
sS'market.'
p50
I1
sS'account'
p51
I5
sS'salesforce'
p52
I1
sS'join'
p53
I1
sS'challenge'
p54
I1
sS'work'
p55
I5
sS'up-selling'
p56
I1
sS'wallet'
p57
I1
sS'growing'
p58
I2
sS'share'
p59
I2
sS'refine'
p60
I1
sS'sharp'
p61
I1
sS'autonomy'
p62
I1
sS'end'
p63
I2
sS'provide'
p64
I2
sS'comfort'
p65
I1
sS'feature'
p66
I1
sS'1'
I2
sS'product'
p67
I6
sS'communicating'
p68
I2
sS"client's"
p69
I1
sS'data'
p70
I1
sS'lifecycle'
p71
I1
sS'clsosely'
p72
I1
sS'effective'
p73
I1
sVsa
p74
I1
sS"that's"
p75
I1
sS'serving'
p76
I1
sS'help'
p77
I1
sS'office'
p78
I1
sS'insight'
p79
I4
sS'interpersonal'
p80
I1
sS'innovative'
p81
I1
sS'developer'
p82
I3
sS'style'
p83
I1
sS'winning'
p84
I1
sS'better'
p85
I1
sS'platform'
p86
I1
sS'world.'
p87
I1
sS'thinking.'
p88
I1
sS'python'
p89
I1
sS'strategic'
p90
I1
sS'maintaining'
p91
I1
sS'term'
p92
I1
sS'marketing/business'
p93
I1
sS'technology.'
p94
I1
sS'end-to-end'
p95
I1
sS'eg'
p96
I1
sS'related'
p97
I1
sS'unlock'
p98
I1
sS'trading'
p99
I1
sVoperation
p100
I1
sS'network'
p101
I1
sS'results-orientated'
p102
I1
sS'looking'
p103
I1
sS'issue'
p104
I1
sS'data scientist'
p105
I1
sS'completely'
p106
I1
sS'management'
p107
I2
sS'growth.'
p108
I1
sS'data analyst'
p109
I1
sS'thing'
p110
I1
sS'advertisement'
p111
I3
sS'revenue'
p112
I4
sS'one'
p113
I1
sS'investment banking'
p114
I1
sVservice
p115
I1
sS'meaningful'
p116
I1
sS'grow'
p117
I1
sVmaster
p118
I1
sS'relationship'
p119
I3
sS'tool'
p120
I2
sS'target'
p121
I1
sS'culture'
p122
I2
sS'proactive'
p123
I2
sS'outstanding'
p124
I1
sS'mind'
p125
I1
sS'manner'
p126
I1
sS'teams.'
p127
I1
sS'need'
p128
I1
sS'clearly'
p129
I1
sS'responsible'
p130
I1
sS'mix'
p131
I1
sS'internal'
p132
I4
sS'take'
p133
I2
sS'online'
p134
I1
sS'finding'
p135
I1
sS'performance'
p136
I5
sS'play'
p137
I1
sS'multiple'
p138
I1
sS'deploy'
p139
I2
sS'track'
p140
I1
sS'collaboration'
p141
I1
sS'basis.'
p142
I1
sS'retaining'
p143
I1
sS'assisting'
p144
I1
sS'mobile'
p145
I5
sVstatistic
p146
I1
sS'drive'
p147
I1
sS"you'll"
p148
I1
sS'reputation'
p149
I1
sS'senior'
p150
I1
sS'consumer'
p151
I1
sS'portfolio'
p152
I1
sS'aggressive'
p153
I1
sS'r d'
p154
I1
sS'knowledge'
p155
I1
sS'implementation'
p156
I1
sS'8'
I1
sS'achieve'
p157
I1
sS'network.'
p158
I1
sS'exceptional'
p159
I1
sS'expectation'
p160
I3
sS'preferred'
p161
I1
sS'packages/techniques'
p162
I1
sS'resolve'
p163
I1
sS'proactively'
p164
I1
sS'analytical'
p165
I4
sS'uncover'
p166
I1
sS'programmatic'
p167
I2
sS'roadmap'
p168
I1
sS'individual'
p169
I1
sS'close'
p170
I1
sS'best'
p171
I1
sS'managing'
p172
I4
sVreview
p173
I2
sS'currently'
p174
I1
sS'across'
p175
I1
sS'orchestrate'
p176
I1
sS'stakeholder'
p177
I1
sS'ability'
p178
I1
sS"inmobi's"
p179
I4
sS'attention'
p180
I1
sS'key'
p181
I4
sS'delivering'
p182
I1
sS'inmobi.'
p183
I1
sS'career'
p184
I1
sS'etc'
p185
I2
sS'objective'
p186
I1
sS'acquisition'
p187
I1
sS'negotiation'
p188
I1
sS'relevant'
p189
I1
sS'point'
p190
I1
sS'cross-functional'
p191
I1
sS'targeting'
p192
I1
sS'tremendous'
p193
I1
sS'strategy'
p194
I3
sS'confident'
p195
I1
sS'teamwork'
p196
I1
sS'utilizing'
p197
I1
sS'operations research'
p198
I2
sS'powerpivot'
p199
I1
sS'understand'
p200
I2
sS'developing'
p201
I2
sS'end-to-end.'
p202
I1
sS'value'
p203
I1
sS'aim'
p204
I1
sS'optimization'
p205
I1
sS'developers.'
p206
I1
sS'metric'
p207
I1
sS'partner'
p208
I2
sS'technology'
p209
I3
sS'different'
p210
I1
sS'develop'
p211
I1
sS'statistics economics'
p212
I1
sS'make'
p213
I2
sS'complex'
p214
I1
sS'largest'
p215
I1
sS'several'
p216
I1
sS'independent'
p217
I1
sS'reporting'
p218
I2
sS'user'
p219
I2
sS'ownership'
p220
I1
sS'opportunity'
p221
I3
sS'tracking'
p222
I2
sS'macro'
p223
I1
sS'client'
p224
I9
sS'solve'
p225
I1
sS'five'
p226
I1
sS'reward'
p227
I1
sS'latest'
p228
I1
sS'advertiser'
p229
I6
sS'agency'
p230
I2
sS'ecosystem.'
p231
I1
sS'aspect'
p232
I1
sS'skill'
p233
I4
sS'continent'
p234
I1
sS'weekly'
p235
I1
sS'web'
p236
I1
sS'eager'
p237
I1
sS'interested'
p238
I1
sS'combine'
p239
I1
sS'technological'
p240
I1
sS'match'
p241
I2
sS'format'
p242
I2
sS'collaboratively'
p243
I1
sS'biz'
p244
I1
sS'desk'
p245
I1
sS'advertising.'
p246
I2
sS'using'
p247
I1
sS'execution'
p248
I1
sS'advanced'
p249
I1
sS'facing'
p250
I1
sS'online marketing'
p251
I1
sS'cross-selling'
p252
I1
sS'passionate'
p253
I1
sS'exceed'
p254
I1
sS'right'
p255
I1
sS'pricing'
p256
I1
sS'recommendation'
p257
I1
sS'reimagine'
p258
I1
sS'pain'
p259
I1
sS'disrupting'
p260
I1
sS'scale'
p261
I1
sS'decision'
p262
I1
sS'creative'
p263
I1
sS'critical'
p264
I1
sS'provides'
p265
I1
sS'innovation'
p266
I2
sS'leader'
p267
I1
sS'business'
p268
I5
sS'inmobi'
p269
I5
sS'optimize'
p270
I1
sS'industry'
p271
I2
sS'marketing analytics'
p272
I2
sS'spss'
p273
I1
sS'ensure'
p274
I2
sS'communication'
p275
I1
sS'within'
p276
I1
sS'talent.'
p277
I1
sS'stake-holders'
p278
I1
sS'support'
p279
I2
sS'strategies.'
p280
I1
sS'medium'
p281
I5
sS'delivery'
p282
I1
sS'decisions.'
p283
I1
sS'ecosystem'
p284
I1
sS'problem'
p285
I1
sS'etc.'
p286
I2
sS'display'
p287
I1
sS'ad'
p288
I4
sS'contribute'
p289
I1
sS'influence'
p290
I1
sVsale
p291
I4
sS'enable'
p292
I1
sS'organizational'
p293
I1
sS'excel'
p294
I1
sS'reality'
p295
I1
sS'field'
p296
I1
sS'book'
p297
I1
sS'role'
p298
I1
sS'digital'
p299
I1
sS'3 year'
p300
I1
sS'helping'
p301
I1
sS'sql'
p302
I1
sS'tackle'
p303
I1
sS'matrix'
p304
I1
sS'billion'
p305
I2
sS'roadmaps'
p306
I1
sS'detail.'
p307
I1
sS'required'
p308
I2
sS'daily'
p309
I1
sVu
I1
s.