(dp1
S'skills'
p2
(lp3
S'r d'
p4
aS'excel'
p5
aS'data science'
p6
aS'rest'
p7
aS'ant'
p8
aS'unix'
p9
aS'linux'
p10
aS'go'
p11
aS'ic'
p12
aS'asic'
p13
aS'envi'
p14
aS'cell'
p15
aS'statistica'
p16
aS'rf'
p17
aS'assay development'
p18
aS'computer science'
p19
aS'communication'
p20
aS'drug discovery'
p21
aS'pl'
p22
aS'biology'
p23
aS'data analysis'
p24
aS'computational biology'
p25
aS'ios'
p26
aS'c'
aS'data'
p27
aS'a'
aS'training'
p28
aS'erp'
p29
aS'science'
p30
aS'analysis'
p31
aS'machine learning'
p32
aS'r'
asS'working-year'
p33
(lp34
S'3+ year'
p35
asS'major'
p36
(lp37
S'biology'
p38
aS'computational biology'
p39
aS'ee'
p40
aS'science'
p41
aS'data science'
p42
aS'communication'
p43
aS'machine learning'
p44
aS'computer science computational biology'
p45
aS'design'
p46
aS'computer science'
p47
aS'statistic'
p48
aS'computational biolog'
p49
asS'education'
p50
(lp51
VBachelor
p52
aVMaster
p53
aVDoctor
p54
asS'responsibility'
p55
(lp56
S'development'
p57
aS'data analysis'
p58
aS'communicate'
p59
aS'analysis'
p60
aS'analytic'
p61
aS'statistical method'
p62
aS'design'
p63
aS'understand'
p64
as.