(dp1
S'skills'
p2
(lp3
S'owl'
p4
aS'supply chain'
p5
aS'ip'
p6
aS'rest'
p7
aS'ant'
p8
aS'analytics'
p9
aS'system design'
p10
aS'ic'
p11
aS'management'
p12
aS'networking'
p13
aS'big data'
p14
aS'recruiting'
p15
aS'envi'
p16
aS'strategy'
p17
aS'lua'
p18
aS'rf'
p19
aS'optimization'
p20
aS'innovation'
p21
aS'advanced analytics'
p22
aS'pl'
p23
aS'marketing'
p24
aS'data scientist'
p25
aS'search'
p26
aS'entrepreneurship'
p27
aS'leadership'
p28
aS'data'
p29
aS'a'
aS'c'
aS'erp'
p30
aS'network optimization'
p31
aS'r'
aS'organization'
p32
aS'cro'
p33
asS'working-year'
p34
(lp35
S'4+ year'
p36
asS'major'
p37
(lp38
S'management'
p39
aS'big data'
p40
aS'ee'
p41
aS'marketing'
p42
aS'entrepreneurship'
p43
aS'analytics'
p44
aS'design'
p45
aS'advanced analytics'
p46
asS'education'
p47
(lp48
VMaster
p49
asS'responsibility'
p50
(lp51
Vinsight
p52
aS'analytic'
p53
aS'optimization'
p54
aS'design'
p55
aS'report'
p56
aS'model'
p57
as.