(dp1
S'skills'
p2
(lp3
S'.net'
p4
aS'r d'
p5
aS'ip'
p6
aS'data science'
p7
aS'testing'
p8
aS'rest'
p9
aS'ant'
p10
aS'vis'
p11
aS'asp.net'
p12
aS'penetration testing'
p13
aS'go'
p14
aS'ic'
p15
aS'arm'
p16
aS'management'
p17
aS'java'
p18
aS'statistica'
p19
aS'critical thinking'
p20
aS'agile'
p21
aS'r programming'
p22
aS'hadoop'
p23
aS'governance'
p24
aS'risk management'
p25
aS'rf'
p26
aS'computer science'
p27
aS'communication'
p28
aS'pl'
p29
aS'asp'
p30
aS'innovation'
p31
aS'data scientist'
p32
aS'c'
aS'business process'
p33
aS'leadership'
p34
aS'oop'
p35
aS'technical documentation'
p36
aS'data'
p37
aS'a'
aS'event management'
p38
aS'training'
p39
aS'erp'
p40
aS'vb.net'
p41
aS'documentation'
p42
aS'programming'
p43
aS'analysis'
p44
aS'machine learning'
p45
aS'credit'
p46
aS'organizational leadership'
p47
aS'r'
aS'science'
p48
aS'organization'
p49
aS'security'
p50
aS'cro'
p51
aS'envi'
p52
asS'working-year'
p53
(lp54
S'0 year'
p55
asS'major'
p56
(lp57
S'information'
p58
aS'ece'
p59
aS'management'
p60
aS'business'
p61
aS'ee'
p62
aS'science'
p63
aS'data science'
p64
aS'statistic'
p65
aS'communication'
p66
aS'machine learning'
p67
aS'information system'
p68
aS'design'
p69
aS'computer science'
p70
aS'pharmacy'
p71
aS'business management'
p72
aS'mis'
p73
aS'law'
p74
asS'education'
p75
(lp76
VBachelor
p77
aVMaster
p78
asS'responsibility'
p79
(lp80
S'development'
p81
aS'information'
p82
aS'product'
p83
aS'predict'
p84
aS'documentation'
p85
aS'analysis'
p86
aS'design'
p87
aS'model'
p88
as.