(dp1
S'skills'
p2
(lp3
S'owl'
p4
aS'tableau'
p5
aS'ant'
p6
aS'vis'
p7
aS'engineering'
p8
aS'data mining'
p9
aS'sas'
p10
aS'ic'
p11
aS'spss'
p12
aS'sem'
p13
aS'visualization'
p14
aS'git'
p15
aS'big data'
p16
aS'management'
p17
aS'rf'
p18
aS'research'
p19
aS'ssis'
p20
aS'pl'
p21
aS'python'
p22
aS'data scientist'
p23
aS'c'
aS'arm'
p24
aS'product design'
p25
aS'performance improvement'
p26
aS'information extraction'
p27
aS'data'
p28
aS'a'
aS'search'
p29
aS'data visualization'
p30
aS'analytics'
p31
aS'science'
p32
aS'education'
p33
aS'machine learning'
p34
aS'r'
aS'organization'
p35
aS'cro'
p36
asS'working-year'
p37
(lp38
S'0 year'
p39
asS'major'
p40
(lp41
S'information'
p42
aS'management'
p43
aS'business'
p44
aS'big data'
p45
aS'ee'
p46
aS'science'
p47
aS'data mining'
p48
aS'machine learning'
p49
aS'analytics'
p50
aS'engineering'
p51
aS'information system'
p52
aS'design'
p53
aS'management information systems'
p54
aS'information systems'
p55
aS'mis'
p56
aS'data mining machine learning'
p57
asS'education'
p58
(lp59
VBachelor
p60
aVMaster
p61
asS'responsibility'
p62
(lp63
S'information'
p64
aS'product'
p65
aVinsight
p66
aS'improvement'
p67
aS'analytic'
p68
aS'design'
p69
aS'data mining'
p70
aS'implement'
p71
aS'extract'
p72
aS'model'
p73
as.