(dp1
S'skills'
p2
(lp3
S'classification'
p4
aS'ip'
p5
aS'data science'
p6
aS'communication'
p7
aS'ant'
p8
aS'analytics'
p9
aS'engineering'
p10
aS'defense'
p11
aS'radar'
p12
aS'security clearance'
p13
aS'data mining'
p14
aS'go'
p15
aS'ic'
p16
aS'education'
p17
aS'data analytics'
p18
aS'cell'
p19
aS'open source'
p20
aS'big data'
p21
aS'deep learning'
p22
aS'excel'
p23
aS'rf'
p24
aS'writing'
p25
aS'big data analytics'
p26
aS'ssis'
p27
aS'visio'
p28
aS'intelligence'
p29
aS'pl'
p30
aS'cuda'
p31
aS'a'
aS'envi'
p32
aS'signal processing'
p33
aS'python'
p34
aS'processing'
p35
aS'c++'
p36
aS'architectures'
p37
aS'military'
p38
aS'business development'
p39
aS'data'
p40
aS'software development'
p41
aS'c'
aS'vis'
p42
aS'science'
p43
aS'dod'
p44
aS'machine learning'
p45
aS'r'
aS'algorithms'
p46
aS'architecture'
p47
aS'electrical engineering'
p48
aS'security'
p49
aS'cro'
p50
aS'computer vision'
p51
aS'cad'
p52
asS'working-year'
p53
(lp54
S'4+ year'
p55
aS'2+ year'
p56
aS'6+ year'
p57
asS'major'
p58
(lp59
S'information'
p60
aS'ece'
p61
aS'business'
p62
aS'big data'
p63
aS'ee'
p64
aS'science'
p65
aS'data science'
p66
aS'statistic'
p67
aS'communication'
p68
aS'machine learning'
p69
aS'big data analytics'
p70
aS'analytics'
p71
aS'engineering'
p72
aS'design'
p73
aVphysic
p74
aS'phd'
p75
aS'data mining'
p76
aS'electrical engineering'
p77
aS'mis'
p78
aS'electrical'
p79
aS'data analytics'
p80
asS'education'
p81
(lp82
VBachelor
p83
aVMaster
p84
aVDoctor
p85
asS'responsibility'
p86
(lp87
S'development'
p88
aS'information'
p89
aS'processing'
p90
aS'analytic'
p91
aS'understand'
p92
aS'data mining'
p93
aS'design'
p94
aS'extract'
p95
as.