(dp1
S'managers.'
p2
I1
sS'data scientist'
p3
I1
sS'r d'
p4
I1
sS'nosql'
p5
I1
sS'intellectual property'
p6
I1
sS'executive'
p7
I1
sS'tableau'
p8
I1
sS'hiring'
p9
I1
sS'manager'
p10
I2
sS'scientist'
p11
I1
sS'including'
p12
I1
sS'innovative'
p13
I1
sS'high-profile'
p14
I1
sS'portfolio'
p15
I1
sS'member'
p16
I1
sS'leaders.'
p17
I1
sS'leader'
p18
I1
sS'knowledge'
p19
I2
sS'longstanding'
p20
I1
sS'drive'
p21
I1
sS'sets.'
p22
I1
sS'firm'
p23
I1
sS'foster'
p24
I1
sS'2-5 year'
p25
I1
sS'collaborate'
p26
I1
sS'around'
p27
I1
sS'python'
p28
I1
sS'design thinking'
p29
I1
sS'innovation'
p30
I1
sVdb
p31
I1
sS'20-40'
p32
I1
sS'early'
p33
I1
sS'collaboratively'
p34
I1
sS'closely'
p35
I1
sS'import'
p36
I1
sS'using'
p37
I1
sS'one'
p38
I1
sS'outcomes research'
p39
I1
sS'mathematician'
p40
I1
sS'vibrant'
p41
I1
sS'developing'
p42
I1
sS'pharma'
p43
I1
sS'across'
p44
I1
sS'team'
p45
I7
sS'analytical'
p46
I1
sS'research development r d'
p47
I1
sS'waltham'
p48
I1
sS'mean'
p49
I1
sS'products/services'
p50
I1
sS'paramount.'
p51
I1
sS'pmp'
p52
I5
sS'foundation'
p53
I1
sS'product development'
p54
I1
sVlibrary
p55
I1
sS'operates'
p56
I1
sS'analytics'
p57
I5
sS'professional'
p58
I1
sS'close'
p59
I1
sVoperation
p60
I2
sS'investment'
p61
I1
sS'intended'
p62
I1
sS'scale'
p63
I1
sS'expert'
p64
I1
sS'approaches.'
p65
I1
sS'method'
p66
I1
sS'outside'
p67
I1
sS'critical'
p68
I1
sS'designing'
p69
I1
sS'new'
p70
I4
sS'approach'
p71
I1
sS'plotting'
p72
I1
sS'demonstrated'
p73
I1
sS'core'
p74
I1
sS'third-party'
p75
I1
sS'ability'
p76
I3
sS'commercial'
p77
I2
sS'stakeholder'
p78
I1
sS'alteryx'
p79
I1
sS'solution'
p80
I1
sS'implementing'
p81
I1
sS'key'
p82
I1
sS'strong'
p83
I1
sS'manufacturer'
p84
I1
sS'helping'
p85
I1
sS'integrating'
p86
I1
sS'service'
p87
I4
sS'extension'
p88
I1
sS'health economics'
p89
I1
sS'shift'
p90
I1
sS'programming'
p91
I1
sS'experience'
p92
I5
sS'comfort'
p93
I1
sS'plus'
p94
I1
sS'asset-based'
p95
I1
sS'context'
p96
I1
sS'social'
p97
I1
sS'etl'
p98
I1
sS'software'
p99
I2
sS'consulting'
p100
I1
sS'alliance'
p101
I1
sS'evidence-based'
p102
I1
sS'data science'
p103
I2
sS'dedicated'
p104
I1
sS'strategic'
p105
I1
sS'directly'
p106
I2
sS'redefining'
p107
I1
sS'engineer'
p108
I1
sS'pharmaceutical'
p109
I1
sS'working'
p110
I3
sS'hands-on'
p111
I1
sS'support'
p112
I2
sS'engagement'
p113
I1
sS'informed'
p114
I1
sS'transform'
p115
I1
sS'designer'
p116
I1
sS'health economics outcomes research'
p117
I1
sS"we're"
p118
I1
sS'advanced analytics'
p119
I2
sS'culture.'
p120
I1
sS'stage'
p121
I1
sS'property.'
p122
I1
sS'function'
p123
I1
sS'toward'
p124
I1
sS'offering'
p125
I2
sS'mckinsey'
p126
I6
sS'successful'
p127
I1
sS'detail'
p128
I1
sS'tool'
p129
I1
sS'work.'
p130
I1
sS'engagements.'
p131
I1
sS'part'
p132
I3
sS'understand'
p133
I1
sS'newer'
p134
I1
sS'excellent'
p135
I1
sS'comfortable'
p136
I1
sS'cleanse'
p137
I1
sS'analyst'
p138
I1
sS'5 year'
p139
I1
sS'join'
p140
I1
sS"mckinsey's"
p141
I4
sS'inside'
p142
I1
sS'work'
p143
I5
sS'attention'
p144
I1
sS'data engineering'
p145
I1
sS'entrepreneurial'
p146
I1
sS'500'
p147
I1
sVventure
p148
I3
sS'product management'
p149
I1
sS'next-generation'
p150
I1
sVoutcome
p151
I1
sS'anchor'
p152
I1
sS'acquisition'
p153
I1
sS'model'
p154
I2
sS'addressing'
p155
I1
sS'process'
p156
I1
sS'priorities.'
p157
I1
sS'mckinsey.'
p158
I1
sS'partnership'
p159
I1
sS'deep'
p160
I1
sS'general'
p161
I1
sS'player'
p162
I1
sS'engineering'
p163
I1
sS'partner'
p164
I1
sS'large data set'
p165
I1
sS'data.'
p166
I1
sS'relationship'
p167
I1
sS'travel'
p168
I1
sS'hadoop'
p169
I1
sS'1'
I1
sS'also'
p170
I1
sS'build'
p171
I2
sS'objective'
p172
I1
sS'brand'
p173
I1
sS'development'
p174
I1
sVproduct
p175
I3
sS'ecosystem'
p176
I1
sVqualification
p177
I1
sS'competitive intelligence'
p178
I1
sS'office'
p179
I2
sS'decision-making'
p180
I1
sS'fastest-growing'
p181
I1
sS'driven'
p182
I1
sS'pressure.'
p183
I1
sS'sql'
p184
I1
sS'device'
p185
I1
sS'validate'
p186
I1
sS'data'
p187
I5
sS'senior'
p188
I3
sS'heor'
p189
I1
sS'mobile'
p190
I1
sS'expands'
p191
I1
sS'medical'
p192
I1
sS'prepare'
p193
I1
sS'well'
p194
I1
sS'persistent'
p195
I1
sS'traditional'
p196
I1
sS"you'll"
p197
I6
sS'client'
p198
I12
sVu
I1
sS'time'
p199
I2
sS'organization'
p200
I1
sVsa
p201
I1
sS'800'
p202
I1
sS'blend'
p203
I1
s.