(dp1
S'skills'
p2
(lp3
S'owl'
p4
aS'communication'
p5
aS'microsoft excel'
p6
aS'ant'
p7
aS'vis'
p8
aS'statistical analysis'
p9
aS'go'
p10
aS'sas'
p11
aS'ic'
p12
aS'visualization'
p13
aS'management'
p14
aS'lua'
p15
aS'excel'
p16
aS'envi'
p17
aS'time management'
p18
aS'cell'
p19
aS'statistica'
p20
aS'rf'
p21
aS'statistical software'
p22
aS'matlab'
p23
aS'project planning'
p24
aS'pl'
p25
aS'minitab'
p26
aS'data'
p27
aS'a'
aS'c'
aS'erp'
p28
aS'ampl'
p29
aS'data visualization'
p30
aS'solver'
p31
aS'drug development'
p32
aS'analysis'
p33
aS'powerpoint'
p34
aS'r'
aS'science'
p35
aS'cro'
p36
asS'working-year'
p37
(lp38
S'1-3 year'
p39
aS'3 year'
p40
asS'major'
p41
(lp42
S'management'
p43
aS'ee'
p44
aS'science'
p45
aS'communication'
p46
aS'data analyst'
p47
aS'statistic'
p48
aVphysic
p49
asS'education'
p50
(lp51
VBachelor
p52
aVMaster
p53
asS'responsibility'
p54
(lp55
S'development'
p56
aS'presentation'
p57
aS'communicate'
p58
aS'analysis'
p59
aS'report'
p60
aS'extract'
p61
as.