(dp1
S'skills'
p2
(lp3
S'research design'
p4
aS'owl'
p5
aS'supply chain'
p6
aS'predictive modeling'
p7
aS'problem solving'
p8
aS'ip'
p9
aS'energy'
p10
aS'communication'
p11
aS'presentation skills'
p12
aS'rest'
p13
aS'ant'
p14
aS'analytics'
p15
aS'engineering'
p16
aS'data analysis'
p17
aS'operational excellence'
p18
aS'analysis'
p19
aS'system design'
p20
aS'data mining'
p21
aS'gas'
p22
aS'ic'
p23
aS'research'
p24
aS'arm'
p25
aS'technical leadership'
p26
aS'management'
p27
aS'big data'
p28
aS'scala'
p29
aS'team building'
p30
aS'mathematica'
p31
aS'product marketing'
p32
aS'integration'
p33
aS'writing'
p34
aS'cell'
p35
aS'rf'
p36
aS'optimization'
p37
aS'computer science'
p38
aS'visio'
p39
aS'construction'
p40
aS'go'
p41
aS'pl'
p42
aS'a'
aS'asp'
p43
aS'envi'
p44
aS'performance management'
p45
aS'process optimization'
p46
aS'python'
p47
aS'marketing'
p48
aS'collaboration'
p49
aS'innovation'
p50
aS'data scientist'
p51
aS'c'
aS'leadership'
p52
aS'mentoring'
p53
aS'chemical engineering'
p54
aS'modeling'
p55
aS'manufacturing'
p56
aS'data'
p57
aS'software development'
p58
aS'search'
p59
aS'erp'
p60
aS'vis'
p61
aS'science'
p62
aS'excel'
p63
aS'programming'
p64
aS'c++'
p65
aS'machine learning'
p66
aS'time series analysis'
p67
aS'r'
aS'architecture'
p68
aS'english'
p69
aS'product management'
p70
aS'predictive analytics'
p71
asS'working-year'
p72
(lp73
S'8+ year'
p74
aS'30 year'
p75
asS'major'
p76
(lp77
S'science'
p78
aS'information'
p79
aS'management'
p80
aS'business'
p81
aS'big data'
p82
aS'ee'
p83
aS'marketing'
p84
aS'data mining'
p85
aS'communication'
p86
aS'mba'
p87
aS'machine learning'
p88
aS'analytics'
p89
aS'engineering'
p90
aS'design'
p91
aS'chemical engineering'
p92
aS'english'
p93
aS'computer science'
p94
aS'mis'
p95
aS'phd'
p96
aS'predictive analytics'
p97
asS'education'
p98
(lp99
VBachelor
p100
aVMaster
p101
aVDoctor
p102
asS'responsibility'
p103
(lp104
S'development'
p105
aS'information'
p106
aS'product'
p107
aS'data analysis'
p108
aS'predict'
p109
aS'modeling'
p110
aS'model'
p111
aS'construct'
p112
aS'analytic'
p113
aS'optimization'
p114
aS'design'
p115
aS'analysis'
p116
aS'data mining'
p117
aS'understand'
p118
aS'implement'
p119
aS'prototype'
p120
aS'presentation'
p121
aS'transformation'
p122
as.