(dp1
S'model'
p2
I1
sS'problems.'
p3
I1
sS'data scientist'
p4
I1
sS'0 year'
p5
I2
sS'generation'
p6
I1
sS'highly'
p7
I2
sS'visible'
p8
I1
sS'manager'
p9
I1
sS'solve problem'
p10
I1
sS'engineer'
p11
I1
sS'service'
p12
I1
sS'team building'
p13
I1
sS'endurance'
p14
I1
sS'r d'
p15
I1
sS'next'
p16
I1
sS'predict'
p17
I1
sS'role'
p18
I1
sS'define'
p19
I1
sS'customer'
p20
I1
sS'product'
p21
I2
sS'business'
p22
I1
sS'deliver'
p23
I1
sS'platform.'
p24
I1
sS'talented'
p25
I1
sS'work'
p26
I2
sS'team'
p27
I1
sS'closing'
p28
I1
sS'software'
p29
I1
s.