(dp1
S'existing'
p2
I1
sS'integrity'
p3
I2
sS'technique'
p4
I4
sS'including'
p5
I2
sS'environment'
p6
I1
sS'position.'
p7
I2
sS'woman'
p8
I1
sS'provider'
p9
I1
sS'difference'
p10
I1
sS'level'
p11
I2
sS'fast-paced'
p12
I1
sS'problems.'
p13
I2
sS'solution'
p14
I3
sS'roadblock'
p15
I1
sS'team'
p16
I3
sS'quick'
p17
I1
sS'prediction'
p18
I1
sS'click'
p19
I1
sS'section'
p20
I1
sS'new'
p21
I1
sS'degree'
p22
I3
sS'eligibility'
p23
I1
sS'empower'
p24
I1
sVcomponent
p25
I1
sS'understanding'
p26
I1
sS'desired'
p27
I2
sS'address'
p28
I1
sS'consideration'
p29
I1
sS'discipline.'
p30
I1
sS'data gathering'
p31
I1
sS'skills.'
p32
I1
sS'receive'
p33
I1
sS'inspired'
p34
I1
sS'economics'
p35
I1
sS'experience'
p36
I1
sS'credit'
p37
I1
sS'healthier'
p38
I1
sS'social'
p39
I1
sS'action'
p40
I2
sS'via'
p41
I1
sS'regardless'
p42
I1
sS'secure'
p43
I1
sS'partnering'
p44
I1
sS'requiring'
p45
I1
sS'qualified'
p46
I1
sS'select'
p47
I1
sS'use'
p48
I2
sS'would'
p49
I1
sS'live'
p50
I1
sS'recommend'
p51
I1
sS'organization.'
p52
I2
sS'globe.'
p53
I1
sS'company'
p54
I1
sS'customer'
p55
I1
sS'join'
p56
I1
sS'work'
p57
I2
sS'machine learning'
p58
I2
sS'making'
p59
I1
sS'claim'
p60
I1
sS'challenging'
p61
I1
sS'programming'
p62
I1
sS'validates'
p63
I1
sS'pig.'
p64
I1
sS'effectively'
p65
I2
sS'heard.'
p66
I1
sS'communities.'
p67
I1
sS'information'
p68
I6
sS'conducted'
p69
I1
sS'unstructured data'
p70
I1
sS'product'
p71
I2
sS'explores'
p72
I2
sS'may'
p73
I1
sS'derived'
p74
I1
sS'data'
p75
I11
sVphysic
p76
I1
sS'applicant'
p77
I1
sS'deposit'
p78
I1
sS'fundamental'
p79
I1
sS'healthcare'
p80
I1
sVsa
p81
I1
sS'help'
p82
I1
sS'insight'
p83
I3
sS'vary'
p84
I1
sS'disabilities.'
p85
I1
sS'organize'
p86
I1
sS'executes'
p87
I1
sS'statistical'
p88
I2
sS'committed'
p89
I1
sS'personal'
p90
I2
sS'better'
p91
I1
sS'platform'
p92
I1
sS'audiences.'
p93
I1
sS'identify trend'
p94
I1
sS'good'
p95
I1
sS'python'
p96
I1
sS'cutting'
p97
I1
sS'several'
p98
I1
sS'communication skills'
p99
I1
sS'financial'
p100
I1
sS'generation'
p101
I1
sS'related'
p102
I1
sS'operation'
p103
I1
sS'extract'
p104
I1
sS'large'
p105
I2
sS'req'
p106
I1
sS'looking'
p107
I1
sS'health'
p108
I4
sS'performs'
p109
I1
sS'data scientist'
p110
I1
sS'business analytics'
p111
I2
sS'assures'
p112
I1
sS'generate'
p113
I1
sS'card'
p114
I1
sS'care'
p115
I4
sS'occur.'
p116
I1
sS'iterative'
p117
I1
sS'creates'
p118
I2
sS'outcomes.'
p119
I1
sS'place'
p120
I1
sS'support'
p121
I2
sS'engagement'
p122
I1
sS'number'
p123
I1
sS'notify'
p124
I1
sS'quality'
p125
I1
sS'health services'
p126
I1
sVservice
p127
I2
sS'privacy'
p128
I1
sS'leading'
p129
I1
sS'interact'
p130
I1
sS'structured'
p131
I1
sS'moderately'
p132
I1
sS'system'
p133
I1
sVmaster
p134
I1
sS'agility'
p135
I1
sS'business problem'
p136
I1
sS'costs.'
p137
I1
sS'direct'
p138
I1
sS'part'
p139
I1
sS'immediately.'
p140
I1
sS'expanding'
p141
I1
sS'culture'
p142
I1
sS'recruit'
p143
I1
sS'project'
p144
I3
sS'data engineering'
p145
I1
sS'future'
p146
I1
sS'outcome'
p147
I2
sS'experience.'
p148
I2
sS'affirmative'
p149
I2
sS'solve problem'
p150
I1
sS'need'
p151
I1
sS'data.'
p152
I1
sS'built'
p153
I1
sS'flexibility.'
p154
I1
sS'veteran'
p155
I1
sS'responsible'
p156
I1
sS'able'
p157
I1
sS'take'
p158
I2
sS'objective'
p159
I1
sS'effectiveness'
p160
I1
sS'tool'
p161
I1
sS"bachelor's"
p162
I2
sS'multiple'
p163
I2
sS"candidate's"
p164
I1
sS'affordability'
p165
I1
sS'detect'
p166
I1
sS'plenty'
p167
I1
sS'america'
p168
I1
sS'achievement'
p169
I1
sS'sources.'
p170
I1
sS'request'
p171
I2
sS'drive'
p172
I1
sS'consumer'
p173
I2
sS'recruiter.'
p174
I1
sS'employer.'
p175
I1
sS'r d'
p176
I1
sS'decisions.'
p177
I1
sS'big data'
p178
I2
sS'analytic'
p179
I2
sS'employee'
p180
I1
sS'data modeling'
p181
I1
sS'exceptional'
p182
I1
sS'scalable'
p183
I1
sS'mathematics statistics'
p184
I1
sS'drivers.'
p185
I1
sS'resolve'
p186
I1
sS'summary'
p187
I1
sS'investigate'
p188
I1
sS'analytical'
p189
I2
sS'making.'
p190
I1
sS'predictive'
p191
I2
sS'set'
p192
I1
sS'analytics'
p193
I2
sS'individual'
p194
I1
sS'result'
p195
I2
sS'job.'
p196
I1
sS'needs.'
p197
I1
sS'ability'
p198
I1
sS'solutions.'
p199
I1
sS'come.'
p200
I1
sS'pattern'
p201
I1
sS'review'
p202
I1
sS'currently'
p203
I1
sS'please'
p204
I1
sS'preferred.'
p205
I2
sS'written'
p206
I1
sS'various'
p207
I2
sS'across'
p208
I1
sS'creating'
p209
I1
sS'stakeholder'
p210
I1
sS'analyses.'
p211
I1
sS'job'
p212
I2
sS'seriously.'
p213
I1
sS'improve'
p214
I4
sS'prescription'
p215
I1
sS'data visualization'
p216
I1
sS'equal'
p217
I1
sS'workplace'
p218
I1
sS'asked'
p219
I1
sS'relevant'
p220
I1
sS'color'
p221
I1
sS'data science'
p222
I2
sS'learning'
p223
I1
sS'utilizing'
p224
I1
sS'excellence.'
p225
I2
sS'website'
p226
I1
sS'diversity'
p227
I1
sS'understand'
p228
I1
sS'present'
p229
I1
sS'40878br'
p230
I1
sS'developing'
p231
I3
sS'value'
p232
I2
sS'evaluates'
p233
I1
sS'voice'
p234
I1
sS'examines'
p235
I1
sS'someone'
p236
I1
sS'statistical analysis'
p237
I1
sS'partner'
p238
I1
sS'technology'
p239
I1
sS'id'
p240
I1
sS're-shape'
p241
I1
sS'develop'
p242
I2
sS'prior'
p243
I1
sS'make'
p244
I2
sS'hadoop'
p245
I1
sS'complex'
p246
I1
sS'evaluate'
p247
I1
sVdocument
p248
I1
sS'reporting'
p249
I1
sS'mathematical analysis'
p250
I1
sS'proficiency'
p251
I1
sS'opportunity'
p252
I4
sS'lower'
p253
I1
sS'scenario'
p254
I1
sS'analysis'
p255
I1
sS'edge'
p256
I1
sS'forms.'
p257
I1
sS'position'
p258
I4
sS'model'
p259
I1
sS'background/experience'
p260
I1
sS'assigned'
p261
I1
sS'lives.'
p262
I1
sS'visualization'
p263
I1
sS'candidate'
p264
I1
sS'pharmacy'
p265
I3
sS'source'
p266
I2
sS'interprets'
p267
I1
sS'remaining'
p268
I1
sS'background'
p269
I1
sS'unique'
p270
I1
sS'advanced'
p271
I2
sS'collect'
p272
I1
sS'benefit'
p273
I3
sS'security'
p274
I1
sS'passionate'
p275
I1
sS'mathematical'
p276
I1
sS'verbal'
p277
I1
sS'people'
p278
I2
sS'growth'
p279
I1
sVstatistic
p280
I1
sS'employment'
p281
I1
sS'provided'
p282
I1
sS'and/or'
p283
I1
sS'demonstrates'
p284
I2
sS'decision'
p285
I2
sS'manipulate'
p286
I1
sS'innovation'
p287
I1
sS'leader'
p288
I1
sS'business'
p289
I4
sS'equivalent'
p290
I2
sS'processing'
p291
I1
sS'communicate'
p292
I1
sS'business.'
p293
I1
sS'pipeline'
p294
I1
sS'industry'
p295
I2
sS'discussed'
p296
I1
sS'status.'
p297
I1
sS'within'
p298
I1
sS'healthcare.'
p299
I1
sS'analytically'
p300
I1
sS'additional'
p301
I2
sS'area'
p302
I1
sS'recruiter'
p303
I1
sS'clinical'
p304
I1
sS'improvements.'
p305
I1
sS'function'
p306
I1
sS'recommends'
p307
I1
sS'volume'
p308
I1
sS'highest'
p309
I1
sS'metrics.'
p310
I1
sS'applying'
p311
I1
sS'algorithm'
p312
I2
sS'characteristic'
p313
I1
sS'aetnas'
p314
I1
sVus
p315
I1
sS'statistics computer science'
p316
I1
sS'etc.'
p317
I1
sS'detailed'
p318
I1
sS'associated'
p319
I1
sS'engineering'
p320
I1
sS'expertise'
p321
I1
sS'education'
p322
I2
sS'large data set'
p323
I1
sS'computer science'
p324
I2
sS'test'
p325
I1
sS'3 year'
p326
I1
sS'standardize'
p327
I1
sS'collaborative'
p328
I1
sS'behavioral'
p329
I1
sS'e-mail.'
p330
I1
sS'develops'
p331
I2
sS'sql'
p332
I1
sS'structure'
p333
I1
sS'faster'
p334
I1
sVbullet
p335
I1
sS'together'
p336
I1
sS'aetna'
p337
I5
sS'u'
I3
sS'time'
p338
I1
s.