(dp1
S'skills'
p2
(lp3
S'nlp'
p4
aS'soc'
p5
aS'classification'
p6
aS'owl'
p7
aS'ip'
p8
aS'communication'
p9
aS'information retrieval'
p10
aS'cluster'
p11
aS'analysis'
p12
aS'personalization'
p13
aS'ic'
p14
aS'regression'
p15
aS'python'
p16
aS'clustering'
p17
aS'statistics'
p18
aS'java'
p19
aS'big data'
p20
aS'excel'
p21
aS'hadoop'
p22
aS'research'
p23
aS'cell'
p24
aS'statistica'
p25
aS'rf'
p26
aS'fraud detection'
p27
aS'computer science'
p28
aS'visio'
p29
aS'pl'
p30
aS'machine vision'
p31
aS'social network analysis'
p32
aS'data scientist'
p33
aS'c'
aS'hive'
p34
aS'oop'
p35
aS'statistical modeling'
p36
aS'sql'
p37
aS'modeling'
p38
aS'spark'
p39
aS'data'
p40
aS'a'
aS'search'
p41
aS'fraud'
p42
aS'collaborative filtering'
p43
aS'vis'
p44
aS'science'
p45
aS'scikit-learn'
p46
aS'c++'
p47
aS'machine learning'
p48
aS'r'
aS'operations research'
p49
aS'lte'
p50
aS'statistical inference'
p51
aS'cro'
p52
aS'statistical analysis'
p53
asS'working-year'
p54
(lp55
S'5 year'
p56
asS'major'
p57
(lp58
S'information'
p59
aS'statistics'
p60
aS'business'
p61
aS'big data'
p62
aS'ee'
p63
aS'science'
p64
aS'communication'
p65
aS'computer science statistics'
p66
aS'machine learning'
p67
aS'design'
p68
aS'operations research'
p69
aS'statistic'
p70
aS'phd'
p71
aS'information retrieval'
p72
aS'machine learning engineer'
p73
aS'statistics operations research'
p74
aS'computer science'
p75
asS'education'
p76
(lp77
VBachelor
p78
aVMaster
p79
aVDoctor
p80
asS'responsibility'
p81
(lp82
S'information'
p83
aS'design'
p84
aS'product'
p85
aS'analysis'
p86
aS'statistical model'
p87
aS'understand'
p88
aS'modeling'
p89
aS'implement'
p90
aS'model'
p91
as.