(dp1
S'skills'
p2
(lp3
S'programming'
p4
aS'ip'
p5
aS'vis'
p6
aS'engineering'
p7
aS'go'
p8
aS'ic'
p9
aVpanda
p10
aS'r d'
p11
aS'statistics'
p12
aS'java'
p13
aS'big data'
p14
aS'deep learning'
p15
aS'excel'
p16
aS'cell'
p17
aS'statistica'
p18
aS'envi'
p19
aS'optimization'
p20
aS'computer science'
p21
aS'sem'
p22
aS'communication'
p23
aS'numpy'
p24
aS'pandas'
p25
aS'pl'
p26
aS'processing'
p27
aS'python'
p28
aS'natural language processing'
p29
aS'data scientist'
p30
aS'sql'
p31
aS'modeling'
p32
aS'spark'
p33
aS'db2'
p34
aS'data'
p35
aS'statistical programming'
p36
aS'a'
aS'c'
aS'fraud'
p37
aS'science'
p38
aS'scikit-learn'
p39
aS'hive'
p40
aS'machine learning'
p41
aS'r'
asS'working-year'
p42
(lp43
S'4 year'
p44
aS'2 year'
p45
asS'major'
p46
(lp47
S'statistics'
p48
aS'business'
p49
aS'big data'
p50
aS'ee'
p51
aS'science'
p52
aS'statistic'
p53
aS'communication'
p54
aS'machine learning'
p55
aS'engineering'
p56
aS'computer science engineering'
p57
aS'computer science'
p58
aS'natural language processing'
p59
aS'phd'
p60
asS'education'
p61
(lp62
VBachelor
p63
aVMaster
p64
aVDoctor
p65
asS'responsibility'
p66
(lp67
S'product'
p68
aS'processing'
p69
aS'optimization'
p70
aS'ownership'
p71
aS'modeling'
p72
aS'model'
p73
as.