(dp1
S'skills'
p2
(lp3
S'owl'
p4
aS'r d'
p5
aS'ip'
p6
aS'vis'
p7
aS'ant'
p8
aS'analytics'
p9
aS'angularjs'
p10
aS'ic'
p11
aS'd3'
p12
aS'visualization'
p13
aS'management'
p14
aS'java'
p15
aS'data'
p16
aS'tableau'
p17
aS'strategy'
p18
aS'ssis'
p19
aS'html'
p20
aS'computer science'
p21
aS'ruby rails'
p22
aS'css'
p23
aS'calculus'
p24
aS'envi'
p25
aS'web design'
p26
aS'algebra'
p27
aS'python'
p28
aS'spotfire'
p29
aS'javascript'
p30
aS'data scientist'
p31
aS'strategic thinking'
p32
aS'leadership'
p33
aS'modeling'
p34
aS'ruby'
p35
aS'a'
aS'c'
aS'database management'
p36
aS'science'
p37
aS'programming'
p38
aS'c++'
p39
aS'r'
aS'pl'
p40
aS'linear algebra'
p41
aS'organization'
p42
aS'cro'
p43
aS'cad'
p44
asS'working-year'
p45
(lp46
S'5 year'
p47
aS'2-5 year'
p48
asS'major'
p49
(lp50
S'arts'
p51
aS'management'
p52
aS'ee'
p53
aS'science'
p54
aS'journalism'
p55
aS'analytics'
p56
aS'design'
p57
aS'computer science'
p58
aS'ee computer science'
p59
asS'education'
p60
(lp61
VBachelor
p62
aVMaster
p63
asS'responsibility'
p64
(lp65
S'development'
p66
aS'communicate'
p67
aS'analytic'
p68
aS'design'
p69
aS'modeling'
p70
aS'understand'
p71
aS'implement'
p72
aS'model'
p73
as.