(dp1
S'diseases.'
p2
I1
sS'atmosphere'
p3
I1
sS'particularly'
p4
I1
sS'transcriptome'
p5
I1
sS'certification'
p6
I1
sS'affirms'
p7
I1
sS'accurate'
p8
I1
sS'school-affiliated'
p9
I1
sS'mission'
p10
I1
sS'existing'
p11
I1
sS'scientist'
p12
I2
sS'including'
p13
I2
sS'statistical'
p14
I2
sS'innovative'
p15
I1
sS'carefully'
p16
I1
sS'biologist'
p17
I1
sS'systematic'
p18
I1
sS'computational biology'
p19
I2
sS'r d'
p20
I1
sS'machine'
p21
I2
sS'group'
p22
I1
sS'classification'
p23
I1
sS'candidate'
p24
I1
sS'application'
p25
I2
sS'technique'
p26
I2
sS'disability'
p27
I1
sS'ideal'
p28
I1
sS'employer'
p29
I1
sS'environment'
p30
I2
sS'age'
p31
I2
sS'critical'
p32
I1
sS'biomedical'
p33
I1
sS'extensive'
p34
I1
sS'include'
p35
I2
sS'guided'
p36
I1
sS'ally'
p37
I1
sS'computer science'
p38
I2
sS'skilled'
p39
I1
sS'motivated'
p40
I2
sS'interdisciplinary'
p41
I2
sS'seeking'
p42
I2
sS'python'
p43
I1
sS'conduct'
p44
I2
sS'focus'
p45
I3
sS'joint'
p46
I1
sS'qualified'
p47
I1
sS'every'
p48
I1
sS'interpreting'
p49
I1
sS'background'
p50
I1
sS'sequencing'
p51
I2
sS'world'
p52
I1
sS'locus'
p53
I1
sS'academic/professional'
p54
I1
sS'physician/researchers'
p55
I1
sS'association'
p56
I1
sS'formal'
p57
I1
sS'desire'
p58
I1
sS'immunology'
p59
I1
sS'data scientist'
p60
I1
sS'gender'
p61
I1
sS'signal'
p62
I1
sS'compassionate'
p63
I1
sS'extremely'
p64
I1
sS'comprising'
p65
I1
sS'capability'
p66
I1
sS'race'
p67
I1
sS'common'
p68
I1
sS'team'
p69
I2
sS'identify'
p70
I1
sS'discoveries.'
p71
I1
sVrequirement
p72
I1
sS'problems.'
p73
I1
sS'immunotherapeutic'
p74
I1
sS'people'
p75
I1
sS'antigen'
p76
I1
sS'national'
p77
I1
sS'creation'
p78
I1
sS'0 year'
p79
I2
sS'related'
p80
I1
sS'alteration'
p81
I1
sS'surrounding'
p82
I1
sS'combining'
p83
I1
sS'genomic'
p84
I2
sS'polymorphic'
p85
I1
sS'employment'
p86
I1
sVskill
p87
I2
sS'best'
p88
I1
sS'educate'
p89
I1
sS'and/or'
p90
I1
sS'collaborative'
p91
I1
sS'scala'
p92
I1
sS'immunogenomic'
p93
I1
sS'pattern'
p94
I1
sS'currently'
p95
I1
sS'future'
p96
I1
sS'/'
I2
sS'research'
p97
I2
sS'religion'
p98
I1
sS'written'
p99
I1
sS'experiment'
p100
I1
sS'conquering'
p101
I1
sS'protected'
p102
I2
sS'approach'
p103
I1
sS'thrive'
p104
I1
sS'discovery'
p105
I1
sS'comparable'
p106
I1
sS'data analysis'
p107
I2
sS'patient'
p108
I2
sS'ability'
p109
I2
sS'degree'
p110
I1
sS'ph.d.'
p111
I1
sS'equivalent'
p112
I2
sS'status'
p113
I1
sS'expansion'
p114
I1
sS'harvard'
p115
I1
sS'consideration'
p116
I1
sS'care'
p117
I1
sS'software development'
p118
I1
sS'advance'
p119
I1
sS'pipeline'
p120
I1
sS'central'
p121
I1
sS'talented'
p122
I1
sS'institute'
p123
I2
sS'study'
p124
I1
sS'equal'
p125
I1
sS'experience'
p126
I4
sS'prior'
p127
I1
sS'ancestry'
p128
I1
sS'rna-seq'
p129
I1
sS'positive'
p130
I1
sS'military'
p131
I1
sS'contribution'
p132
I1
sS'plus.'
p133
I1
sS'facilitate'
p134
I1
sS'experimental'
p135
I1
sS'genuinely'
p136
I1
sS'origin'
p137
I1
sS'computational'
p138
I5
sS'cancer'
p139
I5
sS'characterization'
p140
I1
sS'researcher'
p141
I1
sS'communication'
p142
I1
sS'within'
p143
I1
sS'coding'
p144
I1
sS'primary'
p145
I1
sS'community'
p146
I2
sS'highly'
p147
I3
sS'color'
p148
I1
sS'right'
p149
I1
sS'analyzing'
p150
I1
sS'solve'
p151
I1
sS'learning'
p152
I2
sS'apply'
p153
I1
sS'matlab'
p154
I1
sS'big data'
p155
I2
sS'orientation'
p156
I1
sS'sexual'
p157
I1
sS'java'
p158
I1
sS'service'
p159
I1
sS'cancer.'
p160
I1
sS'.'
I1
sS'genetic'
p161
I1
sS'clinical'
p162
I1
sS'identity'
p163
I1
sS'experience.'
p164
I1
sS'technical'
p165
I1
sS'noisy'
p166
I1
sS'knowledge'
p167
I2
sS'hiv/aids'
p168
I1
sS'building'
p169
I1
sS'success.'
p170
I1
sS'brings'
p171
I1
sS'tool'
p172
I2
sS'regard'
p173
I1
sS'computer science engineering'
p174
I1
sS'training'
p175
I1
sS'self-directed'
p176
I1
sS'dana-farber'
p177
I2
sS'excellent'
p178
I1
sS'receive'
p179
I1
sS'computational biolog'
p180
I1
sS'careful'
p181
I1
sS'effort'
p182
I1
sS'single-cell'
p183
I1
sS'must'
p184
I1
sS'physician'
p185
I1
sS'novel'
p186
I1
sS'developing'
p187
I2
sS'statistical analysis'
p188
I1
sS'work'
p189
I3
sS'sex'
p190
I1
sS'research.'
p191
I1
sS'machine learning'
p192
I2
sS'project'
p193
I3
sS"tomorrow's"
p194
I1
sS'individual'
p195
I2
sS'intellectually'
p196
I1
sS'next-generation'
p197
I1
sS'enthusiastic'
p198
I1
sS'extracting'
p199
I1
sS'dedicated'
p200
I1
sS'challenging'
p201
I1
sS'languages/environments'
p202
I1
sS'boston'
p203
I1
sS'statistic'
p204
I2
sS'treatment.'
p205
I1
sS'analysis'
p206
I1
sS'partner'
p207
I1
sS'computer science mathematics'
p208
I1
sS'technology'
p209
I1
sS'information'
p210
I1
sS'renowned'
p211
I1
sS'tools.'
p212
I1
sS'provide'
p213
I1
sS'biology.'
p214
I1
sS'veteran'
p215
I1
sS'treatment'
p216
I1
sS'member'
p217
I1
sS'located'
p218
I1
sS'amazing'
p219
I1
sS'complex'
p220
I1
sS'genome'
p221
I1
sS'production-grade'
p222
I1
sS'mathematics'
p223
I1
sS'parameter'
p224
I1
sS'opportunity'
p225
I1
sS'immune-related'
p226
I2
sS'development'
p227
I3
sS'c/c++'
p228
I1
sS'may'
p229
I1
sS'comprehensive'
p230
I1
sS'reach'
p231
I1
sS'law.'
p232
I1
sS'proficiency'
p233
I1
sS'state-of-the-art'
p234
I1
sS'significant'
p235
I1
sS'position'
p236
I1
sS'robust'
p237
I2
sS'hospitals.'
p238
I1
sS'data'
p239
I2
sS'physic'
p240
I2
sS"master's"
p241
I1
sS'bioinformaticians'
p242
I1
sS'algorithm'
p243
I2
sS'expression'
p244
I1
sS'medical'
p245
I1
sS'applicant'
p246
I1
sS'together'
p247
I1
sS'efficient'
p248
I1
sS'without'
p249
I1
sS'high-throughput'
p250
I1
sS'underserved'
p251
I1
sS'professional'
p252
I1
sS'software'
p253
I2
sS'oral'
p254
I1
sS'clinician'
p255
I1
s.