(dp1
S'economics statistics'
p2
I1
sS'focus'
p3
I2
sS'four'
p4
I1
sS'integrity'
p5
I2
sS'self-starter'
p6
I1
sS'number'
p7
I1
sS'technique'
p8
I2
sS'environment'
p9
I1
sS'program'
p10
I1
sS'position.'
p11
I1
sS'pride'
p12
I1
sS'downstream'
p13
I2
sS'balancing'
p14
I1
sS'upstream'
p15
I2
sS'vast'
p16
I1
sS'large'
p17
I1
sS'team'
p18
I3
sS'discover'
p19
I1
sS'data analysis'
p20
I2
sS'ensure accuracy'
p21
I1
sVassociate
p22
I3
sS'access'
p23
I1
sS'new'
p24
I1
sS'contributes'
p25
I1
sS'degree'
p26
I1
sS'understanding'
p27
I1
sS'desired'
p28
I1
sVbachelor
p29
I1
sS'strong'
p30
I1
sS'vba'
p31
I1
sS'30'
p32
I1
sS'grandes'
p33
I2
sS'experience'
p34
I5
sS'amount'
p35
I1
sS'family'
p36
I1
sS'collaborating'
p37
I1
sS'highly'
p38
I1
sS'analyzing'
p39
I1
sS'aptitude'
p40
I1
sS'1st'
p41
I1
sS'ii.'
p42
I1
sS'statistics operations research'
p43
I1
sS'confidence'
p44
I1
sS'working'
p45
I2
sS'positive'
p46
I1
sS'governance'
p47
I3
sS'complex data set'
p48
I1
sS'organization.'
p49
I1
sS'wi.'
p50
I1
sS'company'
p51
I1
sS'phone'
p52
I1
sS'train'
p53
I1
sS'excellent'
p54
I1
sS'striving'
p55
I1
sS'customer'
p56
I1
sS'involve'
p57
I1
sS'include'
p58
I1
sS'f'
I1
sS'work'
p59
I3
sS'following'
p60
I2
sS'control'
p61
I2
sS'process'
p62
I4
sS'topic'
p63
I1
sS'effectively'
p64
I3
sS'provide'
p65
I1
sS'tableau'
p66
I1
sS'description'
p67
I1
sS'use'
p68
I1
sS'lac'
p69
I3
sS'products.'
p70
I1
sS'remediation'
p71
I1
sS'data'
p72
I9
sS'ambiguous'
p73
I1
sS'third'
p74
I1
sS'responsibility'
p75
I4
sS'grande'
p76
I6
sVsa
p77
I1
sS'help'
p78
I2
sS'office'
p79
I1
sS'insight'
p80
I1
sS'attitude'
p81
I1
sS'including'
p82
I1
sS'committed'
p83
I1
sS'17-0053'
p84
I1
sS'group'
p85
I1
sS'better'
p86
I1
sS'platform'
p87
I2
sS'policy'
p88
I1
sS'hidden'
p89
I1
sS'food'
p90
I1
sS'smarter'
p91
I1
sS'practice'
p92
I1
sS'r/sas'
p93
I1
sS'framework'
p94
I2
sS'maintaining'
p95
I1
sS'troubleshoot'
p96
I1
sS'establishing'
p97
I1
sS'data analytics'
p98
I2
sS'related'
p99
I4
sVoperation
p100
I1
sS'category'
p101
I1
sS'looking'
p102
I1
sS'investigation'
p103
I1
sS'performs'
p104
I1
sS'issue'
p105
I3
sS'workflow'
p106
I1
sS'provide leadership'
p107
I1
sS'data scientist'
p108
I1
sS'excel/access'
p109
I1
sS'standard'
p110
I3
sS'business analytics'
p111
I2
sS'definition'
p112
I1
sS'training'
p113
I1
sVlanguage
p114
I1
sS'programming'
p115
I1
sS'place'
p116
I1
sS'8-4'
p117
I1
sS'cheese'
p118
I2
sS'major'
p119
I2
sS'primary'
p120
I1
sS'one'
p121
I2
sS'utilized'
p122
I1
sS'another'
p123
I1
sS'quality'
p124
I4
sS'engineer'
p125
I5
sS'facilitation'
p126
I1
sS'management'
p127
I2
sS'service'
p128
I1
sS'advanced analytics'
p129
I2
sS'tool'
p130
I1
sS'manipulation'
p131
I1
sS'target'
p132
I1
sS'project'
p133
I3
sS'compensation'
p134
I2
sS'proactive'
p135
I1
sS'business intelligence analytics'
p136
I1
sS'comfortable'
p137
I1
sS'scorecard'
p138
I1
sS'business intelligence'
p139
I1
sS'emphasizing'
p140
I1
sS'need'
p141
I2
sS'clearly'
p142
I1
sS'-'
I2
sS'thorough'
p143
I1
sS'also'
p144
I1
sS'high'
p145
I1
sS'internal'
p146
I2
sVbuild
p147
I1
sS'performance'
p148
I1
sS'channel'
p149
I1
sS'involving'
p150
I1
sS'position'
p151
I3
sS'mobile'
p152
I1
sS'flow'
p153
I1
sS'drive'
p154
I2
sS'enterprise'
p155
I6
sS'senior'
p156
I1
sS'fond'
p157
I3
sS'participate'
p158
I1
sS'r d'
p159
I1
sS'desired.'
p160
I1
sS'knowledge'
p161
I1
sS'title'
p162
I1
sS'state'
p163
I1
sS'analytic'
p164
I1
sS'various'
p165
I1
sS'preferred'
p166
I2
sS'valuable'
p167
I1
sS'report'
p168
I1
sS'du'
p169
I3
sS'closure'
p170
I1
sS'resolve'
p171
I1
sS'communicates'
p172
I1
sS'common'
p173
I1
sS'analytical'
p174
I1
sS'requirement'
p175
I3
sS'set'
p176
I1
sS'intelligence'
p177
I1
sS'analytics'
p178
I5
sS'best'
p179
I1
sS'creating'
p180
I1
sS'familiarity'
p181
I1
sS'written'
p182
I1
sS'identification'
p183
I1
sS'approach'
p184
I1
sS'across'
p185
I3
sS'tableau/qlikview/spotfire/etc.'
p186
I1
sS'deliver'
p187
I2
sS'stakeholder'
p188
I3
sS'alteryx'
p189
I1
sS'wi'
p190
I1
sS'job'
p191
I3
sS'key'
p192
I3
sS'excellence.'
p193
I1
sS'full-time'
p194
I1
sS'data visualization'
p195
I1
sS'taking'
p196
I1
sS'service/manufacturing'
p197
I1
sS'd3/html'
p198
I1
sVduty
p199
I5
sS'forecasting'
p200
I1
sS'point'
p201
I1
sS'data science'
p202
I2
sS'2nd'
p203
I1
sS'data mining'
p204
I3
sS'respect'
p205
I1
sS'trust'
p206
I1
sS'i.e.'
p207
I3
sS'three'
p208
I1
sS'trigger'
p209
I1
sS'maintenance'
p210
I1
sS'flexible'
p211
I1
sS'operations research'
p212
I2
sS'define'
p213
I1
sS'direction'
p214
I1
sS'modelling'
p215
I1
sS'gap'
p216
I2
sS'case'
p217
I1
sS'developing'
p218
I2
sS'ongoing'
p219
I1
sS'dashboard'
p220
I2
sS'metric'
p221
I1
sS'ii'
p222
I1
sS'statistical analysis'
p223
I1
sS'technology'
p224
I3
sS'develop'
p225
I4
sS'specialization'
p226
I1
sS'perform'
p227
I1
sS'make'
p228
I2
sS'hadoop'
p229
I1
sS'member'
p230
I2
sS'complex'
p231
I1
sS'party'
p232
I1
sS'status'
p233
I1
sS'assist'
p234
I2
sS'director'
p235
I1
sS'ownership'
p236
I1
sS'tradition'
p237
I1
sS'information systems'
p238
I1
sS'center'
p239
I1
sS'database'
p240
I1
sS'prioritize'
p241
I1
sS'well'
p242
I2
sS'analysis'
p243
I3
sS'client'
p244
I1
sS'solve'
p245
I1
sS'consistency'
p246
I1
sS'coordinate'
p247
I1
sS'quantitative'
p248
I1
sS'model'
p249
I3
sS'nosql'
p250
I1
sS'storage'
p251
I1
sS'competitive'
p252
I1
sS'identify'
p253
I1
sVskill
p254
I4
sS'visualization'
p255
I3
sS'field'
p256
I1
sS'location'
p257
I1
sS'city'
p258
I1
sS'required.'
p259
I1
sS'tradition.'
p260
I1
sS'using'
p261
I2
sS'execution'
p262
I1
sS'advanced'
p263
I5
sS'standardization'
p264
I1
sS'success'
p265
I1
sS'qualitative'
p266
I1
sS'performing'
p267
I2
sS'specific'
p268
I1
sS'verbal'
p269
I1
sS'recommendation'
p270
I1
sS'home'
p271
I1
sS'and/or'
p272
I1
sS'demonstrates'
p273
I1
sS'decision'
p274
I1
sS'contributing'
p275
I1
sS'demonstrated'
p276
I1
sS'models.'
p277
I1
sS'business'
p278
I6
sS'schedule'
p279
I1
sS'bi'
p280
I1
sS'ability'
p281
I2
sS'peer'
p282
I1
sS'java'
p283
I1
sS'conducting'
p284
I1
sS'central'
p285
I1
sS'package'
p286
I1
sS'industry'
p287
I1
sS'spss'
p288
I1
sS'information system'
p289
I1
sS'ensure'
p290
I1
sS'msft'
p291
I1
sS'communication'
p292
I2
sS'area'
p293
I5
sS'support'
p294
I3
sS'question'
p295
I1
sS'finance accounting'
p296
I1
sS'analyze'
p297
I1
sS'systems engineering'
p298
I2
sS'4 year'
p299
I1
sS'applying'
p300
I2
sS'proactively'
p301
I1
sS'ui'
p302
I1
sS'etc.'
p303
I4
sS'strongly'
p304
I1
sVstatistic
p305
I1
sS'proven'
p306
I1
sS'data governance'
p307
I1
sS'education'
p308
I1
sS'fill'
p309
I1
sS'mutual'
p310
I1
sS'variety'
p311
I1
sS'excel'
p312
I1
sS'application'
p313
I2
sS'role'
p314
I1
sS'computer science'
p315
I2
sS'requested'
p316
I2
sS'helping'
p317
I1
sS'generated'
p318
I1
sS'sql'
p319
I1
sS'structure'
p320
I3
sS'building'
p321
I1
sS'required'
p322
I3
sS'business strategy'
p323
I1
sS'together'
p324
I1
sS'requisition'
p325
I1
sS'u'
I1
sS'presenting'
p326
I1
sS'oracle'
p327
I1
sS'resolution'
p328
I1
s.