(dp1
S'skills'
p2
(lp3
S'programming'
p4
aS'communication'
p5
aS'ant'
p6
aS'vis'
p7
aS'business intelligence'
p8
aS'statistical analysis'
p9
aS'data mining'
p10
aS'sas'
p11
aS'ic'
p12
aS'regression'
p13
aS'visualization'
p14
aS'statistics'
p15
aS'gis'
p16
aS'scala'
p17
aS'lua'
p18
aS'ssas'
p19
aS'tableau'
p20
aS'strategy'
p21
aS'statistica'
p22
aS'rf'
p23
aS'computer science'
p24
aS'ip'
p25
aS'intelligence'
p26
aS'pl'
p27
aS'python'
p28
aS'data scientist'
p29
aS'java'
p30
aS'data'
p31
aS'a'
aS'c'
aS'analytics'
p32
aS'science'
p33
aS'business strategy'
p34
aS'analysis'
p35
aS'machine learning'
p36
aS'r'
aS'dashboard'
p37
aS'logistic regression'
p38
aS'cro'
p39
aS'data analytics'
p40
asS'working-year'
p41
(lp42
S'0 year'
p43
asS'major'
p44
(lp45
S'statistics'
p46
aS'business'
p47
aS'ee'
p48
aS'science'
p49
aS'machine learning statistics'
p50
aS'statistic'
p51
aS'machine learning data mining'
p52
aS'analytics'
p53
aS'computer science'
p54
aS'data mining'
p55
aS'communication'
p56
aS'machine learning'
p57
aS'computer science machine learning'
p58
aS'data analytics'
p59
asS'education'
p60
(lp61
VBachelor
p62
aVMaster
p63
asS'responsibility'
p64
(lp65
S'large data set'
p66
aS'exploratory analysis'
p67
aS'predict'
p68
aS'pattern'
p69
aVinsight
p70
aS'communicate'
p71
aS'analysis'
p72
aS'analytic'
p73
aS'understand'
p74
aS'data mining'
p75
aS'report'
p76
aS'model'
p77
aS'presentation'
p78
as.