(dp1
S'advisory'
p2
I1
sS'data scientist'
p3
I1
sS'consider'
p4
I1
sS'text'
p5
I1
sS'insight'
p6
I1
sS'tagging'
p7
I1
sS'named'
p8
I1
sS'entity'
p9
I1
sS'four'
p10
I1
sS'sentiment analysis'
p11
I1
sS'scientist'
p12
I1
sS'entropy'
p13
I1
sS'marketing research'
p14
I2
sS'ga'
p15
I1
sS'innovative'
p16
I1
sS'sponsorship'
p17
I1
sS'big data'
p18
I2
sS'title'
p19
I1
sS'office.'
p20
I1
sS'accredited'
p21
I1
sS'environment'
p22
I4
sS'data analytics'
p23
I2
sS'team.'
p24
I1
sS'location'
p25
I1
sS'131192'
p26
I1
sS'criminal'
p27
I1
sS'presentation'
p28
I1
sS'computer science'
p29
I2
sS'real'
p30
I1
sS'extraction'
p31
I1
sS'viewpoint'
p32
I2
sS'seeking'
p33
I1
sS'practice'
p34
I1
sS'preferred'
p35
I1
sS'number'
p36
I1
sS'unstructured'
p37
I1
sS'text classification'
p38
I1
sS'qualified'
p39
I1
sS'fastest'
p40
I1
sS'background'
p41
I1
sS'please.'
p42
I1
sS'report'
p43
I1
sS'using'
p44
I4
sS'advanced'
p45
I3
sS'career.'
p46
I1
sS'fortune'
p47
I1
sS'like'
p48
I1
sS'amazon ec2'
p49
I1
sS'employer/disability/veteran.'
p50
I1
sS'mapreduce'
p51
I1
sS'hive'
p52
I1
sS'large'
p53
I2
sS'benefit'
p54
I1
sS'vector'
p55
I1
sS'excellence'
p56
I1
sS'team'
p57
I1
sS'identify'
p58
I1
sS'passionate'
p59
I1
sS'classifier'
p60
I1
sS'francisco'
p61
I1
sS'mathematical'
p62
I1
sS'domain'
p63
I1
sS'statistical'
p64
I1
sS'package.'
p65
I1
sS'encourages'
p66
I1
sS'tree'
p67
I1
sS'consistent'
p68
I1
sS'related'
p69
I2
sS'applicable'
p70
I1
sS'growth'
p71
I1
sS'result'
p72
I2
sS'kpmg'
p73
I6
sS'others.'
p74
I1
sS'college/university'
p75
I1
sS'best'
p76
I1
sS'wonder'
p77
I1
sS'educate'
p78
I1
sS'and/or'
p79
I1
sS'degree'
p80
I1
sS'federal'
p81
I1
sS'pattern'
p82
I1
sS'decision'
p83
I1
sS'currently'
p84
I2
sS'four year'
p85
I1
sS'content'
p86
I1
sS'consistently'
p87
I1
sVstate
p88
I2
sS'optimization'
p89
I1
sS'method'
p90
I4
sS'maintains'
p91
I1
sS'ability'
p92
I2
sS'u.s.'
p93
I1
sS'processing'
p94
I3
sS'communicate'
p95
I1
sS'delivering'
p96
I1
sS'business analytics'
p97
I2
sS'job'
p98
I1
sS'ranked'
p99
I1
sS'focused'
p100
I1
sS'strong'
p101
I2
sS'others'
p102
I1
sVphysic
p103
I1
sS'spark'
p104
I1
sS'industries.'
p105
I1
sS'generate'
p106
I1
sS'workplace.'
p107
I1
sS'great'
p108
I1
sS'service'
p109
I2
sS'language'
p110
I1
sS'equal'
p111
I1
sS'experience'
p112
I2
sS'local'
p113
I1
sS'magazine'
p114
I3
sS'visa'
p115
I1
sS'place'
p116
I1
sS'scripting'
p117
I1
sS"today's"
p118
I1
sS'hypothesis'
p119
I1
sS'implement'
p120
I1
sS'history'
p121
I1
sS'create'
p122
I1
sS'software'
p123
I1
sS'among'
p124
I1
sS'consulting'
p125
I1
sS'engagement'
p126
I1
sS'classification'
p127
I1
sS'large-scale'
p128
I1
sS'bioinformatics'
p129
I1
sS'requirement'
p130
I1
sS'linux'
p131
I1
sS'quality'
p132
I1
sS'cloud'
p133
I1
sS'clustering'
p134
I1
sS"you're"
p135
I1
sS'working'
p136
I3
sS'area'
p137
I2
sS"it's"
p138
I2
sS'support'
p139
I4
sS'structured'
p140
I1
sS'mathematical/statis'
p141
I1
sS'logistic regression'
p142
I1
sS'.'
I1
sS'needed'
p143
I1
sVmaster
p144
I1
sS"we're"
p145
I1
sS'interest'
p146
I1
sS'part-of-speech'
p147
I1
sS'call'
p148
I1
sS'analyze'
p149
I3
sS'operations research'
p150
I2
sS'authorized'
p151
I1
sS'firm'
p152
I1
sS'field'
p153
I2
sS'ordinance'
p154
I1
sS'diversity'
p155
I1
sS'storm'
p156
I1
sS'offer'
p157
I1
sS'company'
p158
I1
sS'phone'
p159
I1
sS'product development'
p160
I1
sS'understand'
p161
I1
sS'computational linguistics'
p162
I2
sS'known'
p163
I1
sS'natural'
p164
I1
sS'atlanta'
p165
I2
sS'62767'
p166
I1
sS'must'
p167
I1
sS'clients.'
p168
I1
sS'georgia'
p169
I1
sS'join'
p170
I2
sS'intuitive'
p171
I1
sS'culture'
p172
I1
sS'hadoop'
p173
I1
sS'work'
p174
I4
sS'enabled'
p175
I1
sS'maximum'
p176
I1
sS'compensation'
p177
I1
sS'future'
p178
I2
sS'historical'
p179
I1
sS'growing'
p180
I1
sS'recognition'
p181
I1
sS'text mining'
p182
I1
sVapplicant
p183
I2
sS'san'
p184
I1
sS'inclusive'
p185
I1
sS'process'
p186
I1
sS'semi-structured'
p187
I1
sVstatistic
p188
I1
sS'tax'
p189
I1
sS'mine'
p190
I1
sS'pig'
p191
I1
sS'topic'
p192
I1
sS'cluster'
p193
I1
sS'engineering'
p194
I1
sS'diverse'
p195
I1
sS'embrace'
p196
I1
sS'manner'
p197
I1
sS'need'
p198
I1
sS'communities.'
p199
I1
sS'public policy'
p200
I2
sS'united'
p201
I1
sS'develop'
p202
I2
sS'drug-free'
p203
I1
sS'provide'
p204
I1
sS'employment'
p205
I1
sS'agency'
p206
I1
sS'utilize'
p207
I1
sS'machine'
p208
I1
sS'also'
p209
I1
sS'client'
p210
I1
sS'build'
p211
I2
sS'natural language processing'
p212
I2
sS'test'
p213
I1
sS'mathematics'
p214
I1
sS'document'
p215
I1
sS'unstructured data'
p216
I1
sS'development'
p217
I1
sVoperation
p218
I1
sVqualification
p219
I1
sS'statistical method'
p220
I1
sS'comprehensive'
p221
I1
sS'risk management'
p222
I1
sS'phd'
p223
I1
sS'driven'
p224
I1
sS'generated'
p225
I1
sS'important'
p226
I1
sS'user'
p227
I1
sS'professional'
p228
I2
sS'including'
p229
I1
sS'law'
p230
I1
sS'data'
p231
I7
sS'structure'
p232
I1
sS'audit'
p233
I1
sS'individual'
p234
I1
sS'command-line'
p235
I1
sS'algorithm'
p236
I3
sS'business process'
p237
I1
sS'amount'
p238
I2
sS'prepare'
p239
I1
sS'drive'
p240
I1
sS'analysis'
p241
I2
sS'without'
p242
I1
sS'perform'
p243
I3
sS'requisition'
p244
I1
sVresponsibility
p245
I1
sS'mother'
p246
I1
sS'organization'
p247
I1
sS'model'
p248
I1
sS'reward'
p249
I1
sS'opportunity'
p250
I1
sS'inc.'
p251
I1
s.