(dp1
S'limited'
p2
I1
sS'code'
p3
I1
sS'global'
p4
I1
sS'dynamic'
p5
I1
sS'focus'
p6
I1
sS'executing'
p7
I1
sS'deadline'
p8
I1
sS'ga'
p9
I1
sS'integrity'
p10
I1
sS'looking'
p11
I1
sS'zone'
p12
I1
sS'disability'
p13
I2
sS'send'
p14
I1
sS'environment'
p15
I2
sS'program'
p16
I1
sS'matlab'
p17
I1
sS'include'
p18
I2
sS'collaborate'
p19
I1
sS'innovation'
p20
I1
sS'condition'
p21
I2
sS'grid computing'
p22
I1
sS'solver'
p23
I1
sS'gender'
p24
I4
sS'solution'
p25
I10
sS'hive'
p26
I3
sS'large'
p27
I2
sS'race'
p28
I2
sS'team'
p29
I6
sS'enhance'
p30
I1
sS'revolution'
p31
I1
sS'prediction'
p32
I2
sS'thinker'
p33
I1
sS'design'
p34
I3
sS'sustaining'
p35
I1
sS'established'
p36
I1
sS'current'
p37
I2
sS'relational'
p38
I1
sS'pioneering'
p39
I1
sS'specialist'
p40
I1
sS'degree'
p41
I1
sS'commercial'
p42
I1
sS'understanding'
p43
I1
sS'statistical modeling'
p44
I1
sS'strong'
p45
I2
sS'health sciences'
p46
I1
sS'technical'
p47
I1
sS'experience'
p48
I9
sS'yourself.'
p49
I1
sS'here.'
p50
I1
sS'company.'
p51
I1
sS'collaborating'
p52
I1
sS'flexibility'
p53
I2
sS'api'
p54
I1
sS'apply'
p55
I1
sS'establish'
p56
I1
sS'cloud'
p57
I2
sS'open source'
p58
I1
sS'working'
p59
I3
sS'perl'
p60
I1
sS'call'
p61
I1
sS'company'
p62
I3
sS'must'
p63
I1
sS'genetic algorithms'
p64
I1
sS'join'
p65
I1
sS'setup'
p66
I1
sS'work'
p67
I3
sS'machine learning'
p68
I2
sS'hidden markov models'
p69
I1
sS'growing'
p70
I1
sS'making'
p71
I1
sS'example'
p72
I1
sS'scripting'
p73
I1
sS'process'
p74
I3
sS'expanding'
p75
I2
sS'recognized'
p76
I1
sS'want'
p77
I1
sS'goal'
p78
I1
sS'provide'
p79
I1
sS'machine'
p80
I2
sS'cotiviti.'
p81
I1
sS'cotiviti'
p82
I5
sS'product'
p83
I2
sS'description'
p84
I1
sS'may'
p85
I1
sS'capability.'
p86
I1
sS'improving'
p87
I1
sS'law'
p88
I2
sS'data'
p89
I4
sS'cotivitis'
p90
I1
sS'applicant'
p91
I2
sS'ordinance'
p92
I2
sS'maintain'
p93
I2
sVresponsibility
p94
I4
sS'healthcare'
p95
I5
sS'quantifiable'
p96
I1
sS'insight'
p97
I2
sS'scientist'
p98
I4
sS'including'
p99
I3
sS'statistical'
p100
I2
sS'innovative'
p101
I2
sS'hbase'
p102
I1
sS'rapidly'
p103
I1
sS'personal'
p104
I1
sS'better'
p105
I1
sS'platform'
p106
I2
sS'seeking'
p107
I1
sS'python'
p108
I4
sS'practice'
p109
I3
sS'number'
p110
I1
sS'execute'
p111
I1
sS'fully'
p112
I1
sS'establishing'
p113
I1
sS'capability'
p114
I3
sS'data analytics'
p115
I2
sS'front-end'
p116
I1
sS'status'
p117
I4
sS'mental'
p118
I2
sS'related'
p119
I2
sS'marital'
p120
I2
sS'ec2'
p121
I1
sS'et'
p122
I1
sS'sexual'
p123
I2
sS'network'
p124
I1
sS'driving'
p125
I1
sS'integrates'
p126
I1
sS'mahout'
p127
I2
sS'math'
p128
I1
sS'factor analysis'
p129
I1
sS'gut'
p130
I1
sS'data scientist'
p131
I1
sS'10 year'
p132
I2
sS'standard'
p133
I1
sS'adherence'
p134
I1
sS'15-0576'
p135
I1
sS'ancestry'
p136
I2
sS'growth.'
p137
I1
sS'advisor'
p138
I1
sS'language'
p139
I2
sS'programming'
p140
I2
sS'yarn'
p141
I1
sVqualification
p142
I1
sS'retail'
p143
I1
sS'origin'
p144
I2
sS'ability'
p145
I3
sS'probability'
p146
I1
sS'coding'
p147
I1
sS'primary'
p148
I1
sS'one'
p149
I3
sS'directly'
p150
I1
sS'carry'
p151
I1
sS'open'
p152
I2
sS'engineer'
p153
I1
sS'city'
p154
I1
sS'given'
p155
I1
sS'management'
p156
I1
sS'service'
p157
I1
sS'leading'
p158
I2
sVsystem
p159
I1
sS'least'
p160
I2
sS'storm'
p161
I1
sS'architecting'
p162
I2
sS'advanced analytics'
p163
I2
sS'national'
p164
I2
sS'store'
p165
I1
sS'relationship'
p166
I1
sS'tool'
p167
I2
sS'acquire'
p168
I1
sS'innovate'
p169
I1
sS'discrete event simulation'
p170
I1
sS'part'
p171
I2
sS'database'
p172
I4
sS'matter'
p173
I1
sS'r'
I1
sS'architect'
p174
I4
sS'friend'
p175
I1
sS'providing'
p176
I1
sS'debugging'
p177
I1
sS'documentation'
p178
I1
sS'customers.'
p179
I1
sS'willingness'
p180
I1
sS'substantial'
p181
I1
sS'cassandra'
p182
I1
sS'ex.'
p183
I1
sS'veteran'
p184
I2
sS'also'
p185
I1
sS'without'
p186
I2
sS'build'
p187
I5
sS'multiple'
p188
I1
sS'business.'
p189
I1
sS'extremely'
p190
I1
sS'payment'
p191
I1
sS'medical'
p192
I2
sVm
I1
sS'drive'
p193
I2
sS'federal'
p194
I2
sS'principle'
p195
I1
sS'professional'
p196
I1
sS'clinician'
p197
I1
sS'please'
p198
I1
sS'node.js'
p199
I1
sS'employer.'
p200
I3
sS'machine learning artificial intelligence'
p201
I1
sS'participate'
p202
I3
sS'aggressive'
p203
I1
sS'knowledge'
p204
I2
sS'big data'
p205
I2
sS'title'
p206
I1
sS'team.'
p207
I3
sS'integrate'
p208
I2
sS'local'
p209
I2
sS'regularly'
p210
I1
sS'expectation'
p211
I1
sS'phd.'
p212
I1
sS'amazon'
p213
I1
sS'new'
p214
I1
sS'regarding'
p215
I1
sS'architecture'
p216
I2
sS'characteristic'
p217
I2
sS'analytical'
p218
I3
sS'view'
p219
I1
sVrequirement
p220
I1
sS'set'
p221
I1
sS'sensitivity'
p222
I1
sS'analytics'
p223
I4
sS'best'
p224
I2
sS'innovator'
p225
I1
sS'expert'
p226
I5
sS'best-in-class'
p227
I1
sS'review'
p228
I1
sS'familiarity'
p229
I1
sS'big data analytics'
p230
I2
sS'state'
p231
I3
sS'protected'
p232
I2
sS'various'
p233
I1
sS'stata'
p234
I1
sS'creating'
p235
I2
sS'extend'
p236
I1
sS'deliver'
p237
I1
sS'job'
p238
I2
sS'succeed'
p239
I1
sS'interface'
p240
I1
sS'spark'
p241
I1
sS'industries.'
p242
I1
sS'improve'
p243
I1
sS'enables'
p244
I1
sS'career'
p245
I1
sS'equal'
p246
I6
sS'logic'
p247
I1
sS'contribution'
p248
I1
sS'expression'
p249
I2
sS'relevant'
p250
I2
sS'first-in-market'
p251
I2
sS'color'
p252
I2
sS'whatever'
p253
I2
sS'learning'
p254
I2
sS'pregnancy'
p255
I2
sS'technologist'
p256
I1
sS'conference'
p257
I1
sS'childbirth'
p258
I2
sS'java'
p259
I1
sS'powered'
p260
I1
sS'create'
p261
I1
sS'backends'
p262
I1
sS'interest'
p263
I1
sS'basic'
p264
I1
sS'meeting'
p265
I1
sS'define'
p266
I3
sS'graphical'
p267
I1
sS'regulation.'
p268
I2
sS'environment.'
p269
I2
sS'demand'
p270
I1
sS'bayesian'
p271
I1
sS'atlanta'
p272
I1
sS'ruby'
p273
I3
sS'developing'
p274
I1
sS'value'
p275
I1
sS'orientation'
p276
I2
sS'cluster'
p277
I1
sS'technology'
p278
I3
sS'ethnicity'
p279
I2
sS'develop'
p280
I2
sS'hadoop'
p281
I7
sS'complex'
p282
I1
sS'evaluate'
p283
I1
sS'development'
p284
I4
sS'automation'
p285
I1
sS'proficiency'
p286
I4
sS'opportunity'
p287
I8
sS'identity'
p288
I2
sS'neural'
p289
I1
sS'well'
p290
I1
sS'spent'
p291
I1
sS'analysis'
p292
I3
sS'efficient'
p293
I1
sS'client'
p294
I1
sS'auditor'
p295
I1
sS'organization'
p296
I1
sS'model'
p297
I2
sS'computer science engineering'
p298
I1
sS'discipline'
p299
I1
sS'agile'
p300
I2
sS'source'
p301
I3
sS'role'
p302
I2
sS'extensive'
p303
I1
sS'scheduled'
p304
I1
sS'preference'
p305
I2
sS'using'
p306
I6
sS'social networking'
p307
I1
sS'advanced'
p308
I1
sS'interfaces.'
p309
I1
sS'like'
p310
I1
sS'specific'
p311
I1
sS'ofccp'
p312
I1
sS'essential'
p313
I1
sS'mathematical'
p314
I1
sS'library'
p315
I2
sS'members.'
p316
I1
sVstatistic
p317
I1
sS'employment'
p318
I5
sS'provided'
p319
I1
sS'scale'
p320
I1
sS'proficient'
p321
I2
sS'saas'
p322
I1
sS'creative'
p323
I1
sS'religion'
p324
I2
sS'passion'
p325
I1
sS'unit'
p326
I1
sS'provides'
p327
I2
sS'provider'
p328
I2
sS'demonstrated'
p329
I1
sS'algorithmic'
p330
I1
sS'product development'
p331
I1
sS'repository'
p332
I1
sS'processing'
p333
I1
sS'communicate'
p334
I1
sS'leadership'
p335
I1
sS'industry'
p336
I1
sS'ingest'
p337
I1
sS'5 - 10 year'
p338
I1
sS'software'
p339
I1
sS'accommodate'
p340
I1
sS'determine'
p341
I1
sS'bson'
p342
I1
sS'elastic'
p343
I1
sS'hands-on'
p344
I2
sS'support'
p345
I1
sS'on-line'
p346
I1
sS'artificial intelligence'
p347
I2
sS'function'
p348
I1
sVposter
p349
I1
sS'regard'
p350
I2
sS'developments.'
p351
I1
sS'analyst'
p352
I1
sS'datasets'
p353
I2
sS'compute'
p354
I1
sS'ecosystem'
p355
I2
sS'7 - 10 year'
p356
I1
sS'data architecture'
p357
I1
sS'statistics computer science'
p358
I1
sS'non-relational'
p359
I1
sS'problem'
p360
I1
sS'etc.'
p361
I2
sS'computing'
p362
I2
sS'defined'
p363
I1
sS'al'
p364
I1
sS'deep'
p365
I1
sS'pig'
p366
I2
sS'physical'
p367
I2
sS'variety'
p368
I1
sS'credibility'
p369
I1
sS'application'
p370
I2
sS'interested'
p371
I1
sS'computer science'
p372
I2
sS'ambitious'
p373
I1
sS'mongodb'
p374
I1
sS'backbone'
p375
I1
sS'and/or'
p376
I2
sS'sql'
p377
I1
sS'statistical model'
p378
I1
sS'independently'
p379
I2
sS'algorithm'
p380
I3
sS'age'
p381
I2
sS'portion'
p382
I1
sS'requisition'
p383
I1
sS'time'
p384
I2
sS'international'
p385
I1
s.