(dp1
S'skills'
p2
(lp3
S'owl'
p4
aS'r d'
p5
aS'ip'
p6
aS'data science'
p7
aS'communication'
p8
aS'sales'
p9
aS'hadoop'
p10
aS'ant'
p11
aS'analytics'
p12
aS'process improvement'
p13
aS'analysis'
p14
aS'data mining'
p15
aS'go'
p16
aS'ic'
p17
aS'strategy'
p18
aS'sem'
p19
aS'big data'
p20
aS'lua'
p21
aS'critical thinking'
p22
aS'c'
aS'predictive modeling'
p23
aS'r programming'
p24
aS'rf'
p25
aS'research'
p26
aS'cell'
p27
aS'statistica'
p28
aS'ssis'
p29
aS'computer science'
p30
aS'visio'
p31
aS'pl'
p32
aS'python'
p33
aS'automotive'
p34
aS'data scientist'
p35
aS'search'
p36
aS'business process'
p37
aS'oop'
p38
aS'sql'
p39
aS'modeling'
p40
aS'spark'
p41
aS'data'
p42
aS'a'
aS'training'
p43
aS'erp'
p44
aS'vis'
p45
aS'science'
p46
aS'excel'
p47
aS'programming'
p48
aS'communication skills'
p49
aS'machine learning'
p50
aS'r'
aS'algorithms'
p51
aS'e-learning'
p52
aS'organization'
p53
aS'valuation'
p54
aS'cro'
p55
aS'data analytics'
p56
aS'pricing'
p57
asS'working-year'
p58
(lp59
S'5+ year'
p60
aS'3 year'
p61
asS'major'
p62
(lp63
S'business'
p64
aS'big data'
p65
aS'computing'
p66
aS'ee'
p67
aS'science'
p68
aS'data science'
p69
aS'statistic'
p70
aVapplied statistic
p71
aS'machine learning'
p72
aS'analytics'
p73
aS'design'
p74
aVphysic
p75
aS'data mining'
p76
aS'communication'
p77
aS'computer science'
p78
aS'phd'
p79
aS'data analytics'
p80
aS'data mining machine learning'
p81
asS'education'
p82
(lp83
VBachelor
p84
aVMaster
p85
aVDoctor
p86
asS'responsibility'
p87
(lp88
S'development'
p89
aS'product'
p90
aS'predict'
p91
aVinsight
p92
aS'analysis'
p93
aS'improvement'
p94
aS'analytic'
p95
aS'design'
p96
aS'data mining'
p97
aS'understand'
p98
aS'modeling'
p99
aS'model'
p100
as.