(dp1
S'skills'
p2
(lp3
S'owl'
p4
aS'soc'
p5
aS'ip'
p6
aS'sales'
p7
aS'ant'
p8
aS'vis'
p9
aS'engineering'
p10
aS'statistical analysis'
p11
aS'data mining'
p12
aS'go'
p13
aS'ic'
p14
aS'education'
p15
aS'big data'
p16
aS'scientific computing'
p17
aS'research'
p18
aS'access'
p19
aS'statistica'
p20
aS'rf'
p21
aS'computer science'
p22
aS'pl'
p23
aS'marketing'
p24
aS'data scientist'
p25
aS'search'
p26
aS'data quality'
p27
aS'modeling'
p28
aS'data'
p29
aS'a'
aS'hardware'
p30
aS'c'
aS'analytics'
p31
aS'science'
p32
aS'analysis'
p33
aS'machine learning'
p34
aS'r'
aS'organization'
p35
aS'data analytics'
p36
asS'working-year'
p37
(lp38
S'10 year'
p39
aS'6 year'
p40
asS'major'
p41
(lp42
S'business'
p43
aS'big data'
p44
aS'computing'
p45
aS'ee'
p46
aS'marketing'
p47
aS'statistic'
p48
aS'scientific computing'
p49
aS'machine learning'
p50
aS'analytics'
p51
aS'engineering'
p52
aS'design'
p53
aS'computer science'
p54
aS'data mining'
p55
aS'phd'
p56
aS'data analytics'
p57
aS'science'
p58
asS'education'
p59
(lp60
VMaster
p61
aVDoctor
p62
asS'responsibility'
p63
(lp64
S'modeling'
p65
aS'product'
p66
aS'formulate'
p67
aVinsight
p68
aS'analysis'
p69
aS'analytic'
p70
aS'design'
p71
aS'data mining'
p72
aS'report'
p73
aS'complex data set'
p74
aS'implement'
p75
aS'model'
p76
as.