(dp1
S'skills'
p2
(lp3
S'owl'
p4
aS'ip'
p5
aS'data science'
p6
aS'software design'
p7
aS'engineering'
p8
aS'problem solving'
p9
aS'ic'
p10
aS'java'
p11
aS'asic'
p12
aS'computer science'
p13
aS'communication'
p14
aS'intelligence'
p15
aS'pl'
p16
aS'product development'
p17
aS'python'
p18
aS'leadership'
p19
aS'sql'
p20
aS'data'
p21
aS'a'
aS'c'
aS'science'
p22
aS'communication skills'
p23
aS'machine learning'
p24
aS'r'
aS'artificial intelligence'
p25
aS'security'
p26
asS'working-year'
p27
(lp28
S'0 year'
p29
asS'major'
p30
(lp31
S'ee'
p32
aS'science'
p33
aS'data science'
p34
aS'machine learning'
p35
aS'engineering'
p36
aS'design'
p37
aS'computer science'
p38
aS'machine learning artificial intelligence'
p39
aS'communication'
p40
aS'computer science machine learning artificial intelligence'
p41
aS'computer science machine learning'
p42
aS'artificial intelligence'
p43
aS'data science engineering'
p44
asS'education'
p45
(lp46
VBachelor
p47
aVMaster
p48
asS'responsibility'
p49
(lp50
S'development'
p51
aS'analytic'
p52
aS'product'
p53
aS'design'
p54
as.