(dp1
S'skills'
p2
(lp3
S'owl'
p4
aS'r d'
p5
aS'ip'
p6
aS'decision support'
p7
aS'rest'
p8
aS'tableau'
p9
aS'analytics'
p10
aS'engineering'
p11
aS'process improvement'
p12
aS'communication skills'
p13
aS'data mining'
p14
aS'go'
p15
aS'ic'
p16
aS'education'
p17
aS'image processing'
p18
aS'random forest'
p19
aS'visualization'
p20
aS'ampl'
p21
aS'java'
p22
aS'big data'
p23
aS'deep learning'
p24
aS'mathematica'
p25
aS'excel'
p26
aS'hadoop'
p27
aS'research'
p28
aS'cell'
p29
aS'statistica'
p30
aS'rf'
p31
aS'computer science'
p32
aS'communication'
p33
aS'advanced analytics'
p34
aS'mathematics'
p35
aS'pl'
p36
aS'systems engineering'
p37
aS'a'
aS'envi'
p38
aS'transportation'
p39
aS'python'
p40
aS'automotive'
p41
aS'processing'
p42
aS'spotfire'
p43
aS'c'
aS'experimental design'
p44
aS'business process'
p45
aS'statistics'
p46
aS'oop'
p47
aS'sql'
p48
aS'data'
p49
aS'software development'
p50
aS'search'
p51
aS'svm'
p52
aS'parallel programming'
p53
aS'data visualization'
p54
aS'vis'
p55
aS'science'
p56
aS'applied mathematics'
p57
aS'programming'
p58
aS'mapreduce'
p59
aS'c++'
p60
aS'machine learning'
p61
aS'olap'
p62
aS'r'
aS'operations research'
p63
aS'lte'
p64
aS'management'
p65
asS'working-year'
p66
(lp67
S'3-5 year'
p68
aS'5 year'
p69
aS'2 year'
p70
aS'1-2 year'
p71
asS'major'
p72
(lp73
S'mathematical sciences'
p74
aS'ee'
p75
aS'communication'
p76
aS'statistic'
p77
aS'analytics'
p78
aS'engineering'
p79
aS'design'
p80
aS'data mining'
p81
aS'information'
p82
aS'management'
p83
aS'big data'
p84
aS'information science'
p85
aS'computer science'
p86
aS'advanced analytics'
p87
aS'mathematics'
p88
aS'operations research'
p89
aS'data mining machine learning'
p90
aS'systems engineering'
p91
aS'transportation'
p92
aS'business'
p93
aS'statistics'
p94
aS'science'
p95
aS'applied mathematics'
p96
aS'machine learning'
p97
aS'computer information sciences'
p98
aS'applied math'
p99
asS'education'
p100
(lp101
VBachelor
p102
aVMaster
p103
aVDoctor
p104
asS'responsibility'
p105
(lp106
S'data mining'
p107
aS'development'
p108
aS'product'
p109
aS'processing'
p110
aS'information'
p111
aS'recommendation'
p112
aS'improvement'
p113
aS'analytic'
p114
aS'design'
p115
aS'identify opportunity'
p116
aS'model'
p117
as.