(dp1
S'skills'
p2
(lp3
S'soc'
p4
aS'go'
p5
aS'r d'
p6
aS'nosql'
p7
aS'asic'
p8
aS'data science'
p9
aS'vis'
p10
aS'ant'
p11
aS'analytics'
p12
aS'engineering'
p13
aS'data analysis'
p14
aS'high performance computing'
p15
aS'research'
p16
aS'data mining'
p17
aS'sas'
p18
aS'analysis'
p19
aS'ic'
p20
aS'spss'
p21
aS'insurance'
p22
aS'finance'
p23
aS'visualization'
p24
aS'git'
p25
aS'java'
p26
aS'predictive modeling'
p27
aS'r programming'
p28
aS'hadoop'
p29
aS'governance'
p30
aS'perl'
p31
aS'management'
p32
aS'statistica'
p33
aS'rf'
p34
aS'computer science'
p35
aS'ip'
p36
aS'intelligence'
p37
aS'mathematics'
p38
aS'geography'
p39
aS'unstructured data'
p40
aS'data management'
p41
aS'matlab'
p42
aS'processing'
p43
aS'data modeling'
p44
aS'product development'
p45
aS'python'
p46
aS'marketing'
p47
aS'collaboration'
p48
aS'visio'
p49
aS'data scientist'
p50
aS'c'
aS'cart'
p51
aS'business analytics'
p52
aS'business process'
p53
aS'leadership'
p54
aS'oop'
p55
aS'data processing'
p56
aS'sql'
p57
aS'data analytics'
p58
aS'modeling'
p59
aS'data'
p60
aS'envi'
p61
aS'customer experience'
p62
aS'a'
aS'search'
p63
aS'fraud'
p64
aS'erp'
p65
aS'database management'
p66
aS'science'
p67
aS'.net'
p68
aS'programming'
p69
aS'c++'
p70
aS'machine learning'
p71
aS'cluster'
p72
aS'data engineering'
p73
aS'weka'
p74
aS'r'
aS'pl'
p75
aS'databases'
p76
aS'organization'
p77
aS'predictive analytics'
p78
aS'cro'
p79
aS'etl'
p80
aS'statistics'
p81
asS'working-year'
p82
(lp83
S'5 year'
p84
asS'major'
p85
(lp86
S'computing'
p87
aS'ee'
p88
aS'data science'
p89
aS'data mining'
p90
aS'analytics'
p91
aS'engineering'
p92
aS'design'
p93
aS'statistic'
p94
aS'geography'
p95
aS'management'
p96
aS'computer science'
p97
aS'mathematics'
p98
aS'finance'
p99
aS'business'
p100
aS'marketing'
p101
aS'business analytics'
p102
aS'statistics'
p103
aS'science'
p104
aS'high performance computing'
p105
aS'machine learning'
p106
aS'mathematics computer science'
p107
aS'data analytics'
p108
aS'predictive analytics'
p109
asS'education'
p110
(lp111
VBachelor
p112
aVMaster
p113
asS'responsibility'
p114
(lp115
S'modeling'
p116
aS'development'
p117
aS'product'
p118
aS'data analysis'
p119
aS'build model'
p120
aS'processing'
p121
aS'business problem'
p122
aS'predict'
p123
aVinsight
p124
aS'communicate'
p125
aS'analysis'
p126
aS'analytic'
p127
aS'design'
p128
aS'solve problem'
p129
aS'data mining'
p130
aS'report'
p131
aS'understand'
p132
aS'implement'
p133
aS'prototype'
p134
aS'model'
p135
as.