(dp1
S'skills'
p2
(lp3
S'nlp'
p4
aS'ip'
p5
aS'data science'
p6
aS'splunk'
p7
aS'vis'
p8
aS'ant'
p9
aS'analytics'
p10
aS'engineering'
p11
aS'3d visualization'
p12
aS'hive'
p13
aS'mysql'
p14
aS'go'
p15
aS'ic'
p16
aS'data analytics'
p17
aS'visualization'
p18
aS'technical leadership'
p19
aS'git'
p20
aS'java'
p21
aS'big data'
p22
aS'agile'
p23
aS'power bi'
p24
aS'excel'
p25
aS'integration'
p26
aS'access'
p27
aS'big data analytics'
p28
aS'database design'
p29
aS'rf'
p30
aS'html'
p31
aS'teamwork'
p32
aS'matlab'
p33
aS'communication'
p34
aS'data collection'
p35
aS'css'
p36
aS'computer science'
p37
aS'a'
aS'data analysis'
p38
aS'python'
p39
aS'windows server'
p40
aS'javascript'
p41
aS'agile project management'
p42
aS'ajax'
p43
aS'leadership'
p44
aS'sql'
p45
aS'e-learning'
p46
aS'data'
p47
aS'project management'
p48
aS'software development'
p49
aS'software design'
p50
aS'c'
aS'github'
p51
aS'pattern recognition'
p52
aS'database management'
p53
aS'windows'
p54
aS'cognition'
p55
aS'cell'
p56
aS'analysis'
p57
aS'machine learning'
p58
aS'r'
aS'pl'
p59
aS'science'
p60
aS'management'
p61
aS'cro'
p62
aS'scripting'
p63
asS'working-year'
p64
(lp65
S'5+ year'
p66
aS'7+ year'
p67
asS'major'
p68
(lp69
S'information'
p70
aS'ece'
p71
aS'management'
p72
aS'big data'
p73
aS'ee'
p74
aS'science'
p75
aS'data science'
p76
aS'machine learning'
p77
aS'big data analytics'
p78
aS'analytics'
p79
aS'engineering'
p80
aS'design'
p81
aS'data analytics'
p82
aS'communication'
p83
aS'mis'
p84
aS'law'
p85
aS'project management'
p86
aS'computer science'
p87
asS'education'
p88
(lp89
VBachelor
p90
aVMaster
p91
asS'responsibility'
p92
(lp93
S'development'
p94
aS'information'
p95
aS'product'
p96
aVinsight
p97
aS'pattern'
p98
aS'decision-making'
p99
aS'analysis'
p100
aS'analytic'
p101
aS'data collection'
p102
aS'design'
p103
aS'data analysis'
p104
as.