(dp1
S'skills'
p2
(lp3
S'ip'
p4
aS'data science'
p5
aS'rest'
p6
aS'ant'
p7
aS'analytics'
p8
aS'ic'
p9
aS'big data'
p10
aS'scala'
p11
aS'predictive modeling'
p12
aS'communication'
p13
aS'intelligence'
p14
aS'pl'
p15
aS'finance'
p16
aS'python'
p17
aS'marketing'
p18
aS'data scientist'
p19
aS'sql'
p20
aS'modeling'
p21
aS'spark'
p22
aS'data'
p23
aS'a'
aS'c'
aS'erp'
p24
aS'science'
p25
aS'marketing analytics'
p26
aS'machine learning'
p27
aS'r'
aS'artificial intelligence'
p28
asS'working-year'
p29
(lp30
S'0 year'
p31
asS'major'
p32
(lp33
S'finance'
p34
aS'big data'
p35
aS'ee'
p36
aS'marketing'
p37
aS'data science'
p38
aS'marketing analytics'
p39
aS'communication'
p40
aS'machine learning'
p41
aS'business'
p42
aS'analytics'
p43
aS'machine learning artificial intelligence'
p44
aS'science'
p45
aS'artificial intelligence'
p46
aS'telecommunication'
p47
asS'education'
p48
(lp49
VBachelor
p50
aVMaster
p51
asS'responsibility'
p52
(lp53
S'product'
p54
aS'predict'
p55
aVinsight
p56
aS'analytic'
p57
aS'modeling'
p58
aS'model'
p59
as.