(dp1
S'code'
p2
I2
sS'hadoop/spark'
p3
I1
sS'presentation'
p4
I1
sS'insight'
p5
I3
sS'feature'
p6
I1
sS'employer.'
p7
I1
sS'managers.'
p8
I1
sS'identify'
p9
I1
sS'statistical'
p10
I1
sS'skill'
p11
I4
sS'machine'
p12
I2
sS'group'
p13
I1
sS'knowledge'
p14
I1
sS'learning-focused'
p15
I1
sS'religion'
p16
I1
sS'graph'
p17
I2
sS'tweet'
p18
I1
sS'evangelizes/promotes'
p19
I1
sS'disability'
p20
I1
sS'written'
p21
I1
sS'environment'
p22
I1
sS'source'
p23
I2
sS'program'
p24
I2
sS'position.'
p25
I1
sS'publication'
p26
I1
sS'communication'
p27
I1
sS'integrate'
p28
I1
sS'include'
p29
I1
sS'interprets'
p30
I1
sS'data mining machine learning'
p31
I1
sS'case'
p32
I1
sS'template'
p33
I1
sS'disparate'
p34
I1
sS'python'
p35
I1
sS'evaluate'
p36
I1
sS'engineered'
p37
I1
sS'mapreduce'
p38
I1
sS'unstructured'
p39
I1
sS'test'
p40
I3
sS'qualified'
p41
I1
sS'closely'
p42
I1
sS'new'
p43
I1
sS'information retrieval'
p44
I2
sS'appliance.'
p45
I1
sS'advanced'
p46
I1
sS'big data analytics'
p47
I2
sS'temlates'
p48
I1
sS'technology.'
p49
I1
sS'gender'
p50
I1
sS'experiments.'
p51
I1
sS'solution'
p52
I2
sS'hive'
p53
I2
sS'large'
p54
I2
sS'applied'
p55
I1
sS'race'
p56
I1
sS'team'
p57
I3
sS'analytical'
p58
I1
sS'including'
p59
I1
sS'identifies'
p60
I1
sS'communicates'
p61
I1
sS'oracle database'
p62
I1
sS'predictive analytics'
p63
I2
sS'consolidate'
p64
I1
sS'set'
p65
I1
sS'illustrating'
p66
I1
sS'cross-functional'
p67
I1
sS'verbal'
p68
I1
sS'national'
p69
I1
sS'sex'
p70
I1
sS'bs/ba'
p71
I1
sVdesign
p72
I3
sS'others.'
p73
I1
sS'employment'
p74
I2
sS'solving'
p75
I1
sS'mathematics physics'
p76
I1
sS'degree'
p77
I1
sS'quantify'
p78
I1
sS'looking'
p79
I1
sS'preferred.'
p80
I1
sS'experiment'
p81
I1
sS'provides'
p82
I1
sS'relational'
p83
I1
sS'technology'
p84
I6
sS'issue'
p85
I1
sS'workflows.'
p86
I1
sS'metadata'
p87
I1
sS'supporting'
p88
I1
sS'language-based'
p89
I1
sS'data analysis'
p90
I2
sS'business'
p91
I2
sS'data scientist'
p92
I1
sS'mentoring'
p93
I1
sS'statistical modeling'
p94
I1
sS'address'
p95
I1
sS'consideration'
p96
I1
sS'spark'
p97
I2
sS'r'
I7
sS'generate'
p98
I1
sS'pipeline'
p99
I1
sS'enables'
p100
I1
sS'big data'
p101
I2
sS'language'
p102
I2
sS'package'
p103
I1
sS'receive'
p104
I1
sS'equal'
p105
I1
sS'experience'
p106
I5
sS'spss'
p107
I1
sS'enabling'
p108
I1
sS'range'
p109
I1
sS'notebook'
p110
I1
sS'plus'
p111
I1
sS'data analytics'
p112
I2
sS'social'
p113
I1
sS'principally'
p114
I1
sS'implement'
p115
I1
sS'software'
p116
I3
sS'origin'
p117
I1
sS'individually'
p118
I1
sS'relevant'
p119
I1
sS'color'
p120
I1
sS"oracle's"
p121
I1
sS'data science'
p122
I2
sS'powerful'
p123
I1
sS'primary'
p124
I1
sS'appropriate'
p125
I2
sS'platform'
p126
I1
sS'learning'
p127
I1
sS'data mining'
p128
I3
sS'contributor'
p129
I1
sS'apply'
p130
I1
sS'systems.'
p131
I1
sS'use'
p132
I6
sS'strong'
p133
I1
sS'leverage'
p134
I2
sS'service'
p135
I3
sS'area'
p136
I1
sS'leading'
p137
I1
sS'support'
p138
I1
sS'question'
p139
I1
sS'system'
p140
I1
sS'statistical programming'
p141
I1
sS'technical/business'
p142
I1
sS'quantitative'
p143
I1
sVphysic
p144
I1
sS'advanced analytics'
p145
I2
sS'analyze'
p146
I1
sS'matlab'
p147
I1
sS'field'
p148
I1
sS'direction'
p149
I1
sS'medium'
p150
I1
sS'post-sales'
p151
I1
sS'tool'
p152
I1
sS'regard'
p153
I1
sS'benchmark'
p154
I1
sS'statistical model'
p155
I1
sS'technique'
p156
I2
sS'visual'
p157
I1
sS'external'
p158
I2
sS'automated'
p159
I1
sS'promote'
p160
I1
sS'cleanse'
p161
I1
sS'customer'
p162
I4
sS'datasets'
p163
I1
sS'characteristic'
p164
I1
sS'work'
p165
I4
sVas
p166
I1
sS'machine learning'
p167
I2
sS'protected'
p168
I2
sS'analytical method'
p169
I1
sS'enhancement.'
p170
I1
sS'situation'
p171
I1
sS'problem'
p172
I3
sS'providing'
p173
I1
sS'etc.'
p174
I4
sS'required'
p175
I1
sS'orientation'
p176
I1
sS'e.g.'
p177
I2
sS'process'
p178
I2
sS'experience.'
p179
I1
sVstatistic
p180
I1
sS'deep'
p181
I1
sS'6 year'
p182
I1
sS'characterize'
p183
I1
sS'engineering'
p184
I1
sS'diverse'
p185
I1
sS'engages'
p186
I1
sS'interacts'
p187
I1
sS'internal'
p188
I2
sS'law.'
p189
I1
sS'develop'
p190
I2
sS'sexual'
p191
I1
sS'veteran'
p192
I1
sS'business problem'
p193
I1
sS'hadoop'
p194
I3
sS'client'
p195
I1
sS'member'
p196
I1
sS'application'
p197
I1
sS'methodology'
p198
I1
sS'complex'
p199
I1
sS'widely'
p200
I1
sS'big'
p201
I1
sS'finding'
p202
I1
sS'document'
p203
I1
sS'3 year'
p204
I1
sS'status'
p205
I1
sS'product'
p206
I4
sS'used'
p207
I1
sS'multiple'
p208
I1
sS'conferences.'
p209
I1
sS'8 year'
p210
I1
sS'scientist'
p211
I3
sS'results-oriented'
p212
I1
sS'develops'
p213
I3
sS'involving'
p214
I1
sS'preferred'
p215
I1
sS'sql'
p216
I3
sS'meaningful'
p217
I1
sS'non-routine'
p218
I1
sS'identity'
p219
I1
sS'specialization.'
p220
I1
sS'sources.'
p221
I1
sS'algorithm'
p222
I1
sS'database'
p223
I3
sS'applicant'
p224
I1
sS'well'
p225
I2
sS'blog'
p226
I1
sS'actionable'
p227
I1
sS'without'
p228
I1
sS'responsibility'
p229
I1
sS'cloud.'
p230
I1
sS'on-premises'
p231
I1
sS'oracle'
p232
I12
sS'pre-'
p233
I1
sVsa
p234
I1
sS'opportunity'
p235
I1
s.