(dp1
S'skills'
p2
(lp3
S'digital marketing'
p4
aS'programming'
p5
aS'owl'
p6
aS'ip'
p7
aS'data science'
p8
aS'testing'
p9
aS'vis'
p10
aS'integration'
p11
aS'ant'
p12
aS'analytics'
p13
aS'engineering'
p14
aS'go'
p15
aS'data mining'
p16
aS'sas'
p17
aS'ic'
p18
aVpanda
p19
aS'visualization'
p20
aS'git'
p21
aS'java'
p22
aS'big data'
p23
aS'scala'
p24
aS'c'
aS'statistical computing'
p25
aS'redis'
p26
aS'hadoop'
p27
aS'research'
p28
aS'statistica'
p29
aS'envi'
p30
aS'matlab'
p31
aS'innovation'
p32
aS'pl'
p33
aS'python'
p34
aS'marketing'
p35
aS'collaboration'
p36
aS'data scientist'
p37
aS'search'
p38
aS'apache spark'
p39
aS'strategic thinking'
p40
aS'management'
p41
aS'oop'
p42
aS'statistical modeling'
p43
aS'sql'
p44
aS'apache'
p45
aS'modeling'
p46
aS'spark'
p47
aS'data'
p48
aS'data analytics'
p49
aS'a'
aS'training'
p50
aS'solver'
p51
aS'science'
p52
aS'scikit-learn'
p53
aS'machine learning'
p54
aS'r'
aS'architecture'
p55
aS'organization'
p56
aS'application development'
p57
asS'working-year'
p58
(lp59
S'3+ year'
p60
asS'major'
p61
(lp62
S'management'
p63
aS'business'
p64
aS'big data'
p65
aS'computing'
p66
aS'ee'
p67
aS'marketing'
p68
aS'statistical computing'
p69
aS'statistic'
p70
aS'machine learning'
p71
aS'analytics'
p72
aS'engineering'
p73
aS'data mining'
p74
aS'data science'
p75
aS'data analytics'
p76
aS'science'
p77
asS'education'
p78
(lp79
VBachelor
p80
aVMaster
p81
asS'responsibility'
p82
(lp83
S'development'
p84
aS'product'
p85
aS'business problem'
p86
aS'predict'
p87
aVinsight
p88
aS'statistical model'
p89
aS'analytic'
p90
aS'understand'
p91
aS'data mining'
p92
aS'modeling'
p93
aS'implement'
p94
aS'model'
p95
as.