(dp1
S'integrated'
p2
I1
sS'data scientist'
p3
I1
sS'116407'
p4
I1
sS'object'
p5
I1
sS'policies.'
p6
I1
sS'reviewed'
p7
I1
sS'manager'
p8
I1
sS'manages'
p9
I2
sS'including'
p10
I2
sS'participate'
p11
I1
sS'facilitates'
p12
I1
sS'high-level'
p13
I1
sS'r d'
p14
I1
sS'completion'
p15
I1
sS'segment'
p16
I1
sS'big data'
p17
I2
sS'everything'
p18
I1
sS'implementation'
p19
I1
sS'agile'
p20
I1
sVcertification
p21
I1
sS'considerable'
p22
I1
sS'environment'
p23
I2
sS'platform'
p24
I1
sS'serve.'
p25
I1
sS'location'
p26
I2
sS'employee'
p27
I1
sS'master data management'
p28
I1
sS'executives.'
p29
I1
sS'administrative'
p30
I2
sS'create'
p31
I1
sS'achieve'
p32
I1
sVcarolina
p33
I2
sS'regularly'
p34
I1
sS'usable'
p35
I1
sS'data modeling'
p36
I1
sS'issues.'
p37
I1
sS'compassion'
p38
I1
sS'practice'
p39
I1
sS'possible'
p40
I1
sS'required.'
p41
I1
sS'commitment'
p42
I1
sS'judgement'
p43
I1
sS'warehouse'
p44
I1
sS'cultural'
p45
I1
sS'interoperability'
p46
I1
sS'dickson'
p47
I1
sS'difference'
p48
I1
sS'inclusion'
p49
I2
sS'day'
p50
I1
sS'represents'
p51
I1
sS'resource'
p52
I2
sS'name'
p53
I1
sS'workforce.'
p54
I1
sS'communicates'
p55
I1
sS'lean six sigma'
p56
I1
sS'solution'
p57
I2
sS'summary'
p58
I1
sS'network'
p59
I1
sS'planning'
p60
I2
sS'architecture'
p61
I3
sS'team'
p62
I3
sS'analytical'
p63
I1
sS'deadline'
p64
I1
sS'essential'
p65
I1
sVrequirement
p66
I1
sS'verbal'
p67
I2
sS'text analytics'
p68
I1
sS'innovative'
p69
I1
sS'direct'
p70
I1
sS'related'
p71
I1
sS'applicable'
p72
I1
sS'computer'
p73
I1
sS'design'
p74
I2
sS'patient'
p75
I2
sVoperation
p76
I1
sS'employment'
p77
I1
sS'skill'
p78
I1
sS'best'
p79
I2
sS'subject'
p80
I1
sS'established'
p81
I1
sS'data warehousing'
p82
I1
sS'and/or'
p83
I1
sS"master's"
p84
I1
sS'decision'
p85
I1
sS'req'
p86
I1
sS'familiarity'
p87
I2
sS'information management'
p88
I2
sS'sigma/lean'
p89
I1
sS'preferred.'
p90
I1
sS'written'
p91
I2
sS'health'
p92
I1
sS'market'
p93
I1
sS'provides'
p94
I1
sS'provider'
p95
I1
sS'progress'
p96
I1
sS'evaluation'
p97
I1
sS'across'
p98
I1
sS'demonstrated'
p99
I1
sS'charlotte'
p100
I1
sS'full'
p101
I1
sS'personnel.'
p102
I1
sS'ability'
p103
I3
sS'degree'
p104
I2
sS'healthcare'
p105
I3
sS'communicate'
p106
I1
sS'analytics/nlp'
p107
I1
sS'activity'
p108
I1
sS'deliver'
p109
I3
sS'standard'
p110
I1
sS'job'
p111
I4
sS'directions.'
p112
I1
sS'understanding'
p113
I1
sS'training'
p114
I1
sS'supervises'
p115
I1
sS'data visualization'
p116
I1
sS'technical'
p117
I1
sS'shift'
p118
I2
sS'budgeting'
p119
I1
sS'35'
p120
I1
sS'mentor'
p121
I1
sS'leading'
p122
I1
sS'implement'
p123
I1
sS'facilitate'
p124
I1
sS'hospital'
p125
I1
sS'etl'
p126
I1
sS'plan'
p127
I3
sS'industry.'
p128
I1
sS'major'
p129
I1
sVnote
p130
I1
sS'innovate'
p131
I1
sS'large-scale'
p132
I1
sS'communication'
p133
I2
sS'number'
p134
I1
sS'community'
p135
I2
sS'initiative'
p136
I2
sS'directly'
p137
I1
sS'employer'
p138
I1
sS'quality'
p139
I1
sS'00111839'
p140
I1
sS'systems.'
p141
I1
sS'management'
p142
I2
sS'teammate'
p143
I1
sVservice
p144
I1
sS'executive-level'
p145
I1
sS'support'
p146
I1
sS'system'
p147
I4
sS'accountability'
p148
I1
sS'mart'
p149
I1
sS'center'
p150
I1
sS'chs'
p151
I2
sS'strong'
p152
I1
sS'advanced analytics'
p153
I2
sS'flexible'
p154
I1
sS'projects/team'
p155
I1
sS'meeting'
p156
I1
sS'data management'
p157
I1
sVfunction
p158
I1
sS'diversity'
p159
I1
sS'posting'
p160
I1
sS'successful'
p161
I1
sS'pounds.'
p162
I1
sS'needed.'
p163
I1
sS'900'
p164
I1
sS'visibility'
p165
I1
sS'manner.'
p166
I1
sS'scientists.'
p167
I1
sS'lift'
p168
I1
sS'educates'
p169
I1
sS'excellent'
p170
I1
sS'promote'
p171
I1
sS'counseling.'
p172
I1
sS'analyst'
p173
I1
sS'must'
p174
I1
sS'business administration'
p175
I1
sS'valued'
p176
I1
sVhour
p177
I2
sS'culture'
p178
I1
sS'type'
p179
I1
sS'work'
p180
I7
sS'project'
p181
I5
sS'familiar'
p182
I1
sS'evaluates'
p183
I1
sS'problem'
p184
I2
sS'outcome'
p185
I1
sS'acquisition'
p186
I1
sS'data architecture'
p187
I1
sS'nearest'
p188
I1
sS'associated'
p189
I1
sS'willingness'
p190
I1
sS'process'
p191
I1
sS'allows'
p192
I2
sS'modern'
p193
I1
sS'influence'
p194
I1
sS'minimum'
p195
I1
sS'eoe/aa'
p196
I1
sS'experience'
p197
I4
sS'organizational'
p198
I1
sS'education'
p199
I1
sS'technology'
p200
I2
sS'id'
p201
I1
sS'management.'
p202
I1
sS'physical'
p203
I1
sS'preferably'
p204
I1
sS'information'
p205
I2
sS'tools.'
p206
I1
sS'do.'
p207
I1
sS'goal'
p208
I1
sS'grp'
p209
I1
sS'mapping'
p210
I1
sS'locations.'
p211
I1
sS'personnel'
p212
I2
sS'discussion'
p213
I1
sS'responsible'
p214
I1
sS'able'
p215
I1
sVdetail
p216
I2
sS'member'
p217
I1
sS'methodology'
p218
I1
sS'superior'
p219
I1
sS'assistant'
p220
I1
sS'department'
p221
I2
sS'u'
I2
sS'competence'
p222
I1
sS'principle'
p223
I1
sS'development'
p224
I3
sS'care'
p225
I2
sS"bachelor's"
p226
I1
sS'safe'
p227
I1
sS'multiple'
p228
I1
sS'departmental'
p229
I1
sS'six sigma'
p230
I1
sS'technology management'
p231
I1
sS'time'
p232
I1
sS'update'
p233
I1
sS'exercised'
p234
I1
sS'allocation'
p235
I1
sS'database'
p236
I1
sS'waterfall'
p237
I1
sS'registry'
p238
I1
sS'enduring'
p239
I1
sS'weigh'
p240
I1
sS'president'
p241
I1
sS'data'
p242
I6
sS'contingency'
p243
I1
sS'structure'
p244
I1
sS'40.00'
p245
I1
sS'independently'
p246
I1
sS'ten year'
p247
I1
sS'functions.'
p248
I1
sS'vice'
p249
I1
sS'strategic planning'
p250
I1
sS'resolution'
p251
I1
sS'cloud computing'
p252
I1
sS'drive'
p253
I1
sS'supervision'
p254
I1
sS'computer science'
p255
I2
sS'responsibility'
p256
I2
sS'procedure'
p257
I1
sS'enterprise'
p258
I6
sS'position'
p259
I2
sS'senior'
p260
I1
sS'hadoop'
p261
I1
sS'corporate'
p262
I1
sS'function.'
p263
I1
s.