(dp1
S'skills'
p2
(lp3
S'digital marketing'
p4
aS'soc'
p5
aS'r d'
p6
aS'owl'
p7
aS'regression analysis'
p8
aS'ip'
p9
aS'chaid'
p10
aS'rest'
p11
aS'pig'
p12
aS'ant'
p13
aS'analytics'
p14
aS'business intelligence'
p15
aS'pricing'
p16
aS'go'
p17
aS'sas'
p18
aS'accounting'
p19
aS'ic'
p20
aS'strategy'
p21
aS'random forest'
p22
aS'clustering'
p23
aS'vis'
p24
aS'git'
p25
aS'lua'
p26
aS'excel'
p27
aS'hadoop'
p28
aS'research'
p29
aS'cell'
p30
aS'statistica'
p31
aS'rf'
p32
aS'computer science'
p33
aS'communication'
p34
aS'intelligence'
p35
aS'hive'
p36
aS'pl'
p37
aS'econometrics'
p38
aS'segmentation'
p39
aS'envi'
p40
aS'distributed computing'
p41
aS'finance'
p42
aS'python'
p43
aS'marketing'
p44
aS'data scientist'
p45
aS'c'
aS'experimental design'
p46
aS'metrics'
p47
aS'web analytics'
p48
aS'oop'
p49
aS'sql'
p50
aS'regression'
p51
aS'modeling'
p52
aS'data'
p53
aS'a'
aS'decision analysis'
p54
aS'search'
p55
aS'erp'
p56
aS'cluster'
p57
aS'science'
p58
aS'economics'
p59
aS'engineering'
p60
aS'analysis'
p61
aS'machine learning'
p62
aS'r'
aS'lte'
p63
aS'organization'
p64
aS'cro'
p65
aS'product marketing'
p66
asS'working-year'
p67
(lp68
S'5+ year'
p69
aS'5 + year'
p70
aS'8+ year'
p71
aS'6+ year'
p72
asS'major'
p73
(lp74
S'science'
p75
aS'computer science'
p76
aS'finance'
p77
aS'business'
p78
aS'computing'
p79
aS'ee'
p80
aS'marketing'
p81
aS'economics'
p82
aS'statistic'
p83
aS'machine learning'
p84
aS'analytics'
p85
aS'engineering'
p86
aS'design'
p87
aS'finance economics'
p88
aS'applied math'
p89
aS'communication'
p90
aS'accounting'
p91
aS'econometrics'
p92
aVphysic
p93
aS'accounting finance'
p94
asS'education'
p95
(lp96
VBachelor
p97
aVMaster
p98
asS'responsibility'
p99
(lp100
S'modeling'
p101
aS'large data set'
p102
aS'product'
p103
aVtest hypothesis
p104
aS'formulate'
p105
aS'business problem'
p106
aS'predict'
p107
aVinsight
p108
aS'communicate'
p109
aS'analysis'
p110
aS'analytic'
p111
aS'design'
p112
aS'recommendation'
p113
aS'report'
p114
aS'understand'
p115
aS'implement'
p116
aS'model'
p117
as.