(dp1
S'5'
I1
sS'data scientist'
p2
I1
sS'help'
p3
I2
sS'increasingly'
p4
I1
sS'text'
p5
I1
sS'move'
p6
I2
sS'cross'
p7
I1
sS'bring'
p8
I2
sS'world'
p9
I2
sS'celebrating'
p10
I1
sS'initiatives.'
p11
I1
sS'skill'
p12
I2
sS'delivers'
p13
I1
sS'expert'
p14
I2
sS'impact'
p15
I2
sS'web'
p16
I1
sS'achieves'
p17
I1
sS'candidate'
p18
I2
sS'woman'
p19
I1
sS"we've"
p20
I1
sS'border'
p21
I2
sS'technique'
p22
I2
sS'r d'
p23
I1
sS'operational'
p24
I1
sS'analytic'
p25
I1
sS'simplicity'
p26
I1
sS'meritocracy'
p27
I1
sS'citi.com/history.'
p28
I1
sS'passion'
p29
I1
sS'200 year'
p30
I1
sS'local'
p31
I1
sS'achieve'
p32
I2
sS'data-driven'
p33
I1
sS'global'
p34
I4
sS'around'
p35
I1
sS'evaluate'
p36
I1
sS'government'
p37
I1
sS'big'
p38
I2
sS'regional'
p39
I1
sS'preferred'
p40
I2
sS'pave'
p41
I1
sS'nation'
p42
I1
sS'collaboratively'
p43
I1
sS'courage'
p44
I2
sS'balancing'
p45
I1
sS'servicing'
p46
I6
sS'ambition'
p47
I1
sS'using'
p48
I3
sS'unique'
p49
I1
sS'offline'
p50
I2
sS'bank'
p51
I2
sVservice
p52
I1
sS'term'
p53
I1
sS'crisp'
p54
I1
sS'level'
p55
I1
sS'systematically'
p56
I1
sS're-illuminate'
p57
I1
sS'solution'
p58
I2
sS'detroit'
p59
I1
sS'public'
p60
I1
sS'capability'
p61
I1
sS'p'
I2
sS'expenses.'
p62
I1
sS'world-class'
p63
I1
sS'financial services'
p64
I1
sS'team'
p65
I3
sS'analytical'
p66
I3
sS'including'
p67
I1
sS'vision'
p68
I1
sS'lasting'
p69
I1
sS'ethical'
p70
I1
sS'maximize'
p71
I1
sVset
p72
I1
sS'financial'
p73
I1
sS'verbal'
p74
I1
sS'people'
p75
I2
sS'encourages'
p76
I1
sS'globe'
p77
I1
sS'reduce'
p78
I1
sS'authority'
p79
I1
sS'l'
I2
sS'past'
p80
I1
sS'analytics'
p81
I8
sS'see'
p82
I2
sS'growth'
p83
I1
sS'design'
p84
I1
sS'result'
p85
I3
sVoperation
p86
I1
sS'beyond'
p87
I1
sS"citi's"
p88
I3
sS'best'
p89
I1
sS'ability'
p90
I2
sS'power'
p91
I1
sS'attuned'
p92
I1
sS'and/or'
p93
I1
sS'projects.'
p94
I2
sS'lead'
p95
I7
sS'tackling'
p96
I1
sS'deeply'
p97
I1
sS'recommendation'
p98
I1
sS'unmatched'
p99
I1
sS'communication/presentation'
p100
I1
sS'looking'
p101
I1
sS'written'
p102
I1
sS'tool'
p103
I1
sS'connecting'
p104
I1
sS'embodies'
p105
I1
sS'progress'
p106
I5
sS'boundary'
p107
I1
sS'text/voice/web'
p108
I1
sS'across'
p109
I4
sS'demonstrated'
p110
I4
sS'working'
p111
I1
sS'creating'
p112
I2
sS'business'
p113
I4
sS'marketing'
p114
I2
sS'leveraging'
p115
I2
sS'men'
p116
I1
sS'component'
p117
I1
sS'standard'
p118
I2
sS'highly'
p119
I2
sS'sustainable'
p120
I1
sS'consensus'
p121
I1
sS'test'
p122
I1
sS'focused'
p123
I1
sS'online'
p124
I2
sS'others'
p125
I1
sS'path'
p126
I1
sS'strong'
p127
I1
sS'meaningful'
p128
I2
sS'generate'
p129
I1
sS'change'
p130
I1
sS'mindset'
p131
I1
sS'quo'
p132
I1
sS'proficiency'
p133
I2
sS'outcome'
p134
I2
sS'talent'
p135
I2
sS'transparency'
p136
I1
sS'mathematics'
p137
I1
sS'transactional'
p138
I1
sS'funded'
p139
I1
sS'experience'
p140
I5
sS'infrastructurethis'
p141
I1
sS'else'
p142
I1
sS'leadership'
p143
I1
sS'survey'
p144
I1
sS"today's"
p145
I1
sS'social'
p146
I1
sS'long-term'
p147
I1
sS'implement'
p148
I2
sS'expense'
p149
I2
sS'create'
p150
I1
sS'plan'
p151
I1
sS'degree'
p152
I1
sS'cross-sell'
p153
I1
sS'revenue'
p154
I3
sS'functional'
p155
I1
sS'community'
p156
I2
sS'one'
p157
I1
sS'stake-holders'
p158
I1
sS'initiative'
p159
I1
sS'cross-functional'
p160
I2
sS'client-centric'
p161
I1
sS'big data'
p162
I2
sS'embrace'
p163
I1
sS'city'
p164
I1
sS'ensures'
p165
I1
sS'leverage'
p166
I1
sVrequirement
p167
I1
sS'basis'
p168
I1
sS'positive'
p169
I1
sS'support'
p170
I1
sS'give'
p171
I1
sS'question'
p172
I1
sS"world's"
p173
I1
sS'long'
p174
I1
sS'strategy'
p175
I2
sS'citi'
p176
I4
sS'call'
p177
I1
sS"we're"
p178
I1
sS'way'
p179
I1
sVmaster
p180
I1
sS'right.'
p181
I1
sS'analyze'
p182
I1
sS'vision.'
p183
I1
sS'firm'
p184
I1
sS'lowering'
p185
I1
sVlife
p186
I1
sS'enable'
p187
I3
sS'toward'
p188
I1
sVchampion
p189
I2
sS'successful'
p190
I2
sS'company'
p191
I3
sS'insights.'
p192
I1
sS'wisdom'
p193
I1
sS'phone'
p194
I2
sS'part'
p195
I1
sS'recommendations.'
p196
I1
sS'translation'
p197
I1
sS'forward.'
p198
I1
sS'scientist-omni'
p199
I4
sS'center'
p200
I1
sS'customer'
p201
I3
sS'mid-sized'
p202
I1
sS'clients.'
p203
I1
sS'translate'
p204
I1
sS'join'
p205
I1
sS'culture'
p206
I3
sS'presentation'
p207
I1
sS'challenge'
p208
I2
sS'work'
p209
I4
sS'value'
p210
I3
sS'machine learning'
p211
I2
sS'solutions.'
p212
I1
sS'diverse'
p213
I1
sS'economic'
p214
I1
sS'analytical method'
p215
I1
sS'behavior'
p216
I4
sS'following'
p217
I2
sS'demonstrate'
p218
I1
sS'nurture'
p219
I1
sS'enables'
p220
I1
sS'achieved'
p221
I1
sVcard
p222
I1
sS'point'
p223
I1
sS'project management'
p224
I2
sS'associated'
p225
I1
sS'omni'
p226
I1
sS'devise'
p227
I1
sS'modern'
p228
I1
sVsale
p229
I5
sS'helped'
p230
I1
sS'engineering'
p231
I1
sS'incremental'
p232
I2
sS'expertise'
p233
I1
sS'field'
p234
I1
sS'need'
p235
I1
sS'partner'
p236
I3
sS'voice'
p237
I2
sS'technology'
p238
I1
sS'trusted'
p239
I1
sS'risk'
p240
I1
sS'foundational'
p241
I1
sS'high'
p242
I2
sS'data.'
p243
I1
sS'end'
p244
I2
sS'insight'
p245
I1
sS'provide'
p246
I1
sS'attract'
p247
I1
sS'ensuring'
p248
I1
sS'responsible'
p249
I2
sS'-'
I1
sS'trade-oriented'
p250
I1
sS'achievement.'
p251
I1
sS'also'
p252
I1
sS'methodology'
p253
I1
sS'complex'
p254
I2
sS'commercial'
p255
I1
sVbuild
p256
I2
sS'digital'
p257
I1
sS'objective'
p258
I2
sS'performance'
p259
I3
sS"what's"
p260
I1
sS'channel'
p261
I7
sS'status'
p262
I1
sS'summary'
p263
I1
sS'reach'
p264
I1
sS'driven'
p265
I2
sS'fueled'
p266
I1
sS'develops'
p267
I1
sS'lighting'
p268
I1
sS'purpose'
p269
I1
sS'identify opportunity'
p270
I1
sS'r/hadoop/spark/python'
p271
I1
sS'develop'
p272
I1
sS'choice'
p273
I1
sS'data'
p274
I11
sS'5 year'
p275
I1
sS'excellence'
p276
I1
sS'independently'
p277
I2
sS'short'
p278
I1
sS'driving'
p279
I1
sS'framework'
p280
I1
sS'clear'
p281
I1
sVstatistic
p282
I1
sS'drive'
p283
I4
sS'daily'
p284
I1
sS'thought'
p285
I1
sS'client'
p286
I6
sS'u'
I2
sS'log'
p287
I1
sS'pattern'
p288
I1
sS'push'
p289
I2
sS'expense/revenue'
p290
I1
sS'make'
p291
I1
sS'know'
p292
I1
s.