(dp1
S'skills'
p2
(lp3
S'r d'
p4
aS'classification'
p5
aS'ip'
p6
aS'data science'
p7
aS'ant'
p8
aS'cluster'
p9
aS'engineering'
p10
aS'sas'
p11
aS'ic'
p12
aS'sem'
p13
aS'clustering'
p14
aS'visualization'
p15
aS'gis'
p16
aS'big data'
p17
aS'scala'
p18
aS'regression'
p19
aS'access'
p20
aS'statistica'
p21
aS'envi'
p22
aS'optimization'
p23
aS'matlab'
p24
aS'visio'
p25
aS'pl'
p26
aS'computer science'
p27
aS'asp'
p28
aS'transportation'
p29
aS'python'
p30
aS'marketing'
p31
aS'processing'
p32
aS'data scientist'
p33
aS'data processing'
p34
aS'sql'
p35
aS'java'
p36
aS'manufacturing'
p37
aS'data'
p38
aS'a'
aS'c'
aS'pattern recognition'
p39
aS'vis'
p40
aS'cognition'
p41
aS'c++'
p42
aS'machine learning'
p43
aS'credit'
p44
aS'r'
aS'logistic regression'
p45
aS'science'
p46
asS'working-year'
p47
(lp48
S'8-12 year'
p49
aS'12 year'
p50
asS'major'
p51
(lp52
S'transportation'
p53
aS'big data'
p54
aS'ee'
p55
aS'marketing'
p56
aS'data science'
p57
aS'machine learning'
p58
aS'engineering'
p59
aS'computer science engineering'
p60
aS'computer science'
p61
aS'statistic'
p62
aS'phd'
p63
aS'science'
p64
asS'education'
p65
(lp66
VBachelor
p67
aVMaster
p68
aVDoctor
p69
asS'responsibility'
p70
(lp71
S'processing'
p72
aS'pattern'
p73
aVinsight
p74
aS'construct'
p75
aS'statistical method'
p76
aS'optimization'
p77
aS'understand'
p78
as.