(dp1
S'skills'
p2
(lp3
S'owl'
p4
aS'ip'
p5
aS'vis'
p6
aS'engineering'
p7
aS'ic'
p8
aS'research'
p9
aS'git'
p10
aS'java'
p11
aS'big data'
p12
aS'hadoop'
p13
aS'perl'
p14
aS'market research'
p15
aS'strategy'
p16
aS'rf'
p17
aS'computer science'
p18
aS'innovation'
p19
aS'pl'
p20
aS'a'
aS'envi'
p21
aS'collaboration'
p22
aS'data scientist'
p23
aS'c'
aS'management'
p24
aS'oop'
p25
aS'spark'
p26
aS'data'
p27
aS'software development'
p28
aS'search'
p29
aS'science'
p30
aS'r'
aS'product innovation'
p31
aS'advertising'
p32
aS'organization'
p33
aS'application development'
p34
asS'working-year'
p35
(lp36
S'2 year'
p37
aS'1 year'
p38
asS'major'
p39
(lp40
S'management'
p41
aS'big data'
p42
aS'business'
p43
aS'ee'
p44
aS'science'
p45
aS'engineering'
p46
aS'design'
p47
aS'computer science'
p48
aS'ee computer science'
p49
asS'education'
p50
(lp51
VBachelor
p52
aVMaster
p53
asS'responsibility'
p54
(lp55
S'development'
p56
aS'product'
p57
aS'understand'
p58
aS'recommendation'
p59
aS'design'
p60
aS'implement'
p61
as.