(dp1
S'predictive modeling'
p2
I1
sS'office'
p3
I3
sS'insight'
p4
I1
sS'valuable'
p5
I1
sS'8 year'
p6
I1
sS'executes'
p7
I1
sS'using'
p8
I1
sS'skill'
p9
I2
sS'desired.'
p10
I1
sS'processes.'
p11
I1
sS'explain'
p12
I1
sS'technique'
p13
I1
sS'disability'
p14
I1
sS'relating'
p15
I1
sS'color'
p16
I1
sS'business problem'
p17
I1
sS'multitask'
p18
I1
sS'401'
p19
I1
sS'supportand'
p20
I1
sS'interprets'
p21
I1
sS'transformation'
p22
I1
sS'pay'
p23
I1
sS'move'
p24
I1
sS'data modeling'
p25
I1
sS'solution.'
p26
I1
sS'practices.'
p27
I1
sS'providing'
p28
I1
sS'measurement'
p29
I1
sS'consolidation'
p30
I1
sS'required.'
p31
I3
sS'qualified'
p32
I1
sS'five'
p33
I1
sS'competitive'
p34
I1
sS'competing'
p35
I1
sS'practicing'
p36
I1
sS'highly'
p37
I2
sS's.e.m.m.a'
p38
I1
sS'gender'
p39
I1
sS'problems.'
p40
I1
sS'solution'
p41
I2
sS'communication skills'
p42
I1
sS'across'
p43
I1
sS'large'
p44
I1
sS'audience'
p45
I1
sS'miner.'
p46
I1
sS'sciences/statistics'
p47
I1
sS'characteristic'
p48
I1
sS'analytical'
p49
I2
sS'including'
p50
I1
sS'logistic'
p51
I1
sS'crm'
p52
I1
sS'mathematical'
p53
I1
sS'predictive'
p54
I1
sS'verbal'
p55
I1
sS'core'
p56
I1
sVframe
p57
I1
sS'committed'
p58
I1
sS'related'
p59
I1
sS'button.'
p60
I1
sS'year'
p61
I1
sS'manipulating'
p62
I1
sVoperation
p63
I2
sS'along'
p64
I1
sS'employment'
p65
I4
sS'click'
p66
I1
sS'special'
p67
I1
sS'ability'
p68
I1
sS'preparation'
p69
I1
sS'business'
p70
I6
sS'driving'
p71
I1
sS"master's"
p72
I1
sS'decision'
p73
I3
sS'schedule'
p74
I1
sS'please'
p75
I1
sVbenefit
p76
I2
sS'religion'
p77
I1
sS'written'
p78
I1
sS'race'
p79
I1
sS'database marketing'
p80
I1
sS'offline'
p81
I1
sS'approach'
p82
I1
sS'method'
p83
I1
sS'multivariate'
p84
I1
sS'teradata'
p85
I1
sS'data analysis'
p86
I2
sS'linear'
p87
I1
sS'degree'
p88
I2
sS'marketing'
p89
I3
sS'equivalent'
p90
I1
sS'genetic'
p91
I1
sS'data scientist'
p92
I1
sS'leadership'
p93
I1
sS'grow'
p94
I1
sS'key'
p95
I1
sS'modeling'
p96
I4
sS'techniques.'
p97
I1
sS'strong'
p98
I1
sS'marital'
p99
I1
sS'fact-based'
p100
I1
sS'improve'
p101
I1
sS'interaction'
p102
I1
sS'package'
p103
I1
sS'experiencepreferred'
p104
I1
sS'k'
I1
sS'equal'
p105
I2
sS'experience'
p106
I4
sS'customer analytics'
p107
I1
sS'plus'
p108
I1
sVqualification
p109
I1
sS'identify'
p110
I1
sS'plus.'
p111
I1
sS'expression'
p112
I1
sS'origin'
p113
I1
sS'mortems'
p114
I1
sS'consulting'
p115
I1
sS'statistical modeling'
p116
I1
sS'formulating'
p117
I1
sS'within'
p118
I1
sS'sql'
p119
I1
sS'strategic'
p120
I1
sS'data mining'
p121
I3
sS'synthesize'
p122
I1
sS'analyzing'
p123
I1
sS'marketing strategy'
p124
I2
sS'national'
p125
I1
sS'consideration'
p126
I2
sS'apply'
p127
I2
sS'activity.'
p128
I1
sS'post'
p129
I1
sS'unit'
p130
I1
sS'orientation'
p131
I1
sS'clustering'
p132
I1
sS'sexual'
p133
I1
sS'revenue.'
p134
I1
sS'opportunity'
p135
I3
sS'support'
p136
I1
sS'system'
p137
I1
sS'reduction'
p138
I1
sS'strategies.'
p139
I1
sS'knowledge'
p140
I3
sS'operations research'
p141
I2
sS'firm'
p142
I1
sS'offer'
p143
I1
sS'regard'
p144
I1
sS'immediate'
p145
I1
sS'statistical model'
p146
I1
sS'strategic thinking'
p147
I1
sS'skills.'
p148
I1
sS'excellent'
p149
I1
sS'sex'
p150
I1
sS'project management'
p151
I2
sS'maximizing'
p152
I1
sS'determines'
p153
I1
sS'presentation'
p154
I1
sS'work'
p155
I3
sS'tree'
p156
I2
sS'imputation'
p157
I1
sVproject
p158
I1
sS'receive'
p159
I1
sS'protected'
p160
I2
sS'making'
p161
I1
sS'balance'
p162
I1
sS'seven'
p163
I1
sS'citizenship'
p164
I1
sS'priorities.'
p165
I1
sVstatistic
p166
I2
sS'management science'
p167
I1
sS'statistics operations research'
p168
I1
sS'minimum'
p169
I1
sS'regression'
p170
I2
sS'information'
p171
I2
sS'law.'
p172
I1
sS'integrated marketing'
p173
I1
sS'develop'
p174
I1
sS'corporation'
p175
I1
sS'veteran'
p176
I1
sS'responsible'
p177
I1
sS'sas enterprise guide'
p178
I1
sS'consumer'
p179
I1
sS'field'
p180
I1
sS'internal'
p181
I1
sS'online'
p182
I1
sS'finding'
p183
I2
sS'mathematics'
p184
I2
sS'depot'
p185
I2
sS'status'
p186
I3
sS'product'
p187
I2
sS'multiple'
p188
I1
sS'intended'
p189
I1
sS'exciting'
p190
I1
sS'includes'
p191
I1
sS'driven'
p192
I1
sS'develops'
p193
I1
sS'involving'
p194
I1
sS'purpose'
p195
I1
sS'plenty'
p196
I1
sS'quantitative'
p197
I3
sS'variable'
p198
I1
sS'data'
p199
I2
sVsa
p200
I1
sS'network'
p201
I1
sS'salary'
p202
I1
sS'organization'
p203
I1
sS'functions.'
p204
I1
sS'neural'
p205
I1
sS'typically'
p206
I1
sS'age'
p207
I1
sS'applicant'
p208
I1
sVm
I1
sS'inform'
p209
I1
sS'accountable'
p210
I1
sS'without'
p211
I1
sVresponsibility
p212
I1
sS'enterprise'
p213
I1
sS'position'
p214
I2
sS'requires'
p215
I1
s.