(dp1
S'limited'
p2
I1
sS'learning'
p3
I1
sS'project.'
p4
I1
sS'creation'
p5
I1
sS'desk'
p6
I1
sS'focus'
p7
I1
sS'bring'
p8
I1
sS'including'
p9
I1
sS'cooperative'
p10
I1
sS'innovative'
p11
I1
sVskill
p12
I3
sS'monitoring.'
p13
I1
sS'integrity'
p14
I1
sS'sharepoint'
p15
I1
sS'web'
p16
I2
sS'inspiring'
p17
I2
sS'upgrade'
p18
I2
sS'based'
p19
I1
sS'knowledge'
p20
I1
sS'adp'
p21
I1
sS'possible.'
p22
I1
sS'bladelogic'
p23
I1
sS'environment'
p24
I3
sS'platform'
p25
I1
sVwindow
p26
I2
sS'vital'
p27
I1
sS'location'
p28
I1
sS'service.'
p29
I1
sS'support.'
p30
I1
sS'ca'
p31
I1
sS'11'
p32
I1
sS'within'
p33
I1
sS'format'
p34
I1
sS"'run'"
p35
I1
sS'conduct'
p36
I1
sS'overall'
p37
I2
sS'installs'
p38
I1
sS'required.'
p39
I1
sS'responsibility.'
p40
I1
sS'often'
p41
I1
sS'working'
p42
I2
sS'runbooks'
p43
I1
sS'every'
p44
I1
sS'background'
p45
I1
sS'deployment'
p46
I2
sS'more.'
p47
I1
sS'one'
p48
I2
sS'day'
p49
I2
sS'strive'
p50
I1
sS'resource.'
p51
I1
sS'identifying'
p52
I1
sS'integrating'
p53
I1
sS'solution'
p54
I7
sS'server'
p55
I1
sS'continue'
p56
I1
sS'excellence'
p57
I1
sS'team'
p58
I5
sS'security'
p59
I1
sS'system'
p60
I1
sS'enjoy'
p61
I1
sS'predictive'
p62
I1
sS'.net'
p63
I1
sS'primarily'
p64
I1
sS'people'
p65
I2
sS'committed'
p66
I1
sS'administrator'
p67
I1
sS'batch'
p68
I1
sS'unlock'
p69
I1
sS'design'
p70
I4
sS'migration'
p71
I2
sS'home'
p72
I1
sS'state.'
p73
I1
sS'best'
p74
I1
sS'situation'
p75
I1
sS"bachelor's"
p76
I1
sS'delivered'
p77
I2
sS'projects.'
p78
I1
sS'expert'
p79
I2
sS'bash/shell'
p80
I1
sS'broad'
p81
I1
sS'apply'
p82
I1
sS'saas'
p83
I1
sS'research'
p84
I1
sS'everything'
p85
I1
sS'various'
p86
I3
sS'innovation'
p87
I2
sS'new'
p88
I3
sS'issue'
p89
I1
sS'thrive'
p90
I1
sS'patches.'
p91
I1
sS'core'
p92
I1
sS'infrastructure'
p93
I1
sS'ability'
p94
I6
sS'business'
p95
I1
sS'websphere'
p96
I1
sS'data scientist'
p97
I1
sS'million'
p98
I1
sS'deliver'
p99
I1
sS'non-production'
p100
I1
sS'standard'
p101
I1
sS'highly'
p102
I1
sS'operating'
p103
I2
sS'strong'
p104
I1
sS'demonstrate'
p105
I1
sS'apache'
p106
I1
sS'100'
p107
I1
sS'configuration'
p108
I1
sS'b2b'
p109
I1
sS'change'
p110
I2
sS'software'
p111
I1
sS'empowering'
p112
I1
sS'interaction'
p113
I1
sS'certifications.'
p114
I1
sS'career'
p115
I1
sS'industry'
p116
I1
sS'transition'
p117
I2
sS'experience'
p118
I4
sS'implementation'
p119
I4
sVplace
p120
I1
sS'workplace'
p121
I1
sS'social'
p122
I1
sS'focused'
p123
I1
sS'implement'
p124
I3
sS'procedural'
p125
I1
sS'support'
p126
I3
sS'first'
p127
I1
sS'degree'
p128
I1
sS'2008/2012/2016'
p129
I1
sS'named'
p130
I1
sS'family'
p131
I2
sS'structures.'
p132
I1
sS'app'
p133
I1
sS'manage'
p134
I1
sS'comprised'
p135
I1
sS'appropriate'
p136
I1
sS'independently'
p137
I1
sS'fast'
p138
I1
sS'guides/details'
p139
I1
sS'redefining'
p140
I1
sS'post'
p141
I1
sS'cloud'
p142
I1
sS'engineer'
p143
I3
sS'management'
p144
I1
sS'java'
p145
I1
sS'service'
p146
I4
sS'leading'
p147
I1
sS'create'
p148
I1
sS"world's"
p149
I1
sS'least'
p150
I1
sS'perl'
p151
I1
sS'production'
p152
I2
sS'asset'
p153
I1
sS'way'
p154
I2
sS'basic'
p155
I2
sS'utilizing'
p156
I1
sS'release/patches.'
p157
I1
sS'achieving'
p158
I1
sS'insightful'
p159
I1
sS'virtual/remote'
p160
I1
sS'exploring'
p161
I1
sS'life'
p162
I2
sS'testing'
p163
I1
sS'critical thinking'
p164
I1
sS'relationship'
p165
I2
sS'offer'
p166
I1
sS'company'
p167
I2
sS'agility'
p168
I1
sS'envelope'
p169
I1
sS'employees.'
p170
I1
sS'volume'
p171
I1
sS'product development'
p172
I1
sS'part'
p173
I1
sS'automated'
p174
I1
sS'level'
p175
I2
sVcount
p176
I1
sS'high'
p177
I1
sS'multi'
p178
I1
sS'12'
p179
I1
sS'developing'
p180
I1
sS'plans.'
p181
I1
sS'setup'
p182
I1
sS'work'
p183
I7
sS'installing'
p184
I1
sS'value'
p185
I1
sS'proficient'
p186
I1
sS'project'
p187
I2
sS'brilliant'
p188
I1
sS'future'
p189
I1
sS'architect'
p190
I1
sS'following'
p191
I2
sVsle
p192
I1
sS'pm'
p193
I1
sS'powershell'
p194
I1
sS'scripting'
p195
I1
sS'result'
p196
I1
sS'detailed'
p197
I3
sS'activities.'
p198
I1
sS'adp.'
p199
I1
sS'recognize'
p200
I1
sS'spectrum'
p201
I1
sVii
p202
I1
sS'expertise'
p203
I1
sVo
I1
sS'arise'
p204
I1
sS'results-driven'
p205
I1
sS'technology'
p206
I3
sS'concept'
p207
I1
sS'monitoring'
p208
I1
sS'varied'
p209
I1
sS'provide'
p210
I1
sS"computerworld's"
p211
I1
sS'responsible'
p212
I3
sS'-'
I1
sS'client'
p213
I1
sS'also'
p214
I1
sS'potential'
p215
I1
sS'build'
p216
I2
sS'largest'
p217
I1
sS'test'
p218
I1
sS'document'
p219
I1
sS'intelligent'
p220
I1
sS'product'
p221
I3
sS'engineers.'
p222
I2
sS'escalate'
p223
I1
sS'customizing'
p224
I1
sS'update'
p225
I1
sS'includes'
p226
I1
sS'driven'
p227
I1
sS'running'
p228
I1
sS'important'
p229
I1
sS'tier'
p230
I4
sS'5 year'
p231
I1
sS'network'
p232
I1
sS'building'
p233
I1
sS'forever'
p234
I1
sS'task'
p235
I1
sS'database'
p236
I1
sS'required'
p237
I1
sS'well'
p238
I2
sS'person'
p239
I1
sS'maintain'
p240
I1
sS'implementation/deployment'
p241
I1
sS'push'
p242
I1
sS'position'
p243
I3
sS'docker'
p244
I1
sS'latest'
p245
I3
sS'technical'
p246
I2
sS'paced'
p247
I1
sS"forbes'"
p248
I1
s.