(dp1
S'breadth'
p2
I1
sS'concept'
p3
I3
sS'flavors---open'
p4
I1
sS'excellent'
p5
I3
sS'focus'
p6
I2
sS'existing'
p7
I1
sS'manager'
p8
I2
sS'code'
p9
I1
sS'go'
p10
I2
sS'country/globe'
p11
I1
sS'remarkably'
p12
I1
sS'smes'
p13
I1
sS'looking'
p14
I1
sS'environment'
p15
I6
sS'foster'
p16
I1
sS'position.'
p17
I1
sS'lead/members'
p18
I1
sS'suite'
p19
I1
sS'must'
p20
I1
sS'started'
p21
I1
sS'global'
p22
I2
sS'replication'
p23
I1
sS'artwork'
p24
I1
sS'micromanage'
p25
I1
sS'month'
p26
I1
sS'entire'
p27
I1
sS'level'
p28
I1
sS'fast-paced'
p29
I1
sS'problems.'
p30
I1
sS'solution'
p31
I5
sS'rabbitmq'
p32
I3
sS'leave'
p33
I1
sS'excellence'
p34
I4
sS'minimal'
p35
I1
sS'do/build'
p36
I1
sS'team'
p37
I20
sS'pre-alpha/beta.'
p38
I1
sS'enjoy'
p39
I8
sS'consistent'
p40
I1
sS'direct'
p41
I1
sS'thinker'
p42
I1
sS'street'
p43
I1
sS'design'
p44
I10
sS'mid-tier'
p45
I2
sS'folk'
p46
I2
sS'clock'
p47
I1
sS'product.'
p48
I2
sS'find'
p49
I1
sS'current'
p50
I1
sS'version'
p51
I1
sS'designing'
p52
I1
sS'senior-level.'
p53
I1
sS'new'
p54
I4
sS'movement'
p55
I3
sS'roles.'
p56
I1
sS'evolving'
p57
I1
sS'traders.'
p58
I1
sS'paas.'
p59
I1
sS'communicate'
p60
I1
sS'objective.'
p61
I1
sS'commercial'
p62
I1
sS'delivering'
p63
I1
sS'explore'
p64
I1
sS'focused'
p65
I2
sS'24-hour'
p66
I1
sS'others'
p67
I2
sS'path'
p68
I1
sS'along'
p69
I1
sS'strong'
p70
I4
sS'software development'
p71
I1
sS'great'
p72
I1
sS'skills.'
p73
I2
sS'talent'
p74
I1
sS'rds'
p75
I1
sS'technical'
p76
I1
sS'involved'
p77
I1
sS'larger'
p78
I1
sS'bot'
p79
I1
sS'experience'
p80
I12
sS'throughput'
p81
I1
sS'via'
p82
I2
sS'love'
p83
I5
sS'expect/demand'
p84
I1
sS'process/team'
p85
I1
sS'app'
p86
I1
sS'manage'
p87
I2
sS'logical'
p88
I1
sS'highly'
p89
I1
sS'flexibility'
p90
I1
sS'punching'
p91
I1
sS'apply'
p92
I2
sS'establish'
p93
I1
sS'cloud'
p94
I4
sS'use'
p95
I1
sS'dna'
p96
I1
sS'working'
p97
I3
sS'perk'
p98
I1
sS'next'
p99
I5
sS'embrace/grow'
p100
I1
sS'live'
p101
I1
sS'program'
p102
I1
sS'music'
p103
I1
sS'asset'
p104
I1
sS'type'
p105
I1
sS'today'
p106
I1
sS'optimizing'
p107
I1
sS'upcoming'
p108
I1
sS"'who"
p109
I1
sS'successful'
p110
I1
sS'company'
p111
I2
sS'experience/background.'
p112
I1
sS'app-dev'
p113
I1
sS'real-time'
p114
I3
sS'physically'
p115
I1
sS'subscription'
p116
I1
sS'customer'
p117
I2
sS'market.'
p118
I1
sS"'data"
p119
I1
sS'join'
p120
I2
sS'hour'
p121
I1
sS'us.'
p122
I1
sS'work'
p123
I8
sS'dev'
p124
I2
sS'cat'
p125
I1
sS'mq'
p126
I1
sS'evolved'
p127
I1
sS'learn'
p128
I1
sS'following'
p129
I1
sS'mongo'
p130
I1
sS'ethic.'
p131
I1
sS'process'
p132
I1
sS'awesome'
p133
I2
sS'high'
p134
I3
sS'effectively'
p135
I1
sS'minimum'
p136
I1
sS'want'
p137
I3
sS'huge'
p138
I1
sS'goal'
p139
I1
sS'guidance/feedback'
p140
I1
sS'provide'
p141
I2
sS'discussion'
p142
I1
sS'exceptional'
p143
I5
sS'net-net'
p144
I1
sS'gaming'
p145
I2
sS'product'
p146
I8
sS'attend'
p147
I1
sS'may'
p148
I2
sS"engineers'"
p149
I1
sS'tier'
p150
I3
sS'communicator'
p151
I1
sS'message-based'
p152
I1
sS'data'
p153
I16
sS'compatibility'
p154
I1
sVphysic
p155
I1
sS'paas'
p156
I1
sS'life'
p157
I3
sS'supervision'
p158
I1
sS'vms.'
p159
I1
sS'rather'
p160
I3
sS'maintain'
p161
I3
sS'9+ year'
p162
I1
sS'operate'
p163
I1
sS'talk'
p164
I1
sS'prioritizing'
p165
I1
sS'development.'
p166
I1
sS'feedback'
p167
I2
sS"don't"
p168
I3
sS'essence'
p169
I1
sS'mission'
p170
I2
sS'kafka'
p171
I3
sS'co-located'
p172
I1
sS'course'
p173
I1
sS'interpersonal'
p174
I1
sS'including'
p175
I3
sS'innovative'
p176
I1
sS'mentioned'
p177
I2
sS'developer'
p178
I4
sS'perfect'
p179
I1
sS'interesting'
p180
I1
sS'winning'
p181
I1
sS'platform'
p182
I7
sS'might'
p183
I1
sS'love---explore'
p184
I1
sS'seeking'
p185
I1
sS'practice'
p186
I1
sS'band'
p187
I1
sS'queues/topics'
p188
I1
sS'eai/custom'
p189
I1
sS'one'
p190
I1
sVday
p191
I2
sS'term'
p192
I1
sS'workload'
p193
I1
sS'always'
p194
I3
sS'early-stage'
p195
I1
sS"technology'"
p196
I1
sS'capability'
p197
I3
sS'master data management'
p198
I1
sS'end-to-end'
p199
I2
sS'here---we'
p200
I1
sS'week'
p201
I1
sS'financial'
p202
I1
sS'another'
p203
I1
sS'community-based'
p204
I1
sS'independent'
p205
I1
sS'generation'
p206
I2
sS'energy'
p207
I3
sS'idea'
p208
I2
sS'related'
p209
I2
sS'iot-intensive'
p210
I1
sS'fostered'
p211
I1
sS'design/modify/enhance'
p212
I1
sS'enterprise software'
p213
I1
sS'expect'
p214
I2
sS'hobbies.'
p215
I1
sS'hosted'
p216
I1
sS'seniority'
p217
I1
sS'operation'
p218
I1
sS'beyond'
p219
I1
sS'event'
p220
I3
sS"'job"
p221
I1
sS'mid-'
p222
I1
sS'3rd'
p223
I2
sS'space'
p224
I2
sS'characteristic'
p225
I1
sS'create.'
p226
I1
sS'publish'
p227
I1
sS'content'
p228
I1
sS'test/critique'
p229
I1
sS'got'
p230
I1
sS'product/technology.'
p231
I1
sS'sensor'
p232
I2
sS'math'
p233
I1
sS'restoring'
p234
I1
sS'data scientist'
p235
I1
sS'standard'
p236
I3
sS'reason'
p237
I1
sS'base'
p238
I1
sS'deliver'
p239
I1
sS'imagine'
p240
I1
sS'ask'
p241
I1
sS'revolutionary'
p242
I1
sS'definition'
p243
I1
sS'training'
p244
I2
sS'organic'
p245
I2
sS'created'
p246
I2
sS'retail'
p247
I1
sS'first'
p248
I4
sS'feed'
p249
I1
sS'coding'
p250
I1
sS'architect/developer'
p251
I1
sS'strategic'
p252
I2
sS'self-driven'
p253
I1
sS'flavors.'
p254
I1
sS'team---if'
p255
I1
sS'message'
p256
I4
sS'self-motivation.'
p257
I1
sS'open'
p258
I4
sS'engineer'
p259
I9
sS"you're"
p260
I1
sS'given'
p261
I3
sS'service'
p262
I3
sS'overtime'
p263
I1
sS'leading'
p264
I1
sS'top'
p265
I2
sS'engagement'
p266
I1
sViaa
p267
I1
sS'system'
p268
I4
sS'least'
p269
I1
sS'remotely'
p270
I1
sS'priority'
p271
I1
sS'needed'
p272
I1
sS'master'
p273
I1
sS'fixes/enhancements.'
p274
I1
sS'store'
p275
I1
sS'exploring'
p276
I1
sS'self-motivated'
p277
I1
sS'relationship'
p278
I1
sS'business problem'
p279
I1
sS'tool'
p280
I3
sS'contributor'
p281
I2
sS'innovate'
p282
I2
sS'released'
p283
I1
sS'part'
p284
I1
sS'believe'
p285
I3
sS'embrace.'
p286
I1
sS'culture'
p287
I5
sS'feeds-projects'
p288
I1
sS'require'
p289
I1
sS'solutions.'
p290
I2
sS'matter'
p291
I1
sS'compensation'
p292
I1
sS'future'
p293
I1
sS'architect'
p294
I1
sS'video'
p295
I1
sS"company's"
p296
I1
sS'toward'
p297
I1
sS'function'
p298
I1
sS"pro's"
p299
I1
sS'customers.'
p300
I1
sS'event/message'
p301
I1
sS'experience.'
p302
I2
sS'comfortable'
p303
I1
sS'say'
p304
I1
sS'teams.'
p305
I1
sS"'above-and-beyond'"
p306
I1
sS'need'
p307
I2
sS'architected'
p308
I1
sS'viewed'
p309
I1
sS'data.'
p310
I1
sVhub
p311
I3
sS'depending'
p312
I2
sS'customer-based'
p313
I1
sVpa
p314
I1
sS'fashion.'
p315
I1
sS'responsible'
p316
I1
sS'able'
p317
I1
sS'snow'
p318
I1
sS'incentive'
p319
I1
sS'also'
p320
I3
sS'emphasis'
p321
I1
sS'internal'
p322
I2
sS'build'
p323
I1
sS'off-shore'
p324
I1
sS'online'
p325
I1
sS'subject'
p326
I1
sS'multiple'
p327
I1
sS'collaboration'
p328
I3
sS"technologists'"
p329
I1
sS"platform---we've"
p330
I1
sS'business.'
p331
I1
sS'paid'
p332
I1
sS'plan'
p333
I1
sS'organization'
p334
I2
sS'extremely'
p335
I1
sS'reward'
p336
I2
sS'sql server'
p337
I1
sS'mobile'
p338
I1
sVm
I1
sS'drive'
p339
I2
sS'traditional'
p340
I1
sS"you'll"
p341
I1
sS'tech'
p342
I1
sS'professional'
p343
I1
sS'senior'
p344
I1
sS'consumer'
p345
I1
sS'posse'
p346
I1
sS'providers.'
p347
I1
sS'bring'
p348
I2
sS'messaging/event-based'
p349
I1
sS'planning'
p350
I1
sS'line'
p351
I1
sS'r d'
p352
I1
sS'impact'
p353
I2
sS'based'
p354
I2
sS'knowledge'
p355
I4
sS'big data'
p356
I2
sS'implementation'
p357
I1
sS'distributed'
p358
I2
sS'written'
p359
I1
sS'operational'
p360
I1
sS'held'
p361
I1
sS'going'
p362
I1
sS"way'."
p363
I1
sS'performance testing'
p364
I1
sS'employee'
p365
I3
sS'enthusiasm'
p366
I1
sS'data modeling'
p367
I1
sS'get'
p368
I2
sS'practices.'
p369
I1
sS'db'
p370
I1
sS'preferred'
p371
I1
sS"con's"
p372
I1
sS'movement/messaging'
p373
I1
sS'cannot'
p374
I1
sS'closely'
p375
I1
sS'relational'
p376
I1
sS'invited'
p377
I1
sS'gen'
p378
I3
sS'left-and-right'
p379
I1
sS'covering'
p380
I1
sS'undergrad'
p381
I1
sS'qa'
p382
I1
sS'models/patterns'
p383
I1
sS'architecture'
p384
I3
sS'activity'
p385
I1
sS'management technology'
p386
I1
sS'lifecycle'
p387
I1
sS'vision'
p388
I1
sS'set'
p389
I1
sS'supporting'
p390
I1
sS'acquired'
p391
I1
sS'testing'
p392
I1
sS'niche'
p393
I1
sS'bi-weekly'
p394
I1
sS'analytics'
p395
I1
sS'see'
p396
I2
sS'individual'
p397
I3
sS'result'
p398
I3
sS'skill'
p399
I2
sS'best'
p400
I2
sS'encouraged'
p401
I1
sS'hackathons'
p402
I1
sVexpert
p403
I2
sS'tackling'
p404
I1
sS"master's"
p405
I1
sS'pattern'
p406
I1
sS'away'
p407
I1
sS'currently'
p408
I1
sS'please'
p409
I3
sS'quality'
p410
I1
sS'enough'
p411
I1
sS'various'
p412
I8
sS'hopefully'
p413
I1
sS'full-stack'
p414
I1
sS'numerous'
p415
I1
sS'across'
p416
I3
sS'conferencing'
p417
I1
sS'infrastructure'
p418
I2
sS'ability'
p419
I4
sS'nature'
p420
I1
sS'keyboard'
p421
I1
sS'ph.d.'
p422
I1
sS'sold'
p423
I1
sS'genscape'
p424
I3
sS'however'
p425
I1
sS'dual-home'
p426
I1
sS'succeed'
p427
I1
sS'understanding'
p428
I1
sS'come'
p429
I4
sS'autonomous'
p430
I1
sS'received'
p431
I1
sS'talented'
p432
I3
sS'career'
p433
I3
sS'many'
p434
I6
sS'trader'
p435
I1
sS'annual'
p436
I1
sS"'support"
p437
I1
sS'etc'
p438
I4
sS'operating'
p439
I2
sS'asked'
p440
I1
sS'etl'
p441
I1
sS'load'
p442
I1
sS'wall'
p443
I1
sS'app-dev/data'
p444
I1
sS'community'
p445
I2
sS'60'
p446
I1
sS'initiative'
p447
I1
sS'learning'
p448
I1
sS'technologist'
p449
I4
sS'conference'
p450
I1
sS'custom/derived'
p451
I1
sS'eai/high-performance'
p452
I1
sS'hard-products'
p453
I1
sS'addition'
p454
I1
sS'outstanding'
p455
I2
sS'.'
I2
sS'center'
p456
I1
sS'much'
p457
I1
sS'interest'
p458
I1
sS'basic'
p459
I1
sS'collaborator'
p460
I1
sS'flexible'
p461
I1
sS'meeting'
p462
I1
sS'attractive'
p463
I1
sS'field'
p464
I1
sS'direction'
p465
I1
sS'data-movement/data'
p466
I1
sS'success.'
p467
I1
sS'patented'
p468
I1
sS'environment.'
p469
I2
sS'understand'
p470
I3
sS'proven'
p471
I2
sS'tibco'
p472
I4
sS'stand-ups'
p473
I1
sS'f2f'
p474
I1
sS"journey'"
p475
I1
sS'look'
p476
I1
sS'developing'
p477
I1
sS'messaging/pub-sub'
p478
I1
sS'value'
p479
I1
sS'figure.'
p480
I1
sS'entrepreneurial'
p481
I1
sS'ongoing'
p482
I1
sS'fun'
p483
I1
sS'balance'
p484
I1
sS'mpp/big'
p485
I1
sS'application development'
p486
I1
sS'welding'
p487
I1
sS'layer'
p488
I1
sS'30'
p489
I1
sS'rock-climbing'
p490
I1
sS'ip'
p491
I1
sS'encouragement'
p492
I1
sS'player'
p493
I1
sS'embrace'
p494
I2
sS'change/evolution'
p495
I1
sS'technology'
p496
I13
sS'diagnostic'
p497
I1
sS'happy'
p498
I1
sS'uptime'
p499
I1
sS'develop'
p500
I4
sS'combination'
p501
I1
sS'tools/etc'
p502
I1
sS'make'
p503
I2
sS'hadoop'
p504
I1
sS'maintain/modify'
p505
I1
sS'member'
p506
I3
sS'party'
p507
I2
sS'document'
p508
I1
sS'development'
p509
I10
sS'evolve'
p510
I3
sS'used'
p511
I1
sS'practitioner'
p512
I1
sS'bonus'
p513
I1
sS'ownership'
p514
I1
sS'dev/architect'
p515
I1
sS'changing'
p516
I1
sS'opportunity'
p517
I2
sS'expand'
p518
I2
sS'environments.'
p519
I1
sS'organically'
p520
I1
sS'reflection'
p521
I1
sS"'clock-puncher'"
p522
I1
sS'well'
p523
I5
sS'customized'
p524
I1
sS'analysis'
p525
I1
sS'user experience'
p526
I1
sS'client'
p527
I1
sS'solve'
p528
I1
sS'greatest'
p529
I1
sS'consistency'
p530
I2
sS'position'
p531
I3
sS'model'
p532
I1
sS'bounced'
p533
I1
sS'unified'
p534
I1
sS'composing'
p535
I1
sS'software/data-based'
p536
I1
sS'aspect'
p537
I1
sS'day-to-day'
p538
I1
sS'flavor'
p539
I1
sS'speed'
p540
I1
sS'captured'
p541
I1
sS'work.'
p542
I2
sS'majority'
p543
I2
sS"one-platform'"
p544
I1
sS'add'
p545
I1
sS'standards/work'
p546
I1
sS'5'
I1
sS'real'
p547
I1
sS'vendor'
p548
I2
sS'around'
p549
I1
sS'built'
p550
I1
sS'know'
p551
I5
sS'deployment'
p552
I1
sS'tibco/other'
p553
I1
sS'throughput.'
p554
I1
sS'world-class'
p555
I1
sS'necessary'
p556
I1
sS'like'
p557
I1
sS'identifying'
p558
I1
sS'server'
p559
I1
sS'benefit'
p560
I2
sS'continue'
p561
I3
sS'micro-management.'
p562
I1
sS'simply'
p563
I1
sS'computer-science'
p564
I1
sS'passionate'
p565
I2
sS'soft'
p566
I1
sS'essential'
p567
I1
sS'often'
p568
I2
sS'verbal'
p569
I1
sS'back'
p570
I1
sVcompetition
p571
I1
sS'growth'
p572
I1
sS'left-'
p573
I1
sS'sprint'
p574
I1
sS'and/or'
p575
I6
sS'dynamic/distributed'
p576
I1
sS'broad'
p577
I1
sS'saas'
p578
I1
sS'integration'
p579
I1
sS'/'
I3
sS'critical'
p580
I4
sS'passion'
p581
I2
sS'innovation'
p582
I1
sS'over-used'
p583
I1
sS'community.'
p584
I1
sS'demonstrated'
p585
I3
sS'core'
p586
I3
sS"'are"
p587
I1
sS'capabilities.'
p588
I2
sS'latest/greatest'
p589
I1
sS'business-critical'
p590
I1
sS'equivalent'
p591
I1
sS'white-board'
p592
I1
sS'platform.'
p593
I1
sS'comp-sci'
p594
I1
sS'carefulness'
p595
I1
sS'found'
p596
I1
sS'assemble'
p597
I1
sS'cranking'
p598
I1
sS'postgresql'
p599
I1
sS'would'
p600
I3
sS'dependency'
p601
I1
sS'range'
p602
I1
sS'ensure'
p603
I2
sS'azure'
p604
I2
sS'messaging'
p605
I12
sS'software'
p606
I10
sS'heavy'
p607
I1
sS'explore/interact'
p608
I1
sS'previously'
p609
I1
sS'communication'
p610
I1
sS'within'
p611
I2
sS'commitment'
p612
I2
sS'strategy.'
p613
I2
sS'balanced'
p614
I1
sS'distributing'
p615
I1
sS'analyst'
p616
I1
sS'area'
p617
I1
sS'support'
p618
I4
sS'cloud-based'
p619
I1
sS'accountability'
p620
I1
sS'systems.'
p621
I1
sS'start'
p622
I1
sS'camera'
p623
I1
sS'way'
p624
I2
sS'platforms/environments'
p625
I1
sS'eai'
p626
I1
sS'4 year'
p627
I1
sS'complete'
p628
I1
sS'offering'
p629
I2
sS'offer'
p630
I3
sS'forming'
p631
I1
sS'sophisticated'
p632
I1
sS'delivery'
p633
I3
sS'brain'
p634
I1
sS'principles/architectures'
p635
I1
sS'true'
p636
I2
sS'bug'
p637
I1
sS'full'
p638
I1
sS'ecosystem'
p639
I1
sS'genscape.'
p640
I3
sS'data management'
p641
I1
sS"genscape's"
p642
I3
sS'demonstrate'
p643
I2
sS'distribution'
p644
I3
sS'etc.'
p645
I1
sS'detailed'
p646
I1
sS'migrate'
p647
I1
sS'recognize'
p648
I1
sS'year'
p649
I1
sS'moved'
p650
I1
sS'deep'
p651
I3
sS'globally'
p652
I1
sS'engineering'
p653
I1
sS'expertise'
p654
I1
sS'home'
p655
I1
sS'stack.'
p656
I1
sS'technologies.'
p657
I2
sS'right-brain'
p658
I1
sS'ideally'
p659
I1
sS'contest'
p660
I1
sS'hybrid'
p661
I1
sS'detail'
p662
I1
sS'application'
p663
I3
sS'etl/elt'
p664
I1
sS'role'
p665
I5
sS'cultures.'
p666
I1
sS'collaborative'
p667
I1
sS'java/c'
p668
I1
sS'scrum'
p669
I2
sS'aws'
p670
I2
sS'includes'
p671
I1
sS"'a"
p672
I1
sS'sql'
p673
I2
sS'throughout'
p674
I1
sS'pool'
p675
I1
sS'exposure'
p676
I1
sS'land'
p677
I1
sS'remote'
p678
I1
sS'existing/heritage'
p679
I1
sS'software---not'
p680
I1
sS'portion'
p681
I1
sS'summit'
p682
I1
sS'u'
I2
sS"function'"
p683
I1
sS'time'
p684
I1
s.