(dp1
S'roi'
p2
I2
sS'global'
p3
I1
sS'desirable'
p4
I3
sS'go'
p5
I1
sS'tv'
p6
I1
sS'technique'
p7
I1
sS'send'
p8
I1
sS'environment'
p9
I2
sS'matlab'
p10
I1
sS'include'
p11
I1
sS'data-driven'
p12
I1
sS'collaborate'
p13
I1
sS'attribution'
p14
I7
sS'dollar'
p15
I2
sS'regional'
p16
I1
sS'every'
p17
I1
sS'offline'
p18
I1
sS'level'
p19
I1
sS'solution'
p20
I8
sS'hive'
p21
I1
sS'answers.'
p22
I1
sS'adjust'
p23
I1
sS'excellence'
p24
I1
sS'team'
p25
I7
sS'enhance'
p26
I1
sS'next-gen'
p27
I1
sS'ten'
p28
I1
sS'elegant'
p29
I1
sS'rigorous'
p30
I1
sS'others.'
p31
I1
sS'machine learning'
p32
I2
sS'click'
p33
I1
sS'even'
p34
I1
sS'new'
p35
I4
sS'marketer'
p36
I1
sS'pose'
p37
I1
sS'explosion'
p38
I1
sS'degree'
p39
I1
sS'never'
p40
I1
sS'understanding'
p41
I1
sS'met'
p42
I1
sS'address'
p43
I1
sS'publisher'
p44
I1
sS'search'
p45
I1
sVtalent
p46
I1
sS'technical'
p47
I1
sS'experience'
p48
I7
sS'resulting'
p49
I1
sS'1-3 year'
p50
I1
sS'complicated'
p51
I1
sS'implement'
p52
I1
sS'mix'
p53
I1
sS'manage'
p54
I1
sS'highly'
p55
I1
sS'cloud'
p56
I2
sS'use'
p57
I2
sS'web analytics'
p58
I1
sS'revenue.'
p59
I1
sS'next'
p60
I2
sS'adtech'
p61
I3
sS'data management'
p62
I1
sS'company'
p63
I2
sS'employees.'
p64
I1
sS'data processing'
p65
I1
sS'customer'
p66
I2
sS'tokyo'
p67
I1
sS'challenge'
p68
I1
sS'work'
p69
I6
sS'cat'
p70
I1
sS'making'
p71
I1
sS'control'
p72
I1
sS'compare'
p73
I1
sS'proprietary'
p74
I1
sS"didn't"
p75
I1
sS'want'
p76
I1
sS'provide'
p77
I1
sS'travel'
p78
I1
sS'comfort'
p79
I1
sS'automotive'
p80
I1
sS'answer'
p81
I1
sVproduct
p82
I2
sS'fast-growing'
p83
I1
sS'leisure'
p84
I1
sS'summarize'
p85
I1
sS'complexity'
p86
I3
sS'basket'
p87
I1
sS'5 year'
p88
I1
sS'order'
p89
I1
sS'statistics data mining'
p90
I1
sS'unsolicited'
p91
I1
sS'help'
p92
I3
sS'insight'
p93
I2
sS'course'
p94
I1
sS'scientist'
p95
I1
sS'including'
p96
I1
sS'statistical'
p97
I1
sS'innovative'
p98
I1
sS'growing.'
p99
I1
sS'better'
p100
I1
sS'platform'
p101
I1
sS'willing'
p102
I1
sS'colleague'
p103
I1
sS'interdisciplinary'
p104
I1
sS'practice'
p105
I1
sS'break'
p106
I1
sS'strategic'
p107
I2
sS'decisioncloud'
p108
I1
sS'day'
p109
I1
sS'technology.'
p110
I1
sS'capability'
p111
I1
sS'seldom-easy'
p112
I1
sS'end-to-end'
p113
I1
sS'high-wire'
p114
I1
sS'data analytics'
p115
I2
sS'financial'
p116
I1
sS'challenged'
p117
I1
sS'decision support'
p118
I1
sS'related'
p119
I1
sS'juggling'
p120
I1
sVoperation
p121
I1
sS'insurance'
p122
I1
sS'category'
p123
I1
sS'driving'
p124
I1
sS'space'
p125
I1
sS'1-5 year'
p126
I1
sS'print'
p127
I1
sS'electronics'
p128
I1
sS'math'
p129
I2
sS'working'
p130
I2
sS'resume'
p131
I1
sS"marketshare's"
p132
I1
sS'cookie'
p133
I1
sS'york'
p134
I1
sS'generate'
p135
I1
sS'go.'
p136
I1
sS'keep'
p137
I1
sS'turn'
p138
I1
sS'place'
p139
I1
sS"today's"
p140
I1
sS'retail'
p141
I1
sVrecruiter
p142
I1
sS'hyderabad'
p143
I1
sS'major'
p144
I1
sS'simplifies'
p145
I1
sS'question'
p146
I1
sS'one'
p147
I1
sS"you're"
p148
I1
sS'interact'
p149
I1
sS'love.'
p150
I1
sS'brands.'
p151
I1
sS'investments.'
p152
I1
sS'enhancing'
p153
I1
sS'innovate'
p154
I1
sS'inventing'
p155
I1
sS'believe'
p156
I1
sS'culture'
p157
I1
sS'project'
p158
I1
sS'r'
I1
sS'san'
p159
I1
sS'correction'
p160
I1
sS'spectrum'
p161
I1
sS'need'
p162
I2
sS'flaming'
p163
I1
sS'-'
I2
sS'thorough'
p164
I1
sS'investment'
p165
I1
sS'also'
p166
I1
sS'ideal'
p167
I1
sS'build'
p168
I1
sS'online'
p169
I3
sS'performance'
p170
I1
sS'effectiveness'
p171
I3
sS'channel'
p172
I2
sS'worldwide'
p173
I1
sS"bachelor's"
p174
I1
sS'multiple'
p175
I1
sS'optimizes'
p176
I1
sS'roster'
p177
I1
sS'collaboration'
p178
I1
sS'complexity.'
p179
I1
sS'plan'
p180
I1
sS'placement'
p181
I1
sS'especially'
p182
I1
sS'drive'
p183
I2
sS'actionable'
p184
I2
sS"you'll"
p185
I1
sS'professional'
p186
I1
sS'consumer'
p187
I2
sS'sector'
p188
I1
sS'pricing.'
p189
I1
sS'bring'
p190
I1
sS'radio'
p191
I1
sS'keywords'
p192
I1
sS'analytical/technical'
p193
I1
sS'ground'
p194
I1
sS'impact'
p195
I2
sS'based'
p196
I1
sVimplementation
p197
I1
sS'analytic'
p198
I2
sS'ambiguity'
p199
I1
sS'equity'
p200
I1
sS'data mining machine learning'
p201
I1
sS'get'
p202
I1
sS'preferred'
p203
I1
sS'quality control'
p204
I1
sS'analytical'
p205
I1
sS'london'
p206
I1
sS'predictive'
p207
I1
sS'effectiveness.'
p208
I1
sS'set'
p209
I1
sS'process/extract'
p210
I1
sS'analytics'
p211
I7
sS'see'
p212
I2
sS'full'
p213
I1
sS'tactical.'
p214
I1
sS'best'
p215
I3
sS'visualize'
p216
I1
sS'expert'
p217
I1
sS'best-in-class'
p218
I1
sS'please'
p219
I1
sS'continually'
p220
I1
sS'outside'
p221
I1
sS'across'
p222
I4
sS'herding'
p223
I1
sS'ability'
p224
I1
sS'deliver'
p225
I2
sS'key'
p226
I1
sS'improve'
p227
I1
sS'last'
p228
I1
sS'value-rich.'
p229
I1
sS'enabling'
p230
I1
sS'machine-to-machine'
p231
I1
sS'innovating'
p232
I1
sS'point'
p233
I1
sS'data science'
p234
I2
sS'thought leadership'
p235
I1
sS'news'
p236
I1
sS'angeles'
p237
I1
sS'targeting'
p238
I1
sS'create'
p239
I1
sS'strategy'
p240
I1
sS'excellence.'
p241
I1
sS'operations research'
p242
I2
sS'firm'
p243
I1
sS'generating'
p244
I1
sS'shopping'
p245
I1
sS"what's"
p246
I1
sS'understand'
p247
I1
sS'confidence.'
p248
I1
sS'econometric modeling'
p249
I1
sS'developing'
p250
I2
sS'align'
p251
I1
sS'engineering'
p252
I2
sS'entrepreneurial'
p253
I1
sS'optimization'
p254
I3
sS'behavior'
p255
I1
sS'balance'
p256
I1
sS'metric'
p257
I2
sS'big-data'
p258
I1
sS'thus'
p259
I1
sS'site'
p260
I1
sS'player'
p261
I1
sS'embrace'
p262
I1
sS'ready'
p263
I1
sS'technology'
p264
I4
sS'grown'
p265
I1
sS'combination'
p266
I1
sS'etc'
p267
I1
sS'make'
p268
I2
sS'hadoop'
p269
I1
sS'intelligently'
p270
I1
sS'online advertising'
p271
I1
sS'process.'
p272
I1
sS'decision-making'
p273
I1
sS'hand'
p274
I1
sS'changing'
p275
I1
sS'center'
p276
I1
sS'data-mining'
p277
I1
sS'well'
p278
I2
sS'spent'
p279
I1
sS'client'
p280
I6
sS'solve'
p281
I2
sS'model'
p282
I3
sS'meet'
p283
I2
sS'digital marketing'
p284
I1
sS'versed'
p285
I1
sS'executive'
p286
I1
sS'economics finance'
p287
I1
sS'touch'
p288
I1
sS'digital analytics'
p289
I1
sVskill
p290
I1
sS'alignment'
p291
I1
sS'online/offline'
p292
I1
sS'discipline'
p293
I1
sS'rapid'
p294
I1
sS'candidate'
p295
I1
sS'application'
p296
I1
sS'large-scale'
p297
I1
sS'r d'
p298
I1
sS'easy'
p299
I1
sS'boardroom'
p300
I1
sS'smart'
p301
I1
sS'real'
p302
I1
sS'actionable.'
p303
I1
sS'possible'
p304
I1
sS'collaboratively'
p305
I1
sS'chainsaw'
p306
I1
sS'avant-garde'
p307
I1
sS'background'
p308
I1
sS'press'
p309
I1
sS'using'
p310
I1
sS'success'
p311
I1
sS'online-offline'
p312
I1
sS'online marketing'
p313
I1
sS'actions.'
p314
I1
sS'mathematical'
p315
I1
sS'cross-functional'
p316
I1
sS'marketshare'
p317
I7
sS'data mining'
p318
I3
sS'information retrieval'
p319
I2
sS'prioritization'
p320
I1
sS'pricing'
p321
I1
sS'recommendation'
p322
I3
sS'diving'
p323
I1
sS'scale'
p324
I1
sS'lead'
p325
I2
sS'broad'
p326
I1
sS'decision'
p327
I2
sS'saas'
p328
I1
sS'market'
p329
I1
sS'innovation'
p330
I1
sS'leader'
p331
I2
sS'data analysis'
p332
I2
sS'algorithmic'
p333
I1
sS'power'
p334
I1
sS'marketing'
p335
I11
sS'communicate'
p336
I1
sS'terrified'
p337
I1
sS'peer'
p338
I1
sS'optimize'
p339
I2
sS'would'
p340
I1
sS'industry'
p341
I1
sS'marketing analytics'
p342
I2
sS'practical'
p343
I1
sS'range'
p344
I1
sS'ensure'
p345
I2
sS'act'
p346
I1
sS'software'
p347
I2
sS'within'
p348
I1
sS'quickly'
p349
I1
sS'bangalore.'
p350
I1
sS'pharmaceutical'
p351
I1
sVlog
p352
I1
sS'apps'
p353
I1
sS'specifically'
p354
I2
sS'fight'
p355
I1
sS'los'
p356
I1
sS"we're"
p357
I1
sS'way'
p358
I1
sS'building'
p359
I1
sS'medium'
p360
I2
sS'brand'
p361
I1
sS'decisions.'
p362
I1
sS'adserver/web'
p363
I1
sS'applying'
p364
I1
sS'ecosystem'
p365
I1
sS"clients'"
p366
I1
sS'growth'
p367
I1
sS'problem'
p368
I2
sS'similar'
p369
I2
sS'connect'
p370
I1
sS'detailed'
p371
I1
sVstatistic
p372
I1
sS'influence'
p373
I1
sS'deep'
p374
I1
sS'sale'
p375
I2
sS'onboarding'
p376
I1
sS'single'
p377
I1
sS'curious'
p378
I1
sS'results-driven'
p379
I1
sS'ideally'
p380
I1
sS'field'
p381
I1
sS'role'
p382
I1
sS'digital'
p383
I5
sS'3 year'
p384
I1
sS'spend.'
p385
I1
sS'francisco'
p386
I1
sS'welcome'
p387
I1
sS'helping'
p388
I1
sS'develops'
p389
I1
sS'important'
p390
I1
sS'sql'
p391
I1
sS'empowers'
p392
I1
sS'billion'
p393
I1
sS'faster'
p394
I1
sS'entertainment'
p395
I1
sS'u'
I4
sS'embracing'
p396
I1
s.