(dp1
S'skills'
p2
(lp3
S'owl'
p4
aS'soc'
p5
aS'user interface'
p6
aS'r d'
p7
aS'ip'
p8
aS'rest'
p9
aS'ant'
p10
aS'vis'
p11
aS'business intelligence'
p12
aS'product strategy'
p13
aS'sas'
p14
aS'ic'
p15
aS'strategy'
p16
aS'management'
p17
aS'java'
p18
aS'user experience'
p19
aS'agile'
p20
aS'excel'
p21
aS'rf'
p22
aS'research'
p23
aS'access'
p24
aS'ssis'
p25
aS'coaching'
p26
aS'quality assurance'
p27
aS'visio'
p28
aS'intelligence'
p29
aS'css'
p30
aS'innovation'
p31
aS'human computer interaction'
p32
aS'a'
aS'javascript'
p33
aS'data scientist'
p34
aS'c'
aS'data'
p35
aS'engineering'
p36
aS'software development'
p37
aS'search'
p38
aS'disaster recovery'
p39
aS'erp'
p40
aS'education'
p41
aS'html'
p42
aS'idl'
p43
aS'r'
aS'pl'
p44
aS'interaction design'
p45
aS'organization'
p46
aS'research development r d'
p47
aS'cad'
p48
asS'working-year'
p49
(lp50
S'7 year'
p51
aS'65 year'
p52
aS'2+ year'
p53
aS'5 - 7 year'
p54
asS'major'
p55
(lp56
S'information'
p57
aS'management'
p58
aS'business'
p59
aS'ee'
p60
aS'engineering'
p61
aS'design'
p62
aS'mis'
p63
aS'law'
p64
aS'development practice'
p65
aVphysic
p66
asS'education'
p67
(lp68
VBachelor
p69
aVMaster
p70
asS'responsibility'
p71
(lp72
S'development'
p73
aS'information'
p74
aS'product'
p75
aS'pattern'
p76
aS'communicate'
p77
aS'improvement'
p78
aS'design'
p79
aS'interface'
p80
aS'understand'
p81
aS'implement'
p82
aS'prototype'
p83
aS'model'
p84
as.