(dp1
Vcomment
p2
I1
sS'tty'
p3
I1
sS'help'
p4
I1
sS'certification'
p5
I1
sS'sce'
p6
I1
sS'california.'
p7
I1
sS'insight'
p8
I1
sVwednesday
p9
I1
sS'focus'
p10
I1
sS'assigned'
p11
I1
sS'area'
p12
I1
sS'mft'
p13
I1
sS'innovative'
p14
I1
sS'p.m.'
p15
I2
sS'guideline'
p16
I1
sS'pacific'
p17
I1
sS'confidentiality'
p18
I1
sS'discipline'
p19
I1
sS'increase'
p20
I1
sS'21'
p21
I2
sS'candidate'
p22
I2
sS'electricity'
p23
I2
sS'equal'
p24
I1
sS'interfacing'
p25
I1
sVdisability
p26
I1
sS'complex'
p27
I1
sS'operational'
p28
I1
sS'jan'
p29
I1
sS'orientation.'
p30
I1
sS'program'
p31
I5
sS'location'
p32
I1
sS'quarterly'
p33
I1
sS'8'
I1
sS'2017'
p34
I2
sS'population'
p35
I1
sS'interprets'
p36
I1
sS'meta5'
p37
I1
sS'center.'
p38
I1
sS'executive'
p39
I1
sS'stata'
p40
I1
sS'hearing'
p41
I1
sS'without'
p42
I1
sS'smarter'
p43
I1
sS'account'
p44
I1
sS'500-4723'
p45
I1
sS'finding'
p46
I1
sS'grid'
p47
I1
sS'nearly'
p48
I1
sS'30'
p49
I1
sS'report'
p50
I2
sS'using'
p51
I2
sS'difference'
p52
I1
sS'efficiently.'
p53
I1
sS'big data'
p54
I2
sS'59'
p55
I1
sS'7 year'
p56
I1
sS'3 year'
p57
I1
sS'supported.'
p58
I1
sS'solution'
p59
I2
sS'specific'
p60
I1
sS'sql'
p61
I1
sS'employee'
p62
I2
sS'analyzing'
p63
I1
sS'identifies'
p64
I1
sS'employer'
p65
I2
sS'expectations.'
p66
I1
sS'affordable'
p67
I2
sS'work'
p68
I1
sS'coastal'
p69
I1
sS'people'
p70
I1
sS'trend'
p71
I1
sS'energy'
p72
I3
sS'peer'
p73
I1
sS'edrp'
p74
I1
sS'related'
p75
I1
sS'50'
p76
I1
sVservice
p77
I5
sVdesign
p78
I2
sS'variety'
p79
I1
sS'sces'
p80
I1
sS'recommendation'
p81
I3
sS'close'
p82
I1
sS'operation'
p83
I1
sS'mandated'
p84
I1
sS'special'
p85
I1
sS'subject'
p86
I1
sS'serf'
p87
I1
sS'00'
p88
I1
sS'expert'
p89
I1
sS'assistance'
p90
I1
sS'communicating'
p91
I1
sS'asy3'
p92
I2
sS'4'
I1
sS'/'
I1
sVresearch
p93
I1
sS'looking'
p94
I1
sS'3'
I1
sS'dsm'
p95
I3
sS'7'
I1
sS'customer service'
p96
I1
sS'international'
p97
I1
sS'electric'
p98
I1
sS'nyse'
p99
I1
sS'leader'
p100
I1
sS'demonstrated'
p101
I2
sS'us-ca-rosemead'
p102
I1
sS'holiday'
p103
I1
sS'reporting'
p104
I1
sS'edison.'
p105
I1
sS'degree'
p106
I1
sVstate
p107
I1
sS'data scientist'
p108
I1
sS'million'
p109
I2
sS'deliver'
p110
I1
sS'sponsorship.'
p111
I1
sS'analyzes'
p112
I1
sS'desired'
p113
I1
sS'job'
p114
I1
sS'please'
p115
I1
sS'california'
p116
I4
sS'life.'
p117
I2
sS'demand-side'
p118
I1
sS'r'
I1
sS'accommodation'
p119
I1
sS'interpret'
p120
I1
sS'improve'
p121
I1
sS'suggested'
p122
I1
sVc
I1
sS'central'
p123
I1
sS'working'
p124
I4
sS'policy'
p125
I1
sS'career'
p126
I1
sVresource
p127
I1
sS'seeking'
p128
I1
sS'current'
p129
I1
sVbachelor
p130
I1
sS'experience'
p131
I5
sS'spss'
p132
I1
sS'thinking'
p133
I1
sS'choose'
p134
I1
sS'visa'
p135
I1
sS'ensure'
p136
I1
sVqualification
p137
I3
sVact
p138
I1
sS'action'
p139
I1
sS'safely'
p140
I2
sS'create'
p141
I1
sS'years.'
p142
I1
sS'duty'
p143
I1
sS'000-square-mile'
p144
I1
sS'forecasting'
p145
I2
sS'via'
p146
I1
sS'report.'
p147
I1
sS'pii'
p148
I1
sS'within'
p149
I1
sS'overview'
p150
I1
sS'352-8580'
p151
I1
sS'manage'
p152
I1
sS'collaborating'
p153
I1
sS'primary'
p154
I1
sS'delivering'
p155
I1
sS'strategic'
p156
I1
sS'satisfaction'
p157
I1
sS'minimum'
p158
I3
sVveteran
p159
I1
sS'initiative'
p160
I1
sS'directly'
p161
I1
sS'apply'
p162
I1
sS'cp'
p163
I1
sS'cpuc'
p164
I1
sS'unit'
p165
I1
sS'utility'
p166
I2
sS'management'
p167
I2
sS'billing'
p168
I1
sS'powered'
p169
I2
sS'monthly'
p170
I1
sS'transfer'
p171
I1
sS'support'
p172
I3
sS'participates'
p173
I1
sS'available'
p174
I1
sS'system'
p175
I1
sS'response'
p176
I1
sS'systems.'
p177
I1
sVtelecommunication
p178
I1
sS'2'
I1
sS'call'
p179
I2
sS'authorized'
p180
I1
sS'statement'
p181
I1
sS'advanced analytics'
p182
I2
sS'legally'
p183
I1
sS'meeting'
p184
I1
sS'etc'
p185
I1
sS'you.'
p186
I1
sS'posting'
p187
I1
sS'successful'
p188
I1
sS'tool'
p189
I2
sS'pm-jan'
p190
I1
sS'fuel'
p191
I1
sS'department'
p192
I1
sS'analyst-systems'
p193
I1
sVrepresentative
p194
I1
sS'effort'
p195
I1
sS'present'
p196
I1
sS'must'
p197
I1
sS'customer'
p198
I9
sS'wide'
p199
I1
sS'13'
p200
I1
sS'identity/sexual'
p201
I1
sS'join'
p202
I1
sS'14'
p203
I1
sS'friday'
p204
I1
sS'developing'
p205
I1
sS'consultant'
p206
I1
sS'reliable'
p207
I2
sS'access'
p208
I1
sS'business/technical'
p209
I1
sS'seven'
p210
I1
sVlead
p211
I1
sS'project'
p212
I1
sS'matter'
p213
I1
sS'individual'
p214
I2
sS'three'
p215
I1
sS'.'
I1
sS'meet'
p216
I1
sS'providing'
p217
I1
sS'procedure'
p218
I1
sS'cleaner'
p219
I1
sS'dedicated'
p220
I1
sS'compliance'
p221
I1
sS'customers.'
p222
I1
sS'customer satisfaction'
p223
I1
sS'process'
p224
I1
sS'request'
p225
I2
sS'human resources'
p226
I1
sS'share'
p227
I1
sS'affirmative'
p228
I1
sS'need'
p229
I1
sS'adoption.'
p230
I1
sS'operational excellence'
p231
I1
sS'organizational'
p232
I1
sS'business economics'
p233
I1
sS'impaired'
p234
I1
sS'management.'
p235
I1
sS'option'
p236
I1
sS'information'
p237
I2
sS'data.'
p238
I1
sS'encrypt'
p239
I1
sS'minority/female/disabled/veteran/gender'
p240
I1
sS'areas.'
p241
I1
sS'49'
p242
I1
sS'perform'
p243
I1
sS'employment'
p244
I1
sS'make'
p245
I2
sS'sharepoint'
p246
I1
sS'-'
I1
sS'offerings.'
p247
I1
sS'field'
p248
I1
sS'department.'
p249
I1
sS'5'
I1
sS'grc'
p250
I1
sS'9'
I1
sS'a.m.'
p251
I1
sS'require'
p252
I1
sS'company'
p253
I1
sS'eix'
p254
I1
sS'125 years'
p255
I1
sS'product'
p256
I1
sS'usage'
p257
I1
sS'description'
p258
I1
sS'monday'
p259
I1
sVedison
p260
I5
sS'outage'
p261
I1
sS'southern'
p262
I5
sS'workforce'
p263
I1
sS'effectively'
p264
I1
sS'develops'
p265
I1
sS'united'
p266
I1
sS'implementation'
p267
I1
sS'device'
p268
I1
sS'protected'
p269
I1
sS'data'
p270
I5
sS'payment'
p271
I1
sS'structure'
p272
I1
sS'organization'
p273
I1
sS'center'
p274
I3
sS'effective'
p275
I1
sS'interval'
p276
I1
sS'well'
p277
I1
sS'except'
p278
I1
sS'i.t.'
p279
I1
sS'client'
p280
I1
sS'responsibility'
p281
I3
sS'time'
p282
I1
sS'71016902'
p283
I1
sS'position'
p284
I3
sVsa
p285
I2
sS'800'
p286
I2
sS'opportunity'
p287
I1
sS'programs.'
p288
I2
sS'typical'
p289
I1
s.