(dp1
S'skills'
p2
(lp3
S'excel'
p4
aS'human resources'
p5
aS'ant'
p6
aS'analytics'
p7
aS'engineering'
p8
aS'go'
p9
aS'ic'
p10
aS'image processing'
p11
aS'anomaly detection'
p12
aS'agile'
p13
aS'asic'
p14
aS'integration'
p15
aS'cell'
p16
aS'envi'
p17
aS'computer science'
p18
aS'communication'
p19
aS'unstructured data'
p20
aS'pl'
p21
aS'a'
aS'signal processing'
p22
aS'government'
p23
aS'python'
p24
aS'processing'
p25
aS'data scientist'
p26
aS'data'
p27
aS'software development'
p28
aS'c'
aS'science'
p29
aS'machine learning'
p30
aS'r'
aS'electrical engineering'
p31
aS'data analytics'
p32
aS'predictive analytics'
p33
asS'working-year'
p34
(lp35
S'5+ year'
p36
aS'2+ year'
p37
asS'major'
p38
(lp39
S'computer science'
p40
aS'ee'
p41
aS'science'
p42
aS'mba'
p43
aS'machine learning'
p44
aS'analytics'
p45
aS'engineering'
p46
aS'electrical'
p47
aVphysic
p48
aS'phd'
p49
aS'communication'
p50
aS'electrical engineering'
p51
aS'law'
p52
aS'ee computer science'
p53
aS'data analytics'
p54
aS'predictive analytics'
p55
asS'education'
p56
(lp57
VBachelor
p58
aVMaster
p59
aVDoctor
p60
asS'responsibility'
p61
(lp62
S'predict'
p63
aS'analytic'
p64
aS'product'
p65
aS'processing'
p66
aS'development'
p67
as.