(dp1
S'skills'
p2
(lp3
S'digital marketing'
p4
aS'r d'
p5
aS'nosql'
p6
aS'owl'
p7
aS'ip'
p8
aS'splunk'
p9
aS'ant'
p10
aS'analytics'
p11
aS'engineering'
p12
aS'go'
p13
aS'ic'
p14
aS'education'
p15
aS'insurance'
p16
aS'cassandra'
p17
aS'hbase'
p18
aS'git'
p19
aS'gis'
p20
aS'big data'
p21
aS'scala'
p22
aS'team building'
p23
aS'c'
aS'storage'
p24
aS'dsp'
p25
aS'sports'
p26
aS'access'
p27
aS'envi'
p28
aS'computer science'
p29
aS'visio'
p30
aS'unstructured data'
p31
aS'pl'
p32
aS'processing'
p33
aS'ios'
p34
aS'apis'
p35
aS'marketing'
p36
aS'collaboration'
p37
aS'innovation'
p38
aS'data scientist'
p39
aS'employee engagement'
p40
aS'bigquery'
p41
aS'wireless'
p42
aS'mongodb'
p43
aS'leadership'
p44
aS'sql'
p45
aS'java'
p46
aS'spark'
p47
aS'data'
p48
aS'a'
aS'training'
p49
aS'vis'
p50
aS'cognition'
p51
aS'cloud computing'
p52
aS'aws'
p53
aS'mapreduce'
p54
aS'idl'
p55
aS'r'
aS'advertising'
p56
aS'science'
p57
aS'management'
p58
aS'cro'
p59
aS'etl'
p60
asS'working-year'
p61
(lp62
S'0 year'
p63
asS'major'
p64
(lp65
S'management'
p66
aS'business'
p67
aS'big data'
p68
aS'computing'
p69
aS'ee'
p70
aS'marketing'
p71
aS'phd'
p72
aS'analytics'
p73
aS'engineering'
p74
aS'design'
p75
aS'computer science'
p76
aS'science'
p77
aS'ee computer science'
p78
asS'education'
p79
(lp80
VBachelor
p81
aVMaster
p82
aVDoctor
p83
asS'responsibility'
p84
(lp85
S'development'
p86
aS'large data set'
p87
aS'product'
p88
aS'processing'
p89
aVinsight
p90
aS'analytic'
p91
aS'design'
p92
aS'report'
p93
aS'understand'
p94
aS'implement'
p95
aS'model'
p96
as.