(dp1
S'limited'
p2
I1
sS'concept'
p3
I1
sS'global'
p4
I1
sS'dynamic'
p5
I2
sS'focus'
p6
I1
sS'month'
p7
I1
sS'executing'
p8
I1
sS'deadline'
p9
I1
sS'environment'
p10
I3
sS'foster'
p11
I2
sS'matlab'
p12
I1
sS'include'
p13
I1
sS'presentation'
p14
I1
sS'collaborate'
p15
I1
sS'team-based'
p16
I1
sS'solution'
p17
I1
sS'monsanto'
p18
I3
sS'demonstrated'
p19
I10
sS'team'
p20
I4
sS'crop'
p21
I2
sS'recruitment'
p22
I1
sS'invention'
p23
I1
sS'mentored'
p24
I1
sS'selected'
p25
I1
sS'four year'
p26
I1
sS'succinct'
p27
I1
sS'shared'
p28
I1
sS'completion'
p29
I2
sS'degree'
p30
I1
sS'environmental science'
p31
I2
sS'delivering'
p32
I1
sS'desired'
p33
I1
sVbachelor
p34
I1
sS'protection'
p35
I1
sS'focused'
p36
I2
sS'statistical modeling'
p37
I1
sS'address'
p38
I1
sS'strong'
p39
I2
sS'talent'
p40
I1
sS'involved'
p41
I1
sS'experience'
p42
I11
sS'prior'
p43
I1
sS'company.'
p44
I1
sS'highly'
p45
I4
sS'aptitude'
p46
I1
sS'apply'
p47
I1
sS'genomics'
p48
I1
sS'working'
p49
I1
sS'metagenomic'
p50
I2
sS'next'
p51
I3
sS'expertise.'
p52
I1
sS'6'
I1
sS'type'
p53
I1
sS'successful'
p54
I3
sS'company'
p55
I1
sS'effort'
p56
I2
sS'must'
p57
I1
sS'customer'
p58
I2
sS'rotational'
p59
I1
sS'join'
p60
I2
sS'integrating'
p61
I2
sS'analytical method'
p62
I1
sS'challenge'
p63
I4
sS'work'
p64
I4
sS'emerge'
p65
I1
sS'strategically'
p66
I1
sS'machine learning'
p67
I2
sS'nine'
p68
I1
sS'growing'
p69
I2
sS'meet'
p70
I1
sS'example'
p71
I1
sS'challenging'
p72
I2
sS'sample'
p73
I1
sS'arise'
p74
I1
sS'information'
p75
I1
sS'provide'
p76
I1
sS'plant'
p77
I2
sS'computational biology'
p78
I2
sS'immersed'
p79
I1
sS'demanding'
p80
I1
sS"century's"
p81
I1
sS'statistical genetics'
p82
I1
sS'demonstrating'
p83
I1
sS'bioinformatics'
p84
I1
sS'data'
p85
I4
sS'effective'
p86
I1
sS'microbial'
p87
I1
sS'impactful'
p88
I1
sS'serving'
p89
I1
sS'r d'
p90
I1
sS'insight'
p91
I1
sS'including'
p92
I2
sS'committed'
p93
I1
sS'agricultural'
p94
I1
sS'planning'
p95
I1
sS'position'
p96
I3
sS'rapidly'
p97
I1
sS'multidisciplinary'
p98
I1
sS'r programming'
p99
I1
sS'teeming'
p100
I1
sS'hidden'
p101
I1
sS'defining'
p102
I1
sS'colleague'
p103
I1
sS'motivated'
p104
I1
sS'seeking'
p105
I2
sS'python'
p106
I1
sS'integral'
p107
I1
sS'cutting'
p108
I1
sS'resource'
p109
I1
sS'strategic'
p110
I1
sS'represents'
p111
I1
sS'challenges.'
p112
I1
sS'filling'
p113
I1
sVel
p114
I3
sS'domain'
p115
I1
sS'generation'
p116
I1
sS'idea'
p117
I1
sS'related'
p118
I2
sS'society'
p119
I1
sVoperation
p120
I1
sS'agriculture'
p121
I1
sS'driving'
p122
I1
sS'research'
p123
I1
sS'looking'
p124
I1
sS'geospatial'
p125
I1
sS'turning'
p126
I1
sS'million'
p127
I1
sS'phd'
p128
I2
sS'advance'
p129
I3
sS'training'
p130
I1
sS'learning.'
p131
I1
sS'feed'
p132
I1
sS'major'
p133
I2
sS'one'
p134
I2
sS'clarity'
p135
I1
sS'publication'
p136
I1
sS'leading'
p137
I2
sS'top'
p138
I1
sS'assumption'
p139
I1
sS'hundred'
p140
I1
sS'agility'
p141
I2
sS'relationship'
p142
I1
sS'mathematical programming'
p143
I1
sS'environmental'
p144
I1
sS'part'
p145
I1
sS'population'
p146
I2
sS'require'
p147
I1
sS'project'
p148
I3
sS'toward'
p149
I1
sS'rigorous'
p150
I1
sS'need'
p151
I1
sS'agronomy'
p152
I1
sS'exploratory'
p153
I1
sS'agriculture.'
p154
I2
sS'also'
p155
I1
sS'ideal'
p156
I1
sS'potential'
p157
I1
sS'build'
p158
I1
sS"monsanto's"
p159
I4
sS'multiple'
p160
I3
sS'track'
p161
I2
sS'simplify'
p162
I1
sS'involving'
p163
I1
sS'organization'
p164
I3
sS'clear'
p165
I2
sS'science.'
p166
I1
sS'emerging'
p167
I2
sS'development.'
p168
I1
sS'find'
p169
I1
sS'impact'
p170
I1
sS'big data'
p171
I2
sS'critical thinking'
p172
I1
sS'written'
p173
I2
sS'team.'
p174
I1
sS'rich'
p175
I1
sS'exceptional'
p176
I1
sS'preferred'
p177
I1
sS'coordinating'
p178
I1
sS'biologicals'
p179
I1
sS'sustainably'
p180
I1
sS'accomplishments.'
p181
I1
sS'yield'
p182
I1
sS'analytical'
p183
I1
sS'computer science engineering'
p184
I1
sS'vision'
p185
I1
sS'respond'
p186
I1
sS'set'
p187
I2
sS'2050.'
p188
I1
sS'analytics'
p189
I1
sS'individual'
p190
I2
sS'result'
p191
I2
sS'genomic'
p192
I2
sS'computational biolog'
p193
I1
sS"master's"
p194
I1
sS'posse'
p195
I1
sS'preferred.'
p196
I1
sS'sets.'
p197
I1
sS'across'
p198
I3
sS'discipline'
p199
I2
sS'2 year'
p200
I1
sS'ability'
p201
I5
sS'stakeholder'
p202
I1
sS'mentoring'
p203
I1
sS'affordably'
p204
I1
sS'full-time'
p205
I1
sS'tangible'
p206
I1
sS'talented'
p207
I1
sS'career'
p208
I2
sS'innovating'
p209
I1
sS'among'
p210
I1
sS'diversity.'
p211
I1
sS'data science'
p212
I2
sS'others'
p213
I2
sS'equivalent'
p214
I1
sS'creativity'
p215
I1
sS'.'
I2
sS'acre'
p216
I1
sS'expected'
p217
I2
sS'operations research'
p218
I2
sS'direction'
p219
I1
sS'thousand'
p220
I1
sS'precision'
p221
I1
sS'gap'
p222
I1
sS'innovation.'
p223
I1
sS'environment.'
p224
I1
sS'conception'
p225
I1
sS'developing'
p226
I1
sS'entrepreneurial'
p227
I1
sS'mathematics computer science'
p228
I1
sS'program'
p229
I5
sS'orientation'
p230
I2
sS'technology'
p231
I3
sS'education'
p232
I2
sS'participant'
p233
I1
sS'cross'
p234
I2
sS'member'
p235
I1
sS'complex'
p236
I3
sS'document'
p237
I1
sS'development'
p238
I2
sS'comprehensive'
p239
I1
sS'automation'
p240
I1
sS'proficiency'
p241
I1
sS'consensus'
p242
I1
sS'opportunity'
p243
I1
sS'person'
p244
I1
sS'edge'
p245
I1
sS'quantitative'
p246
I1
sS'chemistry'
p247
I1
sS'heavily'
p248
I1
sS'hybrid'
p249
I1
sS'competitive'
p250
I1
sS'identify'
p251
I1
sS'skill'
p252
I5
sS'leaders.'
p253
I1
sS'rapid'
p254
I1
sS'candidate'
p255
I3
sS'field'
p256
I1
sS'communication.'
p257
I1
sS'breeding.'
p258
I1
sS'collaboratively'
p259
I1
sS'world'
p260
I1
sS'unique'
p261
I1
sS'desire'
p262
I1
sS'gift'
p263
I1
sS'success'
p264
I4
sS'specific'
p265
I1
sS'benefit'
p266
I1
sS'exceed'
p267
I1
sS'cross-functional'
p268
I1
sS'verbal'
p269
I1
sS'people'
p270
I1
sS'growth'
p271
I2
sVstatistic
p272
I2
sS'solving'
p273
I2
sS'lead'
p274
I1
sS'broad'
p275
I1
sS'innovation'
p276
I1
sVleader
p277
I4
sS'minimal'
p278
I1
sS'biology'
p279
I1
sS'scientific'
p280
I7
sS'journal'
p281
I1
sS'leadership'
p282
I4
sS'exciting'
p283
I1
sS'package'
p284
I1
sS'recognized'
p285
I1
sS'simulation'
p286
I1
sS'range'
p287
I1
sS'plus'
p288
I3
sS'multi-disciplinary'
p289
I1
sS'matrixed'
p290
I1
sS'communication'
p291
I2
sS'within'
p292
I2
sS'obtaining'
p293
I1
sS'commitment'
p294
I1
sS'weather'
p295
I1
sS'quickly'
p296
I1
sS'area'
p297
I1
sS'strict'
p298
I1
sS'influencing'
p299
I1
sS'breeding'
p300
I1
sS'billion'
p301
I1
sS'life sciences'
p302
I2
sS'applying'
p303
I1
sS'agronomic'
p304
I1
sS'foresight'
p305
I1
sS'record'
p306
I4
sS'heterogeneous'
p307
I2
sS'problem'
p308
I1
sS'influence'
p309
I3
sS'proven'
p310
I2
sS'globally'
p311
I1
sS'engineering'
p312
I1
sS'diverse'
p313
I4
sS'expertise'
p314
I1
sS'results-driven'
p315
I1
sS'traits.'
p316
I1
sS'detail'
p317
I1
sS'three year'
p318
I1
sS'setting'
p319
I2
sS'computer science'
p320
I2
sS'test'
p321
I1
sS'prepared'
p322
I1
sS'statistical model'
p323
I1
sS'building'
p324
I2
sS'tailored'
p325
I1
sS'algorithm'
p326
I1
sS'requires'
p327
I2
sS'required'
p328
I2
sS'biotechnology'
p329
I1
sS'oral'
p330
I1
s.