(dp1
S'skills'
p2
(lp3
S'logistics'
p4
aS'owl'
p5
aS'r d'
p6
aS'ip'
p7
aS'testing'
p8
aS'vis'
p9
aS'ant'
p10
aS'analytics'
p11
aS'go'
p12
aS'mysql'
p13
aS'sas'
p14
aS'ic'
p15
aS'genomics'
p16
aS'statistics'
p17
aS'gis'
p18
aS'excel'
p19
aS'integration'
p20
aS'cell'
p21
aS'lua'
p22
aS'rf'
p23
aS'communication'
p24
aS'data management'
p25
aS'data analysis'
p26
aS'shiny'
p27
aS'visualization'
p28
aS'spotfire'
p29
aS'c'
aS'experimental design'
p30
aS'management'
p31
aS'sql'
p32
aS'genetics'
p33
aS'data'
p34
aS'project management'
p35
aS'a'
aS'training'
p36
aS'database management'
p37
aS'science'
p38
aS'sql server'
p39
aS'programming'
p40
aS'analysis'
p41
aS'r'
aS'pl'
p42
aS'oracle'
p43
aS'organization'
p44
aS'cms'
p45
aS'cro'
p46
aS'oracle database'
p47
asS'working-year'
p48
(lp49
S'5 years'
p50
aS'3 years'
p51
aS'3-5 years'
p52
aS'1-3 years'
p53
asS'major'
p54
(lp55
S'statistics'
p56
aS'genetics'
p57
aS'business'
p58
aS'ee'
p59
aS'science'
p60
aS'communication'
p61
aS'phd'
p62
aS'analytics'
p63
aS'management'
p64
aS'design'
p65
aS'statistic'
p66
aS'mis'
p67
aS'general'
p68
aS'project management'
p69
asS'education'
p70
(lp71
VBachelor
p72
aVMaster
p73
aVDoctor
p74
asS'responsibility'
p75
(lp76
S'development'
p77
aS'product'
p78
aS'data analysis'
p79
aS'analysis'
p80
aS'improvement'
p81
aS'analytic'
p82
aS'design'
p83
aS'understand'
p84
aS'implement'
p85
aS'prototype'
p86
as.