(dp1
S'skills'
p2
(lp3
S'r d'
p4
aS'biostatistics'
p5
aS'ip'
p6
aS'data science'
p7
aS'ant'
p8
aS'vis'
p9
aS'problem solving'
p10
aS'ic'
p11
aS'strategy'
p12
aS'statistics'
p13
aS'genetics'
p14
aS'big data'
p15
aS'scala'
p16
aS'mathematical programming'
p17
aS'mathematica'
p18
aS'research'
p19
aS'statistica'
p20
aS'ssis'
p21
aS'visio'
p22
aS'mathematics'
p23
aS'unstructured data'
p24
aS'pl'
p25
aS'asp'
p26
aS'product development'
p27
aS'aws'
p28
aS'innovation'
p29
aS'ios'
p30
aS'c'
aS'management'
p31
aS'sql'
p32
aS'business development'
p33
aS'data'
p34
aS'a'
aS'search'
p35
aS'erp'
p36
aS'ampl'
p37
aS'analytics'
p38
aS'science'
p39
aS'programming'
p40
aS'analysis'
p41
aS'idl'
p42
aS'r'
aS'organization'
p43
aS'validation'
p44
aS'cro'
p45
aS'scripting'
p46
asS'working-year'
p47
(lp48
S'two year'
p49
aS'2 year'
p50
asS'major'
p51
(lp52
S'statistics'
p53
aS'genetics'
p54
aS'big data'
p55
aS'biostatistics'
p56
aS'ee'
p57
aS'science'
p58
aS'data science'
p59
aS'statistical genetics'
p60
aS'business'
p61
aS'analytics'
p62
aS'management'
p63
aS'design'
p64
aS'statistic'
p65
aS'mathematics'
p66
asS'education'
p67
(lp68
VBachelor
p69
aVMaster
p70
aVDoctor
p71
asS'responsibility'
p72
(lp73
S'development'
p74
aS'large data set'
p75
aS'product'
p76
aS'predict'
p77
aS'communicate'
p78
aS'analysis'
p79
aS'analytic'
p80
aS'design'
p81
aS'recommendation'
p82
aS'understand'
p83
aS'model'
p84
aS'transformation'
p85
as.