(dp1
S'code'
p2
I1
sS'r d'
p3
I1
sS'in-house'
p4
I1
sS'month'
p5
I2
sS'scientist'
p6
I3
sS'including'
p7
I1
sS'mo.'
p8
I1
sS'statistical'
p9
I1
sS'skill'
p10
I3
sS'methods.'
p11
I1
sS'member'
p12
I1
sS'also'
p13
I1
sS'disability'
p14
I1
sS'send'
p15
I1
sS'good'
p16
I1
sS'environment'
p17
I2
sS'version'
p18
I1
sS'location'
p19
I1
sS'401'
p20
I1
sS'employee'
p21
I1
sS'extensive'
p22
I1
sS'include'
p23
I1
sS'compensation'
p24
I1
sS'staffing'
p25
I1
sS'colleague'
p26
I1
sS'updated'
p27
I1
sS'collaborate'
p28
I2
sS'python'
p29
I1
sS'evaluate'
p30
I1
sS'professional'
p31
I1
sS'practice'
p32
I1
sS'possible'
p33
I1
sS'12'
p34
I2
sS'background'
p35
I1
sS'report'
p36
I1
sS'using'
p37
I1
sS'existing'
p38
I1
sS'desire'
p39
I1
sS'term'
p40
I2
sS'like'
p41
I1
sS'r programming'
p42
I1
sS'louis'
p43
I2
sS'method'
p44
I2
sS'qc'
p45
I1
sS'vector'
p46
I1
sS'discipline'
p47
I1
sS'predictive'
p48
I1
sS'envision'
p49
I2
sS'data mining'
p50
I3
sS'stat'
p51
I1
sVstatistic
p52
I1
sS'insurance'
p53
I1
sS'ability'
p54
I1
sS'statistics/data'
p55
I1
sS'proficient'
p56
I1
sS'please'
p57
I1
sS'integration'
p58
I1
sS'creative'
p59
I1
sS'development.'
p60
I1
sS'statisticians/data'
p61
I1
sS'random forest'
p62
I1
sS'leader'
p63
I1
sS'science/engineering'
p64
I1
sS'theory'
p65
I1
sS'resume'
p66
I1
sS'he/she'
p67
I1
sS'leveraging'
p68
I1
sS'team'
p69
I1
sS'data scientist'
p70
I1
sS'understanding'
p71
I1
sS'desired'
p72
I2
sS'job'
p73
I2
sS'benefit'
p74
I1
sS'statistical modeling'
p75
I1
sS'modeling'
p76
I2
sS'along'
p77
I1
sS'strong'
p78
I2
sS'improve'
p79
I1
sS'mathematics computer science'
p80
I1
sS'talented'
p81
I1
sS'extension'
p82
I1
sS'many'
p83
I1
sS'industry'
p84
I1
sS'programming'
p85
I1
sS'contract'
p86
I3
sS'simulation'
p87
I1
sS'critical thinking'
p88
I1
sS'plus'
p89
I1
sS'top'
p90
I1
sS'3+ year'
p91
I1
sS'computational'
p92
I1
sS'communication'
p93
I1
sS'highly'
p94
I1
sS'learning'
p95
I1
sS'consideration'
p96
I1
sS'open'
p97
I1
sS'placement.'
p98
I1
sS'data'
p99
I3
sS'st.'
p100
I2
sS'support'
p101
I1
sS'logistic regression'
p102
I1
sS'long'
p103
I2
sS'start'
p104
I1
sS'teamwork'
p105
I1
sS'data management'
p106
I1
sS'selection'
p107
I1
sS'enable'
p108
I1
sS'cross-validate'
p109
I1
sS'offer'
p110
I2
sS'company'
p111
I1
sS'precision'
p112
I1
sS'statistical model'
p113
I1
sS'technique'
p114
I1
sS'learning/statistical'
p115
I1
sS'effort'
p116
I1
sS'applied'
p117
I1
sS'novel'
p118
I1
sS'word'
p119
I1
sS'requirements.'
p120
I1
sS'characteristic'
p121
I1
sS'mo'
p122
I1
sS'work'
p123
I2
sS'machine learning'
p124
I2
sS'project'
p125
I1
sS'm.s.'
p126
I1
sS'learn'
p127
I1
sS'following'
p128
I1
sS'computer science'
p129
I2
sS'providing'
p130
I1
sS'etc.'
p131
I2
sS'k'
I1
sS'procedure'
p132
I1
sS'high-dimensional'
p133
I1
sS'biotech'
p134
I1
sS'life'
p135
I1
sS'engineering/selection/extraction'
p136
I1
sS'engineering'
p137
I1
sS'application'
p138
I1
sS'experience'
p139
I3
sS'option'
p140
I1
sS'coach'
p141
I1
sS'develop'
p142
I2
sS'provide'
p143
I2
sS'predictive modeling'
p144
I1
sS'feature'
p145
I3
sS'matching'
p146
I1
sS'machine'
p147
I3
sS'field'
p148
I2
sS'methodology'
p149
I2
sS'generalized'
p150
I1
sS'performance'
p151
I1
sS'3 year'
p152
I1
sS'ensemble'
p153
I1
sS'development'
p154
I2
sS'product'
p155
I2
sS'description'
p156
I1
sS'paid'
p157
I1
sS'proficiency'
p158
I2
sS'state-of-the-art'
p159
I1
sVplan
p160
I1
sS'quantitative'
p161
I1
sS'opportunity'
p162
I2
sVsa
p163
I1
sS'independently'
p164
I1
sS'algorithm'
p165
I1
sS'bootstrapping'
p166
I1
sS'dental'
p167
I1
sS'medical'
p168
I1
sS'required'
p169
I2
sVm
I1
sS'analysis'
p170
I3
sS'problem solving'
p171
I1
sVresponsibility
p172
I1
sS'time'
p173
I1
sS'qualification/experience/skills'
p174
I2
sS'position'
p175
I3
sS'model'
p176
I2
s.