(dp1
S'modernizing'
p2
I2
sS'global'
p3
I6
sS'focus'
p4
I2
sS'manages'
p5
I2
sS'/'
I1
sS'environment'
p6
I2
sS'program'
p7
I4
sS'risk'
p8
I1
sS'provider'
p9
I2
sS'unstructured'
p10
I1
sS'level'
p11
I1
sS'platformsadopting'
p12
I1
sS'solution'
p13
I3
sS'large'
p14
I2
sS'team'
p15
I7
sS'small'
p16
I1
sS'cyber'
p17
I2
sS'design'
p18
I12
sS'investing'
p19
I1
sS'+'
I22
sS'capital'
p20
I2
sS'relational'
p21
I1
sS'increasing'
p22
I2
sS'ever'
p23
I2
sS'evolving'
p24
I4
sS'regions.'
p25
I2
sS'degree'
p26
I1
sS'component'
p27
I1
sS'protection'
p28
I2
sS'operating'
p29
I1
sS'strong'
p30
I2
sS'skills.'
p31
I1
sS'warehousing'
p32
I1
sS'shift'
p33
I1
sS'compliance'
p34
I2
sS'experience'
p35
I8
sS'amount'
p36
I2
sS'asset management'
p37
I1
sS'adopting'
p38
I1
sS'manage'
p39
I1
sS'unix'
p40
I1
sS'agenda.a'
p41
I1
sS'working'
p42
I3
sS'prominentcorporate'
p43
I1
sS"world's"
p44
I1
sS'next'
p45
I2
sS'risk management'
p46
I1
sS'asset'
p47
I2
sS'expanding'
p48
I2
sS'type'
p49
I1
sS'hr.platform'
p50
I1
sS'jms'
p51
I1
sS'conducting'
p52
I2
sS'process automation'
p53
I1
sS'aligned'
p54
I2
sS'setup'
p55
I2
sS'work'
p56
I5
sS'cao'
p57
I2
sS'morgan'
p58
I3
sS'meet'
p59
I4
sS'responsibilitiesthis'
p60
I1
sS'control'
p61
I4
sS'e.g.'
p62
I2
sS'process'
p63
I3
sS'semi-structured'
p64
I2
sS'minimum'
p65
I1
sS"bachelors'"
p66
I1
sS'advancing'
p67
I1
sS'ofthe'
p68
I1
sS'information'
p69
I2
sS'united'
p70
I1
sS'varied'
p71
I1
sS'travel'
p72
I1
sS'www.jpmorganchase.com'
p73
I1
sS'unstructured data'
p74
I1
sS'profile'
p75
I1
sS'description'
p76
I1
sS'data'
p77
I17
sS'documentation'
p78
I2
sS'platforms.'
p79
I1
sS'encompassing'
p80
I2
sS'maintain'
p81
I2
sVresponsibility
p82
I1
sS'agenda.'
p83
I1
sS'5 year'
p84
I1
sS'warehousedesign'
p85
I1
sS'help'
p86
I2
sS'office'
p87
I2
sS'institutional'
p88
I1
sS'.ct'
p89
I1
sS'scientist'
p90
I1
sS'including'
p91
I3
sS'developer'
p92
I2
sS'management.2017'
p93
I1
sVplatform
p94
I10
sS'production'
p95
I2
sS'2017'
p96
I1
sS'good'
p97
I1
sS'finance'
p98
I2
sS'3'
I2
sS'python'
p99
I1
sS'day'
p100
I1
sS'communication skills'
p101
I1
sS'capability'
p102
I4
sS'cyclesinvesting'
p103
I1
sS'data analytics'
p104
I2
sS'financial'
p105
I3
sS'generation'
p106
I2
sS'related'
p107
I3
sS'operation'
p108
I3
sS'driving'
p109
I1
sS'req'
p110
I1
sS'pocs'
p111
I2
sS'engineer'
p112
I4
sS'million'
p113
I1
sS'data scientist'
p114
I1
sS'standard'
p115
I1
sS'user experience'
p116
I1
sS'regulatory'
p117
I4
sS'automation'
p118
I1
sS'certified'
p119
I1
sS'qpid'
p120
I1
sS'support.'
p121
I2
sS'language'
p122
I1
sS'xsds'
p123
I1
sS'programming'
p124
I1
sS'steward'
p125
I2
sVqualification
p126
I2
sS'south'
p127
I1
sS'first'
p128
I2
sS'industrial'
p129
I1
sS'sql/hive'
p130
I1
sS'primary'
p131
I1
sS'one'
p132
I1
sS'nyse'
p133
I1
sS'management'
p134
I1
sS'service'
p135
I4
sS'leading'
p136
I3
sS'top'
p137
I2
sS'trillion'
p138
I1
sVsystem
p139
I6
sS'priority'
p140
I5
sS'advanced analytics'
p141
I2
sS'configure'
p142
I2
sS'data infrastructure'
p143
I1
sS'investmentbanking'
p144
I1
sS'commercialbanking'
p145
I1
sS'part'
p146
I2
sS'serf'
p147
I1
sS'sourcing'
p148
I2
sS'rationalization'
p149
I2
sS'providing'
p150
I2
sS'addressing'
p151
I2
sS'ee computer science'
p152
I1
sS'partnership'
p153
I2
sS'business intelligence'
p154
I1
sS'need'
p155
I2
sS'locations.'
p156
I1
sS'responsible'
p157
I2
sS'-'
I6
sS'ideal'
p158
I2
sS'internal'
p159
I2
sS'build'
p160
I8
sS'tool'
p161
I3
sS'multiple'
p162
I1
sS'organization'
p163
I3
sS'rollout'
p164
I4
sS'study.'
p165
I1
sS'average'
p166
I1
sS"firm's"
p167
I2
sS'consumer'
p168
I1
sS'dow'
p169
I1
sS'sector'
p170
I1
sS'jpmorgan'
p171
I5
sS'planning'
p172
I4
sS'participate'
p173
I2
sS'portfolio'
p174
I4
sS'r d'
p175
I1
sS'xml'
p176
I1
sS'based'
p177
I2
sS'knowledge'
p178
I1
sS'big data'
p179
I2
sS'hrt'
p180
I2
sS'written'
p181
I1
sS'treasury'
p182
I2
sS'integrate'
p183
I2
sS'etc..'
p184
I1
sS'scalable'
p185
I4
sS'closely'
p186
I2
sS'access/entitlements'
p187
I2
sVresource
p188
I2
sS'resiliencyworkforce'
p189
I1
sS'across'
p190
I9
sS'hr.'
p191
I1
sS'architecture'
p192
I3
sS'requirement'
p193
I2
sS'roadmap'
p194
I2
sS'analytics'
p195
I6
sS'2.6'
p196
I1
sS'solutionsdriving'
p197
I1
sS'best-in-class'
p198
I2
sS'posse'
p199
I2
sS'information management'
p200
I2
sS'big data analytics'
p201
I2
sVstate
p202
I1
sS'54449'
p203
I1
sS'co.'
p204
I3
sS'available'
p205
I1
sS'infrastructure'
p206
I2
sS'ability'
p207
I2
sS'xslt'
p208
I1
sS'deliver'
p209
I2
sS'jp'
p210
I2
sS'efficiency'
p211
I2
sS'job'
p212
I3
sS'wt'
p213
I2
sS'key'
p214
I3
sS'spark'
p215
I1
sS'configuration'
p216
I2
sS'full-time'
p217
I1
sS'installation'
p218
I2
sS'many'
p219
I1
sS'etc'
p220
I2
sS'etl'
p221
I5
sS'relevant'
p222
I1
sS'data warehousing'
p223
I1
sS'linux'
p224
I1
sS'ct'
p225
I7
sS'java'
p226
I1
sS'.'
I2
sS'dtds'
p227
I1
sS'maintenance'
p228
I2
sS'firm'
p229
I10
sS'manner.'
p230
I2
sS'environment.'
p231
I1
sS'chase'
p232
I5
sS'external'
p233
I2
sS'chasebrands.'
p234
I1
sS'j.p.'
p235
I1
sS'application development'
p236
I1
sS'jpm'
p237
I1
sS'toolssoftware'
p238
I1
sS'partner'
p239
I4
sS'uplift'
p240
I2
sS'technology'
p241
I22
sS'id'
p242
I1
sS'management.'
p243
I2
sS'managethe'
p244
I2
sS'commitmentsadvancing'
p245
I1
sS'map-reduce/hadoop'
p246
I1
sS'hadoop'
p247
I3
sS'shorter'
p248
I2
sS'ofconsumers'
p249
I1
sS'development'
p250
I6
sS'reporting'
p251
I4
sS'workforce'
p252
I5
sS'hand'
p253
I2
sS'moving'
p254
I1
sS'user'
p255
I1
sS'opportunity'
p256
I2
sS'cycle'
p257
I1
sS'sql.'
p258
I1
sS'transaction'
p259
I1
sS'database'
p260
I2
sS'well'
p261
I2
sS'efficient'
p262
I2
sS'client'
p263
I3
sS'position'
p264
I2
sS'model'
p265
I2
sS'corporate'
p266
I15
sS'nosql'
p267
I1
sS'shape'
p268
I2
sS'human'
p269
I3
sS'skill'
p270
I2
sS'processes.'
p271
I2
sS'candidate'
p272
I5
sS'application'
p273
I7
sS'agile'
p274
I2
sS'emphasis'
p275
I2
sS'location'
p276
I1
sS'administrative'
p277
I2
sS'government'
p278
I1
sS'big'
p279
I3
sS'unique'
p280
I2
sS'processes.candidate'
p281
I1
sS'security'
p282
I2
sS'platforms.key'
p283
I1
sS'profilethe'
p284
I1
sS'cleveland'
p285
I1
sS'legal'
p286
I2
sS'provides'
p287
I2
sS'innovation'
p288
I2
sS'leader'
p289
I1
sS'business'
p290
I9
sS'schedule'
p291
I1
sS'equivalent'
p292
I1
sS'processing'
p293
I1
sS'platform.'
p294
I1
sS'includes'
p295
I4
sS'helping'
p296
I2
sS'pipeline'
p297
I1
sS'central'
p298
I2
sS'industry'
p299
I2
sS'messaging'
p300
I1
sS'software'
p301
I1
sS'resiliency'
p302
I1
sS'within'
p303
I2
sS'commitment'
p304
I3
sS'support'
p305
I8
sS'170027096'
p306
I1
sS'fast'
p307
I1
sS'systems.'
p308
I2
sS'start'
p309
I2
sS'analyze'
p310
I2
sS'function'
p311
I4
sS'jones'
p312
I1
sS'form'
p313
I1
sS'hr'
p314
I4
sS'us-oh-westerville-370'
p315
I1
sS'convergence'
p316
I2
sS'line'
p317
I2
sS'activemq'
p318
I1
sS'responding'
p319
I2
sS'data architecture'
p320
I1
sS'employees.workforce'
p321
I1
sS'human resources'
p322
I1
sS'proven'
p323
I1
sS'pig'
p324
I1
sS'single'
p325
I2
sS'diverse'
p326
I2
sS'expertise'
p327
I1
sS'storage'
p328
I2
sS'field'
p329
I1
sS'interested'
p330
I2
sS'role'
p331
I2
sS'computer science'
p332
I2
sS'warehouse'
p333
I1
sS'tech'
p334
I1
sS'worldwide.'
p335
I1
sS'pipelineslevel'
p336
I1
sS'employees.'
p337
I1
sS'platform.design'
p338
I1
sS'develops'
p339
I2
sS'building'
p340
I2
sS'assetsof'
p341
I1
sS'high performance computing'
p342
I2
sS'processes.work'
p343
I1
sS'oracle'
p344
I1
sS'oral'
p345
I1
s.