(dp1
S'skills'
p2
(lp3
S'owl'
p4
aS'r d'
p5
aS'ip'
p6
aS'ant'
p7
aS'unix'
p8
aS'sas'
p9
aS'ic'
p10
aS'pmo'
p11
aS'statistics'
p12
aS'coaching'
p13
aS'access'
p14
aS'rf'
p15
aS'computer science'
p16
aS'communication'
p17
aS'pl'
p18
aS'marketing'
p19
aS'data scientist'
p20
aS'cart'
p21
aS'mpi'
p22
aS'management'
p23
aS'mentoring'
p24
aS'data'
p25
aS'project management'
p26
aS'a'
aS'c'
aS'science'
p27
aS'programming'
p28
aS'engineering'
p29
aS'analysis'
p30
aS'banking'
p31
aS'r'
aS'organization'
p32
aS'cro'
p33
asS'working-year'
p34
(lp35
S'10 year'
p36
aS'6-10 year'
p37
asS'major'
p38
(lp39
S'engineering science'
p40
aS'information'
p41
aS'management'
p42
aS'business'
p43
aS'ee'
p44
aS'marketing'
p45
aS'communication'
p46
aS'communications'
p47
aS'engineering'
p48
aS'statistics'
p49
aS'computer science engineering'
p50
aS'computer science'
p51
aS'statistic'
p52
aS'project management'
p53
aS'science'
p54
asS'education'
p55
(lp56
VBachelor
p57
aVMaster
p58
asS'responsibility'
p59
(lp60
S'information'
p61
aS'product'
p62
aS'communicate'
p63
aS'analysis'
p64
aS'analytic'
p65
aS'understand'
p66
aS'ownership'
p67
aS'presentation'
p68
as.