(dp1
S'limited'
p2
I1
sS'breadth'
p3
I1
sS'global'
p4
I1
sS'dynamic'
p5
I1
sS'manager'
p6
I1
sS'computation'
p7
I1
sS'eligible'
p8
I1
sS'technique'
p9
I1
sS'disability'
p10
I1
sS'position.'
p11
I1
sS'hiv/aids'
p12
I1
sS'stochastic'
p13
I1
sS'problem-solver'
p14
I1
sS'collaborate'
p15
I1
sS'advantage'
p16
I1
sS'g.'
p17
I1
sS'continued'
p18
I1
sS'model/algorithm'
p19
I1
sS'gender'
p20
I1
sS'solution'
p21
I1
sS'hive'
p22
I1
sS'large'
p23
I1
sS'p'
I10
sS'race'
p24
I1
sS'team'
p25
I1
sS'direct'
p26
I1
sS'recruitment'
p27
I1
sS'design'
p28
I1
sS'click'
p29
I1
sS'capabilities.'
p30
I1
sS'graduating'
p31
I1
sS'current'
p32
I1
sS'supplier'
p33
I1
sS'shared'
p34
I1
sS'method'
p35
I1
sS'degree'
p36
I2
sS'leveraging'
p37
I2
sS'explore'
p38
I1
sS'others'
p39
I1
sS'consideration'
p40
I1
sS'strong'
p41
I1
sS'change'
p42
I1
sS'technical'
p43
I1
sS'experience'
p44
I4
sS'high-performance'
p45
I1
sS'action'
p46
I4
sS'win'
p47
I1
sS'manage'
p48
I1
sS'data-sets'
p49
I1
sS'scaled'
p50
I1
sS'apply'
p51
I2
sS'would'
p52
I1
sS'distributing'
p53
I1
sS'asset'
p54
I1
sS'ohio-cincinnati'
p55
I1
sS'data management'
p56
I1
sS'successful'
p57
I1
sS'assimilation'
p58
I1
sS'excellent'
p59
I1
sS'must'
p60
I1
sS'work'
p61
I2
sS'machine learning'
p62
I2
sS'following'
p63
I1
sS'effectively'
p64
I1
sS'unemployed.'
p65
I1
sS'information'
p66
I1
sS'hoc'
p67
I1
sS'tableau'
p68
I1
sS'delay'
p69
I1
sS'algorithm development'
p70
I1
sS'gamble'
p71
I3
sS'unix/linux'
p72
I1
sS'improving'
p73
I1
sS'communicator'
p74
I1
sS'data'
p75
I7
sS'parallel'
p76
I1
sS'organization'
p77
I2
sS'procter'
p78
I4
sS'applicant'
p79
I2
sS'5 year'
p80
I1
sS'help'
p81
I1
sS'insight'
p82
I5
sS'mission'
p83
I1
sVscientist
p84
I5
sS'including'
p85
I2
sVle
p86
I1
sS'solving'
p87
I1
sS'better'
p88
I1
sS'permanent'
p89
I1
sS'descriptive'
p90
I1
sS'python'
p91
I2
sS'framework'
p92
I1
sS'qualified'
p93
I2
sS'00000872'
p94
I1
sS'execute'
p95
I1
sS'mastery'
p96
I2
sS'creation.'
p97
I1
sS'capability'
p98
I1
sS'data analytics'
p99
I2
sS'status'
p100
I4
sS'mapreduce'
p101
I1
sS'unlock'
p102
I1
sS'connect'
p103
I1
sS"gamble's"
p104
I1
sS'operation'
p105
I1
sS'sexual'
p106
I1
sS'accomplish'
p107
I1
sS'state-space'
p108
I1
sS'scientific computing'
p109
I2
sS'research'
p110
I4
sS'looking'
p111
I1
sS'foundation'
p112
I1
sS'turning'
p113
I1
sS'theory'
p114
I1
sS'associate'
p115
I1
sS'u.s.'
p116
I2
sS'data scientist'
p117
I1
sS'tools/applications'
p118
I2
sS'cutting-edge'
p119
I1
sS'disadvantaged'
p120
I1
sS'knime'
p121
I2
sS'g'
I9
sS'filter'
p122
I1
sS'place'
p123
I1
sS'qualification'
p124
I1
sS'factor.'
p125
I1
sS'origin'
p126
I1
sS'participates'
p127
I1
sS'dont'
p128
I1
sS'strategic'
p129
I1
sS'dimensionality reduction'
p130
I1
sS'management'
p131
I1
sS'service'
p132
I1
sS'risk.'
p133
I1
sS'engagement'
p134
I2
sS'system'
p135
I2
sS'priority'
p136
I1
sS'2'
I2
sS'advanced analytics'
p137
I2
sS'legally'
p138
I1
sS'role.'
p139
I1
sS'professional.'
p140
I1
sS'self-motivated'
p141
I1
sS'objectives.'
p142
I1
sS'business problem'
p143
I1
sS'tool'
p144
I2
sS'effective'
p145
I1
sS'culture'
p146
I1
sS'project'
p147
I2
sS'r'
I1
sS"company's"
p148
I1
sS'systems engineering'
p149
I2
sS'alongside'
p150
I1
sS'business intelligence'
p151
I1
sS'need'
p152
I3
sS'mountain'
p153
I1
sS'law.'
p154
I1
sS'data.'
p155
I1
sS'veteran'
p156
I1
sS'-'
I17
sS'potential'
p157
I1
sS'take'
p158
I1
sS'online'
p159
I1
sS'objective'
p160
I1
sS'effectiveness'
p161
I1
sS'multiple'
p162
I2
sS'collaboration'
p163
I1
sS'immigration'
p164
I1
sS'information system'
p165
I1
sS'quantitative'
p166
I1
sS'probabilistic'
p167
I1
sS'consumers.'
p168
I1
sS'clear'
p169
I1
sS'analytics.'
p170
I1
sS'drive'
p171
I2
sS'actionable'
p172
I3
sS'professional'
p173
I1
sS'senior'
p174
I1
sS'consumer'
p175
I1
sS'participate'
p176
I1
sS'multi-functional'
p177
I1
sS'based'
p178
I4
sS'knowledge'
p179
I1
sS'big data'
p180
I2
sS'title'
p181
I1
sS'3'
I1
sS'analytic'
p182
I6
sS'team.'
p183
I1
sS'integrate'
p184
I1
sS'local'
p185
I1
sS'handle'
p186
I1
sS'get'
p187
I1
sS'overall'
p188
I1
sS'technology-driven'
p189
I1
sS'applied math'
p190
I1
sS'analytical'
p191
I2
sS'relentless'
p192
I1
sS'predictive'
p193
I1
sS'national'
p194
I1
sS'sex'
p195
I1
sS'actively'
p196
I1
sS'solutions.'
p197
I1
sS"master's"
p198
I1
sS'sponsorship'
p199
I1
sS'written'
p200
I1
sS'future'
p201
I2
sS'identification'
p202
I1
sS'across'
p203
I1
sS'thrive'
p204
I1
sS'e-verify'
p205
I1
sS'available'
p206
I1
sS'infrastructure'
p207
I1
sS'recently'
p208
I1
sS'ability'
p209
I4
sS'ph.d.'
p210
I1
sS'sole'
p211
I1
sS'deliver'
p212
I3
sS'adept'
p213
I1
sS'job'
p214
I1
sS'modeling'
p215
I1
sS'spark'
p216
I2
sS'improve'
p217
I1
sS'c'
I1
sS'candidate'
p218
I1
sS'data visualization'
p219
I1
sS'career'
p220
I1
sS'etc.'
p221
I2
sS'uncertainty'
p222
I1
sS'context'
p223
I1
sS'expression'
p224
I1
sS'innovating'
p225
I1
sS'color'
p226
I1
sS'data science'
p227
I2
sS'ad'
p228
I1
sS'java'
p229
I1
sS'basis'
p230
I1
sS'deep learning'
p231
I1
sS'create'
p232
I2
sS'strategy'
p233
I1
sS'reduction'
p234
I1
sS'information technology'
p235
I2
sS'location'
p236
I1
sS'enable'
p237
I1
sS'kalman'
p238
I1
sS'spotfire'
p239
I1
sS'protect'
p240
I1
sS'bayesian'
p241
I2
sS'exception'
p242
I1
sS'game-changing'
p243
I1
sS'value'
p244
I1
sS'receive'
p245
I1
sS'optimization'
p246
I2
sS'situation'
p247
I1
sS'orientation'
p248
I1
sS'partner'
p249
I2
sS'technology'
p250
I4
sS'id'
p251
I1
sS'hadoop'
p252
I2
sS'program.'
p253
I1
sS'decision-making'
p254
I1
sS'hand'
p255
I1
sS'residency.'
p256
I1
sS'robust'
p257
I1
sS'protected'
p258
I2
sS'identity'
p259
I1
sS'well'
p260
I1
sS'analysis'
p261
I1
sS'without'
p262
I2
sS'1'
I1
sS'position'
p263
I1
sS'model'
p264
I5
sS'specialties/area'
p265
I1
sS'able'
p266
I1
sS'competitive'
p267
I1
sS'skill'
p268
I6
sS'leaders.'
p269
I1
sS'visualization'
p270
I1
sS'work.'
p271
I1
sS'application'
p272
I2
sS'r d'
p273
I1
sS'except'
p274
I1
sS'individual.'
p275
I1
sS'interpersonal/communication'
p276
I1
sS'source'
p277
I1
sS'4'
I1
sS'statistics analytics'
p278
I1
sS'usage'
p279
I1
sS'5'
I1
sS'build'
p280
I2
sS'process.'
p281
I1
sS'experimental design'
p282
I1
sS'using'
p283
I1
sS'like'
p284
I1
sS'specific'
p285
I1
sS'security'
p286
I1
sS'passionate'
p287
I1
sS'verbal'
p288
I1
sS'rewarded.'
p289
I1
sS'growth'
p290
I1
sVstatistic
p291
I1
sS'employment'
p292
I1
sS'lead'
p293
I1
sS'scala'
p294
I2
sS'decision'
p295
I1
sS'integration'
p296
I1
sS'creative'
p297
I1
sS'religion'
p298
I1
sS'critical'
p299
I2
sS'passion'
p300
I1
sS'innovation'
p301
I3
sS'results.'
p302
I1
sVleader
p303
I3
sS'demonstrated'
p304
I1
sS'particular'
p305
I1
sS'business'
p306
I15
sS'processing'
p307
I1
sS'sponsorship.'
p308
I1
sS'leadership'
p309
I4
sS'graduated'
p310
I1
sS'rare'
p311
I1
sS'working'
p312
I1
sS'industry'
p313
I1
sS'capable'
p314
I1
sS'recognized'
p315
I1
sS'communication'
p316
I1
sS'within'
p317
I1
sS'cultivated'
p318
I1
sS'technically'
p319
I1
sS'area'
p320
I1
sS'transform'
p321
I1
sS'start'
p322
I1
sS'translate'
p323
I2
sS'artificial intelligence'
p324
I2
sS'therefore'
p325
I1
sS'function'
p326
I1
sS'medium'
p327
I1
sS'offer'
p328
I1
sS'regard'
p329
I1
sS'specialty'
p330
I1
sS'marital'
p331
I1
sS'made'
p332
I1
sS'applying'
p333
I1
sS'whether'
p334
I1
sS'ecosystem'
p335
I1
sS'dirty'
p336
I1
sS'demonstrate'
p337
I1
sS'similar'
p338
I1
sS'sponsor'
p339
I1
sS'citizenship'
p340
I1
sS'recommendation'
p341
I2
sS'influence'
p342
I2
sS'quantification'
p343
I1
sS'diverse'
p344
I2
sS'expertise'
p345
I1
sS'discretion.'
p346
I1
sS'generally'
p347
I1
sS'field'
p348
I1
sS'role'
p349
I1
sS'computer science'
p350
I2
sS'computer science systems'
p351
I1
sS'sql'
p352
I1
sS'rolling'
p353
I1
sS'building'
p354
I2
sS'individual'
p355
I2
sS'age'
p356
I1
sS'required'
p357
I2
sS'depth'
p358
I1
sS'requisition'
p359
I1
sS'presenting'
p360
I1
sS'time'
p361
I1
s.