(dp1
S'shop'
p2
I1
sS'duty'
p3
I2
sS'code'
p4
I2
sS'data scientist'
p5
I1
sS'related'
p6
I1
sS'excel'
p7
I1
sS'insight'
p8
I4
sS'independently.'
p9
I1
sS'preempt'
p10
I1
sS'identify'
p11
I2
sS'thanks'
p12
I1
sS'innovative'
p13
I1
sS'corner'
p14
I2
sS'skill'
p15
I2
sS'avenue'
p16
I1
sS'find'
p17
I1
sS'impact'
p18
I1
sS'leader'
p19
I1
sS'knowledge'
p20
I2
sS'fit'
p21
I1
sS'office.'
p22
I1
sS'technique'
p23
I1
sS'enough'
p24
I1
sS'source'
p25
I2
sS'serve.'
p26
I1
sS'employee'
p27
I2
sS'might'
p28
I1
sS'easier'
p29
I1
sS'smart'
p30
I1
sS'offices.'
p31
I1
sS'merchant'
p32
I1
sS'financial model'
p33
I1
sS'coffee'
p34
I1
sS'good'
p35
I1
sS"vantiv's"
p36
I1
sS'seeking'
p37
I1
sS'smarter'
p38
I1
sS'listed'
p39
I1
sS'stop'
p40
I1
sS'lead.'
p41
I1
sS'due diligence'
p42
I2
sS'unstructured'
p43
I1
sS'datasets'
p44
I2
sS'every'
p45
I1
sS'fastest'
p46
I1
sS'ambition'
p47
I1
sS'necessary'
p48
I1
sS'more.'
p49
I1
sS'continued'
p50
I1
sS'big data'
p51
I2
sS'advanced'
p52
I1
sS'essential'
p53
I1
sS'resolve'
p54
I1
sS'identifiable'
p55
I1
sS'success'
p56
I1
sS'level'
p57
I2
sS'targets.'
p58
I1
sS'evaluation'
p59
I1
sS'experiments.'
p60
I1
sS'solution'
p61
I2
sS'finance/competitive'
p62
I1
sS'large'
p63
I4
sS'fulfilling'
p64
I1
sS'continue'
p65
I1
sS'reasonable'
p66
I2
sS'team'
p67
I4
sS'cease'
p68
I1
sS'identifies'
p69
I1
sS'metadata'
p70
I1
sS'communicates'
p71
I1
sS"isn't"
p72
I1
sS'marketing strategy'
p73
I2
sS'consolidate'
p74
I2
sS'modeling.'
p75
I1
sS'instruction'
p76
I1
sS'cross-functional'
p77
I1
sS'people'
p78
I3
sS'trend'
p79
I2
sS'selecting'
p80
I1
sS'day-to-day'
p81
I1
sS'draw'
p82
I2
sS'competition'
p83
I1
sS'past'
p84
I1
sS'second'
p85
I1
sS'street'
p86
I1
sS'design'
p87
I2
sS'expect'
p88
I1
sS'best'
p89
I1
sS'subject'
p90
I1
sS"bachelor's"
p91
I1
sS'amaze--especially'
p92
I1
sS'and/or'
p93
I2
sS'leaf'
p94
I1
sVnetwork
p95
I1
sS'obtaining'
p96
I1
sS'wallet'
p97
I1
sS"master's"
p98
I1
sS'demonstrates'
p99
I1
sS'creative'
p100
I1
sS'current'
p101
I1
sS'rewarding'
p102
I1
sS'experiment'
p103
I1
sS'debit'
p104
I1
sS'board.'
p105
I1
sS'new'
p106
I3
sS'experience'
p107
I4
sS'beating'
p108
I1
sS'issue'
p109
I2
sS'method'
p110
I3
sS'discovery'
p111
I1
sS'expertise.'
p112
I1
sS'deemed'
p113
I1
sS'welcome'
p114
I1
sS'ability'
p115
I7
sS'business'
p116
I3
sS'he/she'
p117
I2
sS'u.s.'
p118
I2
sS'never'
p119
I2
sS'judgment'
p120
I1
sS'careers.'
p121
I1
sS'understanding'
p122
I1
sS'enhancement.'
p123
I1
sS'job'
p124
I4
sS'let'
p125
I1
sS'growth.'
p126
I1
sS'a.'
p127
I1
sS'meaningful'
p128
I2
sS'generate'
p129
I2
sS'card'
p130
I1
sS'wait'
p131
I1
sS'onsite'
p132
I1
sS'5 year'
p133
I1
sS'stone'
p134
I1
sS'acquisition'
p135
I1
sS'ahead'
p136
I1
sS'career'
p137
I1
sS'step'
p138
I1
sS'attributed'
p139
I1
sS'range'
p140
I1
sS'assure'
p141
I1
sS'yourself.'
p142
I1
sS'leverage'
p143
I1
sVqualification
p144
I1
sS'construed'
p145
I1
sS'scope'
p146
I1
sS"can't"
p147
I1
sS'first'
p148
I1
sS'degree'
p149
I3
sS'insight.'
p150
I1
sS'relevant'
p151
I1
sS'question'
p152
I1
sS'evaluate'
p153
I1
sS'retailer'
p154
I1
sS'requirement'
p155
I1
sS'one'
p156
I1
sS'flexibility'
p157
I1
sS'job-related'
p158
I1
sS'analysis.'
p159
I1
sS'learning'
p160
I1
sS'done.'
p161
I1
sS'ecommerce'
p162
I1
sS'requirements.'
p163
I1
sS'pin'
p164
I1
sS'service'
p165
I4
sS'area'
p166
I3
sS'equivalent'
p167
I1
sS'leading'
p168
I1
sS'visit'
p169
I1
sS'system'
p170
I3
sS'indicate'
p171
I1
sS'program'
p172
I3
sS'come'
p173
I1
sS"we're"
p174
I1
sS'phd'
p175
I1
sS'experience.'
p176
I1
sS'seasoned'
p177
I1
sS'exhaustive'
p178
I1
sS'analyze'
p179
I2
sS'insightful'
p180
I1
sS'function'
p181
I1
sS'exploring'
p182
I1
sS'accommodation'
p183
I1
sS'higher'
p184
I1
sS'statement'
p185
I1
sS'big'
p186
I1
sS'company'
p187
I3
sS'unturned'
p188
I1
sS'required'
p189
I1
sS'integrate'
p190
I1
sS'external'
p191
I1
sS'automated'
p192
I2
sS'cleanse'
p193
I2
sS'potential'
p194
I1
sS'proficiently.'
p195
I1
sS'wide'
p196
I1
sS'hire'
p197
I1
sS'vantiv.com'
p198
I1
sS'acquirer.'
p199
I1
sS'exponential'
p200
I1
sS'opportunity.'
p201
I1
sS'pursue'
p202
I1
sS'interprets'
p203
I1
sS'work'
p204
I5
sS'typically'
p205
I1
sS'optimism'
p206
I1
sS'transformation'
p207
I1
sS'solutions.'
p208
I2
sS'vantiv.'
p209
I2
sS'growth'
p210
I4
sS'growing'
p211
I1
sS'making'
p212
I2
sS'problem'
p213
I1
sS'proactive'
p214
I1
sS'gathering'
p215
I1
sS'full'
p216
I1
sS'reserved'
p217
I1
sS'chip-enabled'
p218
I1
sS'give'
p219
I1
sS'process'
p220
I3
sS'specialization'
p221
I1
sS'first-in-class'
p222
I1
sS'influence'
p223
I1
sS'competitive analysis'
p224
I1
sS'sizes.'
p225
I1
sS'diverse'
p226
I2
sS'something'
p227
I1
sS'sense'
p228
I1
sS'partner'
p229
I2
sS'interacts'
p230
I1
sS'information'
p231
I1
sS'develop'
p232
I1
sS'disparate'
p233
I2
sS'corporate finance'
p234
I2
sS'provide'
p235
I2
sS'personnel'
p236
I1
sS'get'
p237
I1
sS'able'
p238
I1
sS'aside'
p239
I1
sS'data'
p240
I4
sS'also'
p241
I1
sS'internal'
p242
I1
sS'largest'
p243
I2
sS'finding'
p244
I1
sS'3 year'
p245
I1
sS'complex'
p246
I1
sS'channel'
p247
I1
sS'conclusion'
p248
I1
sS'financial modeling'
p249
I1
sS'requested'
p250
I1
sS'product'
p251
I4
sS'experienced'
p252
I1
sS'multiple'
p253
I1
sS'description'
p254
I1
sS'factors.'
p255
I1
sS'may'
p256
I1
sS'visionary'
p257
I1
sS'minimum'
p258
I2
sS'analytics.'
p259
I1
sS'vantiv'
p260
I3
sS'stay'
p261
I1
sS'ways.'
p262
I1
sS'develops'
p263
I3
sS'data analysis'
p264
I2
sS'position'
p265
I1
sS'courage.'
p266
I1
sS'impact.'
p267
I1
sS'opportunity'
p268
I2
sS'payment'
p269
I5
sS'made.'
p270
I1
sS'goal'
p271
I2
sS'managers.'
p272
I1
sS'accommodation.'
p273
I1
sS'transaction'
p274
I1
sS'sources.'
p275
I2
sS'faster'
p276
I1
sS'algorithm'
p277
I2
sS'mobile'
p278
I1
sS'requires'
p279
I2
sS'untapped'
p280
I1
sS'well'
p281
I1
sS'analysis'
p282
I1
sS'without'
p283
I1
sS'actionable'
p284
I1
sS'perform'
p285
I4
sS'client'
p286
I2
sVresponsibility
p287
I3
sS'professional'
p288
I1
sS'senior'
p289
I1
sS'software'
p290
I2
sS'consumer'
p291
I1
sS'know'
p292
I1
s.