(dp1
S'skills'
p2
(lp3
S'supply chain'
p4
aS'r d'
p5
aS'text analytics'
p6
aS'ip'
p7
aS'data science'
p8
aS'sales'
p9
aS'ant'
p10
aS'analytics'
p11
aS'go'
p12
aS'ic'
p13
aS'management'
p14
aS'gis'
p15
aS'c'
aS'storage'
p16
aS'excel'
p17
aS'hadoop'
p18
aS'research'
p19
aS'cell'
p20
aS'statistica'
p21
aS'coaching'
p22
aS'visio'
p23
aS'pl'
p24
aS'processing'
p25
aS'marketing'
p26
aS'collaboration'
p27
aS'innovation'
p28
aS'data scientist'
p29
aS'search'
p30
aS'mpi'
p31
aS'talent management'
p32
aS'leadership'
p33
aS'oop'
p34
aS'staff development'
p35
aS'networking'
p36
aS'spark'
p37
aS'manufacturing'
p38
aS'data'
p39
aS'project management'
p40
aS'a'
aS'training'
p41
aS'vis'
p42
aS'cognition'
p43
aS'machine learning'
p44
aS'idl'
p45
aS'r'
aS'product innovation'
p46
aS'science'
p47
aS'organization'
p48
aS'cro'
p49
asS'working-year'
p50
(lp51
S'10 year'
p52
asS'major'
p53
(lp54
S'ece'
p55
aS'management'
p56
aS'business'
p57
aS'ee'
p58
aS'marketing'
p59
aS'data science'
p60
aS'machine learning'
p61
aS'business leadership'
p62
aS'analytics'
p63
aS'statistic'
p64
aS'law'
p65
aS'project management'
p66
aS'science'
p67
asS'education'
p68
(lp69
VBachelor
p70
aVMaster
p71
asS'responsibility'
p72
(lp73
S'development'
p74
aS'product'
p75
aS'processing'
p76
aS'analytic'
p77
aS'statistical method'
p78
aS'report'
p79
aS'transformation'
p80
as.