(dp1
S'skills'
p2
(lp3
S'supply chain'
p4
aS'r d'
p5
aS'text analytics'
p6
aS'ip'
p7
aS'data science'
p8
aS'sales'
p9
aS'ant'
p10
aS'analytics'
p11
aS'go'
p12
aS'ic'
p13
aS'management'
p14
aS'gis'
p15
aS'storage'
p16
aS'excel'
p17
aS'hadoop'
p18
aS'cell'
p19
aS'statistica'
p20
aS'coaching'
p21
aS'visio'
p22
aS'pl'
p23
aS'processing'
p24
aS'marketing'
p25
aS'collaboration'
p26
aS'innovation'
p27
aS'c'
aS'mpi'
p28
aS'talent management'
p29
aS'leadership'
p30
aS'oop'
p31
aS'staff development'
p32
aS'networking'
p33
aS'spark'
p34
aS'manufacturing'
p35
aS'data'
p36
aS'project management'
p37
aS'a'
aS'training'
p38
aS'vis'
p39
aS'cognition'
p40
aS'machine learning'
p41
aS'idl'
p42
aS'r'
aS'product innovation'
p43
aS'science'
p44
aS'organization'
p45
aS'cro'
p46
asS'working-year'
p47
(lp48
S'10 year'
p49
asS'major'
p50
(lp51
S'ece'
p52
aS'management'
p53
aS'business'
p54
aS'ee'
p55
aS'marketing'
p56
aS'data science'
p57
aS'machine learning'
p58
aS'business leadership'
p59
aS'analytics'
p60
aS'statistic'
p61
aS'law'
p62
aS'project management'
p63
aS'science'
p64
asS'education'
p65
(lp66
VBachelor
p67
aVMaster
p68
asS'responsibility'
p69
(lp70
S'development'
p71
aS'product'
p72
aS'processing'
p73
aS'analytic'
p74
aS'statistical method'
p75
aS'report'
p76
aS'transformation'
p77
as.