(dp1
S'skills'
p2
(lp3
S'r d'
p4
aS'ip'
p5
aS'ant'
p6
aS'analytics'
p7
aS'go'
p8
aS'data mining'
p9
aS'sas'
p10
aS'ic'
p11
aS'education'
p12
aS'sem'
p13
aS'visualization'
p14
aS'c'
aS'mathematica'
p15
aS'envi'
p16
aS'strategy'
p17
aS'access'
p18
aS'statistica'
p19
aS'ssis'
p20
aS'statistical software'
p21
aS'matlab'
p22
aS'communication'
p23
aS'advanced analytics'
p24
aS'teamwork'
p25
aS'pl'
p26
aS'segmentation'
p27
aS'python'
p28
aS'marketing'
p29
aS'collaboration'
p30
aS'data scientist'
p31
aS'search'
p32
aS'apache spark'
p33
aS'business analytics'
p34
aS'leadership'
p35
aS'oop'
p36
aS'apache'
p37
aS'spark'
p38
aS'data'
p39
aS'customer experience'
p40
aS'a'
aS'training'
p41
aS'erp'
p42
aS'vis'
p43
aS'windows'
p44
aS'marketing analytics'
p45
aS'analysis'
p46
aS'spss'
p47
aS'r'
aS'elasticsearch'
p48
aS'databases'
p49
aS'organization'
p50
aS'cro'
p51
asS'working-year'
p52
(lp53
S'3-6 year'
p54
aS'6 year'
p55
asS'major'
p56
(lp57
S'information'
p58
aS'ece'
p59
aS'marketing analytics'
p60
aS'business'
p61
aS'ee'
p62
aS'marketing'
p63
aS'statistic'
p64
aS'communication'
p65
aS'data analyst'
p66
aS'business analytics'
p67
aS'analytics'
p68
aS'design'
p69
aS'data mining'
p70
aS'advanced analytics'
p71
asS'education'
p72
(lp73
VBachelor
p74
aVMaster
p75
asS'responsibility'
p76
(lp77
S'information'
p78
aS'product'
p79
aS'quantitative information'
p80
aVinsight
p81
aS'communicate'
p82
aS'analysis'
p83
aS'analytic'
p84
aS'design'
p85
aS'data mining'
p86
aS'understand'
p87
as.