(dp1
S'skills'
p2
(lp3
S'owl'
p4
aS'r d'
p5
aS'probability'
p6
aS'text analytics'
p7
aS'ip'
p8
aS'data science'
p9
aS'information retrieval'
p10
aS'ant'
p11
aS'vis'
p12
aS'data governance'
p13
aS'data mining'
p14
aS'go'
p15
aS'ic'
p16
aS'education'
p17
aS'visualization'
p18
aS'git'
p19
aS'publishing'
p20
aS'lua'
p21
aS'valuation'
p22
aS'excel'
p23
aS'governance'
p24
aS'research'
p25
aS'cell'
p26
aS'statistica'
p27
aS'probabilistic models'
p28
aS'natural language processing'
p29
aS'pl'
p30
aS'processing'
p31
aS'database design'
p32
aS'innovation'
p33
aS'data scientist'
p34
aS'c'
aS'mpi'
p35
aS'data'
p36
aS'a'
aS'search'
p37
aS'data collection'
p38
aS'analytics'
p39
aS'data cleaning'
p40
aS'science'
p41
aS'access'
p42
aS'presentations'
p43
aS'machine learning'
p44
aS'r'
aS'organization'
p45
asS'working-year'
p46
(lp47
S'5 year'
p48
asS'major'
p49
(lp50
S'information'
p51
aS'business'
p52
aS'computing'
p53
aS'ee'
p54
aS'science'
p55
aS'data science'
p56
aS'data mining'
p57
aS'statistic'
p58
aS'machine learning'
p59
aS'analytics'
p60
aS'design'
p61
aS'natural language processing'
p62
aS'mis'
p63
aS'phd'
p64
aS'information retrieval'
p65
asS'education'
p66
(lp67
VBachelor
p68
aVMaster
p69
aVDoctor
p70
asS'responsibility'
p71
(lp72
S'development'
p73
aS'information'
p74
aS'product'
p75
aS'data collection'
p76
aS'presentation'
p77
aS'processing'
p78
aS'communicate'
p79
aS'statistical model'
p80
aS'analytic'
p81
aS'design'
p82
aS'data mining'
p83
aS'report'
p84
aS'understand'
p85
aS'model'
p86
aS'evaluation'
p87
as.