(dp1
S'skills'
p2
(lp3
S'research design'
p4
aS'predictive modeling'
p5
aS'problem solving'
p6
aS'classification'
p7
aS'ip'
p8
aS'data science'
p9
aS'tableau'
p10
aS'ant'
p11
aS'cluster'
p12
aS'data analysis'
p13
aS'analysis'
p14
aS'go'
p15
aS'data mining'
p16
aS'sas'
p17
aS'ic'
p18
aS'spss'
p19
aS'clustering'
p20
aS'java'
p21
aS'big data'
p22
aS'statistica'
p23
aS'lua'
p24
aS'mathematica'
p25
aS'hadoop'
p26
aS'research'
p27
aS'big data analytics'
p28
aS'strategy'
p29
aS'rf'
p30
aS'optimization'
p31
aS'fraud detection'
p32
aS'matlab'
p33
aS'microstrategy'
p34
aS'advanced analytics'
p35
aS'unstructured data'
p36
aS'pl'
p37
aS'envi'
p38
aS'python'
p39
aS'c'
aS'oop'
p40
aS'sql'
p41
aS'modeling'
p42
aS'e-learning'
p43
aS'data'
p44
aS'a'
aS'search'
p45
aS'fraud'
p46
aS'erp'
p47
aS'analytics'
p48
aS'science'
p49
aS'c++'
p50
aS'machine learning'
p51
aS'optimization algorithms'
p52
aS'r'
aS'algorithms'
p53
aS'organization'
p54
aS'cro'
p55
aS'data analytics'
p56
aS'statistical analysis'
p57
asS'working-year'
p58
(lp59
S'3+ year'
p60
asS'major'
p61
(lp62
S'business'
p63
aS'big data'
p64
aS'analytics'
p65
aS'ee'
p66
aS'science'
p67
aS'data science'
p68
aS'statistic'
p69
aVapplied statistic
p70
aS'machine learning'
p71
aS'big data analytics'
p72
aS'analytics data science'
p73
aS'design'
p74
aS'data mining'
p75
aS'advanced analytics'
p76
aS'data analytics'
p77
aS'data mining machine learning'
p78
asS'education'
p79
(lp80
VBachelor
p81
aVMaster
p82
asS'responsibility'
p83
(lp84
S'data mining'
p85
aS'development'
p86
aS'product'
p87
aS'data analysis'
p88
aS'predict'
p89
aS'pattern'
p90
aVinsight
p91
aS'modeling'
p92
aS'analysis'
p93
aS'analytic'
p94
aS'optimization'
p95
aS'design'
p96
aS'recommendation'
p97
aS'understand'
p98
aS'implement'
p99
aS'model'
p100
aS'data aggregation'
p101
as.