(dp1
S'skills'
p2
(lp3
S'software development'
p4
aS'a'
aS'c'
aS'data scientist'
p5
aS'machine learning'
p6
aS'statistica'
p7
aS'r'
aS'advertising'
p8
aS'policy'
p9
aS'ic'
p10
aS'data'
p11
aS'pl'
p12
asS'working-year'
p13
(lp14
S'0 year'
p15
asS'major'
p16
(lp17
S'statistic'
p18
aS'machine learning'
p19
asS'education'
p20
(lp21
VMaster
p22
asS'responsibility'
p23
(lp24
S'report'
p25
aS'development'
p26
aS'model'
p27
aVinsight
p28
aS'statistical model'
p29
as.