(dp1
S'origin'
p2
I1
sS'code'
p3
I1
sS'ecosystem.'
p4
I2
sS'r d'
p5
I1
sS'biostatistics'
p6
I1
sS'advertiser'
p7
I1
sS'developed'
p8
I1
sS'accurate'
p9
I1
sS'insight'
p10
I3
sS'dynamic'
p11
I2
sS'focus'
p12
I1
sS'cross-functionally'
p13
I1
sS'employer.'
p14
I1
sS'managers.'
p15
I1
sS'identify'
p16
I1
sS'ad'
p17
I1
sVskill
p18
I3
sS'candidate'
p19
I1
sS'preferred.'
p20
I1
sS'iii'
p21
I1
sS'explain'
p22
I1
sS'technique'
p23
I1
sS'disability'
p24
I1
sS'edge'
p25
I1
sS'source'
p26
I2
sS'program'
p27
I2
sS'post-hoc'
p28
I1
sS'integrate'
p29
I1
sS'include'
p30
I1
sS'interprets'
p31
I1
sS'interested'
p32
I1
sS'collaborate'
p33
I1
sS'disparate'
p34
I1
sS'exceptional'
p35
I1
sS'read'
p36
I1
sS'evaluate'
p37
I1
sS'digital'
p38
I3
sS'unstructured'
p39
I1
sS'cutting'
p40
I1
sS'qualified'
p41
I2
sS"you've"
p42
I1
sS'judgment.'
p43
I1
sS'offline'
p44
I1
sS'desire'
p45
I1
sS'entire'
p46
I1
sS'resource'
p47
I1
sS'success'
p48
I1
sS'identifying'
p49
I1
sS'gender'
p50
I1
sS'experiments.'
p51
I1
sS'solution'
p52
I1
sS'hive'
p53
I1
sS'leader'
p54
I2
sS'large'
p55
I2
sS'race'
p56
I1
sS'team'
p57
I4
sS'statistical inference'
p58
I1
sS'identifies'
p59
I1
sS'communicates'
p60
I1
sS'mean'
p61
I1
sS'consolidate'
p62
I1
sS'predictive'
p63
I1
sS'effectiveness.'
p64
I1
sS'broader'
p65
I1
sS'trend'
p66
I1
sS'national'
p67
I1
sS'testing'
p68
I1
sS'boundaries.'
p69
I1
sS'related'
p70
I1
sS'sex'
p71
I1
sS'prototyping'
p72
I1
sS'analytics'
p73
I1
sS'bs/ba'
p74
I1
sS'non-causal'
p75
I2
sVdesign
p76
I1
sS'odc'
p77
I1
sS'sexual'
p78
I1
sS'solutions.'
p79
I1
sS'lead'
p80
I1
sS'quantify'
p81
I1
sS'continually'
p82
I1
sS'looking'
p83
I2
sS'religion'
p84
I1
sS'experiment'
p85
I1
sS'candidate.'
p86
I1
sS'new'
p87
I2
sS'technology'
p88
I1
sS'issue'
p89
I1
sS'thrive'
p90
I2
sS'metadata'
p91
I1
sS'measuring'
p92
I2
sS'data analysis'
p93
I2
sS'run'
p94
I1
sS'ability'
p95
I1
sS'business'
p96
I4
sS'learn'
p97
I1
sS'data scientist'
p98
I1
sS'efficiency'
p99
I1
sS'job'
p100
I1
sS'succeed'
p101
I1
sS'consideration'
p102
I1
sS'r'
I1
sS'generate'
p103
I1
sS'change'
p104
I1
sS'publisher'
p105
I1
sS'working'
p106
I1
sS'understanding.'
p107
I1
sS"'big"
p108
I1
sS'receive'
p109
I1
sS'across'
p110
I1
sS'industry'
p111
I1
sS'marketing analytics'
p112
I2
sS'equal'
p113
I1
sS'experience'
p114
I4
sS'product management'
p115
I1
sS'practical'
p116
I1
sS'outcomes.'
p117
I1
sS'advertising'
p118
I1
sS'qualification'
p119
I1
sS'1-3 year'
p120
I1
sS'improvement'
p121
I1
sS'plus.'
p122
I1
sS'facilitate'
p123
I1
sS'software'
p124
I3
sS'duty'
p125
I1
sS'researching'
p126
I1
sS'relevant'
p127
I2
sS'inference'
p128
I2
sS'campaign'
p129
I2
sS'color'
p130
I1
sS'primary'
p131
I1
sS'causal inference'
p132
I1
sS'thought leadership'
p133
I1
sS'implications.'
p134
I1
sS'maximize'
p135
I1
sS'modeling'
p136
I1
sS'datasets'
p137
I1
sS'quality'
p138
I1
sS'causal'
p139
I3
sS'engineer'
p140
I1
sS"you're"
p141
I1
sS'management'
p142
I1
sS'service'
p143
I3
sS'data'
p144
I4
sS'question'
p145
I1
sS'system'
p146
I1
sS'fast'
p147
I1
sS'optimize'
p148
I1
sS'predict'
p149
I1
sS"we're"
p150
I1
sS'biggest'
p151
I1
sS'utilizing'
p152
I1
sS'role.'
p153
I2
sS'organization.'
p154
I1
sS'energized'
p155
I1
sS'medium'
p156
I1
sS'python'
p157
I1
sS'tool'
p158
I1
sS'regard'
p159
I1
sS'delivery'
p160
I1
sS'evironment.'
p161
I1
sS'environment.'
p162
I2
sS'understand'
p163
I1
sS'external'
p164
I1
sS'automated'
p165
I1
sS'cleanse'
p166
I1
sS"here's"
p167
I1
sS'must'
p168
I1
sS'analyze'
p169
I1
sS'developing'
p170
I2
sS'characteristic'
p171
I1
sS'challenge'
p172
I1
sS'work'
p173
I3
sS'project'
p174
I1
sS'entrepreneurial'
p175
I1
sS'protected'
p176
I2
sS'.'
I2
sS'enhancement.'
p177
I1
sS'field'
p178
I1
sS'providing'
p179
I1
sS'etc.'
p180
I1
sS'example'
p181
I1
sS'statistical analysis'
p182
I1
sS'unrelenting'
p183
I1
sS'statistical method'
p184
I1
sS"data'."
p185
I1
sS'orientation'
p186
I1
sS'process'
p187
I2
sS'experience.'
p188
I2
sS'measurement'
p189
I2
sS'package'
p190
I1
sS'effectively'
p191
I1
sS'engineering'
p192
I1
sS'diverse'
p193
I1
sS'expertise'
p194
I2
sS'high performance computing'
p195
I2
sS'need'
p196
I1
sS'partner'
p197
I1
sS'sits'
p198
I1
sS'interacts'
p199
I1
sS'law.'
p200
I1
sS'varied'
p201
I1
sS'provide'
p202
I2
sS'employment'
p203
I2
sS'veteran'
p204
I1
sS'hadoop'
p205
I1
sS'client'
p206
I1
sS'serving'
p207
I1
sS'far'
p208
I1
sS'methodology'
p209
I3
sS'complex'
p210
I1
sS'responsibility'
p211
I1
sS'big'
p212
I2
sS'finding'
p213
I1
sS'effectiveness'
p214
I1
sS'3 year'
p215
I1
sS'status'
p216
I1
sS'independent'
p217
I1
sS'product'
p218
I3
sS'multiple'
p219
I1
sS'test'
p220
I1
sS'communicating'
p221
I1
sS'may'
p222
I1
sS'big data'
p223
I2
sS'summary'
p224
I1
sVm
I1
sS'phd'
p225
I1
sS'scientist'
p226
I2
sS'develops'
p227
I2
sS'sql'
p228
I1
sS'problem solving'
p229
I1
sS'meaningful'
p230
I1
sS'5 year'
p231
I3
sS'identity'
p232
I1
sS'deployed.'
p233
I1
sS'building'
p234
I2
sS'sources.'
p235
I1
sS'algorithm'
p236
I2
sS'framework'
p237
I2
sS'applicant'
p238
I1
sS'statistic'
p239
I2
sS'analysis'
p240
I1
sS'actionable'
p241
I1
sS"you'll"
p242
I1
sS'without'
p243
I1
sS'first-in-industry'
p244
I1
sS'oracle'
p245
I1
sS'position'
p246
I1
sS'senior'
p247
I2
sS'opportunity'
p248
I2
sS'paced'
p249
I1
s.