(dp1
S'limited'
p2
I1
sS'mclean'
p3
I1
sVposse
p4
I1
sS'data scientist'
p5
I1
sS'r d'
p6
I1
sS'highly-complex'
p7
I1
sS'using'
p8
I1
sS'ite'
p9
I1
sS'must'
p10
I2
sS'large'
p11
I1
sS'including'
p12
I2
sS'innovative'
p13
I2
sS'skill'
p14
I4
sS'states-co-aurora'
p15
I1
sS'captured'
p16
I1
sS'methods.'
p17
I1
sS'member'
p18
I1
sS'rapidly'
p19
I1
sS'nga'
p20
I2
sS'also'
p21
I1
sS'optimization'
p22
I1
sS'operational'
p23
I2
sS'source'
p24
I2
sS'team.'
p25
I1
sS'production'
p26
I1
sS'location'
p27
I1
sS'overview'
p28
I1
sS'employee'
p29
I1
sS'2016'
p30
I1
sS'collaborate'
p31
I2
sS'increased'
p32
I1
sS'python'
p33
I1
sS'material'
p34
I1
sS'virginia'
p35
I1
sS'primary'
p36
I1
sS'denver.'
p37
I1
sS'423868'
p38
I1
sS'markets.'
p39
I1
sS'affect'
p40
I1
sS'high-demand'
p41
I1
sS'teleworking'
p42
I1
sS'formal'
p43
I2
sS'timely'
p44
I1
sS'process improvement'
p45
I1
sS'level'
p46
I3
sS'presented'
p47
I1
sS'solution'
p48
I4
sS'000'
p49
I1
sS'capability'
p50
I4
sS'interpersonal'
p51
I1
sS'common'
p52
I1
sS'team'
p53
I1
sS'analytical'
p54
I1
sS'end-to-end'
p55
I1
sS'applied mathematics'
p56
I2
sS'5/ms'
p57
I1
sS'object-based'
p58
I1
sS'reference'
p59
I1
sS'intelligence'
p60
I2
sS'prediction'
p61
I1
sS'prototyping'
p62
I1
sS'data analysis'
p63
I2
sS'design'
p64
I2
sS'result'
p65
I2
sVoperation
p66
I2
sS'end-'
p67
I1
sS'principles.'
p68
I1
sS'saic'
p69
I4
sS'degree'
p70
I2
sS'lead'
p71
I1
sS'abi'
p72
I1
sS'+'
I3
sS'currently'
p73
I1
sS'integration'
p74
I1
sS'preferred.'
p75
I1
sS'future'
p76
I2
sS'provides'
p77
I1
sS'new'
p78
I1
sS'billion.'
p79
I1
sS'approach'
p80
I2
sS"years'"
p81
I1
sS'full'
p82
I1
sS'ability'
p83
I4
sS'schedule'
p84
I1
sS'marketing'
p85
I1
sS'applied math'
p86
I1
sS'communicate'
p87
I1
sS'understanding'
p88
I3
sS'business analytics'
p89
I2
sS'desired'
p90
I2
sS'job'
p91
I4
sS'focused'
p92
I1
sS'able'
p93
I1
sS'enhance'
p94
I2
sS'4/phd'
p95
I1
sS'strong'
p96
I3
sS'change'
p97
I1
sS'knowledge'
p98
I1
sS'vba'
p99
I1
sS'dec'
p100
I1
sS'improved'
p101
I1
sS'language'
p102
I1
sS'efficiency'
p103
I2
sS'technical'
p104
I1
sS'shift'
p105
I1
sS'transition'
p106
I2
sS'programming'
p107
I1
sS'21'
p108
I1
sS'experience'
p109
I3
sS'7'
I1
sS'integrator'
p110
I1
sS'environment.'
p111
I1
sS'involving'
p112
I1
sS'ensure'
p113
I1
sVqualification
p114
I1
sS'top'
p115
I2
sS'obp'
p116
I1
sS'm/f/vet/disability'
p117
I1
sS'relevant'
p118
I1
sS'classification'
p119
I1
sS'revenue'
p120
I1
sS'communication'
p121
I1
sS'data science'
p122
I2
sS'coding'
p123
I1
sS'number'
p124
I1
sS'highly'
p125
I1
sS'directly'
p126
I1
sS'obtain'
p127
I1
sS'open'
p128
I1
sS'savvy.'
p129
I1
sS'management'
p130
I2
sS'service'
p131
I1
sS'analytic'
p132
I1
sS'value.'
p133
I1
sS'support'
p134
I3
sS'system'
p135
I1
sS'approximately'
p136
I1
sS'.'
I1
sS'information technology'
p137
I2
sS'way'
p138
I1
sS'contractor'
p139
I5
sS'prototype'
p140
I2
sS'assessment'
p141
I2
sS'theoretical'
p142
I1
sS'activity-based'
p143
I1
sS'life'
p144
I1
sS'enable'
p145
I1
sS'pws'
p146
I1
sS'form'
p147
I2
sS'self-initiative'
p148
I1
sS'full-time'
p149
I1
sS'of/experience'
p150
I1
sS'understandable'
p151
I1
sS'demand'
p152
I1
sS'consumable'
p153
I1
sS'iii'
p154
I1
sS'potential'
p155
I1
sS'quickly.'
p156
I1
sS'algorithms.'
p157
I1
sS'customer'
p158
I2
sS'high'
p159
I1
sS'none'
p160
I1
sVb
I1
sS'15'
p161
I1
sS'eoe'
p162
I1
sS'science'
p163
I6
sS'challenge'
p164
I2
sS'work'
p165
I2
sS'value'
p166
I1
sS'project'
p167
I1
sS'learn'
p168
I1
sS'high-'
p169
I1
sS'providing'
p170
I1
sS'deliver'
p171
I1
sS'aa'
p172
I1
sS'projects.'
p173
I1
sS'annual'
p174
I1
sS'e.g.'
p175
I1
sS'opir'
p176
I2
sS'premier'
p177
I1
sS'comfortable'
p178
I1
sS'ii'
p179
I1
sS'engineering'
p180
I2
sS'expertise'
p181
I1
sS'changes.'
p182
I1
sS'solution.'
p183
I1
sS'ic'
p184
I1
sS'education'
p185
I1
sS'everyday'
p186
I2
sS'posting'
p187
I1
sS'pathfinder'
p188
I1
sS'develop'
p189
I5
sS'offering'
p190
I1
sS'4.3'
p191
I1
sS'provide'
p192
I1
sS'appropriate.'
p193
I1
sS'programs.'
p194
I2
sS'42'
p195
I1
sS'to-end'
p196
I1
sS'write'
p197
I1
sS'field'
p198
I1
sS'methodology'
p199
I1
sS'complex'
p200
I2
sS'outcomes.'
p201
I1
sS'program.'
p202
I1
sS'day'
p203
I1
sS'polygraph'
p204
I2
sS'description'
p205
I2
sS'shall'
p206
I5
sS'headquartered'
p207
I1
sS'business.'
p208
I1
sS'produce'
p209
I1
sS'user'
p210
I1
sS'demonstrating'
p211
I1
sS'improving'
p212
I1
sS'3 years'
p213
I1
sS'data'
p214
I6
sS'1.16.1.4'
p215
I1
sS'cycle'
p216
I1
sS'united'
p217
I1
sS'ambiguous'
p218
I1
sS'independently'
p219
I1
sS'algorithm'
p220
I2
sS'required'
p221
I1
sS'well'
p222
I2
sS'drive'
p223
I1
sS'object-oriented'
p224
I1
sS'maintain'
p225
I2
sS'secret/sci'
p226
I2
sS'enterprise'
p227
I1
sS'11'
p228
I1
sS'senior'
p229
I2
sS'clearance'
p230
I2
sS'requires'
p231
I1
sS'order'
p232
I2
sS'travel'
p233
I1
s.