(dp1
S'skills'
p2
(lp3
S'owl'
p4
aS'neural networks'
p5
aS'unsupervised learning'
p6
aS'ip'
p7
aS'information retrieval'
p8
aS'ant'
p9
aS'analytics'
p10
aS'health insurance'
p11
aS'go'
p12
aS'digital analytics'
p13
aS'ic'
p14
aVpanda
p15
aS'visualization'
p16
aS'git'
p17
aS'java'
p18
aS'probability'
p19
aS'big data'
p20
aS'deep learning'
p21
aS'mathematica'
p22
aS'asic'
p23
aS'hadoop'
p24
aS'insurance'
p25
aS'access'
p26
aS'statistica'
p27
aS'rf'
p28
aS'optimization'
p29
aS'computer science'
p30
aS'sem'
p31
aS'probabilistic models'
p32
aS'tensorflow'
p33
aS'unstructured data'
p34
aS'pl'
p35
aS'apis'
p36
aS'python'
p37
aS'data scientist'
p38
aS'matplotlib'
p39
aS'statistics'
p40
aS'oop'
p41
aS'sql'
p42
aS'property casualty insurance'
p43
aS'spark'
p44
aS'algebra'
p45
aS'data'
p46
aS'information technology'
p47
aS'a'
aS'c'
aS'erp'
p48
aS'data visualization'
p49
aS'vis'
p50
aS'science'
p51
aS'scikit-learn'
p52
aS'analysis'
p53
aS'machine learning'
p54
aS'r'
aS'linear algebra'
p55
aS'theano'
p56
aS'nltk'
p57
asS'working-year'
p58
(lp59
S'1 year'
p60
asS'major'
p61
(lp62
S'information'
p63
aS'statistics'
p64
aS'business'
p65
aS'big data'
p66
aS'ee'
p67
aS'science'
p68
aS'machine learning'
p69
aS'analytics'
p70
aS'computer science'
p71
aS'statistic'
p72
aS'probability statistics'
p73
aS'information retrieval'
p74
aS'information technology'
p75
asS'education'
p76
(lp77
VBachelor
p78
aVMaster
p79
asS'responsibility'
p80
(lp81
S'large data set'
p82
aS'product'
p83
aS'build model'
p84
aS'information'
p85
aS'predict'
p86
aVinsight
p87
aS'communicate'
p88
aS'analysis'
p89
aS'analytic'
p90
aS'optimization'
p91
aS'understand'
p92
aS'report'
p93
aS'model'
p94
as.