(dp1
S'skills'
p2
(lp3
S'consulting'
p4
aS'r d'
p5
aS'storage'
p6
aS'soc'
p7
aS'rest'
p8
aS'ant'
p9
aS'go'
p10
aS'engineering'
p11
aS'troubleshooting'
p12
aS'linux'
p13
aS'sas'
p14
aS'ic'
p15
aS'education'
p16
aS'vmware'
p17
aS'management'
p18
aS'networking'
p19
aS'excel'
p20
aS'envi'
p21
aS'research'
p22
aS'cell'
p23
aS'rf'
p24
aS'oracle sql'
p25
aS'computer science'
p26
aS'innovation'
p27
aS'pl'
p28
aS'systems engineering'
p29
aS'product development'
p30
aS'data scientist'
p31
aS'c'
aS'sql'
p32
aS'data'
p33
aS'b2b'
p34
aS'a'
aS'search'
p35
aS'disaster recovery'
p36
aS'saas'
p37
aS'windows'
p38
aS'science'
p39
aS'r'
aS'oracle'
p40
asS'working-year'
p41
(lp42
S'5+ year'
p43
aS'65 year'
p44
asS'major'
p45
(lp46
S'systems engineering'
p47
aS'information'
p48
aS'ece'
p49
aS'management'
p50
aS'business'
p51
aS'ee'
p52
aS'science'
p53
aS'information systems'
p54
aS'engineering'
p55
aS'information system'
p56
aS'design'
p57
aS'computer science'
p58
aS'computer information systems'
p59
aS'law'
p60
aVphysic
p61
asS'education'
p62
(lp63
VBachelor
p64
aVMaster
p65
asS'responsibility'
p66
(lp67
S'development'
p68
aS'information'
p69
aS'product'
p70
aS'predict'
p71
aVinsight
p72
aS'analytic'
p73
aS'understand'
p74
aS'design'
p75
aS'implement'
p76
as.