(dp1
S'skills'
p2
(lp3
S'soc'
p4
aS'r d'
p5
aS'ip'
p6
aS'testing'
p7
aS'devops'
p8
aS'ant'
p9
aS'engineering'
p10
aS'ansible'
p11
aS'ic'
p12
aS'strategy'
p13
aS'git'
p14
aS'excel'
p15
aS'integration'
p16
aS'research'
p17
aS'cell'
p18
aS'rf'
p19
aS'computer science'
p20
aS'innovation'
p21
aS'jenkins'
p22
aS'pl'
p23
aS'envi'
p24
aS'product development'
p25
aS'data scientist'
p26
aS'search'
p27
aS'maven'
p28
aS'management'
p29
aS'oop'
p30
aS'data'
p31
aS'b2b'
p32
aS'a'
aS'c'
aS'saas'
p33
aS'science'
p34
aS'r'
aS'docker'
p35
asS'working-year'
p36
(lp37
S'5 year'
p38
asS'major'
p39
(lp40
S'management'
p41
aS'business'
p42
aS'ee'
p43
aS'science'
p44
aS'engineering'
p45
aS'design'
p46
aS'computer science'
p47
aS'ee computer science'
p48
asS'education'
p49
(lp50
VBachelor
p51
aVMaster
p52
asS'responsibility'
p53
(lp54
S'development'
p55
aS'product'
p56
aS'predict'
p57
aVinsight
p58
aS'design'
p59
aS'implement'
p60
as.