(dp1
S'feed'
p2
I1
sS'r d'
p3
I1
sS'//ch.tbe.taleo.net/'
p4
I1
sS'disabled'
p5
I1
sS'employer.'
p6
I1
sVsaving
p7
I1
sS'warren'
p8
I1
sS'thank'
p9
I1
sS'contractor'
p10
I3
sS'arrest'
p11
I1
sS'401'
p12
I1
sS'good'
p13
I1
sS'seeking'
p14
I1
sS'python'
p15
I2
sS'practice'
p16
I1
sS'preferred'
p17
I1
sS'qualified'
p18
I1
sS'look'
p19
I1
sS'like'
p20
I1
sS'jobs.'
p21
I1
sS'machine learning engineer'
p22
I1
sS'large'
p23
I1
sS'benefit'
p24
I3
sS'race'
p25
I1
sS'characteristic'
p26
I1
sS'apply.'
p27
I2
sS'predictive'
p28
I1
sVrequirement
p29
I1
sS'set'
p30
I1
sS'0 year'
p31
I2
sS'unsupervised learning'
p32
I1
sS'national'
p33
I1
sS'testing'
p34
I2
sS'direct'
p35
I1
sS'sex'
p36
I1
sS'sponsor'
p37
I1
sS'scraped'
p38
I1
sS'employment'
p39
I1
sS'telecommunication'
p40
I1
sS'deposit.'
p41
I1
sS'and/or'
p42
I1
sS'federal'
p43
I1
sS'broad'
p44
I1
sS'please'
p45
I1
sS'access'
p46
I1
sS'religion'
p47
I1
sS'unable'
p48
I1
sS'provides'
p49
I1
sS'data analysis'
p50
I2
sS'ability'
p51
I1
sS'degree'
p52
I1
sS'resume'
p53
I1
sS'u.s.'
p54
I1
sS'data scientist'
p55
I1
sS'nj.'
p56
I1
sS'understanding'
p57
I2
sVjob
p58
I1
sS'consideration'
p59
I1
sS'techniques.'
p60
I1
sS'tuning'
p61
I1
sS'learning/data'
p62
I1
sS'great'
p63
I1
sS'language'
p64
I1
sS'receive'
p65
I1
sS'k'
I1
sS'equal'
p66
I1
sS'experience'
p67
I4
sS'amount'
p68
I1
sS'supervised'
p69
I1
sS'theory'
p70
I1
sVqualification
p71
I1
sS'vendors.'
p72
I1
sS'origin'
p73
I1
sS'seeing'
p74
I1
sS'pre-tax'
p75
I1
sS'classification'
p76
I1
sS'color'
p77
I1
sS'data science'
p78
I2
sS'conviction'
p79
I1
sS'learning'
p80
I3
sS'apply'
p81
I3
sVspark
p82
I1
sS'engineer'
p83
I1
sS'clustering'
p84
I1
sS'i.e.'
p85
I1
sS'additional'
p86
I1
sS'spending'
p87
I1
sS'opportunity'
p88
I1
sS'support'
p89
I1
sS'visit'
p90
I1
sS'.'
I1
sS'interest'
p91
I1
sS'forward'
p92
I1
sS'flexible'
p93
I1
sS'h1b'
p94
I1
sS'type'
p95
I1
sS'website'
p96
I1
sS'commuter'
p97
I1
sS'regard'
p98
I1
sS'training'
p99
I1
sS'wireless'
p100
I1
sS'train'
p101
I1
sS'analysis/machine'
p102
I1
sS'account'
p103
I1
sS'applying'
p104
I1
sS'algorithm'
p105
I4
sS'solid'
p106
I1
sS'science'
p107
I1
sS'machine learning'
p108
I2
sS'record'
p109
I1
sS'r'
I2
sS'e-verify'
p110
I1
sS'learn'
p111
I1
sS'ocsi.co'
p112
I3
sS'problem'
p113
I1
sS'w2'
p114
I1
sS'strongly'
p115
I1
sVwoman
p116
I1
sS'expertise'
p117
I1
sS'regression'
p118
I1
sS'scientist/machine'
p119
I2
sS'develop'
p120
I1
sS'specialization'
p121
I1
sS'provide'
p122
I1
sS'veteran'
p123
I1
sS'subcontract'
p124
I1
sS'range'
p125
I1
sS'graduate'
p126
I1
sS'machine'
p127
I1
sS'without'
p128
I1
sS'party'
p129
I1
sS'program.'
p130
I1
sS'encouraged'
p131
I1
sS'experienced'
p132
I1
sS'http'
p133
I1
sS'minority'
p134
I1
sS'information'
p135
I1
sS'welcome'
p136
I1
sS'phd'
p137
I1
sVvisa
p138
I1
sS'plan'
p139
I1
sS'participant'
p140
I1
sS'protected'
p141
I1
sS'data'
p142
I2
sS'varied'
p143
I2
sS'building'
p144
I1
sS'fsa'
p145
I1
sS'third'
p146
I1
sS'url'
p147
I1
sS'applicant'
p148
I1
sVm
I1
sS'law.ocsi.co'
p149
I1
sS'client'
p150
I1
sS'healthcare'
p151
I1
sVmodel
p152
I3
sS'corporate'
p153
I1
s.