(dp1
S'code'
p2
I1
sS'global'
p3
I1
sS'technique'
p4
I3
sS'environment'
p5
I2
sS'foster'
p6
I1
sS'include'
p7
I2
sS'division'
p8
I1
sS'collaborate'
p9
I2
sS'putting'
p10
I1
sS'problems.'
p11
I2
sS'applicable'
p12
I1
sS'large'
p13
I1
sS'domestically'
p14
I1
sS'team'
p15
I3
sS'prediction'
p16
I1
sS'thinker'
p17
I1
sS'street'
p18
I1
sS'design'
p19
I4
sS'ourselves.'
p20
I1
sS'specification'
p21
I1
sS'contributed'
p22
I1
sS'access'
p23
I2
sS'consistently'
p24
I1
sS'experiment'
p25
I1
sS'capital'
p26
I3
sS'new'
p27
I2
sS'public'
p28
I1
sS'data scientist'
p29
I1
sS'component'
p30
I1
sS'with.'
p31
I1
sS'focused'
p32
I1
sS'others'
p33
I1
sS'strong'
p34
I3
sS'technical'
p35
I3
sS'experience'
p36
I14
sS'social'
p37
I1
sS'love'
p38
I1
sS'logical'
p39
I1
sS'highly'
p40
I1
sS'visible'
p41
I1
sS'analyzing'
p42
I1
sS'apply'
p43
I2
sS'select'
p44
I1
sS'use'
p45
I1
sS'working'
p46
I1
sS'positive'
p47
I1
sS'parsippany'
p48
I1
sS"world's"
p49
I3
sS'program'
p50
I1
sS'recommend'
p51
I2
sS'type'
p52
I1
sS'today'
p53
I1
sS'jms'
p54
I1
sVcompany
p55
I4
sS'oop'
p56
I1
sS'must'
p57
I1
sS'mid-sized'
p58
I1
sVaccount
p59
I1
sS'join'
p60
I1
sS'integrating'
p61
I1
sS'science'
p62
I2
sS'work'
p63
I2
sS'machine learning'
p64
I2
sS'example'
p65
I1
sS'admired'
p66
I1
sS'want'
p67
I1
sS'council'
p68
I1
sS'productive'
p69
I1
sS'provide'
p70
I2
sS'technology'
p71
I6
sS'travel'
p72
I1
sS'machine'
p73
I6
sS'amazing'
p74
I2
sS'buzzword'
p75
I1
sS'product'
p76
I4
sS"client's"
p77
I1
sS'provider.'
p78
I1
sS'data'
p79
I4
sS'short'
p80
I1
sS'platforms.'
p81
I1
sS'allow'
p82
I1
sS'mentorship'
p83
I1
sS"that's"
p84
I2
sS'enterprise-scale'
p85
I1
sS'help'
p86
I4
sS'insight'
p87
I3
sS'kafka'
p88
I1
sS'including'
p89
I3
sS'innovative'
p90
I1
sS'developer'
p91
I2
sS'1'
I1
sS'multi-dimensional'
p92
I1
sS'solving'
p93
I1
sS'platform'
p94
I1
sS'production'
p95
I1
sS'cred'
p96
I1
sS'someone'
p97
I1
sS'python'
p98
I1
sS'cutting'
p99
I1
sS"you've"
p100
I1
sS'workforce.'
p101
I1
sS'debug'
p102
I1
sS'mean'
p103
I1
sS'products/services'
p104
I1
sS'internationally.'
p105
I1
sS'lists.'
p106
I1
sS'idea'
p107
I2
sS'solution'
p108
I4
sS'category'
p109
I1
sS'3rd'
p110
I1
sS'looking'
p111
I2
sS'time.'
p112
I1
sS'newly'
p113
I1
sS'hcm'
p114
I1
sS'payroll'
p115
I1
sS'generate'
p116
I1
sS'created'
p117
I1
sS'mvc'
p118
I1
sS'elasticsearch'
p119
I1
sS'learning.'
p120
I2
sS'5+ year'
p121
I1
sS'major'
p122
I1
sS'one'
p123
I1
sS'owner'
p124
I1
sS'city'
p125
I1
sS'management'
p126
I2
sS'service'
p127
I4
sS'leading'
p128
I1
sS'system'
p129
I1
sS'intermediate'
p130
I1
sS'architecting'
p131
I1
sS'role.'
p132
I1
sS'business problem'
p133
I1
sS'tool'
p134
I1
sS'released'
p135
I1
sS'part'
p136
I1
sS'differentiate'
p137
I1
sS"fortune's"
p138
I1
sS'project'
p139
I1
sS'r'
I1
sS'architect'
p140
I1
sS'proactive'
p141
I1
sS'strengthen'
p142
I1
sS'mind'
p143
I1
sS'say'
p144
I1
sS'need'
p145
I1
sS'cassandra'
p146
I1
sS'thought'
p147
I1
sS'-'
I1
sS'edge'
p148
I1
sS'aws'
p149
I1
sS'hands-on'
p150
I1
sS'user-friendly'
p151
I1
sS'mobile'
p152
I1
sS"you'll"
p153
I1
sS'principle'
p154
I1
sS'professional'
p155
I3
sS"forbes'"
p156
I1
sS'node.js'
p157
I1
sS'bring'
p158
I1
sS'principal'
p159
I1
sS'holistic'
p160
I1
sS'based'
p161
I1
sS'big data'
p162
I2
sS'distributed'
p163
I1
sS'rich'
p164
I1
sS'factor'
p165
I1
sS'data modeling'
p166
I1
sS'designing'
p167
I1
sS'overall'
p168
I2
sS'brilliantly-designed'
p169
I1
sS'busiest'
p170
I1
sS'summary'
p171
I1
sS'architecture'
p172
I2
sS'requirement'
p173
I2
sS'set'
p174
I1
sS'encourages'
p175
I1
sS'payments.'
p176
I1
sS'analytics'
p177
I1
sS'best'
p178
I2
sS'lean startup'
p179
I1
sS'expert'
p180
I2
sS'15+ year'
p181
I1
sS'review'
p182
I1
sS'ideate'
p183
I1
sS'case'
p184
I2
sS'3'
I1
sS'identification'
p185
I1
sS'conceptual'
p186
I1
sS'vertical'
p187
I1
sS'stakeholder'
p188
I1
sS'job'
p189
I1
sS'ranked'
p190
I1
sS'key'
p191
I2
sS'spark'
p192
I1
sS'come'
p193
I2
sS'improve'
p194
I1
sS'work.'
p195
I1
sS'career'
p196
I1
sS'possible.'
p197
I1
sS'contribution'
p198
I1
sS"app's"
p199
I1
sS'cb'
p200
I1
sS'ca'
p201
I1
sS'ga.'
p202
I1
sS'thought leadership'
p203
I1
sS'learning'
p204
I4
sS'fun.'
p205
I1
sS"aren't"
p206
I1
sS'create'
p207
I2
sS'hottest'
p208
I1
sS'prototype'
p209
I1
sS'define'
p210
I1
sS'//www.adp.com'
p211
I1
sS'applied'
p212
I1
sS'wfn'
p213
I4
sS'value'
p214
I1
sS'coupled'
p215
I1
sS'ready'
p216
I1
sS'meet.'
p217
I1
sS'capture'
p218
I1
sS'develop'
p219
I3
sS'etc'
p220
I1
sS'make'
p221
I2
sS'hadoop'
p222
I1
sS'complex'
p223
I2
sS'party'
p224
I1
sS'you.....'
p225
I1
sS'development'
p226
I3
sS'http'
p227
I1
sS'assist'
p228
I1
sS'workforce'
p229
I2
sVhand
p230
I1
sS'plan/timetables'
p231
I1
sS'database'
p232
I1
sS'analysis'
p233
I1
sS'deliverable'
p234
I1
sS'client'
p235
I2
sS'solve'
p236
I3
sS'position'
p237
I1
sS'model'
p238
I1
sS'paradigm'
p239
I1
sS'latest'
p240
I1
sS'nosql'
p241
I1
sS'executive'
p242
I1
sS'rest'
p243
I1
sS'i/o'
p244
I1
sS'data-visualization'
p245
I1
sS'identify'
p246
I1
sS'human'
p247
I3
sS'industry-leading'
p248
I1
sS'test.'
p249
I1
sS'web'
p250
I1
sS'adp'
p251
I3
sS'thinking'
p252
I1
sS'agile'
p253
I1
sS'r d'
p254
I1
sS'pasadena'
p255
I1
sS'location'
p256
I1
sS'data science'
p257
I2
sS'real'
p258
I3
sS'evaluate'
p259
I1
sS"who's"
p260
I1
sS'know'
p261
I2
sS'background'
p262
I1
sS'using'
p263
I1
sS'alpharetta'
p264
I1
sS'cognitive'
p265
I1
sS'benefit'
p266
I2
sS'become'
p267
I1
sS'conclusion.'
p268
I1
sS'people'
p269
I2
sS'absolutely'
p270
I1
sS'recommendation'
p271
I2
sS'competitor'
p272
I1
sS'integration'
p273
I1
sS'/'
I10
sS'creative'
p274
I1
sS'passion'
p275
I1
sS'market'
p276
I1
sS'provides'
p277
I1
sS'core'
p278
I1
sS'business'
p279
I5
sS'leadership'
p280
I1
sS'architectural'
p281
I1
sS'peer'
p282
I1
sS'optimize'
p283
I2
sS'world'
p284
I2
sS'industry'
p285
I1
sS'azure'
p286
I1
sS'software'
p287
I1
sS'within'
p288
I1
sS'functional'
p289
I1
sS'two'
p290
I1
sS'appropriate'
p291
I1
sS'support'
p292
I1
sS'question'
p293
I1
sS"we're"
p294
I3
sS'way'
p295
I1
sS'analyze'
p296
I2
sS'offering'
p297
I3
sS'offer'
p298
I1
sS'hr'
p299
I1
sS'cloud'
p300
I1
sS'doing.....'
p301
I1
sS'trying'
p302
I1
sS'hire'
p303
I1
sS'ecosystem'
p304
I1
sS'demonstrate'
p305
I1
sS'problem'
p306
I1
sS'computing'
p307
I1
sS'ai'
p308
I2
sS'globally'
p309
I1
sS'asynchronous'
p310
I1
sS'doers.'
p311
I1
sS'physical'
p312
I1
sS'nj'
p313
I1
sS'variety'
p314
I1
sS'hybrid'
p315
I1
sS'application'
p316
I6
sS'interested'
p317
I1
sS'role'
p318
I5
sS'digital'
p319
I1
sS'test'
p320
I2
sS'in.'
p321
I1
sS'audience'
p322
I1
sS'building'
p323
I1
sS'happier'
p324
I1
sS'algorithm'
p325
I3
sS"life's"
p326
I1
sS'together'
p327
I1
sS'depth'
p328
I1
sS'u'
I1
sS'serious'
p329
I1
s.