(dp1
S'skills'
p2
(lp3
S'soa'
p4
aS'owl'
p5
aS'soc'
p6
aS'r d'
p7
aS'ip'
p8
aS'thought leadership'
p9
aS'testing'
p10
aS'rest'
p11
aS'ant'
p12
aS'go'
p13
aS'business intelligence'
p14
aS'innovation'
p15
aS'angularjs'
p16
aS'sas'
p17
aS'ic'
p18
aS'research'
p19
aS'insurance'
p20
aS'scrum'
p21
aS'git'
p22
aS'java'
p23
aS'json'
p24
aS'scala'
p25
aS'user experience'
p26
aS'agile'
p27
aS'excel'
p28
aS'integration'
p29
aS'governance'
p30
aS'writing'
p31
aS'cell'
p32
aS'rf'
p33
aS'html'
p34
aS'computer science'
p35
aS'communication'
p36
aS'intelligence'
p37
aS'jenkins'
p38
aS'junit'
p39
aS'pl'
p40
aS'j2ee'
p41
aS'jquery'
p42
aS'hibernate'
p43
aS'product development'
p44
aS'spring'
p45
aS'javascript'
p46
aS'data scientist'
p47
aS'c'
aS'scalability'
p48
aS'github'
p49
aS'leadership'
p50
aS'html5'
p51
aS'sql'
p52
aS'data'
p53
aS'b2b'
p54
aS'a'
aS'maven'
p55
aS'search'
p56
aS'disaster recovery'
p57
aS'erp'
p58
aS'saas'
p59
aS'science'
p60
aS'engineering'
p61
aS'cro'
p62
aS'r'
aS'architecture'
p63
aS'oracle'
p64
aS'research development r d'
p65
aS'quality assurance'
p66
asS'working-year'
p67
(lp68
S'10 year'
p69
asS'major'
p70
(lp71
S'information'
p72
aS'business'
p73
aS'ee'
p74
aS'science'
p75
aS'engineering'
p76
aS'design'
p77
aS'computer science'
p78
aS'communication'
p79
aS'computer science engineering'
p80
aS'ee computer science'
p81
asS'education'
p82
(lp83
VBachelor
p84
aVMaster
p85
asS'responsibility'
p86
(lp87
S'development'
p88
aS'information'
p89
aS'product'
p90
aS'predict'
p91
aS'pattern'
p92
aVinsight
p93
aS'improvement'
p94
aS'design'
p95
aS'identify opportunity'
p96
aS'interface'
p97
aS'implement'
p98
as.