(dp1
S'skills'
p2
(lp3
S'owl'
p4
aS'consulting'
p5
aS'ip'
p6
aS'data science'
p7
aS'ant'
p8
aS'vis'
p9
aS'engineering'
p10
aS'go'
p11
aS'ic'
p12
aS'visualization'
p13
aS'management'
p14
aS'big data'
p15
aS'lua'
p16
aS'valuation'
p17
aS'predictive modeling'
p18
aS'information management'
p19
aS'governance'
p20
aS'strategy'
p21
aS'statistica'
p22
aS'rf'
p23
aS'computer science'
p24
aS'management consulting'
p25
aS'pl'
p26
aS'architecture'
p27
aS'informatica'
p28
aS'life sciences'
p29
aS'modeling'
p30
aS'data'
p31
aS'a'
aS'c'
aS'analytics'
p32
aS'science'
p33
aS'analysis'
p34
aS'machine learning'
p35
aS'data architecture'
p36
aS'r'
aS'financial services'
p37
aS'healthcare'
p38
aS'organization'
p39
aS'data analytics'
p40
asS'working-year'
p41
(lp42
S'0 year'
p43
asS'major'
p44
(lp45
S'information'
p46
aS'ece'
p47
aS'management'
p48
aS'business'
p49
aS'big data'
p50
aS'ee'
p51
aS'science'
p52
aS'data science'
p53
aS'information management'
p54
aS'machine learning'
p55
aS'analytics'
p56
aS'engineering'
p57
aS'computer science'
p58
aS'statistic'
p59
aS'life sciences'
p60
aS'data analytics'
p61
asS'education'
p62
(lp63
VMaster
p64
asS'responsibility'
p65
(lp66
S'development'
p67
aS'information'
p68
aS'predict'
p69
aS'analysis'
p70
aS'analytic'
p71
aS'report'
p72
aS'modeling'
p73
aS'implement'
p74
aS'evaluation'
p75
aS'model'
p76
as.