(dp1
S'existing'
p2
I1
sS'alien'
p3
I1
sVmanager
p4
I2
sS'integrity'
p5
I1
sS'content'
p6
I1
sS'everything'
p7
I1
sS'disability'
p8
I1
sS'solicit'
p9
I1
sS'cloud.'
p10
I1
sS'presentation'
p11
I1
sS'collaborate'
p12
I2
sS'risk'
p13
I1
sS'vsp/g1k'
p14
I1
sS'provider'
p15
I1
sS'enterprise-wide'
p16
I1
sS'responsibility.'
p17
I1
sS'every'
p18
I1
sS'govern'
p19
I1
sS'more.'
p20
I1
sS'level'
p21
I1
sS'gender'
p22
I1
sS'solution'
p23
I11
sS'race'
p24
I1
sS'excellence'
p25
I1
sS'team'
p26
I4
sS'enjoy'
p27
I1
sS'commvault'
p28
I1
sS'hitachi'
p29
I1
sS'cost'
p30
I1
sS'design'
p31
I6
sS'perspective'
p32
I1
sS'domain.'
p33
I1
sS'giving'
p34
I1
sS'current'
p35
I1
sS'consistently'
p36
I1
sS'template'
p37
I1
sS'conduct'
p38
I2
sS'new'
p39
I5
sS'ground'
p40
I1
sS'degree'
p41
I1
sS'non-job'
p42
I1
sS'understanding'
p43
I1
sS'protection'
p44
I3
sS'operating'
p45
I1
sS'others'
p46
I1
sS'100'
p47
I1
sS'strong'
p48
I2
sS'b2b'
p49
I1
sS'change'
p50
I1
sS'brilliant'
p51
I1
sS'experience'
p52
I7
sS'social'
p53
I1
sS'named'
p54
I2
sS'regardless'
p55
I1
sS'requiring'
p56
I1
sS'manage'
p57
I1
sS'highly'
p58
I1
sS'aimed'
p59
I1
sS'redefining'
p60
I1
sS'blueprints.'
p61
I1
sS'cloud'
p62
I1
sS'adp.'
p63
I1
sS'comprised'
p64
I1
sS'use'
p65
I1
sS'working'
p66
I2
sS"world's"
p67
I2
sS'asset'
p68
I1
sS'assessment'
p69
I1
sS'company'
p70
I4
sS'envelope'
p71
I1
sS'employees.'
p72
I1
sS'excellent'
p73
I1
sS'vmax'
p74
I1
sS'ibm'
p75
I1
sS'work'
p76
I2
sS'meet'
p77
I1
sS'scripting'
p78
I1
sS'admired'
p79
I1
sS"computerworld's"
p80
I1
sS'information'
p81
I1
sS'provide'
p82
I3
sS'travel'
p83
I1
sS'feature'
p84
I1
sS'vital'
p85
I1
sS'business planning'
p86
I1
sS'optimal'
p87
I1
sS'intelligent'
p88
I1
sS'product'
p89
I7
sS'goals.'
p90
I1
sS'productivity'
p91
I1
sS'data'
p92
I6
sS'platforms.'
p93
I1
sVresponsibility
p94
I1
sVsd
p95
I1
sS'r d'
p96
I1
sS'committed'
p97
I2
sS'fit'
p98
I1
sS'personal'
p99
I1
sS'platform'
p100
I1
sS'practice'
p101
I3
sS'scaling'
p102
I1
sS'framework'
p103
I2
sS'strategic'
p104
I3
sS'strive'
p105
I1
sS'capability'
p106
I2
sS'status'
p107
I2
sS'domain'
p108
I2
sS'mental'
p109
I1
sS'globe'
p110
I1
sS'v9000'
p111
I1
sS'related'
p112
I1
sS'marital'
p113
I1
sS'unlock'
p114
I1
sVoperation
p115
I1
sS'sexual'
p116
I1
sVnetwork
p117
I4
sS'research'
p118
I2
sS'increase'
p119
I1
sS'engineer'
p120
I2
sS'evaluation'
p121
I1
sS'associate'
p122
I1
sS'recoverability'
p123
I1
sS'provide leadership'
p124
I1
sS'million'
p125
I1
sS'data scientist'
p126
I1
sS'standard'
p127
I5
sS'interaction'
p128
I1
sS'launch'
p129
I1
sS'half-million'
p130
I1
sS'area'
p131
I2
sS'creates'
p132
I1
sVplace
p133
I1
sVqualification
p134
I2
sS'facilitate'
p135
I1
sS'first'
p136
I1
sS'origin'
p137
I1
sS'one'
p138
I5
sVarray
p139
I1
sS'direction.'
p140
I2
sS'management'
p141
I1
sS'service'
p142
I4
sS'leading'
p143
I1
sS'participates'
p144
I1
sS'system'
p145
I4
sS'approximately'
p146
I1
sS'xiv'
p147
I1
sS'insightful'
p148
I1
sS'exploring'
p149
I1
sS'it strategy'
p150
I2
sS'believe'
p151
I1
sS'10'
p152
I1
sS'require'
p153
I1
sS'project'
p154
I2
sS'future'
p155
I1
sS'architect'
p156
I4
sS"company's"
p157
I1
sS'providing'
p158
I1
sS'san'
p159
I3
sS'vision.'
p160
I1
sS'need'
p161
I1
sS'efficient'
p162
I1
sS'veteran'
p163
I1
sS'governs'
p164
I1
sS'potential'
p165
I1
sS'performance.'
p166
I1
sS'performance'
p167
I3
sS"bachelor's"
p168
I1
sS'multiple'
p169
I1
sS'object'
p170
I2
sS'plan'
p171
I1
sS'forever'
p172
I1
sS'gather'
p173
I1
sS'request'
p174
I1
sS'drive'
p175
I2
sS'security.'
p176
I1
sS'enterprise'
p177
I1
sS'professional'
p178
I1
sS"forbes'"
p179
I1
sS'emerging'
p180
I1
sS'a9000'
p181
I1
sS'certification'
p182
I2
sS'merit'
p183
I1
sS'bring'
p184
I1
sS'initiatives.'
p185
I1
sS'availability'
p186
I1
sS'principal'
p187
I2
sS'inspiring'
p188
I2
sS'based'
p189
I1
sS'guidance'
p190
I1
sS'operational'
p191
I1
sS'fuel'
p192
I1
sS'establishes'
p193
I1
sS'governance.'
p194
I1
sS'capital'
p195
I1
sS'overall'
p196
I1
sS'preferred'
p197
I2
sS'emc'
p198
I3
sS'architecture'
p199
I2
sS'pertains'
p200
I1
sS'vision'
p201
I1
sS'predictive'
p202
I1
sS'requirement'
p203
I2
sS'national'
p204
I1
sS'innovative'
p205
I3
sS'sex'
p206
I1
sS'enhanced'
p207
I2
sS'best'
p208
I4
sS'solutions.'
p209
I1
sS'expert'
p210
I2
sS'pattern'
p211
I1
sS'litech'
p212
I1
sS'written'
p213
I1
sS'protected'
p214
I1
sS'various'
p215
I1
sS'infrastructure'
p216
I4
sS'ability'
p217
I7
sS'stakeholder'
p218
I1
sS'deliver'
p219
I1
sS'scalability'
p220
I1
sS'efficiency'
p221
I2
sS'job'
p222
I1
sS'key'
p223
I1
sS'configuration'
p224
I1
sS'empowering'
p225
I1
sS'career'
p226
I1
sS'equal'
p227
I1
sS'workplace'
p228
I2
sS'focused'
p229
I1
sS'authoring'
p230
I1
sS'otherwise'
p231
I1
sS'color'
p232
I1
sS'cross-functional'
p233
I1
sS'isilon'
p234
I1
sS'tuning'
p235
I1
sS'create'
p236
I1
sS'strategy'
p237
I4
sS'genetic'
p238
I1
sS'maintenance'
p239
I1
sS'utilizing'
p240
I1
sS'define'
p241
I1
sS'life'
p242
I2
sS'diversity'
p243
I1
sS'success.'
p244
I1
sS'innovation.'
p245
I1
sS'deep'
p246
I1
sS'case'
p247
I1
sS'developing'
p248
I1
sS'value'
p249
I2
sS'technical'
p250
I1
sS'orientation'
p251
I1
sS'technology'
p252
I9
sS'develop'
p253
I3
sS'largest'
p254
I2
sS'10+ year'
p255
I1
sS'development'
p256
I4
sS'comprehensive'
p257
I1
sS'assist'
p258
I1
sS'driven'
p259
I1
sS'purpose'
p260
I1
sS'opportunity'
p261
I1
sS'identity'
p262
I1
sS'educating'
p263
I1
sS'analysis'
p264
I3
sS'person'
p265
I1
sS'client'
p266
I2
sS'coordinate'
p267
I1
sS'organization'
p268
I1
sS'latest'
p269
I2
sS'excel'
p270
I1
sS'human'
p271
I1
sS'skill'
p272
I2
sS'coordination'
p273
I1
sS'alignment'
p274
I3
sVdiscipline
p275
I1
sS'adp'
p276
I8
sS'possible.'
p277
I1
sS'forbes'
p278
I1
sS'input'
p279
I1
sS'netapp'
p280
I1
sS'vendor'
p281
I3
sS'around'
p282
I1
sS'background'
p283
I1
sS'deployment'
p284
I2
sS'world'
p285
I1
sS'advanced'
p286
I6
sS'fortune'
p287
I1
sS'identifying'
p288
I2
sS'reduces'
p289
I1
sS'continue'
p290
I1
sS'verbal'
p291
I1
sS'people'
p292
I1
sS'creed'
p293
I1
sS'successfully'
p294
I1
sS'recommendation'
p295
I3
sS'employment'
p296
I1
sS'broad'
p297
I1
sS'saas'
p298
I1
sS'integration'
p299
I2
sS'/'
I3
sS'religion'
p300
I1
sS'innovation'
p301
I2
sS'demonstrated'
p302
I1
sS'core'
p303
I1
sS'product development'
p304
I1
sS'business'
p305
I5
sS'65 year'
p306
I1
sS'communicate'
p307
I2
sS'bu'
p308
I1
sS'leadership'
p309
I2
sS'architectural'
p310
I1
sS'industry'
p311
I1
sS'recognized'
p312
I1
sS'magazine'
p313
I1
sS'ensure'
p314
I2
sS'status.'
p315
I1
sS'block'
p316
I2
sS'software'
p317
I3
sS'communication'
p318
I1
sS'lawful'
p319
I1
sVfabric
p320
I2
sS'retention/back-up'
p321
I1
sS'support'
p322
I1
sS'consultation'
p323
I1
sS'way'
p324
I2
sS'strategies.'
p325
I1
sS'blueprint'
p326
I1
sS'offer'
p327
I1
sS'reduce'
p328
I1
sS'regard'
p329
I1
sS'retention/backup'
p330
I1
sS'automated'
p331
I1
sS'teaming'
p332
I1
sS'promote'
p333
I1
sVcount
p334
I1
sS'compute'
p335
I1
sS'attached'
p336
I1
sS'inclusive'
p337
I1
sS'defined'
p338
I2
sVinfluence
p339
I1
sS'direction'
p340
I2
sS'proven'
p341
I4
sS'expertise'
p342
I2
sS'file'
p343
I1
sS'results-driven'
p344
I1
sS'physical'
p345
I1
sVna
p346
I2
sS'storage'
p347
I16
sS'power'
p348
I1
sS'application'
p349
I1
sS'setting'
p350
I1
sS'role'
p351
I1
sS'test'
p352
I1
sS'roadmap.'
p353
I1
sS'roadmaps'
p354
I2
sS'age'
p355
I1
sS'required'
p356
I2
sS'troubleshooting.'
p357
I1
sS'world-wide.'
p358
I1
sS'push'
p359
I1
s.