(dp1
S'skills'
p2
(lp3
S'soc'
p4
aS'r d'
p5
aS'communication'
p6
aS'integration'
p7
aS'ant'
p8
aS'vis'
p9
aS'engineering'
p10
aS'mysql'
p11
aS'go'
p12
aS'ic'
p13
aS'continuous improvement'
p14
aS'cassandra'
p15
aS'management'
p16
aS'java'
p17
aS'excel'
p18
aS'hadoop'
p19
aS'research'
p20
aS'cell'
p21
aS'rf'
p22
aS'oracle sql'
p23
aS'computer science'
p24
aS'visio'
p25
aS'pl'
p26
aS'envi'
p27
aS'product development'
p28
aS'python'
p29
aS'mongodb'
p30
aS'innovation'
p31
aS'data scientist'
p32
aS'c'
aS'automation'
p33
aS'oop'
p34
aS'sql'
p35
aS'data'
p36
aS'b2b'
p37
aS'a'
aS'search'
p38
aS'cloudera'
p39
aS'erp'
p40
aS'saas'
p41
aS'sql server'
p42
aS'science'
p43
aS'programming'
p44
aS'c++'
p45
aS'r'
aS'architecture'
p46
aS'oracle'
p47
aS'organization'
p48
aS'cro'
p49
aS'education'
p50
asS'working-year'
p51
(lp52
S'5+ year'
p53
aS'65 year'
p54
asS'major'
p55
(lp56
S'information'
p57
aS'management'
p58
aS'business'
p59
aS'ee'
p60
aS'science'
p61
aS'automation'
p62
aS'engineering'
p63
aS'design'
p64
aS'computer science'
p65
aS'communication'
p66
aS'law'
p67
aVphysic
p68
asS'education'
p69
(lp70
VBachelor
p71
aVMaster
p72
asS'responsibility'
p73
(lp74
S'development'
p75
aS'information'
p76
aS'product'
p77
aS'predict'
p78
aVinsight
p79
aS'improvement'
p80
aS'understand'
p81
aS'design'
p82
aS'implement'
p83
as.