(dp1
S'skills'
p2
(lp3
S'owl'
p4
aS'r d'
p5
aS'ip'
p6
aS'ant'
p7
aS'problem solving'
p8
aS'ic'
p9
aS'strategy'
p10
aS'change management'
p11
aS'management'
p12
aS'agile'
p13
aS'excel'
p14
aS'rf'
p15
aS'research'
p16
aS'cell'
p17
aS'risk management'
p18
aS'coaching'
p19
aS'sdlc'
p20
aS'communication'
p21
aS'pl'
p22
aS'a'
aS'scrum'
p23
aS'product development'
p24
aS'innovation'
p25
aS'data scientist'
p26
aS'c'
aS'water'
p27
aS'leadership'
p28
aS'envi'
p29
aS'data'
p30
aS'b2b'
p31
aS'project management'
p32
aS'software development'
p33
aS'search'
p34
aS'saas'
p35
aS'erp'
p36
aS'continuous improvement'
p37
aS'r'
aS'organization'
p38
aS'cro'
p39
aS'sd'
p40
asS'working-year'
p41
(lp42
S'5-8 year'
p43
aS'2+ year'
p44
aS'8 year'
p45
asS'major'
p46
(lp47
S'management'
p48
aS'business'
p49
aS'ee'
p50
aS'communication'
p51
aS'communications'
p52
aS'project management'
p53
asS'education'
p54
(lp55
VBachelor
p56
aVMaster
p57
asS'responsibility'
p58
(lp59
S'development'
p60
aS'product'
p61
aS'predict'
p62
aS'improvement'
p63
aS'understand'
p64
aS'report'
p65
as.