(dp1
S'web applications'
p2
I1
sS'react'
p3
I1
sS'services.'
p4
I1
sS'3+ year'
p5
I2
sS'bring'
p6
I1
sS'spring mvc'
p7
I1
sS'committed'
p8
I1
sS'responsive'
p9
I4
sS'follow'
p10
I1
sS'integrity'
p11
I1
sS'perfect'
p12
I1
sS'web'
p13
I1
sS'inspiring'
p14
I2
sS'based'
p15
I2
sS'knowledge'
p16
I1
sS'adp'
p17
I2
sS'possible.'
p18
I1
sS'agile'
p19
I1
sS'base'
p20
I1
sS'subversion'
p21
I1
sS'platform'
p22
I1
sS'add'
p23
I1
sS'vital'
p24
I1
sS'life-cycle'
p25
I1
sS'customer'
p26
I1
sS'reactjs.'
p27
I1
sS'practice'
p28
I1
sS'overall'
p29
I1
sS'scalable'
p30
I2
sS'required.'
p31
I1
sS'responsibility.'
p32
I1
sS'de-coupled'
p33
I1
sS'framework'
p34
I3
sS'working'
p35
I4
sS'every'
p36
I1
sS'closely'
p37
I2
sS'front'
p38
I4
sS'using'
p39
I3
sS'more.'
p40
I1
sS'one'
p41
I2
sS'strive'
p42
I1
sS'execute'
p43
I1
sS'identifying'
p44
I1
sS'performing'
p45
I1
sS'solution'
p46
I2
sS'calling'
p47
I1
sS'qa'
p48
I1
sS'continue'
p49
I1
sS'excellence'
p50
I1
sS'architecture'
p51
I2
sS'team'
p52
I4
sS'qualifcations'
p53
I1
sS'ie'
p54
I1
sS'page'
p55
I1
sS'enjoy'
p56
I1
sS'predictive'
p57
I1
sS'requirement'
p58
I1
sS'version'
p59
I1
sS'people'
p60
I1
sS'user experience'
p61
I1
sS'innovative'
p62
I1
sS'unlock'
p63
I1
sS'design'
p64
I4
sS'interface.'
p65
I1
sS'component'
p66
I1
sS'sprint'
p67
I1
sS'best'
p68
I2
sS'product development'
p69
I1
sS'large'
p70
I1
sS'degree'
p71
I1
sS'expert'
p72
I1
sS'b.s.'
p73
I1
sS'saas'
p74
I1
sS'integration'
p75
I2
sS'research'
p76
I1
sS'everything'
p77
I1
sS"api's"
p78
I1
sS'owning'
p79
I1
sS'sdlc'
p80
I1
sS'innovation'
p81
I2
sS'ui'
p82
I1
sS'backend'
p83
I3
sS'core'
p84
I1
sS'infrastructure'
p85
I1
sS'java-based'
p86
I1
sS'creating'
p87
I1
sS'business'
p88
I1
sS'superior'
p89
I1
sS'data scientist'
p90
I1
sS'equivalent'
p91
I1
sS'million'
p92
I1
sS'deliver'
p93
I3
sS'delivering'
p94
I1
sS'highly'
p95
I1
sS'apis'
p96
I2
sS'git'
p97
I1
sS'operating'
p98
I1
sS'interface'
p99
I1
sS'100'
p100
I1
sS'b2b'
p101
I1
sS'change'
p102
I1
sS'software'
p103
I4
sS'session'
p104
I1
sS'empowering'
p105
I1
sS'interaction'
p106
I1
sS'talented'
p107
I1
sS'career'
p108
I1
sS'etc.'
p109
I1
sS'industry'
p110
I1
sS'on-time.'
p111
I2
sS'experience'
p112
I13
sS'participating'
p113
I1
sS'implementation'
p114
I1
sS'mvc'
p115
I3
sVplace
p116
I1
sS'workplace'
p117
I1
sS'social'
p118
I1
sS'mentoring'
p119
I1
sS'implement'
p120
I1
sS'ensure'
p121
I1
sS'top'
p122
I2
sS'first'
p123
I1
sS'front-end'
p124
I1
sS'named'
p125
I1
sS'7+ year'
p126
I1
sS'equivalents.'
p127
I1
sS'manage'
p128
I1
sS'primary'
p129
I1
sS'comprised'
p130
I1
sS'api'
p131
I2
sS'redefining'
p132
I1
sS'quality'
p133
I2
sS'cloud'
p134
I1
sS'engineer'
p135
I7
sS'management'
p136
I1
sS'java'
p137
I2
sS'service'
p138
I1
sS'leading'
p139
I3
sS'create'
p140
I1
sS"world's"
p141
I1
sS'tightly'
p142
I1
sS'guideline'
p143
I1
sS'asset'
p144
I1
sS'way'
p145
I2
sS'utilizing'
p146
I1
sS'improve'
p147
I1
sS're-usuable'
p148
I1
sS'insightful'
p149
I1
sS'exploring'
p150
I1
sS'life'
p151
I2
sS'testing'
p152
I1
sS'offer'
p153
I1
sS'company'
p154
I2
sS'envelope'
p155
I1
sS'employees.'
p156
I1
sS'automated'
p157
I1
sS'webservices.'
p158
I1
sVcount
p159
I1
sS'join'
p160
I1
sS'software engineering'
p161
I2
sS'full'
p162
I1
sS'work'
p163
I3
sS'single'
p164
I1
sS'value'
p165
I1
sS'act'
p166
I1
sS'brilliant'
p167
I1
sS'future'
p168
I1
sS'architect'
p169
I2
sS'three'
p170
I1
sS'product management'
p171
I1
sS'define'
p172
I2
sS'restful'
p173
I2
sS'application development'
p174
I1
sS'control'
p175
I1
sS'dedicated'
p176
I1
sS'plus'
p177
I1
sS'user interface'
p178
I1
sS'adp.'
p179
I1
sS'coupled'
p180
I1
sS'architecture.'
p181
I1
sS'experience.'
p182
I2
sS'restful webservices'
p183
I1
sS'science/engineering'
p184
I1
sS'minimum'
p185
I2
sS'expertise'
p186
I1
sS'unit testing'
p187
I1
sS'spa'
p188
I2
sS'plan'
p189
I1
sS'results-driven'
p190
I1
sS'technology'
p191
I3
sS'deliverable'
p192
I2
sS'end'
p193
I4
sS'assure'
p194
I1
sS'day-to-day'
p195
I1
sS"computerworld's"
p196
I1
sS'responsible'
p197
I1
sS'-'
I2
sS'application architecture'
p198
I1
sS'application'
p199
I1
sS'methodology'
p200
I1
sS'potential'
p201
I1
sS'develop/test/build/deploy/etc.'
p202
I1
sS'computer science'
p203
I2
sS'largest'
p204
I1
sS'applications.'
p205
I1
sS'intelligent'
p206
I1
sS'development'
p207
I2
sS'product'
p208
I2
sS'reactjs'
p209
I1
sS'heads-down'
p210
I1
sS'hand'
p211
I1
sS'driven'
p212
I1
sS'moving'
p213
I1
sS'user'
p214
I2
sS'tier'
p215
I1
sS'robust'
p216
I2
sS'planning'
p217
I1
sS'forever'
p218
I1
sS'task'
p219
I1
sS'lead'
p220
I1
sS'jasmine'
p221
I1
sS'enthusiastic'
p222
I1
sS'required'
p223
I1
sS'drive'
p224
I1
sS'analysis'
p225
I1
sS'traditional'
p226
I1
sS'person'
p227
I1
sVresponsibility
p228
I2
sS'karma'
p229
I1
sS'stakeholder'
p230
I2
sS'time'
p231
I1
sS'push'
p232
I1
sS'latest'
p233
I2
sS'technical'
p234
I2
sS"forbes'"
p235
I1
s.