(dp1
S'concept'
p2
I2
sS'focus'
p3
I1
sS'existing'
p4
I1
sVmanager
p5
I3
sS'integrity'
p6
I1
sS'solicit'
p7
I1
sS'case'
p8
I1
sS'collaborate'
p9
I1
sS'infoblox'
p10
I1
sS'enterprise-wide'
p11
I1
sS'responsibility.'
p12
I2
sS'balancing'
p13
I1
sS'govern'
p14
I1
sS'more.'
p15
I1
sS'level'
p16
I2
sS'solution'
p17
I5
sS'large'
p18
I1
sS'excellence'
p19
I1
sS'team'
p20
I2
sS'enhance'
p21
I1
sS'enjoy'
p22
I1
sS'direction.'
p23
I1
sS'chef'
p24
I1
sS'design'
p25
I4
sS'portfolio'
p26
I1
sS'investment'
p27
I1
sS'established'
p28
I1
sS'current'
p29
I2
sS'conduct'
p30
I1
sS'new'
p31
I6
sS'degree'
p32
I1
sS'understanding'
p33
I3
sS'operating'
p34
I1
sS'address'
p35
I1
sS'100'
p36
I1
sS'strong'
p37
I1
sS'b2b'
p38
I1
sS'change'
p39
I3
sS'brilliant'
p40
I1
sS'experience'
p41
I6
sS'social'
p42
I1
sS'named'
p43
I1
sS'followed'
p44
I1
sS'requiring'
p45
I1
sS'manage'
p46
I3
sS'highly'
p47
I1
sS'redefining'
p48
I1
sS'blueprints.'
p49
I1
sS'cloud'
p50
I2
sS'comprised'
p51
I1
sS'use'
p52
I1
sS'would'
p53
I1
sS"world's"
p54
I1
sS'asset'
p55
I1
sS'recommend'
p56
I1
sS'scope'
p57
I2
sS'company'
p58
I2
sS'envelope'
p59
I1
sS'employees.'
p60
I1
sS'business process'
p61
I1
sS'excellent'
p62
I1
sS'vpn'
p63
I1
sS'must'
p64
I3
sS'challenge'
p65
I1
sS'work'
p66
I3
sS"api's"
p67
I1
sS'fulfill'
p68
I1
sS'example'
p69
I1
sS'scripting'
p70
I2
sS'control'
p71
I1
sS'activities.'
p72
I1
sS"computerworld's"
p73
I1
sS'information'
p74
I1
sS'provide'
p75
I2
sS'travel'
p76
I1
sS'vital'
p77
I1
sS'business planning'
p78
I1
sS'intelligent'
p79
I1
sS'product'
p80
I5
sS'goals.'
p81
I1
sS'choice'
p82
I1
sS'paas'
p83
I1
sS'switch'
p84
I1
sS'maintain'
p85
I1
sVresponsibility
p86
I2
sS'every'
p87
I1
sS"forbes'"
p88
I1
sS'r d'
p89
I1
sS'flows.'
p90
I1
sS'committed'
p91
I1
sS'group'
p92
I1
sS'fit'
p93
I1
sS'platform'
p94
I2
sS'python'
p95
I1
sS'practice'
p96
I1
sS'framework'
p97
I1
sS'strategic'
p98
I3
sS'strive'
p99
I1
sS'heavy'
p100
I1
sS'status'
p101
I1
sS'unlock'
p102
I1
sVoperation
p103
I3
sS'network'
p104
I3
sS'research'
p105
I1
sS'looking'
p106
I1
sS'evaluation'
p107
I1
sS'integrated'
p108
I1
sS'recoverability'
p109
I1
sS'ntp'
p110
I1
sS'million'
p111
I1
sS'data scientist'
p112
I1
sS'standard'
p113
I3
sS'proxy'
p114
I2
sS'quo'
p115
I1
sS'interaction'
p116
I1
sVplace
p117
I1
sVqualification
p118
I1
sS'router'
p119
I1
sS'facilitate'
p120
I2
sS'first'
p121
I1
sS'dns/dhcp'
p122
I1
sS'7+ year'
p123
I1
sS'one'
p124
I2
sS'quality'
p125
I1
sS'engineer'
p126
I2
sS'management'
p127
I1
sS'service'
p128
I5
sS'leading'
p129
I1
sS'participates'
p130
I1
sViaa
p131
I1
sS'system'
p132
I3
sS'approximately'
p133
I1
sS'system architecture'
p134
I1
sS'operating systems'
p135
I1
sS'insightful'
p136
I1
sS'exploring'
p137
I1
sS'it strategy'
p138
I2
sS'wide'
p139
I1
sS'project'
p140
I3
sS'future'
p141
I1
sS'architect'
p142
I3
sS'providing'
p143
I2
sS'exhibit'
p144
I1
sS'vision.'
p145
I1
sS'teams.'
p146
I1
sS'need'
p147
I2
sS'efficient'
p148
I2
sS'responsible'
p149
I2
sS'able'
p150
I1
sS'majority'
p151
I1
sS'potential'
p152
I1
sS'build'
p153
I1
sS'performance'
p154
I1
sS"bachelor's"
p155
I1
sS'governs'
p156
I1
sS'plan'
p157
I1
sS'position'
p158
I1
sS'methodologies.'
p159
I1
sS'forever'
p160
I1
sS'gather'
p161
I1
sS'request'
p162
I3
sS'security.'
p163
I1
sS'enterprise'
p164
I2
sS'certification'
p165
I2
sS'bring'
p166
I1
sS'initiatives.'
p167
I1
sS'availability'
p168
I1
sS'inspiring'
p169
I2
sS'knowledge'
p170
I2
sS'delivery.'
p171
I1
sS'ms office suite'
p172
I1
sS'netscout'
p173
I1
sS'10'
p174
I1
sS'preferred'
p175
I1
sS'closely'
p176
I1
sS'resolve'
p177
I1
sS'vision'
p178
I1
sS'predictive'
p179
I1
sS'requirement'
p180
I1
sS'innovative'
p181
I2
sS'packet'
p182
I2
sS'enhanced'
p183
I2
sS'needs.'
p184
I1
sS'best'
p185
I2
sS'expert'
p186
I2
sS'request.'
p187
I1
sS'pattern'
p188
I1
sS'preferred.'
p189
I1
sS'written'
p190
I1
sS'various'
p191
I1
sS'across'
p192
I1
sS'infrastructure'
p193
I5
sS'ability'
p194
I8
sS'stakeholder'
p195
I1
sS'deliver'
p196
I1
sS'scalability'
p197
I1
sS'html5'
p198
I1
sS'key'
p199
I2
sS'configuration'
p200
I1
sS'empowering'
p201
I1
sS'candidate'
p202
I1
sS'career'
p203
I1
sS'annual'
p204
I1
sS'workplace'
p205
I1
sS'duty'
p206
I1
sS'firewall'
p207
I2
sS'cb'
p208
I1
sS'cross-functional'
p209
I1
sS'create'
p210
I1
sS'utilizing'
p211
I2
sS'firm'
p212
I1
sS'life'
p213
I3
sS'understand'
p214
I1
sS'external'
p215
I1
sS'applied'
p216
I1
sS'operationally.'
p217
I1
sS'developing'
p218
I1
sS'value'
p219
I1
sS'technical'
p220
I4
sS'procedure'
p221
I1
sS'adp.'
p222
I1
sS'architecture.'
p223
I1
sS'player'
p224
I1
sS'technology'
p225
I19
sS'capture'
p226
I1
sS'different'
p227
I1
sS'develop'
p228
I3
sS'complex'
p229
I1
sS'largest'
p230
I1
sS'development'
p231
I4
sS'vis-a-vis'
p232
I1
sS'assist'
p233
I1
sS'negotiate'
p234
I1
sS'automation'
p235
I1
sS'driven'
p236
I1
sS'purpose'
p237
I1
sS'made.'
p238
I1
sS'cycle'
p239
I1
sS'well'
p240
I2
sS'analysis'
p241
I3
sS'person'
p242
I1
sS'client'
p243
I3
sS'coordinate'
p244
I1
sS'organization'
p245
I1
sS'gso'
p246
I1
sS'latest'
p247
I2
sS'assigned'
p248
I2
sS'aspect'
p249
I1
sS'skill'
p250
I3
sS'alignment'
p251
I1
sVdiscipline
p252
I1
sS'adp'
p253
I2
sS'application'
p254
I2
sS'possible.'
p255
I1
sS'desktop'
p256
I1
sS'input'
p257
I1
sS'extensive'
p258
I1
sS'dns/dhcp.'
p259
I1
sS'python.'
p260
I1
sS'vendor'
p261
I4
sS'evaluate'
p262
I1
sS'collaboratively'
p263
I1
sS'capture.'
p264
I1
sS'using'
p265
I2
sS'advanced'
p266
I1
sS'identifying'
p267
I1
sS'server'
p268
I1
sS'specific'
p269
I2
sS'continue'
p270
I1
sS'maximize'
p271
I1
sS'verbal'
p272
I1
sS'people'
p273
I1
sS'creation'
p274
I1
sS'urgent'
p275
I1
sS'recommendation'
p276
I3
sS'broad'
p277
I1
sS'saas'
p278
I1
sS'integration'
p279
I1
sS'/'
I3
sS'everything'
p280
I1
sS'innovation'
p281
I2
sS'demonstrated'
p282
I2
sS'core'
p283
I1
sS'product development'
p284
I1
sS'business'
p285
I6
sS'communicate'
p286
I1
sS'bu'
p287
I1
sS'leadership'
p288
I3
sS'architectural'
p289
I2
sS'proven'
p290
I5
sS'industry'
p291
I1
sS'ensure'
p292
I3
sS'powerpoint'
p293
I1
sS'software'
p294
I1
sS'communication'
p295
I1
sS'appropriate'
p296
I1
sS'primarily'
p297
I1
sS'technically'
p298
I1
sS'area'
p299
I1
sS'support'
p300
I4
sS'systems.'
p301
I2
sS'way'
p302
I2
sS'blueprint'
p303
I1
sS'successfully'
p304
I1
sS'offer'
p305
I1
sS'visio'
p306
I1
sS'sophisticated'
p307
I1
sS'wireless'
p308
I1
sS'automated'
p309
I2
sS'teaming'
p310
I1
sS'promote'
p311
I1
sVcount
p312
I1
sS'also'
p313
I1
sS'applying'
p314
I1
sS'record'
p315
I1
sS'defined'
p316
I1
sVm
I1
sVinfluence
p317
I1
sS'direction'
p318
I1
sS'deep'
p319
I1
sS'ddos'
p320
I2
sS'expertise'
p321
I2
sS'results-driven'
p322
I1
sS'technologies.'
p323
I1
sS'field'
p324
I1
sS'setting'
p325
I1
sS'roadmap.'
p326
I1
sS'technology management'
p327
I1
sS'roadmaps'
p328
I1
sS'functions.'
p329
I1
sS'required'
p330
I2
sS'push'
p331
I1
s.