(dp1
S'skills'
p2
(lp3
S'digital marketing'
p4
aS'reporting analysis'
p5
aS'r d'
p6
aS'powerpoint'
p7
aS'attribution modeling'
p8
aS'ip'
p9
aS'microsoft excel'
p10
aS'testing'
p11
aS'communication'
p12
aS'ant'
p13
aS'analytics'
p14
aS'business intelligence'
p15
aS'data analysis'
p16
aS'analysis'
p17
aS'go'
p18
aS'modeling'
p19
aS'account management'
p20
aS'ic'
p21
aS'direct marketing'
p22
aS'vba'
p23
aS'regression'
p24
aS'git'
p25
aS'java'
p26
aS'optimization'
p27
aS'excel'
p28
aS'envi'
p29
aS'dsp'
p30
aS'strategy'
p31
aS'cell'
p32
aS'omniture'
p33
aS'rf'
p34
aS'html'
p35
aS'campaign management'
p36
aS'computer science'
p37
aS'visio'
p38
aS'intelligence'
p39
aS'data management'
p40
aS'advertising'
p41
aS'asp'
p42
aS'management'
p43
aS'python'
p44
aS'marketing'
p45
aS'javascript'
p46
aS'data scientist'
p47
aS'c'
aS'metrics'
p48
aS'web analytics'
p49
aS'sql'
p50
aS'client presentation'
p51
aS'word'
p52
aS'data'
p53
aS'a'
aS'training'
p54
aS'data collection'
p55
aS'erp'
p56
aS'vis'
p57
aS'science'
p58
aS'regression analysis'
p59
aS'business strategy'
p60
aS'communication skills'
p61
aS'cro'
p62
aS'owl'
p63
aS'google analytics'
p64
aS'problem solving'
p65
aS'r'
aS'dashboard'
p66
aS'customer acquisition'
p67
aS'pl'
p68
aS'data analytics'
p69
asS'working-year'
p70
(lp71
S'3+ year'
p72
aS'3+ years'
p73
asS'major'
p74
(lp75
S'information'
p76
aS'ece'
p77
aS'management'
p78
aS'business'
p79
aS'ee'
p80
aS'marketing'
p81
aS'communication'
p82
aS'analytics'
p83
aS'design'
p84
aS'computer science'
p85
aS'statistic'
p86
aS'data analytics'
p87
aS'science'
p88
asS'education'
p89
(lp90
VBachelor
p91
aVMaster
p92
asS'responsibility'
p93
(lp94
S'modeling'
p95
aS'large data set'
p96
aS'product'
p97
aS'data analysis'
p98
aS'information'
p99
aVinsight
p100
aS'model'
p101
aS'analysis'
p102
aS'analytic'
p103
aS'data collection'
p104
aS'design'
p105
aS'recommendation'
p106
aS'report'
p107
aS'understand'
p108
aS'implement'
p109
aS'presentation'
p110
aS'optimization'
p111
as.