(dp1
S'skills'
p2
(lp3
S'nlp'
p4
aS'oncology'
p5
aS'r d'
p6
aS'nosql'
p7
aS'psychometrics'
p8
aS'systems biology'
p9
aS'go'
p10
aS'd3'
p11
aS'visualization'
p12
aS'agile'
p13
aS'statistics'
p14
aS'matlab'
p15
aS'signal processing'
p16
aS'python'
p17
aS'sequencing'
p18
aS'mercurial'
p19
aS'hive'
p20
aS'sql'
p21
aS'cognition'
p22
aS'intelligence'
p23
aS'analytics'
p24
aS'c++'
p25
aS'sem'
p26
aS'arm'
p27
aS'genetics'
p28
aS'scala'
p29
aS'information management'
p30
aS'research'
p31
aS'cell'
p32
aS'rf'
p33
aS'medicine'
p34
aS'biology'
p35
aS'distributed computing'
p36
aS'product development'
p37
aS'linguistics'
p38
aS'processing'
p39
aS'data scientist'
p40
aS'management'
p41
aS'biomarkers'
p42
aS'informatics'
p43
aS'modeling'
p44
aS'spark'
p45
aS'software development'
p46
aS'c'
aS'programming'
p47
aS'clojure'
p48
aS'rapid prototyping'
p49
aS'owl'
p50
aS'characterization'
p51
aS'communication'
p52
aS'robotics'
p53
aS'population genetics'
p54
aS'julia'
p55
aS'vis'
p56
aS'unix'
p57
aS'linux'
p58
aS'mathematical modeling'
p59
aS'git'
p60
aS'java'
p61
aS'statistica'
p62
aS'pl'
p63
aS'search'
p64
aS'knowledge representation'
p65
aS'oop'
p66
aS'translation'
p67
aS'life sciences'
p68
aS'science'
p69
aS'machine learning'
p70
aS'r'
aS'operations research'
p71
aS'pig'
p72
aS'ant'
p73
aS'engineering'
p74
aS'ic'
p75
aS'mathematica'
p76
aS'excel'
p77
aS'hadoop'
p78
aS'computer science'
p79
aS'aws'
p80
aS'biophysics'
p81
aS'metrics'
p82
aS'bioinformatics'
p83
aS'neuroscience'
p84
aS'data'
p85
aS'a'
aS'pattern recognition'
p86
aS'algorithms'
p87
aS'healthcare'
p88
aS'physics'
p89
asS'working-year'
p90
(lp91
S'0 year'
p92
asS'major'
p93
(lp94
S'computing'
p95
aS'ee'
p96
aS'communication'
p97
aS'robotics'
p98
aS'biology'
p99
aS'analytics'
p100
aS'engineering'
p101
aS'statistic'
p102
aS'information'
p103
aS'management'
p104
aS'genetics'
p105
aS'information management'
p106
aS'neuroscience'
p107
aS'computer science'
p108
aS'medicine'
p109
aS'operations research'
p110
aS'ece'
p111
aS'linguistics'
p112
aS'phd'
p113
aS'statistical genetics'
p114
aS'bioinformatics'
p115
aS'informatics'
p116
aS'statistics'
p117
aS'biophysics'
p118
aVphysic
p119
aS'life sciences'
p120
aS'science'
p121
aS'machine learning'
p122
aS'physics'
p123
aS'medical informatics'
p124
asS'education'
p125
(lp126
VBachelor
p127
aVMaster
p128
aVDoctor
p129
asS'responsibility'
p130
(lp131
S'development'
p132
aS'information'
p133
aS'product'
p134
aS'processing'
p135
aS'predict'
p136
aS'presentation'
p137
aVinsight
p138
aS'analytic'
p139
aS'statistical method'
p140
aS'solve problem'
p141
aS'pattern'
p142
aS'interface'
p143
aS'modeling'
p144
aS'model'
p145
aS'extract'
p146
as.