(dp1
S'skills'
p2
(lp3
S'research design'
p4
aS'owl'
p5
aS'r d'
p6
aS'ip'
p7
aS'data science'
p8
aS'sales'
p9
aS'tableau'
p10
aS'ant'
p11
aS'analytics'
p12
aS'statistical analysis'
p13
aS'go'
p14
aS'data mining'
p15
aS'sas'
p16
aS'ic'
p17
aS'strategy'
p18
aS'arm'
p19
aS'access'
p20
aS'powerpoint'
p21
aS'mathematica'
p22
aS'excel'
p23
aS'hadoop'
p24
aS'research'
p25
aS'cell'
p26
aS'statistica'
p27
aS'optimization'
p28
aS'teamwork'
p29
aS'communication'
p30
aS'advanced analytics'
p31
aS'pl'
p32
aS'simulation'
p33
aS'processing'
p34
aS'python'
p35
aS'marketing'
p36
aS'collaboration'
p37
aS'innovation'
p38
aS'data scientist'
p39
aS'c'
aS'customer analysis'
p40
aS'oop'
p41
aS'spotfire'
p42
aS'word'
p43
aS'data'
p44
aS'a'
aS'search'
p45
aS'data collection'
p46
aS'erp'
p47
aS'science'
p48
aS'analysis'
p49
aS'machine learning'
p50
aS'r'
aS'healthcare'
p51
aS'organization'
p52
aS'cro'
p53
aS'predictive analytics'
p54
asS'working-year'
p55
(lp56
S'3 years'
p57
aS'3+ years'
p58
asS'major'
p59
(lp60
S'science'
p61
aS'information'
p62
aS'ece'
p63
aS'business'
p64
aS'analytics'
p65
aS'ee'
p66
aS'marketing'
p67
aS'data science'
p68
aS'statistic'
p69
aVapplied statistic
p70
aS'machine learning'
p71
aS'analytics data science'
p72
aS'communication'
p73
aS'design'
p74
aS'data mining'
p75
aS'advanced analytics'
p76
aS'data mining machine learning'
p77
aS'law'
p78
aS'predictive analytics'
p79
asS'education'
p80
(lp81
VBachelor
p82
aVMaster
p83
aVDoctor
p84
asS'responsibility'
p85
(lp86
S'information'
p87
aS'product'
p88
aS'processing'
p89
aS'predict'
p90
aVinsight
p91
aS'communicate'
p92
aS'analysis'
p93
aS'simulation'
p94
aS'analytic'
p95
aS'data collection'
p96
aS'design'
p97
aS'solve problem'
p98
aS'data mining'
p99
aS'report'
p100
aS'implement'
p101
aS'optimization'
p102
aS'decision-making'
p103
as.