(dp1
S'skills'
p2
(lp3
S'nlp'
p4
aS'soc'
p5
aS'r d'
p6
aS'nosql'
p7
aS'owl'
p8
aS'ip'
p9
aS'data science'
p10
aS'linux'
p11
aS'intelligence analysis'
p12
aS'hadoop'
p13
aS'analytics'
p14
aS'business intelligence'
p15
aS'defense'
p16
aS'security clearance'
p17
aS'go'
p18
aS'data mining'
p19
aS'sas'
p20
aS'neo4j'
p21
aS'ic'
p22
aS'education'
p23
aS'data analysis'
p24
aS'xml'
p25
aS'visualization'
p26
aS'management'
p27
aS'json'
p28
aS'aerospace'
p29
aS'anomaly detection'
p30
aS'asic'
p31
aS'ssis'
p32
aS'writing'
p33
aS'statistica'
p34
aS'rf'
p35
aS'computer science'
p36
aS'natural language processing'
p37
aS'intelligence'
p38
aS'algorithm development'
p39
aS'integration'
p40
aS'data management'
p41
aS'clustering'
p42
aS'processing'
p43
aS'envi'
p44
aS'vis'
p45
aS'government'
p46
aS'python'
p47
aS'visio'
p48
aS'data scientist'
p49
aS'c'
aS'information security'
p50
aS'oop'
p51
aS'statistical modeling'
p52
aS'sql'
p53
aS'modeling'
p54
aS'data'
p55
aS'information technology'
p56
aS'a'
aS'search'
p57
aS'erp'
p58
aS'data visualization'
p59
aS'risk assessment'
p60
aS'cluster'
p61
aS'cognition'
p62
aS'pattern recognition'
p63
aS'dod'
p64
aS'machine learning'
p65
aS'r'
aS'elasticsearch'
p66
aS'pl'
p67
aS'science'
p68
aS'security'
p69
aS'analysis'
p70
aS'data analytics'
p71
aS'predictive analytics'
p72
asS'working-year'
p73
(lp74
S'2 years'
p75
aS'four year'
p76
aS'1 year'
p77
asS'major'
p78
(lp79
S'information'
p80
aS'ece'
p81
aS'management'
p82
aS'business'
p83
aS'ee'
p84
aS'science'
p85
aS'data science'
p86
aS'data mining'
p87
aS'statistic'
p88
aS'machine learning'
p89
aS'analytics'
p90
aS'design'
p91
aS'information technology'
p92
aS'phd'
p93
aS'natural language processing'
p94
aS'computer science'
p95
aS'machine learning data mining'
p96
aS'data analytics'
p97
aS'predictive analytics'
p98
asS'education'
p99
(lp100
VBachelor
p101
aVMaster
p102
aVDoctor
p103
asS'responsibility'
p104
(lp105
S'development'
p106
aS'large data set'
p107
aVinsight
p108
aS'information'
p109
aS'predict'
p110
aS'pattern'
p111
aS'processing'
p112
aS'analysis'
p113
aS'statistical model'
p114
aS'analytic'
p115
aS'data analysis'
p116
aS'design'
p117
aS'data aggregation'
p118
aS'data mining'
p119
aS'understand'
p120
aS'modeling'
p121
aS'extract'
p122
aS'model'
p123
aS'decision-making'
p124
as.