(dp1
S'skills'
p2
(lp3
S'insurance'
p4
aS'owl'
p5
aS'soc'
p6
aS'r d'
p7
aS'biostatistics'
p8
aS'ip'
p9
aS'data science'
p10
aS'data analysis'
p11
aS'causal inference'
p12
aS'eviews'
p13
aS'ant'
p14
aS'analytics'
p15
aS'business intelligence'
p16
aS'management'
p17
aS'budgeting'
p18
aS'research'
p19
aS'data mining'
p20
aS'sas'
p21
aS'survey methodology'
p22
aS'ic'
p23
aS'perl'
p24
aS'literature reviews'
p25
aS'business development'
p26
aS'visualization'
p27
aS'statistics'
p28
aS'java'
p29
aS'big data'
p30
aS'lua'
p31
aS'predictive modeling'
p32
aS'excel'
p33
aS'rf'
p34
aS'writing'
p35
aS'cell'
p36
aS'statistica'
p37
aS'ssis'
p38
aS'statistical software'
p39
aS'computer science'
p40
aS'stata'
p41
aS'intelligence'
p42
aS'policy'
p43
aS'mathematics'
p44
aS'survey research'
p45
aS'go'
p46
aS'pl'
p47
aS'education'
p48
aS'envi'
p49
aS'sem'
p50
aS'ios'
p51
aS'innovation'
p52
aS'data scientist'
p53
aS'c'
aS'experimental design'
p54
aS'public policy'
p55
aS'leadership'
p56
aS'mentoring'
p57
aS'rest'
p58
aS'statistical modeling'
p59
aS'sql'
p60
aS'regression'
p61
aS'modeling'
p62
aS'data'
p63
aS'project management'
p64
aS'a'
aS'business intelligence tools'
p65
aS'search'
p66
aVbayesian method
p67
aS'ampl'
p68
aS'vis'
p69
aS'statistical analysis'
p70
aS'science'
p71
aS'economics'
p72
aS'programming'
p73
aS'analysis'
p74
aS'r'
aS'operations research'
p75
aS'organization'
p76
aS'predictive analytics'
p77
aS'data analytics'
p78
aS'cad'
p79
asS'working-year'
p80
(lp81
S'7 year'
p82
aS'5-7 year'
p83
aS'five year'
p84
aS'3 year'
p85
aS'four year'
p86
asS'major'
p87
(lp88
S'biostatistics'
p89
aS'ee'
p90
aS'data science'
p91
aS'statistic'
p92
aS'economics public policy'
p93
aS'data mining predictive analytics'
p94
aS'analytics'
p95
aS'design'
p96
aS'data mining'
p97
aS'survey methodology'
p98
aS'public policy'
p99
aS'information'
p100
aS'management'
p101
aS'big data'
p102
aS'statistics economics'
p103
aS'computer science'
p104
aS'mathematics'
p105
aS'mis'
p106
aS'operations research'
p107
aS'mathematics statistics economics'
p108
aS'business'
p109
aS'mathematics statistics'
p110
aS'statistics'
p111
aS'survey sampling'
p112
aS'ee computer science'
p113
aS'project management'
p114
aS'information systems'
p115
aS'science'
p116
aS'economics'
p117
aS'information system'
p118
aS'mathematics computer science'
p119
aS'data analytics'
p120
aS'predictive analytics'
p121
asS'education'
p122
(lp123
VBachelor
p124
aVMaster
p125
aVDoctor
p126
asS'responsibility'
p127
(lp128
S'development'
p129
aS'information'
p130
aS'data analysis'
p131
aS'predict'
p132
aS'analysis'
p133
aS'statistical model'
p134
aS'analytic'
p135
aS'statistical method'
p136
aS'design'
p137
aS'solve problem'
p138
aS'data mining'
p139
aS'report'
p140
aS'modeling'
p141
aS'model'
p142
as.