(dp1
S'world'
p2
I1
sS'office'
p3
I1
sS'role.'
p4
I1
sS'insight'
p5
I1
sS'mission'
p6
I2
sS'ended'
p7
I1
sS'manager'
p8
I1
sS'statistical'
p9
I1
sS'innovative'
p10
I1
sS'query'
p11
I1
sS'skill'
p12
I2
sS'discipline'
p13
I2
sS'visualization'
p14
I1
sS'forma'
p15
I1
sS'knowledge'
p16
I1
sS'technique'
p17
I1
sS'disability'
p18
I1
sS'writing'
p19
I1
sS'subsurface'
p20
I1
sS'vital'
p21
I2
sS'4'
I1
sS'homeland'
p22
I1
sS'policy'
p23
I1
sS'2016'
p24
I1
sS'presentation'
p25
I1
sS'ta'
p26
I1
sS'data visualization'
p27
I1
sS'global'
p28
I2
sS'data modeling'
p29
I1
sS'combination'
p30
I1
sS'seeking'
p31
I1
sS'propose'
p32
I1
sS'virginia'
p33
I1
sS'preferred'
p34
I1
sS'information systems'
p35
I1
sS'analysis/data'
p36
I2
sS'datasets'
p37
I1
sS'closely'
p38
I1
sS'markets.'
p39
I1
sS'using'
p40
I3
sS'leidos'
p41
I6
sS'necessary'
p42
I1
sS"martin's"
p43
I1
sS'january'
p44
I1
sS'solution'
p45
I3
sS'10+ year'
p46
I1
sS'large'
p47
I1
sS'team'
p48
I1
sS'security'
p49
I1
sS'apply.'
p50
I1
sS'experienced'
p51
I1
sS'employer.'
p52
I1
sS'set'
p53
I1
sS'statistical data analysis'
p54
I1
sS'intelligence'
p55
I4
sS'creation'
p56
I1
sS'discover'
p57
I1
sS'related'
p58
I2
sS'year'
p59
I1
sS'md.'
p60
I1
sS'operation'
p61
I1
sS'minority'
p62
I1
sS'recently'
p63
I1
sS'expert'
p64
I1
sS'giving'
p65
I1
sS'critical'
p66
I2
sS'health'
p67
I1
sS'approach'
p68
I1
sS'leader'
p69
I1
sS'available'
p70
I1
sS'working'
p71
I1
sS'algorithmic'
p72
I1
sS'business'
p73
I1
sS'data scientist'
p74
I1
sS'management information systems'
p75
I1
sS'commercial'
p76
I2
sS'understanding'
p77
I1
sS'reported'
p78
I1
sS'lockheed'
p79
I1
sS'active'
p80
I2
sS'strong'
p81
I1
sS'software development'
p82
I1
sS'defense'
p83
I1
sS'naval'
p84
I2
sS'language'
p85
I1
sS'technical'
p86
I1
sS'annual'
p87
I1
sS'iterative'
p88
I1
sS'equal'
p89
I1
sS'experience'
p90
I3
sS'steward'
p91
I1
sS'turn'
p92
I1
sS'information system'
p93
I1
sVqualification
p94
I3
sS'experimental'
p95
I1
sS'shell scripting'
p96
I1
sS'revenue'
p97
I1
sS'civil'
p98
I1
sS'overview'
p99
I1
sS'data science'
p100
I2
sS'identify opportunity'
p101
I1
sS'primary'
p102
I1
sS'one'
p103
I1
sS'suitland'
p104
I2
sS'solve'
p105
I1
sS'data mining'
p106
I3
sS'modeling/data'
p107
I2
sS'.'
I1
sS'customers.'
p108
I2
sS'use'
p109
I1
sS'management'
p110
I1
sS'prepare'
p111
I1
sS'area'
p112
I1
sS'support'
p113
I4
sS'employee'
p114
I2
sS'visit'
p115
I1
sVsystem
p116
I2
sS'approximately'
p117
I1
sS'strategy'
p118
I1
sVg
I1
sS'way'
p119
I1
sS'www.leidos.com.'
p120
I1
sS'approach.'
p121
I1
sS'assessment'
p122
I1
sS'perl/python'
p123
I1
sS'fiscal'
p124
I1
sS'tool'
p125
I1
sS'integrate'
p126
I1
sS'12+ year'
p127
I1
sS'line'
p128
I1
sS'analyst'
p129
I1
sS'sound'
p130
I1
sS'10'
p131
I1
sS'woman'
p132
I1
sVb
I1
sS'look'
p133
I1
sS'science'
p134
I1
sS'challenge'
p135
I1
sS'work'
p136
I2
sS'air'
p137
I1
sS'preparation'
p138
I1
sS'33'
p139
I1
sS'r'
I1
sS'architect'
p140
I1
sS'linux/windows'
p141
I1
sS'following'
p142
I1
sS'problem'
p143
I2
sS'reston'
p144
I1
sS'specialized'
p145
I1
sS'scripting'
p146
I1
sS'project/program'
p147
I1
sS'e.g.'
p148
I1
sS'computing'
p149
I1
sS'well'
p150
I1
sS'pro'
p151
I1
sS'completed'
p152
I1
sS'site'
p153
I1
sS'surface'
p154
I1
sS'minimum'
p155
I1
sS'instruction'
p156
I1
sVo
I1
sS'nosql'
p157
I1
sS'technology'
p158
I1
sS'information'
p159
I2
sS'varied'
p160
I1
sS'provide'
p161
I1
sS'make'
p162
I1
sS'government'
p163
I2
sS'1'
I1
sS'complex'
p164
I2
sS'computer science'
p165
I2
sS'finding'
p166
I1
sS'command'
p167
I1
sS'encouraged'
p168
I1
sS'company'
p169
I2
sS'toughest'
p170
I1
sS'development'
p171
I1
sS'used'
p172
I1
sS'description'
p173
I1
sS'shall'
p174
I1
sS'headquartered'
p175
I1
sS'effect'
p176
I1
sS'000'
p177
I1
sS'data analysis'
p178
I2
sS'sql'
p179
I1
sS'validate'
p180
I1
sS'protected'
p181
I1
sS'opportunity'
p182
I1
sS'environments.'
p183
I1
sS'billion'
p184
I1
sS'ts/sci'
p185
I2
sS'individual'
p186
I1
sS'database'
p187
I2
sS'required'
p188
I1
sVm
I1
sS'qualified'
p189
I1
sVresponsibility
p190
I1
sS'visualization/presentation'
p191
I1
sS'model'
p192
I1
sS'clearance'
p193
I2
sS'diverse'
p194
I1
sS'veteran'
p195
I1
s.