(dp1
S'shop'
p2
I1
sS'summer'
p3
I1
sS'help'
p4
I1
sS'global'
p5
I3
sS'cdk'
p6
I5
sS'stability'
p7
I1
sS'hiring'
p8
I1
sS'attitude'
p9
I1
sS'motorcycle'
p10
I1
sS'aspect'
p11
I1
sS'participate'
p12
I1
sS'skill'
p13
I3
sS'involved'
p14
I1
sS'2525'
p15
I1
sS'web'
p16
I1
sS'26'
p17
I1
sS'knowledge'
p18
I1
sS'mix'
p19
I1
sS'agile'
p20
I1
sS'employer'
p21
I1
sVwindow
p22
I2
sS'program'
p23
I2
sS'location'
p24
I1
sS'400'
p25
I1
sS'employee'
p26
I1
sS'suite'
p27
I1
sS'computer science'
p28
I2
sS'real'
p29
I1
sS'adevops'
p30
I1
sS'around'
p31
I1
sS'get'
p32
I1
sS'automotive'
p33
I1
sS'anticipated'
p34
I1
sS'early'
p35
I1
sS'load-balancing'
p36
I1
sS'portland'
p37
I1
sS'nearly'
p38
I1
sS'more.'
p39
I1
sS'cool'
p40
I2
sS'desire'
p41
I1
sS'fortune'
p42
I1
sS'bring'
p43
I1
sS'.net'
p44
I2
sS'solution'
p45
I1
sVserver
p46
I1
sS'computer engineering'
p47
I1
sS'car'
p48
I1
sS'f5.'
p49
I1
sS'nginx'
p50
I1
sS'side'
p51
I1
sS'manufacturers.'
p52
I1
sS'enjoy'
p53
I1
sS'minorities/women/veterans/disabled.'
p54
I1
sS'everyone'
p55
I1
sS'0 year'
p56
I2
sS'10+'
p57
I1
sS'generation'
p58
I1
sS'spring'
p59
I1
sS'energy'
p60
I1
sS'1st'
p61
I1
sS"bachelor's"
p62
I1
sS'likely'
p63
I1
sS'growth'
p64
I1
sS'virtualization'
p65
I1
sS'operation'
p66
I1
sS'shown'
p67
I1
sS'and/or'
p68
I4
sS'network'
p69
I2
sS'expert'
p70
I1
sS"master's"
p71
I1
sS'broad'
p72
I3
sS'business'
p73
I1
sS'passion'
p74
I1
sS'market'
p75
I1
sS'provider'
p76
I1
sS'approach'
p77
I1
sS'supporting'
p78
I1
sS'high'
p79
I1
sS'recently'
p80
I1
sS'ability'
p81
I1
sS'degree'
p82
I1
sS'internship'
p83
I2
sS'stuff.'
p84
I1
sS'team'
p85
I1
sS'data scientist'
p86
I1
sS'understanding'
p87
I1
sS'devops'
p88
I2
sS'explore'
p89
I1
sS'latest'
p90
I1
sS'interface'
p91
I1
sS'java'
p92
I2
sS'100'
p93
I1
sS'observing'
p94
I1
sS'care'
p95
I1
sS'arena'
p96
I1
sS'great'
p97
I1
sS'technical'
p98
I1
sS'country'
p99
I1
sS'industry'
p100
I1
sS'equal'
p101
I1
sS'experience'
p102
I1
sS'thing'
p103
I1
sS'range'
p104
I2
sS'000'
p105
I2
sS'here.'
p106
I1
sS'leading'
p107
I1
sS'software'
p108
I3
sS'love'
p109
I2
sS'one'
p110
I2
sS'apache'
p111
I1
sVii
p112
I1
sS'puppet'
p113
I1
sS'linux'
p114
I2
sS'owner'
p115
I1
sS'table'
p116
I1
sS'next'
p117
I1
sS'quality'
p118
I1
sS'teach'
p119
I1
sS'boat'
p120
I1
sS'engineer'
p121
I2
sS'networking'
p122
I2
sS'working'
p123
I1
sS'area'
p124
I1
sS'agility.'
p125
I1
sS'support'
p126
I1
sS'system'
p127
I3
sS'.'
I1
sS'start'
p128
I1
sS'sw'
p129
I1
sS"we're"
p130
I1
sS'interest'
p131
I1
sS'basic'
p132
I1
sS'utilizing'
p133
I1
sS'diversity'
p134
I1
sS'way'
p135
I1
sS"you'"
p136
I1
sS'continuous'
p137
I1
sS'innovate'
p138
I1
sS'ford'
p139
I1
sS'delivery'
p140
I1
sS'hear'
p141
I2
sS'two-thirds'
p142
I1
sS'believe'
p143
I1
sS'customer'
p144
I1
sS'also'
p145
I1
sS'ave.'
p146
I1
sS'room'
p147
I1
sS'science/computer'
p148
I1
sS'us.'
p149
I1
sS'challenge'
p150
I1
sS'work'
p151
I6
sS'hands-on'
p152
I1
sS'intern'
p153
I1
sS'electrical engineering'
p154
I2
sS'project'
p155
I2
sS'actively'
p156
I1
sS'architect'
p157
I1
sS'learn'
p158
I2
sS'meet'
p159
I1
sS'tractor'
p160
I1
sS'ordered'
p161
I1
sS'customers.'
p162
I1
sS'you.'
p163
I2
sS'expanding'
p164
I1
sS'contribute'
p165
I1
sS'site'
p166
I1
sS'drive'
p167
I1
sS"'just"
p168
I1
sS'graduation'
p169
I1
sS'want'
p170
I3
sS'2017-2018'
p171
I1
sS'technology'
p172
I4
sS'dealer'
p173
I2
sS'foundational'
p174
I1
sS'technologies.'
p175
I1
sS'variety'
p176
I1
sS'provide'
p177
I1
sS'engineering/electrical'
p178
I1
sS'97201'
p179
I1
sS'member'
p180
I1
sS'application'
p181
I1
sS'amazing'
p182
I1
sS'take'
p183
I1
sS'largest'
p184
I1
sS'9'
I1
sS'truck'
p185
I1
sS'opportunity'
p186
I2
sS'worldwide.'
p187
I1
sS'week'
p188
I1
sS'product'
p189
I4
sS'used'
p190
I3
sS'collaborative'
p191
I1
sS'may'
p192
I2
sS'enrolled'
p193
I1
sS'june'
p194
I1
sS'automation'
p195
I1
sS'delight'
p196
I1
sS'important'
p197
I2
sS'date'
p198
I2
sS'ours.'
p199
I1
sS'class'
p200
I1
sS'grow.'
p201
I1
sS'lead'
p202
I1
sS'strength.'
p203
I1
sS'database'
p204
I1
sS'people.'
p205
I1
sS'well'
p206
I3
sS'sale'
p207
I1
sS'know'
p208
I1
sS'team building'
p209
I1
sVu
I2
sS'enterprise'
p210
I1
sS'organization'
p211
I1
sS'1000'
p212
I1
sS'consumer'
p213
I1
sS'ferrari'
p214
I1
sS'joining'
p215
I1
s.