(dp1
S'skills'
p2
(lp3
S'integration'
p4
aS'soc'
p5
aS'r d'
p6
aS'nosql'
p7
aS'owl'
p8
aS'ip'
p9
aS'mapreduce'
p10
aS'ant'
p11
aS'analytics'
p12
aS'unix'
p13
aS'data governance'
p14
aS'intelligence'
p15
aS'linux'
p16
aS'sas'
p17
aS'ic'
p18
aS'sem'
p19
aS'xml'
p20
aS'visualization'
p21
aS'management'
p22
aS'big data'
p23
aS'agile'
p24
aS'excel'
p25
aS'hadoop'
p26
aS'governance'
p27
aS'research'
p28
aS'cell'
p29
aS'statistica'
p30
aS'rf'
p31
aS'visio'
p32
aS'policy'
p33
aS'go'
p34
aS'unstructured data'
p35
aS'pl'
p36
aS'envi'
p37
aS'finance'
p38
aS'information management'
p39
aS'python'
p40
aS'data scientist'
p41
aS'c'
aS'data quality'
p42
aS'business analytics'
p43
aS'oop'
p44
aS'statistical modeling'
p45
aS'sql'
p46
aS'modeling'
p47
aS'spark'
p48
aS'pig'
p49
aS'data'
p50
aS'engineering'
p51
aS'a'
aS'search'
p52
aS'erp'
p53
aS'vis'
p54
aS'solution architecture'
p55
aS'programming'
p56
aS'business intelligence'
p57
aS'hive'
p58
aS'data center'
p59
aS'data engineering'
p60
aS'r'
aS'architecture'
p61
aS'data security'
p62
aS'organization'
p63
aS'security'
p64
aS'cro'
p65
aS'data integration'
p66
asS'working-year'
p67
(lp68
S'3-5 year'
p69
aS'5 year'
p70
asS'major'
p71
(lp72
S'business intelligence analytics'
p73
aS'information'
p74
aS'management'
p75
aS'finance'
p76
aS'big data'
p77
aS'computing'
p78
aS'ee'
p79
aS'information management'
p80
aS'business analytics'
p81
aS'analytics'
p82
aS'engineering'
p83
aS'design'
p84
aS'statistic'
p85
aS'business'
p86
asS'education'
p87
(lp88
VBachelor
p89
aVMaster
p90
asS'responsibility'
p91
(lp92
S'information'
p93
aS'product'
p94
aS'statistical model'
p95
aS'analytic'
p96
aS'design'
p97
aS'modeling'
p98
aS'report'
p99
aS'understand'
p100
aS'model'
p101
aS'transformation'
p102
aS'data sourcing'
p103
as.