(dp1
S'code'
p2
I1
sS'data scientist'
p3
I1
sS'r d'
p4
I1
sS'office'
p5
I1
sS'excellent'
p6
I1
sS'existing'
p7
I3
sS'committed'
p8
I1
sS'skill'
p9
I6
sS'integrity'
p10
I1
sS'ethic'
p11
I1
sS'loading'
p12
I1
sS'knowledge'
p13
I2
sS'candidate'
p14
I1
sS'fix'
p15
I1
sS'environment'
p16
I2
sS'source'
p17
I1
sS'willing'
p18
I1
sS'extensive'
p19
I1
sS'timely'
p20
I1
sS'motivated'
p21
I1
sS'format'
p22
I1
sS'preferred'
p23
I1
sS'five'
p24
I1
sS'dw'
p25
I1
sS'necessary'
p26
I1
sS'level'
p27
I1
sS'cause'
p28
I1
sS'summary'
p29
I1
sS'interpersonal'
p30
I1
sS'thrive'
p31
I1
sS'vesta'
p32
I1
sS'team'
p33
I2
sS'analytical'
p34
I1
sS'data warehousing'
p35
I1
sS'essential'
p36
I1
sS'view'
p37
I1
sS'worldwide'
p38
I1
sS'requirement'
p39
I1
sS'verbal'
p40
I1
sS'play'
p41
I1
sS'related'
p42
I1
sS'sql development'
p43
I1
sS'organizational'
p44
I1
sS'individual'
p45
I1
sS'design'
p46
I1
sS'enhancement'
p47
I1
sS'recommendation'
p48
I1
sS'server'
p49
I1
sS'selected'
p50
I1
sS'self-starter'
p51
I1
sS'written'
p52
I1
sS'customer service'
p53
I1
sS'problem-solving'
p54
I1
sS'issue'
p55
I1
sS'demonstrated'
p56
I2
sS'movement'
p57
I1
sS'core'
p58
I2
sS'ability'
p59
I1
sS'extend'
p60
I1
sS'modify'
p61
I1
sS'processing'
p62
I1
sS'troubleshoots'
p63
I1
sS'analyzes'
p64
I1
sS'implementing'
p65
I1
sS'dedication'
p66
I1
sS'strong'
p67
I2
sS'change'
p68
I1
sS'tuning'
p69
I1
sS'working'
p70
I2
sS'seeking'
p71
I1
sS'capable'
p72
I2
sS'experience'
p73
I4
sS'posse'
p74
I1
sS'think'
p75
I1
sS'etl'
p76
I1
sS'load'
p77
I1
sS'communication'
p78
I1
sS'highly'
p79
I2
sS'initiative'
p80
I1
sS'least'
p81
I1
sS'learning'
p82
I1
sS'data mining'
p83
I3
sS'use'
p84
I1
sS'impeccable'
p85
I1
sS'fair'
p86
I1
sS'prepare'
p87
I1
sS'area'
p88
I1
sS'tsql'
p89
I1
sS'support'
p90
I1
sS'fast'
p91
I1
sS'needed'
p92
I2
sS'recommend'
p93
I1
sS'role.'
p94
I1
sVfunction
p95
I1
sS'successful'
p96
I1
sS'tool'
p97
I2
sS'varying'
p98
I1
sS'must'
p99
I2
sS'join'
p100
I1
sS'completion'
p101
I1
sS'work'
p102
I4
sS'warehouse.'
p103
I1
sS'problem'
p104
I1
sS'root'
p105
I1
sS'display'
p106
I1
sS'history'
p107
I1
sS'process'
p108
I2
sS'high'
p109
I1
sS'player'
p110
I1
sS'need'
p111
I1
sS'data modeling'
p112
I1
sS'large data set'
p113
I1
sS'self-motivation'
p114
I1
sS'make'
p115
I1
sS'responsible'
p116
I1
sS'able'
p117
I1
sS'detail'
p118
I1
sS'oriented'
p119
I1
sS'complex'
p120
I1
sS'role'
p121
I1
sS'warehouse'
p122
I1
sS'performance'
p123
I1
sS'development'
p124
I1
sS'schema.'
p125
I1
sS'multiple'
p126
I1
sS'track'
p127
I1
sS'proficiency'
p128
I1
sS't-sql'
p129
I2
sS'analytically'
p130
I1
sS'data'
p131
I6
sS'grow'
p132
I1
sS'independently'
p133
I1
sS'sql server'
p134
I1
sVm
I1
sS'solve'
p135
I1
sS'position'
p136
I1
sS'5 year'
p137
I1
sS'microsoft'
p138
I1
sS'paced'
p139
I1
s.