(dp1
S'code'
p2
I1
sS'consider'
p3
I2
sS'founder'
p4
I1
sS'dynamic'
p5
I1
sS'manager'
p6
I2
sS'disability'
p7
I1
sS'environment'
p8
I3
sS'position.'
p9
I1
sS'obligor'
p10
I1
sS'include'
p11
I1
sS'presentation'
p12
I1
sS'risk'
p13
I2
sS'provider'
p14
I1
sS'every'
p15
I1
sS'bringing'
p16
I1
sS'risk assessment'
p17
I1
sS'gender'
p18
I1
sS'risk modeling'
p19
I1
sS'applicable'
p20
I4
sS'race'
p21
I1
sS'financial services'
p22
I1
sS'team'
p23
I3
sS'small'
p24
I1
sS'enhance'
p25
I1
sS'enjoy'
p26
I1
sS'consistent'
p27
I1
sS'cfa'
p28
I1
sS'design'
p29
I1
sS'perspective'
p30
I1
sS'richard'
p31
I1
sVsection
p32
I1
sS'5+ years'
p33
I1
sS'concisely'
p34
I1
sS'capital'
p35
I11
sS'relational'
p36
I1
sS'ever'
p37
I1
sS'led'
p38
I1
sS'degree'
p39
I1
sS'commercial'
p40
I7
sS'understanding'
p41
I1
sS'smartest'
p42
I1
sS'statistical modeling'
p43
I1
sS'humility'
p44
I1
sS'consideration'
p45
I1
sS'interpret'
p46
I1
sS'great'
p47
I2
sS'acquisitions.'
p48
I1
sS'technical'
p49
I3
sS'larger'
p50
I1
sS'experience'
p51
I7
sS'credit'
p52
I7
sS'california'
p53
I1
sS'implement'
p54
I1
sS'company.'
p55
I1
sS'via'
p56
I1
sS'lending'
p57
I2
sS'manage'
p58
I1
sS'apply'
p59
I2
sS'dreams.'
p60
I1
sS'use'
p61
I3
sS'working'
p62
I1
sS'19050'
p63
I1
sS'contains'
p64
I1
sS'risk management'
p65
I1
sS'authorization'
p66
I1
sS'company'
p67
I2
sS'business process'
p68
I1
sS'workplace.'
p69
I2
sS'virtue'
p70
I1
sS'effort'
p71
I1
sS'customer'
p72
I4
sS'23-a'
p73
I1
sS'join'
p74
I1
sS'work'
p75
I2
sS'advocacy'
p76
I1
sS'machine learning'
p77
I2
sS'nurture'
p78
I1
sS'history'
p79
I1
sS'ingenuity'
p80
I1
sS'process'
p81
I1
sS'portfolio management'
p82
I1
sS'effectively'
p83
I1
sS'want'
p84
I1
sS'information'
p85
I1
sS'united'
p86
I1
sS'monitoring'
p87
I1
sS'goal'
p88
I1
sS'necessary'
p89
I1
sS'methodology'
p90
I2
sS'simplicity'
p91
I1
sS'product'
p92
I1
sS'sophistication'
p93
I1
sS'3 years'
p94
I1
sS'law'
p95
I3
sVphysic
p96
I1
sS'applicant'
p97
I3
sS'chief'
p98
I1
sS'responsibility'
p99
I2
sVsa
p100
I1
sS'five year'
p101
I1
sS'help'
p102
I1
sS'please.'
p103
I1
sS'mission'
p104
I1
sS'structuring'
p105
I1
sS'including'
p106
I2
sS'statistical'
p107
I1
sS'committed'
p108
I1
sS'still'
p109
I2
sS'superior'
p110
I1
sS'police'
p111
I1
sS'criminal'
p112
I4
sS'world.'
p113
I1
sS'python'
p114
I1
sS'disrupted'
p115
I1
sS'qualified'
p116
I3
sS"you've"
p117
I1
sS'realize'
p118
I1
sS'bank'
p119
I3
sS'capability'
p120
I1
sS'exhibit.'
p121
I1
sS'personalizing'
p122
I1
sS'individually'
p123
I1
sS'status'
p124
I3
sS'mental'
p125
I1
sS'idea'
p126
I1
sS'marital'
p127
I1
sS'measure'
p128
I1
sVoperation
p129
I1
sS'sexual'
p130
I1
sS'network'
p131
I1
sS'twenty-five'
p132
I1
sS'issue'
p133
I1
sS"one's"
p134
I1
sVass
p135
I1
sS'associate'
p136
I1
sS'provide leadership'
p137
I1
sS'data scientist'
p138
I1
sS'drug-free'
p139
I1
sS'york'
p140
I2
sS'growth.'
p141
I1
sS'accommodation'
p142
I1
sS'card'
p143
I2
sS'advance'
p144
I1
sS'language'
p145
I1
sS'created'
p146
I1
sS'programming'
p147
I1
sS'place'
p148
I1
sVqualification
p149
I3
sS'first'
p150
I1
sS'origin'
p151
I1
sS'probability'
p152
I1
sS'one'
p153
I12
sS'approximately'
p154
I1
sS'quality'
p155
I1
sS'given'
p156
I1
sS'management'
p157
I1
sVservice
p158
I2
sS'risk.'
p159
I1
sS'leading'
p160
I1
sS'top'
p161
I1
sS'recruiting'
p162
I1
sS'least'
p163
I2
sS'regulation'
p164
I1
sS'serve'
p165
I1
sS'information-based'
p166
I1
sS'believe'
p167
I1
sS'10'
p168
I1
sS'require'
p169
I1
sS'project'
p170
I3
sS'matter'
p171
I1
sS'r'
I1
sS'1-800-304-9102'
p172
I1
sS'toward'
p173
I1
sS'san'
p174
I1
sS'correction'
p175
I1
sS'spectrum'
p176
I1
sS'scorecard'
p177
I1
sS'statistically-based'
p178
I1
sS'clearly'
p179
I1
sS'law.'
p180
I1
sS'valued.'
p181
I1
sS'database.'
p182
I1
sS'agency'
p183
I1
sS'contact'
p184
I1
sS'also'
p185
I1
sS'without'
p186
I1
sS'chairman'
p187
I1
sS'new'
p188
I3
sS'200'
p189
I2
sS'collaboration'
p190
I1
sS'aws'
p191
I1
sS'plan'
p192
I1
sS'analytically'
p193
I1
sS'later'
p194
I1
sS'cover'
p195
I1
sS'managing'
p196
I1
sS'4901-4920'
p197
I1
sS'financial engineering'
p198
I2
sS'professional'
p199
I1
sS'senior'
p200
I2
sS'consumer'
p201
I1
sS'certification'
p202
I1
sS'elevate'
p203
I1
sS'portfolio'
p204
I2
sS'knowledge'
p205
I1
sS'basel'
p206
I2
sS'written'
p207
I1
sS'employer'
p208
I1
sS'screening'
p209
I1
sS'local'
p210
I2
sS'achieve'
p211
I1
sS'preferred'
p212
I1
sS'coordinating'
p213
I1
sS'report'
p214
I1
sS'credit risk'
p215
I1
sS'regarding'
p216
I2
sS'banking'
p217
I2
sS'credit analysis'
p218
I1
sS'cre'
p219
I1
sS'analytical'
p220
I1
sS'econometric'
p221
I1
sS'5 years'
p222
I1
sS'requirement'
p223
I1
sS'fair'
p224
I2
sS'national'
p225
I2
sS'startup'
p226
I1
sS'sex'
p227
I1
sS'see'
p228
I1
sS'individual'
p229
I1
sS'result'
p230
I2
sS'alternative'
p231
I1
sS'subject'
p232
I1
sS"master's"
p233
I1
sS'review'
p234
I2
sS'please'
p235
I1
sVstate
p236
I3
sS'future'
p237
I1
sS'various'
p238
I1
sS'60b'
p239
I1
sS'approach'
p240
I1
sS'across'
p241
I1
sS'thrive'
p242
I1
sS"years'"
p243
I6
sS'ability'
p244
I3
sS'inquiries.'
p245
I1
sS'job'
p246
I2
sS'succeed'
p247
I1
sS'extent'
p248
I1
sS'modeling'
p249
I2
sS"nation's"
p250
I1
sS'come'
p251
I1
sS'doctorate'
p252
I1
sS'c'
I1
sS'met'
p253
I1
sS'equal'
p254
I1
sS'agile'
p255
I1
sS'relevant'
p256
I1
sS'color'
p257
I1
sS'loan'
p258
I1
sS'others'
p259
I1
sS'community'
p260
I1
sS'article'
p261
I2
sS'pregnancy'
p262
I1
sS'respect'
p263
I2
sS'powered'
p264
I1
sS'frm'
p265
I1
sS'strategy'
p266
I1
sS'genetic'
p267
I1
sS'teamwork'
p268
I1
sS'change'
p269
I1
sS'basic'
p270
I1
sS'operations research'
p271
I2
sS'diversity'
p272
I1
sS'statistical model'
p273
I1
sS'understand'
p274
I3
sS'solid'
p275
I1
sVas
p276
I1
sS'value'
p277
I2
sS'promotes'
p278
I1
sS'receive'
p279
I1
sS'launched'
p280
I1
sS'manner'
p281
I1
sS'orientation'
p282
I1
sS'ready'
p283
I1
sS'technology'
p284
I2
sS'grown'
p285
I1
sS'develop'
p286
I2
sS'perform'
p287
I1
sS'identity/assignment'
p288
I1
sS'make'
p289
I2
sS'inquiry'
p290
I1
sS'largest'
p291
I1
sS'several'
p292
I1
sS'development'
p293
I2
sS'proficiency'
p294
I1
sS'driven'
p295
I1
sS'protected'
p296
I1
sS'opportunity'
p297
I3
sS'audit'
p298
I1
sS'49'
p299
I1
sS'analysis'
p300
I3
sS'thought'
p301
I1
sS'1'
I1
sS'thing.'
p302
I1
sS'quantitative'
p303
I4
sS'model'
p304
I10
sS'veteran'
p305
I1
sS'mclean'
p306
I2
sS'model validation'
p307
I1
sS'guided'
p308
I2
sS'executive'
p309
I1
sS'maternity'
p310
I1
sS'aspect'
p311
I1
sS'skill'
p312
I3
sS'succeeding'
p313
I1
sS'work.'
p314
I1
sS'forward-looking'
p315
I1
sS"we've"
p316
I1
sS'advancement'
p317
I1
sS'quality.'
p318
I1
sS'1+ years'
p319
I3
sS'humanity'
p320
I1
sS'ample'
p321
I1
sS'virginia'
p322
I1
sS'quest'
p323
I1
sS'background'
p324
I4
sS'performance'
p325
I2
sS'using'
p326
I1
sS'underwriting'
p327
I1
sS'advanced'
p328
I1
sS'loss'
p329
I1
sS'fortune'
p330
I1
sS'success'
p331
I1
sS'officer'
p332
I1
sS'output'
p333
I1
sS'right'
p334
I1
sS'deal'
p335
I1
sS'people'
p336
I3
sS'data mining'
p337
I3
sVstatistic
p338
I3
sS'employment'
p339
I3
sS'econometrics'
p340
I2
sS'lead'
p341
I2
sS'broad'
p342
I1
sS'industrial engineering'
p343
I2
sS'religion'
p344
I1
sS'sponsoring'
p345
I1
sS'verbally'
p346
I1
sS'innovation'
p347
I1
sS'results.'
p348
I1
sS'leader'
p349
I1
sS'good.'
p350
I1
sS'measuring'
p351
I1
sS'banking.'
p352
I1
sS'business'
p353
I5
sS'statistician'
p354
I1
sS'communicate'
p355
I2
sS'prohibited'
p356
I1
sS'package'
p357
I1
sS'industry'
p358
I1
sS'ob'
p359
I1
sS'plus'
p360
I1
sS'act'
p361
I2
sS'shared'
p362
I2
sS'software'
p363
I1
sS'mathematics economics'
p364
I1
sS'inclusion'
p365
I1
sS'communication'
p366
I1
sS'within'
p367
I3
sS'difference.'
p368
I1
sS'succeeding.'
p369
I1
sS'federal'
p370
I2
sS'quantitative analysis'
p371
I2
sS'america'
p372
I1
sS'compliant'
p373
I2
sS"we're"
p374
I1
sS'strategies.'
p375
I1
sS'function'
p376
I1
sS'offering'
p377
I1
sS'offer'
p378
I1
sS'regard'
p379
I1
sS'specialty'
p380
I1
sS'sophisticated'
p381
I1
sS'construction'
p382
I1
sS'analyst'
p383
I1
sS'clients.'
p384
I1
sS'default'
p385
I3
sS'founder-led'
p386
I1
sVrecord
p387
I1
sS'fairbank'
p388
I1
sS'etc.'
p389
I2
sS'associated'
p390
I1
sS'citizenship'
p391
I1
sS'influence'
p392
I2
sS'deep'
p393
I1
sS'accounting'
p394
I1
sS'openness'
p395
I1
sS'physical'
p396
I1
sS'assessing'
p397
I1
sS'variety'
p398
I1
sS'excel'
p399
I1
sS'field'
p400
I1
sS'mathematics'
p401
I1
sS'francisco'
p402
I1
sS'helping'
p403
I1
sS'chance'
p404
I1
sS'sql'
p405
I1
sS'exposure'
p406
I2
sS'building'
p407
I1
sS'independently'
p408
I1
sS'age'
p409
I1
sS"city's"
p410
I1
sS'together'
p411
I2
sS"philadelphia's"
p412
I1
sS'validation'
p413
I6
s.