(dp1
S'limited'
p2
I1
sS'emerging'
p3
I1
sS'code'
p4
I1
sS'aerospace'
p5
I1
sS'nosql'
p6
I1
sS'challenging.'
p7
I1
sS'dod'
p8
I2
sS'pattern recognition'
p9
I1
sS'insight'
p10
I1
sS'no.'
p11
I1
sS'scientist'
p12
I1
sS'identify'
p13
I1
sS'statistical'
p14
I1
sS'innovative'
p15
I1
sS'query'
p16
I1
sS'fidelity'
p17
I1
sS'r d'
p18
I1
sS'impact'
p19
I1
sS'visualization'
p20
I2
sS'position'
p21
I1
sS'desired.'
p22
I1
sS'knowledge'
p23
I2
sS'xml'
p24
I1
sS'graph'
p25
I1
sS'technique'
p26
I1
sS'operational'
p27
I1
sS'environment'
p28
I1
sS'analytic'
p29
I2
sS'add'
p30
I1
sS'willing'
p31
I1
sS'award'
p32
I1
sS'sp800-53'
p33
I1
sS'situational'
p34
I1
sS'world.'
p35
I1
sS'data science'
p36
I2
sS'awareness'
p37
I1
sS'build'
p38
I1
sS'division'
p39
I1
sS'data mining'
p40
I3
sS'risk'
p41
I2
sS'niacap'
p42
I1
sS'format'
p43
I1
sS'python'
p44
I1
sS'combination'
p45
I1
sS'preferred'
p46
I2
sS'primary'
p47
I1
sS'liability'
p48
I1
sS"world's"
p49
I1
sS'background'
p50
I1
sS'benefit.'
p51
I1
sS'using'
p52
I3
sS'advanced'
p53
I1
sS'querying'
p54
I1
sS'like'
p55
I1
sS'citizenship.'
p56
I1
sS'amazonweb'
p57
I1
sS"security's"
p58
I1
sS'performing'
p59
I1
sS'solution'
p60
I1
sS'large'
p61
I1
sS'applied'
p62
I1
sS'risk assessment'
p63
I1
sS'1 year'
p64
I5
sS'15408'
p65
I1
sS'team'
p66
I2
sS'analytical'
p67
I1
sS'including'
p68
I1
sS'security'
p69
I5
sS"years'"
p70
I1
sS'dodi'
p71
I1
sS'nist'
p72
I2
sS'predictive analytics'
p73
I2
sS'5 years'
p74
I1
sS'predictive'
p75
I1
sS'thinkers.'
p76
I1
sS'supporting'
p77
I1
sS'intelligence'
p78
I1
sS'secret'
p79
I2
sS'reduce'
p80
I1
sS"bachelor's"
p81
I1
sS'cyber'
p82
I2
sS'machine learning data mining'
p83
I1
sS'data management'
p84
I1
sS'design'
p85
I1
sS'statistic'
p86
I1
sS'writing'
p87
I1
sS'extract'
p88
I1
sS'cobit'
p89
I1
sS'innovator'
p90
I1
sS'8500.2'
p91
I1
sS'and/or'
p92
I1
sS'network'
p93
I2
sS'driving'
p94
I2
sS'space'
p95
I2
sS"master's"
p96
I1
sS'pattern'
p97
I1
sS'assistance'
p98
I2
sS'familiarity'
p99
I1
sS'integration'
p100
I1
sS'four year'
p101
I1
sS'current'
p102
I3
sS'preferred.'
p103
I1
sS'sets.'
p104
I2
sS'identification'
p105
I1
sS'select'
p106
I1
sS'provides'
p107
I1
sS'designing'
p108
I1
sS'information security'
p109
I1
sS'new'
p110
I1
sS'increasing'
p111
I1
sS'approach'
p112
I1
sS'method'
p113
I4
sS'interpretation.'
p114
I1
sS'available'
p115
I1
sS'foundation'
p116
I1
sS'degree'
p117
I4
sS'reporting'
p118
I1
sS'bold'
p119
I1
sS'business'
p120
I1
sS'data scientist'
p121
I1
sS'equivalent'
p122
I1
sS'processing'
p123
I1
sS'commercial'
p124
I1
sS'understanding'
p125
I2
sS'desired'
p126
I1
sS'job'
p127
I2
sS'operating'
p128
I1
sS'statistical modeling'
p129
I1
sS'active'
p130
I2
sS'web services'
p131
I1
sS'techniques.'
p132
I2
sS'exciting'
p133
I1
sS'yes'
p134
I1
sS'change'
p135
I1
sS'log'
p136
I1
sS'advance'
p137
I1
sS'c'
I1
sS'defense'
p138
I1
sVservice
p139
I1
sS'data visualization'
p140
I1
sS'technical'
p141
I2
sS'determining'
p142
I1
sS'anomaly detection'
p143
I1
sS'experience'
p144
I15
sS'exploitation'
p145
I1
sS'etc'
p146
I1
sS'att'
p147
I1
sS'data analytics'
p148
I2
sS'threat'
p149
I2
sS'tactical'
p150
I1
sS'relational'
p151
I1
sS'chain'
p152
I1
sS'travel'
p153
I1
sS'ck'
p154
I1
sS'ability'
p155
I1
sS'manufacturer'
p156
I1
sS'skilled'
p157
I1
sS'intelligence analysis'
p158
I1
sS'functional'
p159
I1
sS'demonstrable'
p160
I1
sS'strategic'
p161
I1
sS'security clearance'
p162
I1
sS'appropriate'
p163
I1
sS'analyzing'
p164
I1
sS'linux'
p165
I1
sS'contributor'
p166
I1
sS'neo4j'
p167
I1
sS'automated'
p168
I1
sS'throughout'
p169
I1
sS'u'
I4
sS'negotiable'
p170
I1
sS'engineer'
p171
I1
sS'clustering'
p172
I1
sS'better'
p173
I1
sS'management'
p174
I1
sS'type'
p175
I1
sS'leverage'
p176
I1
sS'working'
p177
I1
sS'source'
p178
I2
sS'risk.'
p179
I1
sS'leading'
p180
I1
sS'support'
p181
I1
sS'relocation'
p182
I2
sS'system'
p183
I4
sS'systems.'
p184
I2
sS'json'
p185
I1
sS'influencing'
p186
I1
sS'information technology'
p187
I2
sS'basic'
p188
I1
sS'flexible'
p189
I1
sS'improve'
p190
I1
sS'business intelligence'
p191
I1
sS'recommended.'
p192
I1
sS'company'
p193
I1
sS'algorithm development'
p194
I1
sS'immediate'
p195
I1
sS'statistical model'
p196
I1
sS'part'
p197
I1
sS'understand'
p198
I1
sS'related'
p199
I1
sS'dreamers.'
p200
I1
sS'life-cycle'
p201
I1
sS'boeing'
p202
I1
sS'level'
p203
I1
sS'analyst'
p204
I1
sS'standard'
p205
I3
sS'customer'
p206
I1
sS'10'
p207
I1
sS'join'
p208
I1
sS'2700x'
p209
I1
sS'developing'
p210
I1
sS'fips'
p211
I1
sS'desirable.'
p212
I1
sS'cio'
p213
I1
sS'technicians.'
p214
I1
sS'value'
p215
I1
sS'machine learning'
p216
I2
sS'prioritization'
p217
I1
sS'time'
p218
I1
sS'behavior'
p219
I1
sS'modeling.'
p220
I1
sS'graphdb'
p221
I1
sS'obtain'
p222
I3
sS'greater'
p223
I1
sS'social'
p224
I1
sS'program'
p225
I1
sS'dedicated'
p226
I1
sS'e.g.'
p227
I2
sS'coupled'
p228
I1
sS'defined'
p229
I1
sS'experience.'
p230
I1
sS'beh7p3'
p231
I1
sS'scientific'
p232
I1
sS'diverse'
p233
I3
sS'expertise'
p234
I1
sS'something'
p235
I1
sS'airplane'
p236
I1
sS'work'
p237
I1
sS'technology'
p238
I1
sS'union'
p239
I1
sS'increased'
p240
I1
sS'information'
p241
I4
sS'education'
p242
I1
sS'develop'
p243
I3
sS'goal'
p244
I2
sS'areas.'
p245
I1
sS'provide'
p246
I1
sS'aggregation/integration'
p247
I1
sS'government'
p248
I2
sS'able'
p249
I1
sS'hadoop'
p250
I1
sS'member'
p251
I1
sS'field'
p252
I1
sS'potential'
p253
I1
sS'role'
p254
I2
sS'inventory'
p255
I1
sS'largest'
p256
I1
sS'detection.'
p257
I1
sS'sas.'
p258
I1
sS'3 year'
p259
I2
sS'tool'
p260
I1
sS'20000'
p261
I1
sS'multiple'
p262
I1
sVqualification
p263
I3
sS'mathematic'
p264
I1
sS'u.s.'
p265
I1
sS'decision-making'
p266
I1
sS'upon'
p267
I2
sS'business.'
p268
I2
sS'kill'
p269
I1
sS'hand'
p270
I1
sS'individual'
p271
I1
sS'purpose'
p272
I1
sS'data analysis'
p273
I2
sS'sql'
p274
I1
sS'phase'
p275
I1
sS'iso/iec'
p276
I3
sS'data'
p277
I7
sS'education/experience'
p278
I1
sS'study.'
p279
I1
sS'large data set'
p280
I1
sS'sources.'
p281
I1
sS'capec'
p282
I1
sS'algorithm'
p283
I1
sS'database'
p284
I1
sS'requires'
p285
I2
sS'necessitates'
p286
I1
sS'analysis'
p287
I3
sS'information assurance'
p288
I1
sS'computer science'
p289
I2
sVresponsibility
p290
I1
sS'data aggregation'
p291
I1
sS'allow'
p292
I1
sS'anomaly'
p293
I1
sS'diacap'
p294
I1
sS'international'
p295
I1
sS'clearance'
p296
I3
sS'typically'
p297
I1
sS'sp800-37'
p298
I1
sS'contingent'
p299
I1
sS'typical'
p300
I1
s.