(dp1
S'skills'
p2
(lp3
S'ip'
p4
aS'portfolio management'
p5
aS'ant'
p6
aS'vis'
p7
aS'pricing'
p8
aS'sas'
p9
aS'ic'
p10
aS'education'
p11
aS'market risk'
p12
aS'management'
p13
aS'capital markets'
p14
aS'strategy'
p15
aS'risk management'
p16
aS'policy'
p17
aS'pl'
p18
aS'financial modeling'
p19
aS'finance'
p20
aS'ios'
p21
aS'data scientist'
p22
aS'sql'
p23
aS'modeling'
p24
aS'credit risk'
p25
aS'data'
p26
aS'a'
aS'c'
aS'analytics'
p27
aS'credit'
p28
aS'r'
aS'investment management'
p29
aS'security'
p30
aS'investments'
p31
asS'working-year'
p32
(lp33
S'7 year'
p34
aS'5-7 year'
p35
asS'major'
p36
(lp37
S'ee'
p38
aS'analytics'
p39
aS'management'
p40
aS'finance'
p41
asS'education'
p42
(lp43
VBachelor
p44
aVMaster
p45
asS'responsibility'
p46
(lp47
S'analytic'
p48
aS'implement'
p49
aS'modeling'
p50
aS'model'
p51
aS'financial model'
p52
as.