(dp1
S'skills'
p2
(lp3
S'owl'
p4
aS'reporting analysis'
p5
aS'ip'
p6
aS'testing'
p7
aS'ant'
p8
aS'vis'
p9
aS'thought leadership'
p10
aS'marketing research'
p11
aS'performance improvement'
p12
aS'go'
p13
aS'politics'
p14
aS'ic'
p15
aS'public policy'
p16
aS'git'
p17
aS'asic'
p18
aS'research'
p19
aS'rf'
p20
aS'communication'
p21
aS'policy'
p22
aS'pl'
p23
aS'government'
p24
aS'marketing'
p25
aS'innovation'
p26
aS'data scientist'
p27
aS'c'
aS'leadership'
p28
aS'facebook'
p29
aS'word'
p30
aS'data'
p31
aS'a'
aS'search'
p32
aS'erp'
p33
aS'analysis'
p34
aS'cro'
p35
aS'online marketing'
p36
aS'r'
aS'advertising'
p37
aS'organization'
p38
aS'google adwords'
p39
asS'working-year'
p40
(lp41
S'2 year'
p42
aS'1 year'
p43
asS'major'
p44
(lp45
S'information'
p46
aS'business'
p47
aS'ee'
p48
aS'marketing'
p49
aS'communications'
p50
aS'marketing research'
p51
aS'communication'
p52
aS'public policy'
p53
aS'law'
p54
asS'education'
p55
(lp56
VBachelor
p57
aVMaster
p58
asS'responsibility'
p59
(lp60
S'information'
p61
aS'product'
p62
aVinsight
p63
aS'analysis'
p64
aS'improvement'
p65
aS'analytic'
p66
aS'report'
p67
as.