(dp1
S'skills'
p2
(lp3
S'soc'
p4
aS'r d'
p5
aS'ip'
p6
aS'data analysis'
p7
aS'ant'
p8
aS'analytics'
p9
aS'engineering'
p10
aS'data governance'
p11
aS'problem solving'
p12
aS'go'
p13
aS'ic'
p14
aS'education'
p15
aS'econometrics'
p16
aS'statistics'
p17
aS'open source'
p18
aS'banking'
p19
aS'c'
aS'industrial engineering'
p20
aS'asic'
p21
aS'rf'
p22
aS'governance'
p23
aS'research'
p24
aS'statistica'
p25
aS'coaching'
p26
aS'teamwork'
p27
aS'communication'
p28
aS'mathematics'
p29
aS'risk analytics'
p30
aS'pl'
p31
aS'envi'
p32
aS'finance'
p33
aS'collaboration'
p34
aS'innovation'
p35
aS'data scientist'
p36
aS'search'
p37
aS'metrics'
p38
aS'leadership'
p39
aS'mentoring'
p40
aS'statistical modeling'
p41
aS'modeling'
p42
aS'data'
p43
aS'a'
aS'training'
p44
aS'erp'
p45
aS'economics'
p46
aS'analysis'
p47
aS'data center'
p48
aS'credit'
p49
aS'r'
aS'operations research'
p50
aS'emr'
p51
aS'validation'
p52
aS'cro'
p53
aS'data analytics'
p54
aS'predictive analytics'
p55
asS'working-year'
p56
(lp57
S'7 year'
p58
aS'5 year'
p59
aS'2 year'
p60
aS'five year'
p61
asS'major'
p62
(lp63
S'information'
p64
aS'economics statistics'
p65
aS'finance'
p66
aS'business'
p67
aS'ee'
p68
aS'communication'
p69
aS'industrial engineering'
p70
aS'industrial engineering operations research'
p71
aS'finance economics'
p72
aS'statistic'
p73
aS'data analyst'
p74
aS'analytics'
p75
aS'engineering'
p76
aS'statistics'
p77
aS'operations research'
p78
aS'economics'
p79
aS'mathematics'
p80
aS'mis'
p81
aS'econometrics'
p82
aS'data analytics'
p83
aS'predictive analytics'
p84
asS'education'
p85
(lp86
VBachelor
p87
aVMaster
p88
aVDoctor
p89
asS'responsibility'
p90
(lp91
S'large data set'
p92
aS'data analysis'
p93
aS'analytic'
p94
aS'predict'
p95
aS'decision-making'
p96
aS'analysis'
p97
aS'statistical model'
p98
aS'cross-functionally'
p99
aS'business problem'
p100
aS'understand'
p101
aS'report'
p102
aS'modeling'
p103
aS'information'
p104
aS'presentation'
p105
aS'model'
p106
as.