(dp1
S'skills'
p2
(lp3
S'owl'
p4
aS'ip'
p5
aS'sales'
p6
aS'ic'
p7
aS'insurance'
p8
aS'excel'
p9
aS'envi'
p10
aS'cell'
p11
aS'rf'
p12
aS'new business development'
p13
aS'communication'
p14
aS'pl'
p15
aS'asp'
p16
aS'finance'
p17
aS'automotive'
p18
aS'data scientist'
p19
aS'business development'
p20
aS'data'
p21
aS'b2b'
p22
aS'a'
aS'c'
aS'erp'
p23
aS'r'
asS'working-year'
p24
(lp25
S'7 year'
p26
aS'4 year'
p27
aS'5 year'
p28
aS'5-7 year'
p29
asS'major'
p30
(lp31
S'ee'
p32
aS'communication'
p33
aS'design'
p34
aS'finance'
p35
aS'business'
p36
asS'education'
p37
(lp38
VBachelor
p39
aVMaster
p40
asS'responsibility'
p41
(lp42
S'development'
p43
aS'design'
p44
aS'product'
p45
aS'presentation'
p46
aS'formulate'
p47
as.