(dp1
S'month'
p2
I1
sS'go'
p3
I1
sS'looking'
p4
I1
sS'uphold'
p5
I1
sS'eligible'
p6
I1
sS'disability'
p7
I2
sS'tn'
p8
I1
sS'include'
p9
I1
sS'advantage'
p10
I1
sS'outside'
p11
I1
sS'j-1'
p12
I1
sS'condition'
p13
I1
sS'gender'
p14
I3
sS'applicable'
p15
I1
sS'race'
p16
I1
sS'discover'
p17
I1
sS'design'
p18
I1
sS'even'
p19
I1
sS'investing'
p20
I1
sS'current'
p21
I2
sS'international'
p22
I2
sS'contributes'
p23
I1
sS'strong'
p24
I1
sS'information technology'
p25
I2
sS'internship.'
p26
I1
sS'talent'
p27
I1
sS'study'
p28
I1
sS'experience'
p29
I5
sS'prior'
p30
I1
sS'military'
p31
I1
sS'company.'
p32
I2
sS'analyzing'
p33
I1
sS'college/university.'
p34
I1
sS'environment'
p35
I1
sS'would'
p36
I2
sS'positive'
p37
I2
sS'6'
I1
sS'web design'
p38
I1
sS'successful'
p39
I1
sS'company'
p40
I4
sS'known'
p41
I1
sS'must'
p42
I6
sS'customer'
p43
I2
sVgraphic
p44
I1
sS'hour'
p45
I1
sS'us.'
p46
I1
sS'work'
p47
I2
sS'learn'
p48
I1
sS'growing'
p49
I1
sS'challenging'
p50
I1
sS'process'
p51
I1
sS'want'
p52
I2
sS'united'
p53
I1
sS'end'
p54
I2
sS'provide'
p55
I1
sS'write'
p56
I1
sS'located'
p57
I1
sS'description'
p58
I1
sS'membership'
p59
I1
sS'products.'
p60
I1
sS'date'
p61
I1
sVapplicant
p62
I4
sVresponsibility
p63
I1
sS'r d'
p64
I1
sS'2017.'
p65
I1
sS'attitude'
p66
I1
sS'including'
p67
I1
sS'perfect'
p68
I1
sS'25'
p69
I1
sS'accredited'
p70
I1
sS'policy'
p71
I1
sS'2017'
p72
I1
sS'might'
p73
I1
sS'seeking'
p74
I1
sS'python'
p75
I1
sS'anticipated'
p76
I2
sS'qualified'
p77
I2
sS'business development'
p78
I1
sS'sophomore'
p79
I1
sS'university'
p80
I1
sS'reasonable'
p81
I2
sS'self-motivation'
p82
I1
sS'data analytics'
p83
I2
sS'status'
p84
I2
sS'0 year'
p85
I2
sS'idea'
p86
I2
sS'related'
p87
I1
sS'marital'
p88
I1
sS'sponsor'
p89
I3
sS'sexual'
p90
I1
sVnetwork
p91
I5
sS'furthermore'
p92
I1
sS'f-1'
p93
I1
sS'content'
p94
I1
sS'fortitude'
p95
I1
sS'commits'
p96
I1
sS'u.s.'
p97
I1
sS'standard'
p98
I1
sS'business analytics'
p99
I2
sS'brightest'
p100
I2
sS'accommodation'
p101
I2
sS'interaction'
p102
I1
sS'programming'
p103
I1
sS'motion'
p104
I1
sVqualification
p105
I1
sS'origin'
p106
I1
sS'already'
p107
I1
sVtest hypothesis
p108
I1
sS'one'
p109
I1
sS'another'
p110
I1
sVservice
p111
I1
sS'leading'
p112
I1
sS'approximately'
p113
I1
sS'legally'
p114
I1
sS'participated'
p115
I1
sS'completed'
p116
I1
sS'longer-term'
p117
I1
sS'sex'
p118
I1
sS'television'
p119
I1
sS'12'
p120
I1
sS'project'
p121
I2
sS'compensation'
p122
I1
sS'new business development'
p123
I1
sS'scrippsnetworks.com.'
p124
I1
sS'interactive'
p125
I4
sS'gathering'
p126
I1
sS'need'
p127
I1
sS'law.'
p128
I1
sS'studying'
p129
I1
sS'veteran'
p130
I1
sS'agency'
p131
I1
sS'finding'
p132
I1
sS'forward-thinking'
p133
I1
sS'begin'
p134
I1
sS'unless'
p135
I1
sS'paid'
p136
I1
sS'visa'
p137
I2
sS'future'
p138
I1
sS'hands-on'
p139
I1
sS'behavior.'
p140
I1
sS'placement'
p141
I1
sS'medical'
p142
I1
sS'request'
p143
I1
sVsale
p144
I1
sS'professional'
p145
I1
sS'senior'
p146
I1
sS'currently'
p147
I1
sS'violation'
p148
I1
sS'interns.'
p149
I1
sS'undue'
p150
I1
sS'bring'
p151
I1
sS'employer.'
p152
I1
sS'planning'
p153
I1
sVrelation
p154
I1
sS'forward.'
p155
I1
sS'media.'
p156
I1
sS'state'
p157
I1
sS'field.'
p158
I1
sS'employee'
p159
I1
sS'local'
p160
I1
sS'exceptional'
p161
I1
sS'preferred'
p162
I1
sS'clubs/organizations'
p163
I1
sS'new'
p164
I2
sS'regarding'
p165
I1
sS'resource'
p166
I1
sS'hiring'
p167
I1
sS'summary'
p168
I1
sS'vision'
p169
I1
sS'view'
p170
I1
sS'requirement'
p171
I1
sS'national'
p172
I1
sS'immigrant'
p173
I1
sS'culture'
p174
I1
sS'depends'
p175
I1
sS'individual'
p176
I2
sS'college'
p177
I1
sS'result'
p178
I1
sS'best'
p179
I1
sS'august'
p180
I1
sS'federal'
p181
I1
sS'knoxville'
p182
I2
sS'please'
p183
I1
sS'written'
p184
I1
sS'unable'
p185
I1
sS'operations.'
p186
I1
sS'email'
p187
I1
sS'hardship'
p188
I1
sS'job'
p189
I2
sS'dedication'
p190
I1
sS'scripps'
p191
I8
sS'talented'
p192
I2
sS'career'
p193
I1
sS'equal'
p194
I2
sS'expression'
p195
I1
sVduty
p196
I1
sS'color'
p197
I1
sS'data science'
p198
I2
sS'initiative'
p199
I1
sS'ad'
p200
I1
sS'basis'
p201
I1
sS'addition'
p202
I1
sS"it's"
p203
I1
sS'confident'
p204
I1
sS'genetic'
p205
I1
sS'interest'
p206
I1
sS'marketing communications'
p207
I1
sS'present'
p208
I1
sS'ongoing'
p209
I1
sS'perspective.'
p210
I1
sS'uncompromising'
p211
I1
sS'orientation'
p212
I1
sS'potential.'
p213
I1
sS'hone'
p214
I1
sS'develop'
p215
I2
sS'make'
p216
I1
sS'week'
p217
I2
sS'student'
p218
I2
sS'opportunity'
p219
I3
sS'identity'
p220
I2
sS'recent'
p221
I1
sS'information systems'
p222
I1
sS'coursework'
p223
I1
sS'well'
p224
I1
sS'without'
p225
I1
sS'greatest'
p226
I1
sS'organization'
p227
I2
sS'corporate'
p228
I1
sS'spend'
p229
I1
sS'summer'
p230
I1
sS'competitive'
p231
I2
sS'day-to-day'
p232
I1
sS'skill'
p233
I3
sS'previous'
p234
I1
sS'discipline'
p235
I1
sS'candidate'
p236
I1
sS'field'
p237
I1
sS'office.'
p238
I1
sS'location'
p239
I1
sS'using'
p240
I1
sS'unique'
p241
I1
sS'necessary'
p242
I2
sS'success'
p243
I1
sS'states.'
p244
I1
sS'eeo'
p245
I1
sS'continue'
p246
I1
sS'authorization.'
p247
I1
sS'propel'
p248
I1
sS'people'
p249
I1
sS'public relations'
p250
I1
sS'intern'
p251
I5
sS'growth'
p252
I1
sVstatistic
p253
I1
sS'supportive'
p254
I1
sS'employment'
p255
I3
sS'and/or'
p256
I3
sS'broad'
p257
I1
sS'per'
p258
I1
sS'creative'
p259
I1
sS'religion'
p260
I1
sS'passion'
p261
I1
sS'leader'
p262
I1
sS'internship'
p263
I8
sS'marketing'
p264
I1
sS'lifestyle'
p265
I1
sS'world'
p266
I1
sS'industry'
p267
I2
sS'in-depth'
p268
I1
sS'graduation'
p269
I2
sS'range'
p270
I1
sS'information system'
p271
I1
sS'ensure'
p272
I1
sS'communication'
p273
I3
sS'visas.'
p274
I1
sS'within'
p275
I1
sS'rising'
p276
I2
sVarea
p277
I1
sS'recruiter'
p278
I1
sS'submit'
p279
I1
sS'start'
p280
I1
sS'medium'
p281
I4
sS'invite'
p282
I1
sS'form'
p283
I1
sS'offer'
p284
I1
sS'non-immigrant'
p285
I1
sS'regard'
p286
I1
sS'gain'
p287
I1
sS'true'
p288
I1
sS'junior'
p289
I1
sS'made'
p290
I1
sS'applying'
p291
I1
sS'whether'
p292
I1
sS'visa.'
p293
I1
sS'distribution'
p294
I1
sS'citizenship'
p295
I1
sS'inclusive'
p296
I1
sS'contribute'
p297
I1
sS'evidence'
p298
I1
sS'diverse'
p299
I1
sS'ideally'
p300
I1
sS'40'
p301
I1
sS'graduate'
p302
I2
sS'application'
p303
I1
sS'5'
I1
sS'computer science'
p304
I2
sS'ambitious'
p305
I1
sS'digital'
p306
I1
sS'period.'
p307
I1
sS'june'
p308
I1
sS'sql'
p309
I1
sS'age'
p310
I1
sS'required'
p311
I1
sS'time'
p312
I4
sS'fresh'
p313
I1
sS'oral'
p314
I1
s.