(dp1
S'creation'
p2
I2
sS'help'
p3
I1
sS'office'
p4
I1
sS'please'
p5
I1
sS'global'
p6
I1
sS'people'
p7
I1
sS'focus'
p8
I1
sVmanager
p9
I2
sS'pre-production'
p10
I1
sS'day-to-day'
p11
I1
sS'follow'
p12
I1
sS'delivers'
p13
I1
sVdeveloper
p14
I1
sS'ethic'
p15
I1
sS'web'
p16
I1
sS'wppgy'
p17
I1
sS'wunderman'
p18
I8
sS'cycle.'
p19
I1
sS'technique'
p20
I1
sS'r d'
p21
I1
sS'writing'
p22
I1
sS'environment'
p23
I1
sS'add'
p24
I1
sS'production'
p25
I1
sS'combine'
p26
I1
sS'quality assurance'
p27
I1
sS'2015'
p28
I1
sS'include'
p29
I1
sS'downstream'
p30
I1
sS'match'
p31
I1
sS'risk'
p32
I1
sS'finalize'
p33
I1
sS'online'
p34
I1
sS'psds'
p35
I1
sS'creatively'
p36
I1
sS'www.wunderman.com'
p37
I1
sS'background'
p38
I2
sS'new'
p39
I1
sVbuyer
p40
I1
sS'specific'
p41
I1
sS'execution'
p42
I1
sS'wpp'
p43
I1
sS'timely'
p44
I1
sS'like'
p45
I1
sS'verifying'
p46
I1
sS'journalism'
p47
I1
sS'strategy.'
p48
I1
sS'requesting'
p49
I1
sS'qa'
p50
I6
sS'activity'
p51
I1
sS'analytical'
p52
I2
sS'end-to-end'
p53
I1
sS'requirement'
p54
I2
sS'concise'
p55
I1
sS'testing'
p56
I4
sS'reduce'
p57
I1
sS'back'
p58
I1
sS'thinker'
p59
I1
sS'deliverable.'
p60
I1
sS'design'
p61
I1
sS'result'
p62
I1
sS'operation'
p63
I1
sS'provided'
p64
I1
sS'practice'
p65
I1
sS'technologist'
p66
I1
sS'degree'
p67
I1
sS'expert'
p68
I1
sS'decision'
p69
I1
sS'establish'
p70
I1
sS'review'
p71
I2
sS'learner'
p72
I1
sS'creative'
p73
I1
sS'looking'
p74
I1
sS'ux/creative/content'
p75
I1
sS'7'
I1
sS'leader'
p76
I1
sS'foundation'
p77
I1
sS'content'
p78
I2
sVstrategist
p79
I2
sS'email'
p80
I1
sS'assurance'
p81
I1
sVspecialist
p82
I5
sS'nasdaq'
p83
I1
sS'business'
p84
I1
sS'marketing'
p85
I3
sS'team'
p86
I5
sS'data scientist'
p87
I1
sS'standard'
p88
I2
sS'broken'
p89
I1
sS'york'
p90
I1
sS'detail-oriented'
p91
I1
sS'come'
p92
I1
sS'great'
p93
I1
sS'organic'
p94
I1
sS'technical'
p95
I2
sS'could'
p96
I2
sS'asker'
p97
I1
sS'experience'
p98
I4
sS'thing'
p99
I1
sS'edits'
p100
I1
sS'social'
p101
I1
sS'action'
p102
I1
sS'markets.'
p103
I1
sS'+'
I1
sS'inspires'
p104
I1
sS'2\n+ year'
p105
I1
sS'fantastic'
p106
I1
sS'driven.'
p107
I1
sS'followed'
p108
I1
sS'campaign'
p109
I4
sS'creativity'
p110
I1
sS'named'
p111
I1
sS'within'
p112
I1
sS'strategic'
p113
I1
sS'60'
p114
I1
sS'proofreading'
p115
I1
sS'troubleshooting'
p116
I1
sS'brands.'
p117
I1
sS'175'
p118
I1
sS'clarity'
p119
I1
sS'quality'
p120
I4
sS'ad'
p121
I1
sS'strong'
p122
I2
sS'service'
p123
I1
sS'leading'
p124
I1
sS'support'
p125
I1
sS'constantly'
p126
I1
sS'question'
p127
I2
sS'team.'
p128
I1
sS'strategy'
p129
I1
sS'2'
I1
sS'typo'
p130
I1
sS'flexible'
p131
I1
sS'company'
p132
I1
sS'feedback'
p133
I1
sS'website'
p134
I2
sS'direction'
p135
I3
sVmedium
p136
I2
sS'nice-to-haves'
p137
I1
sS'brings'
p138
I1
sS'tool'
p139
I1
sS'aware'
p140
I1
sS'ensuring'
p141
I1
sS'excellent'
p142
I1
sS'quick'
p143
I1
sS'line'
p144
I1
sS'editing'
p145
I1
sVanalyst
p146
I2
sS'client-facing'
p147
I1
sS'customer'
p148
I1
sS'join'
p149
I1
sS'ux'
p150
I2
sS'player'
p151
I1
sS'whether'
p152
I1
sS'presentation'
p153
I1
sS'setup'
p154
I1
sS'work'
p155
I4
sS'value'
p156
I1
sS'lead'
p157
I1
sS'project'
p158
I3
sS'visit'
p159
I1
sS'growing'
p160
I1
sS'problem'
p161
I1
sS'providing'
p162
I1
sS'headquartered'
p163
I1
sS'inspired'
p164
I1
sS'reviewing'
p165
I2
sS'crazy'
p166
I1
sS'performer'
p167
I1
sS'fit.'
p168
I1
sS'process'
p169
I6
sS'alongside'
p170
I1
sS'organized'
p171
I1
sS'life'
p172
I3
sS'high'
p173
I1
sS'post-production'
p174
I1
sS'expertise'
p175
I1
sS'manner'
p176
I1
sS'sense'
p177
I1
sS'fill'
p178
I1
sS'deliverable'
p179
I2
sS'develop'
p180
I1
sS'environments.'
p181
I1
sS'provide'
p182
I1
sS'together'
p183
I1
sS'make'
p184
I2
sS'agency'
p185
I2
sS'detail'
p186
I1
sS'member'
p187
I1
sS'.'
I2
sS'role'
p188
I2
sS'take'
p189
I1
sS'digital'
p190
I5
sS'test'
p191
I1
sS'brand'
p192
I1
sS'channel'
p193
I1
sS'sure'
p194
I1
sS'information'
p195
I1
sS'describe'
p196
I1
sS'paid'
p197
I2
sS'creatives'
p198
I1
sS'driven'
p199
I1
sS'000'
p200
I1
sS'plan'
p201
I1
sS'phase'
p202
I1
sS'communicator'
p203
I1
sS'data'
p204
I2
sS'cycle'
p205
I1
sS'wunderman.'
p206
I1
sS'get-go'
p207
I1
sS'database'
p208
I1
sS'industry'
p209
I1
sS'clear'
p210
I1
sS'documentation'
p211
I1
sS'well'
p212
I1
sS'drive'
p213
I2
sS'engagement'
p214
I1
sS'actionable'
p215
I1
sS'portion'
p216
I1
sVu
I2
sS'english'
p217
I1
sS'increase'
p218
I1
sS'annoyed'
p219
I1
s.