(dp1
S'skills'
p2
(lp3
S'owl'
p4
aS'knowledge management'
p5
aS'rest'
p6
aS'devops'
p7
aS'ant'
p8
aS'engineering'
p9
aS'data governance'
p10
aS'go'
p11
aS'ic'
p12
aS'arm'
p13
aS'statistics'
p14
aS'big data'
p15
aS'integration'
p16
aS'governance'
p17
aS'access'
p18
aS'computer science'
p19
aS'ip'
p20
aS'mathematics'
p21
aS'pl'
p22
aS'apis'
p23
aS'management'
p24
aS'data'
p25
aS'a'
aS'c'
aS'erp'
p26
aS'science'
p27
aS'machine learning'
p28
aS'r'
aS'physics'
p29
aS'data integration'
p30
asS'working-year'
p31
(lp32
S'0 year'
p33
asS'major'
p34
(lp35
S'statistics'
p36
aS'big data'
p37
aS'ee'
p38
aS'knowledge management'
p39
aS'machine learning'
p40
aS'engineering'
p41
aS'management'
p42
aS'computer science'
p43
aS'statistic'
p44
aS'mathematics'
p45
aS'computer science mathematics'
p46
aS'physics'
p47
aVphysic
p48
aS'science'
p49
asS'education'
p50
(lp51
VBachelor
p52
aVMaster
p53
asS'responsibility'
p54
(lp55
s.