(dp1
S'skills'
p2
(lp3
S'owl'
p4
aS'consulting'
p5
aS'aws'
p6
aS'r d'
p7
aS'classification'
p8
aS'ip'
p9
aS'management consulting'
p10
aS'testing'
p11
aS'communication'
p12
aS'soc'
p13
aS'rest'
p14
aS'web services'
p15
aS'ant'
p16
aS'analytics'
p17
aS'investment management'
p18
aS'devops'
p19
aS'go'
p20
aS'sas'
p21
aS'hbase'
p22
aS'ic'
p23
aS'education'
p24
aS'amazon web services'
p25
aS'philosophy'
p26
aS'experimentation'
p27
aS'visualization'
p28
aS'git'
p29
aS'java'
p30
aS'nosql'
p31
aS'big data'
p32
aS'critical thinking'
p33
aS'agile'
p34
aS'cell'
p35
aS'excel'
p36
aS'hadoop'
p37
aS'strategy'
p38
aS'big data analytics'
p39
aS'statistica'
p40
aS'rf'
p41
aS'statistical software'
p42
aS'computer science'
p43
aS'sem'
p44
aS'visio'
p45
aS'amazon web services aws'
p46
aS'cassandra'
p47
aS'unstructured data'
p48
aS'pl'
p49
aS'a'
aS'scrum'
p50
aS'management'
p51
aS'vis'
p52
aS'python'
p53
aS'mongodb'
p54
aS'collaboration'
p55
aS'innovation'
p56
aS'data scientist'
p57
aS'statistics'
p58
aS'oop'
p59
aS'data analysis'
p60
aS'sql'
p61
aS'regression'
p62
aS'modeling'
p63
aS'data'
p64
aS'envi'
p65
aS'svm'
p66
aS'software development'
p67
aS'c'
aS'organization'
p68
aS'erp'
p69
aS'data visualization'
p70
aS'collaborative filtering'
p71
aS'sentiment analysis'
p72
aS'science'
p73
aS'market data'
p74
aS'mapreduce'
p75
aS'analysis'
p76
aS'machine learning'
p77
aS'r'
aS'algorithms'
p78
aS'architecture'
p79
aS'lte'
p80
aS'asset management'
p81
aS'statistical inference'
p82
aS'validation'
p83
aS'data analytics'
p84
aS'predictive analytics'
p85
asS'working-year'
p86
(lp87
S'7 year'
p88
aS'4 year'
p89
aS'5 year'
p90
aS'15 year'
p91
asS'major'
p92
(lp93
S'ee'
p94
aS'communication'
p95
aS'general'
p96
aS'analytics'
p97
aS'design'
p98
aS'statistic'
p99
aS'information'
p100
aS'management'
p101
aS'big data'
p102
aVapplied statistic
p103
aS'big data analytics'
p104
aS'computer science'
p105
aS'ece'
p106
aS'business'
p107
aS'philosophy'
p108
aS'phd'
p109
aS'statistics'
p110
aS'science'
p111
aS'machine learning'
p112
aS'statistics computer science'
p113
aS'data analytics'
p114
aS'predictive analytics'
p115
asS'education'
p116
(lp117
VBachelor
p118
aVMaster
p119
aVDoctor
p120
asS'responsibility'
p121
(lp122
S'development'
p123
aS'information'
p124
aS'product'
p125
aS'data analysis'
p126
aS'predict'
p127
aS'pattern'
p128
aS'modeling'
p129
aS'communicate'
p130
aS'analysis'
p131
aS'analytic'
p132
aS'statistical method'
p133
aS'design'
p134
aS'recommendation'
p135
aS'understand'
p136
aS'implement'
p137
aS'model'
p138
as.