(dp1
S'skills'
p2
(lp3
S'consulting'
p4
aS'ip'
p5
aS'hadoop'
p6
aS'vis'
p7
aS'statistical analysis'
p8
aS'linux'
p9
aS'go'
p10
aS'ic'
p11
aS'management'
p12
aS'r programming'
p13
aS'rf'
p14
aS'strategy'
p15
aS'statistica'
p16
aS'ssis'
p17
aS'innovation'
p18
aS'pl'
p19
aS'finance'
p20
aS'facebook'
p21
aS'oop'
p22
aS'business transformation'
p23
aS'a'
aS'c'
aS'documentation'
p24
aS'programming'
p25
aS'analysis'
p26
aS'banking'
p27
aS'r'
aS'retail'
p28
asS'working-year'
p29
(lp30
S'2 year'
p31
asS'major'
p32
(lp33
S'information'
p34
aS'management'
p35
aS'finance'
p36
aS'business'
p37
aS'ee'
p38
aS'banking finance'
p39
aS'statistic'
p40
asS'education'
p41
(lp42
VBachelor
p43
aVMaster
p44
asS'responsibility'
p45
(lp46
S'development'
p47
aS'information'
p48
aS'product'
p49
aS'documentation'
p50
aS'communicate'
p51
aS'analysis'
p52
aS'understand'
p53
aS'report'
p54
aS'transformation'
p55
as.