(dp1
S'skills'
p2
(lp3
S'owl'
p4
aS'r d'
p5
aS'communication'
p6
aS'artificial intelligence'
p7
aS'rest'
p8
aS'ant'
p9
aS'analytics'
p10
aS'engineering'
p11
aS'data analysis'
p12
aS'analysis'
p13
aS'linux'
p14
aS'go'
p15
aS'ic'
p16
aS'research'
p17
aS'image processing'
p18
aS'parallel computing'
p19
aS'rf'
p20
aS'writing'
p21
aS'ssis'
p22
aS'matlab'
p23
aS'visio'
p24
aS'intelligence'
p25
aS'algorithm development'
p26
aS'pl'
p27
aS'computer science'
p28
aS'asp'
p29
aS'signal processing'
p30
aS'government'
p31
aS'python'
p32
aS'collaboration'
p33
aS'processing'
p34
aS'c'
aS'gpu'
p35
aS'technical writing'
p36
aS'data'
p37
aS'a'
aS'report writing'
p38
aS'search'
p39
aS'pattern recognition'
p40
aS'parallel programming'
p41
aS'vis'
p42
aS'windows'
p43
aS'cognition'
p44
aS'programming'
p45
aS'c++'
p46
aS'machine learning'
p47
aS'r'
aS'data analytics'
p48
aS'science'
p49
aS'electrical engineering'
p50
aS'cro'
p51
aS'computer vision'
p52
aS'envi'
p53
asS'working-year'
p54
(lp55
S'3 year'
p56
asS'major'
p57
(lp58
S'information'
p59
aS'computing'
p60
aS'ee'
p61
aS'science'
p62
aS'intelligent systems'
p63
aS'machine learning'
p64
aS'analytics'
p65
aS'engineering'
p66
aS'electrical'
p67
aS'artificial intelligence'
p68
aS'communication'
p69
aS'electrical engineering'
p70
aS'mis'
p71
aS'data analytics'
p72
aS'computer science'
p73
asS'education'
p74
(lp75
VBachelor
p76
aVMaster
p77
aVDoctor
p78
asS'responsibility'
p79
(lp80
S'development'
p81
aS'information'
p82
aS'data analysis'
p83
aS'extract'
p84
aS'processing'
p85
aS'analysis'
p86
aS'analytic'
p87
aS'pattern'
p88
aS'report'
p89
aS'interface'
p90
as.