(dp1
S'limited'
p2
I1
sS'predictive modeling'
p3
I1
sS'data scientist'
p4
I1
sS'help'
p5
I1
sS'text'
p6
I1
sS'insight'
p7
I2
sS'invent'
p8
I1
sS'existing'
p9
I1
sS'manager'
p10
I1
sS'interpersonal'
p11
I1
sS'including'
p12
I1
sS'statistical'
p13
I1
sS'go'
p14
I1
sS'skill'
p15
I1
sS'optimization.'
p16
I1
sS'neural networks'
p17
I1
sS'discipline'
p18
I1
sS'looking'
p19
I1
sS'knowledge'
p20
I4
sS'tx'
p21
I1
sS'located'
p22
I1
sS'technique'
p23
I1
sS'machine learning statistics'
p24
I1
sS'include'
p25
I1
sS'data mining machine learning'
p26
I1
sS'real'
p27
I1
sS'ranking'
p28
I2
sS'python'
p29
I1
sS'online'
p30
I4
sS'applecare'
p31
I2
sS'association'
p32
I1
sS'success'
p33
I2
sS'identifying'
p34
I1
sS'ad-hoc'
p35
I2
sS'fieldstrong'
p36
I1
sS'problems.'
p37
I1
sS'solution'
p38
I2
sS'c++'
p39
I1
sS'viable'
p40
I1
sS'large'
p41
I2
sS'team'
p42
I2
sS'analytical'
p43
I1
sS'identify'
p44
I1
sS'classifier'
p45
I2
sS'languageexcellent'
p46
I1
sS'work'
p47
I2
sS'analysis-'
p48
I2
sS'verbal'
p49
I1
sS'feature extraction'
p50
I1
sS'direct'
p51
I1
sS'related'
p52
I2
sS'detection'
p53
I1
sS'design'
p54
I2
sS'result'
p55
I2
sS'begun'
p56
I1
sVoperation
p57
I1
sS'beyond'
p58
I1
sS'best'
p59
I1
sS'solutions.'
p60
I1
sS'necessary.'
p61
I1
sS'network'
p62
I1
sS'pattern'
p63
I1
sS'decision'
p64
I1
sS'current'
p65
I1
sS'may'
p66
I1
sS'written'
p67
I1
sS'various'
p68
I1
sS'designing'
p69
I1
sS'new'
p70
I3
sS'operations.'
p71
I1
sS'across'
p72
I2
sS'discovery'
p73
I1
sS'completion'
p74
I1
sS'business'
p75
I1
sS'ph.d.'
p76
I1
sS'team leadership'
p77
I1
sS'deliver'
p78
I1
sS'leadership'
p79
I1
sS'modeling'
p80
I2
sS'onsite'
p81
I1
sS'natural language processing'
p82
I2
sS'working'
p83
I3
sS'data visualization'
p84
I1
sS'industry'
p85
I1
sS'anomaly detection'
p86
I1
sS'programming'
p87
I1
sS'experience'
p88
I2
sS'thing'
p89
I1
sS'amount'
p90
I1
sS'site-'
p91
I2
sS'implement'
p92
I1
sS'austin'
p93
I1
sS'support'
p94
I6
sS'5+ year'
p95
I1
sS'apple'
p96
I2
sS'probability'
p97
I1
sS'sqlcreativity'
p98
I1
sS'predictive'
p99
I1
sS'data science'
p100
I2
sS'problemstrong'
p101
I1
sS'self-driven'
p102
I1
sS'data warehousing'
p103
I1
sS'analysis.'
p104
I1
sS'data mining'
p105
I3
sS"applecare's"
p106
I1
sS'glean'
p107
I2
sS'statistics operations research'
p108
I1
sS'clustering'
p109
I1
sS'java'
p110
I1
sS'service'
p111
I2
sS'area'
p112
I3
sS'tremendous'
p113
I1
sS'opportunity'
p114
I1
sS'create'
p115
I2
sS'creativity'
p116
I1
sS'quickly'
p117
I1
sS'analyze'
p118
I2
sS'operations research'
p119
I2
sS'mining'
p120
I2
sS'business problem'
p121
I1
sS'tool'
p122
I1
sS'measurable'
p123
I1
sS'key decision'
p124
I1
sS'present'
p125
I2
sS'datasets'
p126
I2
sS'applying'
p127
I1
sS'developing'
p128
I1
sS'science'
p129
I2
sS'tree'
p130
I1
sS'skillsability'
p131
I1
sS'machine learning'
p132
I2
sS'project'
p133
I1
sS'm.s.'
p134
I1
sS'exploration'
p135
I1
sS'learn'
p136
I1
sS'making'
p137
I1
sS'similar'
p138
I1
sS'communication skills'
p139
I1
sS'statistical analysis'
p140
I1
sS'outstanding'
p141
I1
sS'metric'
p142
I2
sS'measure'
p143
I2
sS'rule'
p144
I1
sS'regression'
p145
I1
sS'end'
p146
I2
sS'perform'
p147
I4
sS'impact'
p148
I1
sS'comfort'
p149
I1
sS'-'
I7
sS'feature'
p150
I2
sS'field'
p151
I1
sS'interested'
p152
I1
sS'role'
p153
I2
sS'networksfamiliarity'
p154
I1
sS'campus.'
p155
I1
sS'able/willing'
p156
I1
sS'customize'
p157
I1
sS'position'
p158
I2
sS'data'
p159
I6
sS'projectsthrives'
p160
I1
sS'independently'
p161
I1
sS'algorithm'
p162
I4
sS'database'
p163
I1
sVstatistic
p164
I2
sS'drive'
p165
I1
sS'analysis'
p166
I2
sS'actionable'
p167
I2
sS'person'
p168
I1
sS'principle'
p169
I1
sS'broad'
p170
I1
sS'quantitative'
p171
I1
sS'requires'
p172
I1
s.