(dp1
S'roi'
p2
I1
sS'predictive modeling'
p3
I1
sS'data scientist'
p4
I1
sS'chain'
p5
I1
sS'show'
p6
I1
sVapplied statistic
p7
I1
sS'coordinating'
p8
I1
sS'named'
p9
I1
sS'nasdaq'
p10
I1
sS'including'
p11
I1
sS'follow'
p12
I1
sS'discipline'
p13
I1
sS'leader'
p14
I1
sS'wppgy'
p15
I1
sS'wunderman'
p16
I4
sS'knowledge'
p17
I2
sS'technique'
p18
I1
sS'writing'
p19
I1
sS'environment'
p20
I1
sS'analytic'
p21
I1
sS'foster'
p22
I1
sS'combine'
p23
I1
sS'2015'
p24
I1
sS'presentation'
p25
I1
sS'customer'
p26
I1
sS'global'
p27
I1
sS'attribution'
p28
I1
sS'exceptional'
p29
I1
sS'expectation'
p30
I1
sS'preferred'
p31
I1
sS'creatively'
p32
I1
sS'report'
p33
I1
sS'wpp'
p34
I1
sS'advanced'
p35
I1
sS'resolve'
p36
I1
sS'level'
p37
I1
sS'strategist'
p38
I1
sS'qualitative'
p39
I1
sS'method'
p40
I1
sS'capability'
p41
I1
sS'team'
p42
I2
sS'analytical'
p43
I1
sS'output'
p44
I1
sS'markov'
p45
I1
sS'verbal'
p46
I1
sS'people'
p47
I1
sS'testing'
p48
I1
sS'segmentation'
p49
I2
sS'3-5 year'
p50
I1
sS'individual'
p51
I1
sS'design'
p52
I1
sS'result'
p53
I2
sS'statistic'
p54
I2
sS'operation'
p55
I1
sS'degree'
p56
I1
sS'managing'
p57
I1
sS'timeliness'
p58
I1
sS'please'
p59
I1
sS'looking'
p60
I1
sS'written'
p61
I1
sS'7'
I1
sS'new'
p62
I2
sS'issue'
p63
I1
sS'across'
p64
I2
sS'multitude'
p65
I1
sS'multivariate'
p66
I1
sS'comparable'
p67
I1
sS'data analysis'
p68
I2
sS'business'
p69
I1
sS'marketing'
p70
I3
sS'deliver'
p71
I1
sS'loyalty'
p72
I1
sS'york'
p73
I1
sS'key'
p74
I1
sS'modeling'
p75
I1
sS'strong'
p76
I1
sS'interpret'
p77
I1
sS'talented'
p78
I1
sS'brands.'
p79
I1
sS'industry'
p80
I1
sS'experience'
p81
I5
sS'keen'
p82
I1
sS'000'
p83
I1
sS'ensure'
p84
I1
sS'context'
p85
I1
sS'action'
p86
I1
sS'markets.'
p87
I1
sS'inspires'
p88
I1
sS'inspired.'
p89
I1
sS'consulting'
p90
I1
sS'engagement'
p91
I1
sS'statistical modeling'
p92
I1
sS'visit'
p93
I1
sS'manage'
p94
I1
sS'highly'
p95
I1
sS'60'
p96
I1
sS'strategy.'
p97
I1
sS'performer'
p98
I1
sS'contributor'
p99
I1
sS'apply'
p100
I1
sS'175'
p101
I1
sS'technologist'
p102
I1
sS'quality'
p103
I2
sS'leverage'
p104
I1
sS'working'
p105
I3
sS'leading'
p106
I1
sS'driven.'
p107
I1
sS'creativity'
p108
I1
sS'fast'
p109
I1
sS'strategy'
p110
I1
sS'systems.'
p111
I1
sS'intermediate'
p112
I3
sS'3+ year'
p113
I2
sS'analyze'
p114
I1
sS'.'
I1
sS'within/across'
p115
I1
sS'medium'
p116
I1
sS'relationship'
p117
I1
sS'brings'
p118
I1
sS'company'
p119
I1
sS'multi-channel'
p120
I1
sS'statistical model'
p121
I1
sS'environment.'
p122
I1
sS'delivers'
p123
I1
sS'analyst'
p124
I2
sS'work'
p125
I2
sS'value'
p126
I2
sS'project'
p127
I1
sS'learn'
p128
I1
sS'meet'
p129
I1
sS'problem'
p130
I1
sS'plus'
p131
I1
sS'willingness'
p132
I1
sS'share'
p133
I1
sS'together'
p134
I1
sS'lifetime'
p135
I1
sS'need'
p136
I1
sS'partner'
p137
I1
sS'market basket analysis'
p138
I1
sS'regression'
p139
I1
sS'mathematics economics'
p140
I1
sS'information'
p141
I2
sS'develop'
p142
I1
sS'prior'
p143
I1
sS'provide'
p144
I1
sS'transactional'
p145
I1
sS'agency'
p146
I3
sS'contact'
p147
I1
sS'mix'
p148
I1
sS'methodology'
p149
I1
sS'internal'
p150
I2
sS'take'
p151
I1
sS'digital'
p152
I1
sS'test'
p153
I1
sS'survey'
p154
I1
sS'multiple'
p155
I1
sS'collaborative'
p156
I1
sS'office'
p157
I1
sS'headquartered'
p158
I1
sS'business.'
p159
I1
sS'creatives'
p160
I1
sS'involving'
p161
I1
sS'purpose'
p162
I1
sS'sql'
p163
I1
sS'data'
p164
I5
sS'5 year'
p165
I1
sS'wunderman.'
p166
I1
sS'database'
p167
I1
sS'macro'
p168
I1
sS'well'
p169
I1
sS'drive'
p170
I1
sS'deliverable'
p171
I1
sS'exploratory data analysis'
p172
I1
sS'client'
p173
I4
sS'u'
I1
sS'consistency'
p174
I1
sS'quantitative'
p175
I2
sVsa
p176
I1
s.