(dp1
S'skills'
p2
(lp3
S'owl'
p4
aS'soc'
p5
aS'r d'
p6
aS'excel'
p7
aS'testing'
p8
aS'communication'
p9
aS'rest'
p10
aS'ant'
p11
aS'analytics'
p12
aS'problem solving'
p13
aS'go'
p14
aS'ic'
p15
aS'visualization'
p16
aS'java'
p17
aS'big data'
p18
aS'mathematica'
p19
aS'asic'
p20
aS'envi'
p21
aS'cell'
p22
aS'statistica'
p23
aS'ssis'
p24
aS'ip'
p25
aS'mathematics'
p26
aS'pl'
p27
aS'distributed computing'
p28
aS'python'
p29
aS'innovation'
p30
aS'data scientist'
p31
aS'business process'
p32
aS'organization'
p33
aS'data'
p34
aS'a'
aS'c'
aS'erp'
p35
aS'data visualization'
p36
aS'vis'
p37
aS'science'
p38
aS'programming'
p39
aS'mapreduce'
p40
aS'r'
aS'lte'
p41
aS'databases'
p42
aS'military'
p43
aS'validation'
p44
aS'root'
p45
aS'cro'
p46
aS'data analytics'
p47
asS'working-year'
p48
(lp49
S'3 years'
p50
aS'3 year'
p51
aS'1-3 years'
p52
asS'major'
p53
(lp54
S'information'
p55
aS'arts'
p56
aS'business'
p57
aS'big data'
p58
aS'computing'
p59
aS'ee'
p60
aS'science'
p61
aS'communication'
p62
aS'general'
p63
aS'analytics'
p64
aVphysic
p65
aS'statistic'
p66
aS'mathematics'
p67
aS'mis'
p68
aS'law'
p69
aS'data analytics'
p70
aS'history'
p71
asS'education'
p72
(lp73
VBachelor
p74
aVMaster
p75
asS'responsibility'
p76
(lp77
S'information'
p78
aS'product'
p79
aS'pattern'
p80
aVinsight
p81
aS'analytic'
p82
aS'understand'
p83
aS'quantitative information'
p84
aS'report'
p85
aS'model'
p86
as.