(dp1
S'skills'
p2
(lp3
S'owl'
p4
aS'soc'
p5
aS'r d'
p6
aS'ip'
p7
aS'energy'
p8
aS'information management'
p9
aS'ant'
p10
aS'vis'
p11
aS'problem solving'
p12
aS'sas'
p13
aS'ic'
p14
aS'research'
p15
aS'access'
p16
aS'management'
p17
aS'open source'
p18
aS'scala'
p19
aS'critical thinking'
p20
aS'excel'
p21
aS'rf'
p22
aS'writing'
p23
aS'cell'
p24
aS'lua'
p25
aS'ssis'
p26
aS'communication'
p27
aS'intelligence'
p28
aS'pl'
p29
aS'envi'
p30
aS'processing'
p31
aS'c'
aS'risk analysis'
p32
aS'aviation'
p33
aS'data'
p34
aS'a'
aS'search'
p35
aS'disaster recovery'
p36
aS'analysis'
p37
aS'r'
aS'command'
p38
aS'military'
p39
aS'security'
p40
aS'visual c'
p41
aS'microsoft office'
p42
aS'cro'
p43
aS'sd'
p44
asS'working-year'
p45
(lp46
S'3 years'
p47
aS'1 year'
p48
asS'major'
p49
(lp50
S'information'
p51
aS'ece'
p52
aS'management'
p53
aS'business'
p54
aS'ee'
p55
aS'communication'
p56
aS'information management'
p57
aS'law'
p58
aVphysic
p59
asS'education'
p60
(lp61
VBachelor
p62
aVMaster
p63
asS'responsibility'
p64
(lp65
S'information'
p66
aS'processing'
p67
aS'analysis'
p68
aS'improvement'
p69
aS'analytic'
p70
aS'report'
p71
as.