(dp1
S'skills'
p2
(lp3
S'research design'
p4
aS'owl'
p5
aS'marketing analytics'
p6
aS'powerpoint'
p7
aS'excel'
p8
aS'communication'
p9
aS'rest'
p10
aS'ant'
p11
aS'analytics'
p12
aS'data-driven decision making'
p13
aS'problem solving'
p14
aS'sas'
p15
aS'analysis'
p16
aS'ic'
p17
aS'arm'
p18
aS'visualization'
p19
aS'statistics'
p20
aS'gis'
p21
aS'critical thinking'
p22
aS'asic'
p23
aS'anova'
p24
aS'research'
p25
aS'statistica'
p26
aS'html'
p27
aS'statistical software'
p28
aS'stata'
p29
aS'ip'
p30
aS'mathematics'
p31
aS'pl'
p32
aS'vis'
p33
aS'python'
p34
aS'marketing'
p35
aS'data scientist'
p36
aS'c'
aS'java'
p37
aS'management'
p38
aS'sql'
p39
aS'regression'
p40
aS'word'
p41
aS'data'
p42
aS'a'
aS'analytical skills'
p43
aS'search'
p44
aS'erp'
p45
aS'data visualization'
p46
aS'database management'
p47
aS'statistical analysis'
p48
aS'economics'
p49
aS'communication skills'
p50
aS'spss'
p51
aS'r'
aS'dashboard'
p52
aS'logistic regression'
p53
aS'organization'
p54
aS'cro'
p55
aS'data analytics'
p56
aS'visual c'
p57
asS'working-year'
p58
(lp59
S'3 year'
p60
aS'1 year'
p61
asS'major'
p62
(lp63
S'mathematics economics'
p64
aS'management'
p65
aS'business'
p66
aS'information'
p67
aS'ee'
p68
aS'marketing'
p69
aS'economics'
p70
aS'communication'
p71
aS'marketing analytics'
p72
aS'analytics'
p73
aS'statistics'
p74
aS'design'
p75
aS'statistic'
p76
aS'mathematics'
p77
aS'mis'
p78
aS'data analytics'
p79
asS'education'
p80
(lp81
VBachelor
p82
aVMaster
p83
asS'responsibility'
p84
(lp85
S'information'
p86
aS'product'
p87
aS'communicate'
p88
aS'analysis'
p89
aS'statistical model'
p90
aS'analytic'
p91
aS'design'
p92
aS'report'
p93
aS'understand'
p94
aS'implement'
p95
aS'extract'
p96
aS'model'
p97
as.