(dp1
S'skills'
p2
(lp3
S'owl'
p4
aS'consulting'
p5
aS'r d'
p6
aS'ip'
p7
aS'data science'
p8
aS'portfolio management'
p9
aS'tableau'
p10
aS'ant'
p11
aS'analytics'
p12
aS'business intelligence'
p13
aS'data analysis'
p14
aS'statistical analysis'
p15
aS'sas'
p16
aS'ic'
p17
aS'sas programming'
p18
aS'data analytics'
p19
aS'visualization'
p20
aS'management'
p21
aS'java'
p22
aS'rdbms'
p23
aS'big data'
p24
aS'vertica'
p25
aS'c'
aS'excel'
p26
aS'integration'
p27
aS'research'
p28
aS'cell'
p29
aS'risk management'
p30
aS'rf'
p31
aS'html'
p32
aS'communication'
p33
aS'intelligence'
p34
aS'mathematics'
p35
aS'banking'
p36
aS'data management'
p37
aS'text mining'
p38
aS'envi'
p39
aS'business analysis'
p40
aS'advanced analytics'
p41
aS'python'
p42
aS'design thinking'
p43
aS'data scientist'
p44
aS'search'
p45
aS'data quality'
p46
aS'metrics'
p47
aS'cro'
p48
aS'leadership'
p49
aS'sql'
p50
aS'spotfire'
p51
aS'data'
p52
aS'project management'
p53
aS'statistica'
p54
aS'a'
aS'business intelligence tools'
p55
aS'training'
p56
aS'erp'
p57
aS'continuous improvement'
p58
aS'performance metrics'
p59
aS'vis'
p60
aS'science'
p61
aS'programming'
p62
aS'analysis'
p63
aS'machine learning'
p64
aS'credit'
p65
aS'r'
aS'architecture'
p66
aS'soc'
p67
aS'pl'
p68
aS'data integration'
p69
asS'working-year'
p70
(lp71
S'3-5 year'
p72
aS'5 year'
p73
aS'3 year'
p74
aS'2-3 year'
p75
asS'major'
p76
(lp77
S'information'
p78
aS'management'
p79
aS'business analysis'
p80
aS'big data'
p81
aS'ee'
p82
aS'science'
p83
aS'data science'
p84
aS'communication'
p85
aS'mba'
p86
aS'machine learning'
p87
aS'business'
p88
aS'analytics'
p89
aS'design'
p90
aS'project management'
p91
aS'statistic'
p92
aS'advanced analytics'
p93
aS'mathematics'
p94
aS'data analytics'
p95
asS'education'
p96
(lp97
VBachelor
p98
aVMaster
p99
asS'responsibility'
p100
(lp101
S'development'
p102
aS'information'
p103
aS'product'
p104
aS'data analysis'
p105
aS'business problem'
p106
aVinsight
p107
aS'communicate'
p108
aS'analysis'
p109
aS'improvement'
p110
aS'analytic'
p111
aS'design'
p112
aS'report'
p113
aS'understand'
p114
aS'implement'
p115
aS'data sourcing'
p116
as.