(dp1
S'skills'
p2
(lp3
S'owl'
p4
aS'consulting'
p5
aS'r d'
p6
aS'excel'
p7
aS'testing'
p8
aS'communication'
p9
aS'vis'
p10
aS'data analysis'
p11
aS'go'
p12
aS'ic'
p13
aS'research'
p14
aS'cell'
p15
aS'management'
p16
aS'java'
p17
aS'big data'
p18
aS'asic'
p19
aS'rf'
p20
aS'time management'
p21
aS'big data analytics'
p22
aS'ssis'
p23
aS'html'
p24
aS'ip'
p25
aS'pl'
p26
aS'innovation'
p27
aS'envi'
p28
aS'python'
p29
aS'ios'
p30
aS'javascript'
p31
aS'data scientist'
p32
aS'search'
p33
aS'sql'
p34
aS'php'
p35
aS'data'
p36
aS'a'
aS'c'
aS'ampl'
p37
aS'analytics'
p38
aS'stl'
p39
aS'analysis'
p40
aS'r'
aS'cro'
p41
aS'data analytics'
p42
asS'working-year'
p43
(lp44
S'0 year'
p45
asS'major'
p46
(lp47
S'information'
p48
aS'management'
p49
aS'business'
p50
aS'big data'
p51
aS'ee'
p52
aS'communication'
p53
aS'big data analytics'
p54
aS'analytics'
p55
aS'data analytics'
p56
asS'education'
p57
(lp58
VBachelor
p59
aVMaster
p60
asS'responsibility'
p61
(lp62
S'development'
p63
aS'information'
p64
aS'product'
p65
aS'data analysis'
p66
aS'presentation'
p67
aVinsight
p68
aS'analysis'
p69
aS'analytic'
p70
aS'understand'
p71
aS'extract'
p72
as.