(dp1
S'limited'
p2
I1
sS'focus'
p3
I3
sS'existing'
p4
I1
sS'innovations.'
p5
I1
sS'environment'
p6
I2
sS'position.'
p7
I1
sS'oversight'
p8
I1
sS'collaborate'
p9
I1
sS'provider'
p10
I1
sS'advice.'
p11
I1
sS'every'
p12
I1
sS"americas'"
p13
I1
sS'timely'
p14
I1
sS'accompanying'
p15
I1
sS'fast-paced'
p16
I1
sS'applicable'
p17
I1
sS'relentlessly'
p18
I1
sS'large'
p19
I1
sS'originations.'
p20
I1
sS'world-class'
p21
I1
sS'financial services'
p22
I1
sS'team'
p23
I3
sS'brave'
p24
I1
sS'force'
p25
I1
sS'others.'
p26
I1
sS'product development'
p27
I1
sS'richard'
p28
I1
sS'capital'
p29
I10
sS'new'
p30
I4
sS'ever'
p31
I1
sS'public'
p32
I1
sS'crunch'
p33
I1
sS'led'
p34
I1
sS'supervision.'
p35
I1
sS'understanding'
p36
I1
sS'protection'
p37
I2
sS'focused'
p38
I1
sS'rewarding.'
p39
I1
sS'100'
p40
I1
sS'reporting/escalation'
p41
I1
sS'engage'
p42
I1
sS'compliance'
p43
I1
sS'experience'
p44
I7
sS'credit'
p45
I1
sS'high-tech'
p46
I1
sS'guidance'
p47
I2
sS'apple'
p48
I1
sS'lending'
p49
I2
sS'manage'
p50
I1
sS'ipo'
p51
I1
sS'standing'
p52
I1
sS'fee'
p53
I1
sS'working'
p54
I4
sS'two'
p55
I1
sS'6'
I1
sS'today'
p56
I1
sS'ecoa'
p57
I2
sS'successful'
p58
I1
sS'company'
p59
I7
sS'excellent'
p60
I1
sS'known'
p61
I1
sS'customer'
p62
I1
sS'account'
p63
I1
sS'1994'
p64
I1
sS'dodd'
p65
I2
sS'work'
p66
I6
sS'wallet'
p67
I1
sS'growing'
p68
I1
sS'arise'
p69
I1
sS'united'
p70
I2
sS'provide'
p71
I2
sS'comfort'
p72
I1
sS'cfpb.'
p73
I1
sS'tila'
p74
I2
sS'product'
p75
I2
sS'may'
p76
I1
sS'advice'
p77
I2
sS'fueled'
p78
I1
sS'membership'
p79
I1
sS'designed'
p80
I1
sS'plano'
p81
I3
sS'law'
p82
I5
sS'authentic'
p83
I1
sS'effective'
p84
I1
sS'applicant'
p85
I1
sS'acknowledged'
p86
I1
sS'maintain'
p87
I1
sVresponsibility
p88
I1
sS'dream'
p89
I1
sS'r d'
p90
I1
sS'in-house'
p91
I2
sS'including'
p92
I4
sS'still'
p93
I1
sS'better'
p94
I1
sS'policy'
p95
I2
sS'texas'
p96
I1
sS'colleague'
p97
I2
sS'good'
p98
I1
sS'finance'
p99
I12
sS'ceo'
p100
I1
sS'auto'
p101
I12
sS'origination'
p102
I3
sS'practice'
p103
I1
sS'framework'
p104
I1
sS'j.d.'
p105
I1
sS'strategic'
p106
I1
sS'day'
p107
I1
sS'bank'
p108
I2
sS"magazine's"
p109
I1
sS'7 year'
p110
I1
sS'level'
p111
I1
sS'taglines'
p112
I1
sS'2+ year'
p113
I1
sS'financial'
p114
I4
sS'related'
p115
I2
sS'sponsor'
p116
I1
sS'personalization'
p117
I1
sS'laboratory'
p118
I1
sS'hacker'
p119
I1
sS'since'
p120
I1
sS'looking'
p121
I1
sS'emerged'
p122
I1
sS'issue'
p123
I5
sS"one's"
p124
I6
sS'frank'
p125
I2
sS'million'
p126
I1
sS'data scientist'
p127
I1
sS'advisor'
p128
I1
sS'regulatory'
p129
I7
sS'card'
p130
I1
sS'thing'
p131
I1
sS'massive'
p132
I1
sVqualification
p133
I2
sS'think'
p134
I1
sS'first'
p135
I1
sS'5+ year'
p136
I1
sS'one'
p137
I6
sS'customization'
p138
I1
sS'nyse'
p139
I1
sS'financing.'
p140
I1
sS'service'
p141
I5
sS'suddenly.'
p142
I1
sS'introduction'
p143
I1
sS'breed'
p144
I1
sS'least'
p145
I2
sS'regulation'
p146
I4
sS'relationship'
p147
I1
sS'serve'
p148
I2
sS'scientists.'
p149
I1
sS'texas.'
p150
I1
sS'finance.'
p151
I1
sS'matter'
p152
I8
sS'doctorate'
p153
I1
sS'providing'
p154
I1
sS'proactive'
p155
I1
sS'willingness'
p156
I1
sS'responsible'
p157
I1
sS'-'
I1
sS'thorough'
p158
I1
sS'also'
p159
I1
sS'internal'
p160
I3
sS'build'
p161
I2
sS'collaboration'
p162
I1
sS'business.'
p163
I1
sS'america'
p164
I1
sS'assisting'
p165
I1
sS'sale'
p166
I4
sS"you'll"
p167
I1
sS'tech'
p168
I1
sS'consumer'
p169
I11
sS'emerging'
p170
I1
sS'one.'
p171
I1
sS'find'
p172
I1
sS'knowledge'
p173
I2
sS'occ'
p174
I1
sVstate
p175
I4
sS'pretty'
p176
I1
sS'achieve'
p177
I1
sS'regularly'
p178
I1
sS'founding'
p179
I1
sS'assistant'
p180
I2
sS'designing'
p181
I1
sS'preferred'
p182
I1
sS'explosively'
p183
I1
sS'127'
p184
I1
sS'bar'
p185
I1
sS'artist'
p186
I1
sS'regulations.'
p187
I1
sS'requirement'
p188
I1
sS'fair'
p189
I1
sS'analytics'
p190
I1
sS'close'
p191
I1
sS'40b+'
p192
I1
sS'best'
p193
I2
sS'subject'
p194
I2
sS'interacting'
p195
I1
sS'expert'
p196
I1
sS'federal'
p197
I2
sS'review'
p198
I1
sS'outside'
p199
I1
sS'identification'
p200
I1
sS'affecting'
p201
I1
sS'across'
p202
I1
sS'thrive'
p203
I1
sS'2 year'
p204
I1
sS'ability'
p205
I4
sS'stakeholder'
p206
I2
sS'job'
p207
I1
sS'franchise'
p208
I1
sS'come'
p209
I1
sS'counselor'
p210
I1
sS'contract'
p211
I4
sS'cof'
p212
I1
sS'marketing analysis'
p213
I1
sS'innovating'
p214
I1
sS'among'
p215
I1
sS'relevant'
p216
I1
sS'initiative'
p217
I1
sS'65'
p218
I1
sS"it's"
p219
I2
sS'strategy'
p220
I1
sS'mitigation'
p221
I1
sS'basic'
p222
I1
sS'500'
p223
I1
sS'firm'
p224
I2
sS'balance'
p225
I1
sS'procedure'
p226
I1
sS'surprisingly'
p227
I1
sS'player'
p228
I1
sS'grown'
p229
I2
sS'develop'
p230
I2
sS'pay'
p231
I1
sS'member'
p232
I1
sS'complex'
p233
I2
sS'largest'
p234
I1
sS'advise'
p235
I2
sS'director'
p236
I2
sS'judgment'
p237
I1
sS'fcra'
p238
I2
sS'well'
p239
I1
sS'solve'
p240
I1
sS'position'
p241
I3
sS'rocker'
p242
I1
sS'juris'
p243
I1
sS'money'
p244
I1
sS'lives.'
p245
I1
sS'adding'
p246
I1
sS'candidate'
p247
I1
sS"we've"
p248
I1
sS'government'
p249
I2
sS'groups.'
p250
I1
sS'issues.'
p251
I1
sS'fortune'
p252
I2
sS'states.'
p253
I1
sS'8+ year'
p254
I1
sS'work-life'
p255
I1
sS'risks.'
p256
I1
sS'attorney'
p257
I5
sS'people'
p258
I1
sS'creation'
p259
I1
sS'born'
p260
I1
sS'employment'
p261
I1
sS'glba'
p262
I2
sS'scale'
p263
I1
sS'procedures.'
p264
I1
sS'bold.'
p265
I1
sS'broad'
p266
I1
sS'legal'
p267
I11
sS'innovation'
p268
I1
sS'31066'
p269
I1
sS'leader'
p270
I1
sS'minimal'
p271
I1
sS'scientific'
p272
I1
sS'business'
p273
I9
sS'marketing'
p274
I3
sS'leadership'
p275
I1
sS'relating'
p276
I2
sS'industry'
p277
I3
sS'recognized'
p278
I1
sS'range'
p279
I1
sS'ensure'
p280
I1
sS'act'
p281
I2
sS'for.'
p282
I1
sS'inclusion'
p283
I1
sS'within'
p284
I1
sS'entrepreneur'
p285
I1
sS'primarily'
p286
I1
sS'.'
I1
sS'support'
p287
I1
sS'hey'
p288
I1
sS'scra'
p289
I2
sS"we're"
p290
I1
sS'way'
p291
I1
sS'complete'
p292
I1
sS'offer'
p293
I1
sS'brand'
p294
I1
sS'audacious'
p295
I1
sS'volume'
p296
I1
sS'line'
p297
I1
sS'counsel'
p298
I2
sS'culture.'
p299
I1
sS'well-funded'
p300
I1
sS'inside'
p301
I1
sS'authorization'
p302
I1
sS'fairbank'
p303
I1
sS'defined'
p304
I1
sS'general'
p305
I2
sS'expertise'
p306
I1
sS'dealer'
p307
I1
sS'since.'
p308
I1
sS'corporation'
p309
I2
sS'department.'
p310
I1
sS'role'
p311
I6
sS'digital'
p312
I1
sS'department'
p313
I3
sS'includes'
p314
I1
sS'rule'
p315
I1
sS'mass'
p316
I1
sS'time'
p317
I1
sS'resolution'
p318
I1
s.