(dp1
S'breaking'
p2
I1
sS'0 year'
p3
I2
sS'office'
p4
I1
sS'iptv'
p5
I1
sS'including'
p6
I1
sS'technology'
p7
I1
sS'transport'
p8
I1
sS'ground'
p9
I1
sS'airgig'
p10
I1
sS'embodiment'
p11
I1
sS'network'
p12
I2
sS'tx'
p13
I1
sS'responsible'
p14
I1
sS'nobel'
p15
I1
sS"we're"
p16
I3
sS'designing'
p17
I1
sS'5g'
p18
I1
sS'eight'
p19
I1
sS'network.'
p20
I1
sS'...'
p21
I1
sS'read'
p22
I1
sVlab
p23
I1
sS"nation's"
p24
I1
sS'wireless'
p25
I2
sS'innovation.'
p26
I1
sS'part'
p27
I1
sS'wired'
p28
I1
sS'fastest'
p29
I1
sS'report'
p30
I1
sS'plano'
p31
I1
sS'shaping'
p32
I1
sS'building'
p33
I1
sVprize
p34
I1
sS'technology.'
p35
I1
sS'job'
p36
I1
sS'chief'
p37
I1
sS'future'
p38
I1
sS'lte'
p39
I1
sS'4g'
p40
I1
sS'cto'
p41
I1
sS'consumer'
p42
I1
s.