(dp1
S'skills'
p2
(lp3
S'owl'
p4
aS'ip'
p5
aS'troubleshooting'
p6
aS'laboratory'
p7
aS'ic'
p8
aS'networking'
p9
aS'critical thinking'
p10
aS'hipaa'
p11
aS'excel'
p12
aS'rf'
p13
aS'writing'
p14
aS'cell'
p15
aS'lua'
p16
aS'ssis'
p17
aS'asic'
p18
aS'computer science'
p19
aS'communication'
p20
aS'policy'
p21
aS'pl'
p22
aS'data munging'
p23
aS'business analysis'
p24
aS'valuation'
p25
aS'customer service'
p26
aS'data scientist'
p27
aS'automation'
p28
aS'sql'
p29
aS'data'
p30
aS'a'
aS'c'
aS'science'
p31
aS'analysis'
p32
aS'r'
aS'command'
p33
aS'english'
p34
aS'validation'
p35
asS'working-year'
p36
(lp37
S'3 year'
p38
asS'major'
p39
(lp40
S'information'
p41
aS'business analysis'
p42
aS'business'
p43
aS'ee'
p44
aS'science'
p45
aS'communication'
p46
aS'data analyst'
p47
aS'automation'
p48
aS'information system'
p49
aS'computer science'
p50
aS'english'
p51
asS'education'
p52
(lp53
VBachelor
p54
aVMaster
p55
asS'responsibility'
p56
(lp57
S'information'
p58
aS'communicate'
p59
aS'analysis'
p60
aS'analytic'
p61
aS'understand'
p62
aS'report'
p63
aS'implement'
p64
aS'evaluation'
p65
as.