(dp1
Vbenefit
p2
I3
sS'code'
p3
I1
sS'data scientist'
p4
I1
sS'help'
p5
I2
sS'real-time'
p6
I1
sS'dynamic'
p7
I1
sS'mission'
p8
I1
sS'competitive'
p9
I2
sS'taxable'
p10
I1
sS'scientist'
p11
I1
sS'committed'
p12
I1
sS'alternative'
p13
I1
sS'find'
p14
I1
sS'captured'
p15
I1
sS'design.'
p16
I1
sS'impact'
p17
I1
sS'adding'
p18
I1
sS'snack'
p19
I1
sS'based'
p20
I1
sS'system'
p21
I3
sS'implementation'
p22
I1
sS'story-telling'
p23
I1
sS'solving'
p24
I1
sS'ideation'
p25
I1
sS'analytic'
p26
I1
sS'production'
p27
I2
sS'present'
p28
I1
sS'easy'
p29
I1
sS'annual'
p30
I1
sS'employee'
p31
I1
sS'influencing'
p32
I1
sS'overcome'
p33
I1
sS'build'
p34
I1
sS'arent'
p35
I1
sS'format'
p36
I1
sS'python'
p37
I1
sS'big'
p38
I1
sS'scalable'
p39
I1
sS'preferred'
p40
I2
sS'focus'
p41
I1
sS'unstructured'
p42
I1
sS'finding'
p43
I1
sS'cutting'
p44
I1
sS'every'
p45
I2
sS'articulate'
p46
I1
sS'closely'
p47
I1
sS'desk'
p48
I1
sS'telling'
p49
I1
sS'world'
p50
I3
sS'rental'
p51
I4
sS'execute'
p52
I1
sS'open-source'
p53
I1
sS'problem statement'
p54
I1
sS'youll'
p55
I2
sS'8+ year'
p56
I1
sS'leader'
p57
I1
sS'large'
p58
I1
sS'audience'
p59
I1
sS'team'
p60
I7
sS'analyzing'
p61
I1
sS'stock'
p62
I1
sS'predictive analytics'
p63
I2
sS'enjoy'
p64
I1
sS'domain'
p65
I1
sS'people'
p66
I2
sS'frame'
p67
I1
sS'play'
p68
I1
sS'culture'
p69
I1
sS'pricing'
p70
I2
sVoperation
p71
I1
sS'investment'
p72
I1
sS'electric'
p73
I1
sS'project'
p74
I1
sS'scale'
p75
I2
sS'homeaway.com'
p76
I1
sS'expert'
p77
I2
sS'space'
p78
I1
sS'adjustable'
p79
I1
sS'away'
p80
I1
sS'localization'
p81
I1
sS'ph.d'
p82
I1
sS'forecast'
p83
I1
sS'critical'
p84
I1
sS'various'
p85
I2
sS'meaningful'
p86
I1
sS'ever'
p87
I1
sS'statistician'
p88
I1
sS'math'
p89
I1
sS'discovery'
p90
I1
sS'available'
p91
I1
sS'perfect'
p92
I1
sS'program'
p93
I1
sS'stakeholder'
p94
I1
sS'metro'
p95
I1
sS'business'
p96
I5
sS'visualization'
p97
I1
sS'communicate'
p98
I1
sS'empower'
p99
I1
sS'million'
p100
I2
sS'platform.'
p101
I1
sS'free'
p102
I2
sS'update'
p103
I1
sS'ideas.'
p104
I1
sS'prescriptive'
p105
I1
sS'job'
p106
I1
sS'leadership'
p107
I1
sS'strong'
p108
I1
sS'others'
p109
I1
sS'put'
p110
I1
sS'modeling'
p111
I2
sS'spark'
p112
I1
sS'r'
I1
sS'come'
p113
I1
sS'interpret'
p114
I1
sS'central'
p115
I1
sS'language'
p116
I1
sS'could'
p117
I1
sS'studied'
p118
I1
sS'programming'
p119
I1
sS'experience'
p120
I7
sS'operations research'
p121
I2
sS'throughput'
p122
I1
sS'airline'
p123
I1
sVqualification
p124
I1
sS'hypothesis testing'
p125
I1
sS'homeaway.com.'
p126
I1
sS'frequent'
p127
I1
sS'decision'
p128
I1
sS'yearly'
p129
I1
sS'major'
p130
I1
sS'homeaway'
p131
I2
sS'family'
p132
I2
sS'revenue'
p133
I7
sS'data science'
p134
I2
sS'anyone.'
p135
I1
sS'homeaway.'
p136
I1
sS'one'
p137
I2
sS'rentals.'
p138
I1
sS'api'
p139
I1
sS'simply'
p140
I1
sS'together.'
p141
I1
sS'maximize'
p142
I1
sS'i.e'
p143
I1
sS'owner'
p144
I2
sS'traveler'
p145
I1
sS'rail'
p146
I1
sS'market'
p147
I1
sVengineer
p148
I1
sS'story'
p149
I1
sS'management'
p150
I5
sS'stream'
p151
I1
sS'working'
p152
I3
sS'commission'
p153
I1
sS'leading'
p154
I2
sS'create'
p155
I1
sS'challenged'
p156
I1
sS'vacation'
p157
I6
sS'fast'
p158
I1
sS'review'
p159
I1
sS'basis'
p160
I1
sS'process'
p161
I1
sS'2'
I1
sVmaster
p162
I1
sS"we're"
p163
I1
sS'way'
p164
I1
sS'memory'
p165
I1
sS'knowledge'
p166
I1
sS'friend'
p167
I2
sS'strives'
p168
I1
sS'website'
p169
I1
sS'salary'
p170
I1
sS'life'
p171
I1
sS'occupancy'
p172
I1
sS'presentations.'
p173
I1
sS'company'
p174
I3
sS'hotel'
p175
I1
sS'health insurance'
p176
I1
sS'back'
p177
I1
sS'volume'
p178
I1
sS'technique'
p179
I1
sS'homeaways'
p180
I1
sS'understand'
p181
I2
sS'external'
p182
I1
sS'storytelling'
p183
I1
sS'demand'
p184
I2
sS'focusing'
p185
I1
sVanalyst
p186
I1
sS'task.'
p187
I1
sS'target'
p188
I1
sS'unlike'
p189
I1
sS'structured'
p190
I1
sS'challenge'
p191
I1
sS'work'
p192
I4
sS'internet-based/ecommerce/travel'
p193
I1
sVas
p194
I1
sS'machine learning'
p195
I2
sS'preparation'
p196
I1
sS'near'
p197
I1
sS'future'
p198
I1
sS'architect'
p199
I1
sS'stand-up'
p200
I1
sS'promising'
p201
I1
sS'growing'
p202
I1
sS'computer science'
p203
I2
sS'problem'
p204
I2
sS'property'
p205
I1
sS'etc.'
p206
I2
sS'industry'
p207
I1
sS'data science analytics'
p208
I1
sS'result'
p209
I1
sS'strongly'
p210
I1
sS'function'
p211
I1
sS'marketplace'
p212
I1
sS'economics'
p213
I1
sS'abstracting'
p214
I1
sS'forecasting'
p215
I1
sS'devise'
p216
I1
sS'semi-structured'
p217
I2
sS'alongside'
p218
I1
sS'engineering'
p219
I3
sS'obstacle'
p220
I1
sS'expertise'
p221
I2
sS'solve problem'
p222
I1
sS'want'
p223
I1
sS'partner'
p224
I1
sS'education'
p225
I1
sS'dress'
p226
I1
sS'management.'
p227
I1
sS'bookable'
p228
I1
sS'technologies.'
p229
I1
sS'monitoring'
p230
I1
sS'exploratory'
p231
I1
sS'calibration'
p232
I1
sVpa
p233
I1
sS'make'
p234
I1
sS'-'
I3
sS'hadoop'
p235
I1
sS'self-service'
p236
I1
sS'field'
p237
I1
sS'beverage'
p238
I1
sS'role'
p239
I1
sS'intuitive'
p240
I1
sS'sick'
p241
I1
sS'online'
p242
I2
sS'objective'
p243
I1
sVresponsibility
p244
I1
sS'unforgettable'
p245
I1
sS'mix.'
p246
I1
sS'unstructured data'
p247
I1
sS'difficult'
p248
I1
sS'listing'
p249
I1
sS'picture'
p250
I1
sS'product'
p251
I3
sS'ecosystem'
p252
I1
sS'description'
p253
I1
sS'bonus'
p254
I1
sS'price'
p255
I1
sS'assist'
p256
I1
sS'processing'
p257
I1
sS'business.'
p258
I1
sS'paid'
p259
I1
sS'alert'
p260
I1
sS'helping'
p261
I1
sS'visualize'
p262
I1
sS'sql'
p263
I1
sS'phase'
p264
I2
sS'core'
p265
I1
sS'aware'
p266
I1
sS'data'
p267
I8
sS'response'
p268
I2
sS'building'
p269
I4
sS'purchase'
p270
I1
sS'discounted'
p271
I1
sS'database'
p272
I1
sS'scala'
p273
I1
sVstatistic
p274
I1
sS'analysis'
p275
I1
sS'casual'
p276
I1
sS'complexity'
p277
I1
sS'edge'
p278
I1
sS'time'
p279
I2
sS'model'
p280
I3
sS'opportunity'
p281
I2
sS'travel'
p282
I1
sS'talk'
p283
I1
s.