(dp1
S'predictive modeling'
p2
I1
sS'data scientist'
p3
I1
sS'help'
p4
I1
sS'insight'
p5
I3
sS'invent'
p6
I1
sS'existing'
p7
I1
sS'discovered'
p8
I2
sS'manager'
p9
I1
sS'scientist'
p10
I2
sS'including'
p11
I1
sS'statistical'
p12
I2
sS'go'
p13
I1
sS'skill'
p14
I1
sS'analyses.-'
p15
I2
sS'networks.familiarity'
p16
I1
sS'abreast'
p17
I2
sS'optimization.'
p18
I2
sS'developer'
p19
I2
sS'impact'
p20
I1
sS'looking'
p21
I1
sS'knowledge'
p22
I3
sS'fit'
p23
I2
sS'projects.responsibilities'
p24
I2
sS'technique'
p25
I1
sS'environment'
p26
I2
sS'analytic'
p27
I5
sS'production'
p28
I2
sS'machine learning statistics'
p29
I1
sS'include'
p30
I2
sS'real'
p31
I1
sS'executive'
p32
I1
sS'python'
p33
I1
sS'closely'
p34
I2
sS'association'
p35
I1
sS'units.'
p36
I2
sS'conceive'
p37
I2
sS'problems.'
p38
I1
sS'solution'
p39
I10
sS'c++'
p40
I1
sS'solved'
p41
I2
sS'interpersonal'
p42
I1
sS'either'
p43
I1
sS'team'
p44
I3
sS'analytical'
p45
I1
sS'identify'
p46
I1
sS'predictive'
p47
I1
sS'requirement'
p48
I2
sS'verbal'
p49
I1
sS'encourages'
p50
I2
sS'intelligence'
p51
I1
sS'direct'
p52
I1
sS'related'
p53
I2
sS'detection'
p54
I3
sS'located'
p55
I1
sS'design'
p56
I2
sS'result'
p57
I2
sVstatistic
p58
I1
sVoperation
p59
I1
sS'beyond'
p60
I1
sS'best'
p61
I1
sS'solutions.'
p62
I1
sS'necessary.'
p63
I1
sS'network'
p64
I1
sS'pattern'
p65
I2
sS'decision'
p66
I1
sS'current'
p67
I1
sS'customize'
p68
I1
sS'written'
p69
I1
sS'various'
p70
I1
sS'statistics operations research'
p71
I1
sS'designing'
p72
I1
sS'viable'
p73
I1
sS'clustering'
p74
I1
sS'business'
p75
I14
sS'database'
p76
I1
sS'solutions.-'
p77
I4
sS'ph.d.'
p78
I1
sS'deliver'
p79
I1
sS'standard'
p80
I2
sS'attending'
p81
I2
sS'job'
p82
I1
sS'modeling'
p83
I2
sS'exciting'
p84
I2
sS'generate'
p85
I2
sS'mining.'
p86
I2
sS'technical'
p87
I2
sS'many'
p88
I4
sS'anomaly detection'
p89
I1
sS'programming'
p90
I1
sS'experience'
p91
I1
sS'apple.'
p92
I1
sS'amount'
p93
I2
sS'implement'
p94
I3
sS'austin'
p95
I1
sS'software'
p96
I2
sS'5+ year'
p97
I1
sS'apple'
p98
I5
sS'probability'
p99
I1
sS'languageexcellent'
p100
I1
sS'data science'
p101
I2
sS'problemstrong'
p102
I1
sS'data warehousing'
p103
I1
sS'data mining'
p104
I3
sS'owner'
p105
I4
sS'unit'
p106
I2
sS'conference'
p107
I2
sS'strong'
p108
I1
sS'java'
p109
I1
sS'leverage'
p110
I2
sS'working'
p111
I5
sS'eager'
p112
I2
sS'tremendous'
p113
I2
sS'opportunity'
p114
I1
sS'support'
p115
I4
sS'creativity'
p116
I1
sS'seamless'
p117
I2
sS'custom'
p118
I2
sS'foster'
p119
I2
sS'anomaly'
p120
I1
sS'operations research'
p121
I2
sS'scratched'
p122
I2
sS"apple's"
p123
I2
sS'business problem'
p124
I1
sS'tool'
p125
I3
sS'measurable'
p126
I1
sS'neural networks'
p127
I1
sS'key decision'
p128
I1
sS'texas.'
p129
I1
sS'present'
p130
I2
sS'initiatives.-'
p131
I2
sS'applying'
p132
I3
sS'students.'
p133
I2
sS'science'
p134
I9
sS'work'
p135
I7
sS'tree'
p136
I1
sS'skillsability'
p137
I1
sS'machine learning'
p138
I2
sS'project'
p139
I1
sS'm.s.'
p140
I1
sS'architect'
p141
I2
sS'making'
p142
I1
sS'problem'
p143
I3
sS'similar'
p144
I1
sS'communication skills'
p145
I1
sS'sql.creativity'
p146
I1
sS'developing'
p147
I1
sS'ad'
p148
I2
sS'outstanding'
p149
I1
sS'surface'
p150
I2
sS'business intelligence'
p151
I1
sS'rule'
p152
I1
sS'regression'
p153
I1
sS'autonomy'
p154
I2
sS'end'
p155
I8
sS'hoc'
p156
I2
sS'person'
p157
I1
sS'perform'
p158
I2
sS'comfort'
p159
I1
sS'-'
I2
sS'field'
p160
I2
sS'interested'
p161
I1
sS'role'
p162
I1
sS'warehouse'
p163
I2
sS'algorithm development'
p164
I1
sS'map'
p165
I2
sS'collaborative'
p166
I2
sS'may'
p167
I2
sS'development.-'
p168
I2
sS'stay'
p169
I2
sS'faculty'
p170
I2
sS'develop'
p171
I2
sS'data'
p172
I15
sS'users.-'
p173
I2
sS'independently'
p174
I1
sS'fielding'
p175
I1
sS'algorithm'
p176
I5
sS'analysis'
p177
I2
sS'academic'
p178
I2
sS'principle'
p179
I1
sS'allow'
p180
I2
sS'broad'
p181
I1
sS'requires'
p182
I1
s.