(dp1
S'rocker'
p2
I1
sS'help'
p3
I1
sS'2 year'
p4
I2
sS'identify'
p5
I1
sS'money'
p6
I1
sS'excellent'
p7
I2
sS'oral'
p8
I1
sS'existing'
p9
I1
sVmanager
p10
I1
sS'session'
p11
I1
sS'including'
p12
I1
sS'skill'
p13
I3
sS'lives.'
p14
I1
sS'find'
p15
I1
sVdeveloper
p16
I1
sS'raw'
p17
I1
sS'content'
p18
I2
sVstrategist
p19
I1
sS'based'
p20
I1
sS'monitor'
p21
I1
sS'agile'
p22
I2
sS'explain'
p23
I1
sS'technique'
p24
I1
sS'r d'
p25
I1
sS'complex'
p26
I1
sS'environment'
p27
I2
sS'source'
p28
I1
sS'foster'
p29
I1
sS'position.'
p30
I1
sS'location'
p31
I1
sS'communication'
p32
I2
sS'include'
p33
I1
sS'texas'
p34
I1
sS'radically'
p35
I1
sS'customer'
p36
I1
sS'format'
p37
I2
sS'situation'
p38
I1
sS'big'
p39
I2
sS'innovation'
p40
I1
sS'overall'
p41
I1
sS'user research'
p42
I1
sS'required.'
p43
I1
sS"team's"
p44
I1
sS'military experience'
p45
I1
sS'every'
p46
I1
sS'126'
p47
I1
sS'coding'
p48
I1
sS'report'
p49
I1
sS'necessary'
p50
I1
sS'personas.'
p51
I1
sS'scale.'
p52
I1
sS'day'
p53
I1
sS'bank'
p54
I1
sS'contextual'
p55
I1
sS"magazine's"
p56
I1
sS'fortune'
p57
I2
sS'success'
p58
I1
sS'artist'
p59
I1
sS'fully'
p60
I1
sS'qualitative'
p61
I2
sS'adhering'
p62
I1
sS'solution'
p63
I1
sS'relentlessly'
p64
I1
sS'across'
p65
I1
sS'usability testing'
p66
I1
sS'audience'
p67
I2
sS'team'
p68
I4
sS'userlabs'
p69
I3
sS'passionate'
p70
I1
sS'conduct'
p71
I3
sS'heavy'
p72
I1
sS'requirement'
p73
I1
sS'financial'
p74
I3
sS'ten'
p75
I1
sS'people'
p76
I1
sS'trend'
p77
I1
sS'desirability'
p78
I1
sS'creation'
p79
I2
sS'idea'
p80
I1
sS'library'
p81
I1
sS"bachelor's"
p82
I1
sS'analytics'
p83
I1
sS'likely'
p84
I1
sS'persona'
p85
I1
sS'design'
p86
I6
sS'usefulness'
p87
I1
sS'personalization'
p88
I1
sS'standardize'
p89
I1
sS"master's"
p90
I1
sS'employment'
p91
I1
sS'arm'
p92
I1
sS'best'
p93
I2
sS'ability'
p94
I2
sS'hacker'
p95
I1
sS'basic'
p96
I2
sS'practice'
p97
I1
sS'and/or'
p98
I1
sS'expert'
p99
I1
sS'approach'
p100
I2
sS'bold.'
p101
I1
sS'pattern'
p102
I1
sS'assistance'
p103
I1
sS'research'
p104
I14
sS'looking'
p105
I2
sVstate
p106
I1
sS'tool'
p107
I2
sS'various'
p108
I2
sS'template'
p109
I2
sS'capital'
p110
I3
sS'new'
p111
I2
sS'31064'
p112
I1
sS'ever'
p113
I1
sS'method'
p114
I1
sVspecialist
p115
I1
sS'decision-making'
p116
I1
sS'recently'
p117
I1
sS'creating'
p118
I1
sS'degree'
p119
I2
sS'nature'
p120
I1
sS'data scientist'
p121
I1
sS'million'
p122
I1
sS'communicate'
p123
I1
sS'story'
p124
I1
sS'understanding'
p125
I1
sS'growing'
p126
I1
sS'ranked'
p127
I1
sS'collection'
p128
I1
sS'ethnography'
p129
I1
sS'others'
p130
I1
sS'group'
p131
I1
sS'100'
p132
I1
sS'come'
p133
I1
sS'problem'
p134
I1
sS'change'
p135
I2
sS'improve'
p136
I2
sS'great'
p137
I1
sS'engage'
p138
I2
sS'things.'
p139
I1
sS'preferred'
p140
I1
sS'created'
p141
I2
sS'quantitative research'
p142
I1
sS'industry'
p143
I1
sS'recognized'
p144
I1
sS'keep'
p145
I1
sS'credit'
p146
I1
sS'amount'
p147
I1
sS'leadership'
p148
I1
sS'prioritization'
p149
I1
sS'massive'
p150
I1
sS'skills.'
p151
I1
sS'published'
p152
I1
sS'high-tech'
p153
I1
sS'usability'
p154
I8
sS'facilitate'
p155
I2
sS'innovating'
p156
I1
sS'first'
p157
I1
sS'research design'
p158
I1
sS'relevant'
p159
I1
sS'key'
p160
I1
sS'simply'
p161
I1
sS'point'
p162
I1
sS'researcher'
p163
I2
sS'overview'
p164
I1
sS'within'
p165
I2
sS'money.'
p166
I1
sS'one'
p167
I4
sS'entrepreneur'
p168
I1
sS'written'
p169
I1
sS'moderating'
p170
I1
sS'customization'
p171
I1
sVfactor
p172
I1
sS'use'
p173
I2
sS'leverage'
p174
I1
sS'service'
p175
I2
sS"it's"
p176
I1
sS'interact'
p177
I1
sS'support'
p178
I2
sS'due'
p179
I1
sS'guideline'
p180
I1
sS'program'
p181
I1
sS'sponsor'
p182
I1
sS'card'
p183
I1
sS'way'
p184
I1
sS'recommend'
p185
I1
sS'analyze'
p186
I2
sS'organization.'
p187
I1
sS'knowledge'
p188
I1
sS'500'
p189
I1
sS'vienna'
p190
I1
sS'pinpointing'
p191
I1
sS'tx.'
p192
I1
sS'testing'
p193
I5
sS'design thinking'
p194
I1
sS'offer'
p195
I1
sS'brand'
p196
I1
sS'audacious'
p197
I1
sS'benchmark'
p198
I1
sS'sophisticated'
p199
I1
sS'scientists.'
p200
I1
sS'empathy'
p201
I4
sS'understandable'
p202
I1
sS'review'
p203
I1
sS'delivers'
p204
I1
sS"researcher's"
p205
I1
sS'potential'
p206
I1
sS'present'
p207
I4
sS'observation'
p208
I1
sS'town'
p209
I1
sS'va.'
p210
I1
sS'f'
I1
sS'type'
p211
I1
sS'human factors'
p212
I1
sS'work'
p213
I6
sS'iteration'
p214
I1
sS'authorization'
p215
I1
sS'entrepreneurial'
p216
I1
sS'actively'
p217
I1
sS'today'
p218
I1
sS'organize'
p219
I1
sS'video'
p220
I1
sS'stakeholders.'
p221
I1
sS'un-moderated'
p222
I1
sS'etc.'
p223
I1
sS'called'
p224
I1
sS'experiences.'
p225
I1
sS'experiential'
p226
I1
sS'plus'
p227
I1
sS'4 year'
p228
I1
sS'expanding'
p229
I1
sS'measure'
p230
I1
sS'influence'
p231
I1
sS'involve'
p232
I1
sS'authentic'
p233
I1
sS'diverse'
p234
I1
sS'embrace'
p235
I1
sS'experience'
p236
I8
sS'want'
p237
I1
sS'studies.'
p238
I1
sS'clearly'
p239
I1
sS'result'
p240
I1
sS'since.'
p241
I1
sS'united'
p242
I1
sS'develop'
p243
I2
sS'goal'
p244
I1
sS'inform'
p245
I1
sS'user experience'
p246
I1
sS'able'
p247
I1
sS'utilize'
p248
I1
sS'intelligently'
p249
I1
sS'methodology'
p250
I3
sS'internal'
p251
I1
sS'inquiry'
p252
I1
sS'build'
p253
I1
sS'digital'
p254
I2
sS'interview'
p255
I3
sS'responsibility'
p256
I2
sS'lean startup'
p257
I1
sS'3 year'
p258
I1
sS'company'
p259
I3
sS'opportunity'
p260
I1
sS'non-designers'
p261
I1
sS'human computer interaction'
p262
I1
sS'sell'
p263
I1
sS'product'
p264
I3
sS'designer'
p265
I2
sS'multiple'
p266
I1
sVqualification
p267
I2
sS'problem-solving'
p268
I1
sS'collaboration'
p269
I2
sS'assist'
p270
I2
sS'reach'
p271
I1
sS'nationally'
p272
I1
sS'lab'
p273
I3
sS'effectively'
p274
I2
sS'running'
p275
I1
sS'user'
p276
I12
sS'data analysis'
p277
I2
sS'quantitative'
p278
I2
sS'included'
p279
I1
sS'plano'
p280
I3
sS'america'
p281
I1
sS'data'
p282
I3
sS'applicant'
p283
I1
sS'task'
p284
I1
sS'remote'
p285
I1
sS'center'
p286
I1
sS'consumers.'
p287
I1
sS'documentation'
p288
I1
sS'moderation'
p289
I1
sS'analysis'
p290
I6
sS'think'
p291
I1
sS'academic'
p292
I1
sS"you'll"
p293
I1
sS'maintain'
p294
I1
sS'mass'
p295
I1
sS'cases.'
p296
I1
sS'time'
p297
I1
sS'organization'
p298
I2
sS'software'
p299
I1
sS'consumer'
p300
I1
sS'order'
p301
I1
s.