(dp1
S'digital marketing'
p2
I1
sS'comfort'
p3
I1
sS'r d'
p4
I1
sS'excel'
p5
I2
sS'insight'
p6
I2
sS'dynamic'
p7
I1
sS'named'
p8
I1
sS'assigned'
p9
I2
sS'cross-functionally'
p10
I1
sS'nasdaq'
p11
I1
sS'manages'
p12
I1
sS'deadline'
p13
I2
sS'follow'
p14
I1
sS'skill'
p15
I4
sS'creative'
p16
I2
sS'resourceful'
p17
I1
sS'previous'
p18
I1
sS'completion'
p19
I1
sS'superior'
p20
I1
sS'wppgy'
p21
I1
sS'based'
p22
I1
sS'knowledge'
p23
I1
sS'microsoft powerpoint'
p24
I1
sS'office.'
p25
I1
sS'demographic'
p26
I1
sS'including'
p27
I1
sS'writing'
p28
I1
sS'environment'
p29
I2
sS'analytic'
p30
I1
sS'combine'
p31
I1
sS'2015'
p32
I1
sS'input'
p33
I1
sS'synthesize'
p34
I1
sS'presentation'
p35
I2
sS'computer science'
p36
I2
sS'data-driven'
p37
I1
sS'global'
p38
I1
sS'performs'
p39
I1
sS'predictive modeling'
p40
I1
sS'preferred'
p41
I1
sS'test'
p42
I1
sS'markets.'
p43
I1
sS'report'
p44
I3
sS'business development'
p45
I1
sS'execution'
p46
I2
sS'wpp'
p47
I1
sS'advanced'
p48
I2
sS'timely'
p49
I1
sS'first-rate'
p50
I1
sS'marketing.'
p51
I1
sS'level'
p52
I2
sS'fast-paced'
p53
I1
sS'3 year'
p54
I1
sS'solution'
p55
I1
sS'000'
p56
I1
sS'leader'
p57
I1
sS'output'
p58
I1
sS'b2b marketing'
p59
I1
sS'people'
p60
I1
sS'trend'
p61
I2
sS'reporting/analytic'
p62
I1
sS'profiling'
p63
I1
sS'design'
p64
I1
sS'perspective'
p65
I1
sS'measurement'
p66
I1
sS'seo'
p67
I1
sS'sem'
p68
I1
sS'extract'
p69
I1
sS'175'
p70
I1
sS'direct mail'
p71
I1
sS'and/or'
p72
I1
sS'degree'
p73
I1
sS'section'
p74
I1
sS'proficient'
p75
I1
sS'please'
p76
I1
sS'brief'
p77
I1
sS'/'
I2
sS'research'
p78
I1
sS'identification'
p79
I1
sS'database marketing'
p80
I1
sS'provides'
p81
I2
sS'provider'
p82
I1
sS'conceptual'
p83
I1
sS'new'
p84
I2
sS'strategist'
p85
I2
sS'equivalent'
p86
I1
sS'demonstrated'
p87
I1
sS'segmentation'
p88
I1
sS'ability'
p89
I4
sS'business'
p90
I2
sS'marketing'
p91
I9
sS'leveraging'
p92
I1
sS'data scientist'
p93
I1
sS'understanding'
p94
I1
sS'highly'
p95
I2
sVbachelor
p96
I1
sS'york'
p97
I1
sS'key'
p98
I1
sS'meet'
p99
I1
sS'creatively'
p100
I1
sS'strong'
p101
I3
sS'service'
p102
I1
sS'visit'
p103
I1
sS'technical'
p104
I1
sS'secondary research'
p105
I1
sS'industry'
p106
I2
sS'basis'
p107
I1
sS'develops'
p108
I2
sS'experience'
p109
I4
sS'7'
I1
sS'periodic'
p110
I1
sS'ensure'
p111
I1
sS'social'
p112
I2
sS'long-term'
p113
I1
sVimplement
p114
I1
sS'microsoft office'
p115
I1
sS'inspired.'
p116
I1
sS'relevant'
p117
I1
sS'campaign'
p118
I2
sS'revenue'
p119
I1
sS'communication'
p120
I1
sS'within'
p121
I1
sS'strategic'
p122
I1
sS'60'
p123
I1
sS'appropriate'
p124
I1
sS'initiative'
p125
I1
sS'marketing strategy'
p126
I2
sS'learning'
p127
I1
sS'engagement'
p128
I1
sS'brands.'
p129
I1
sS'message'
p130
I1
sS'technologist'
p131
I1
sS'executable'
p132
I1
sS'management'
p133
I1
sS'working'
p134
I2
sS'source'
p135
I2
sS'opportunity'
p136
I1
sVsupport
p137
I1
sS'driven.'
p138
I1
sS'creativity'
p139
I1
sS'blend'
p140
I1
sS'strategy'
p141
I9
sS'generation'
p142
I1
sS'inspires'
p143
I1
sS'recommend'
p144
I1
sS'3+ year'
p145
I1
sS'flexible'
p146
I1
sS'analyze'
p147
I1
sS'management consulting'
p148
I1
sS'leading'
p149
I1
sS'data sourcing'
p150
I1
sS'medium'
p151
I1
sS'data infrastructure'
p152
I1
sS'successful'
p153
I1
sS'brings'
p154
I1
sS'company'
p155
I1
sS'visio'
p156
I1
sS'various'
p157
I1
sS'visual'
p158
I1
sS'wunderman.'
p159
I1
sVreview
p160
I3
sS'delivers'
p161
I2
sS'analyst'
p162
I1
sS'customer'
p163
I2
sS'account'
p164
I1
sS'word'
p165
I1
sS'plans.'
p166
I1
sVwork
p167
I4
sS'project'
p168
I1
sS'sourcing'
p169
I2
sS'prioritize'
p170
I1
sS'evaluates'
p171
I1
sS'proactive'
p172
I1
sS'result'
p173
I1
sS'prospect'
p174
I1
sS'insight-driven'
p175
I1
sS'performer'
p176
I1
sS'orientation'
p177
I2
sS'marketing analytics'
p178
I2
sS'metric'
p179
I2
sS'recommendation'
p180
I2
sS'in-depth'
p181
I1
sS'high'
p182
I1
sS'effectively'
p183
I1
sVas
p184
I1
sS'minimum'
p185
I1
sS'together'
p186
I1
sS'operation'
p187
I1
sS'information'
p188
I3
sS'develop'
p189
I2
sS'programs.'
p190
I1
sS'agency'
p191
I5
sS'able'
p192
I1
sS'tableau'
p193
I1
sS'.'
I1
sS'take'
p194
I1
sS'digital'
p195
I2
sS'objective'
p196
I2
sS'performance'
p197
I1
sVdocument
p198
I1
sS'appends'
p199
I1
sS'development'
p200
I1
sS'multiple'
p201
I1
sS'wunderman'
p202
I4
sS'reporting'
p203
I1
sS'headquartered'
p204
I1
sS'creatives'
p205
I1
sS'driven'
p206
I1
sS'action'
p207
I1
sS'campaign-specific'
p208
I1
sS'produce'
p209
I1
sS'plan'
p210
I1
sS'strategy.'
p211
I1
sS'data'
p212
I12
sS'education/experience'
p213
I1
sS'analytics/modeling'
p214
I1
sS'independently'
p215
I1
sS'short'
p216
I1
sS'effective'
p217
I1
sS'database'
p218
I1
sS'oral'
p219
I1
sS'required'
p220
I1
sS'well'
p221
I1
sS'analysis'
p222
I1
sS'client'
p223
I7
sS'u'
I1
sS'principle'
p224
I1
sS'behavioral'
p225
I1
sS'consumer'
p226
I1
sS'make'
p227
I1
s.