(lp1
S'http://job-openings.monster.com/monster/8ffb6357-3150-4ca6-91ab-edef96bdc30d'
p2
aS'http://job-openings.monster.com/monster/d99a4ff1-37e4-48a5-b7c8-cc52922cbe03'
p3
aS'http://job-openings.monster.com/monster/46b461c9-79f3-462b-8489-42b3e77bbce3'
p4
aS'http://job-openings.monster.com/monster/7c14a5b4-3318-4f74-88ff-f78821aa7913'
p5
aS'http://jobview.monster.com/data-scientist-algorithms-statistics-machine-learning-sql-job-santa-clara-ca-us-183144906.aspx'
p6
aS'http://job-openings.monster.com/monster/f0c34767-40c4-4672-a6f1-393436cc2611'
p7
aS'http://job-openings.monster.com/monster/3b187a9a-8174-44e7-ae5b-1c4deb5b670a'
p8
aS'http://job-openings.monster.com/monster/3d4a50ca-1dd7-41ec-a536-1f4ce7ff442f'
p9
aS'http://job-openings.monster.com/monster/49508a68-3620-4da8-a85b-fc65d0f2002b'
p10
aS'http://job-openings.monster.com/monster/6a9d5ae9-cee0-45dd-a40e-d6ab08814bf6'
p11
aS'http://job-openings.monster.com/monster/5cdfc6af-eccc-4569-a7c0-a79df32a8f97'
p12
aS'http://job-openings.monster.com/monster/3880dccd-8ae6-44e6-b657-06fc9ff5e02a'
p13
aS'http://job-openings.monster.com/monster/f76a56a4-f557-4eff-919b-28722bf42113'
p14
aS'http://job-openings.monster.com/monster/0d5ec64a-5707-4e2b-a8de-0817b001599e'
p15
aS'http://job-openings.monster.com/monster/5c0c6204-5419-4f0f-abd4-7ac8a83bd6b0'
p16
aS'http://job-openings.monster.com/monster/d5391716-4839-494a-b46c-d1e528668681'
p17
aS'http://jobview.monster.com/avp-of-applied-analytics-job-aliso-viejo-ca-us-183027065.aspx'
p18
aS'http://job-openings.monster.com/monster/4782b966-ace1-4055-8713-b1e4bc6cb76c'
p19
aS'http://job-openings.monster.com/monster/90f9afd1-6ecb-4f7c-a5c0-7c219379f30c'
p20
aS'http://job-openings.monster.com/monster/4db8f751-3a7d-4448-bae6-bf2ce86878c3'
p21
aS'http://job-openings.monster.com/monster/18285f61-a320-4199-ae1b-4e879405a31e'
p22
aS'http://job-openings.monster.com/monster/42e2e1d6-4e93-4ad1-9be2-30a0a7ad0975'
p23
aS'http://job-openings.monster.com/monster/245aaa2b-ba67-447b-842b-ee704d3d762a'
p24
aS'http://jobview.monster.com/senior-marketing-manager-job-san-francisco-ca-us-183029308.aspx'
p25
aS'http://job-openings.monster.com/monster/8d33df7d-7f59-4c78-9fc2-8dd33a32b52e'
p26
aS'http://job-openings.monster.com/monster/d82ecea3-8bc9-43cb-848b-66a4f2b5a675'
p27
aS'http://job-openings.monster.com/monster/97dcdb85-cb73-491d-a86b-21e232cdab83'
p28
aS'http://job-openings.monster.com/monster/23e31fd3-a6de-4ae0-b5e5-fe865402db00'
p29
aS'http://job-openings.monster.com/monster/1fb8247e-cb3c-407b-8f10-e4a495908ffc'
p30
aS'http://jobview.monster.com/data-scientist-physicist-engineer-statistician-job-san-francisco-ca-us-183146105.aspx'
p31
aS'http://job-openings.monster.com/monster/977496e2-4a64-4c3e-82d3-a5a4edb5314f'
p32
aS'http://job-openings.monster.com/monster/43b57a1d-0903-496a-a72c-052605822819'
p33
aS'http://job-openings.monster.com/monster/b1f2822b-67c6-4c96-bb26-9bf612cbde53'
p34
aS'http://job-openings.monster.com/monster/910b2ca4-ec82-4516-9b33-e58110847fe8'
p35
aS'http://job-openings.monster.com/monster/2c1bb57d-3ad1-4da6-8162-d08d723f2d2e'
p36
aS'http://job-openings.monster.com/monster/a201ec86-76b4-46c6-ace3-c5589658e698'
p37
aS'http://job-openings.monster.com/monster/b108e689-ea24-4b13-9a3c-1ed2dcef1c2a'
p38
aS'http://job-openings.monster.com/monster/b43b2cac-c329-48d1-8820-b67fc9334251'
p39
aS'http://job-openings.monster.com/monster/7dd8e3e7-e326-4d47-9659-946d1c28979d'
p40
aS'http://job-openings.monster.com/monster/23efa8fb-beba-41c4-a753-b1805d7a39dc'
p41
aS'http://job-openings.monster.com/monster/ceb9aeef-a146-4153-9582-1044ada53552'
p42
aS'http://job-openings.monster.com/monster/31677918-074d-4bbc-b074-4e24f976378c'
p43
aS'http://job-openings.monster.com/monster/a510c4bf-9a08-4ffc-b9cf-022838e2c60c'
p44
aS'http://job-openings.monster.com/monster/95e05c15-a749-42e2-8b6b-1792d66d3c2c'
p45
aS'http://job-openings.monster.com/monster/f609dc13-6946-43d2-b995-de0853c97852'
p46
aS'http://job-openings.monster.com/monster/08525343-b693-4b6d-a722-6c4cbb6dbcbe'
p47
aS'http://job-openings.monster.com/monster/fa7023b4-3c47-4a10-a276-85fe9842b66f'
p48
aS'http://jobview.monster.com/hadoop-developer-with-cisco-experience-job-san-jose-ca-us-182280805.aspx'
p49
aS'http://jobview.monster.com/ux-researcher-job-menlo-park-ca-us-182331744.aspx'
p50
aS'http://job-openings.monster.com/monster/6568093b-ddba-464d-9b46-80594ff7eec1'
p51
aS'http://job-openings.monster.com/monster/496f1f5f-bc7e-48aa-b2cb-64e36150bbfa'
p52
aS'http://job-openings.monster.com/monster/235136aa-b468-482f-8594-dcda75f9f403'
p53
aS'http://job-openings.monster.com/monster/af30384b-fb4c-444e-9576-a5eab04eeabf'
p54
aS'http://job-openings.monster.com/monster/a80385e0-9931-4b89-9809-346c12ef9956'
p55
aS'http://job-openings.monster.com/monster/152da91f-3557-4480-a568-4c3bc5398b0d'
p56
aS'http://job-openings.monster.com/monster/882944fd-225f-45dd-a5e8-e5088fe993f4'
p57
aS'http://job-openings.monster.com/monster/925bd68d-9b46-4766-8c31-047c714d9067'
p58
aS'http://job-openings.monster.com/monster/93c702dd-66b6-4d65-a6cb-3c9e25a82ba6'
p59
aS'http://job-openings.monster.com/monster/99349a78-f30b-4607-8828-38b4b58592ef'
p60
aS'http://job-openings.monster.com/monster/6a47f983-633a-4223-a707-5f05adb0fef3'
p61
aS'http://jobview.monster.com/data-science-solutions-architect-job-san-francisco-ca-us-182937796.aspx'
p62
aS'http://job-openings.monster.com/monster/f0917484-861f-426f-8c8f-df3f1cb87824'
p63
aS'http://jobview.monster.com/bench-scientist-ii-molecular-biologist-44101-job-andover-ma-us-182214624.aspx'
p64
aS'http://job-openings.monster.com/monster/28c92c33-e8aa-4108-bcfd-2b33f8c34ff3'
p65
aS'http://job-openings.monster.com/monster/fcb3d890-a762-4d88-b44a-32417802f809'
p66
aS'http://job-openings.monster.com/monster/4c5058ec-91d7-4b45-a19c-27ee939990e1'
p67
aS'http://jobview.monster.com/associate-business-analyst-job-santa-fe-springs-ca-us-182611016.aspx'
p68
aS'http://job-openings.monster.com/monster/e36da90d-e942-4a6a-b3d2-1fdb29c53606'
p69
aS'http://job-openings.monster.com/monster/57e47c9a-1a04-4a3c-ba82-c47b7336945e'
p70
aS'http://job-openings.monster.com/monster/f41d2b39-f9ee-49d6-997e-130c0c9db421'
p71
aS'http://jobview.monster.com/sr-data-engineer-java-hadoop-linux-unix-job-redwood-city-ca-us-182878197.aspx'
p72
aS'http://job-openings.monster.com/monster/9e283a16-d1c2-46ea-b23b-14a20dab0196'
p73
aS'http://job-openings.monster.com/monster/5785d788-d99a-44dc-8eb6-b05f49cd0f78'
p74
aS'http://jobview.monster.com/sr-data-engineer-java-hadoop-linux-unix-job-woodside-ca-us-183145589.aspx'
p75
aS'http://job-openings.monster.com/monster/b7d0e745-99ac-47aa-85e4-0476230d6e20'
p76
aS'http://job-openings.monster.com/monster/626b5cf4-733d-4534-8bbd-4ce313604959'
p77
aS'http://job-openings.monster.com/monster/59596f2c-f987-4ec4-98ee-17c74e5d34b7'
p78
aS'http://job-openings.monster.com/monster/d29d68b4-bb8a-422a-a447-a95669cc452e'
p79
aS'http://job-openings.monster.com/monster/a12432f9-6981-45a4-861b-01cc723f2891'
p80
aS'http://job-openings.monster.com/monster/5d792a9b-c58f-457d-a626-84cb93c32fd0'
p81
aS'http://job-openings.monster.com/monster/b43bbf65-426d-4843-a06c-eec3700d5598'
p82
aS'http://jobview.monster.com/seeking-a-java-scala-backend-engineer-data-integrations-in-san-mateo-ca-job-san-mateo-ca-us-180483152.aspx'
p83
aS'http://job-openings.monster.com/monster/9db2b4bb-f075-4bae-932f-57273ae937a8'
p84
aS'http://job-openings.monster.com/monster/12cd38e5-9ab5-40e3-9d58-81bd2a92e7ba'
p85
aS'http://job-openings.monster.com/monster/45e63193-d1f2-43a8-8a1e-ffcd4e8167ae'
p86
aS'http://job-openings.monster.com/monster/747202fd-6d29-4fb1-9ee4-3357d61a2c3c'
p87
aS'http://job-openings.monster.com/monster/f61181aa-2398-4fcd-9631-f31b1d6277af'
p88
aS'http://job-openings.monster.com/monster/83f061df-711d-4ce2-8cdd-db0b6f571dd5'
p89
aS'http://jobview.monster.com/full-stack-software-developer-job-san-jose-ca-us-183082722.aspx'
p90
aS'http://job-openings.monster.com/monster/b011a9c1-b1dd-4b7c-9f3a-8602bc1bb131'
p91
aS'http://job-openings.monster.com/monster/0097bfb4-4885-4e38-bf0f-2512cc408419'
p92
aS'http://job-openings.monster.com/monster/e86e90c6-0186-4543-9879-032ac85d7a52'
p93
aS'http://job-openings.monster.com/monster/564e113e-40ac-4cd5-a2f6-51f758cbc858'
p94
aS'http://job-openings.monster.com/monster/81c44d8a-cda9-40af-a0df-bc6bb7a38761'
p95
aS'http://job-openings.monster.com/monster/3a709b9d-2e67-494b-8839-04871a0bfe21'
p96
aS'http://job-openings.monster.com/monster/04e676f9-5789-41ac-8ae9-e7a72a399ad4'
p97
aS'http://job-openings.monster.com/monster/3786d869-73d8-417a-8157-eff1d6878980'
p98
aS'http://job-openings.monster.com/monster/274221e0-204d-4b12-be7d-3aa7debd8abc'
p99
aS'http://job-openings.monster.com/monster/8d52cf95-7a45-4f23-b0ea-65c1842020dd'
p100
aS'http://job-openings.monster.com/monster/1217bfcd-6648-475e-8976-f1b09a91f9e6'
p101
aS'http://job-openings.monster.com/monster/a9205e0d-9ebd-41f5-80bf-2fbdf72d7694'
p102
aS'http://job-openings.monster.com/monster/7ce64eea-4d1d-4f83-abc7-5217b9f2bacb'
p103
aS'http://job-openings.monster.com/monster/2392b1bc-1659-467b-b374-8c54c3d79801'
p104
aS'http://jobview.monster.com/senior-data-scientist-job-san-mateo-ca-us-183142068.aspx'
p105
aS'http://jobview.monster.com/at-t-labs-internship-%e2%94%80-undergraduate-masters-degrees-job-san-ramon-ca-us-180081335.aspx'
p106
aS'http://job-openings.monster.com/monster/cc31b760-5ee4-441d-bb49-19244828f299'
p107
aS'http://job-openings.monster.com/monster/3f20f747-8853-47ce-ada6-a98bc12995fa'
p108
aS'http://jobview.monster.com/senior-backend-engineer-python-apis-microservices-job-san-francisco-ca-us-182301975.aspx'
p109
aS'http://job-openings.monster.com/monster/558f3e22-c86a-4fd7-80ab-bc6ffed0a33a'
p110
aS'http://job-openings.monster.com/monster/515360a7-02f4-44be-a621-a9d9fae18f99'
p111
aS'http://job-openings.monster.com/monster/b7604886-694e-4801-9505-6fae43b0764d'
p112
aS'http://job-openings.monster.com/monster/420692ca-a13a-4122-b4d1-bbda71cac00e'
p113
aS'http://job-openings.monster.com/monster/278f9f65-fd9a-4832-9120-0bc9e2bebd14'
p114
aS'http://jobview.monster.com/data-scientist-job-san-francisco-ca-us-182187838.aspx'
p115
aS'http://job-openings.monster.com/monster/93635a3b-e645-4a57-8ac4-1943759a17be'
p116
aS'http://job-openings.monster.com/monster/98fc37a7-f45b-4f5d-923b-b51aa418830d'
p117
aS'http://job-openings.monster.com/monster/b7381c80-1da9-4b0a-ac96-2f40c27dc57c'
p118
aS'http://job-openings.monster.com/monster/6112367b-62d3-484a-be17-a718cdbddf21'
p119
aS'http://job-openings.monster.com/monster/138cd8de-be2d-4f87-9e05-2421f7606135'
p120
aS'http://job-openings.monster.com/monster/006a0dfd-d6b0-4a36-a2e6-3cb1e826f5ba'
p121
aS'http://job-openings.monster.com/monster/2d0aece2-e6c0-4781-9ce3-3d80d031cee3'
p122
aS'http://job-openings.monster.com/monster/26a29d66-3fe5-407e-bcd0-5dce45b0d08c'
p123
aS'http://jobview.monster.com/data-scientist-intern-job-orange-ca-us-182742752.aspx'
p124
aS'http://job-openings.monster.com/monster/27b0dca7-5318-454c-b57c-2ffdfe5f0ca3'
p125
aS'http://job-openings.monster.com/monster/25ac6a0a-86a0-4281-8b04-14b711ec52f5'
p126
aS'http://job-openings.monster.com/monster/70f27b97-3ac2-4351-8f26-b10634a2698d'
p127
aS'http://job-openings.monster.com/monster/5c7fcfcc-cb3e-4e57-a68e-17fd1e621e55'
p128
aS'http://job-openings.monster.com/monster/196c4004-e245-400b-9811-fe8cda7183e3'
p129
aS'http://job-openings.monster.com/monster/298fe8dd-0e93-4634-85cc-9921ad788fbe'
p130
aS'http://jobview.monster.com/process-engineer-interns-job-santa-ana-ca-us-182482154.aspx'
p131
aS'http://job-openings.monster.com/monster/21b0e361-f7db-4fe1-97d8-2524b35b9c3c'
p132
aS'http://job-openings.monster.com/monster/b0b33e04-761e-4319-8a3e-e668063d384e'
p133
aS'http://jobview.monster.com/research-scientist-deep-learning-nlp-machine-learning-job-palo-alto-ca-us-182097219.aspx'
p134
aS'http://job-openings.monster.com/monster/06041e3a-0ed1-49c0-bd32-fb08acaaa445'
p135
aS'http://job-openings.monster.com/monster/b47c667b-2556-4f47-b507-a8b222c7be18'
p136
aS'http://job-openings.monster.com/monster/ab290325-2d8b-45b4-9a77-2fa867906ddc'
p137
aS'http://job-openings.monster.com/monster/164d68c9-f908-46c9-86a4-7442dabc6910'
p138
aS'http://job-openings.monster.com/monster/289b31e4-be9a-4c23-a405-2b33a64d7156'
p139
aS'http://job-openings.monster.com/monster/36b4be25-8fd1-482c-b61f-0bb5b454b914'
p140
aS'http://jobview.monster.com/director-deep-learning-institute-job-santa-clara-ca-us-182619654.aspx'
p141
aS'http://jobview.monster.com/up-to-350k-data-engineer-job-san-francisco-ca-us-183142997.aspx'
p142
aS'http://job-openings.monster.com/monster/f9bf8bcb-2407-470b-9210-3ec991a31d63'
p143
aS'http://job-openings.monster.com/monster/d48422cb-af1c-4624-91e4-e34338e4939a'
p144
aS'http://jobview.monster.com/deep-learning-data-scientist-job-santa-clara-ca-us-182575700.aspx'
p145
aS'http://jobview.monster.com/cash-operations-analyst-job-san-francisco-ca-us-182664588.aspx'
p146
aS'http://job-openings.monster.com/monster/bfb11b33-dd6b-4682-bfae-12baa83648a6'
p147
aS'http://job-openings.monster.com/monster/4ac43328-6422-4af1-b7fc-6f9e2c80a0d0'
p148
aS'http://job-openings.monster.com/monster/e906e211-189d-48c1-b8dd-ab810cf6045f'
p149
aS'http://jobview.monster.com/data-engineer-python-sql-data-visualization-tools-job-san-francisco-ca-us-182960730.aspx'
p150
aS'http://job-openings.monster.com/monster/0b480692-b4dd-4866-a90f-95ada745d150'
p151
aS'http://job-openings.monster.com/monster/a1d0b990-4719-452c-b1be-3ed65bc7d244'
p152
aS'http://job-openings.monster.com/monster/db334901-7e69-403c-a2e4-b8551f30e980'
p153
aS'http://jobview.monster.com/senior-software-engineer-ruby-elixir-job-irvine-ca-us-182812795.aspx'
p154
aS'http://job-openings.monster.com/monster/ae329046-473f-4b55-bd1c-45359a11d781'
p155
aS'http://job-openings.monster.com/monster/3de53887-41e6-4483-8474-6c9f04e41164'
p156
aS'http://job-openings.monster.com/monster/c871d5cd-5a41-47e8-85b8-2e2d6082ef26'
p157
aS'http://job-openings.monster.com/monster/6eb62816-2b22-4cc0-b833-92a4263a3914'
p158
aS'http://job-openings.monster.com/monster/b8152ec1-a405-47fc-9f0e-14188e243c36'
p159
aS'http://job-openings.monster.com/monster/834ed3e3-f5bf-43d8-a2f6-b41e99d7ab94'
p160
aS'http://job-openings.monster.com/monster/6a4931b8-a572-4659-b736-eeb446ca4d55'
p161
aS'http://job-openings.monster.com/monster/4e819f61-f9d2-49b3-9aec-8068087cdaa2'
p162
aS'http://job-openings.monster.com/monster/552fb0fd-c062-4819-9d4e-147f5dbdae64'
p163
aS'http://job-openings.monster.com/monster/16f7ae9d-870e-4e46-96a4-16dc2d1cab48'
p164
aS'http://jobview.monster.com/solutions-architect-autonomous-driving-job-santa-clara-ca-us-182242825.aspx'
p165
aS'http://jobview.monster.com/research-engineer-python-machine-learning-job-san-mateo-ca-us-183139940.aspx'
p166
aS'http://job-openings.monster.com/monster/cd30dbb9-2da6-4490-b6a4-8dbd3143177f'
p167
aS'http://job-openings.monster.com/monster/121e9440-bbac-43a8-adce-6fdd459c01dd'
p168
aS'http://job-openings.monster.com/monster/3097c309-6b25-43b0-9723-c6c34b2d8418'
p169
aS'http://job-openings.monster.com/monster/73b46c70-0a3f-4886-8b52-4accad458769'
p170
aS'http://job-openings.monster.com/monster/31037db2-8a5f-4ea0-a13d-7188c11ca850'
p171
aS'http://job-openings.monster.com/monster/54b28eed-1c9c-47eb-9e4f-afc89637ffe3'
p172
aS'http://job-openings.monster.com/monster/9dca5498-bee1-487a-9053-a0594b8a4332'
p173
aS'http://jobview.monster.com/senior-backend-engineer-python-apis-microservices-job-san-francisco-ca-us-183142094.aspx'
p174
aS'http://job-openings.monster.com/monster/8ac08d43-bc09-449a-bcbd-2965fbf831b3'
p175
aS'http://job-openings.monster.com/monster/a76eed8f-5530-47cf-ab6b-616685563378'
p176
aS'http://job-openings.monster.com/monster/b5477dfa-5e4e-4d85-b6d3-e6a09ad56fc6'
p177
aS'http://job-openings.monster.com/monster/bc637502-40da-4f09-b267-b07c9271c0d4'
p178
aS'http://job-openings.monster.com/monster/38cc72a1-8f1a-456f-8ebc-49bfff4a6d42'
p179
aS'http://job-openings.monster.com/monster/2cfa8977-a5f9-464d-9025-87e63116b386'
p180
aS'http://job-openings.monster.com/monster/3215c9c7-e59a-46a0-92f0-fbb3043460ff'
p181
aS'http://job-openings.monster.com/monster/d875d97d-9ae3-4141-954e-5d147ad0f890'
p182
aS'http://job-openings.monster.com/monster/3d6dce95-927a-4740-b02d-431c59817375'
p183
aS'http://job-openings.monster.com/monster/f247e84e-488d-4352-81d0-0c002da0bc11'
p184
aS'http://job-openings.monster.com/monster/a44e8b44-d141-4fa7-b815-79499be0d551'
p185
aS'http://job-openings.monster.com/monster/6a0153a9-b23b-44a5-85e7-2c53391cd174'
p186
aS'http://job-openings.monster.com/monster/4b98644e-7410-400e-ba62-0ea6c43f5999'
p187
aS'http://job-openings.monster.com/monster/e67dadbe-5061-4c1f-a33c-c4f0df55a52d'
p188
aS'http://job-openings.monster.com/monster/cce93eae-f518-42cd-a85a-9191f454248c'
p189
aS'http://job-openings.monster.com/monster/b00b4d59-73f3-4fed-ace4-6096b87feda5'
p190
aS'http://job-openings.monster.com/monster/7c7e7041-ed5a-4e5c-9e23-191e347884b2'
p191
aS'http://jobview.monster.com/machine-learning-engineer-top-security-startup!-job-redwood-city-ca-us-183062682.aspx'
p192
aS'http://job-openings.monster.com/monster/997f3a8c-983c-48ce-8418-7587d1d8baaa'
p193
aS'http://job-openings.monster.com/monster/2144ed39-c5f4-4402-ba10-927264aebe1b'
p194
aS'http://job-openings.monster.com/monster/67d1b3ca-6f07-4a06-b6f0-12e255a09f19'
p195
aS'http://jobview.monster.com/senior-scala-spark-developer-will-relocate-job-los-angeles-ca-us-182724469.aspx'
p196
aS'http://jobview.monster.com/data-scientist-great-product-200-countries-50m-users-job-los-angeles-ca-us-183141853.aspx'
p197
aS'http://job-openings.monster.com/monster/87563586-eedd-411c-9c74-11600a882dda'
p198
aS'http://job-openings.monster.com/monster/61051d9c-87fe-4e51-834a-0ce20ea7b63e'
p199
aS'http://job-openings.monster.com/monster/ab1b256a-694c-4cbb-999c-5bebe184c74a'
p200
aS'http://job-openings.monster.com/monster/3f5447f4-0afc-488c-8608-7d0b9c132ad6'
p201
aS'http://job-openings.monster.com/monster/f8185a7e-8eaa-466d-89c2-75333c6be157'
p202
aS'http://job-openings.monster.com/monster/c2e235f7-b5d4-40bf-b76c-53a9d923041d'
p203
aS'http://job-openings.monster.com/monster/c0fe48f6-9e54-4f3e-bdd5-9a9bf9b83431'
p204
aS'http://job-openings.monster.com/monster/363d6488-9b10-4b4e-b23f-706a3474c86c'
p205
aS'http://job-openings.monster.com/monster/f0012441-6191-4826-8d42-346533463819'
p206
aS'http://job-openings.monster.com/monster/230f8f75-069a-4ea1-933b-6dbac6c95c57'
p207
aS'http://job-openings.monster.com/monster/8a93cc00-7786-4e0d-9a37-264e8cb3ed09'
p208
aS'http://job-openings.monster.com/monster/41eea3f1-01e1-4866-8d30-e1a3dbbba755'
p209
aS'http://job-openings.monster.com/monster/8bb81a94-c279-410e-820b-68caa4255ced'
p210
aS'http://jobview.monster.com/senior-backend-python-engineer-job-san-francisco-ca-us-183012862.aspx'
p211
aS'http://job-openings.monster.com/monster/fbb1d60b-1d69-4177-b327-6543d7f77581'
p212
aS'http://job-openings.monster.com/monster/191f0569-8375-47f8-aad5-108fa8865fef'
p213
aS'http://job-openings.monster.com/monster/9101df17-ba82-4ec3-a2d6-481048c08f5e'
p214
aS'http://job-openings.monster.com/monster/4f62a8f4-1123-4480-a969-1bb53e134452'
p215
aS'http://job-openings.monster.com/monster/76e211d4-5026-470c-ad8d-5c36dcd28193'
p216
aS'http://job-openings.monster.com/monster/4bd79392-6b1e-4466-8e00-64eafbee7095'
p217
aS'http://job-openings.monster.com/monster/9766a82c-0793-4d7c-8b90-40b1eb8b6463'
p218
aS'http://job-openings.monster.com/monster/68f3c9d4-ba5b-431a-873c-31f7bcd0f740'
p219
aS'http://jobview.monster.com/software-engineer-sofia-data-processing-system-job-mountain-view-ca-us-182119351.aspx'
p220
aS'http://job-openings.monster.com/monster/730f3bc9-d2cc-412e-9f6f-89c9c577915a'
p221
aS'http://job-openings.monster.com/monster/effe53ed-329b-41fc-8ed6-2653aaad2d18'
p222
aS'http://jobview.monster.com/physician-job-palo-alto-ca-us-182961088.aspx'
p223
aS'http://job-openings.monster.com/monster/03fe8057-c0c7-4cdf-a1db-097117afd527'
p224
aS'http://job-openings.monster.com/monster/a2d70a53-c9b1-4301-804f-fd452f996d53'
p225
aS'http://job-openings.monster.com/monster/241678fa-76f0-4fdd-b24f-778450c0f43d'
p226
aS'http://job-openings.monster.com/monster/70067d3a-ac83-496b-a2dc-652141711786'
p227
aS'http://job-openings.monster.com/monster/d34f5ace-282c-4688-a737-84b61e48e369'
p228
aS'http://job-openings.monster.com/monster/35a6cd75-624a-48b9-a5c7-1d31b9c2b747'
p229
aS'http://job-openings.monster.com/monster/2d5c867f-b777-429c-b374-63cb7db41bf9'
p230
aS'http://job-openings.monster.com/monster/7ea8031e-ba6c-48b0-addd-917a8393f9d3'
p231
aS'http://job-openings.monster.com/monster/235a6686-51a9-440b-8e07-f18848188fdb'
p232
aS'http://jobview.monster.com/full-stack-engineer-javascript-es2015-python-java-job-san-francisco-ca-us-182529910.aspx'
p233
aS'http://jobview.monster.com/data-scientist-client-facing-job-redwood-city-ca-us-183045936.aspx'
p234
aS'http://job-openings.monster.com/monster/82138ffc-c652-4752-a2d2-e05828a83e77'
p235
aS'http://job-openings.monster.com/monster/b1f13790-1580-4276-9ad1-4cfc2c43da41'
p236
aS'http://jobview.monster.com/senior-data-scientist-job-santa-monica-ca-us-182812518.aspx'
p237
aS'http://jobview.monster.com/at-t-labs-internship-%e2%80%93-advanced-degrees-job-san-ramon-ca-us-180081357.aspx'
p238
aS'http://job-openings.monster.com/monster/34d202b1-060e-4633-88b6-8da83ce62a95'
p239
aS'http://jobview.monster.com/data-scientist-job-santa-clara-ca-us-182484880.aspx'
p240
aS'http://job-openings.monster.com/monster/8028fa6c-3126-4347-a5ed-eb63b0a13949'
p241
aS'http://job-openings.monster.com/monster/07251910-4df6-44da-80ad-fb8316bdb646'
p242
aS'http://job-openings.monster.com/monster/d95a4312-cbe3-48a6-8b83-f3fc04f82c17'
p243
aS'http://jobview.monster.com/data-engineer-sql-python-etl-job-firestone-park-ca-us-183144869.aspx'
p244
aS'http://job-openings.monster.com/monster/c9f8aa2b-fc78-4acc-9bce-45e3503b615c'
p245
aS'http://job-openings.monster.com/monster/677142be-75b4-4105-a45f-fa0b384f08a6'
p246
aS'http://job-openings.monster.com/monster/f276b240-74a5-4cfa-b0ca-4fc05133aff4'
p247
aS'http://job-openings.monster.com/monster/a2fb0e60-1cc8-436b-9e84-3727531022a2'
p248
aS'http://job-openings.monster.com/monster/4222f667-90c8-4a4e-ac3d-c073e7e18250'
p249
aS'http://job-openings.monster.com/monster/4fb06542-759f-4cca-9952-c45f3aa30cde'
p250
aS'http://job-openings.monster.com/monster/68c9a4d7-ccfb-4ded-8ca8-10b5881a266f'
p251
aS'http://jobview.monster.com/data-scientist-physicist-engineer-statistician-job-san-francisco-ca-us-183013119.aspx'
p252
aS'http://job-openings.monster.com/monster/04c81d1a-fd73-41b8-8941-b8ac4441f26f'
p253
aS'http://job-openings.monster.com/monster/0ce6d458-aaa7-4681-a522-3ba01b87d6cd'
p254
aS'http://job-openings.monster.com/monster/3ee27199-1dd9-4038-816c-c711df8a5302'
p255
aS'http://jobview.monster.com/principal-data-scientist-machine-learning-job-san-francisco-ca-us-183143018.aspx'
p256
aS'http://job-openings.monster.com/monster/1a0f5e72-221f-40ca-a041-98bd3abafcec'
p257
aS'http://jobview.monster.com/devops-engineer-startup-founded-by-very-reputable-entrepreneur-job-san-francisco-ca-us-183045943.aspx'
p258
aS'http://job-openings.monster.com/monster/52c3f233-5a8b-4ecf-9fed-e2d9216cfc8b'
p259
aS'http://job-openings.monster.com/monster/bb224d18-30ae-4500-98a6-ecc09a3a6106'
p260
aS'http://job-openings.monster.com/monster/9c31e545-7ebe-417e-9c0c-42244df7af54'
p261
aS'http://jobview.monster.com/senior-data-architect-top-50-visited-website-in-america-job-agoura-ca-us-183143388.aspx'
p262
aS'http://job-openings.monster.com/monster/a62a1138-b712-4202-91ca-dc8cb7415427'
p263
aS'http://job-openings.monster.com/monster/ffa65ab0-aa31-44bb-8bbb-3217c74ba701'
p264
aS'http://job-openings.monster.com/monster/3bb59853-d09e-4ade-a540-221adbbade05'
p265
aS'http://jobview.monster.com/senior-software-engineer-python-data-analytic-saas-startup!-job-san-francisco-ca-us-182765860.aspx'
p266
aS'http://job-openings.monster.com/monster/fd0e8a5d-9b75-4eda-abea-af59cf242f71'
p267
aS'http://jobview.monster.com/scientist-job-san-francisco-ca-us-182662692.aspx'
p268
aS'http://job-openings.monster.com/monster/67121644-09fc-4d60-a187-12b66529c951'
p269
aS'http://job-openings.monster.com/monster/5e135707-a766-431b-a3a9-9319a26d3125'
p270
aS'http://job-openings.monster.com/monster/2d734a8d-0fb6-4eb1-8b21-7663fbcbb8fb'
p271
aS'http://job-openings.monster.com/monster/3579c18c-876c-4eb1-ba56-1033e87ce361'
p272
aS'http://jobview.monster.com/up-to-350k-data-engineer-job-san-francisco-ca-us-183045550.aspx'
p273
aS'http://job-openings.monster.com/monster/057c3251-971a-4393-9944-64b702fc187d'
p274
aS'http://jobview.monster.com/analysts-job-san-francisco-ca-us-182662705.aspx'
p275
aS'http://job-openings.monster.com/monster/53670d8e-c032-40fc-aeb5-8ef0e688da93'
p276
aS'http://job-openings.monster.com/monster/c4a29d90-4cc8-4bd0-97b9-991ceda50b5a'
p277
aS'http://job-openings.monster.com/monster/027aef3c-00f4-44c1-aad3-3d58ee9a9d36'
p278
aS'http://job-openings.monster.com/monster/e1ffbeb5-33e3-4335-9915-9116dafb1626'
p279
aS'http://job-openings.monster.com/monster/8a34052b-5adf-4f73-8f03-9c2c5b1f1cc6'
p280
aS'http://job-openings.monster.com/monster/ae1c1d49-f61f-41bb-a52d-f39d10e244ca'
p281
aS'http://job-openings.monster.com/monster/36045b7e-19a1-4b65-91c5-193c36cd63be'
p282
aS'http://job-openings.monster.com/monster/80e45f16-55d5-4c64-99c7-6dd0f587f0aa'
p283
aS'http://job-openings.monster.com/monster/4aa2541a-4e53-4f81-b0cd-c32adc1900e0'
p284
aS'http://job-openings.monster.com/monster/3740c726-760e-48b0-b8ef-abca4dd517d3'
p285
aS'http://job-openings.monster.com/monster/11ebeba1-13ef-4ba7-8396-3ea17173a3ec'
p286
aS'http://job-openings.monster.com/monster/cae5b97c-3f68-44ea-800f-e78a9c3f4322'
p287
aS'http://job-openings.monster.com/monster/b5d3304b-ab40-4e8d-89a4-b1ac40294a2f'
p288
aS'http://job-openings.monster.com/monster/cf562007-82ab-4e97-9a57-e6557eaa845f'
p289
aS'http://job-openings.monster.com/monster/d1119ad2-3c4a-42f2-9345-6cf00cec34d8'
p290
aS'http://job-openings.monster.com/monster/6e2271f3-f599-4b9d-b528-6afd8ec2245b'
p291
aS'http://job-openings.monster.com/monster/79a5ef37-8318-4d94-b5de-12b33da87716'
p292
aS'http://job-openings.monster.com/monster/a638118b-8abb-4d0b-845f-7c8a14d84152'
p293
aS'http://jobview.monster.com/senior-director-vp-product-development-product-development-job-san-francisco-ca-us-182529772.aspx'
p294
aS'http://job-openings.monster.com/monster/51b21780-93aa-46d8-99f9-f0dec853e689'
p295
aS'http://job-openings.monster.com/monster/da4e9023-4102-40ad-a127-cd5e58115776'
p296
aS'http://job-openings.monster.com/monster/6b7b0640-43cb-427a-af27-a565d6fe98ca'
p297
aS'http://jobview.monster.com/jr-data-analyst-advertising-job-san-francisco-ca-us-182345567.aspx'
p298
aS'http://job-openings.monster.com/monster/a6dd42e4-db30-447c-bf41-4585ddfb0272'
p299
aS'http://job-openings.monster.com/monster/3c990354-a3dd-4de2-b8ed-f74cb719383e'
p300
aS'http://job-openings.monster.com/monster/994bff64-4d21-41ef-9f57-77f05ab9da00'
p301
aS'http://jobview.monster.com/hadoop-spark-developer-job-san-jose-ca-us-182605220.aspx'
p302
aS'http://jobview.monster.com/research-engineer-python-machine-learning-job-san-mateo-ca-us-183145737.aspx'
p303
aS'http://job-openings.monster.com/monster/32509da2-547a-4103-ad39-0415b6cca060'
p304
aS'http://job-openings.monster.com/monster/f7b87e92-aaa9-4ac6-9414-31be468705b2'
p305
aS'http://job-openings.monster.com/monster/52072630-c4e4-41a7-af9c-c13f6d0902cb'
p306
aS'http://job-openings.monster.com/monster/9369de21-13c5-47db-8c80-a17109750bf2'
p307
aS'http://job-openings.monster.com/monster/9093cc30-48f9-4845-9426-356c6a9aa822'
p308
aS'http://job-openings.monster.com/monster/dd1a2108-3272-4464-8057-38bd8b05f2bf'
p309
aS'http://job-openings.monster.com/monster/123ad9ef-44be-47fc-bef0-20d7686dae76'
p310
aS'http://job-openings.monster.com/monster/7d37a7bd-b732-4131-877f-a5f68a1cb489'
p311
aS'http://job-openings.monster.com/monster/8a43b008-166c-40d2-bd0e-d258206389ce'
p312
aS'http://job-openings.monster.com/monster/fc425edf-2757-4655-93f0-60f9ce37e4bf'
p313
aS'http://jobview.monster.com/senior-data-scientist-job-palo-alto-ca-us-182723744.aspx'
p314
aS'http://job-openings.monster.com/monster/de820a41-abc9-46c9-8e45-f86866d48204'
p315
aS'http://job-openings.monster.com/monster/27555ba2-0ce6-4c31-b345-86a51141840a'
p316
aS'http://job-openings.monster.com/monster/5228d157-5459-4ed9-ad13-b1cfde17edc4'
p317
aS'http://job-openings.monster.com/monster/32da43c4-ff85-49c2-aa23-6eabf3792b83'
p318
aS'http://job-openings.monster.com/monster/fb079e17-e667-499f-bf5b-8e5ab5da3fa4'
p319
aS'http://job-openings.monster.com/monster/e1a234eb-1af9-4299-97b1-6d6fa686b572'
p320
aS'http://job-openings.monster.com/monster/2a5ef3a2-097e-4118-842c-921d4bb399b3'
p321
aS'http://job-openings.monster.com/monster/29b214da-4566-4c4e-8b90-2b6560a78401'
p322
aS'http://job-openings.monster.com/monster/0abf4767-fef9-418d-8582-d46599c27905'
p323
aS'http://job-openings.monster.com/monster/b55828c1-61c8-4aee-bd6c-2c00ab93752b'
p324
aS'http://jobview.monster.com/group-account-supervisor-job-redwood-city-ca-us-182284671.aspx'
p325
aS'http://job-openings.monster.com/monster/c033ece9-9ce7-4da7-944e-09600ef14e1e'
p326
aS'http://job-openings.monster.com/monster/559b4f74-34f8-4efc-8831-83cbdb2805e1'
p327
aS'http://job-openings.monster.com/monster/3fa8c708-0890-43c9-be10-f1ace00d8021'
p328
aS'http://job-openings.monster.com/monster/69e24b13-f8c5-43e8-8fa0-ca096ae2158b'
p329
aS'http://job-openings.monster.com/monster/6a78d2d0-b0bf-4c0d-b795-42ef56af954b'
p330
aS'http://job-openings.monster.com/monster/82a124db-c9f9-4bea-8796-fac4dc638126'
p331
aS'http://job-openings.monster.com/monster/78da56f6-19cf-41ca-ad4d-b3254cdf4a7d'
p332
aS'http://job-openings.monster.com/monster/08cebd29-f450-4eff-80bb-6be05b521ea3'
p333
aS'http://job-openings.monster.com/monster/29b8c5ac-7986-447f-a8c4-9be4fb55d406'
p334
aS'http://job-openings.monster.com/monster/3dbb7530-e0bd-40e3-96ef-101eab9f8021'
p335
aS'http://job-openings.monster.com/monster/c5562558-3d0a-4ac8-b5e0-e9b7fee91ecb'
p336
aS'http://job-openings.monster.com/monster/a310c39f-38ac-455d-9fd6-6fcde4aa7a35'
p337
aS'http://job-openings.monster.com/monster/1e07c11c-2943-46ab-820c-766bc49d8317'
p338
aS'http://job-openings.monster.com/monster/c3f0f25d-97e7-4f45-ad16-996d681557b0'
p339
aS'http://job-openings.monster.com/monster/ae28f96f-c764-4dbb-8e2a-b15d1d357280'
p340
aS'http://jobview.monster.com/manager-of-clinical-analytics-job-palo-alto-ca-us-182961124.aspx'
p341
aS'http://job-openings.monster.com/monster/a07b76fc-fdf0-4a98-9691-fb9ff93e367f'
p342
aS'http://job-openings.monster.com/monster/25e0225f-1ed9-4f5e-a02d-4ab24d222cae'
p343
aS'http://job-openings.monster.com/monster/be5efbc2-c2da-480a-b57d-3fab1aad712d'
p344
aS'http://job-openings.monster.com/monster/ed5392bf-3d30-4411-bb8f-430ff529e043'
p345
aS'http://job-openings.monster.com/monster/148a31aa-3f9d-4541-873e-6e6c2ed74cc5'
p346
aS'http://job-openings.monster.com/monster/516b820d-7aa0-4c31-a105-8e5783b8a2e4'
p347
aS'http://job-openings.monster.com/monster/db344569-3a54-45d0-807b-8650492af8eb'
p348
aS'http://jobview.monster.com/sr-data-scientists-job-milpitas-ca-us-182511060.aspx'
p349
aS'http://jobview.monster.com/it-critical-incident-problem-change-manager-job-santa-clara-ca-us-182619661.aspx'
p350
aS'http://job-openings.monster.com/monster/0ff77ddd-9f42-44cc-be2f-6c40dc9d0b33'
p351
aS'http://job-openings.monster.com/monster/a83ac900-6057-47b7-b2a8-cc148a65edff'
p352
aS'http://job-openings.monster.com/monster/ebf1e9cc-5c45-4bea-bb5d-a69854627934'
p353
aS'http://job-openings.monster.com/monster/1c66f6d3-2cd4-4fb0-9ba6-c10dce8852e8'
p354
aS'http://job-openings.monster.com/monster/64f03e90-2c94-41f3-a358-8288146d491f'
p355
aS'http://job-openings.monster.com/monster/767a3904-a418-4377-b28e-a397540dacee'
p356
aS'http://job-openings.monster.com/monster/e5d27b5d-12f4-4bb7-86cf-e4f7c2ecac9f'
p357
aS'http://job-openings.monster.com/monster/933dd0ea-40f3-45fd-b258-a7b59987fb59'
p358
aS'http://job-openings.monster.com/monster/c0c7f424-0443-480a-bc71-84f98f5d38f3'
p359
aS'http://jobview.monster.com/data-scientist-job-san-francisco-ca-us-183143019.aspx'
p360
aS'http://job-openings.monster.com/monster/46d2dd4a-9a95-40c6-86d9-5f6c8b7fde78'
p361
aS'http://job-openings.monster.com/monster/1bf7be18-bf3a-4486-a6ce-0de9feeac08c'
p362
aS'http://job-openings.monster.com/monster/ef016d59-defb-4224-8616-c33c67a01be9'
p363
aS'http://job-openings.monster.com/monster/4b875b8b-c2b2-4a41-92b4-f3178b41cbeb'
p364
aS'http://jobview.monster.com/at-t-labs-internship-%e2%94%80-undergraduate-masters-degrees-job-san-francisco-ca-us-180081388.aspx'
p365
aS'http://jobview.monster.com/administrative-services-manager-stanford-medical-center-development-job-palo-alto-ca-us-182951184.aspx'
p366
aS'http://jobview.monster.com/qa-automation-manager-job-san-diego-ca-us-183079888.aspx'
p367
aS'http://job-openings.monster.com/monster/70a5f00a-4cf9-43ba-9a9f-37d59e6185dc'
p368
aS'http://job-openings.monster.com/monster/9ef1c186-da19-4d11-bb98-f28022075838'
p369
aS'http://job-openings.monster.com/monster/13311858-cb86-4aeb-82d1-a607d43faa3e'
p370
aS'http://job-openings.monster.com/monster/ba95ec4d-7db7-426d-b7ea-d8e96392905e'
p371
aS'http://job-openings.monster.com/monster/a7199265-8d73-41d9-aa87-963c4c755e89'
p372
aS'http://jobview.monster.com/senior-scientist-immune-job-south-san-francisco-ca-us-182546743.aspx'
p373
aS'http://job-openings.monster.com/monster/fe2855fd-92c2-41ed-b9f6-fb34454021c8'
p374
aS'http://job-openings.monster.com/monster/e9e9ab35-4f74-49ed-bbd3-30e8e40c84ac'
p375
aS'http://job-openings.monster.com/monster/7ad87948-2466-4f41-8a0c-b9901b4dbf3e'
p376
aS'http://job-openings.monster.com/monster/2c655678-371e-4a8f-9770-6bed3eb57648'
p377
aS'http://job-openings.monster.com/monster/7ca58f8a-3966-4ec0-bd38-2ee8aaebaa35'
p378
aS'http://job-openings.monster.com/monster/337bcd97-3b3d-420f-b995-9d0798eb80df'
p379
aS'http://job-openings.monster.com/monster/4587a79e-5fc7-4532-bf20-00b391a72abe'
p380
aS'http://job-openings.monster.com/monster/1897dfe6-ac71-497f-b6f5-29496aa01272'
p381
aS'http://jobview.monster.com/data-scientist-great-product-200-countries-50m-users-job-west-hollywood-ca-us-182678732.aspx'
p382
aS'http://job-openings.monster.com/monster/84633ad3-a215-425a-aa99-7ada5c59d901'
p383
aS'http://job-openings.monster.com/monster/11113811-0320-4457-ab05-8e9246b6c413'
p384
aS'http://job-openings.monster.com/monster/680bc5e8-b767-4762-99d0-de2a0557f3cb'
p385
aS'http://job-openings.monster.com/monster/de233791-00e3-4013-b0b5-6c2bbe42c9b9'
p386
aS'http://job-openings.monster.com/monster/68d3402b-8556-42be-a393-fba27c935d9f'
p387
aS'http://job-openings.monster.com/monster/7452e201-dc59-4e04-9a34-6a2de98e423d'
p388
aS'http://job-openings.monster.com/monster/2643a869-775f-4624-83cb-c75d2271b8ae'
p389
aS'http://job-openings.monster.com/monster/ec03f5f1-86f3-4a33-9c06-cf1d8cf3a6b6'
p390
aS'http://job-openings.monster.com/monster/5b8d2125-8753-4c78-b21f-a9812c5805a4'
p391
aS'http://job-openings.monster.com/monster/8ee79164-d362-4d24-bed7-46108fdd1dcc'
p392
aS'http://job-openings.monster.com/monster/0d4d0c68-ed42-4ab0-9456-41c4edc46efe'
p393
aS'http://job-openings.monster.com/monster/2664ff09-65c0-47e0-95ca-9072f9107965'
p394
aS'http://job-openings.monster.com/monster/5c48fe1f-6aec-4c38-8db8-9510ceed0424'
p395
aS'http://job-openings.monster.com/monster/9a07623e-a2c1-437c-8caf-880d77cc9617'
p396
aS'http://job-openings.monster.com/monster/b1d2891d-986d-4468-b87b-3a3b09d6f231'
p397
aS'http://job-openings.monster.com/monster/1c2172a1-e4a2-466a-a4b0-2f43d0de7b6d'
p398
aS'http://jobview.monster.com/web-application-engineer-job-cupertino-ca-us-183126697.aspx'
p399
aS'http://job-openings.monster.com/monster/f8aaf91c-7110-4023-aadd-acdf462d871a'
p400
aS'http://job-openings.monster.com/monster/ae68c5ea-4375-4e51-84c2-e301a789c36a'
p401
aS'http://job-openings.monster.com/monster/d3ae62b6-0e54-47c8-9c97-f385af6d5343'
p402
aS'http://job-openings.monster.com/monster/1d9554e3-3ea2-45ce-9646-5c2522cdb309'
p403
aS'http://job-openings.monster.com/monster/73446e68-dfd9-4338-a4fe-9fbfbdb8bccd'
p404
aS'http://job-openings.monster.com/monster/76de7a6c-b62c-40fb-ad89-3cedb123b526'
p405
aS'http://job-openings.monster.com/monster/587bb00d-fdb5-4d69-810a-9db0b1c85b6b'
p406
aS'http://job-openings.monster.com/monster/8be6a4ab-cf9e-4233-a44e-ff77d353b503'
p407
aS'http://job-openings.monster.com/monster/68a95477-a818-4e7f-89c2-e4ee024fd3f8'
p408
aS'http://job-openings.monster.com/monster/61199b8f-2052-486c-97a4-48c7aa8ccbba'
p409
aS'http://job-openings.monster.com/monster/d0e0fbe7-9926-4eae-b1b4-97999444757f'
p410
aS'http://job-openings.monster.com/monster/34a4980a-8816-4732-bbe3-2065d7855fa4'
p411
aS'http://job-openings.monster.com/monster/78403085-b6a1-4685-8420-3ce7e8d323cb'
p412
aS'http://job-openings.monster.com/monster/ab923bc5-3b0f-45ed-834d-ccd612a76957'
p413
aS'http://job-openings.monster.com/monster/a01bfd59-342a-4efb-aa6a-5924f013c4f1'
p414
aS'http://job-openings.monster.com/monster/2f441086-03bf-4904-9827-bcba441e5fd3'
p415
aS'http://job-openings.monster.com/monster/2f2050f0-16df-4e2e-9b59-9208719a16fc'
p416
aS'http://jobview.monster.com/machine-learning-engineer-job-san-mateo-ca-us-182529927.aspx'
p417
aS'http://job-openings.monster.com/monster/658d4aa9-23f2-4038-a4cd-6e28cf67a497'
p418
aS'http://job-openings.monster.com/monster/70cee56e-7761-48c3-b887-1cbad325e40c'
p419
aS'http://job-openings.monster.com/monster/7fe74fe4-158e-4fd1-b376-08ef3e684747'
p420
aS'http://job-openings.monster.com/monster/a90f8fb7-56bf-4036-95e5-4d780ce19a82'
p421
aS'http://jobview.monster.com/machine-learning-engineer-job-san-mateo-ca-us-183142065.aspx'
p422
aS'http://job-openings.monster.com/monster/c4e7df6b-416c-4140-9694-8477d5aedd93'
p423
aS'http://job-openings.monster.com/monster/d64ff497-02b6-44b5-aa70-ab348adf673b'
p424
aS'http://job-openings.monster.com/monster/5b1728d8-d38a-4ee9-a049-fdcd38bc3322'
p425
aS'http://jobview.monster.com/data-scientist-job-san-jose-ca-us-182760524.aspx'
p426
aS'http://job-openings.monster.com/monster/5c41dffe-6067-4230-ae5e-3f1931bb8192'
p427
aS'http://job-openings.monster.com/monster/1e6578d9-6bd7-4eeb-96ed-1eb4ce81cec0'
p428
aS'http://job-openings.monster.com/monster/84de0dad-2577-40c0-916d-c7db76f49e52'
p429
aS'http://job-openings.monster.com/monster/db0d8f70-2c26-43dd-8ffc-53fc8930d142'
p430
aS'http://job-openings.monster.com/monster/f5ff2668-7df6-4e3d-a76a-0d5db0beb046'
p431
aS'http://job-openings.monster.com/monster/5d6b9572-56f8-4de3-bc7d-e545a29f3088'
p432
aS'http://jobview.monster.com/machine-learning-engineer-top-security-startup!-job-woodside-ca-us-183142081.aspx'
p433
aS'http://job-openings.monster.com/monster/419993a1-73c8-48ab-837e-f54e24d9647f'
p434
aS'http://jobview.monster.com/senior-data-architect-100-remote-job-calabasas-ca-us-183045834.aspx'
p435
aS'http://job-openings.monster.com/monster/f7ec86dc-efc7-43d8-b142-3b93941292d1'
p436
aS'http://jobview.monster.com/auto-damage-management-development-program-california-job-california-ca-us-182556533.aspx'
p437
aS'http://job-openings.monster.com/monster/fe9eca24-6140-439e-b13c-ac5c9daa220c'
p438
aS'http://job-openings.monster.com/monster/765588a3-50b4-44be-9afe-50e12bd67c7f'
p439
aS'http://job-openings.monster.com/monster/9c746b4a-2e15-45ab-986a-502079b53867'
p440
aS'http://job-openings.monster.com/monster/e8b8997c-3b54-4a16-97a5-be8fbd4f825a'
p441
aS'http://job-openings.monster.com/monster/2974ea1b-a748-40a0-9f5f-a2f9e1c462e7'
p442
aS'http://job-openings.monster.com/monster/5fc1aa67-0ec1-417d-a1aa-bb4e2de4df21'
p443
aS'http://job-openings.monster.com/monster/3c9361f3-3378-4068-aff0-0a392f78704f'
p444
aS'http://job-openings.monster.com/monster/d5c2f95d-937c-4fad-98d9-32bf49c30d41'
p445
aS'http://job-openings.monster.com/monster/21127a8a-cd07-47ce-bc8f-becaaaef1995'
p446
aS'http://jobview.monster.com/pr-manager-west-coast-job-san-francisco-ca-us-182233598.aspx'
p447
aS'http://job-openings.monster.com/monster/4d0b24f3-b78f-42c7-af3c-8d4f73905d3b'
p448
aS'http://jobview.monster.com/senior-healthcare-data-scientist-us-telecommute-job-san-diego-ca-us-182526352.aspx'
p449
aS'http://job-openings.monster.com/monster/874f74c7-da88-4f12-9440-698e1ba32fad'
p450
aS'http://jobview.monster.com/at-t-labs-internship-%e2%80%93-advanced-degrees-job-san-francisco-ca-us-180081341.aspx'
p451
aS'http://job-openings.monster.com/monster/b62931e9-ba60-4d6f-9a97-0cf7e8a18f5a'
p452
aS'http://job-openings.monster.com/monster/5e22778c-4c0f-4c76-9170-5c30c8ffaee0'
p453
aS'http://job-openings.monster.com/monster/cc9d23bb-b10b-4d51-b55b-ce7b238ae7b1'
p454
aS'http://job-openings.monster.com/monster/3e8a925a-15fc-4852-85b4-9b6dc3902adf'
p455
aS'http://job-openings.monster.com/monster/49653215-162d-45c1-9886-0a8a3566f0a2'
p456
aS'http://job-openings.monster.com/monster/d76d81ca-70aa-4d8b-8f67-07ceec6c6de6'
p457
aS'http://job-openings.monster.com/monster/c5d800de-096b-4df1-8bbb-ea1919a9fd75'
p458
aS'http://job-openings.monster.com/monster/92b393c3-5a25-4b23-be49-6c1100608999'
p459
aS'http://job-openings.monster.com/monster/e760f485-e37b-4bac-90d0-973f15ac68be'
p460
aS'http://job-openings.monster.com/monster/16492985-e207-4e54-ad5b-796bad25a904'
p461
aS'http://job-openings.monster.com/monster/f12be42c-4e9a-4cad-8c17-b327b5d25f82'
p462
aS'http://job-openings.monster.com/monster/54174716-de20-48e3-931f-3d1c5dd31fe9'
p463
aS'http://job-openings.monster.com/monster/7681e429-dccd-4541-b285-e690ec70a3cc'
p464
aS'http://job-openings.monster.com/monster/54343de5-d086-4e28-a4c1-31f9c393acf9'
p465
aS'http://job-openings.monster.com/monster/4074fce7-3520-4547-ad6a-c0e3aa59b39b'
p466
aS'http://job-openings.monster.com/monster/634f2ee3-94fa-44c6-9410-cd49659a37c0'
p467
aS'http://job-openings.monster.com/monster/fb3e0bcb-cd1f-4b60-8933-25bcbd83bc6b'
p468
aS'http://job-openings.monster.com/monster/83239e8b-3039-4cb5-935a-94527e50736c'
p469
aS'http://job-openings.monster.com/monster/27f0bd3c-9488-4886-ac70-16d673bc46b7'
p470
aS'http://job-openings.monster.com/monster/560fa779-a021-4e34-ac93-a47a821dc3b5'
p471
aS'http://jobview.monster.com/business-data-analyst-job-universal-city-ca-us-182398682.aspx'
p472
aS'http://job-openings.monster.com/monster/2d9fe2a6-13bf-41e6-8cc4-beec58e7414e'
p473
aS'http://job-openings.monster.com/monster/153ffb48-ce72-440f-8de6-deb3df57b143'
p474
aS'http://job-openings.monster.com/monster/872efad8-6cee-443f-9766-d5d079f8ca83'
p475
aS'http://jobview.monster.com/ios-engineer-ios-objective-c-ios-development-job-san-francisco-ca-us-182961077.aspx'
p476
aS'http://job-openings.monster.com/monster/1aee23cf-913e-44a4-9f44-b0ae8f1519de'
p477
aS'http://job-openings.monster.com/monster/d4487e70-1d5c-4872-bc5f-a1a30d4ee731'
p478
aS'http://job-openings.monster.com/monster/9f0a0006-8c7c-4b9c-a59b-868f2d49e8c2'
p479
aS'http://jobview.monster.com/financial-analyst-i-job-universal-city-ca-us-182286770.aspx'
p480
aS'http://job-openings.monster.com/monster/0570f9d2-3626-4033-a107-db201e5ca2a7'
p481
aS'http://jobview.monster.com/data-scientist-job-palo-alto-ca-us-182511055.aspx'
p482
aS'http://jobview.monster.com/senior-data-architect-top-50-visited-website-in-america-job-calabasas-ca-us-182960723.aspx'
p483
aS'http://job-openings.monster.com/monster/5dee783f-02b4-4524-96bf-d97608409a01'
p484
aS'http://job-openings.monster.com/monster/82418d07-4c49-4053-885a-9631cb72c210'
p485
aS'http://job-openings.monster.com/monster/6e3a5a3c-d02c-4723-a4e5-0fd0d2fe4180'
p486
aS'http://job-openings.monster.com/monster/716e9091-5030-4fd2-b631-1d781b278b31'
p487
aS'http://job-openings.monster.com/monster/c46f4630-05b1-4caf-b2d9-c2856fdcbdf5'
p488
aS'http://job-openings.monster.com/monster/833c9190-4df6-4178-ba6d-c5db7c567fde'
p489
aS'http://job-openings.monster.com/monster/46b219ae-641d-4139-8987-e03885de2982'
p490
aS'http://job-openings.monster.com/monster/88848dae-8f75-4e97-bd55-bff7936e188b'
p491
aS'http://job-openings.monster.com/monster/b89a0dcc-9889-4de6-b19f-63cddf2cee04'
p492
aS'http://job-openings.monster.com/monster/dd9e2236-6834-4aea-b377-53da3bff31e1'
p493
aS'http://job-openings.monster.com/monster/bf9040d2-ee5e-4de1-9bd7-e617dd2ba8c7'
p494
aS'http://job-openings.monster.com/monster/6bc832a4-9ed7-4db6-9b8a-d81db19c4e9f'
p495
aS'http://job-openings.monster.com/monster/0614a1ac-78fe-4683-af3d-8ebadb467e5b'
p496
aS'http://job-openings.monster.com/monster/2024dda4-7708-4c84-8994-5722101a3804'
p497
aS'http://job-openings.monster.com/monster/a1ed4410-438a-477c-b0de-cc344e6582ee'
p498
aS'http://job-openings.monster.com/monster/0fe0da9f-3665-4ed0-8263-948b4aabffa5'
p499
aS'http://job-openings.monster.com/monster/9eb48691-f42b-4ee0-8d42-0bdad49646ba'
p500
aS'http://job-openings.monster.com/monster/7a2ee22d-a307-4aaa-a0d3-e0b50462a3d2'
p501
aS'http://job-openings.monster.com/monster/c8093c54-0bdc-4952-9d9c-a285761c0f0a'
p502
aS'http://job-openings.monster.com/monster/18d0dbb2-bc59-4ae0-9f4c-eaabfa836ebd'
p503
aS'http://job-openings.monster.com/monster/906c220b-271b-42d1-b415-5e255d5fb9fe'
p504
aS'http://job-openings.monster.com/monster/c3c27d7d-8bd9-44a6-8391-17db5b4391cd'
p505
aS'http://job-openings.monster.com/monster/14ab81f3-4d46-4857-bb22-52fad0a1d6ce'
p506
aS'http://job-openings.monster.com/monster/c299a0e2-5a4a-465e-a3cf-cf4fb6f194a6'
p507
aS'http://job-openings.monster.com/monster/45dd9003-06a3-4c87-823c-9907900d6d75'
p508
aS'http://job-openings.monster.com/monster/ca84bb27-8b6c-4baa-8b6f-5c9078635c22'
p509
aS'http://jobview.monster.com/research-scientist-deep-learning-nlp-machine-learning-job-palo-alto-ca-us-183142078.aspx'
p510
aS'http://job-openings.monster.com/monster/ed7da6dc-39cd-4a21-be35-aea3b0d25834'
p511
aS'http://job-openings.monster.com/monster/71e11a0e-182d-49c8-91eb-aa76959aa5de'
p512
aS'http://job-openings.monster.com/monster/25a2046f-314d-4678-8967-67385e778e80'
p513
aS'http://job-openings.monster.com/monster/f6a768ba-d84d-4e7f-a3bb-7aea00272d88'
p514
aS'http://job-openings.monster.com/monster/2f811a6f-ddce-4cc3-ba2b-d799aa33a477'
p515
aS'http://job-openings.monster.com/monster/392c3f18-9a22-4297-a57e-14ac903ddb09'
p516
aS'http://job-openings.monster.com/monster/c8c350b7-23dd-461d-883e-33193c2763d7'
p517
aS'http://jobview.monster.com/clinical-data-scientist-manager-job-san-francisco-ca-us-182545832.aspx'
p518
aS'http://job-openings.monster.com/monster/821122de-b32d-438c-8289-ac2d0f1a4aa0'
p519
aS'http://job-openings.monster.com/monster/d1505374-e434-428f-b3b3-59ceb49df928'
p520
aS'http://job-openings.monster.com/monster/31584717-6607-4895-8fbe-5d0ee3d2a533'
p521
aS'http://job-openings.monster.com/monster/768946bb-d3e5-4eb5-b5e4-333ab0c5828a'
p522
aS'http://job-openings.monster.com/monster/6c8b84b9-471e-4320-9443-95f6e33b1d34'
p523
aS'http://jobview.monster.com/cto-machine-learning-data-science-python-job-san-francisco-ca-us-183139655.aspx'
p524
aS'http://job-openings.monster.com/monster/7053771e-a8c9-4f98-b3dc-2e0155743e52'
p525
aS'http://job-openings.monster.com/monster/b03a4623-e39f-49fa-851b-56a576bbda76'
p526
aS'http://jobview.monster.com/senior-imaging-scientist-research-job-torrance-ca-us-181396753.aspx'
p527
aS'http://job-openings.monster.com/monster/07a6ebf4-c9d8-4e53-8614-b4971f93caea'
p528
aS'http://job-openings.monster.com/monster/54a29281-9bdc-4d8d-bbfa-dc6ba43b2a1a'
p529
aS'http://job-openings.monster.com/monster/7bbed45d-2194-4f42-989c-3af30dcb1515'
p530
aS'http://job-openings.monster.com/monster/765f9dc8-1a7a-4b92-844d-2f2c2ecc2664'
p531
aS'http://job-openings.monster.com/monster/83ec5cc5-471b-4620-8d05-2eddbd320b73'
p532
aS'http://job-openings.monster.com/monster/48f48174-7019-4b4c-a9e5-5cce7bbfc3b3'
p533
aS'http://job-openings.monster.com/monster/9a4b87f2-c68f-48cc-92ea-00d2a92a6737'
p534
aS'http://job-openings.monster.com/monster/b6c45b34-2c35-4561-b316-6d55a9228b1c'
p535
aS'http://job-openings.monster.com/monster/1d0f8f78-2b7e-4b09-b50e-4d28a25225e6'
p536
aS'http://job-openings.monster.com/monster/bc1cd33b-c4fa-4e36-a031-9803cb65f1b7'
p537
aS'http://job-openings.monster.com/monster/18b0f3b1-e810-4242-9b9b-476a920e2a2d'
p538
aS'http://job-openings.monster.com/monster/a484af02-15a9-49cf-97ca-0b772df0e193'
p539
aS'http://job-openings.monster.com/monster/3be2df6e-1651-4b94-8ccd-c2529a3f619c'
p540
aS'http://job-openings.monster.com/monster/4f5633f9-d534-435f-b4e8-71e83fd8cad1'
p541
aS'http://job-openings.monster.com/monster/e18a6c05-975a-4fb9-a2f6-4b3cfcd1fcf3'
p542
aS'http://job-openings.monster.com/monster/0ce76e23-3b4e-4339-b784-b312ee9d87cc'
p543
aS'http://jobview.monster.com/sr-splunk-consultant-job-sacramento-ca-us-183074848.aspx'
p544
aS'http://job-openings.monster.com/monster/c18fe408-ef7d-4628-9885-df8ae546b1ea'
p545
aS'http://job-openings.monster.com/monster/b7d0017f-3869-49cd-8a04-635ae2a4a8f8'
p546
aS'http://job-openings.monster.com/monster/f2437256-bfb2-49a9-9d09-5b8c178c7561'
p547
aS'http://job-openings.monster.com/monster/8dedb91a-b839-4a7d-b68e-d584f90f6f45'
p548
aS'http://jobview.monster.com/machine-learning-engineer-top-security-startup!-job-redwood-city-ca-us-183012872.aspx'
p549
aS'http://job-openings.monster.com/monster/dd0c1c62-12cd-44d7-ba48-61f8fe1cdc5f'
p550
aS'http://job-openings.monster.com/monster/3f601c81-f22c-49e5-b8d2-aed635c0f54e'
p551
aS'http://jobview.monster.com/software-engineer-job-sunnyvale-ca-us-182105462.aspx'
p552
aS'http://job-openings.monster.com/monster/f2f5259c-33d2-4f5b-a436-eb7c93a707f2'
p553
aS'http://jobview.monster.com/data-scientist-only-w2-job-santa-clara-ca-us-182712162.aspx'
p554
aS'http://job-openings.monster.com/monster/a53c9d34-a370-4f0e-a55e-9bcf3ad762b7'
p555
aS'http://job-openings.monster.com/monster/f92b8630-343d-415d-9007-53f0833eab02'
p556
aS'http://job-openings.monster.com/monster/73bc2d5c-ad82-4bd0-9bfd-11ad696fa584'
p557
aS'http://job-openings.monster.com/monster/ce693dcb-fff0-415a-a572-b71ad34e8ebc'
p558
aS'http://job-openings.monster.com/monster/aa478525-725f-4abd-b40a-9e471d2377a6'
p559
aS'http://job-openings.monster.com/monster/1efa0181-675a-410f-a96d-eace198b1b65'
p560
aS'http://job-openings.monster.com/monster/f65e8fb1-d6dc-412e-a924-97aa826ff456'
p561
aS'http://jobview.monster.com/senior-data-scientist-job-santa-clara-ca-us-182484322.aspx'
p562
aS'http://job-openings.monster.com/monster/7fa42ece-ed76-47df-9342-7078a849c6d8'
p563
aS'http://job-openings.monster.com/monster/3dd1c7ce-4c5b-4843-aeeb-f58c89c29375'
p564
aS'http://job-openings.monster.com/monster/82aa4211-28a9-4602-88e3-00b505a91790'
p565
aS'http://job-openings.monster.com/monster/8ef9d302-97c7-4c04-9bd9-d09f7d5ea4d8'
p566
aS'http://job-openings.monster.com/monster/d983960b-c560-45b7-ab5f-cd90cc4dc1de'
p567
aS'http://job-openings.monster.com/monster/4d619e0a-66f1-4a2d-aa99-efe85945c0d1'
p568
aS'http://job-openings.monster.com/monster/401ac57d-cdef-45b4-934a-119e7e2ddff8'
p569
aS'http://job-openings.monster.com/monster/fe91d2a9-5160-4178-9df4-e7308fed187f'
p570
aS'http://job-openings.monster.com/monster/f69b8d0a-909e-4076-a459-c70366cb7d8c'
p571
aS'http://jobview.monster.com/data-engineer-job-redwood-city-ca-us-182433180.aspx'
p572
aS'http://job-openings.monster.com/monster/c7eb1cb6-61ad-495b-b17c-88d6b638008d'
p573
aS'http://job-openings.monster.com/monster/d8a487f5-416f-4d34-b424-e0e63fdcc162'
p574
aS'http://jobview.monster.com/business-intelligence-data-analyst-job-napa-ca-us-182765892.aspx'
p575
aS'http://job-openings.monster.com/monster/b0dd6d1b-aa24-4b0c-b02d-4d5491b82704'
p576
aS'http://job-openings.monster.com/monster/e6b80a2a-90f7-4433-8e84-bef0cc4ebc95'
p577
aS'http://job-openings.monster.com/monster/48a003cf-9569-42c6-9a76-c2ae8fd33c2f'
p578
aS'http://job-openings.monster.com/monster/7a32f474-6089-4972-8baa-536cded4e51d'
p579
aS'http://job-openings.monster.com/monster/b447e2eb-803a-4073-b30b-e6fc1bd2695a'
p580
aS'http://job-openings.monster.com/monster/e90c4df9-1c11-4ac9-b4d5-3face544b327'
p581
aS'http://job-openings.monster.com/monster/8ae0aef8-f579-4795-b913-2a8db097ce0a'
p582
aS'http://job-openings.monster.com/monster/f2899523-38d1-4893-a3aa-d4f86189d136'
p583
aS'http://job-openings.monster.com/monster/e64489ae-393c-4a5a-be5e-e2a9b956dde3'
p584
aS'http://job-openings.monster.com/monster/bfdc3c9f-de57-47ff-b5ec-2832a8eabb36'
p585
aS'http://job-openings.monster.com/monster/5fcd5c35-b731-4e99-bb35-9886498a0464'
p586
aS'http://jobview.monster.com/statistician-modeler-data-scientist-job-foster-city-ca-us-182662761.aspx'
p587
aS'http://job-openings.monster.com/monster/fda430fd-678e-43e9-8663-fbff17c48853'
p588
aS'http://job-openings.monster.com/monster/2067e10f-f0e3-40e6-87d4-283d45732559'
p589
aS'http://job-openings.monster.com/monster/d0ac786f-f492-4778-b2db-8d81273724f6'
p590
aS'http://job-openings.monster.com/monster/5e8d2aa2-3586-4056-b7d8-93230eddf798'
p591
aS'http://job-openings.monster.com/monster/dd00f348-a3a4-4647-aef4-245457c322e2'
p592
aS'http://job-openings.monster.com/monster/e8666ba6-3983-4692-91be-94c4629dc6dd'
p593
aS'http://job-openings.monster.com/monster/f1020e16-881c-4410-9c94-ec367e1d1f79'
p594
aS'http://jobview.monster.com/senior-account-executive-job-costa-mesa-ca-us-182285900.aspx'
p595
aS'http://job-openings.monster.com/monster/f71e1897-410f-4344-8620-7f57edbd47a3'
p596
aS'http://job-openings.monster.com/monster/eed7584f-77b8-46c6-b0b2-76446d8b0326'
p597
aS'http://job-openings.monster.com/monster/482e7c19-b810-4bc2-9da3-24aa1f7388d1'
p598
aS'http://job-openings.monster.com/monster/2d19ef50-acd2-4cbd-a5ca-4801356e4159'
p599
aS'http://jobview.monster.com/ios-engineer-ios-objective-c-ios-development-job-san-francisco-ca-us-183143036.aspx'
p600
aS'http://job-openings.monster.com/monster/be41aaee-e952-4341-979e-d747e9907839'
p601
aS'http://job-openings.monster.com/monster/3d782bcb-6ac4-4bf3-80ed-e7bc1ab81790'
p602
aS'http://job-openings.monster.com/monster/9b6cc608-4d28-4398-88d8-0715d8f3cc23'
p603
aS'http://jobview.monster.com/sr-data-scientist-solution-architect-job-berkeley-ca-us-182548601.aspx'
p604
aS'http://job-openings.monster.com/monster/fdb23396-0fc2-453e-896a-09f9c7ea3065'
p605
aS'http://job-openings.monster.com/monster/d9205e00-2556-4219-93d7-4fe825ee999a'
p606
aS'http://job-openings.monster.com/monster/bbf0edf7-66ad-4727-bd48-73b7c361bbb9'
p607
aS'http://job-openings.monster.com/monster/75ddc9f2-213c-4944-91f9-f3fa6440e5a5'
p608
aS'http://job-openings.monster.com/monster/6cf97c59-93a0-467b-a881-2579f0718283'
p609
aS'http://job-openings.monster.com/monster/c5ad645d-c49e-4b2a-a6a9-dfb66de7d832'
p610
aS'http://job-openings.monster.com/monster/40e32848-681b-4e70-a27d-1ab3fd667746'
p611
aS'http://job-openings.monster.com/monster/9c50816e-442e-4863-8684-749a5cf1607c'
p612
aS'http://job-openings.monster.com/monster/2f333fe7-46de-49fe-9639-77b5ac6b8362'
p613
aS'http://job-openings.monster.com/monster/06ede82b-1f41-4412-a962-cf5b49f2179e'
p614
aS'http://job-openings.monster.com/monster/c0d96248-4cf1-415c-9a8c-2a35dc2bb767'
p615
aS'http://job-openings.monster.com/monster/4dce48df-64c1-442a-b146-2540867744e5'
p616
aS'http://job-openings.monster.com/monster/0db7c40e-e6c0-4f01-a084-077cca6547b2'
p617
aS'http://job-openings.monster.com/monster/73e7922a-19f8-4d8a-95e7-80d9127aebe0'
p618
aS'http://job-openings.monster.com/monster/6d2974f5-09ac-4b75-8797-40c4d0fbc64c'
p619
aS'http://job-openings.monster.com/monster/734c1d20-9199-4a15-a577-86b1c29feb37'
p620
aS'http://jobview.monster.com/software-engineer-top-secret-sci-clearances-only-job-redondo-beach-ca-us-182095686.aspx'
p621
aS'http://job-openings.monster.com/monster/a036a0a0-5dcf-44a7-8f2d-a893c99bea44'
p622
aS'http://job-openings.monster.com/monster/85467323-c900-4f07-a350-281d8b8037ac'
p623
aS'http://job-openings.monster.com/monster/d9a81d65-727a-4944-949e-0a65a92a4bb7'
p624
aS'http://job-openings.monster.com/monster/83411b3f-d78e-426c-b345-5112c1ab3d22'
p625
aS'http://jobview.monster.com/senior-data-engineer-pipeline-architecture-analytics-job-santa-monica-ca-us-182403333.aspx'
p626
aS'http://job-openings.monster.com/monster/3888d705-dc41-4975-b6a7-09db9fff8d97'
p627
aS'http://job-openings.monster.com/monster/16e43f8a-93c7-4845-b820-3bc588c340f2'
p628
aS'http://jobview.monster.com/research-engineer-computer-vision-augmented-reality-up-to-180k-job-san-francisco-ca-us-181902206.aspx'
p629
aS'http://job-openings.monster.com/monster/135a9b0f-8c92-43b5-acf2-3c0f4fa1a6c8'
p630
aS'http://job-openings.monster.com/monster/7167edd9-f20e-4b87-b54c-ac5bd4add814'
p631
aS'http://job-openings.monster.com/monster/b0b98ffa-70da-478f-907f-043e1383fd50'
p632
aS'http://job-openings.monster.com/monster/a789e37a-67fd-42f5-abf9-cdbb5e2c374a'
p633
aS'http://job-openings.monster.com/monster/2cac65be-e3ca-4468-ad77-191f3d466dd3'
p634
aS'http://job-openings.monster.com/monster/1e3b5df5-c040-4024-8d2c-97129308482c'
p635
aS'http://job-openings.monster.com/monster/8fc8b2fb-0cb7-481a-8092-5e78900f80f1'
p636
aS'http://job-openings.monster.com/monster/a5dc7f78-28b0-4526-a43c-78c42df8a8db'
p637
aS'http://job-openings.monster.com/monster/44886dcb-7865-44b6-8c9c-bfe6dd6f7272'
p638
aS'http://jobview.monster.com/healthcare-data-scientist-remote-base-candidates-welcome-job-los-angeles-ca-us-182838515.aspx'
p639
aS'http://job-openings.monster.com/monster/3665ff81-3753-4c34-b33f-7c1f98206cbc'
p640
aS'http://job-openings.monster.com/monster/c9c77432-6f94-49dc-a03e-fd1bfa9c21e2'
p641
aS'http://jobview.monster.com/sr-data-scientist-machine-learning-data-mining-san-mateo-job-san-mateo-ca-us-182453892.aspx'
p642
aS'http://job-openings.monster.com/monster/ffbd9f28-9fa9-48b9-a515-728fe6b0ef80'
p643
aS'http://job-openings.monster.com/monster/0a980ffd-778a-4484-ba8a-05310382b61e'
p644
aS'http://jobview.monster.com/data-scientist-algorithms-statistics-machine-learning-sql-job-santa-clara-ca-us-183013071.aspx'
p645
aS'http://job-openings.monster.com/monster/4f8366c7-69eb-40bd-babd-57edf3220a5e'
p646
aS'http://job-openings.monster.com/monster/d3484b9c-8b95-4159-97a0-e0436978dbf1'
p647
aS'http://job-openings.monster.com/monster/2fb2f392-5caf-4bf0-9828-f1f6435dda4a'
p648
aS'http://job-openings.monster.com/monster/b9170273-5a25-4840-81e7-5bb9ca28a59f'
p649
aS'http://job-openings.monster.com/monster/a117df26-6c38-42fe-967c-dc1537f4cc7d'
p650
aS'http://job-openings.monster.com/monster/5e6e61b6-c7d8-47ed-9d5e-9816771441fd'
p651
aS'http://job-openings.monster.com/monster/f9653eed-cf35-4482-b823-882626c96dfa'
p652
aS'http://job-openings.monster.com/monster/e281067a-72b4-4eb7-9814-5305f5c53ce7'
p653
aS'http://job-openings.monster.com/monster/99c7a7cd-d5c7-4bbe-9b24-aa92613fd4bc'
p654
aS'http://job-openings.monster.com/monster/7283d90c-aeb5-4e09-a6a8-b121d37f0494'
p655
aS'http://job-openings.monster.com/monster/8aafbd51-d5ec-4d16-9372-0a377730812b'
p656
aS'http://job-openings.monster.com/monster/d5dd1519-db5f-4114-bc15-da8c4fd4cfda'
p657
aS'http://jobview.monster.com/senior-data-scientist-job-mountain-view-ca-us-182235680.aspx'
p658
aS'http://job-openings.monster.com/monster/a7d8832d-1b44-46dc-998e-30b3f892bddd'
p659
aS'http://job-openings.monster.com/monster/37c292ec-32ae-407f-b151-d75d0f1568e7'
p660
aS'http://job-openings.monster.com/monster/c6367752-ab75-4fb5-b783-8694ab031e8b'
p661
aS'http://jobview.monster.com/sr-data-scientist-machine-learning-data-mining-san-mateo-job-san-mateo-ca-us-183145280.aspx'
p662
aS'http://job-openings.monster.com/monster/cba08207-0af3-4d36-be2a-3562e218447e'
p663
aS'http://job-openings.monster.com/monster/5b8347b0-0d93-47c6-bf08-7ab8c01d6c58'
p664
aS'http://job-openings.monster.com/monster/e3afa078-3f25-4a59-b66b-e28f33d1f341'
p665
aS'http://job-openings.monster.com/monster/66b21586-1e53-4447-8a55-862925fb5ed6'
p666
aS'http://job-openings.monster.com/monster/1b53574c-1f79-47dd-8b66-8d5ac70e602e'
p667
aS'http://job-openings.monster.com/monster/355f773a-fe2c-4613-9dc2-fba43e7f1df3'
p668
aS'http://jobview.monster.com/machine-learning-engineer-job-san-francisco-ca-us-182765844.aspx'
p669
aS'http://job-openings.monster.com/monster/b794917f-d663-412f-89d4-a5fe22071d12'
p670
aS'http://job-openings.monster.com/monster/e68532f1-842c-4037-8d2a-e067e360b161'
p671
aS'http://job-openings.monster.com/monster/62283a51-d0bb-4132-8255-86df840ba102'
p672
aS'http://job-openings.monster.com/monster/105cff44-2614-4031-b26e-bed092ea5fb1'
p673
aS'http://job-openings.monster.com/monster/a33e80bd-26f4-441d-8da0-13a108d169da'
p674
aS'http://job-openings.monster.com/monster/597a69e1-05d4-4ff5-aeea-17d842095c2a'
p675
aS'http://job-openings.monster.com/monster/f3350f9e-a45d-475e-b59c-2011d686df75'
p676
aS'http://job-openings.monster.com/monster/6a319dfb-506b-43da-bbbc-d520ceb140e4'
p677
aS'http://jobview.monster.com/data-monitoring-management-group-lead-director-job-san-francisco-ca-us-182545776.aspx'
p678
aS'http://job-openings.monster.com/monster/c1f04be2-708a-4e6d-b3a1-9e6d06b447c1'
p679
aS'http://job-openings.monster.com/monster/a2c61ad4-b72e-4174-bf00-6d0575f4844c'
p680
aS'http://job-openings.monster.com/monster/2922d4b6-4c20-44a7-ad2f-7dc0728abef7'
p681
aS'http://job-openings.monster.com/monster/c8316fa6-8eda-491f-914a-6f14fd8b010c'
p682
aS'http://job-openings.monster.com/monster/fcf8036d-31de-4c2a-b996-fd4ddddddac5'
p683
aS'http://job-openings.monster.com/monster/24f1d450-a412-4298-bab3-4547d6276451'
p684
aS'http://job-openings.monster.com/monster/174dc4cc-7b74-4062-9196-f77cf01dcd67'
p685
aS'http://job-openings.monster.com/monster/68238f1d-50c1-47fe-a902-0b9771ecb437'
p686
aS'http://job-openings.monster.com/monster/5909bd89-4e2c-4d65-ac5f-aa8715b829e5'
p687
aS'http://job-openings.monster.com/monster/01141437-5d1e-462f-9e42-ebc99a42c2cc'
p688
aS'http://job-openings.monster.com/monster/bc24608b-a4b6-4bb6-9069-ef6d1c496cd9'
p689
aS'http://job-openings.monster.com/monster/75273993-1776-4b24-af8a-a15dcb407091'
p690
aS'http://job-openings.monster.com/monster/d5776730-eebe-47f3-b695-57aea0c399cf'
p691
aS'http://job-openings.monster.com/monster/32f6ad5d-f408-44c2-818c-525a30e3b344'
p692
aS'http://job-openings.monster.com/monster/a3723d87-dfd6-4037-9104-684601c405db'
p693
aS'http://job-openings.monster.com/monster/350216f4-645a-4723-926c-c3b9e96b7bfa'
p694
aS'http://job-openings.monster.com/monster/e77df50e-1916-4674-ad0e-1bab396cbac7'
p695
aS'http://jobview.monster.com/bioinformatics-engineer-sequencing-2-job-santa-clara-ca-us-183114583.aspx'
p696
aS'http://jobview.monster.com/ios-engineer-job-mountain-view-ca-us-183077260.aspx'
p697
aS'http://job-openings.monster.com/monster/c8bceacb-227f-449b-8bea-0b99a2b6051d'
p698
aS'http://job-openings.monster.com/monster/4abd2300-79fd-4a5a-8c1b-28382cb6ba6a'
p699
aS'http://jobview.monster.com/multiple-positions-job-san-francisco-ca-us-182839945.aspx'
p700
aS'http://job-openings.monster.com/monster/a80119d5-3819-4be0-9a5b-493b62332c94'
p701
aS'http://job-openings.monster.com/monster/6dec0364-9b3e-4f59-adb9-ac25663cec89'
p702
aS'http://jobview.monster.com/senior-software-engineer-job-menlo-park-ca-us-182660482.aspx'
p703
aS'http://job-openings.monster.com/monster/6ea77ce9-7903-4272-a006-9620b1fc88b4'
p704
aS'http://job-openings.monster.com/monster/ab30e081-d4e4-49f9-b59b-4f48d3e1cc6c'
p705
aS'http://job-openings.monster.com/monster/b7de4edc-8ddd-4132-a351-d987c67375a8'
p706
aS'http://job-openings.monster.com/monster/ca7f147b-b26b-4080-8431-092504cc3118'
p707
aS'http://job-openings.monster.com/monster/c6ce86d0-90b4-4733-b47c-eda7742731e3'
p708
aS'http://jobview.monster.com/data-analyst-scientist-spend-job-stanford-ca-us-182508946.aspx'
p709
aS'http://job-openings.monster.com/monster/876a4b40-6bc0-4770-8ed0-6fb5082a5e5a'
p710
aS'http://jobview.monster.com/multiple-openings-job-san-francisco-ca-us-182080320.aspx'
p711
aS'http://jobview.monster.com/web-analytics-manager-hot-job!-job-san-diego-ca-us-182623347.aspx'
p712
aS'http://job-openings.monster.com/monster/df6b85f0-ea73-4713-8aa3-d8a378ac60a7'
p713
aS'http://job-openings.monster.com/monster/b6e223c2-27fb-4a55-9de4-a0f6d506be31'
p714
aS'http://job-openings.monster.com/monster/aebc61dd-5a85-41ca-8421-9c9eaadddbe5'
p715
aS'http://job-openings.monster.com/monster/29020582-8b0e-4f77-b3b8-10d6d6027bd2'
p716
aS'http://jobview.monster.com/senior-data-architect-100-remote-job-agoura-ca-us-183143391.aspx'
p717
aS'http://job-openings.monster.com/monster/bfe6fa3d-d49d-4997-a6fa-4c46251635ab'
p718
aS'http://job-openings.monster.com/monster/b513649f-5a64-4a8d-a51a-c7b172b45521'
p719
aS'http://job-openings.monster.com/monster/3b9a5762-a365-42f1-bd3e-135433323f50'
p720
aS'http://job-openings.monster.com/monster/7cfafad3-bee3-4e76-b8dd-0452670fd4dc'
p721
aS'http://job-openings.monster.com/monster/131158fa-c59f-4343-8dec-dafce696dd64'
p722
aS'http://job-openings.monster.com/monster/63f68df2-c06c-4c5c-a8e0-e9c38a7728cb'
p723
aS'http://job-openings.monster.com/monster/d7e6f30a-bed9-4adb-9323-b397d10359bb'
p724
aS'http://job-openings.monster.com/monster/15a3d40b-ecf8-432c-8114-6966462bd812'
p725
aS'http://job-openings.monster.com/monster/7c677500-4a61-491b-8985-856434ec041b'
p726
aS'http://job-openings.monster.com/monster/6ec185f9-0aef-4aa1-bba6-295de7e28066'
p727
aS'http://job-openings.monster.com/monster/e59e5ecc-ead8-4901-b418-44f1894ddaf9'
p728
aS'http://job-openings.monster.com/monster/f18235ac-8962-42b6-bbda-750abf5e62aa'
p729
aS'http://jobview.monster.com/data-scientist-2-job-san-diego-ca-us-182907966.aspx'
p730
aS'http://job-openings.monster.com/monster/72a6ca55-586d-47ee-92f9-a56468d229c4'
p731
aS'http://job-openings.monster.com/monster/60fa1534-11e6-4b78-bbf5-d76884bdd44b'
p732
aS'http://job-openings.monster.com/monster/b8b7ef82-07b0-45d2-944f-077ec9b87ed7'
p733
aS'http://job-openings.monster.com/monster/e0042802-7b6a-425f-9855-069a6df62677'
p734
aS'http://job-openings.monster.com/monster/327e0e05-4b8b-4600-a8cf-3efa127a814c'
p735
aS'http://jobview.monster.com/senior-data-engineer-pipeline-architecture-analytics-job-santa-monica-ca-us-183143261.aspx'
p736
aS'http://job-openings.monster.com/monster/10b72167-f270-41a5-b2f0-5363b71e7f6a'
p737
aS'http://job-openings.monster.com/monster/9b10b2af-82d1-42df-8093-05cd82680186'
p738
aS'http://job-openings.monster.com/monster/75c4080b-e3d1-4142-ac49-a83dec4db996'
p739
aS'http://jobview.monster.com/data-scientist-job-palo-alto-ca-us-183053360.aspx'
p740
aS'http://job-openings.monster.com/monster/3131e40f-f496-4ee1-ab69-b5c3dfea625a'
p741
aS'http://job-openings.monster.com/monster/53e333db-570d-4262-8417-0218e98b3a21'
p742
aS'http://jobview.monster.com/web-analytics-manager-hot-job!-job-san-diego-ca-us-183142806.aspx'
p743
aS'http://jobview.monster.com/senior-data-scientist-job-santa-monica-ca-us-183143268.aspx'
p744
aS'http://job-openings.monster.com/monster/1cb8c7f3-b93f-4d41-977c-5fde51a7523f'
p745
aS'http://job-openings.monster.com/monster/18b39e55-6dfe-4407-8a16-e92b7bece79c'
p746
aS'http://job-openings.monster.com/monster/fc2cacbb-22a1-405c-85cd-db4d139c6cd4'
p747
aS'http://job-openings.monster.com/monster/b43f34a1-3bbc-4a9e-97ef-b1f7ed9bcf00'
p748
aS'http://job-openings.monster.com/monster/db329130-a0ab-4d0a-b0b1-caf900018c98'
p749
aS'http://job-openings.monster.com/monster/5e82f05e-ab69-45b3-a780-8b95f2457feb'
p750
aS'http://job-openings.monster.com/monster/484473f1-ec60-4c98-a781-45c354e988ed'
p751
aS'http://job-openings.monster.com/monster/d248b187-30ab-4d39-9b0a-1d740a8ff390'
p752
aS'http://jobview.monster.com/principal-data-scientist-machine-learning-job-san-francisco-ca-us-182812843.aspx'
p753
aS'http://job-openings.monster.com/monster/9a234c85-0676-4e4d-a6c9-82f9ff982f92'
p754
aS'http://job-openings.monster.com/monster/129bd1d6-9aa5-4595-8ded-06539321f391'
p755
aS'http://jobview.monster.com/senior-imaging-scientist-research-job-santa-ana-ca-us-181396829.aspx'
p756
aS'http://job-openings.monster.com/monster/b53c02f5-41f2-45ef-a83d-00d8b0605912'
p757
aS'http://job-openings.monster.com/monster/1976eb98-cfe0-4365-bee3-a4c62d3eed17'
p758
aS'http://job-openings.monster.com/monster/b3bd68e5-401b-44ed-baec-c551496f71fe'
p759
aS'http://job-openings.monster.com/monster/798dfe81-7e4d-443f-8cd3-362075abb483'
p760
aS'http://job-openings.monster.com/monster/a3e93b87-31d7-49a7-88dd-8d3d10350b5c'
p761
aS'http://job-openings.monster.com/monster/6abfc463-c8ad-48e4-87e9-fc3d92208fe3'
p762
aS'http://job-openings.monster.com/monster/e0929b39-12ae-4e3e-8115-fdc0174c84c1'
p763
aS'http://jobview.monster.com/lead-site-reliability-engineer-amazing-role-at-top-company!-job-san-francisco-ca-us-183012917.aspx'
p764
aS'http://job-openings.monster.com/monster/eece181a-de9f-4a03-9688-4a523307b6c2'
p765
aS'http://job-openings.monster.com/monster/ade1bb3a-7cff-4867-b849-c20927cd9e56'
p766
aS'http://job-openings.monster.com/monster/6128fc53-fa73-4a3e-bfe3-021c218eb81b'
p767
aS'http://job-openings.monster.com/monster/4b70f70a-1b03-4976-b893-1026a0e46fe8'
p768
aS'http://job-openings.monster.com/monster/47bf3570-4586-4923-9c56-49c77e0d6460'
p769
aS'http://job-openings.monster.com/monster/b228fa31-233c-469c-9c9d-88a9ea7e4da8'
p770
aS'http://job-openings.monster.com/monster/c05efd40-d9ca-4f9a-b852-6959ad42ed67'
p771
aS'http://job-openings.monster.com/monster/63797e3e-5199-4230-b481-8ee94ea9ab21'
p772
aS'http://job-openings.monster.com/monster/79b84cec-80b8-4edb-a13a-c520e8d028f9'
p773
aS'http://job-openings.monster.com/monster/1e51a3f2-4f72-44b1-939b-9f72a2bfecfa'
p774
aS'http://job-openings.monster.com/monster/b58ed93b-5f9a-4c18-a7a2-a38fe10d4ae1'
p775
aS'http://job-openings.monster.com/monster/319b875c-8fd3-43ff-863b-75c25513b273'
p776
aS'http://job-openings.monster.com/monster/fa3c9805-de30-4190-b291-e26a589a31ad'
p777
aS'http://job-openings.monster.com/monster/f59e6d67-7a22-48a7-9ea2-7248d417b9e3'
p778
aS'http://jobview.monster.com/full-stack-software-engineer-python-javascript-aws-job-san-francisco-ca-us-183142096.aspx'
p779
aS'http://job-openings.monster.com/monster/7593d8f0-f24d-4980-993f-ca0d09ff143a'
p780
aS'http://job-openings.monster.com/monster/1d88ac81-2f17-4975-b2f6-042c793feb1f'
p781
aS'http://job-openings.monster.com/monster/f943cbd3-fa26-446a-9546-aa91b4bd696b'
p782
aS'http://jobview.monster.com/senior-scala-spark-developer-will-relocate-job-west-los-angeles-ca-us-183144011.aspx'
p783
aS'http://job-openings.monster.com/monster/ab6c548c-1a80-4194-99ae-660e63d8965e'
p784
aS'http://job-openings.monster.com/monster/2e1ef28c-d94b-4805-83dd-37c3cde0669c'
p785
aS'http://job-openings.monster.com/monster/468f51da-d241-4f5c-a938-f5d289148461'
p786
aS'http://job-openings.monster.com/monster/5eea60b1-3e6a-411c-80ba-8e7f36db600c'
p787
aS'http://job-openings.monster.com/monster/7909eb26-09f4-4b0f-b3ef-ffb89e62992b'
p788
aS'http://job-openings.monster.com/monster/431d7a4c-faa9-4406-9e39-b22cd7d71c25'
p789
aS'http://job-openings.monster.com/monster/d01139f5-c1a4-4fa5-b5a0-5a6b2d33af54'
p790
aS'http://job-openings.monster.com/monster/ea57a9fb-5857-455c-8f25-73a613986f05'
p791
aS'http://job-openings.monster.com/monster/345eab42-5a0a-47f9-bf6f-a85858ebb7e6'
p792
aS'http://job-openings.monster.com/monster/7cb8e456-9016-4423-90a4-7ff54614e7fb'
p793
aS'http://job-openings.monster.com/monster/fbe53425-d1a3-4725-b786-5a548920de80'
p794
aS'http://jobview.monster.com/senior-advanced-analytics-job-el-segundo-ca-us-182472933.aspx'
p795
aS'http://job-openings.monster.com/monster/d89258bf-c073-46a8-b0f6-c3d11fb91422'
p796
aS'http://job-openings.monster.com/monster/51231440-33c8-4c06-8aa0-b90c5961f6ef'
p797
aS'http://job-openings.monster.com/monster/4a5801b1-7549-4b9f-9b1e-d5ad9c72c20f'
p798
aS'http://job-openings.monster.com/monster/4dce89e2-a101-4c44-ab0f-d106e51ad641'
p799
aS'http://job-openings.monster.com/monster/e783ded4-02cc-4478-a31b-cc2e1cd0141d'
p800
aS'http://job-openings.monster.com/monster/95dcb534-982f-4e78-8114-3d3d1731e14e'
p801
aS'http://job-openings.monster.com/monster/2f307f0d-a01c-4bce-b084-82f2f26ae862'
p802
aS'http://job-openings.monster.com/monster/f421cdec-0392-4495-8f0c-87a36cc19161'
p803
aS'http://job-openings.monster.com/monster/4fa2aaf7-2602-4bae-80da-df1bde131ed8'
p804
aS'http://job-openings.monster.com/monster/da2c599c-903e-4675-b52c-cd30a1b2b2ba'
p805
aS'http://jobview.monster.com/data-scientist-job-san-jose-ca-us-181275143.aspx'
p806
aS'http://job-openings.monster.com/monster/5b91e8ba-8c05-4879-aab2-1dc22124bb08'
p807
aS'http://job-openings.monster.com/monster/bbc6f5a3-17b3-41c2-a580-9284634aa43a'
p808
aS'http://job-openings.monster.com/monster/d79226ea-3ae2-411c-b2aa-273fadad3f87'
p809
aS'http://jobview.monster.com/data-scientist-job-san-jose-ca-us-182924216.aspx'
p810
aS'http://job-openings.monster.com/monster/446c9bc5-6b19-4fa6-ad7d-d30bb2ce267e'
p811
aS'http://job-openings.monster.com/monster/c1ad4e94-6466-423a-a9ac-7944806fb609'
p812
aS'http://job-openings.monster.com/monster/e991f835-bc2c-42c3-966a-38eb10dd0f9a'
p813
aS'http://job-openings.monster.com/monster/5262221a-2272-4be7-b8af-3a88f321a2aa'
p814
aS'http://job-openings.monster.com/monster/dfe4f2b4-0e3d-4904-8a8a-2939433f4c1d'
p815
aS'http://job-openings.monster.com/monster/d39c76a2-4193-44a7-b293-23425819e6fe'
p816
aS'http://job-openings.monster.com/monster/8ba41d64-62a4-49b5-a206-b13e3eb55979'
p817
aS'http://job-openings.monster.com/monster/4b5963f6-0336-4e11-b850-a5adc23f8ccd'
p818
aS'http://job-openings.monster.com/monster/4faa699b-6626-4468-ace4-f5541451c62f'
p819
aS'http://jobview.monster.com/full-stack-engineer-javascript-es2015-python-java-job-san-francisco-ca-us-183143034.aspx'
p820
aS'http://job-openings.monster.com/monster/89c912ea-f1d2-4aea-8fba-f1dfdacb0ad6'
p821
aS'http://job-openings.monster.com/monster/9350775c-0c7f-4592-8262-1792d4d7296c'
p822
aS'http://job-openings.monster.com/monster/1d0a0f51-765a-46a5-97af-b96ab66c75da'
p823
aS'http://job-openings.monster.com/monster/d7cf605d-378b-47a8-acca-82df06952a88'
p824
aS'http://job-openings.monster.com/monster/c0173a8e-6326-49fd-933b-84c88d423213'
p825
aS'http://job-openings.monster.com/monster/06e8cd7b-c551-4bfa-843b-4de4d0dfdf75'
p826
aS'http://job-openings.monster.com/monster/fd720774-c513-4e86-bf5d-78bf6befc0de'
p827
aS'http://job-openings.monster.com/monster/236ae3fd-6b05-48aa-80c4-9104b3a8774b'
p828
aS'http://jobview.monster.com/bsa-aml-compliance-opportunity-north-america-job-san-francisco-ca-us-182955809.aspx'
p829
aS'http://job-openings.monster.com/monster/86fa54fb-f0ce-47b7-9ea8-9d0ab957c55e'
p830
aS'http://job-openings.monster.com/monster/2c84b89b-319c-4d7b-a2dd-e82ae1fbd410'
p831
aS'http://job-openings.monster.com/monster/a3c8c3b9-3ee7-4e7e-bab0-996b265f0382'
p832
aS'http://job-openings.monster.com/monster/eb7e45c5-4cf5-44b4-b541-79e671eeaa2a'
p833
aS'http://job-openings.monster.com/monster/2caf5309-8475-4076-817b-b5f3696a621e'
p834
aS'http://jobview.monster.com/data-engineer-sql-python-etl-job-los-angeles-ca-us-183139868.aspx'
p835
aS'http://job-openings.monster.com/monster/8e81ebcc-b47a-4733-ba2f-8093af13725e'
p836
aS'http://job-openings.monster.com/monster/f9fe6c7b-d557-4493-9c95-23a686204c1d'
p837
aS'http://job-openings.monster.com/monster/1adf3283-4484-485f-8251-12da53c6aefd'
p838
aS'http://job-openings.monster.com/monster/a39a0311-f71a-43da-8253-15c31daa35b7'
p839
aS'http://job-openings.monster.com/monster/635d5634-90e2-4f27-bba1-43a654ff34c3'
p840
aS'http://job-openings.monster.com/monster/e25e986f-35e5-4d77-9048-e3c004e4cc43'
p841
aS'http://job-openings.monster.com/monster/b771461b-2c75-443b-9b20-7406136bdff1'
p842
aS'http://job-openings.monster.com/monster/4f9d90ad-ff5a-46d6-8444-4ce98f04cc34'
p843
aS'http://job-openings.monster.com/monster/960c8dc7-ae2d-4d59-b163-6a26a9df5d2e'
p844
aS'http://job-openings.monster.com/monster/efe235c2-2856-4889-9a86-3db7ea0ccf6f'
p845
aS'http://job-openings.monster.com/monster/f575c454-8fc4-402e-aded-7a52ff6138f4'
p846
aS'http://job-openings.monster.com/monster/449d4664-6507-469f-8d22-e06b69413cfb'
p847
aS'http://job-openings.monster.com/monster/b18608ce-9943-4da7-81d2-1ee1043a2d5f'
p848
aS'http://job-openings.monster.com/monster/26071e48-bfd7-4687-b3cd-b23a49452e45'
p849
aS'http://job-openings.monster.com/monster/3f852636-326f-49e3-87ef-3cdb37b965b4'
p850
aS'http://job-openings.monster.com/monster/ea454b7f-9133-4f75-b326-c64bf9af3d03'
p851
aS'http://job-openings.monster.com/monster/5376e915-e1d1-4f4b-b4bf-996245605975'
p852
aS'http://job-openings.monster.com/monster/e43d20d5-2083-45a8-9794-4521355e8188'
p853
aS'http://job-openings.monster.com/monster/b7ec9d8c-0072-4120-85e6-32de8bbed6e3'
p854
aS'http://job-openings.monster.com/monster/e897a31c-398b-4c95-b05c-b4ada5cef063'
p855
aS'http://job-openings.monster.com/monster/df0f760e-adfb-4787-b626-6e666266ad4f'
p856
aS'http://job-openings.monster.com/monster/d1017ac8-d95c-424b-85e3-cde737e7fc3e'
p857
aS'http://job-openings.monster.com/monster/dcd56626-e2d9-4b49-9e48-2fee67026188'
p858
aS'http://job-openings.monster.com/monster/1de61573-e4c2-4aae-92cb-a322d53b1f33'
p859
aS'http://job-openings.monster.com/monster/5bcff8d6-d0de-4ded-8133-88e3306b7e4a'
p860
aS'http://jobview.monster.com/data-science-manager-job-san-francisco-ca-us-182765978.aspx'
p861
aS'http://job-openings.monster.com/monster/21df6329-518d-47a3-8bee-c8906ef85532'
p862
aS'http://job-openings.monster.com/monster/9dbb5802-4b1f-42ae-b211-f65b46d47d9a'
p863
aS'http://job-openings.monster.com/monster/d309e3d6-8cf9-450e-83b6-77c8d9ccbdf8'
p864
aS'http://job-openings.monster.com/monster/a84fbbc5-40c6-4e25-8866-9131bbdf97a9'
p865
aS'http://job-openings.monster.com/monster/0e270df0-a47a-4ff3-bbeb-33ab7754b870'
p866
aS'http://job-openings.monster.com/monster/14df5e5c-fdc2-4d8c-98d2-9120551c397d'
p867
aS'http://job-openings.monster.com/monster/598b4131-1ebe-4e77-b75c-c6b3a58bcdcf'
p868
aS'http://job-openings.monster.com/monster/2ffcce43-cefb-40d5-9a54-aaafaf12b6d2'
p869
aS'http://job-openings.monster.com/monster/b1346520-fe10-4539-9982-70d6a513ba19'
p870
aS'http://job-openings.monster.com/monster/80fc9a8c-6bb0-4033-b317-bc8faf411010'
p871
aS'http://job-openings.monster.com/monster/0aa7fd2d-7588-4510-b1ec-37baa11a7893'
p872
aS'http://job-openings.monster.com/monster/cbd45365-99a0-4dda-b892-9bc4456aa896'
p873
aS'http://job-openings.monster.com/monster/59106ae6-9b33-4560-b1d3-582b1ba5f136'
p874
aS'http://job-openings.monster.com/monster/4044f842-1024-4cf2-b51e-a5f737cdd1ce'
p875
aS'http://job-openings.monster.com/monster/d0220d33-17d8-4ba0-aab4-d3dcc0249d48'
p876
aS'http://jobview.monster.com/machine-learning-engineer-top-security-startup!-job-woodside-ca-us-183142072.aspx'
p877
aS'http://job-openings.monster.com/monster/bcf12c5f-62ea-4883-98bf-4ee1123159eb'
p878
aS'http://job-openings.monster.com/monster/172d3cbd-129e-42dd-8a08-b5eec47febfe'
p879
aS'http://job-openings.monster.com/monster/95749691-4a86-4f36-ade2-3aed3a2f768b'
p880
aS'http://job-openings.monster.com/monster/3d4a565c-e3a6-4c31-9aad-6360b335d40b'
p881
aS'http://jobview.monster.com/devops-engineer-job-redwood-city-ca-us-182394373.aspx'
p882
aS'http://job-openings.monster.com/monster/2025da27-3758-4124-a8c4-867b64080cc2'
p883
aS'http://job-openings.monster.com/monster/729acad8-42b5-4af5-a189-772ccd2bff22'
p884
aS'http://job-openings.monster.com/monster/df11ef07-9d92-4933-ada5-5453da87087f'
p885
aS'http://job-openings.monster.com/monster/f0c1e708-8229-4be4-8732-d8d895fe3970'
p886
aS'http://job-openings.monster.com/monster/1e575594-ad2f-4cfe-a82c-2c4b220aae24'
p887
aS'http://job-openings.monster.com/monster/fbbdbce5-75e1-45f3-8976-1c2051959afd'
p888
aS'http://job-openings.monster.com/monster/29e2fdb5-d70b-44e5-b2a4-4a50d2b8cf7a'
p889
aS'http://job-openings.monster.com/monster/5e53b325-5635-4ad2-acaf-46ba527cb703'
p890
aS'http://job-openings.monster.com/monster/2879c4a2-3de7-4e36-8816-8510c2200fe7'
p891
aS'http://job-openings.monster.com/monster/a8b7f6a7-ae5e-431d-98f2-1f0977da8983'
p892
aS'http://job-openings.monster.com/monster/976b9002-8a4c-4217-ac03-e3e6a802b36d'
p893
aS'http://job-openings.monster.com/monster/97c76cce-c142-444f-b499-ea2caacc5606'
p894
aS'http://job-openings.monster.com/monster/05076b03-1efa-4fb1-9545-4803db2d9e95'
p895
a.