(lp1
S'http://job-openings.monster.com/monster/120d135c-4f3f-4a0e-af07-d8594e203aef'
p2
aS'http://job-openings.monster.com/monster/2d85f5d2-bcb3-412e-b5ae-a88a097aa241'
p3
aS'http://job-openings.monster.com/monster/aa49a932-2b86-406d-8c6b-7607d2aeb977'
p4
aS'http://job-openings.monster.com/monster/1c313066-c968-422e-a891-8e48e6db9488'
p5
aS'http://job-openings.monster.com/monster/36e8a342-4756-49be-b114-913682fd7848'
p6
aS'http://job-openings.monster.com/monster/c234248a-57fa-4d72-a857-ae1725d827f7'
p7
aS'http://job-openings.monster.com/monster/166f8bb1-6e28-40b0-aaf3-cd075feb61a6'
p8
aS'http://job-openings.monster.com/monster/8e2e094d-43f8-4c7f-aceb-7883e9dc9a25'
p9
aS'http://job-openings.monster.com/monster/291803b0-6e14-4b39-bed5-f25bb2505127'
p10
aS'http://jobview.monster.com/senior-analytic-tools-capabilities-analyst-job-atlanta-ga-us-183019187.aspx'
p11
aS'http://job-openings.monster.com/monster/fefb594c-89a3-4c98-b547-d9fb6235caf1'
p12
aS'http://job-openings.monster.com/monster/d94638ff-76b4-4934-b66e-752ddeabadff'
p13
aS'http://job-openings.monster.com/monster/b6c78c09-0ccd-4d04-a333-c3fcc7c12014'
p14
aS'http://job-openings.monster.com/monster/a5a28925-e7aa-4f11-b4c1-8bfe505cb36a'
p15
aS'http://job-openings.monster.com/monster/3131d9d1-3d3f-48eb-bbe8-4865822da05c'
p16
aS'http://jobview.monster.com/at-t-labs-internship-part-time-%e2%94%80-undergraduate-masters-degrees-job-atlanta-ga-us-180525018.aspx'
p17
aS'http://job-openings.monster.com/monster/7ee8f5da-f434-44c1-a551-607212e1c839'
p18
aS'http://job-openings.monster.com/monster/b5b20187-a5cb-4a9d-9c61-020ddc6b836a'
p19
aS'http://job-openings.monster.com/monster/07f50e8e-3698-454d-b99c-b7628cb600c2'
p20
aS'http://job-openings.monster.com/monster/06fc74d6-bbd3-4a85-8da8-35dd9e02acb1'
p21
aS'http://job-openings.monster.com/monster/4916a1bf-3cb1-42b8-b5fa-d18790905c64'
p22
aS'http://job-openings.monster.com/monster/899ec3b5-8456-44e3-a7d6-90e2b7d2a670'
p23
aS'http://job-openings.monster.com/monster/9a1437a7-adbc-41f5-9bf0-30db3cf14ac2'
p24
aS'http://job-openings.monster.com/monster/666af430-4c85-4a6a-baca-47d875c4b63a'
p25
aS'http://job-openings.monster.com/monster/61556dc2-262a-43ae-874b-fefa5d1407fd'
p26
aS'http://job-openings.monster.com/monster/7689ed4c-2d38-4dac-a0ea-ec71bc928dd3'
p27
aS'http://job-openings.monster.com/monster/b3284d95-a93f-4c90-9ac8-2da15534d879'
p28
aS'http://job-openings.monster.com/monster/2aa24aff-c23e-4a2d-b6e0-101e1f1eed7c'
p29
aS'http://job-openings.monster.com/monster/76ea9bb3-b6ca-4f94-87f3-09b6f0e1f76d'
p30
aS'http://jobview.monster.com/senior-python-software-engineer-job-atlanta-ga-us-182196881.aspx'
p31
aS'http://job-openings.monster.com/monster/3f9e45b7-17f5-467e-bd07-351c253f9a74'
p32
aS'http://job-openings.monster.com/monster/b39b1c15-c13b-4525-b34c-7579424deb6f'
p33
aS'http://job-openings.monster.com/monster/0688b92f-a5fa-41d9-b857-26caca77aaf2'
p34
aS'http://job-openings.monster.com/monster/e73dba10-456c-4c4a-92cf-2d21c826b046'
p35
aS'http://job-openings.monster.com/monster/611c8cf3-bb6e-4088-aee7-85f2d0bc04d5'
p36
aS'http://jobview.monster.com/manager-business-intelligence-qliksense-job-atlanta-ga-us-182063565.aspx'
p37
aS'http://job-openings.monster.com/monster/62003beb-3fa6-4a2d-9f07-bb6c2902217e'
p38
aS'http://job-openings.monster.com/monster/0e2e715b-744d-4280-86b5-14723255fa4d'
p39
aS'http://job-openings.monster.com/monster/4e5d0de3-8e74-43e0-8fb8-bc9fa64edcdf'
p40
aS'http://job-openings.monster.com/monster/0417d0c3-baca-42ca-b32f-ede832f3d974'
p41
aS'http://job-openings.monster.com/monster/086273a3-4397-45b3-a0a1-411a9d2fadce'
p42
aS'http://job-openings.monster.com/monster/83471c55-c0cb-4b90-9742-e6c6b6c4ea50'
p43
aS'http://job-openings.monster.com/monster/db447fa6-5161-41d2-a304-5e250cffabbc'
p44
aS'http://job-openings.monster.com/monster/5a744c0f-eca2-4610-8961-38d307ee50cd'
p45
aS'http://job-openings.monster.com/monster/8fe38f09-dfb2-4aa2-8a77-2b36fde7fc32'
p46
aS'http://job-openings.monster.com/monster/560b1dba-dcd9-47e9-ae58-47853a909212'
p47
aS'http://job-openings.monster.com/monster/c6e594cc-e12d-4b58-afb4-9ddd08dc51c2'
p48
aS'http://job-openings.monster.com/monster/a45e9c75-d1e6-461e-9665-445dd1e5bca2'
p49
aS'http://job-openings.monster.com/monster/77273760-6b05-4175-98d9-88f4ed11e371'
p50
aS'http://job-openings.monster.com/monster/2bcca31a-33ba-4ae6-ab68-420a9796a585'
p51
aS'http://job-openings.monster.com/monster/cb3fa59a-1a0c-4e96-b3ce-3a302950d8e2'
p52
aS'http://job-openings.monster.com/monster/9a3c2cf5-8264-4b2f-bbb4-13e37a7f8dd6'
p53
aS'http://jobview.monster.com/information-security-analyst-job-alpharetta-ga-us-182697460.aspx'
p54
aS'http://job-openings.monster.com/monster/d2305e8a-52c8-41aa-a51e-a320840f7aa9'
p55
aS'http://job-openings.monster.com/monster/5057a575-3148-46d4-b9e0-558a8e68b216'
p56
aS'http://job-openings.monster.com/monster/0c9493d3-52f5-48f8-840f-60add06dd787'
p57
aS'http://job-openings.monster.com/monster/07bb05ce-0747-49d2-ba58-7f65dd790760'
p58
aS'http://job-openings.monster.com/monster/b16b6d25-8d0e-4477-a81e-0fa606fbfd85'
p59
aS'http://job-openings.monster.com/monster/f7646fae-6675-454c-889f-11a7bd77759f'
p60
aS'http://job-openings.monster.com/monster/dd1c583c-719c-4778-bcf5-6417a0eed30d'
p61
aS'http://job-openings.monster.com/monster/b108d639-7fca-4b89-b961-80089c078b40'
p62
aS'http://job-openings.monster.com/monster/a511caba-6735-447e-8c94-35c0f90e7ef1'
p63
aS'http://job-openings.monster.com/monster/443eab4c-614e-4b7e-84ef-9607631e27fb'
p64
aS'http://job-openings.monster.com/monster/802524a9-39dc-4b8c-a26b-041f7aaaff71'
p65
aS'http://job-openings.monster.com/monster/b9f74998-653d-4346-bf27-d1db100a35d5'
p66
aS'http://jobview.monster.com/senior-advanced-analytics-job-atlanta-ga-us-182472929.aspx'
p67
aS'http://job-openings.monster.com/monster/7003058e-83f8-4dc7-8bb2-8f2fc860732e'
p68
aS'http://job-openings.monster.com/monster/bb88d677-7ac8-4422-b494-395bc22d1cba'
p69
aS'http://jobview.monster.com/senior-python-developer-job-alpharetta-ga-us-183070984.aspx'
p70
aS'http://job-openings.monster.com/monster/cf97f106-9412-4ed3-bd07-afe7a9c57e0c'
p71
aS'http://job-openings.monster.com/monster/9b321a66-dc04-4f31-bfc3-89e686359965'
p72
aS'http://job-openings.monster.com/monster/2dc93abe-dcc7-44f9-9a5c-a30d123f470f'
p73
aS'http://job-openings.monster.com/monster/fbd8d304-fd3b-4ee5-869b-d17722d3b6e3'
p74
aS'http://job-openings.monster.com/monster/39e3a361-16fe-4c18-93d2-16479903011b'
p75
aS'http://job-openings.monster.com/monster/00d942f9-c670-459c-a0ca-730964e0309e'
p76
aS'http://job-openings.monster.com/monster/58812db8-8e2b-4545-820d-92d9f3afb245'
p77
aS'http://job-openings.monster.com/monster/abeb556b-355d-4a4f-979f-dd239384d5d6'
p78
aS'http://job-openings.monster.com/monster/eb19b76e-1898-44cf-b619-6800a26babd5'
p79
aS'http://job-openings.monster.com/monster/b1060c31-842e-439c-9516-3e4801106ba5'
p80
aS'http://job-openings.monster.com/monster/f6fa6a33-786f-4e8c-9180-68cd419acbba'
p81
aS'http://job-openings.monster.com/monster/6a0928b0-d91c-4c87-a8d1-d0c8f230a996'
p82
aS'http://job-openings.monster.com/monster/13f29941-eaa6-44d3-bc52-429c8d8659a6'
p83
aS'http://job-openings.monster.com/monster/10b72c0f-7b04-4781-9529-54ff5672ef5f'
p84
aS'http://job-openings.monster.com/monster/250bc318-e51b-49a5-a29d-6627d78eee6c'
p85
aS'http://job-openings.monster.com/monster/0be2d6ae-75ce-41ed-8f0c-46fdcad02535'
p86
aS'http://job-openings.monster.com/monster/90a7f575-1fc5-42a7-89d5-4e78e9c84da3'
p87
aS'http://job-openings.monster.com/monster/a740876e-318c-4f14-b7a6-246a56c2957c'
p88
aS'http://job-openings.monster.com/monster/525d93d6-2ca3-4b4b-a279-db1e55054011'
p89
aS'http://job-openings.monster.com/monster/dcb536e3-2244-444e-9d3c-50dd8750193c'
p90
aS'http://job-openings.monster.com/monster/069c73eb-75ae-4bd3-ae7f-487e0a4e03df'
p91
aS'http://job-openings.monster.com/monster/c6380d1f-2f8e-4295-a53d-a330482bd055'
p92
aS'http://job-openings.monster.com/monster/17f72251-0fe9-48e2-a712-3e531938b356'
p93
aS'http://job-openings.monster.com/monster/678746fd-a378-4f28-9f24-495619d4eb6f'
p94
aS'http://job-openings.monster.com/monster/4f36437a-22f1-4170-9850-ca61f969e864'
p95
aS'http://job-openings.monster.com/monster/40955d30-110c-4c04-aa13-9abbaa446cc4'
p96
aS'http://job-openings.monster.com/monster/a1f099ae-354c-45e9-8e7c-6295097edbf5'
p97
aS'http://job-openings.monster.com/monster/d1f63f47-ec04-404a-8782-ee813dae72a9'
p98
aS'http://job-openings.monster.com/monster/6b03c0db-4a97-4902-b718-07e8bbf55008'
p99
aS'http://job-openings.monster.com/monster/c002b18c-dff6-4a08-8daf-807d0e9b9522'
p100
aS'http://job-openings.monster.com/monster/9604f27a-2c01-4e91-9026-c64db32fff50'
p101
aS'http://job-openings.monster.com/monster/53c8d166-9257-4c12-9766-0321bf5c1114'
p102
aS'http://job-openings.monster.com/monster/83abb0c3-ffc1-4f95-bdc2-e97563bbc51d'
p103
aS'http://job-openings.monster.com/monster/822f660a-7f03-4291-a223-3da3bba2727f'
p104
aS'http://job-openings.monster.com/monster/bed29f22-622a-46e1-8881-78a40815f82f'
p105
aS'http://job-openings.monster.com/monster/38845eed-db82-4a54-93e1-534f730dc5d8'
p106
aS'http://job-openings.monster.com/monster/84159d82-ffed-43a4-ad26-e6ab3e31c59f'
p107
aS'http://job-openings.monster.com/monster/c8b01c2f-5383-405a-aa79-f0d098a0ff90'
p108
aS'http://job-openings.monster.com/monster/83daa6f7-7c21-4797-90a5-943132f4e1dc'
p109
aS'http://job-openings.monster.com/monster/6dc18f82-c4c0-4487-ae1b-1e69fb492190'
p110
aS'http://job-openings.monster.com/monster/b6c9c0f1-44ba-45b2-8628-625e70aca40d'
p111
aS'http://job-openings.monster.com/monster/d2f39a03-6ad8-4d4b-8ee2-7c326f9b05a8'
p112
aS'http://job-openings.monster.com/monster/7cdcbbb7-b352-4173-aedb-d22b5616c693'
p113
aS'http://job-openings.monster.com/monster/a1623e6f-c12d-41a8-9ca7-7990baeb9d12'
p114
aS'http://job-openings.monster.com/monster/47f9c5c3-bb30-4a89-a3b2-47c52c2361ba'
p115
aS'http://job-openings.monster.com/monster/4efa8013-6757-4fa0-8c5f-da1c537f30ca'
p116
aS'http://job-openings.monster.com/monster/d28eecf3-fa21-447d-b08e-de2bd7a11d62'
p117
aS'http://job-openings.monster.com/monster/e623371e-1e6f-4608-ad37-351ecdc9f423'
p118
aS'http://job-openings.monster.com/monster/1c6f22fe-3ea0-474b-a53d-a97075f22fa3'
p119
aS'http://job-openings.monster.com/monster/72ac60bb-19c7-4518-9527-cfd5c620e2e8'
p120
aS'http://job-openings.monster.com/monster/35cd8df5-6775-4afd-b981-93b2209db9af'
p121
aS'http://job-openings.monster.com/monster/fc3ca4ac-6db6-4fec-94ef-d6463d8ea50a'
p122
aS'http://job-openings.monster.com/monster/049e6ec3-1f8a-492a-86e2-1f583f8e4706'
p123
aS'http://job-openings.monster.com/monster/031386a7-d39a-4bf7-860b-5bf46f66fd08'
p124
aS'http://job-openings.monster.com/monster/4dc4f7b0-3a58-450b-83d6-7d81a302477a'
p125
aS'http://job-openings.monster.com/monster/3a47c93d-c71a-4983-8c17-d46fb030e04f'
p126
aS'http://job-openings.monster.com/monster/8091207e-4d7b-4143-9253-6414459e5c08'
p127
aS'http://job-openings.monster.com/monster/1536a742-d1b0-45a3-8b90-edb0324f1c99'
p128
aS'http://job-openings.monster.com/monster/1ae73160-7150-4d0c-9666-0253098a0c6b'
p129
aS'http://job-openings.monster.com/monster/6e866b4c-8726-4ff2-b2cd-7ad0d61d78d8'
p130
aS'http://job-openings.monster.com/monster/cca84754-6698-4c08-ab39-f204a344154a'
p131
aS'http://job-openings.monster.com/monster/d40cbfcc-a197-41b4-94a4-26fee82e3f74'
p132
aS'http://job-openings.monster.com/monster/e29fc59b-c967-4514-96bb-e62907a84102'
p133
aS'http://job-openings.monster.com/monster/f8498fff-095c-415a-8ae2-7bc3920879a9'
p134
aS'http://job-openings.monster.com/monster/1fcd8809-9211-46f4-b4d5-bdf5a42229b1'
p135
aS'http://job-openings.monster.com/monster/03dd9def-629b-4a60-9ae4-61568edc1c83'
p136
aS'http://job-openings.monster.com/monster/12ea41ee-f8d9-48e9-a8c7-b40ab361fdcb'
p137
aS'http://job-openings.monster.com/monster/ff5803bb-2f0c-4fb4-8433-c37f6f2b0db2'
p138
aS'http://job-openings.monster.com/monster/267f4f47-7fc7-4f96-aa59-60045f0dcc8d'
p139
aS'http://job-openings.monster.com/monster/c87a6565-b335-4358-bff8-97af42fbe556'
p140
aS'http://job-openings.monster.com/monster/96596da2-8b0c-47df-8372-c77b37fd10ab'
p141
aS'http://job-openings.monster.com/monster/efb1b60a-57a5-43b6-a797-4c6bcefeafb6'
p142
aS'http://job-openings.monster.com/monster/855687be-1235-426f-a1a1-71427233f765'
p143
aS'http://job-openings.monster.com/monster/f8f47926-8f53-46a5-bcca-9e49f9112fd2'
p144
aS'http://jobview.monster.com/senior-business-insights-analytics-specialist-cricket-wireless-job-atlanta-ga-us-182977764.aspx'
p145
aS'http://job-openings.monster.com/monster/8aab6eec-a66a-4cc7-abdc-583f80b47cd9'
p146
aS'http://job-openings.monster.com/monster/a4517f6c-8da3-4691-ac6c-b55a3726abda'
p147
aS'http://job-openings.monster.com/monster/862ddd3e-0fad-487a-9152-89b44d4b5a61'
p148
aS'http://job-openings.monster.com/monster/a6fe12c2-6793-4a26-982c-46dc90e3be63'
p149
aS'http://job-openings.monster.com/monster/e0da7cc8-e8df-42f4-884d-78fb4d08be30'
p150
aS'http://job-openings.monster.com/monster/1eb9ca02-4b30-428a-abfd-9385b8a5ea28'
p151
aS'http://job-openings.monster.com/monster/6094e04b-5a3a-4362-b41d-be9cd2497990'
p152
aS'http://job-openings.monster.com/monster/74ceb055-aaaf-4168-a21c-5c64c43aca13'
p153
aS'http://job-openings.monster.com/monster/5ed114bd-6344-4bc1-95ca-ae93c018826b'
p154
aS'http://job-openings.monster.com/monster/938e8f07-931a-436b-a635-bd739f45792f'
p155
aS'http://job-openings.monster.com/monster/341f06ce-04ce-4b96-b64d-4a2c0e1aee4a'
p156
aS'http://job-openings.monster.com/monster/90d2ea00-f166-4e4f-94aa-57d177ba3dac'
p157
aS'http://job-openings.monster.com/monster/5d2f8690-85b8-423b-9ab1-7e743f2e1e4d'
p158
aS'http://job-openings.monster.com/monster/1c216ae2-7b30-4ec2-a21a-c5a382b94fca'
p159
aS'http://job-openings.monster.com/monster/ec2049c9-81fc-4711-89bf-b5da48e12d18'
p160
aS'http://job-openings.monster.com/monster/6a8acfcc-fae3-4a5e-b9ce-e5c1b09523aa'
p161
aS'http://job-openings.monster.com/monster/6b4be9bf-c121-40f7-a405-68d204cf6394'
p162
aS'http://job-openings.monster.com/monster/bfde0a65-6696-4cc4-a8f2-f7d622c472ca'
p163
aS'http://job-openings.monster.com/monster/224ee96c-348f-411f-ae4b-0838f596b924'
p164
aS'http://job-openings.monster.com/monster/861d590d-08ca-48f5-93bc-c3444bb89093'
p165
aS'http://job-openings.monster.com/monster/08208580-b684-4b27-a0e4-ced1a5f5e492'
p166
aS'http://job-openings.monster.com/monster/19df1377-e49e-4262-849a-aeb2b926b2ec'
p167
aS'http://job-openings.monster.com/monster/a048bf92-cae7-4800-80a5-7ef748b33c61'
p168
aS'http://job-openings.monster.com/monster/b4ffe9be-67f7-4a38-8fa7-b31432789729'
p169
aS'http://job-openings.monster.com/monster/a0ea0aca-73d7-4b31-9489-3da4cc941220'
p170
aS'http://job-openings.monster.com/monster/a3487f90-d232-4ca3-8867-9c5db427edd4'
p171
aS'http://job-openings.monster.com/monster/7f3569d3-fc63-4f46-bd5c-d845ea454b02'
p172
aS'http://job-openings.monster.com/monster/eea45f1b-0ec9-407c-981d-8530879f96c7'
p173
aS'http://job-openings.monster.com/monster/7e715ad0-f091-4239-b920-2e7e7e912e6a'
p174
aS'http://job-openings.monster.com/monster/ef1dd928-7c98-4d23-ab67-9f265c32cfbc'
p175
aS'http://job-openings.monster.com/monster/e5cd71ae-90d4-48f5-bd54-4317a3969087'
p176
aS'http://job-openings.monster.com/monster/0eb640f8-2298-4f98-93f4-cd2800326fb8'
p177
aS'http://job-openings.monster.com/monster/2ee97722-1eb9-48ca-a8ea-054911f2500a'
p178
aS'http://job-openings.monster.com/monster/525296c0-7e8f-4202-8219-043bcbc8992d'
p179
aS'http://job-openings.monster.com/monster/af53dbe8-3380-4590-a6db-35078bff648a'
p180
aS'http://job-openings.monster.com/monster/e2e87b4f-d26e-48f5-84e2-d19d18206463'
p181
aS'http://job-openings.monster.com/monster/fcb07186-3378-43dd-b24c-e6dda13e2d34'
p182
aS'http://job-openings.monster.com/monster/a611347b-cdda-45ee-854d-a866ac98a801'
p183
aS'http://job-openings.monster.com/monster/c4b4ccd4-0937-4b92-8186-bcf1b122b8d0'
p184
aS'http://job-openings.monster.com/monster/3de0b316-5809-45fe-8032-cf5180ddb033'
p185
aS'http://job-openings.monster.com/monster/1288e026-f103-489a-a59f-de200507d7af'
p186
aS'http://job-openings.monster.com/monster/d66d1ace-d59a-43ec-b876-90168e3786f4'
p187
aS'http://job-openings.monster.com/monster/f6ad34e1-ab3b-41eb-87df-d7f7fe7aaf1b'
p188
aS'http://job-openings.monster.com/monster/9c3c130c-a62c-444e-b172-744932f3fdef'
p189
aS'http://jobview.monster.com/senior-business-insights-analytics-specialist-cricket-wireless-job-atlanta-ga-us-182980750.aspx'
p190
aS'http://job-openings.monster.com/monster/bd78eceb-dab6-43ef-af5d-b01cf2c68bea'
p191
aS'http://job-openings.monster.com/monster/e917f315-1d5a-449f-a350-1b00ded3756c'
p192
aS'http://job-openings.monster.com/monster/8e38f221-64fa-4012-90f5-2e856c890abc'
p193
aS'http://job-openings.monster.com/monster/7230890d-aab0-4c7f-b63f-ac6f184d7100'
p194
aS'http://job-openings.monster.com/monster/09aa6e66-ddb9-47fe-8116-6666bce98fff'
p195
aS'http://job-openings.monster.com/monster/1f58c5c2-93c4-4593-bc70-dcedae9ca431'
p196
aS'http://jobview.monster.com/data-scientist-job-atlanta-ga-us-182907868.aspx'
p197
aS'http://job-openings.monster.com/monster/71f238f1-46b1-458d-be71-e91f21a88e8a'
p198
aS'http://job-openings.monster.com/monster/1e332988-8656-4459-bf6b-4fe0a51145f5'
p199
aS'http://job-openings.monster.com/monster/518289b9-45e3-4df3-93fe-53e8625cb379'
p200
aS'http://jobview.monster.com/senior-system-engineer-job-alpharetta-ga-us-183021981.aspx'
p201
aS'http://job-openings.monster.com/monster/b9e86077-cb6f-4cc9-9eff-00f6373713cb'
p202
aS'http://job-openings.monster.com/monster/6b8580a8-3d31-4e90-a36f-7929ff1b909a'
p203
aS'http://job-openings.monster.com/monster/d7f862f6-fa8a-4d37-95e0-b914e12a4d74'
p204
aS'http://job-openings.monster.com/monster/b62eca13-5c1f-484d-8f92-01080dd920af'
p205
aS'http://jobview.monster.com/at-t-labs-internship-%e2%80%93-advanced-degrees-job-atlanta-ga-us-180081367.aspx'
p206
aS'http://job-openings.monster.com/monster/a9130a21-2beb-4d6a-9520-9792603492f1'
p207
aS'http://job-openings.monster.com/monster/42641dd7-b224-4b76-828c-1c96eb41bb1a'
p208
aS'http://job-openings.monster.com/monster/78d123fb-759a-4913-a5d6-ce94ba9bb4e2'
p209
aS'http://job-openings.monster.com/monster/67b518c7-14b6-4a34-9dd8-f5c429021092'
p210
aS'http://job-openings.monster.com/monster/f938f65b-3969-4a2f-9c79-b592dc65be90'
p211
aS'http://job-openings.monster.com/monster/2ed2ab73-202f-47fc-b50c-8c0807098d4a'
p212
aS'http://job-openings.monster.com/monster/fc2097d7-7aa6-43cd-9776-13bcf9be5a7f'
p213
aS'http://job-openings.monster.com/monster/11c49570-1dd9-4a72-a4e6-8a7a3385e718'
p214
aS'http://job-openings.monster.com/monster/6499dc41-ae28-4251-b22c-2fa934a9c872'
p215
aS'http://job-openings.monster.com/monster/16414a7c-72da-4cba-8c54-7d97dbb62ccc'
p216
aS'http://job-openings.monster.com/monster/d5cc93fe-d42b-4842-abdd-ebb283edd651'
p217
aS'http://job-openings.monster.com/monster/d510f966-4cb7-4d50-8891-527ffb2b6f6e'
p218
aS'http://job-openings.monster.com/monster/67c6e6f5-3106-49f2-9e95-5920a1861b7e'
p219
aS'http://job-openings.monster.com/monster/b9c0fb42-51e4-41f9-8ffb-05513795905f'
p220
aS'http://job-openings.monster.com/monster/9b8716e5-0dd6-4bd6-96f4-f769468eb62e'
p221
aS'http://job-openings.monster.com/monster/7e19f344-42ac-4b2e-ac19-e6c941e94f76'
p222
aS'http://jobview.monster.com/information-security-analyst-job-alpharetta-ga-us-182568452.aspx'
p223
aS'http://job-openings.monster.com/monster/951b341e-1427-414f-9783-e754afcd2619'
p224
aS'http://job-openings.monster.com/monster/8617e4f3-d65d-4829-994a-13afb210f4aa'
p225
aS'http://job-openings.monster.com/monster/ba15a65f-957e-4e46-80c1-4b2a43e8fb20'
p226
aS'http://job-openings.monster.com/monster/fc1d31b4-fd64-4277-8cc0-53ba43f59912'
p227
aS'http://job-openings.monster.com/monster/b193852a-c3f4-4b83-9953-1466ca09e713'
p228
aS'http://job-openings.monster.com/monster/b7c14123-a3a8-403c-9bee-7e9223a11d1f'
p229
aS'http://job-openings.monster.com/monster/9870a1f8-9e0a-4e9c-8dba-d205b112808f'
p230
aS'http://job-openings.monster.com/monster/98080735-0749-46b7-b607-bddac637f24e'
p231
aS'http://job-openings.monster.com/monster/c122ca4b-6ac4-4631-a574-177e0e21eab6'
p232
aS'http://job-openings.monster.com/monster/e3f0eb99-266a-4422-8934-a1f131f399d7'
p233
aS'http://job-openings.monster.com/monster/48908273-ac5d-4405-bad8-4e8d5f340f19'
p234
aS'http://job-openings.monster.com/monster/b3d0952b-3b9b-49ac-8326-1ba09d7fefeb'
p235
aS'http://job-openings.monster.com/monster/dda64edf-8de1-4007-bd04-edf1d2641f28'
p236
aS'http://job-openings.monster.com/monster/b5f3f8c5-de65-4566-958e-5982bbef3169'
p237
aS'http://job-openings.monster.com/monster/ced94b5e-19dc-4e33-b28b-a7183954baef'
p238
aS'http://job-openings.monster.com/monster/26c15cce-e598-4618-a9c2-a514784944f0'
p239
aS'http://job-openings.monster.com/monster/efecb9e9-03e6-4976-a1ea-27b78ad060cb'
p240
aS'http://job-openings.monster.com/monster/9eb3ce65-8196-4030-a449-d3c479300fdd'
p241
aS'http://job-openings.monster.com/monster/35947089-93b9-42dc-a1f7-99e315348d7a'
p242
aS'http://job-openings.monster.com/monster/82f02340-4375-4e5c-895c-bf33928fc1b0'
p243
aS'http://job-openings.monster.com/monster/6a70dc82-6ead-4531-919b-50b0911a1689'
p244
aS'http://job-openings.monster.com/monster/948db133-332b-46bf-bdd6-ddbedbbc34aa'
p245
aS'http://job-openings.monster.com/monster/0c0cf4ea-5fd7-49bf-a6d1-6c6058544230'
p246
aS'http://job-openings.monster.com/monster/fb29af66-bdd3-46f1-b6d9-cf87037a24e1'
p247
aS'http://job-openings.monster.com/monster/66d2200c-1eb6-4b4a-a3a3-f59f27b7703e'
p248
aS'http://job-openings.monster.com/monster/20495bdb-fca8-4830-a7f2-d1d1ee81c6d1'
p249
aS'http://job-openings.monster.com/monster/85f0b090-4d96-489c-b5b4-25c0efa98270'
p250
aS'http://job-openings.monster.com/monster/4e0d05e7-ddcf-4805-8001-253b14b195ad'
p251
aS'http://job-openings.monster.com/monster/9d165272-a603-46e7-91f2-7f89a0ba05b2'
p252
aS'http://job-openings.monster.com/monster/dad81c47-49d3-49d5-8a80-afcd8a2b9115'
p253
aS'http://job-openings.monster.com/monster/6ab01730-ece1-41ec-854a-a1fbd5d5093f'
p254
aS'http://job-openings.monster.com/monster/416c65dc-fb83-4cd7-9f98-5a2ac7a2b9d8'
p255
aS'http://job-openings.monster.com/monster/ad901ed9-46dd-42fa-9fe8-2dbdaad34a5a'
p256
aS'http://job-openings.monster.com/monster/8f4cbb28-058b-4ca6-a8ac-372726d4fbbe'
p257
aS'http://job-openings.monster.com/monster/084c6ffd-d1d7-4cf1-952f-9f9baf081322'
p258
aS'http://jobview.monster.com/big-data-information-security-w2-only-job-alpharetta-ga-us-182552940.aspx'
p259
aS'http://job-openings.monster.com/monster/1aad5493-8507-46ed-8317-3b1b77e5155c'
p260
aS'http://job-openings.monster.com/monster/867c1d26-b6c6-48e6-af64-5100a2218875'
p261
aS'http://job-openings.monster.com/monster/66fd1cd0-2e1f-4f61-a971-c166afc14608'
p262
aS'http://job-openings.monster.com/monster/ceb97e13-b43b-4faf-beac-f54323d356b6'
p263
aS'http://job-openings.monster.com/monster/bc2129cf-5fce-4458-80f0-abd2ed2cc57b'
p264
aS'http://job-openings.monster.com/monster/f91d34a1-e769-4957-8c1f-bd41c5a923c4'
p265
aS'http://jobview.monster.com/research-scientist-principal-investigator-job-us-183076055.aspx'
p266
aS'http://job-openings.monster.com/monster/c597f891-8636-420c-a208-01dcca3a298e'
p267
aS'http://job-openings.monster.com/monster/afedbdec-e0fd-4724-b400-c99e56cc2a4d'
p268
aS'http://jobview.monster.com/information-security-analyst-job-alpharetta-ga-us-182737958.aspx'
p269
aS'http://job-openings.monster.com/monster/af16d7d3-33ac-406b-8f3b-83d4a40f88dd'
p270
aS'http://job-openings.monster.com/monster/dbda7937-5e84-46c7-9a3e-1d4e749978e2'
p271
aS'http://job-openings.monster.com/monster/5167ad96-2988-45e5-b518-8b7005ce65fa'
p272
aS'http://job-openings.monster.com/monster/931cf3fb-11ee-471e-a1d0-5ee28f00fa9c'
p273
aS'http://job-openings.monster.com/monster/52a12e22-67f2-43c6-b78a-71bba38b9856'
p274
aS'http://job-openings.monster.com/monster/7090526f-aa8f-4248-8a43-663913ab6298'
p275
aS'http://job-openings.monster.com/monster/cdae5537-c92b-48de-95fc-cfba188eb9c6'
p276
aS'http://job-openings.monster.com/monster/4afe038b-06a1-499d-b0d7-2ed83b5eeed0'
p277
aS'http://jobview.monster.com/information-security-analyst-iv-hadoop-cloud-security-job-alpharetta-ga-us-182742626.aspx'
p278
aS'http://job-openings.monster.com/monster/9e005ee2-1a0d-4577-bcec-6003a5f5cef2'
p279
aS'http://job-openings.monster.com/monster/77c7e028-77d5-4f41-8cb6-fd159199a764'
p280
aS'http://job-openings.monster.com/monster/8de8787c-2374-40c9-83b7-a9ffbe973fde'
p281
aS'http://job-openings.monster.com/monster/70f1e71f-91d3-4690-9dac-df52ec7d264e'
p282
aS'http://jobview.monster.com/sr-director-of-digital-operations-infrastructure-openstack-sme-job-atlanta-ga-us-182637256.aspx'
p283
aS'http://job-openings.monster.com/monster/ccdd3eb6-2c14-4fa6-b5d8-6abc7d95296c'
p284
aS'http://job-openings.monster.com/monster/87b55906-5a65-48e0-9e12-1ab0a95096df'
p285
aS'http://job-openings.monster.com/monster/0f5b1c62-ffd7-44a6-ad0e-a640c5dd2803'
p286
aS'http://job-openings.monster.com/monster/3a7da5a6-0606-4004-8d2c-8e44a44c5de6'
p287
aS'http://job-openings.monster.com/monster/447bbf57-e135-44c5-a063-70922fed74ea'
p288
aS'http://job-openings.monster.com/monster/ed48dcdc-a1bc-4d82-a631-2d415f9613c5'
p289
aS'http://job-openings.monster.com/monster/831caa5c-0041-42e2-9678-eb6d70c25873'
p290
aS'http://job-openings.monster.com/monster/0607fcc5-9a0c-478a-807c-74ebd3876421'
p291
aS'http://job-openings.monster.com/monster/662cbd22-3b5a-44f0-8e8e-dbb47f346e48'
p292
aS'http://job-openings.monster.com/monster/8259f9d7-72cd-404e-a1bf-332b44231453'
p293
aS'http://job-openings.monster.com/monster/fe9f3825-5b28-4230-87a7-e2026bd86b36'
p294
aS'http://job-openings.monster.com/monster/2ca19537-170d-4885-be05-d5493dff792c'
p295
aS'http://job-openings.monster.com/monster/c079b55c-958b-421f-97b1-afdd64d693e0'
p296
aS'http://job-openings.monster.com/monster/ecf55aad-4491-487d-8dc1-bcad846be765'
p297
aS'http://job-openings.monster.com/monster/b7e5b262-905f-4efb-948a-bd1a8ba5dfc3'
p298
aS'http://job-openings.monster.com/monster/1dacaf7d-9cb8-42a2-8391-f4f183a9736b'
p299
aS'http://job-openings.monster.com/monster/6dce0217-bebf-45d6-92f4-81c78640ccce'
p300
aS'http://job-openings.monster.com/monster/abd575e1-1123-44e9-b0da-8a5fb3bc2a85'
p301
aS'http://job-openings.monster.com/monster/bf4aba81-fc9e-4cec-8938-eb26f0a610fb'
p302
aS'http://job-openings.monster.com/monster/cb56756a-ab1d-4031-aaa6-316a806df12a'
p303
aS'http://job-openings.monster.com/monster/65165c49-e5ff-45f6-87de-dcdd4366d172'
p304
aS'http://job-openings.monster.com/monster/3f7ee463-2052-48c3-8202-9dcee854cca8'
p305
aS'http://job-openings.monster.com/monster/141f9215-8da6-48f2-8c52-b5a560b858e6'
p306
aS'http://job-openings.monster.com/monster/1302d56d-293e-41c3-bb7c-bfabb3b37c3a'
p307
aS'http://job-openings.monster.com/monster/ccd89bb6-4eac-4170-8f04-6091ace5c5e2'
p308
aS'http://job-openings.monster.com/monster/5ad1c5fd-51a5-4c60-a92b-7d5f9d7ce8b0'
p309
aS'http://job-openings.monster.com/monster/fc83160c-a5b5-4540-a35a-c14a7f4de18b'
p310
aS'http://job-openings.monster.com/monster/ba5f9ba4-0a6a-458f-b10c-698b2b6af715'
p311
aS'http://job-openings.monster.com/monster/2cb5f904-540f-473e-b57e-0286683b75fd'
p312
aS'http://job-openings.monster.com/monster/6296ed8e-ad3c-4461-8cd3-ed09601ca83e'
p313
aS'http://job-openings.monster.com/monster/abddad48-73b3-4da5-bca4-60e1a07f58cd'
p314
aS'http://job-openings.monster.com/monster/74dbdc8a-517f-4c46-ba86-63d43b53053b'
p315
aS'http://job-openings.monster.com/monster/d19ecd94-ee3e-4e46-89f7-b1b2355c4adf'
p316
aS'http://job-openings.monster.com/monster/93b7c706-b32c-431e-8071-a96cadd09e00'
p317
aS'http://job-openings.monster.com/monster/a0c68344-0110-497b-a595-47b3a1f65c27'
p318
aS'http://job-openings.monster.com/monster/b7252b94-f82e-4eee-a25c-99778925ba0d'
p319
aS'http://job-openings.monster.com/monster/20e571db-4047-4006-9736-7164d057bbff'
p320
aS'http://job-openings.monster.com/monster/156db4ec-1b95-492c-9de1-bbb6fb3e4d53'
p321
aS'http://job-openings.monster.com/monster/2b19826e-e083-498a-9451-bd5eab0b987d'
p322
aS'http://job-openings.monster.com/monster/b915818e-785c-4d51-aaac-b9b5004c9358'
p323
aS'http://job-openings.monster.com/monster/7ed0a4e7-a1be-4ca8-8aac-cae492991722'
p324
aS'http://job-openings.monster.com/monster/0c4a3d2a-e7bf-4db2-8daa-35f39901f93e'
p325
aS'http://job-openings.monster.com/monster/71fafa9a-7666-4b50-b836-5b612de7d1bb'
p326
aS'http://job-openings.monster.com/monster/26747d45-174b-46a2-97ef-c83a3976b194'
p327
aS'http://job-openings.monster.com/monster/54090772-c73f-434b-8034-bb30c856a8cf'
p328
aS'http://jobview.monster.com/data-management-specialist-job-atlanta-ga-us-182218477.aspx'
p329
aS'http://job-openings.monster.com/monster/df36e0ea-9d93-415f-b948-bb04521085fd'
p330
aS'http://job-openings.monster.com/monster/e6158673-93b4-4b67-b6ce-31e33ab8040c'
p331
aS'http://job-openings.monster.com/monster/b02b0837-d57c-4a9d-b928-8acf29c908ba'
p332
aS'http://job-openings.monster.com/monster/0522beb8-669c-45e2-acd8-c2877c1a5402'
p333
aS'http://job-openings.monster.com/monster/8eed2d18-e570-479a-9dcd-23ea6b1b57e7'
p334
aS'http://job-openings.monster.com/monster/38e39504-de61-40b3-9543-80f9e9fabea7'
p335
aS'http://job-openings.monster.com/monster/4374e0b1-680f-48d0-9d05-97947f3e1947'
p336
aS'http://job-openings.monster.com/monster/4067d1a0-640a-4a64-a4a3-cafcc1ddd049'
p337
aS'http://job-openings.monster.com/monster/08d50455-0b20-4a2e-8c7e-e42b96fd9a16'
p338
aS'http://job-openings.monster.com/monster/62982122-b032-4fd7-b1fd-b111bde1a5aa'
p339
aS'http://job-openings.monster.com/monster/81decc7f-8b19-4f74-b9d6-6be3ca08ed59'
p340
aS'http://job-openings.monster.com/monster/2230d28a-00b1-4e26-adcc-2088971e6e97'
p341
aS'http://job-openings.monster.com/monster/fe2691d3-134e-4763-be8c-134efd605f40'
p342
aS'http://job-openings.monster.com/monster/56efffed-6096-4275-968c-dd00afa0f4d0'
p343
aS'http://job-openings.monster.com/monster/ed346bc6-e598-4113-bd37-61339d6693bd'
p344
aS'http://job-openings.monster.com/monster/151d351b-b230-4146-9f93-ecc7234d8265'
p345
aS'http://job-openings.monster.com/monster/f376cf7d-4f58-4c84-a22a-e06fa1eb7dd0'
p346
aS'http://job-openings.monster.com/monster/9096acc6-0b13-4922-a9d7-3e97fca2032d'
p347
aS'http://job-openings.monster.com/monster/9d4cc82f-6217-4094-bcbb-987ee1cdd011'
p348
aS'http://job-openings.monster.com/monster/94462520-4cbd-42a5-b656-dd22ebb29cc3'
p349
aS'http://job-openings.monster.com/monster/09597301-f49a-4e42-9565-d85042dc0916'
p350
aS'http://job-openings.monster.com/monster/cba4aa95-d991-4ba3-9b70-38e0f46205b0'
p351
aS'http://job-openings.monster.com/monster/24d9d3cc-195b-40a6-bac7-e8157ad1fbba'
p352
aS'http://job-openings.monster.com/monster/3220de10-4f63-498e-8b21-4b748e4ca1fb'
p353
aS'http://job-openings.monster.com/monster/de851cf1-2141-4504-87e3-bf089080642b'
p354
aS'http://job-openings.monster.com/monster/97c5aaac-c0c9-43f8-b7da-7fb9bd6f7400'
p355
aS'http://job-openings.monster.com/monster/f26bb024-bf01-4987-a44f-c4ed104b0687'
p356
aS'http://job-openings.monster.com/monster/294b8931-a2fc-40ae-b40c-b2b2c2bb2af9'
p357
aS'http://job-openings.monster.com/monster/e4996a07-f525-4717-b72c-5f522f2fdb71'
p358
a.