(lp1
S'http://job-openings.monster.com/monster/2a861d5c-d4b6-4a95-baaa-4288508761e6'
p2
aS'http://job-openings.monster.com/monster/01141437-5d1e-462f-9e42-ebc99a42c2cc'
p3
aS'http://job-openings.monster.com/monster/d99a4ff1-37e4-48a5-b7c8-cc52922cbe03'
p4
aS'http://job-openings.monster.com/monster/dd131cab-679e-44c6-803e-8f018384f9dd'
p5
aS'http://job-openings.monster.com/monster/846574fc-34e9-4d94-9ad5-562018edb6bc'
p6
aS'http://job-openings.monster.com/monster/d5391716-4839-494a-b46c-d1e528668681'
p7
aS'http://job-openings.monster.com/monster/e0f3f639-cb1d-483c-8655-a7d038ee06ec'
p8
aS'http://job-openings.monster.com/monster/72132681-78dc-466c-97d8-607f47200b0d'
p9
aS'http://job-openings.monster.com/monster/713dcf9f-a9bb-4678-9d0b-1d95a8a4ee1b'
p10
aS'http://job-openings.monster.com/monster/1800ab67-d05f-4387-9ddf-cccf48f7ae3a'
p11
aS'http://jobview.monster.com/business-data-analyst-job-universal-city-ca-us-182398682.aspx'
p12
aS'http://job-openings.monster.com/monster/153ffb48-ce72-440f-8de6-deb3df57b143'
p13
aS'http://job-openings.monster.com/monster/49508a68-3620-4da8-a85b-fc65d0f2002b'
p14
aS'http://job-openings.monster.com/monster/f7be480e-2f5a-4435-a0ff-8d59b1593de1'
p15
aS'http://job-openings.monster.com/monster/def108e7-8784-4678-a8af-d6b8694b736b'
p16
aS'http://job-openings.monster.com/monster/98de9c66-b1d5-455b-af33-3b325741aa17'
p17
aS'http://job-openings.monster.com/monster/7e0105c5-b8e6-463f-823c-6240b91116d2'
p18
aS'http://job-openings.monster.com/monster/fbc850d1-6d80-49fb-8cf7-e3834e9bb565'
p19
aS'http://job-openings.monster.com/monster/0abb35ed-0966-4346-875e-9574392366ab'
p20
aS'http://jobview.monster.com/avp-of-applied-analytics-job-aliso-viejo-ca-us-183027065.aspx'
p21
aS'http://job-openings.monster.com/monster/c46f4630-05b1-4caf-b2d9-c2856fdcbdf5'
p22
aS'http://job-openings.monster.com/monster/42e2e1d6-4e93-4ad1-9be2-30a0a7ad0975'
p23
aS'http://job-openings.monster.com/monster/3998c8c9-3f2a-4319-ae24-ebf6b8098d58'
p24
aS'http://job-openings.monster.com/monster/6f12a558-c754-4734-81b4-60623ebc0fac'
p25
aS'http://job-openings.monster.com/monster/6bc832a4-9ed7-4db6-9b8a-d81db19c4e9f'
p26
aS'http://job-openings.monster.com/monster/08af655e-c7c9-48d4-be69-657aaa0497be'
p27
aS'http://job-openings.monster.com/monster/5c48f2e0-6519-46cd-96ef-f2906cd6e447'
p28
aS'http://job-openings.monster.com/monster/dc3243ab-6996-4696-87e6-29975fb73852'
p29
aS'http://job-openings.monster.com/monster/910b2ca4-ec82-4516-9b33-e58110847fe8'
p30
aS'http://job-openings.monster.com/monster/5d7595c2-29fe-4312-8156-a852b89d56f9'
p31
aS'http://job-openings.monster.com/monster/14ab81f3-4d46-4857-bb22-52fad0a1d6ce'
p32
aS'http://job-openings.monster.com/monster/11ebeba1-13ef-4ba7-8396-3ea17173a3ec'
p33
aS'http://job-openings.monster.com/monster/71e11a0e-182d-49c8-91eb-aa76959aa5de'
p34
aS'http://job-openings.monster.com/monster/1a3ec8aa-1add-496e-86e4-aed62fe85ac4'
p35
aS'http://job-openings.monster.com/monster/fc304571-e55c-44ad-9c49-5213c1400d24'
p36
aS'http://job-openings.monster.com/monster/fa7023b4-3c47-4a10-a276-85fe9842b66f'
p37
aS'http://job-openings.monster.com/monster/b3686a3c-9c45-43d3-9b7f-dd75178fd051'
p38
aS'http://job-openings.monster.com/monster/24751431-358a-49d9-bdc7-76d6794a16a8'
p39
aS'http://job-openings.monster.com/monster/c8c350b7-23dd-461d-883e-33193c2763d7'
p40
aS'http://job-openings.monster.com/monster/31584717-6607-4895-8fbe-5d0ee3d2a533'
p41
aS'http://job-openings.monster.com/monster/d9e27cff-cbde-4aff-af17-7d962bc3badf'
p42
aS'http://job-openings.monster.com/monster/c0c7f424-0443-480a-bc71-84f98f5d38f3'
p43
aS'http://job-openings.monster.com/monster/654101e8-1302-4f11-99a7-b9c1e6534509'
p44
aS'http://jobview.monster.com/data-scientist-great-product-200-countries-50m-users-job-west-hollywood-ca-us-182678732.aspx'
p45
aS'http://job-openings.monster.com/monster/276c220f-f483-4f72-bf0d-c0e18ae5f0ee'
p46
aS'http://job-openings.monster.com/monster/e4068316-8467-4ac4-a5cd-4940bde6ba23'
p47
aS'http://job-openings.monster.com/monster/57b61a80-b564-41e1-9d63-f47886352d03'
p48
aS'http://jobview.monster.com/senior-imaging-scientist-research-job-torrance-ca-us-181396753.aspx'
p49
aS'http://job-openings.monster.com/monster/d97796f3-ccce-42ab-9866-f4a0cc879967'
p50
aS'http://jobview.monster.com/data-engineer-sql-python-etl-job-firestone-park-ca-us-183104624.aspx'
p51
aS'http://jobview.monster.com/financial-analyst-i-job-universal-city-ca-us-182286770.aspx'
p52
aS'http://job-openings.monster.com/monster/99b18012-285b-41fe-88e8-d5bfc734fa0a'
p53
aS'http://job-openings.monster.com/monster/7abed5b8-5b38-4bb6-bdf0-5890152d7ee4'
p54
aS'http://job-openings.monster.com/monster/2e886b55-bc33-497f-9b2f-d541535c2750'
p55
aS'http://job-openings.monster.com/monster/f26a2e08-7e5e-401e-9631-e174f0195446'
p56
aS'http://job-openings.monster.com/monster/c3f65700-d346-4453-8f43-26d32abc6661'
p57
aS'http://job-openings.monster.com/monster/eaeab997-8bdf-4264-957c-ccc5574060ad'
p58
aS'http://job-openings.monster.com/monster/3011531f-90f2-4edb-a3cf-1986f176457f'
p59
aS'http://job-openings.monster.com/monster/b12bae7a-9aef-4e9d-a210-c6ef7a8920ac'
p60
aS'http://job-openings.monster.com/monster/1f8e797a-dd6d-416f-9493-f41e829f720a'
p61
aS'http://job-openings.monster.com/monster/8217f45a-3a8a-4968-ba88-9a678c2f59df'
p62
aS'http://job-openings.monster.com/monster/a484af02-15a9-49cf-97ca-0b772df0e193'
p63
aS'http://job-openings.monster.com/monster/b4f4fc95-b221-43e6-acd6-4df12438d57a'
p64
aS'http://job-openings.monster.com/monster/f24cfe03-709c-4ba1-b11a-e5c3dc6791dc'
p65
aS'http://job-openings.monster.com/monster/3d8d9e41-46f9-4e0b-9076-000b1376a16b'
p66
aS'http://job-openings.monster.com/monster/443498c4-1de5-483b-ae38-be50f1d918f4'
p67
aS'http://job-openings.monster.com/monster/c2e41be4-c739-436d-8d05-b3139cea22c3'
p68
aS'http://job-openings.monster.com/monster/9df12077-adc1-493e-9fbd-55c53b92fb38'
p69
aS'http://job-openings.monster.com/monster/f61181aa-2398-4fcd-9631-f31b1d6277af'
p70
aS'http://job-openings.monster.com/monster/5134ab92-8a06-464b-a079-8593ed955505'
p71
aS'http://jobview.monster.com/senior-data-engineer-pipeline-architecture-analytics-job-santa-monica-ca-us-182403333.aspx'
p72
aS'http://job-openings.monster.com/monster/cc255dbe-cdc4-4db1-b428-a358316ab5ee'
p73
aS'http://job-openings.monster.com/monster/e86e90c6-0186-4543-9879-032ac85d7a52'
p74
aS'http://job-openings.monster.com/monster/f2cd2498-fc0f-4644-9ab4-bcb74d2d0e3f'
p75
aS'http://job-openings.monster.com/monster/720dc799-4a38-4a3b-80d1-8edab0e0dfde'
p76
aS'http://job-openings.monster.com/monster/21237937-9633-4ccd-90b5-5ed29eabc17f'
p77
aS'http://job-openings.monster.com/monster/67d8d2cb-30ab-44c0-92bb-b549ff8393da'
p78
aS'http://job-openings.monster.com/monster/82aa4211-28a9-4602-88e3-00b505a91790'
p79
aS'http://job-openings.monster.com/monster/8ef9d302-97c7-4c04-9bd9-d09f7d5ea4d8'
p80
aS'http://job-openings.monster.com/monster/0968a9f3-34ff-48e3-aad9-f49282bb9631'
p81
aS'http://job-openings.monster.com/monster/2e1c01ee-ef19-450b-9a28-890f4297bc4f'
p82
aS'http://job-openings.monster.com/monster/8ca1667f-d00f-402a-8216-f87bbab1f95a'
p83
aS'http://job-openings.monster.com/monster/8ae0aef8-f579-4795-b913-2a8db097ce0a'
p84
aS'http://job-openings.monster.com/monster/522e3db3-d406-4edc-a622-b7026d300a61'
p85
aS'http://job-openings.monster.com/monster/5bd52c6d-cd41-4b3a-aa0b-aa4647c83136'
p86
aS'http://job-openings.monster.com/monster/a85dde01-488a-44fd-9264-892c9ccdb196'
p87
aS'http://job-openings.monster.com/monster/d8a487f5-416f-4d34-b424-e0e63fdcc162'
p88
aS'http://job-openings.monster.com/monster/7f76dadc-76d3-4e19-bb10-28d503d3d148'
p89
aS'http://job-openings.monster.com/monster/0a725282-135f-403e-872e-58c05ef58c77'
p90
aS'http://job-openings.monster.com/monster/57dec4c3-1e8b-4742-bc97-869a0bf8a6c1'
p91
aS'http://job-openings.monster.com/monster/c9d99b82-f09d-41e0-82bd-4c56dfdef34a'
p92
aS'http://job-openings.monster.com/monster/75611659-2018-4d38-8e03-8c0edc5763f9'
p93
aS'http://job-openings.monster.com/monster/bfdc3c9f-de57-47ff-b5ec-2832a8eabb36'
p94
aS'http://job-openings.monster.com/monster/cbf96bb9-5423-42cc-ad55-8a09c3754b67'
p95
aS'http://job-openings.monster.com/monster/cd361ccb-071f-46b0-9605-c0e05b9c9971'
p96
aS'http://job-openings.monster.com/monster/37950188-b86b-48e2-b252-4ed131fd1887'
p97
aS'http://job-openings.monster.com/monster/4cf6dcd3-f3a3-4f82-96fe-a683cccc5bbb'
p98
aS'http://jobview.monster.com/process-engineer-interns-job-santa-ana-ca-us-182482154.aspx'
p99
aS'http://job-openings.monster.com/monster/1c72e063-c9aa-4792-ae49-e05a1a411c84'
p100
aS'http://job-openings.monster.com/monster/637bfd67-016e-471e-a2ce-b80534383bc1'
p101
aS'http://job-openings.monster.com/monster/5e12938b-ab96-460c-a29b-20c8a6182981'
p102
aS'http://job-openings.monster.com/monster/02e86649-31f4-490c-902b-8baab610d5b5'
p103
aS'http://job-openings.monster.com/monster/3d782bcb-6ac4-4bf3-80ed-e7bc1ab81790'
p104
aS'http://job-openings.monster.com/monster/85e69936-ae15-4aaf-8c49-86f6a2a20f0b'
p105
aS'http://job-openings.monster.com/monster/1adf3283-4484-485f-8251-12da53c6aefd'
p106
aS'http://job-openings.monster.com/monster/fdb23396-0fc2-453e-896a-09f9c7ea3065'
p107
aS'http://job-openings.monster.com/monster/d9205e00-2556-4219-93d7-4fe825ee999a'
p108
aS'http://job-openings.monster.com/monster/d2de4d41-fb0c-4dc2-9d19-754368d622b9'
p109
aS'http://job-openings.monster.com/monster/c18fe408-ef7d-4628-9885-df8ae546b1ea'
p110
aS'http://job-openings.monster.com/monster/40e32848-681b-4e70-a27d-1ab3fd667746'
p111
aS'http://job-openings.monster.com/monster/e057308d-0af7-4391-ae29-200d12bb1df1'
p112
aS'http://job-openings.monster.com/monster/e906e211-189d-48c1-b8dd-ab810cf6045f'
p113
aS'http://job-openings.monster.com/monster/dac5aa5b-d303-42d9-84a2-b88ec38f4c2c'
p114
aS'http://job-openings.monster.com/monster/d6c6bcf4-d61f-46e2-8d0e-94780d759486'
p115
aS'http://job-openings.monster.com/monster/f07aa68b-652d-42ff-a0bb-67f10006affd'
p116
aS'http://jobview.monster.com/software-engineer-top-secret-sci-clearances-only-job-redondo-beach-ca-us-182095686.aspx'
p117
aS'http://job-openings.monster.com/monster/85467323-c900-4f07-a350-281d8b8037ac'
p118
aS'http://job-openings.monster.com/monster/8cd78548-5eec-44ae-9671-2da6e41550b5'
p119
aS'http://job-openings.monster.com/monster/0eee42f0-c3f2-4853-a3b2-6f94f7a6bb72'
p120
aS'http://job-openings.monster.com/monster/977496e2-4a64-4c3e-82d3-a5a4edb5314f'
p121
aS'http://job-openings.monster.com/monster/96c7fa1d-6172-435c-911b-a90f15a84602'
p122
aS'http://job-openings.monster.com/monster/62584e7e-56b9-46fc-a0dc-59b60f5a08f5'
p123
aS'http://job-openings.monster.com/monster/136e7fc8-9bd5-4af3-b2f4-4a8098a4cc67'
p124
aS'http://job-openings.monster.com/monster/d715e7fa-f053-4891-bc0b-13ecb47a843f'
p125
aS'http://jobview.monster.com/associate-business-analyst-job-santa-fe-springs-ca-us-182611016.aspx'
p126
aS'http://job-openings.monster.com/monster/974dfca6-a067-410b-b587-4475c985fadc'
p127
aS'http://job-openings.monster.com/monster/5db65c68-25e5-4ec7-83c6-3bb0fbe3a972'
p128
aS'http://job-openings.monster.com/monster/3097c309-6b25-43b0-9723-c6c34b2d8418'
p129
aS'http://job-openings.monster.com/monster/18f0a947-fa95-4935-85d4-5e6cce5b5c06'
p130
aS'http://job-openings.monster.com/monster/955be856-3845-4a9b-ac90-efa6b188e7ff'
p131
aS'http://job-openings.monster.com/monster/4442ef00-0644-4f68-855e-bd0efaf83590'
p132
aS'http://job-openings.monster.com/monster/ab923bc5-3b0f-45ed-834d-ccd612a76957'
p133
aS'http://job-openings.monster.com/monster/d875d97d-9ae3-4141-954e-5d147ad0f890'
p134
aS'http://job-openings.monster.com/monster/ddd154c6-8665-462c-994d-505122dc7c04'
p135
aS'http://job-openings.monster.com/monster/3de53887-41e6-4483-8474-6c9f04e41164'
p136
aS'http://job-openings.monster.com/monster/965adf46-a702-454d-bc3a-fbd58ac282c0'
p137
aS'http://job-openings.monster.com/monster/28b2a728-488f-4eef-908a-dae0bd3fcab2'
p138
aS'http://job-openings.monster.com/monster/a25d7fc8-2cd8-4419-b69b-0643ed46cb15'
p139
aS'http://job-openings.monster.com/monster/e618f1b7-94be-41d1-94b2-d70f7f36d64b'
p140
aS'http://job-openings.monster.com/monster/b58cfae9-d7ef-453d-a2eb-c30005dddf68'
p141
aS'http://job-openings.monster.com/monster/0d370b72-16cc-44b2-9d8d-67d835f1452b'
p142
aS'http://job-openings.monster.com/monster/88a6de4e-46f6-403e-bd82-49b4ede24e15'
p143
aS'http://job-openings.monster.com/monster/ff043369-1693-4005-9397-aee52a13ae4a'
p144
aS'http://job-openings.monster.com/monster/712d52f6-f0a5-4be5-8bee-b17ba3b162ab'
p145
aS'http://jobview.monster.com/senior-scala-spark-developer-will-relocate-job-los-angeles-ca-us-182724469.aspx'
p146
aS'http://job-openings.monster.com/monster/dc52bfa6-84cc-44e0-a1e1-0696ad0085b6'
p147
aS'http://job-openings.monster.com/monster/438fc0ce-0692-4567-b046-a034de5c2edd'
p148
aS'http://job-openings.monster.com/monster/aa568007-b479-4b95-a43e-04a05a9566af'
p149
aS'http://job-openings.monster.com/monster/a56f4c28-44d0-4d03-89fa-bbd42c20accb'
p150
aS'http://job-openings.monster.com/monster/8a1314fc-0fa6-4190-ae03-f028e0e66b93'
p151
aS'http://job-openings.monster.com/monster/3f5447f4-0afc-488c-8608-7d0b9c132ad6'
p152
aS'http://job-openings.monster.com/monster/067234eb-0b4e-4695-bdb4-6b4b1582e474'
p153
aS'http://job-openings.monster.com/monster/5c38b4a3-7cec-4463-8936-506553ae8ea7'
p154
aS'http://job-openings.monster.com/monster/1580fb6f-ef23-44e9-acb9-d44b2bc15da5'
p155
aS'http://job-openings.monster.com/monster/fdebf95b-a387-4700-afcc-6ffcf4d0ac02'
p156
aS'http://job-openings.monster.com/monster/f0012441-6191-4826-8d42-346533463819'
p157
aS'http://job-openings.monster.com/monster/5b8347b0-0d93-47c6-bf08-7ab8c01d6c58'
p158
aS'http://job-openings.monster.com/monster/002a7105-ad0e-4932-8c13-9529421d50f0'
p159
aS'http://job-openings.monster.com/monster/c3b7c5e6-cdde-44d6-b6d3-7d611689af02'
p160
aS'http://job-openings.monster.com/monster/76de7a6c-b62c-40fb-ad89-3cedb123b526'
p161
aS'http://job-openings.monster.com/monster/290d936e-fe7a-4e6e-bf67-7ae9abcb4a49'
p162
aS'http://job-openings.monster.com/monster/2f1c0470-9b4e-42dc-84f9-16bfe5a2dd04'
p163
aS'http://job-openings.monster.com/monster/34344791-2fdc-46d9-a34f-17ecd39f0666'
p164
aS'http://job-openings.monster.com/monster/6200b042-d0de-41c6-9a0d-5a8e7c3eeb2c'
p165
aS'http://job-openings.monster.com/monster/62c35c8c-c7ce-444a-acb8-6cbc18933bfe'
p166
aS'http://job-openings.monster.com/monster/2fb4b8b0-d961-4979-8b43-ae4304a02082'
p167
aS'http://job-openings.monster.com/monster/52f3f7be-c239-4ecd-8242-3104932b5edc'
p168
aS'http://job-openings.monster.com/monster/70067d3a-ac83-496b-a2dc-652141711786'
p169
aS'http://job-openings.monster.com/monster/d64fb6da-f832-4060-9a93-f7d3a74b74c9'
p170
aS'http://job-openings.monster.com/monster/e48f0815-ccb2-4669-98c6-862bfb12dba2'
p171
aS'http://job-openings.monster.com/monster/8b96fe4a-bfad-4ee4-b36c-02635a34f3ee'
p172
aS'http://job-openings.monster.com/monster/6a419bcd-fc8d-44b9-a9d3-e43c8c57dcb5'
p173
aS'http://job-openings.monster.com/monster/a60ab72b-3e8d-4496-ab5b-37c48e359687'
p174
aS'http://job-openings.monster.com/monster/14757cef-7c25-405d-b9d5-b5075bd52cf8'
p175
aS'http://job-openings.monster.com/monster/5a7e314f-2513-46ce-966d-b47f2fb0627f'
p176
aS'http://job-openings.monster.com/monster/b55828c1-61c8-4aee-bd6c-2c00ab93752b'
p177
aS'http://job-openings.monster.com/monster/3f20f747-8853-47ce-ada6-a98bc12995fa'
p178
aS'http://job-openings.monster.com/monster/50b20b31-6151-4618-9965-e9010f9c2d46'
p179
aS'http://job-openings.monster.com/monster/6be525e2-f351-48af-9a50-b9b4a88f0a1c'
p180
aS'http://job-openings.monster.com/monster/8cd2b554-e3b4-4dc0-88d2-c7392dc33d37'
p181
aS'http://job-openings.monster.com/monster/23e31fd3-a6de-4ae0-b5e5-fe865402db00'
p182
aS'http://job-openings.monster.com/monster/b7c40627-180d-4fd2-af34-5ece92c0f95d'
p183
aS'http://jobview.monster.com/senior-data-scientist-job-santa-monica-ca-us-182812518.aspx'
p184
aS'http://job-openings.monster.com/monster/07725c79-678e-444b-a378-206a8839beb7'
p185
aS'http://job-openings.monster.com/monster/b83ccab4-f5bb-4a2e-89ca-8f8320657693'
p186
aS'http://job-openings.monster.com/monster/8c73e815-2328-4359-8b26-4b1ee66317d8'
p187
aS'http://job-openings.monster.com/monster/07251910-4df6-44da-80ad-fb8316bdb646'
p188
aS'http://job-openings.monster.com/monster/f445dd3a-45b9-47ac-b918-2fc040eca1d4'
p189
aS'http://job-openings.monster.com/monster/c9f8aa2b-fc78-4acc-9bce-45e3503b615c'
p190
aS'http://job-openings.monster.com/monster/dc9e0de6-d5d4-4eeb-b77f-0ca24a6aa793'
p191
aS'http://job-openings.monster.com/monster/6d2f68b2-a4b0-4040-9234-fd9de0b08b4d'
p192
aS'http://job-openings.monster.com/monster/3720ffb0-5548-4201-ac38-76215289cdc4'
p193
aS'http://job-openings.monster.com/monster/c975eac1-e775-48d8-8bd6-985dfeda737c'
p194
aS'http://job-openings.monster.com/monster/f87c0a04-42cc-46ed-afa5-37276e41eebf'
p195
aS'http://job-openings.monster.com/monster/5f3d07cb-80a3-4d14-b5e0-50beafb54200'
p196
aS'http://job-openings.monster.com/monster/be65e4e9-8d2b-43d9-97fe-5bdb9ebc586f'
p197
aS'http://job-openings.monster.com/monster/16e43f8a-93c7-4845-b820-3bc588c340f2'
p198
aS'http://job-openings.monster.com/monster/4411d38f-1cd1-43a4-bfcd-7c1b3261c7a6'
p199
aS'http://job-openings.monster.com/monster/fd0e8a5d-9b75-4eda-abea-af59cf242f71'
p200
aS'http://job-openings.monster.com/monster/af499569-139c-4718-a977-ad49aa7c19cb'
p201
aS'http://job-openings.monster.com/monster/8738b988-293e-4e24-8f44-cf831a8a1509'
p202
aS'http://job-openings.monster.com/monster/54af4862-4e07-422e-bd2f-47ada2e719d3'
p203
aS'http://jobview.monster.com/senior-scala-spark-developer-will-relocate-job-west-los-angeles-ca-us-183103797.aspx'
p204
aS'http://job-openings.monster.com/monster/d095f91a-8712-4244-b0c9-31ec7a10fcdd'
p205
aS'http://job-openings.monster.com/monster/47ed0e1f-2795-438f-9065-036d32d11085'
p206
aS'http://job-openings.monster.com/monster/0374d238-8b72-4a6d-8deb-fe46731fca70'
p207
aS'http://jobview.monster.com/back-end-developer-needed-to-build-revolutionary-financial-app!-job-los-angeles-ca-us-182749619.aspx'
p208
aS'http://job-openings.monster.com/monster/288975ff-d8b3-495c-bb56-f7f86d595aad'
p209
aS'http://job-openings.monster.com/monster/9441efac-5d2b-47c5-a7e3-b27c21758250'
p210
aS'http://job-openings.monster.com/monster/83438435-b252-40ab-a2d1-89c0a934c52b'
p211
aS'http://job-openings.monster.com/monster/253d0484-95ed-4eb1-aab0-baec4aef2839'
p212
aS'http://job-openings.monster.com/monster/5942d419-995c-427e-bfb5-7f892980a426'
p213
aS'http://job-openings.monster.com/monster/a17b91db-10e7-4842-8505-49090c41efea'
p214
aS'http://job-openings.monster.com/monster/c6367752-ab75-4fb5-b783-8694ab031e8b'
p215
aS'http://job-openings.monster.com/monster/30e9909b-3271-4eed-8b92-c38d43e8f748'
p216
aS'http://job-openings.monster.com/monster/130738d8-d868-4360-b5e5-2a0a1aba96b5'
p217
aS'http://jobview.monster.com/data-scientist-intern-job-orange-ca-us-182742752.aspx'
p218
aS'http://job-openings.monster.com/monster/f6850eef-8356-4c40-a080-34e6aa0f8e21'
p219
aS'http://job-openings.monster.com/monster/cf562007-82ab-4e97-9a57-e6557eaa845f'
p220
aS'http://job-openings.monster.com/monster/6696d62e-723a-4c52-948a-d374250378c9'
p221
aS'http://job-openings.monster.com/monster/6b4d2c34-c6ce-4da3-a219-930bd4213660'
p222
aS'http://job-openings.monster.com/monster/12d03741-84b8-4499-a8c4-90ac56d76217'
p223
aS'http://job-openings.monster.com/monster/da4e9023-4102-40ad-a127-cd5e58115776'
p224
aS'http://job-openings.monster.com/monster/1cb8c7f3-b93f-4d41-977c-5fde51a7523f'
p225
aS'http://job-openings.monster.com/monster/18b39e55-6dfe-4407-8a16-e92b7bece79c'
p226
aS'http://job-openings.monster.com/monster/1cb8a0e4-9474-461e-8e60-f98bb399aa89'
p227
aS'http://job-openings.monster.com/monster/889192ec-7883-4280-9c1b-09313c8c50f8'
p228
aS'http://job-openings.monster.com/monster/b43f34a1-3bbc-4a9e-97ef-b1f7ed9bcf00'
p229
aS'http://job-openings.monster.com/monster/b8b7ef82-07b0-45d2-944f-077ec9b87ed7'
p230
aS'http://job-openings.monster.com/monster/bcf12c5f-62ea-4883-98bf-4ee1123159eb'
p231
aS'http://jobview.monster.com/senior-imaging-scientist-research-job-santa-ana-ca-us-181396829.aspx'
p232
aS'http://job-openings.monster.com/monster/9d03b9ef-5a45-49de-b748-44b790f5b471'
p233
aS'http://job-openings.monster.com/monster/318e623f-9431-4223-b447-7d65e25bdd1b'
p234
aS'http://job-openings.monster.com/monster/7ab9fd43-faf2-49a7-b5ca-7883d9f2af3e'
p235
aS'http://job-openings.monster.com/monster/a3e93b87-31d7-49a7-88dd-8d3d10350b5c'
p236
aS'http://job-openings.monster.com/monster/c201eca2-20d9-443f-98ec-04758558ae0c'
p237
aS'http://jobview.monster.com/senior-data-engineer-pipeline-architecture-analytics-job-santa-monica-ca-us-183102627.aspx'
p238
aS'http://job-openings.monster.com/monster/ade1bb3a-7cff-4867-b849-c20927cd9e56'
p239
aS'http://job-openings.monster.com/monster/925bd68d-9b46-4766-8c31-047c714d9067'
p240
aS'http://job-openings.monster.com/monster/a7791402-d21d-4723-9fc9-c36af8b5d0a3'
p241
aS'http://job-openings.monster.com/monster/2a5ef3a2-097e-4118-842c-921d4bb399b3'
p242
aS'http://job-openings.monster.com/monster/f86e42dd-5041-49e4-b024-a9eb0d9961a1'
p243
aS'http://job-openings.monster.com/monster/70f9293a-6c87-4e09-8ede-893325cf4eb5'
p244
aS'http://job-openings.monster.com/monster/5877314b-6b7f-4cef-b296-d05688abab76'
p245
aS'http://job-openings.monster.com/monster/e2aa458f-9c41-461a-9db8-cd2ae2618f1c'
p246
aS'http://job-openings.monster.com/monster/f4500dad-dd69-4866-9daa-3607cc14b7d7'
p247
aS'http://job-openings.monster.com/monster/64e3031b-d651-4b8f-a09b-ef421b6a5649'
p248
aS'http://job-openings.monster.com/monster/82c7ee0d-db3e-46eb-8cef-e7c74a26861e'
p249
aS'http://job-openings.monster.com/monster/29b8c5ac-7986-447f-a8c4-9be4fb55d406'
p250
aS'http://job-openings.monster.com/monster/3cdd1c89-29d4-4226-9e7e-7ab19bfadf90'
p251
aS'http://job-openings.monster.com/monster/0b5eb087-6a42-4732-a184-66c3b938ba44'
p252
aS'http://jobview.monster.com/senior-data-scientist-job-santa-monica-ca-us-183102644.aspx'
p253
aS'http://job-openings.monster.com/monster/74dbd2ea-dbac-401d-93f5-705775f0a1ad'
p254
aS'http://job-openings.monster.com/monster/001b6604-a1d6-40d0-9626-2d6d40df0a85'
p255
aS'http://job-openings.monster.com/monster/313882f6-eae9-4cb3-86b8-a90c72c762cd'
p256
aS'http://job-openings.monster.com/monster/f81ec143-3a93-4774-874f-b3ac2d6cee65'
p257
aS'http://job-openings.monster.com/monster/c3f0f25d-97e7-4f45-ad16-996d681557b0'
p258
aS'http://job-openings.monster.com/monster/b58d9264-a99d-4395-ade3-127659738443'
p259
aS'http://job-openings.monster.com/monster/b04ed839-6b98-4460-bbe6-c16d1cf3a02e'
p260
aS'http://job-openings.monster.com/monster/864f4374-9c08-4a8d-9330-1cc78e8db0d0'
p261
aS'http://job-openings.monster.com/monster/4e3a52a9-a7b8-464f-b13b-9a5d572982b8'
p262
aS'http://job-openings.monster.com/monster/ee1844d6-ad4f-4ca2-bd0b-bf2194f94ba7'
p263
aS'http://jobview.monster.com/senior-advanced-analytics-job-el-segundo-ca-us-182472933.aspx'
p264
aS'http://job-openings.monster.com/monster/516b820d-7aa0-4c31-a105-8e5783b8a2e4'
p265
aS'http://job-openings.monster.com/monster/9650864d-3abf-41d6-9234-8900260b94f4'
p266
aS'http://job-openings.monster.com/monster/e8666ba6-3983-4692-91be-94c4629dc6dd'
p267
aS'http://job-openings.monster.com/monster/89a1d510-e79b-4023-9472-35761d69c5b6'
p268
aS'http://job-openings.monster.com/monster/027aef3c-00f4-44c1-aad3-3d58ee9a9d36'
p269
aS'http://jobview.monster.com/data-scientist-great-product-200-countries-50m-users-job-los-angeles-ca-us-183101444.aspx'
p270
aS'http://job-openings.monster.com/monster/ebf1e9cc-5c45-4bea-bb5d-a69854627934'
p271
aS'http://job-openings.monster.com/monster/64f03e90-2c94-41f3-a358-8288146d491f'
p272
aS'http://job-openings.monster.com/monster/e5d27b5d-12f4-4bb7-86cf-e4f7c2ecac9f'
p273
aS'http://job-openings.monster.com/monster/55d28ed1-458e-4113-87b0-a42db50bfeb3'
p274
aS'http://job-openings.monster.com/monster/0a46c68f-f9b2-41a0-b91a-6b91efd127f9'
p275
aS'http://job-openings.monster.com/monster/34a5e8ef-5dc4-4cdf-9f9f-32bccfe2ee92'
p276
aS'http://job-openings.monster.com/monster/382207d4-7a6a-44a1-a05e-c1b20d1a028d'
p277
aS'http://job-openings.monster.com/monster/8d164eb5-e618-4997-8daa-16235a5ea4ee'
p278
aS'http://job-openings.monster.com/monster/1381f551-4cea-4f7f-87ce-012e2d5cf7b6'
p279
aS'http://job-openings.monster.com/monster/a46c8a17-52cb-421d-aa38-3e7f05b30028'
p280
aS'http://job-openings.monster.com/monster/1f7597b2-15c7-4029-90a3-19ee0914122c'
p281
aS'http://job-openings.monster.com/monster/701e1e55-28d7-4db1-8878-b9ac5fafa6e2'
p282
aS'http://job-openings.monster.com/monster/f2899523-38d1-4893-a3aa-d4f86189d136'
p283
aS'http://job-openings.monster.com/monster/d63ad2af-d08b-4ead-823f-155a7d22f502'
p284
aS'http://job-openings.monster.com/monster/7ca58f8a-3966-4ec0-bd38-2ee8aaebaa35'
p285
aS'http://job-openings.monster.com/monster/cf5b8c39-7293-4198-8d73-ddaf7ede024f'
p286
aS'http://job-openings.monster.com/monster/d7cf605d-378b-47a8-acca-82df06952a88'
p287
aS'http://job-openings.monster.com/monster/c0173a8e-6326-49fd-933b-84c88d423213'
p288
aS'http://job-openings.monster.com/monster/5bcac823-9b28-45e9-a3f0-11aa63ea4b8c'
p289
aS'http://job-openings.monster.com/monster/f68bc4ad-7e3b-4042-84dc-e258eee98ce4'
p290
aS'http://job-openings.monster.com/monster/2643a869-775f-4624-83cb-c75d2271b8ae'
p291
aS'http://job-openings.monster.com/monster/0e81d29f-a0cc-43a3-aaf3-7bace8bbf922'
p292
aS'http://job-openings.monster.com/monster/ec03f5f1-86f3-4a33-9c06-cf1d8cf3a6b6'
p293
aS'http://job-openings.monster.com/monster/c62262d5-22cc-4e0a-bcd9-0a35a80a1c28'
p294
aS'http://job-openings.monster.com/monster/bfb73e80-5a85-499a-bc84-c3b95097e27a'
p295
aS'http://job-openings.monster.com/monster/2664ff09-65c0-47e0-95ca-9072f9107965'
p296
aS'http://job-openings.monster.com/monster/9da216a3-9e2d-45b0-9d56-ec6f3a9a1d5f'
p297
aS'http://job-openings.monster.com/monster/dd0f5acb-258a-4bae-bce2-f9bca4116228'
p298
aS'http://job-openings.monster.com/monster/0be671cc-91ca-4b3c-94a5-8ca8c943d768'
p299
aS'http://job-openings.monster.com/monster/06132ff5-d994-42c9-82bf-22d4193cbd74'
p300
aS'http://job-openings.monster.com/monster/7da1117e-a787-4203-82b6-705fac8c57e5'
p301
aS'http://job-openings.monster.com/monster/9748bc1c-7e9e-44b0-bc93-12b695839c8a'
p302
aS'http://jobview.monster.com/data-engineer-sql-python-etl-job-los-angeles-ca-us-182529841.aspx'
p303
aS'http://jobview.monster.com/senior-account-executive-job-costa-mesa-ca-us-182285900.aspx'
p304
aS'http://job-openings.monster.com/monster/3b3d35fd-6bd1-48a8-90c4-bc7310c80d56'
p305
aS'http://job-openings.monster.com/monster/4680ccaa-6891-4f71-841f-415e4d7da60f'
p306
aS'http://job-openings.monster.com/monster/97c7f813-588d-4d33-b1ad-11083f07ce00'
p307
aS'http://job-openings.monster.com/monster/72052759-aa97-4b5b-9a08-621e96180e35'
p308
aS'http://job-openings.monster.com/monster/010e7161-c90c-4563-bae9-3d7dedc28073'
p309
aS'http://job-openings.monster.com/monster/cfba3d85-6dc9-42de-899c-974c2d6b38f3'
p310
aS'http://jobview.monster.com/healthcare-data-scientist-remote-base-candidates-welcome-job-los-angeles-ca-us-182838515.aspx'
p311
aS'http://job-openings.monster.com/monster/c45d27d2-3b20-485f-9a28-3a381c32377e'
p312
aS'http://job-openings.monster.com/monster/658d4aa9-23f2-4038-a4cd-6e28cf67a497'
p313
aS'http://job-openings.monster.com/monster/5e82f05e-ab69-45b3-a780-8b95f2457feb'
p314
aS'http://job-openings.monster.com/monster/9238186c-d802-4ecb-8243-c8b89125a268'
p315
aS'http://job-openings.monster.com/monster/616cd6a3-08fd-4496-b8a8-fd4e9f92ed04'
p316
aS'http://job-openings.monster.com/monster/7cf2a0c2-7d17-4321-b814-d4360d9063d1'
p317
aS'http://job-openings.monster.com/monster/5bcff8d6-d0de-4ded-8133-88e3306b7e4a'
p318
aS'http://job-openings.monster.com/monster/5b1728d8-d38a-4ee9-a049-fdcd38bc3322'
p319
aS'http://job-openings.monster.com/monster/c3708ce3-b2ab-4575-b132-2e34d7efbc0a'
p320
aS'http://job-openings.monster.com/monster/64379db0-b6bf-44ad-a640-748bbec2a364'
p321
aS'http://job-openings.monster.com/monster/0cf416fb-2066-40cc-aed2-749e514f79c1'
p322
aS'http://job-openings.monster.com/monster/c1fbd4e1-0ab0-4123-b659-e287ec0ae899'
p323
aS'http://job-openings.monster.com/monster/a1e189fe-60dd-494f-8ded-12b1340150e3'
p324
aS'http://job-openings.monster.com/monster/46b461c9-79f3-462b-8489-42b3e77bbce3'
p325
aS'http://job-openings.monster.com/monster/6ea2a855-0179-42c8-b8aa-ceafe0a25763'
p326
aS'http://job-openings.monster.com/monster/268cc3b7-de8a-4ba0-8afe-dfd31bacff09'
p327
aS'http://job-openings.monster.com/monster/d34f5ace-282c-4688-a737-84b61e48e369'
p328
aS'http://job-openings.monster.com/monster/de233791-00e3-4013-b0b5-6c2bbe42c9b9'
p329
aS'http://job-openings.monster.com/monster/9c79c347-9109-492f-a7a0-147d1bb76e35'
p330
aS'http://job-openings.monster.com/monster/470b724c-bdb9-4b01-9677-bb37dcb7e3f1'
p331
aS'http://job-openings.monster.com/monster/8a58e64f-5b9a-4704-8227-1d14a694c3df'
p332
aS'http://job-openings.monster.com/monster/385d1ac9-f485-45e8-9f48-0ebd5140169b'
p333
aS'http://job-openings.monster.com/monster/d2439364-bfc2-4d78-9081-fe24d0bdff8e'
p334
aS'http://job-openings.monster.com/monster/8ffbc087-5b6c-4fff-b520-7e3358ea3e80'
p335
aS'http://job-openings.monster.com/monster/c688d8ed-564b-499b-b483-bb12534ef9b0'
p336
aS'http://job-openings.monster.com/monster/00c7f1c7-c77a-46d9-9612-238b35a4cb72'
p337
aS'http://job-openings.monster.com/monster/b5477dfa-5e4e-4d85-b6d3-e6a09ad56fc6'
p338
aS'http://job-openings.monster.com/monster/b7ec9d8c-0072-4120-85e6-32de8bbed6e3'
p339
aS'http://job-openings.monster.com/monster/5e22778c-4c0f-4c76-9170-5c30c8ffaee0'
p340
aS'http://job-openings.monster.com/monster/1e575594-ad2f-4cfe-a82c-2c4b220aae24'
p341
aS'http://job-openings.monster.com/monster/09779816-fc42-4ad5-9003-ac151096cea6'
p342
aS'http://job-openings.monster.com/monster/aa814bb2-6ad7-4418-b686-3410b9f40ded'
p343
a.