(lp1
S'http://job-openings.monster.com/monster/0559e563-edc5-481e-9360-fd2dd0c352ab'
p2
aS'http://job-openings.monster.com/monster/ce14beec-83ae-46b2-8b75-318f21fe3d67'
p3
aS'http://job-openings.monster.com/monster/ce503043-c0ca-4d9e-8cec-96d0304b30bf'
p4
aS'http://job-openings.monster.com/monster/3f95cc0e-542c-413b-9895-56ad7d9f5045'
p5
aS'http://job-openings.monster.com/monster/023b528c-f449-448a-9e19-9fcba2b27bd0'
p6
aS'http://job-openings.monster.com/monster/2daf85e6-bacd-43e9-9934-9860d413de95'
p7
aS'http://job-openings.monster.com/monster/24af0800-ecad-437d-8f2a-1eec67f09168'
p8
aS'http://job-openings.monster.com/monster/73ff3042-9b81-4b75-bf0a-be1820c2c779'
p9
aS'http://job-openings.monster.com/monster/2844a7c2-e075-4200-abbe-09322921f847'
p10
aS'http://job-openings.monster.com/monster/8857cfcb-0f9a-4dc1-aed5-eb0ca2c0b4c4'
p11
aS'http://job-openings.monster.com/monster/4df49757-660a-4517-9637-964c69b02c0b'
p12
aS'http://job-openings.monster.com/monster/bca619ae-27aa-444b-864a-c980dff583cf'
p13
aS'http://job-openings.monster.com/monster/302827ac-5a66-4d65-8650-20cd6e1454bf'
p14
aS'http://job-openings.monster.com/monster/0869cf88-08f4-4f95-b866-775977a8580f'
p15
aS'http://job-openings.monster.com/monster/f24eb9c6-de04-4ac6-a061-ce70b3466edc'
p16
aS'http://job-openings.monster.com/monster/da8c88ea-7ae5-4331-9727-f541180a4a39'
p17
aS'http://job-openings.monster.com/monster/657ccc00-336c-4a4a-b53b-bf0ee891dded'
p18
aS'http://job-openings.monster.com/monster/414175f3-2d12-4ff7-b578-5e15b2bb6a1c'
p19
aS'http://job-openings.monster.com/monster/a57c5db4-74b3-4c58-a3e9-e8000c6c925d'
p20
aS'http://job-openings.monster.com/monster/25d98346-8f6c-45a1-8759-051a149cd83b'
p21
aS'http://job-openings.monster.com/monster/0361a9c6-d7b8-420f-9cdc-a200b74f746d'
p22
aS'http://job-openings.monster.com/monster/80fe0e33-afcd-483d-8cf1-2ff53539fc7f'
p23
aS'http://jobview.monster.com/data-scientist-336-124-job-itasca-il-us-182759017.aspx'
p24
aS'http://job-openings.monster.com/monster/e0077fdf-3bdb-41be-bfee-91f22ebf0063'
p25
aS'http://jobview.monster.com/sr-data-scientist-job-moline-il-us-180874446.aspx'
p26
aS'http://job-openings.monster.com/monster/932ef05a-02c2-4004-a52c-9e0880b9d4a8'
p27
aS'http://job-openings.monster.com/monster/491754a9-3082-4ff7-b4c4-4c985d22a059'
p28
aS'http://job-openings.monster.com/monster/5387a301-dd74-4b06-973d-6b4320af9818'
p29
aS'http://job-openings.monster.com/monster/076c38d9-1fe0-42e6-b1fd-307b483f36e8'
p30
aS'http://job-openings.monster.com/monster/61e74759-67b5-47dd-ad4f-8b96e912edf3'
p31
aS'http://jobview.monster.com/senior-software-engineer-job-chicago-il-us-182079401.aspx'
p32
aS'http://job-openings.monster.com/monster/23954974-b6a2-4cd3-bef2-b7069a445706'
p33
aS'http://job-openings.monster.com/monster/9b28eb1f-3484-4a01-94f9-3a8e2636e2ca'
p34
aS'http://job-openings.monster.com/monster/e2d6f7f3-d4a6-4423-a27b-d9719d408edd'
p35
aS'http://job-openings.monster.com/monster/845b639a-a506-4d53-a341-4491ce038080'
p36
aS'http://job-openings.monster.com/monster/01c26994-e983-4080-8a0f-ad9a9542fe6c'
p37
aS'http://job-openings.monster.com/monster/a48d8b02-aeb5-4c76-baac-5c551d966104'
p38
aS'http://job-openings.monster.com/monster/1d95e8c0-94d2-4a1e-b6f9-d31b2010930c'
p39
aS'http://job-openings.monster.com/monster/59ac445f-720c-401c-8d30-5ff71dc33cec'
p40
aS'http://job-openings.monster.com/monster/1362e898-5851-4dcc-9e95-f5e976692e25'
p41
aS'http://job-openings.monster.com/monster/da20aab3-adae-417b-9908-a1b91049d6f3'
p42
aS'http://job-openings.monster.com/monster/f3c10655-41b8-426e-bae9-bb20c070341d'
p43
aS'http://job-openings.monster.com/monster/9bb64933-caa5-4832-863c-3001edf9198b'
p44
aS'http://job-openings.monster.com/monster/0ad78f37-9af1-4cd3-8b61-78cfed37ff3b'
p45
aS'http://job-openings.monster.com/monster/24167674-a7ca-4628-8b6f-28467cd7795e'
p46
aS'http://job-openings.monster.com/monster/036d510e-1550-4ad9-bddb-1ab0484a8897'
p47
aS'http://job-openings.monster.com/monster/56333828-2fd4-45f2-b811-6a4121261a6a'
p48
aS'http://job-openings.monster.com/monster/c789071e-3af6-42f6-a5ac-a2fa95906fee'
p49
aS'http://job-openings.monster.com/monster/bab448e0-6af4-4776-8347-97cbf2d37660'
p50
aS'http://job-openings.monster.com/monster/2cc747d1-9418-4092-88c2-dc27a0e1006f'
p51
aS'http://job-openings.monster.com/monster/80de3cf3-8250-499f-9f8c-1c8cdec45c32'
p52
aS'http://jobview.monster.com/data-science-marketing-analyst-job-chicago-il-us-175332149.aspx'
p53
aS'http://job-openings.monster.com/monster/3359ffc1-f0b7-4e7d-adb4-5cd79077bba4'
p54
aS'http://job-openings.monster.com/monster/a1b1c9cf-d34a-4cb6-9acf-54b3862ea809'
p55
aS'http://job-openings.monster.com/monster/17ef4c54-6635-4feb-8b96-848a749e4340'
p56
aS'http://job-openings.monster.com/monster/c76b7bcc-7e74-4bf2-a556-5aac677de67b'
p57
aS'http://job-openings.monster.com/monster/8c37584e-94e5-4862-95c2-5f86be628194'
p58
aS'http://job-openings.monster.com/monster/219fccb1-2266-4613-a94f-830ed5d2dc5a'
p59
aS'http://job-openings.monster.com/monster/5f8314dc-cb77-4fa4-9911-78d3e2e56fe5'
p60
aS'http://job-openings.monster.com/monster/056c1e90-7781-4fee-a4aa-802750ac5d51'
p61
aS'http://job-openings.monster.com/monster/dc1ee341-24d2-481f-a050-0c01fa191898'
p62
aS'http://job-openings.monster.com/monster/8ca2db04-8438-410d-98b3-87f788514e5d'
p63
aS'http://job-openings.monster.com/monster/a9457b73-7136-4749-9e7b-11a66e915aa3'
p64
aS'http://job-openings.monster.com/monster/74a85e66-a423-4a53-887c-089cdb74586a'
p65
aS'http://job-openings.monster.com/monster/5200478b-9fa9-426d-8fce-97badcb20f56'
p66
aS'http://job-openings.monster.com/monster/56ed4a6c-5241-4b11-9adc-43b6e42bfa47'
p67
aS'http://job-openings.monster.com/monster/6c8c43c8-a9f9-4a74-bf5c-bf385c77f2d1'
p68
aS'http://job-openings.monster.com/monster/8cc6168c-40e5-4457-8809-6c0a34ba8b31'
p69
aS'http://job-openings.monster.com/monster/a201ff91-8ee7-4b37-a962-3fa9f8cf6579'
p70
aS'http://job-openings.monster.com/monster/125a3bca-5735-4b69-accb-878e47b34c41'
p71
aS'http://job-openings.monster.com/monster/874b1d1d-baf6-454e-8185-57dfe66558b9'
p72
aS'http://job-openings.monster.com/monster/c230419d-1045-4871-b430-887c096bfb58'
p73
aS'http://job-openings.monster.com/monster/ee2a519c-bd6c-400f-ace2-a12516a6da05'
p74
aS'http://job-openings.monster.com/monster/c07e8505-c0e6-493d-bf29-5ee53a6a9822'
p75
aS'http://job-openings.monster.com/monster/2d7cac9a-b2a4-42e3-b519-55c634bf672d'
p76
aS'http://job-openings.monster.com/monster/b00aad9d-fb75-4679-9d2f-946fc8152661'
p77
aS'http://job-openings.monster.com/monster/746cad85-9f4f-4754-8c27-602c41762e63'
p78
aS'http://job-openings.monster.com/monster/4a916a3a-692c-42b2-91fe-ae82fb15efe9'
p79
aS'http://job-openings.monster.com/monster/c4eaea7c-993b-427c-a971-916f9034d5bd'
p80
aS'http://job-openings.monster.com/monster/f6d79401-333c-400d-9b24-dae250b938bc'
p81
aS'http://job-openings.monster.com/monster/9355cf73-1c68-42a6-91ee-247f4748ea5f'
p82
aS'http://job-openings.monster.com/monster/d9e2795c-1d86-445e-a8d7-943f7befdf84'
p83
aS'http://job-openings.monster.com/monster/bb5268a1-f7a2-4f2a-b3f5-870cc986197e'
p84
aS'http://job-openings.monster.com/monster/48c139a2-9857-498c-b248-539821537e2a'
p85
aS'http://job-openings.monster.com/monster/83e5de11-2e09-4b85-8419-1a95c968d6d6'
p86
aS'http://job-openings.monster.com/monster/c2543bdb-adc5-4b74-8452-62128bdf24d1'
p87
aS'http://job-openings.monster.com/monster/dda02fb0-728f-4c48-8ad2-b44c23ba9003'
p88
aS'http://job-openings.monster.com/monster/05ede58a-3e4f-4de9-908b-cf68b58796b7'
p89
aS'http://job-openings.monster.com/monster/ce957c53-94d2-48a0-ab1d-2a9aedec16bb'
p90
aS'http://job-openings.monster.com/monster/bfeedf8c-4edf-48aa-86e5-db669330683c'
p91
aS'http://jobview.monster.com/data-scientist-job-chicago-il-us-182515721.aspx'
p92
aS'http://job-openings.monster.com/monster/95800ab8-327c-4c53-a96b-f005411bbb9c'
p93
aS'http://jobview.monster.com/data-scientist-r-developer-job-chicago-il-us-182743228.aspx'
p94
aS'http://job-openings.monster.com/monster/ed6d1432-c7e5-41da-8b2d-71a33dc15a57'
p95
aS'http://job-openings.monster.com/monster/a3b46e60-7a35-4934-aed0-80e04b79fc87'
p96
aS'http://job-openings.monster.com/monster/519509f1-9228-4be8-a647-2343f6002a3c'
p97
aS'http://job-openings.monster.com/monster/8faa1e01-ceac-435a-b5cd-7ce2c24432e2'
p98
aS'http://job-openings.monster.com/monster/76cf46bc-e4bb-425c-b511-1d54890b8c57'
p99
aS'http://job-openings.monster.com/monster/aeb559e3-3130-4a8b-b29c-0b6c02284935'
p100
aS'http://job-openings.monster.com/monster/fd3857dc-f1d0-4c00-9aa3-2aab81341c79'
p101
aS'http://job-openings.monster.com/monster/0e78a0f0-f547-4771-949e-d22195adb307'
p102
aS'http://job-openings.monster.com/monster/feb4c420-db51-488f-b1b7-8b04d5dc59c2'
p103
aS'http://job-openings.monster.com/monster/1671fb14-9c33-4bc3-b0f2-827d85ac3af2'
p104
aS'http://job-openings.monster.com/monster/d2bf57be-d756-45e4-8ae3-d4b7be108f6c'
p105
aS'http://job-openings.monster.com/monster/4b1ae2c4-a99e-446a-862d-4ab54db741a7'
p106
aS'http://job-openings.monster.com/monster/d16d2d11-7f51-44c1-a45e-b8f15dea305f'
p107
aS'http://job-openings.monster.com/monster/0d4f8dce-23fa-4cae-b26e-f30d8c9609b9'
p108
aS'http://job-openings.monster.com/monster/7122a2a5-0533-41cd-b10e-8a55dc49c908'
p109
aS'http://job-openings.monster.com/monster/b9ab09ba-bb6a-4ef1-8e8a-02e1c76ef20c'
p110
aS'http://job-openings.monster.com/monster/c0a3fda5-c3ea-4cbf-9666-4dd5c21a78d2'
p111
aS'http://job-openings.monster.com/monster/8f6e732c-e7de-4ef1-8c11-19145495db9b'
p112
aS'http://job-openings.monster.com/monster/c6fc5c27-3042-4bd2-81ba-268dfe775cf2'
p113
aS'http://job-openings.monster.com/monster/bbee5309-b5a9-41b7-91ef-b41c154ebf2d'
p114
aS'http://job-openings.monster.com/monster/93b72761-1e85-4a88-bb55-945022599e53'
p115
aS'http://job-openings.monster.com/monster/f555723c-2dc2-4bcc-b264-db1ec4cf21e7'
p116
aS'http://job-openings.monster.com/monster/b3a1a6a2-a40b-4b1d-97d4-c54add0e657a'
p117
aS'http://job-openings.monster.com/monster/bf210861-8bf9-4f4d-b49f-a366103344f2'
p118
aS'http://job-openings.monster.com/monster/36110f82-2173-4f13-ba28-3368240bd4a9'
p119
aS'http://job-openings.monster.com/monster/27bd5d31-288e-4060-88a9-4d095fc0faad'
p120
aS'http://job-openings.monster.com/monster/b3856f92-931a-422f-bc39-451125359026'
p121
aS'http://job-openings.monster.com/monster/82070dbd-b595-4ba3-adba-e2c7c089621e'
p122
aS'http://job-openings.monster.com/monster/4f105137-f311-4f36-9d39-86477790bd3f'
p123
aS'http://job-openings.monster.com/monster/c12dc1a0-5763-4e2f-a4c2-b42d16130974'
p124
aS'http://job-openings.monster.com/monster/eb68aa4f-19db-4e40-8865-e5833dc99269'
p125
aS'http://job-openings.monster.com/monster/abd766c2-0c25-453f-940f-14d7b451e6cb'
p126
aS'http://job-openings.monster.com/monster/1c501225-a48d-4ffd-bf66-0ccd2a6bc44d'
p127
aS'http://job-openings.monster.com/monster/81860a1a-0b50-4ab8-b52f-7d6bebfee440'
p128
aS'http://job-openings.monster.com/monster/45f7cd2a-b286-43b2-a9f0-5fc825c9cc2e'
p129
aS'http://job-openings.monster.com/monster/ad9842ae-56ed-4e53-9e52-9ad3e08a1163'
p130
aS'http://jobview.monster.com/senior-manager-data-analytics-data-science-job-chicago-il-us-182224292.aspx'
p131
aS'http://job-openings.monster.com/monster/8a153b47-e4e6-4081-8f02-479311ded301'
p132
aS'http://job-openings.monster.com/monster/796464ca-760d-4a5d-a91c-b8313d2689a4'
p133
aS'http://job-openings.monster.com/monster/0c9d2913-bd51-4b20-9b4c-657d26dd6b6f'
p134
aS'http://job-openings.monster.com/monster/d7b94234-5fee-4538-8481-27113bdabef7'
p135
aS'http://job-openings.monster.com/monster/0a6dbc1f-d5fe-429e-8573-ac67d15d131c'
p136
aS'http://job-openings.monster.com/monster/de593c8a-f43b-4eec-b88b-5541266e311a'
p137
aS'http://job-openings.monster.com/monster/6e3a2805-1ad2-4d5e-92e8-84a3c1d0152a'
p138
aS'http://job-openings.monster.com/monster/710be03a-a111-4cab-a316-1f5522479bcf'
p139
aS'http://job-openings.monster.com/monster/779b623c-1edd-4002-84ff-011cd1879cd0'
p140
aS'http://job-openings.monster.com/monster/881b015f-48dc-4781-a0bd-c6cf0d12d181'
p141
aS'http://job-openings.monster.com/monster/6f1d6a0b-bbcd-49d3-8aef-dbce22437d8c'
p142
aS'http://job-openings.monster.com/monster/a8426bea-18be-4360-af3c-ea71af299451'
p143
aS'http://jobview.monster.com/group-account-supervisor-job-chicago-il-us-182285693.aspx'
p144
aS'http://job-openings.monster.com/monster/6ae33fb6-5a58-4e88-8630-c30bcd0cce4c'
p145
aS'http://job-openings.monster.com/monster/587a5251-268c-4b7a-a53e-ec0f2f154cdb'
p146
aS'http://job-openings.monster.com/monster/8bee6a66-234f-432c-8d6f-a468f1c257a1'
p147
aS'http://job-openings.monster.com/monster/a943c047-74e4-446d-ba61-3ba37de55ced'
p148
aS'http://job-openings.monster.com/monster/56fc1229-fba1-433b-91b5-172c780d6baf'
p149
aS'http://job-openings.monster.com/monster/10b8c483-5a0b-491e-9983-e3b5c418ed17'
p150
aS'http://job-openings.monster.com/monster/d9389bba-0c70-4f2b-9f87-ca77463e9e02'
p151
aS'http://job-openings.monster.com/monster/5fed8575-98a9-494c-8cc5-ac70e7f8ba92'
p152
aS'http://job-openings.monster.com/monster/695ee1ee-a676-4767-b81d-cf33bf6c4fdc'
p153
aS'http://job-openings.monster.com/monster/9e8c22eb-7d5f-4390-a70e-55d9b9ebd940'
p154
aS'http://job-openings.monster.com/monster/c6a83eec-c3fd-4eb3-8e45-c0498f53fc39'
p155
aS'http://job-openings.monster.com/monster/01a37927-1b8f-4578-9862-94083e30bb17'
p156
aS'http://job-openings.monster.com/monster/d04e17f5-fcfc-4312-9383-513e7a2fcced'
p157
aS'http://job-openings.monster.com/monster/6ff48556-0871-4683-9566-b318d87eecb1'
p158
aS'http://job-openings.monster.com/monster/4d1ff529-cafd-463b-a7e0-41379374834c'
p159
aS'http://job-openings.monster.com/monster/adf50042-a7b8-4221-8de5-67618a094aa6'
p160
aS'http://job-openings.monster.com/monster/881143f1-0f01-439a-ab1d-4ab4cdbc10f4'
p161
aS'http://job-openings.monster.com/monster/b7fc07ab-2a2d-4a62-bfc4-f928bfb902c1'
p162
aS'http://job-openings.monster.com/monster/7e9ea200-e279-4da2-aba3-580d1351213d'
p163
aS'http://job-openings.monster.com/monster/40fe0faa-98f7-44a8-bddf-7f8c5229e9d4'
p164
aS'http://job-openings.monster.com/monster/268df5c7-3046-4349-a8b5-4a2e2d29935d'
p165
aS'http://job-openings.monster.com/monster/b421a661-037d-40ba-8649-d93d4f8c588e'
p166
aS'http://job-openings.monster.com/monster/262d8c14-7f08-48f6-b1c8-1460563f165c'
p167
aS'http://job-openings.monster.com/monster/9995631a-fc47-49a2-b4a5-73a15779708b'
p168
aS'http://job-openings.monster.com/monster/84dba04c-2273-43cc-ae5b-ecd75df6a78d'
p169
aS'http://job-openings.monster.com/monster/c0913da3-a3d1-4cc6-8a38-00a5f2e582c3'
p170
aS'http://job-openings.monster.com/monster/14543047-2ae3-47b4-aae1-4f38b512349b'
p171
aS'http://job-openings.monster.com/monster/099ff20d-37ef-46d4-9c6d-8da12d1a22ce'
p172
aS'http://job-openings.monster.com/monster/dec6edf4-d41e-44d1-aed8-5810a28c023e'
p173
aS'http://job-openings.monster.com/monster/460a0e4d-0161-4d11-a975-4e0db5f12102'
p174
aS'http://jobview.monster.com/data-scientist-job-downers-grove-il-us-182743694.aspx'
p175
aS'http://job-openings.monster.com/monster/a1abd721-5e84-4c73-92da-7a8435d1a5d5'
p176
aS'http://job-openings.monster.com/monster/7c8b713c-673a-4a2f-b37b-3de8ed6e85b0'
p177
aS'http://job-openings.monster.com/monster/a027f518-62a1-4469-b897-b3d220e15cda'
p178
aS'http://job-openings.monster.com/monster/c644c85d-8143-4e85-8173-2ea0a1cb9a9f'
p179
aS'http://job-openings.monster.com/monster/45862927-e994-4e90-8818-6c97d566b0bf'
p180
aS'http://job-openings.monster.com/monster/5398cfdb-0866-4bd8-ba8d-3252fe44bda7'
p181
aS'http://job-openings.monster.com/monster/823dac7a-3124-42af-a8f6-68fc9a1af21e'
p182
aS'http://job-openings.monster.com/monster/414d2c52-9a7a-428c-b3e8-7d3217e846c1'
p183
aS'http://job-openings.monster.com/monster/901f0afa-02a9-4497-85e0-296df784aecb'
p184
aS'http://job-openings.monster.com/monster/cf8e4aa5-12ad-4d6e-b930-330d1be50081'
p185
aS'http://job-openings.monster.com/monster/bdf14495-b6c9-4c59-8116-6f7886905b56'
p186
aS'http://job-openings.monster.com/monster/e9c66be6-1555-4b56-8c1a-723057532956'
p187
aS'http://job-openings.monster.com/monster/4df8befa-aea3-46bc-b22c-56d1b95f4040'
p188
aS'http://job-openings.monster.com/monster/00ece127-7043-4c48-987d-b058bea8e449'
p189
aS'http://job-openings.monster.com/monster/41778956-d9ca-4932-821c-28e5be726f70'
p190
aS'http://job-openings.monster.com/monster/8320f1f9-b5df-44be-9aa1-3fd0765803b0'
p191
aS'http://job-openings.monster.com/monster/b08d0569-7be5-4c4c-ae12-82d3ccb88d81'
p192
aS'http://job-openings.monster.com/monster/aad69a81-1dd8-4a30-b635-bd01162935d6'
p193
aS'http://job-openings.monster.com/monster/00562eaf-1c08-4618-b8a5-cffa780aed9a'
p194
aS'http://job-openings.monster.com/monster/52be68fa-bd8f-4277-b2c3-ee33ee8f88e8'
p195
aS'http://job-openings.monster.com/monster/0d585d9b-7331-4fb8-bb7d-3b8a3ad24eae'
p196
aS'http://job-openings.monster.com/monster/455d7610-2dcb-4ef6-a92f-4f6a4b29bb00'
p197
aS'http://job-openings.monster.com/monster/14cca319-b4b7-431a-aee5-8ad5e9377346'
p198
aS'http://job-openings.monster.com/monster/bab8f120-c394-48cf-887a-ece26707b700'
p199
aS'http://job-openings.monster.com/monster/5ccbfd36-5703-4698-9340-fa6d2f4992ba'
p200
aS'http://job-openings.monster.com/monster/7fc837a8-f424-4044-9eac-96883c154710'
p201
aS'http://job-openings.monster.com/monster/6dff98c3-dcd2-4b74-a402-ed34ac4f0499'
p202
aS'http://job-openings.monster.com/monster/91810243-e40f-4c2d-a849-d703500da368'
p203
aS'http://job-openings.monster.com/monster/41e91493-19d0-478f-85b4-fd4508577f6f'
p204
aS'http://job-openings.monster.com/monster/c3f4d661-f93f-4b0a-96b6-90abf00632ba'
p205
aS'http://job-openings.monster.com/monster/09f86a38-0585-4ada-a248-76e26dfde1f5'
p206
aS'http://jobview.monster.com/senior-business-analyst-consultant-telecommute-job-schaumburg-il-us-182957576.aspx'
p207
aS'http://job-openings.monster.com/monster/07addd7c-e4b1-4cba-9d29-102346d010dd'
p208
aS'http://job-openings.monster.com/monster/c4b89077-350b-44c0-9353-7d604f528f14'
p209
aS'http://job-openings.monster.com/monster/830f9847-b945-446f-92b4-81d1d1fedc02'
p210
aS'http://job-openings.monster.com/monster/635b2b92-b6c4-444d-9d97-2a38081c437a'
p211
aS'http://job-openings.monster.com/monster/b9d56ce0-8d15-434f-9ab2-ffae48749907'
p212
aS'http://job-openings.monster.com/monster/cac4bd00-1d23-474d-9bee-d4f1d7df09a3'
p213
aS'http://job-openings.monster.com/monster/cc81e1b8-7432-41e5-b90a-4471733c874f'
p214
aS'http://job-openings.monster.com/monster/15ec14e7-6a8e-402e-bdb2-d4025901999d'
p215
aS'http://job-openings.monster.com/monster/9c809323-e954-4f54-a6b1-0b5f93db541d'
p216
aS'http://job-openings.monster.com/monster/cdd9d522-9d7c-4de0-a7ec-60b1d8b92833'
p217
aS'http://job-openings.monster.com/monster/d431ce02-788b-4cd3-986e-1c6288f1da9f'
p218
aS'http://job-openings.monster.com/monster/ef340e72-6b39-458d-8158-10bbac63f648'
p219
aS'http://job-openings.monster.com/monster/6b207bdb-848a-44dd-b86c-84afa0adac2b'
p220
aS'http://job-openings.monster.com/monster/d7fa5c87-fc0b-46b8-a3f3-df4804ca0f1f'
p221
aS'http://job-openings.monster.com/monster/2f23bffd-b1e2-4c76-9f88-65806a4c12d0'
p222
aS'http://job-openings.monster.com/monster/9097788b-a085-417f-9118-3b0b707835c9'
p223
aS'http://job-openings.monster.com/monster/9bb96a1c-6ef6-4f99-96f6-22e8be8399cd'
p224
aS'http://job-openings.monster.com/monster/a5027d7a-1d59-4d13-9173-9001e9ddc4b1'
p225
aS'http://job-openings.monster.com/monster/510d3b23-b014-468a-8318-6a9276a5d4bd'
p226
aS'http://job-openings.monster.com/monster/bdba10ff-9968-4c6c-807e-3804633952a4'
p227
aS'http://job-openings.monster.com/monster/d0066c5c-8cc8-427f-835d-5825f6978e54'
p228
aS'http://job-openings.monster.com/monster/1ead6f56-9247-4b4f-945c-93f53b859ee3'
p229
aS'http://job-openings.monster.com/monster/5efef7ad-991a-4127-a8c3-cce033424731'
p230
aS'http://job-openings.monster.com/monster/a1b62494-4b5a-4a7d-96ea-1fdfd8b1d545'
p231
aS'http://job-openings.monster.com/monster/9bfdfafe-8e6e-4a50-8202-e79f8848d629'
p232
aS'http://job-openings.monster.com/monster/0e4aa5a2-8935-43c5-9160-6686d44e99b2'
p233
aS'http://job-openings.monster.com/monster/112b8401-dceb-47be-a7cb-7b76c7fe0ac3'
p234
aS'http://job-openings.monster.com/monster/70a2b50a-1e50-44e5-850c-06ac6b43702d'
p235
aS'http://job-openings.monster.com/monster/0129e3b5-5c06-4923-bcc8-083ca33a64eb'
p236
aS'http://job-openings.monster.com/monster/743cefb1-682e-4d34-83c4-8c2b8e6e2c7b'
p237
aS'http://job-openings.monster.com/monster/d52bf440-be60-48ea-b372-be111d793f31'
p238
aS'http://job-openings.monster.com/monster/f877d477-9574-4f0e-ab0b-cec1aee6fa70'
p239
aS'http://job-openings.monster.com/monster/ed40c7ed-4946-44da-a8cb-b93ea9d200de'
p240
aS'http://job-openings.monster.com/monster/2fd1ab86-6da3-44ce-8eb8-81ccc09211b3'
p241
aS'http://job-openings.monster.com/monster/425dd1c9-4f68-4179-84f2-bf1bc86e5209'
p242
aS'http://job-openings.monster.com/monster/deda7ad8-3058-409b-9d3c-07fcb99aad04'
p243
aS'http://job-openings.monster.com/monster/6441bb05-58d9-4b75-9264-d2469f8d8587'
p244
aS'http://job-openings.monster.com/monster/a678585c-f1a2-429a-b2f6-12713c4e46d0'
p245
aS'http://jobview.monster.com/data-analyst-jr-mid-job-chicago-il-us-182488069.aspx'
p246
aS'http://job-openings.monster.com/monster/eb6fa8b0-cb54-480a-b324-bab977cd3da9'
p247
aS'http://job-openings.monster.com/monster/7c19de12-763c-4c47-b716-7e2313e51d5d'
p248
aS'http://job-openings.monster.com/monster/4d1f7b18-3237-4b7b-85db-e9b09d62e693'
p249
aS'http://job-openings.monster.com/monster/66f8189f-74c5-488b-83fb-e8c561dfcb4d'
p250
aS'http://job-openings.monster.com/monster/1b075b47-77c1-407c-bd36-a1a27280553c'
p251
aS'http://job-openings.monster.com/monster/4f53fd0e-5239-454a-8daf-d760e6f040f5'
p252
aS'http://job-openings.monster.com/monster/c82f9cb8-e152-4747-8b23-1c16166bf0ae'
p253
aS'http://job-openings.monster.com/monster/3cf62f5a-0042-4a70-b718-cd8f08e836af'
p254
aS'http://job-openings.monster.com/monster/14cda078-bce6-4efe-a818-18ac0668a436'
p255
aS'http://job-openings.monster.com/monster/c96b58c3-d6fa-4932-8bfe-eb82bfc8d414'
p256
aS'http://job-openings.monster.com/monster/8d38bd56-dbf6-420f-a3f9-606f998825ef'
p257
aS'http://job-openings.monster.com/monster/f6f7257e-ae91-456d-9aee-8693c7aa400c'
p258
aS'http://job-openings.monster.com/monster/93d41421-001e-4c75-9ac6-c0a237a37571'
p259
aS'http://job-openings.monster.com/monster/6ba60647-9614-4864-9828-08a84facf7fa'
p260
aS'http://job-openings.monster.com/monster/97ac86a7-f1b4-443a-b89a-9b4587033647'
p261
aS'http://job-openings.monster.com/monster/b173ef59-1546-4c25-a2c2-8d8c29a556c1'
p262
aS'http://job-openings.monster.com/monster/e3417e2d-cc18-472d-b32e-43b63251d67f'
p263
aS'http://job-openings.monster.com/monster/47f8fa90-50a6-476e-a2e7-c5eeeb51dccd'
p264
aS'http://job-openings.monster.com/monster/e5f0532c-4016-4f44-b9e2-3ec71ac41532'
p265
aS'http://job-openings.monster.com/monster/a9d1b383-4a44-4882-8b7c-2b41f5ad2945'
p266
aS'http://jobview.monster.com/sr-data-scientist-job-chicago-il-us-182260143.aspx'
p267
aS'http://job-openings.monster.com/monster/1c7b504d-7a8b-4be4-8cb7-b65eb2570954'
p268
aS'http://job-openings.monster.com/monster/17025fd3-44c0-469b-a054-ce0611b53931'
p269
aS'http://job-openings.monster.com/monster/5285d149-f556-4840-91cb-197dd5daea08'
p270
aS'http://job-openings.monster.com/monster/4bcf4881-7138-47de-af5e-f4afaa5adae7'
p271
aS'http://job-openings.monster.com/monster/da9ba31d-5307-413b-8fce-640e79a2edff'
p272
aS'http://job-openings.monster.com/monster/6aecc7fe-36ca-4b67-a069-acf4993c25ee'
p273
aS'http://job-openings.monster.com/monster/b6a833f7-c8cd-4eee-bf95-b96624aa8116'
p274
aS'http://job-openings.monster.com/monster/d6decb33-4ef9-4b0d-9d9c-49f7c4a4edeb'
p275
aS'http://job-openings.monster.com/monster/83062af3-4d2d-479d-a1a2-2e6101779e58'
p276
aS'http://job-openings.monster.com/monster/54f01c56-a21a-4e4f-aac2-a3e45d922ff4'
p277
aS'http://job-openings.monster.com/monster/4ec90652-bd06-43f7-8e28-71fdd1a93f97'
p278
aS'http://job-openings.monster.com/monster/f2446c94-4823-4e21-a4cc-a0e4eed75d9d'
p279
aS'http://job-openings.monster.com/monster/6bdcfb47-dfa1-4b7a-be56-23b69b756b26'
p280
aS'http://job-openings.monster.com/monster/ee3cd659-aed5-43c3-a24f-ac0a67740071'
p281
aS'http://job-openings.monster.com/monster/a6e0faf3-1875-40b3-b764-b40964b9f85f'
p282
aS'http://job-openings.monster.com/monster/a2419032-899c-4988-8749-0c1e4f223274'
p283
aS'http://job-openings.monster.com/monster/2b1ab1b0-a43f-482e-8827-86ee0e78f80b'
p284
aS'http://job-openings.monster.com/monster/69fad3dc-2d76-4392-b596-2936eebc0ce1'
p285
aS'http://job-openings.monster.com/monster/0365a48a-cbf4-4c1a-91d7-930356aed8da'
p286
aS'http://job-openings.monster.com/monster/e130eb39-a434-4640-89fe-fcc733ddafac'
p287
aS'http://job-openings.monster.com/monster/c08e8d9b-4c70-4d90-82b0-9987b150ee49'
p288
aS'http://job-openings.monster.com/monster/b2ea92ff-8671-44d8-a9d7-69bea486f751'
p289
aS'http://job-openings.monster.com/monster/2bb76fb5-4fdb-4063-a484-ebc5411c0562'
p290
aS'http://job-openings.monster.com/monster/4937952b-3cef-4b3c-a146-6ce6b4f0da90'
p291
aS'http://job-openings.monster.com/monster/dffa0651-340f-4586-84ae-1282ad0600de'
p292
aS'http://jobview.monster.com/mgr-regional-sales-job-chicago-il-us-182733521.aspx'
p293
aS'http://job-openings.monster.com/monster/a8420195-a566-4a68-9bda-7068917c963f'
p294
aS'http://job-openings.monster.com/monster/157d7bbb-bb95-4956-93b8-11a9a01fc8c1'
p295
aS'http://job-openings.monster.com/monster/bc774cc1-c673-4e9d-b1f7-cb0937bfe2e5'
p296
aS'http://job-openings.monster.com/monster/09e1a3db-819a-4387-bb19-b4562af17035'
p297
aS'http://job-openings.monster.com/monster/ddec7767-b83a-416c-8002-437d1ad07692'
p298
aS'http://job-openings.monster.com/monster/f429f3d0-aa9e-4cbd-8b8d-05f6104ef78c'
p299
aS'http://job-openings.monster.com/monster/13d63b81-95d7-4c3b-b39d-f16a9a3479d9'
p300
aS'http://job-openings.monster.com/monster/64213981-9f9d-4b6c-bb60-96b2947b8b7d'
p301
aS'http://job-openings.monster.com/monster/63ec11be-75ee-4da2-9b1e-0f38c0576665'
p302
aS'http://jobview.monster.com/data-scientist-modeling-job-chicago-il-us-182555598.aspx'
p303
aS'http://job-openings.monster.com/monster/a7a43639-4926-4a15-b57b-a12a58cd531b'
p304
aS'http://job-openings.monster.com/monster/5ef2af45-ebb6-4c24-9ab5-18ccc9475c2e'
p305
aS'http://job-openings.monster.com/monster/331aede6-3598-45b1-8915-0806ee5ea80b'
p306
aS'http://job-openings.monster.com/monster/47078d4f-d86a-44e9-bb5b-69c03ed81ad1'
p307
aS'http://job-openings.monster.com/monster/0037b076-f4d0-4dbb-8050-45b62bb93c4d'
p308
aS'http://job-openings.monster.com/monster/8a90eb9b-a6d2-45c0-974d-2c27f57f1c2c'
p309
aS'http://job-openings.monster.com/monster/3acaccf4-2aeb-40b8-a1b8-174df401601e'
p310
aS'http://job-openings.monster.com/monster/8e9b035c-a1ee-4cfe-9569-711aecfdd6f2'
p311
aS'http://job-openings.monster.com/monster/65176734-424a-4539-bf02-433305d946b3'
p312
aS'http://job-openings.monster.com/monster/c593793d-c0a5-446d-b33d-5b3c75232f17'
p313
aS'http://job-openings.monster.com/monster/9b0266b8-5179-4e36-a323-def1316b23a4'
p314
aS'http://job-openings.monster.com/monster/462ec2b1-53ad-4a98-b0d8-4ae5aa9e8ce8'
p315
aS'http://job-openings.monster.com/monster/d28fc751-5f0e-46a6-9240-39cb28e72517'
p316
aS'http://job-openings.monster.com/monster/941169f3-296c-473b-aad3-41e5f153a937'
p317
aS'http://job-openings.monster.com/monster/8fd8c9bd-90b6-454f-8920-468ec7ea3240'
p318
aS'http://job-openings.monster.com/monster/efcff877-f623-4cdd-8c57-bdaf66423d3c'
p319
aS'http://job-openings.monster.com/monster/109b7dcf-bdd4-44fb-9b0b-fdeb2f866727'
p320
aS'http://job-openings.monster.com/monster/02f44162-dbce-49e8-a77f-6f30d1fef70f'
p321
aS'http://job-openings.monster.com/monster/1574128a-5af7-4029-83a2-a2875b918a1d'
p322
aS'http://job-openings.monster.com/monster/2072fa87-6672-43ca-814e-107926e0f947'
p323
aS'http://job-openings.monster.com/monster/031af6ad-5a23-45da-a30e-7af361a70757'
p324
aS'http://job-openings.monster.com/monster/4ca5e8c8-484c-4038-b859-7e21a6dc86f3'
p325
aS'http://job-openings.monster.com/monster/be304bbe-2c3e-4cc2-acb4-0633d9d1c7c0'
p326
aS'http://job-openings.monster.com/monster/e1d1fd8a-aede-4c62-8304-c243f2b5f4b8'
p327
aS'http://job-openings.monster.com/monster/d9a6e18f-5255-4671-ba46-bf3096a1988b'
p328
aS'http://job-openings.monster.com/monster/264f0193-2c27-4e9a-8f71-d3bd19e37fd7'
p329
aS'http://job-openings.monster.com/monster/8e36ef31-d47e-4a64-93f1-b5d0ef16348c'
p330
aS'http://job-openings.monster.com/monster/fe2d0b7d-06ec-41c4-9ec2-50ee63d6c75e'
p331
aS'http://job-openings.monster.com/monster/3365a4ab-9e33-48bd-a2a2-a985a907fc04'
p332
aS'http://job-openings.monster.com/monster/7c5663b5-1326-48b1-ac89-165abd187324'
p333
aS'http://job-openings.monster.com/monster/26a1a8ce-3022-451d-9c00-2246c0de84cf'
p334
aS'http://job-openings.monster.com/monster/7804bb1b-f0f1-4df7-9355-e8fa358da832'
p335
aS'http://job-openings.monster.com/monster/8e274883-acf1-45c1-afda-a880ecc1d1b1'
p336
aS'http://job-openings.monster.com/monster/892b1d6f-f8c4-45d0-bd80-55d9bcf0cc6f'
p337
aS'http://job-openings.monster.com/monster/2d425d02-11dc-4531-baa3-516f30a71c9f'
p338
aS'http://job-openings.monster.com/monster/d3433cdb-9eda-4104-8746-b2064ac3dd25'
p339
aS'http://job-openings.monster.com/monster/13331414-1c45-4ed4-8217-b8d6f991d45e'
p340
aS'http://job-openings.monster.com/monster/d05f452e-f741-4d35-aaa4-07494207396e'
p341
aS'http://job-openings.monster.com/monster/71c6712d-e68d-48c0-ad6c-c5c475395973'
p342
aS'http://job-openings.monster.com/monster/cc9cae99-84f7-425f-af29-5ea3bdc01aec'
p343
aS'http://job-openings.monster.com/monster/cca2aa45-423e-4701-8db1-f361a278b7fb'
p344
aS'http://job-openings.monster.com/monster/cd8944ac-7b68-4ed0-ba75-e55e7e3531a7'
p345
aS'http://job-openings.monster.com/monster/724e0fc2-638e-4f39-a8ce-166f945338e5'
p346
aS'http://job-openings.monster.com/monster/21332717-702e-4b3f-b8d1-c907941b9b0d'
p347
aS'http://job-openings.monster.com/monster/3343d12b-3d96-445c-aa32-08876520c182'
p348
aS'http://job-openings.monster.com/monster/9d3b63e2-3f09-486c-a9d5-13638c310592'
p349
aS'http://job-openings.monster.com/monster/2f5a8d20-a276-4bb2-8933-9a114af297c3'
p350
aS'http://job-openings.monster.com/monster/e4196ef8-d2a0-420e-aa29-a3065970c286'
p351
aS'http://job-openings.monster.com/monster/61cee5b8-83a7-485b-9b64-4d0bfcbe48f3'
p352
aS'http://job-openings.monster.com/monster/ff78c3f5-1c06-4dd2-b2c5-192d55d080a8'
p353
aS'http://job-openings.monster.com/monster/edd3b571-3cbf-4e64-a0fb-9d17c17f984f'
p354
aS'http://job-openings.monster.com/monster/20a43a3a-0075-4e5d-ad27-dd88102a7b6f'
p355
aS'http://job-openings.monster.com/monster/64e275b3-c031-404f-8b6d-8acee4d5e35d'
p356
aS'http://job-openings.monster.com/monster/41225803-dbcb-4458-a230-863ec68e7442'
p357
aS'http://job-openings.monster.com/monster/13d46bbb-cb16-4923-ac90-cda4d24731ad'
p358
aS'http://job-openings.monster.com/monster/704cd0de-75be-4204-a5e9-2e7e252eeb82'
p359
aS'http://job-openings.monster.com/monster/172da657-af6a-44e4-88d2-fca4dd382498'
p360
aS'http://job-openings.monster.com/monster/bc32a8f5-6212-44ee-a8d5-107ddc5febac'
p361
aS'http://job-openings.monster.com/monster/3c8d3290-6d8c-4f96-873d-6df31e5c124e'
p362
aS'http://job-openings.monster.com/monster/607ef7cb-c514-4ec9-91f8-7eddb3048a9a'
p363
aS'http://job-openings.monster.com/monster/dce978cf-5572-45c0-a769-8dcfe5910bf3'
p364
aS'http://job-openings.monster.com/monster/48c9b6cf-67cd-45bd-ae2e-83268bc7ea81'
p365
aS'http://job-openings.monster.com/monster/695e1f35-bc86-49a6-82ff-e0fd8165dea2'
p366
aS'http://job-openings.monster.com/monster/9f509ce0-67ea-461e-bc9a-6fcf1877b974'
p367
aS'http://job-openings.monster.com/monster/032db44d-a8e4-4756-8a51-1b484d5dfa77'
p368
aS'http://jobview.monster.com/data-engineer-job-champaign-il-us-181517731.aspx'
p369
aS'http://job-openings.monster.com/monster/dd46c731-95b3-48bd-97f3-997bb2a421f0'
p370
aS'http://job-openings.monster.com/monster/66671857-cf91-4f5d-9193-b1c544843de6'
p371
aS'http://job-openings.monster.com/monster/0147a73b-d716-47f4-8a6e-c588110523eb'
p372
aS'http://jobview.monster.com/python-data-engineer-analyst-job-chicago-il-us-182482368.aspx'
p373
aS'http://job-openings.monster.com/monster/7500e178-4b62-468d-bb5a-2686001c4472'
p374
aS'http://job-openings.monster.com/monster/0eed357d-20c4-46fc-8ea1-618625910029'
p375
aS'http://jobview.monster.com/deep-learning-consultant-job-chicago-il-us-182000255.aspx'
p376
aS'http://job-openings.monster.com/monster/5c5bba9b-1ec7-4f71-aa02-b5d3187069ff'
p377
aS'http://job-openings.monster.com/monster/170cc2c4-ffd4-4071-9657-14a6cfae09d5'
p378
aS'http://job-openings.monster.com/monster/4d8ce61b-bcf8-4e5f-b9f3-40930ad00bbc'
p379
aS'http://job-openings.monster.com/monster/a1974d8d-1b2e-4b75-8444-06e449538254'
p380
aS'http://job-openings.monster.com/monster/0d0dfbc8-afa6-4b56-85cb-e97004410e54'
p381
aS'http://job-openings.monster.com/monster/12f3aa9c-51e9-4f32-a2d8-8449bb292fc5'
p382
aS'http://job-openings.monster.com/monster/92915728-61f8-4b62-b7ae-4e81e6d28e70'
p383
aS'http://job-openings.monster.com/monster/b1b07316-251f-478e-b1da-25ba79e4754f'
p384
aS'http://job-openings.monster.com/monster/8cb782bf-b818-43bc-97fa-07be959d7f3c'
p385
aS'http://job-openings.monster.com/monster/e35a2d83-918b-4de9-9dbc-312789f877cd'
p386
aS'http://job-openings.monster.com/monster/0485f49e-5d22-40f0-b334-6495e3db328b'
p387
aS'http://job-openings.monster.com/monster/f5ea772d-1a37-4002-9ba1-cece606ff611'
p388
aS'http://job-openings.monster.com/monster/00277877-1e23-4415-9564-5ca2488db333'
p389
aS'http://job-openings.monster.com/monster/0dc18b4d-61e3-49ff-b667-c0f20ddad287'
p390
aS'http://job-openings.monster.com/monster/fdbd4286-df52-449c-87cd-74f0fdfd0b44'
p391
aS'http://job-openings.monster.com/monster/6e20db26-97f3-4d06-9e26-ed08c82a4075'
p392
aS'http://job-openings.monster.com/monster/2768c4b6-3f25-4a37-b66a-a580b48aa4ba'
p393
aS'http://job-openings.monster.com/monster/1e8c3895-efc6-41f1-8b1c-65b5477321a7'
p394
aS'http://job-openings.monster.com/monster/c932755c-9461-4ccb-941a-c2d4d5aa6676'
p395
aS'http://jobview.monster.com/python-software-developer-job-chicago-il-us-182992309.aspx'
p396
aS'http://job-openings.monster.com/monster/e692b647-480a-44c1-8f37-fb9a2b05f136'
p397
aS'http://job-openings.monster.com/monster/9dec8e8a-35bd-4b15-8364-d4521915ee61'
p398
aS'http://jobview.monster.com/senior-software-engineer-job-chicago-il-us-182744096.aspx'
p399
aS'http://job-openings.monster.com/monster/e684b893-f1ae-4d0a-ab0d-9eb16e88700b'
p400
aS'http://job-openings.monster.com/monster/98e9a3bb-6354-4eca-90e1-d76d51d649cd'
p401
aS'http://job-openings.monster.com/monster/0585d9b9-9a32-43e0-9f60-4a57c3f78c88'
p402
aS'http://job-openings.monster.com/monster/bc0f1691-40bf-4b10-a87a-734c67636c2d'
p403
aS'http://job-openings.monster.com/monster/512c134e-67f6-497a-ad50-ec4f399453da'
p404
aS'http://job-openings.monster.com/monster/d2199668-de21-43ab-bdf7-df1e8f5b6112'
p405
aS'http://job-openings.monster.com/monster/e3958e47-9752-4220-9da2-0d0328fdaf45'
p406
aS'http://job-openings.monster.com/monster/fd5f4edc-a547-4b87-8e4d-419d3688e3de'
p407
aS'http://job-openings.monster.com/monster/9c297460-e0e8-49fd-9983-1a75cbcbc147'
p408
aS'http://job-openings.monster.com/monster/b9cadbad-eb41-498f-9cbf-ddae36f0b705'
p409
aS'http://job-openings.monster.com/monster/07b69ef8-f71d-418c-96fe-41729d82b4e0'
p410
aS'http://job-openings.monster.com/monster/640d4298-b730-4c1e-a0bf-86fb8255620a'
p411
aS'http://job-openings.monster.com/monster/d893437b-2839-4f2f-91fe-ac0345436eea'
p412
aS'http://job-openings.monster.com/monster/bdf8c3f1-943e-4b8b-ad91-17293bf145b3'
p413
aS'http://job-openings.monster.com/monster/f92f7294-43b8-4dbd-b27b-dcebbe64e5c4'
p414
aS'http://job-openings.monster.com/monster/6f0d962b-4f2a-4b85-a273-a7f8b0f1f821'
p415
aS'http://job-openings.monster.com/monster/f55bdc0d-c55d-4e31-87fa-a01450a1ce43'
p416
aS'http://job-openings.monster.com/monster/aad362d6-0b70-4c5a-a88a-128d50a90afc'
p417
aS'http://job-openings.monster.com/monster/4d1d6c20-e6c6-4318-a5f5-6470ef4efb9c'
p418
aS'http://job-openings.monster.com/monster/1750039f-e64f-4309-adc6-97303c8bae7c'
p419
aS'http://job-openings.monster.com/monster/318b29fc-7a4b-4426-894d-64c8105e765c'
p420
aS'http://job-openings.monster.com/monster/ea05fb6d-0e86-434f-b278-2420c9d68f93'
p421
aS'http://job-openings.monster.com/monster/fda1932f-a477-43a1-94e3-f4bbe23ae907'
p422
aS'http://job-openings.monster.com/monster/e745c7ff-3dee-40a3-ae62-ec419a4b9853'
p423
aS'http://job-openings.monster.com/monster/143bd985-a980-4610-b85f-c5ec6cd05d9d'
p424
aS'http://job-openings.monster.com/monster/0a591d22-8b02-4b78-8d72-19427af93125'
p425
aS'http://job-openings.monster.com/monster/be56276f-c3dc-4003-a437-33a5d6b59aa9'
p426
aS'http://job-openings.monster.com/monster/43973f64-c4fc-418c-9be1-ca80fb2d0545'
p427
aS'http://job-openings.monster.com/monster/c879261e-9d7c-48e6-a44b-4da3e7820b48'
p428
aS'http://job-openings.monster.com/monster/455e62b5-8c3f-44b3-aa63-cc1f7fc07533'
p429
aS'http://job-openings.monster.com/monster/9f8e699a-385f-4fa8-b251-50839b814809'
p430
aS'http://job-openings.monster.com/monster/b5b7675a-fc0a-487e-bd4d-f7703c05a969'
p431
aS'http://job-openings.monster.com/monster/7713d703-51ab-4253-9409-82ca52c4459d'
p432
aS'http://job-openings.monster.com/monster/b0953454-c7e5-4beb-bbd6-eef0afd0061b'
p433
aS'http://job-openings.monster.com/monster/336dae48-c920-4b38-8e80-be551d5d0ef5'
p434
aS'http://job-openings.monster.com/monster/6c091bc6-794a-4915-ad73-c0312014c849'
p435
aS'http://job-openings.monster.com/monster/6cc66c1f-0f08-4f3d-bbd7-8e36e04ef4d0'
p436
aS'http://job-openings.monster.com/monster/2d69e704-1d7b-4c7b-b3a1-e5720498733b'
p437
aS'http://job-openings.monster.com/monster/a7e90d80-4b4c-46cd-b0a2-f343e801e946'
p438
aS'http://job-openings.monster.com/monster/ede4f451-421c-4351-80a2-c1a38e2147b2'
p439
aS'http://job-openings.monster.com/monster/8540bde6-79cd-462c-8e33-8368dd950ec2'
p440
aS'http://job-openings.monster.com/monster/60817709-9eaa-4171-858c-d6d743e2f108'
p441
aS'http://job-openings.monster.com/monster/6e15f88d-e083-4f6c-86ff-aaa01274cd9c'
p442
aS'http://job-openings.monster.com/monster/788ff5a3-1006-423a-b5eb-92d756f34da3'
p443
aS'http://job-openings.monster.com/monster/083facd9-9e19-4f51-8b10-e149a2385d7b'
p444
aS'http://job-openings.monster.com/monster/d8a65107-8510-45b6-bdd2-71a3ef07fbad'
p445
aS'http://job-openings.monster.com/monster/3cecf6bd-0987-486f-bf17-64da838a44f0'
p446
aS'http://job-openings.monster.com/monster/7548ee7a-e89c-4b92-8ad3-0e2283d391fd'
p447
aS'http://job-openings.monster.com/monster/ff0ff048-718f-43e1-b83a-dc184a144766'
p448
aS'http://job-openings.monster.com/monster/653e5b37-3adc-405a-8168-03136f561fb9'
p449
aS'http://job-openings.monster.com/monster/b24c4425-4f14-4472-aaa0-da7d68200ac3'
p450
aS'http://job-openings.monster.com/monster/44eb3940-e5fb-4170-8a7a-43d818fec264'
p451
aS'http://job-openings.monster.com/monster/20e358c7-92a8-4f84-8eec-75c752bbba0d'
p452
aS'http://job-openings.monster.com/monster/86b99089-0578-4518-ad27-7bdd3e97ca7c'
p453
aS'http://job-openings.monster.com/monster/041086bb-c94a-4ebc-a61c-359d5dd1b266'
p454
aS'http://job-openings.monster.com/monster/b173ca54-fbdb-43a7-b99a-31c64d8a708b'
p455
aS'http://job-openings.monster.com/monster/f16c777c-bf1f-4582-999b-b93119c4ac7a'
p456
aS'http://job-openings.monster.com/monster/0b4a2927-9751-4008-8ae1-e5ae5bcbecff'
p457
aS'http://job-openings.monster.com/monster/e1b5fb93-324d-4861-ad0d-721bdb850fae'
p458
a.