(lp1
S'http://job-openings.monster.com/monster/c4ba90bc-e0c6-49c7-ba7b-6ea61fbd0aa0'
p2
aS'http://job-openings.monster.com/monster/8e90f3da-18e3-416d-82d7-09b346581d7e'
p3
aS'http://job-openings.monster.com/monster/5d1cf586-e889-45ac-8eb5-96704443458f'
p4
aS'http://job-openings.monster.com/monster/355b93f3-7a7a-4fae-a727-cb286e3bd44e'
p5
aS'http://job-openings.monster.com/monster/d560c797-dbea-4ed5-af2d-86f342c1108d'
p6
aS'http://job-openings.monster.com/monster/23002d8a-466a-4e4c-9566-917f045ab99a'
p7
aS'http://job-openings.monster.com/monster/40377a9d-96ff-409b-9667-4c95c81dcf3f'
p8
aS'http://job-openings.monster.com/monster/630639ed-a059-4848-9ffb-8098a5d3159b'
p9
aS'http://job-openings.monster.com/monster/6ec9d372-45db-41e5-bf98-ee3ba028946c'
p10
aS'http://job-openings.monster.com/monster/f1cfe68e-e258-4776-9a2f-9c0db29ac37f'
p11
aS'http://job-openings.monster.com/monster/5a02a2b8-0328-4cdb-9e7a-474887020dfb'
p12
aS'http://job-openings.monster.com/monster/fab9d494-57a6-48eb-96f5-ace54ffefe81'
p13
aS'http://job-openings.monster.com/monster/84cbc5ef-371f-42b1-bed9-8b863b882632'
p14
aS'http://job-openings.monster.com/monster/355f6aee-6dcf-4316-a178-47dd8b74f6ab'
p15
aS'http://job-openings.monster.com/monster/318a5cd0-caab-4fc4-8840-3539c8d474b0'
p16
aS'http://job-openings.monster.com/monster/756d2f9d-ed0c-4890-b7a3-11f8e0ad5f92'
p17
aS'http://job-openings.monster.com/monster/7a9d01a6-e37d-473f-9ff3-cfd540a47c6f'
p18
aS'http://job-openings.monster.com/monster/892402c8-128d-4ce3-9670-bfbdd94f9a7e'
p19
aS'http://job-openings.monster.com/monster/657ae32c-ad68-4238-9f92-ce98e88cd650'
p20
aS'http://job-openings.monster.com/monster/4c648cbb-5376-49a0-8cd0-d65a5c7a8205'
p21
aS'http://job-openings.monster.com/monster/2ff0094a-137c-4f7e-9620-4e58f04ad2b1'
p22
aS'http://job-openings.monster.com/monster/b01ad104-6121-4bff-97ad-c4c005c82453'
p23
aS'http://job-openings.monster.com/monster/3487b721-9855-42cc-8b7c-cf4db44941ad'
p24
aS'http://job-openings.monster.com/monster/ed059e34-e326-4bd8-9905-81dc2dc655cf'
p25
aS'http://job-openings.monster.com/monster/3f1e4bca-e056-44ea-94a5-c141993a41ec'
p26
aS'http://job-openings.monster.com/monster/1ef01aeb-12cb-460e-aa11-d515cbb25ce7'
p27
aS'http://jobview.monster.com/data-scientist-principal-engineer-relo-to-md-job-lexington-park-md-us-183102328.aspx'
p28
aS'http://job-openings.monster.com/monster/cb193ac0-a711-42a7-a2b7-76ca1c1511ca'
p29
aS'http://job-openings.monster.com/monster/a7c30a33-ecff-4eb2-b405-47fdf4371dc7'
p30
aS'http://job-openings.monster.com/monster/8d47364a-f830-4427-80b6-8e0684547666'
p31
aS'http://job-openings.monster.com/monster/114e2122-cc6e-40f8-8a99-b7573ad7b71e'
p32
aS'http://jobview.monster.com/web-developer-php-job-baltimore-md-us-182653378.aspx'
p33
aS'http://job-openings.monster.com/monster/69f369d2-f658-49a1-9499-c00235b988f3'
p34
aS'http://job-openings.monster.com/monster/6b487c1c-59f1-4bd3-8f2a-1cba654f283b'
p35
aS'http://jobview.monster.com/data-analyst-etl-sql-nosql-job-bethesda-md-us-183053952.aspx'
p36
aS'http://job-openings.monster.com/monster/ccf50119-622a-4b17-bc98-456fc3665a2a'
p37
aS'http://job-openings.monster.com/monster/3bc9f7a5-0dc3-4551-8d6e-e36f1c4a02e0'
p38
aS'http://job-openings.monster.com/monster/8b43adae-ae60-4301-9c4a-da8c8426d7f9'
p39
aS'http://job-openings.monster.com/monster/c5c76133-1457-4378-bd78-c0cc2a715c6d'
p40
aS'http://job-openings.monster.com/monster/58412ce3-da49-42c7-aecf-f40e99877533'
p41
aS'http://job-openings.monster.com/monster/f83269eb-053f-4368-b92e-117ee169e7d7'
p42
aS'http://job-openings.monster.com/monster/0a980393-a2ec-466a-bab1-30d60cec41ea'
p43
aS'http://job-openings.monster.com/monster/e9f32b17-b990-460d-84b8-a95dea1942c7'
p44
aS'http://job-openings.monster.com/monster/44d509be-fae0-4e56-b2ea-4a02fa4b13ba'
p45
aS'http://job-openings.monster.com/monster/059c5aaa-1c98-49c5-8e2e-305c0444cffa'
p46
aS'http://job-openings.monster.com/monster/f8268bf3-c07d-47f3-8d88-ac9b1a18490a'
p47
aS'http://job-openings.monster.com/monster/3d080848-974d-4e49-a233-cd83cfdfe87e'
p48
aS'http://jobview.monster.com/threat-analyst-job-fort-meade-md-us-182550087.aspx'
p49
aS'http://job-openings.monster.com/monster/24f2374d-d6eb-46fd-a004-3d264952882c'
p50
aS'http://job-openings.monster.com/monster/c41ec6bb-d9e1-4de9-876a-41c95e506fe1'
p51
aS'http://job-openings.monster.com/monster/00d25a10-a2ed-4360-8c3d-e29f28d23bee'
p52
aS'http://job-openings.monster.com/monster/9cbd330f-5543-46d2-a850-e1c15a99b266'
p53
aS'http://job-openings.monster.com/monster/868092b0-fdd9-4dec-a7ef-ce1916f92947'
p54
aS'http://jobview.monster.com/data-scientist-principal-engineer-relo-to-md-job-lexington-park-md-us-182723914.aspx'
p55
aS'http://job-openings.monster.com/monster/2851b80b-5308-4345-a929-21d98055c520'
p56
aS'http://job-openings.monster.com/monster/81bc6765-2002-4b9d-82e0-1bb4d208ab28'
p57
aS'http://job-openings.monster.com/monster/e6a398e8-e6ac-412e-a231-ba27ebeb35f6'
p58
aS'http://jobview.monster.com/intelligence-analyst-development-program-iadp-entry-level-job-fort-meade-md-us-182550113.aspx'
p59
aS'http://jobview.monster.com/data-engineer-big-data-cloud-technologies-job-takoma-park-md-us-182839861.aspx'
p60
aS'http://job-openings.monster.com/monster/15f7c7ba-afae-471a-926b-00dfdcf41dcd'
p61
aS'http://job-openings.monster.com/monster/759f2e87-4ed9-4db5-9047-aa354750a709'
p62
aS'http://job-openings.monster.com/monster/46f93b89-8f04-484c-9151-57d09fc78afb'
p63
aS'http://job-openings.monster.com/monster/b5953082-8215-4903-a9f1-26a85c015cb9'
p64
aS'http://job-openings.monster.com/monster/ef01528d-9a28-4655-8160-f6473b80b7c3'
p65
aS'http://job-openings.monster.com/monster/b5351987-3ca4-4ab5-8497-4482107593bf'
p66
aS'http://job-openings.monster.com/monster/69f63981-4278-461f-b9da-1786706890f1'
p67
aS'http://job-openings.monster.com/monster/55ed8fc1-6258-4d22-aeff-fbbda6ea2bb1'
p68
aS'http://job-openings.monster.com/monster/9223b339-2c76-4ddb-8d0b-a944fc440853'
p69
aS'http://job-openings.monster.com/monster/39307e72-23db-4646-b891-3d9ab4d1929e'
p70
aS'http://job-openings.monster.com/monster/1898e30f-4929-4559-872b-895ce52ce078'
p71
aS'http://job-openings.monster.com/monster/88700d23-f007-4ad6-8ffb-093e1c853c2a'
p72
aS'http://job-openings.monster.com/monster/c7d58a5f-cdb4-4d7d-ba09-dfe1810be1bd'
p73
aS'http://job-openings.monster.com/monster/b52ca318-a9ef-40b7-804d-f8c36c3e1c71'
p74
aS'http://job-openings.monster.com/monster/c7ab2c3c-025d-4e97-b882-bef7cb3243b4'
p75
aS'http://job-openings.monster.com/monster/8d472feb-37ee-46f2-8f19-8b113f809519'
p76
aS'http://job-openings.monster.com/monster/e4b3c62d-7512-40ac-ac87-41df5018ef06'
p77
aS'http://job-openings.monster.com/monster/62384925-0a27-43df-970e-c42f448d3147'
p78
aS'http://job-openings.monster.com/monster/8c6edd0a-4b86-4813-a24e-bca9da4a1316'
p79
aS'http://job-openings.monster.com/monster/0adaeff8-08f7-4d70-a9f6-305e394d0338'
p80
aS'http://job-openings.monster.com/monster/44c23450-03c1-493a-8aa7-c99fa36da5f0'
p81
aS'http://job-openings.monster.com/monster/dd657f4a-22b2-4dc1-969a-8b83c46be6a8'
p82
aS'http://job-openings.monster.com/monster/97d8f11f-7770-4418-9eab-479845c91887'
p83
aS'http://job-openings.monster.com/monster/701ada38-ed2a-44e9-8145-bad01d68d008'
p84
aS'http://job-openings.monster.com/monster/41dad11e-b82b-4f57-840e-9075d172f721'
p85
aS'http://job-openings.monster.com/monster/496373eb-e7f4-46ed-8630-da8112ed8bc4'
p86
aS'http://job-openings.monster.com/monster/0bd9e128-6ed5-432a-939e-527479f02745'
p87
aS'http://job-openings.monster.com/monster/a4936477-5910-4dbb-bea4-b05c7b5ddc9e'
p88
aS'http://job-openings.monster.com/monster/8cef860a-6722-43ff-b217-f9b6db9b67f4'
p89
aS'http://job-openings.monster.com/monster/ec871577-2cc5-45ba-a02a-32411ea2d01e'
p90
aS'http://job-openings.monster.com/monster/68ec3b3a-6777-4a6a-9230-f49648d936f3'
p91
aS'http://jobview.monster.com/data-scientist-data-scientist-hadoop-python-job-lexington-park-md-us-183102336.aspx'
p92
aS'http://job-openings.monster.com/monster/2520f5ed-7f5d-47ac-abb1-7825b5a2adc9'
p93
aS'http://job-openings.monster.com/monster/cce8f224-285e-4861-8b14-48b30a4e6291'
p94
aS'http://job-openings.monster.com/monster/a10fc223-48c8-4548-909a-0a7ed1389000'
p95
aS'http://job-openings.monster.com/monster/dbed17ed-73a8-433e-a390-2932ccb4cfed'
p96
aS'http://job-openings.monster.com/monster/83e9ce54-a242-46bc-942f-c81589760a86'
p97
aS'http://job-openings.monster.com/monster/f61ea10a-527b-462c-a6aa-6c93e444fa7f'
p98
aS'http://job-openings.monster.com/monster/eaf0ee8c-69c2-4a10-835f-7389143cb3e2'
p99
aS'http://job-openings.monster.com/monster/d2f66f7e-b59a-4ec6-8b74-a056281bdbb9'
p100
aS'http://job-openings.monster.com/monster/3619dbed-8719-43c8-a1b7-548ebd951688'
p101
aS'http://job-openings.monster.com/monster/bb44362c-f2ab-4ee1-a255-2a6585fffb43'
p102
aS'http://job-openings.monster.com/monster/bd500bec-89b8-4f59-a64b-29031e77fa68'
p103
aS'http://job-openings.monster.com/monster/4aeaecc1-168c-4f2b-8d0b-dcc2826f2073'
p104
aS'http://job-openings.monster.com/monster/7a7edaec-a4a1-402f-bd60-4081667f8609'
p105
aS'http://job-openings.monster.com/monster/9c69ad40-1ea0-4809-add5-2345b62184ae'
p106
aS'http://job-openings.monster.com/monster/4434a60a-cac9-423f-974d-f616f2774824'
p107
aS'http://job-openings.monster.com/monster/472c4c0b-5d77-45a1-ae7e-54041fd0e647'
p108
aS'http://job-openings.monster.com/monster/67fa5a1e-334e-428e-b97d-a998e601ac12'
p109
aS'http://job-openings.monster.com/monster/25363e2f-4369-46fe-88d4-b1a62f7ebed4'
p110
aS'http://job-openings.monster.com/monster/3a3b56de-fe63-46e6-8412-221de7b4cfad'
p111
aS'http://job-openings.monster.com/monster/878ab177-a31a-417e-a20e-c435759b0d72'
p112
aS'http://jobview.monster.com/behavioral-pharmacology-research-scientist-pace-wrair-scientific-services-job-silver-springs-md-us-182712110.aspx'
p113
aS'http://job-openings.monster.com/monster/52bbf194-846d-4c62-856a-11bb925447dd'
p114
aS'http://job-openings.monster.com/monster/1e82553e-0fce-4d3c-b3a4-f3ad16c63a79'
p115
aS'http://job-openings.monster.com/monster/f6138545-32dd-4c12-9c7e-7a40d60ff11b'
p116
aS'http://job-openings.monster.com/monster/8036c752-26c6-4c28-bb3e-be541aba9796'
p117
aS'http://job-openings.monster.com/monster/067845a8-2994-4110-b1e2-863ea4203ac9'
p118
aS'http://job-openings.monster.com/monster/978a24d3-be26-4aaf-b7a8-0a6c9a2005c4'
p119
aS'http://job-openings.monster.com/monster/4dc291b1-fe02-4dff-8111-ace8eccf33a7'
p120
aS'http://job-openings.monster.com/monster/97de4324-050e-4816-a24c-0219cb84b472'
p121
aS'http://job-openings.monster.com/monster/1258e016-532a-401e-b960-3ce473697d45'
p122
aS'http://job-openings.monster.com/monster/80d6cf52-5b50-411f-858f-bde0023995ae'
p123
aS'http://job-openings.monster.com/monster/55d93580-2536-48c3-a1d5-7c54cf44bbbb'
p124
aS'http://job-openings.monster.com/monster/f36890f7-5ee3-43f7-9bf8-01ae63c09d1a'
p125
aS'http://job-openings.monster.com/monster/e27820ba-f4e8-4bf2-b270-e5ace8a7c0c0'
p126
aS'http://job-openings.monster.com/monster/14cea182-9fc7-4c45-b052-e1ebaebd535e'
p127
aS'http://job-openings.monster.com/monster/8926ee97-b591-49b2-aa41-5bfe28fb079a'
p128
aS'http://job-openings.monster.com/monster/5f84a5dc-2f10-48f9-a19c-3ed7425634a1'
p129
aS'http://job-openings.monster.com/monster/c13fd92a-7096-4868-ae55-085499ccfe4a'
p130
aS'http://job-openings.monster.com/monster/c91b850a-4a64-4381-9bb5-e1be3324a6b8'
p131
aS'http://job-openings.monster.com/monster/306b9894-8625-4c92-a541-5092660fd214'
p132
aS'http://job-openings.monster.com/monster/75be1687-25fb-437d-bce9-77921d212e3a'
p133
aS'http://job-openings.monster.com/monster/7684eaee-0b58-4b30-8319-0fd6c6363eed'
p134
aS'http://job-openings.monster.com/monster/7a64b8be-5855-4c59-89d0-5e24235e93d8'
p135
aS'http://job-openings.monster.com/monster/80f234d2-3a3c-4f6f-8614-366e036246fa'
p136
aS'http://job-openings.monster.com/monster/fec107cc-639c-4feb-a7c0-05329395a276'
p137
aS'http://job-openings.monster.com/monster/7811bc35-21f8-49ba-88d7-66b215dee2b6'
p138
aS'http://job-openings.monster.com/monster/846c0865-6b16-4680-adb6-d2e0302d09c2'
p139
aS'http://job-openings.monster.com/monster/043f0e4e-340b-4f7a-82a4-0b65fdad014a'
p140
aS'http://job-openings.monster.com/monster/948a8463-7f30-46a2-b17b-932ee12a2367'
p141
aS'http://job-openings.monster.com/monster/f22a2c6e-85b2-4944-9e81-d9f8e2c14fc0'
p142
aS'http://job-openings.monster.com/monster/40795a5e-e403-4624-ae9a-0157d44d1ba2'
p143
aS'http://job-openings.monster.com/monster/6ef82bd2-c2ed-4a09-8594-2196c8162933'
p144
aS'http://job-openings.monster.com/monster/9b4d9cc6-abc7-4f11-b8b5-67f353de85f3'
p145
aS'http://job-openings.monster.com/monster/316101a7-5cc1-44df-b5a1-d62ba032f668'
p146
aS'http://job-openings.monster.com/monster/3fc523d5-6dd1-4ff1-9402-0ffa0c766c52'
p147
aS'http://job-openings.monster.com/monster/bdc962d5-75c2-4a7e-8f3d-aafc56031f02'
p148
aS'http://job-openings.monster.com/monster/c4068bfe-ca1b-48fd-9967-bff7052f3c57'
p149
aS'http://job-openings.monster.com/monster/fecc6f7a-0977-4bc7-9734-e7fd3216125b'
p150
aS'http://job-openings.monster.com/monster/3daec945-2dde-4cfa-a1b6-13853f1825e2'
p151
aS'http://job-openings.monster.com/monster/22331377-ef1f-42ab-a138-e372bf1744b6'
p152
aS'http://job-openings.monster.com/monster/651f84c6-3194-450a-827a-5771a24d0bd4'
p153
aS'http://job-openings.monster.com/monster/c365e828-9d48-4fa4-9a3c-0837476d913e'
p154
aS'http://job-openings.monster.com/monster/1d1a7f80-a669-401a-8a9b-cc643fea338c'
p155
aS'http://job-openings.monster.com/monster/e0c9f8b7-5cf2-4abf-ac5e-c34754a26712'
p156
aS'http://job-openings.monster.com/monster/17d8c331-f839-46be-a91d-8d539b49be8d'
p157
aS'http://job-openings.monster.com/monster/ae7b33a6-4d1e-4f8e-bf02-b8fa46f0c271'
p158
aS'http://job-openings.monster.com/monster/90a329bf-2248-4fb1-a990-e46896cb2dff'
p159
aS'http://job-openings.monster.com/monster/9c31bcdb-255c-4696-b752-abd659021df3'
p160
aS'http://job-openings.monster.com/monster/fdf42d22-3ecd-4b80-b001-e968d6f0b9cf'
p161
aS'http://job-openings.monster.com/monster/124a4657-ad38-4630-821f-c08f3688008b'
p162
aS'http://job-openings.monster.com/monster/60ac0eef-7ffb-45b4-a6a2-9a8207c98947'
p163
aS'http://jobview.monster.com/behavioral-research-scientist-wrair-scientific-services-job-silver-springs-md-us-182177685.aspx'
p164
aS'http://job-openings.monster.com/monster/96b454f3-2a7e-4874-9dfb-b40dffa5c25e'
p165
aS'http://job-openings.monster.com/monster/f3d48586-ea0d-44a9-89df-85221bf129c2'
p166
aS'http://job-openings.monster.com/monster/3c3d462c-1800-4992-a791-fade4bfbf4f2'
p167
aS'http://job-openings.monster.com/monster/7939d711-eb5a-49d2-8439-6e3379a127b7'
p168
aS'http://job-openings.monster.com/monster/fd0f26e9-a789-4ce9-91e7-7cf6241cebec'
p169
aS'http://jobview.monster.com/mid-level-data-architect-job-rockville-md-us-183071066.aspx'
p170
aS'http://job-openings.monster.com/monster/bdca82ce-13f0-4bcb-ad19-7cf247d1e419'
p171
aS'http://job-openings.monster.com/monster/1fc6eea5-d507-4df5-9f66-89e5048e7d1c'
p172
aS'http://jobview.monster.com/big-data-engineer-ts-sci-fsp-job-fort-meade-md-us-183099704.aspx'
p173
aS'http://job-openings.monster.com/monster/cd50760b-9403-439d-95d5-5c215ce854cf'
p174
aS'http://job-openings.monster.com/monster/a9110c85-0183-40d7-86be-a780ba4a4420'
p175
aS'http://job-openings.monster.com/monster/a2f33a5e-fc7b-430d-8ae2-30442d385eab'
p176
aS'http://job-openings.monster.com/monster/4c4d9d4e-9e56-4e45-a830-f91e4122b1f2'
p177
aS'http://job-openings.monster.com/monster/3469cf4a-f4eb-461f-90f3-d3877cacc77f'
p178
aS'http://job-openings.monster.com/monster/aae6e29c-a3b2-4d60-8031-705ed99c01dc'
p179
aS'http://job-openings.monster.com/monster/478e3864-8af9-48b4-92ef-98b11ce1d610'
p180
aS'http://job-openings.monster.com/monster/66e3f62b-ae83-41e4-b717-e8b2161244a5'
p181
aS'http://job-openings.monster.com/monster/13179bf2-6569-4176-a915-40d03ea382b0'
p182
aS'http://job-openings.monster.com/monster/326b2911-58e6-4895-9978-f1b9cb1a14ee'
p183
aS'http://job-openings.monster.com/monster/0bf707a2-e3f5-46e2-9d8c-445f7596b27f'
p184
aS'http://job-openings.monster.com/monster/092139be-dfb1-468b-ab3a-d1d60160e64a'
p185
aS'http://job-openings.monster.com/monster/4afa9f48-5570-4bc3-8d35-b3ce4243a818'
p186
aS'http://job-openings.monster.com/monster/620e1e81-a244-4e52-a663-cd8119d0836d'
p187
aS'http://job-openings.monster.com/monster/af97bb76-41e9-4bc3-a244-a0bb8e0701f2'
p188
aS'http://job-openings.monster.com/monster/00812309-6ad6-43a3-9a7d-bfaae34765ee'
p189
aS'http://job-openings.monster.com/monster/6d7f7538-1875-4aad-a7e6-2bdae7ffe18f'
p190
aS'http://job-openings.monster.com/monster/bd7f21db-23b6-40f3-8c9d-241c5f1df9b9'
p191
aS'http://job-openings.monster.com/monster/05493516-1bee-49fc-bad9-568758b89aaf'
p192
aS'http://job-openings.monster.com/monster/929e999b-dd4d-4d25-a8d0-c78c4f790745'
p193
aS'http://job-openings.monster.com/monster/b0e403c6-1521-413a-934f-95274e7a7aec'
p194
aS'http://job-openings.monster.com/monster/84c6a9d4-e99a-45f0-b919-e276a98344bb'
p195
aS'http://job-openings.monster.com/monster/843f67ca-01ab-44bb-afe5-b562170b9764'
p196
aS'http://jobview.monster.com/process-technology-scientist-job-king-of-prussia-pa-us-182950764.aspx'
p197
aS'http://job-openings.monster.com/monster/3d78d881-d6e0-4c2a-8948-aece4b8068de'
p198
aS'http://job-openings.monster.com/monster/112a39a7-cfd8-4aed-8de7-89dd5cdfcc8c'
p199
aS'http://job-openings.monster.com/monster/a89ab095-e5ad-4e0c-bf4d-d9b715f14782'
p200
aS'http://job-openings.monster.com/monster/40cdb222-e0bf-44d8-949a-19c981ce2f39'
p201
aS'http://job-openings.monster.com/monster/7262140c-cffa-4d46-aa19-991d842a5a2b'
p202
aS'http://job-openings.monster.com/monster/1477bbab-6fa6-4b98-88d0-7652af3851ec'
p203
aS'http://job-openings.monster.com/monster/1902456b-b55e-47ac-8624-651619c9fc1c'
p204
aS'http://job-openings.monster.com/monster/b793a8f6-c110-4a12-a3e1-fcd73bbcb9ba'
p205
aS'http://job-openings.monster.com/monster/9b82893d-3d81-48b9-ab11-f62686663e44'
p206
aS'http://job-openings.monster.com/monster/b8b16d09-00b2-4bfe-b747-809be589c895'
p207
aS'http://job-openings.monster.com/monster/f1f4cc17-f077-445a-bc75-892eda84d776'
p208
aS'http://job-openings.monster.com/monster/82fe9fe0-9a01-4662-8ade-0c9dbb6bfe71'
p209
aS'http://job-openings.monster.com/monster/4c3669bf-795c-4a90-9b27-223e32694d0d'
p210
aS'http://job-openings.monster.com/monster/55906e78-3db3-4909-8c81-9b8efa33fedf'
p211
aS'http://job-openings.monster.com/monster/1c6016be-9851-4f96-b15d-04ab43840009'
p212
aS'http://job-openings.monster.com/monster/1f53702a-14df-4d56-a518-d758976903ea'
p213
aS'http://job-openings.monster.com/monster/0fb83f83-1f02-4257-989b-17c2312f9b1a'
p214
aS'http://job-openings.monster.com/monster/f38c6ccb-bfc1-4dfd-8936-c4f372529af1'
p215
aS'http://job-openings.monster.com/monster/0df187b7-2efc-4d2c-a2cb-a30edf4f8ef8'
p216
aS'http://job-openings.monster.com/monster/88204043-1b51-4bdc-883b-194d02e7af5a'
p217
aS'http://job-openings.monster.com/monster/c2fe66fd-a78e-4ce6-9530-c6faaf249bc2'
p218
aS'http://job-openings.monster.com/monster/a5ed2a0e-734f-46f7-bf51-f63a5ede5f7d'
p219
aS'http://job-openings.monster.com/monster/c4d12934-5992-47ae-97ab-351f3e00acec'
p220
aS'http://job-openings.monster.com/monster/5f26fc51-f945-4029-88f6-1598ef2278cb'
p221
aS'http://job-openings.monster.com/monster/3144a0a5-9bd9-475a-8257-01234177d3ce'
p222
aS'http://jobview.monster.com/data-scientist-data-scientist-hadoop-python-job-lexington-park-md-us-182812849.aspx'
p223
aS'http://job-openings.monster.com/monster/fd1142d0-ead4-424c-8370-ae8e45f45e92'
p224
aS'http://job-openings.monster.com/monster/3608816b-d359-4119-8361-5f8bc7bc837a'
p225
aS'http://job-openings.monster.com/monster/31757942-723d-40a6-9439-663ed8e8be84'
p226
aS'http://job-openings.monster.com/monster/10647fab-f97b-4fbc-8fd8-474d6882d49b'
p227
aS'http://job-openings.monster.com/monster/59e34059-4df4-422b-8a37-14fc710cb0c2'
p228
aS'http://job-openings.monster.com/monster/bcc2a0ac-fed4-4c1b-ad25-522d27415825'
p229
aS'http://jobview.monster.com/data-scientist-job-columbia-md-us-182112658.aspx'
p230
aS'http://job-openings.monster.com/monster/25a15771-1311-434a-8ee9-90aa62acf326'
p231
aS'http://job-openings.monster.com/monster/d2a1d656-a85e-4717-ba83-89d5779d4a8f'
p232
aS'http://job-openings.monster.com/monster/da180eae-ad38-41b3-93ad-a3d1e867fbc4'
p233
aS'http://job-openings.monster.com/monster/cca43b2f-e99a-4e70-a59a-5e0ee53dd218'
p234
aS'http://job-openings.monster.com/monster/b398c8f5-bd0d-4bd6-8985-f489c524028d'
p235
aS'http://job-openings.monster.com/monster/8f3cd60d-af16-4606-b58b-b9fbe1517990'
p236
aS'http://job-openings.monster.com/monster/c7a03a13-9c95-49ea-90c1-88f7675f62d4'
p237
aS'http://job-openings.monster.com/monster/e041259c-e794-45c2-a42e-a7af0f6f928c'
p238
aS'http://job-openings.monster.com/monster/78cf345d-2e5f-4ae0-b6ca-f7b1cb117789'
p239
a.