(lp1
S'http://job-openings.monster.com/monster/81d1de8d-09c5-4a66-a506-e0ecfd0870b2'
p2
aS'http://job-openings.monster.com/monster/256c50fb-68cd-4e89-969c-0da21c9a45e6'
p3
aS'http://job-openings.monster.com/monster/ef9658e3-2beb-401a-8345-ff3c4110f80d'
p4
aS'http://job-openings.monster.com/monster/b60a71ff-8af6-436f-888a-7a3688663dc0'
p5
aS'http://job-openings.monster.com/monster/85ffe7fc-d208-44f9-9b8c-357ed8c70d80'
p6
aS'http://job-openings.monster.com/monster/912c6810-9503-49f7-a6a8-94456e42f7f4'
p7
aS'http://job-openings.monster.com/monster/96da1d50-e123-4f7e-a214-bcce4c7b2b38'
p8
aS'http://job-openings.monster.com/monster/a58546c7-a891-4450-8f20-6b61377ca23f'
p9
aS'http://job-openings.monster.com/monster/02d99e98-7842-4b5c-8afa-c16dd6ea0412'
p10
aS'http://job-openings.monster.com/monster/cbaf5456-e70b-4df9-9aaa-b9c5c4622ca9'
p11
aS'http://job-openings.monster.com/monster/3dcc3256-06fe-42f1-8365-1833e432fb63'
p12
aS'http://job-openings.monster.com/monster/daa20d9b-7fd9-4f08-8fe2-fea3ae0521d0'
p13
aS'http://job-openings.monster.com/monster/6d6ddb0c-9d35-4bd8-b47a-710922bce137'
p14
aS'http://job-openings.monster.com/monster/6d24c348-8d1b-402b-bcb9-21e7510dc658'
p15
aS'http://job-openings.monster.com/monster/5787d9f3-554c-4f7a-b235-41b879a59b3f'
p16
aS'http://job-openings.monster.com/monster/d643968f-1e6d-42e8-aeb6-821c339dec08'
p17
aS'http://job-openings.monster.com/monster/48469210-a947-4cbb-b24b-94f7c0a5d9fb'
p18
aS'http://job-openings.monster.com/monster/b2638ca7-11c3-4203-802e-0bf3e87e3775'
p19
aS'http://job-openings.monster.com/monster/79659409-08c4-4a40-9e4a-3eb9d47ff6e9'
p20
aS'http://job-openings.monster.com/monster/638bb73f-39b1-47a5-9dc0-ae1fc9180e21'
p21
aS'http://job-openings.monster.com/monster/fe03ab09-5b69-4431-a8c2-575807abcfc8'
p22
aS'http://job-openings.monster.com/monster/dbafa5ea-3dec-484c-a923-7a963b946a6d'
p23
aS'http://job-openings.monster.com/monster/e1df9679-3381-47e6-af18-ad4205999f9c'
p24
aS'http://jobview.monster.com/quality-control-scientist-iv-first-shift-job-none-ma-us-182545901.aspx'
p25
aS'http://job-openings.monster.com/monster/2b548af9-338b-47ef-a352-51d9606d979d'
p26
aS'http://job-openings.monster.com/monster/5796324d-45ab-432c-9eb0-8bd02b2e4f60'
p27
aS'http://job-openings.monster.com/monster/2e437adf-9da0-4ec6-974f-dc946d906fd9'
p28
aS'http://job-openings.monster.com/monster/316507db-07ac-4953-9d32-c721d5eae034'
p29
aS'http://job-openings.monster.com/monster/97b2f276-4636-4549-bfe2-db3b9fb41bbe'
p30
aS'http://job-openings.monster.com/monster/79ebd7f8-897b-4de9-94cd-d2895c9e6c10'
p31
aS'http://job-openings.monster.com/monster/92ae2bbe-d91a-40ff-b063-edaefaa25520'
p32
aS'http://job-openings.monster.com/monster/535791ca-1498-4455-bf53-068077b0d5e1'
p33
aS'http://job-openings.monster.com/monster/da7dd54d-651e-4ec5-a3a8-ad495bfd104b'
p34
aS'http://job-openings.monster.com/monster/70c9e9a7-152a-49c7-8c3d-b1fa1f8e950f'
p35
aS'http://job-openings.monster.com/monster/ee3e7d6d-dfc2-4b6b-bce5-174904eef257'
p36
aS'http://job-openings.monster.com/monster/7678715d-fa9f-459e-93f6-087eab2333d9'
p37
aS'http://job-openings.monster.com/monster/adc490d2-a80f-43ed-b57d-d55a841000d6'
p38
aS'http://job-openings.monster.com/monster/43e2a648-2b16-4a1a-9c69-63a0a4ee4112'
p39
aS'http://job-openings.monster.com/monster/4d2cee92-5eaf-4e81-ac1c-a2bbb641938c'
p40
aS'http://job-openings.monster.com/monster/24f19c64-6c40-4e75-a4b4-3706ba793aca'
p41
aS'http://job-openings.monster.com/monster/9e157418-ec39-40b7-a645-1fd7add3cfb3'
p42
aS'http://job-openings.monster.com/monster/dc5b515b-3e67-43ae-a3cd-669a526a80ff'
p43
aS'http://job-openings.monster.com/monster/0ce3d397-5125-46c1-ab35-d02846431c9c'
p44
aS'http://job-openings.monster.com/monster/fd624e5e-98cc-44d8-938e-7ea0acd1fff5'
p45
aS'http://job-openings.monster.com/monster/a1c7c5e4-5219-42aa-87f7-51dd32f7fb0b'
p46
aS'http://job-openings.monster.com/monster/f71ddc95-df23-4387-abb7-3bc64135f265'
p47
aS'http://job-openings.monster.com/monster/4fc19347-6d01-48ac-ba8a-6c61d1f57ddd'
p48
aS'http://jobview.monster.com/scientist-job-andover-ma-us-182954204.aspx'
p49
aS'http://job-openings.monster.com/monster/02ad6f40-4997-4301-bc5e-486ad0ea45c3'
p50
aS'http://job-openings.monster.com/monster/d11a2c18-763b-4779-9321-95748c6e87e5'
p51
aS'http://job-openings.monster.com/monster/13c390ee-aed9-4a90-8260-ea1593c58091'
p52
aS'http://job-openings.monster.com/monster/75bd8c7b-e718-4225-b4ce-1aaacdae2594'
p53
aS'http://job-openings.monster.com/monster/6c63d732-6d72-42d3-8228-8c8b4a013e5c'
p54
aS'http://jobview.monster.com/process-scientist-ii-job-andover-ma-us-182545416.aspx'
p55
aS'http://job-openings.monster.com/monster/4879c5f4-b474-4ad9-b1b9-2502e35cd2af'
p56
aS'http://job-openings.monster.com/monster/067b752d-2432-4aba-9465-b22cd230b26c'
p57
aS'http://job-openings.monster.com/monster/3a4459f6-8d38-420d-9d5f-c5e23ae022a2'
p58
aS'http://job-openings.monster.com/monster/e66e2d1e-af6f-4ab5-aec2-d8b9db8bdf56'
p59
aS'http://job-openings.monster.com/monster/4e1e5ede-9064-464f-85d6-756da2ca20bd'
p60
aS'http://job-openings.monster.com/monster/4ea93e99-74a3-4f9b-8235-01a89a1b30b1'
p61
aS'http://job-openings.monster.com/monster/637acd5d-87cf-4385-8fe4-5e4ccd42f432'
p62
aS'http://job-openings.monster.com/monster/1656a41f-a5e4-4498-b744-0d9dd2842c76'
p63
aS'http://jobview.monster.com/sr-rsde-job-cambridge-ma-us-182540678.aspx'
p64
aS'http://job-openings.monster.com/monster/02353fea-7741-466d-b2da-e6630d2106b5'
p65
aS'http://jobview.monster.com/scientist-immunology-flow-cytometery-job-andover-ma-us-182546529.aspx'
p66
aS'http://job-openings.monster.com/monster/394b21b2-31f1-47c8-ab61-9b4fc7ab2d72'
p67
aS'http://job-openings.monster.com/monster/d9e33e2e-c9cc-4245-b5b8-1b27b2f54e1f'
p68
aS'http://job-openings.monster.com/monster/4793cfb2-9215-4685-811e-cf424c6b472a'
p69
aS'http://job-openings.monster.com/monster/05855ee5-56e8-4124-b48f-6eed88918fcb'
p70
aS'http://job-openings.monster.com/monster/1a7efc89-cd80-452d-b82c-63b3d6e40ea7'
p71
aS'http://job-openings.monster.com/monster/889c3296-fb47-4b24-8089-03c93b5ecd2f'
p72
aS'http://job-openings.monster.com/monster/11354a01-3e6d-4551-927b-0c82aa9d9858'
p73
aS'http://job-openings.monster.com/monster/400ed385-de7d-40ff-94a6-19be20d142fd'
p74
aS'http://jobview.monster.com/scientist-immunogenicity-job-andover-ma-us-182546612.aspx'
p75
aS'http://job-openings.monster.com/monster/bab4bb36-2bb0-48ed-bffa-0b2c5a30ad7c'
p76
aS'http://job-openings.monster.com/monster/1adc4d1a-b04c-45be-9d4a-2b19c8d13397'
p77
aS'http://job-openings.monster.com/monster/8b090e6b-a032-4383-9fee-8f8f115bed22'
p78
aS'http://job-openings.monster.com/monster/1a8f33dc-58bd-40f3-b167-6a2142ca0f56'
p79
aS'http://jobview.monster.com/senior-associate-scientist-job-andover-ma-us-182546888.aspx'
p80
aS'http://job-openings.monster.com/monster/c2b527e4-7b57-47fc-834d-85b2c3611bc7'
p81
aS'http://job-openings.monster.com/monster/c173360b-8e56-4b81-a855-70abb5631bc2'
p82
aS'http://job-openings.monster.com/monster/6451100e-1eaf-41fc-a39f-e43b05e483b2'
p83
aS'http://job-openings.monster.com/monster/55562b69-f5a4-419a-9c2f-00dd98431107'
p84
aS'http://jobview.monster.com/lcms-senior-scientist-job-andover-ma-us-182546484.aspx'
p85
aS'http://job-openings.monster.com/monster/24fefd0d-5312-4b33-91b2-8fda216e67bc'
p86
aS'http://job-openings.monster.com/monster/a52effb9-1513-410d-a659-cc85d584abea'
p87
aS'http://job-openings.monster.com/monster/a9ac4921-4756-4881-a8f3-a60389d47e90'
p88
aS'http://job-openings.monster.com/monster/68b83c54-ef1a-4403-acde-f58161ecd201'
p89
aS'http://job-openings.monster.com/monster/5b3b5678-9934-46ad-909e-88b8395e5265'
p90
aS'http://jobview.monster.com/technology-development-program-associate-co-op-boston-ma-job-boston-ma-us-182527062.aspx'
p91
aS'http://job-openings.monster.com/monster/183d495b-3c42-409f-93b2-14bc569b8acc'
p92
aS'http://job-openings.monster.com/monster/544ae82b-122f-4486-9593-a1fbee608fd5'
p93
aS'http://job-openings.monster.com/monster/4a2af7ed-78e2-47f6-a556-8f62beb49cc1'
p94
aS'http://job-openings.monster.com/monster/6355edbd-a156-4fcb-912e-2fc63aa55ae5'
p95
aS'http://job-openings.monster.com/monster/259d95a5-5d5a-4acf-bc45-d69fd7342f9b'
p96
aS'http://job-openings.monster.com/monster/99d77c00-301a-41d7-82a2-8baf3e1d9547'
p97
aS'http://job-openings.monster.com/monster/fddbe64d-ecb7-4a9c-acf2-d2f1b6ab971d'
p98
aS'http://jobview.monster.com/senior-principle-scientist-job-andover-ma-us-182547106.aspx'
p99
aS'http://job-openings.monster.com/monster/571184e0-f16e-4fef-a448-8f032a6bd4b1'
p100
aS'http://job-openings.monster.com/monster/07c3d5a4-10b9-479a-871b-a09f983152c6'
p101
aS'http://job-openings.monster.com/monster/5a77eaf2-4a97-4b9e-b1b3-e0cf10ad5992'
p102
aS'http://job-openings.monster.com/monster/3d53c32a-b351-4169-8f7c-2e24d5193643'
p103
aS'http://job-openings.monster.com/monster/f836ae40-5487-437c-9de6-8e0e407f53c1'
p104
aS'http://job-openings.monster.com/monster/daa03d98-a1bd-4e37-9efd-533f1adf0a53'
p105
aS'http://job-openings.monster.com/monster/9f96f56a-62b8-4064-8eec-172fdfeb5b94'
p106
aS'http://jobview.monster.com/recruiter-iii-job-burlington-ma-us-182711844.aspx'
p107
aS'http://job-openings.monster.com/monster/7034d38c-38f6-40db-8da2-1aa76750c9e0'
p108
aS'http://job-openings.monster.com/monster/c15b6bfb-5f19-4728-b2ea-0e184bcffac5'
p109
aS'http://job-openings.monster.com/monster/66cbf0ce-161c-46a0-a686-c4724fbed471'
p110
aS'http://job-openings.monster.com/monster/09052f62-2c16-43a7-be19-e22dbe137fda'
p111
aS'http://job-openings.monster.com/monster/3ac36588-aa76-44a0-8fee-6629aff9cad3'
p112
aS'http://job-openings.monster.com/monster/d6541bb4-6a0d-42a1-bfd9-73ea4e017611'
p113
aS'http://job-openings.monster.com/monster/1612b9d7-b37e-4192-b444-bb10ababb399'
p114
aS'http://jobview.monster.com/scientist-job-andover-ma-us-182545203.aspx'
p115
aS'http://job-openings.monster.com/monster/130f3a33-63ff-4187-ae22-fdb1c5455fd7'
p116
aS'http://job-openings.monster.com/monster/a35e9c46-fa07-4d86-aef7-1321e0c93dda'
p117
aS'http://job-openings.monster.com/monster/e65b094e-7e9a-4775-bb05-7e2045887c74'
p118
aS'http://job-openings.monster.com/monster/4c600374-b82f-4238-8faa-0656fa019868'
p119
aS'http://job-openings.monster.com/monster/e594fc5c-03ed-41f3-bb36-7a3f34aa99fe'
p120
aS'http://jobview.monster.com/program-manager-job-boston-ma-us-182564618.aspx'
p121
aS'http://job-openings.monster.com/monster/6bd99f21-09fa-427a-8679-8fd70f403f62'
p122
aS'http://job-openings.monster.com/monster/1f274655-b4bc-42d1-a375-58799ab09925'
p123
aS'http://job-openings.monster.com/monster/353fcbc9-53fe-4a58-bf9f-c9a0b93701f0'
p124
aS'http://job-openings.monster.com/monster/8801fd82-8f4a-4715-800a-0b371801b2e7'
p125
aS'http://job-openings.monster.com/monster/7a0423a0-6650-4fe3-a961-5c6aeecd6d63'
p126
aS'http://jobview.monster.com/machine-learning-software-engineer-job-boston-ma-us-182366311.aspx'
p127
aS'http://job-openings.monster.com/monster/9e492b14-448a-4b84-9755-a03311ff1fba'
p128
aS'http://job-openings.monster.com/monster/39bf3890-05ea-4cad-8ce4-0983fc887d8b'
p129
aS'http://job-openings.monster.com/monster/752f8343-15c9-4cb9-8ac8-fd5f3584c924'
p130
aS'http://job-openings.monster.com/monster/e1c5e5b8-fb62-46af-a69d-c832ad174b6e'
p131
aS'http://job-openings.monster.com/monster/e07632bd-57df-41cf-93f8-b3a34938d974'
p132
aS'http://job-openings.monster.com/monster/d7456428-7c38-4aed-b960-e859bc4e872a'
p133
aS'http://job-openings.monster.com/monster/3c295eb6-efe7-402f-9be8-255e8c05eead'
p134
aS'http://job-openings.monster.com/monster/5a0e3d27-f8f7-453f-8306-18e861883ed2'
p135
aS'http://job-openings.monster.com/monster/cb2422e9-a190-4a39-bfd0-f696455becca'
p136
aS'http://job-openings.monster.com/monster/0b83a369-e851-46a7-8ca5-df89703829e2'
p137
aS'http://job-openings.monster.com/monster/8c13bb75-f223-45a1-92e7-98001609ad9a'
p138
aS'http://job-openings.monster.com/monster/08514c2b-56f4-4caf-8d60-4a66d143156f'
p139
aS'http://job-openings.monster.com/monster/1818084b-332b-45c9-99c4-3197a8013d38'
p140
aS'http://job-openings.monster.com/monster/845829f0-02b5-4b24-b83f-d755efc93ae9'
p141
aS'http://job-openings.monster.com/monster/7133dac7-e875-4800-85ed-4aa6ea4748e1'
p142
aS'http://job-openings.monster.com/monster/20406829-fbcc-420d-8448-ab285b126864'
p143
aS'http://job-openings.monster.com/monster/f9b76c17-8d96-4bdd-bfe2-62a70a99678d'
p144
aS'http://job-openings.monster.com/monster/03d5efad-49e6-4155-ad2d-7875001d2e40'
p145
aS'http://job-openings.monster.com/monster/fb0a5523-aa9c-43ed-81d9-20367f522685'
p146
aS'http://job-openings.monster.com/monster/1d898fa7-e488-410e-a7ca-519244e926e0'
p147
aS'http://job-openings.monster.com/monster/8728863b-469c-4212-ab02-0da9a69a0839'
p148
aS'http://job-openings.monster.com/monster/a0e36f7f-5962-4247-9364-d8eaa665f7cd'
p149
aS'http://job-openings.monster.com/monster/6c620630-3705-443b-9d37-588993fec4c5'
p150
aS'http://job-openings.monster.com/monster/17a8d6a7-75e5-4a80-ab9f-aa92472458d1'
p151
aS'http://job-openings.monster.com/monster/749f9c73-2d39-4809-87c5-5300256a339a'
p152
aS'http://job-openings.monster.com/monster/aa027d35-136e-49e7-a4d6-c63958695611'
p153
aS'http://job-openings.monster.com/monster/0d7890fa-2432-4106-aa39-fc516af2ca56'
p154
aS'http://job-openings.monster.com/monster/20220f33-5766-4d0a-bae6-9e797fdf6776'
p155
aS'http://jobview.monster.com/data-engineer-job-cambridge-ma-us-183127797.aspx'
p156
aS'http://job-openings.monster.com/monster/a59a1360-ddc4-4f61-b65e-f340e8f8acfb'
p157
aS'http://job-openings.monster.com/monster/6e071011-0055-4ed2-bb07-5ea8bfb7aaa7'
p158
aS'http://job-openings.monster.com/monster/0f1c3302-3298-4248-9133-f5c6378d319b'
p159
aS'http://jobview.monster.com/senior-quantitative-analyst-predictive-modeling-job-boston-ma-us-182755379.aspx'
p160
aS'http://job-openings.monster.com/monster/c008307b-c626-40b7-b938-a234d107f767'
p161
aS'http://job-openings.monster.com/monster/5013b9f8-1fd3-4321-8311-c9ca40bf0fc8'
p162
aS'http://job-openings.monster.com/monster/a32eb4cb-f93a-4c2b-9a6e-e12f3920514e'
p163
aS'http://job-openings.monster.com/monster/c7a061e5-6435-44d6-824e-ffe3760b34ec'
p164
aS'http://job-openings.monster.com/monster/3a6f22bc-039f-45cf-acd4-622c9138f620'
p165
aS'http://job-openings.monster.com/monster/79c01670-1aae-4da7-b811-9b2c6783d916'
p166
aS'http://job-openings.monster.com/monster/845e15f9-5a68-41a7-a8a8-4fed45a6ab61'
p167
aS'http://job-openings.monster.com/monster/1b644c19-60cd-4114-a02e-4273de0a3873'
p168
aS'http://jobview.monster.com/scientist-lcms-job-andover-ma-us-182546515.aspx'
p169
aS'http://job-openings.monster.com/monster/82f329a4-bb33-428a-bd7d-ada8495c6f6e'
p170
aS'http://job-openings.monster.com/monster/feb9ab6e-b6a7-4f29-aef2-92323b95b994'
p171
aS'http://job-openings.monster.com/monster/55788a79-33f5-4fdb-81f9-9123690b5967'
p172
aS'http://job-openings.monster.com/monster/76018b93-1ab0-411d-a790-123517951ebc'
p173
aS'http://job-openings.monster.com/monster/decec4ed-1e22-45fd-b82b-ea163b579780'
p174
aS'http://job-openings.monster.com/monster/95559c85-9c9e-4efc-a740-aeb3b809c31b'
p175
aS'http://job-openings.monster.com/monster/31a4ad38-c16c-4dde-aeec-ebab44de0034'
p176
aS'http://job-openings.monster.com/monster/b1a3ed9f-7616-47e9-813c-8b5454959c5f'
p177
aS'http://job-openings.monster.com/monster/916b723f-9ebe-4bd6-b162-8a75e1dd6675'
p178
aS'http://job-openings.monster.com/monster/d50e2d06-dbba-4e7a-98a3-b99e4231616f'
p179
aS'http://job-openings.monster.com/monster/1e328744-a6da-4fae-9ed2-323834c11765'
p180
aS'http://job-openings.monster.com/monster/275f1dda-9b4a-41df-8a04-d24af0273b85'
p181
aS'http://job-openings.monster.com/monster/2885a5d0-ad59-4a1c-9443-a3a86d61da3c'
p182
aS'http://job-openings.monster.com/monster/b2dee51e-8010-4ede-8cae-b5246a7bac21'
p183
aS'http://job-openings.monster.com/monster/311e5529-618c-40a8-af55-5a72a5ba3432'
p184
aS'http://job-openings.monster.com/monster/18342496-ab19-4ab3-aaa5-517edab77043'
p185
aS'http://job-openings.monster.com/monster/39717bdb-dccc-40a8-b6b0-df3144f49566'
p186
aS'http://job-openings.monster.com/monster/251961ff-0791-4169-9bc6-afd3ba954585'
p187
aS'http://job-openings.monster.com/monster/68f6036e-26c6-4e9d-b56e-b7855b2e1342'
p188
aS'http://job-openings.monster.com/monster/6d58750e-8bb5-4c27-b015-cf185c0dd31a'
p189
aS'http://job-openings.monster.com/monster/0830b5cf-1c18-428f-8858-a24aeb736171'
p190
aS'http://job-openings.monster.com/monster/f554afc8-6eb1-4821-8875-226923a9dc6d'
p191
aS'http://job-openings.monster.com/monster/3f743652-1d14-408a-8348-ac8a23053df7'
p192
aS'http://job-openings.monster.com/monster/09f5b88a-4747-468e-9a83-9dc23658c8e4'
p193
aS'http://job-openings.monster.com/monster/44ef10b9-d67b-4e73-b842-1819954f39cf'
p194
aS'http://job-openings.monster.com/monster/fe7b907d-9403-4ea3-a88a-f03d15fb6854'
p195
aS'http://job-openings.monster.com/monster/c357d112-3dc5-4f67-a575-01f36bd5610b'
p196
aS'http://job-openings.monster.com/monster/fccae4b6-81ea-475f-ac2a-11336d6e6b19'
p197
aS'http://job-openings.monster.com/monster/ba3165e5-b0ae-4de6-b1d3-dc4c9ef4a6f0'
p198
aS'http://job-openings.monster.com/monster/a82522e0-099b-4344-943d-04f04b342c69'
p199
aS'http://job-openings.monster.com/monster/00c1950a-522f-4e80-b97d-90644fd983db'
p200
aS'http://job-openings.monster.com/monster/fc70d257-f28f-4da4-b2c7-6f0562668bb7'
p201
aS'http://job-openings.monster.com/monster/f07d1914-443a-4bea-94f3-565aff9fb553'
p202
aS'http://job-openings.monster.com/monster/4ac98351-7e21-4bf1-bbbc-cf5bd8958265'
p203
aS'http://job-openings.monster.com/monster/d01fc709-bde7-4212-be03-41ee691e4b63'
p204
aS'http://job-openings.monster.com/monster/f44cb768-cb57-4074-8736-f6825e1243e3'
p205
aS'http://job-openings.monster.com/monster/32c60f17-cf1e-4775-bf04-bdd46631056b'
p206
aS'http://job-openings.monster.com/monster/a89d3624-e48d-46d3-a073-0efb3f1a9cc0'
p207
aS'http://job-openings.monster.com/monster/9ab95027-0903-44f8-80eb-ba4422f85754'
p208
aS'http://job-openings.monster.com/monster/e79a5ceb-dd27-4f56-9e73-2113285ddc82'
p209
aS'http://job-openings.monster.com/monster/fa890a85-df9a-4897-80f9-0927efd80a14'
p210
aS'http://job-openings.monster.com/monster/de175bbb-7714-4c0f-b6b3-d47d0b7d1bbf'
p211
aS'http://job-openings.monster.com/monster/27de3170-075c-4d24-89cb-290ae1cbf936'
p212
aS'http://job-openings.monster.com/monster/b48723a7-6390-40a0-bbaa-90ccf1276a32'
p213
aS'http://job-openings.monster.com/monster/b93c2742-2576-4eb9-85f0-e8a0c1498671'
p214
aS'http://jobview.monster.com/technology-development-program-associate-boston-ma-job-boston-ma-us-182809510.aspx'
p215
aS'http://job-openings.monster.com/monster/4b0449f4-1aa6-4291-b747-9f38f730017e'
p216
aS'http://job-openings.monster.com/monster/b55ddce0-19cf-4f31-83c6-b9a6d15bd51a'
p217
aS'http://job-openings.monster.com/monster/9625a3cb-4ba0-4add-b087-a1a2db292702'
p218
aS'http://job-openings.monster.com/monster/6f008803-b574-4133-87c4-80c2203c3cc6'
p219
aS'http://job-openings.monster.com/monster/086f119f-a159-4883-89d2-20a9fca7ed71'
p220
aS'http://job-openings.monster.com/monster/c38cb6fb-615e-4e35-ade1-cc3dafa19f81'
p221
aS'http://job-openings.monster.com/monster/3148559f-834b-4b52-b5a3-4ea2ec7add8e'
p222
aS'http://job-openings.monster.com/monster/aeb80aaf-e977-4e79-a5ea-5c8156b645a9'
p223
aS'http://job-openings.monster.com/monster/89f64d8f-3255-459a-af53-92cd8eed76ab'
p224
aS'http://job-openings.monster.com/monster/1c922f86-a790-4556-9954-716d87903a42'
p225
aS'http://job-openings.monster.com/monster/2aef6023-f243-4fa6-8268-56bfb2d12199'
p226
aS'http://job-openings.monster.com/monster/e0aa4ef3-a686-4fb0-9fff-ee1b8f895869'
p227
aS'http://job-openings.monster.com/monster/777d65dd-814e-489a-a16b-298b3506a93a'
p228
aS'http://job-openings.monster.com/monster/93e56f15-431b-4765-905d-f465a5cee643'
p229
aS'http://job-openings.monster.com/monster/f3287cf0-3e7f-43f7-bcfa-919fc92fe634'
p230
aS'http://job-openings.monster.com/monster/313d8a5f-c46d-4efe-92d6-7579c857f2a4'
p231
aS'http://job-openings.monster.com/monster/5352f4cd-c0a1-4b63-b00d-4c02672faaac'
p232
aS'http://job-openings.monster.com/monster/412c6b89-bf5d-4015-8782-257649abf08a'
p233
aS'http://job-openings.monster.com/monster/6a89f568-24f4-4528-8104-456d07f396ff'
p234
aS'http://job-openings.monster.com/monster/018e1b57-827a-49e1-ab70-4bc9daa9b316'
p235
aS'http://job-openings.monster.com/monster/5ab0b007-814c-4b8e-b0e7-1f6012c04210'
p236
aS'http://job-openings.monster.com/monster/8a13ac6a-a54d-474d-9830-0552242089d4'
p237
aS'http://job-openings.monster.com/monster/f5691741-c754-4062-9e19-57ad1d415f20'
p238
aS'http://job-openings.monster.com/monster/58f0b092-7674-4e9a-9b52-2aba6832b1bb'
p239
aS'http://job-openings.monster.com/monster/e8663723-a9ed-4e93-b22b-85703cbac07d'
p240
aS'http://job-openings.monster.com/monster/535aa92b-62e8-4faf-9999-bd859ad3d326'
p241
aS'http://job-openings.monster.com/monster/8edfa68e-5d8d-48db-9a33-e80ba0f4fe2a'
p242
aS'http://job-openings.monster.com/monster/cca86004-e274-4cbb-847e-4de000ebc604'
p243
aS'http://job-openings.monster.com/monster/8b9cf6a3-1abd-41d2-8f09-a41f45030da8'
p244
aS'http://jobview.monster.com/data-scientist-job-boston-ma-us-182032451.aspx'
p245
aS'http://job-openings.monster.com/monster/0183fb2b-0c4c-4b30-ae9c-31dc97c095a2'
p246
aS'http://job-openings.monster.com/monster/19a3d20f-867c-4153-a8d3-8c2f8416994c'
p247
aS'http://job-openings.monster.com/monster/666e5374-a2fc-447f-9ae8-30843bdf967c'
p248
aS'http://job-openings.monster.com/monster/5c6782af-461d-4948-8b73-296cba34067f'
p249
aS'http://jobview.monster.com/computer-scientist-java-programmer-web-big-data-strong-math-skills-job-boston-ma-us-182416294.aspx'
p250
aS'http://job-openings.monster.com/monster/7d81c74d-4754-4a1d-a98f-6fbaceeb025b'
p251
aS'http://job-openings.monster.com/monster/206c70cc-be0b-44e3-a4cf-4cbf6f41b651'
p252
aS'http://job-openings.monster.com/monster/f53ca26c-84b7-4bf7-99fa-466d716b16e1'
p253
aS'http://job-openings.monster.com/monster/33d19d2e-f9fd-4798-a1d5-a0c25fd8b0ea'
p254
aS'http://job-openings.monster.com/monster/f81193f6-e1ff-4b0c-a0ff-208c44ed17ed'
p255
aS'http://jobview.monster.com/technical-writer-big-data-job-cambridge-ma-us-183070700.aspx'
p256
aS'http://job-openings.monster.com/monster/01d359ae-5042-424d-b1cf-bb63df6494a7'
p257
aS'http://job-openings.monster.com/monster/d80f78dc-d624-4269-adae-8c18b8798442'
p258
aS'http://job-openings.monster.com/monster/29427cd8-abac-4c49-bd04-5d56f009bf26'
p259
aS'http://job-openings.monster.com/monster/8666104e-0b3c-4601-9314-4ad5afb754f2'
p260
aS'http://job-openings.monster.com/monster/53c9d505-c4e8-4069-b48f-3a330dbb1c24'
p261
aS'http://job-openings.monster.com/monster/c97a8a53-8e4e-4a7d-aea9-dac98c56fce3'
p262
aS'http://job-openings.monster.com/monster/2f6e3639-848b-488f-821f-6a1793b0e209'
p263
aS'http://job-openings.monster.com/monster/a3c90994-4c65-4bc3-92d5-9d20aa072998'
p264
aS'http://job-openings.monster.com/monster/3eca5f47-f66d-4528-a17c-0562e457ddb8'
p265
aS'http://job-openings.monster.com/monster/2fbe8a39-46da-4ac9-b740-089cea8ae41c'
p266
aS'http://job-openings.monster.com/monster/adc740b2-a25f-4f46-afe2-00749c731548'
p267
aS'http://job-openings.monster.com/monster/80d31be3-7789-43e2-8492-1ef735f4fbf2'
p268
aS'http://job-openings.monster.com/monster/e61cf5e6-e0d2-4c03-8baf-1124fe8ccf6f'
p269
aS'http://job-openings.monster.com/monster/92683abd-9019-4bd7-ab02-e89410a1204a'
p270
aS'http://job-openings.monster.com/monster/eae4233a-e374-4348-add4-5ae6a489c598'
p271
aS'http://job-openings.monster.com/monster/98a08a49-1d76-4437-b1ab-c3b61d7ef85b'
p272
aS'http://job-openings.monster.com/monster/3981d31e-8cd7-49f5-836a-3adfb5764946'
p273
aS'http://job-openings.monster.com/monster/575913a3-3e79-487e-a7d9-d53fb2fa3945'
p274
aS'http://job-openings.monster.com/monster/d2d5dcc0-0cd9-4ead-b328-3efb35c64d09'
p275
aS'http://job-openings.monster.com/monster/84fa7338-cf7d-4196-a306-188319ad5eb5'
p276
aS'http://job-openings.monster.com/monster/258fbd43-1108-4e8d-ad2f-368e9cfb89f9'
p277
aS'http://job-openings.monster.com/monster/caeb573c-b3f9-46cc-86a8-70f06275dca1'
p278
aS'http://job-openings.monster.com/monster/6c568f7b-9c1e-435b-9674-abc572f02ca9'
p279
aS'http://job-openings.monster.com/monster/6c4a0dc5-5f85-4352-80ad-7c45c9e01aec'
p280
aS'http://job-openings.monster.com/monster/b448c516-1600-491b-bd78-679e1c0dc9b1'
p281
aS'http://job-openings.monster.com/monster/5e976c4d-2e71-4f9f-bad9-73c711fc8074'
p282
aS'http://job-openings.monster.com/monster/61be0e7e-5816-40dc-9d09-b43cdea7c67f'
p283
aS'http://job-openings.monster.com/monster/190a86d6-b555-48b5-9297-c1fd0d54fea3'
p284
aS'http://job-openings.monster.com/monster/90dd4a3f-f12c-4fe0-93d4-4209e958e316'
p285
aS'http://job-openings.monster.com/monster/490ef9e6-78bb-4972-aaaa-ae9498b0f890'
p286
aS'http://job-openings.monster.com/monster/810a4078-6e12-4cf4-8361-b284a8780050'
p287
aS'http://job-openings.monster.com/monster/6045f6bd-5843-4feb-9e52-2cc94332d4bf'
p288
aS'http://job-openings.monster.com/monster/ffbec911-0575-4c79-9127-16c1f6a33f1c'
p289
aS'http://job-openings.monster.com/monster/b35923b7-984b-4276-ac43-11d23ff894d8'
p290
aS'http://job-openings.monster.com/monster/08fb8a11-7f65-41fd-8822-3f30152fa8ef'
p291
aS'http://job-openings.monster.com/monster/7c793839-34a5-4ab3-bf5b-aee1540713f1'
p292
aS'http://job-openings.monster.com/monster/0bf6ebe0-3b9e-4606-92df-7cd97dd606ed'
p293
aS'http://jobview.monster.com/vp-of-data-science-job-boston-ma-us-182839816.aspx'
p294
aS'http://job-openings.monster.com/monster/83a80f52-3976-4782-892c-e242e242ff3c'
p295
aS'http://job-openings.monster.com/monster/5bec9a7f-3033-4274-96e6-3799f9299c1d'
p296
aS'http://job-openings.monster.com/monster/907d9338-3372-4e2f-9618-385c0dd4076e'
p297
aS'http://job-openings.monster.com/monster/b39c5cbb-9c18-4f2f-ae1b-c947f879cb6b'
p298
aS'http://job-openings.monster.com/monster/5c53cd20-663d-4208-88b7-2c03389ec469'
p299
aS'http://job-openings.monster.com/monster/0cd64b23-2266-49fa-b5b9-d312117e2bdd'
p300
aS'http://job-openings.monster.com/monster/c487e5d3-c10d-48ab-abd6-c1dcedede1ba'
p301
aS'http://job-openings.monster.com/monster/fa9732a3-a904-41f3-b584-d5cf55da598d'
p302
aS'http://job-openings.monster.com/monster/061c62ef-031b-4607-a2c9-23a6ef375a1d'
p303
aS'http://job-openings.monster.com/monster/2ddbd6c4-5ae1-4d27-8438-9212662ad74b'
p304
aS'http://jobview.monster.com/vp-of-engineering-software-startup-job-boston-ma-us-182884390.aspx'
p305
aS'http://job-openings.monster.com/monster/784b89cd-5351-4247-a5c9-5652fe302431'
p306
aS'http://job-openings.monster.com/monster/277014c3-5475-416a-981d-52eb935c85d6'
p307
aS'http://job-openings.monster.com/monster/5937870d-d014-479e-a5b9-320660f1439d'
p308
aS'http://job-openings.monster.com/monster/268d6190-6d96-4590-adbf-794b4d0396c4'
p309
aS'http://job-openings.monster.com/monster/51f867ab-8edf-4f99-b7ec-88d8c2994ae3'
p310
aS'http://job-openings.monster.com/monster/9dd4b7d1-687d-4bd9-abc7-1a6860d4e812'
p311
aS'http://job-openings.monster.com/monster/f17213c2-20a2-43a4-86ec-c6ff128b4251'
p312
aS'http://job-openings.monster.com/monster/c722c350-ac7d-4c4c-a33f-ebd76ee4b644'
p313
aS'http://job-openings.monster.com/monster/7806011f-b8d0-4600-a2e4-76dd7e1a9cc9'
p314
aS'http://job-openings.monster.com/monster/c338582c-caf1-49e7-a542-f76febd1fe56'
p315
aS'http://job-openings.monster.com/monster/87a4d7d5-7056-4697-ae50-14567ced789d'
p316
aS'http://job-openings.monster.com/monster/00c67c45-86e4-4e90-9d2a-f1eb1cf6a1a6'
p317
aS'http://job-openings.monster.com/monster/128e1751-1fb5-4bdf-8f7a-818efc96d54d'
p318
aS'http://job-openings.monster.com/monster/f9a898a0-5c47-4b24-855f-987c0147c07b'
p319
aS'http://job-openings.monster.com/monster/b0eaf503-ac01-40d0-bd0b-9f1731246645'
p320
aS'http://job-openings.monster.com/monster/a9fdcac1-b4dc-4ef9-af09-50a634d9664a'
p321
aS'http://job-openings.monster.com/monster/c07dda24-2e16-45b1-8762-b1bb8424e2fc'
p322
aS'http://job-openings.monster.com/monster/5f1d2b48-f301-4ef5-81e7-cd71fb35dbe0'
p323
aS'http://job-openings.monster.com/monster/215b0c36-a01b-4ddd-89f8-c7f8309c6dc7'
p324
aS'http://job-openings.monster.com/monster/5de869a9-869b-4f6a-8a48-b653794328d4'
p325
aS'http://job-openings.monster.com/monster/66579bcb-7043-4608-96f9-bad0403faad2'
p326
aS'http://job-openings.monster.com/monster/092aa202-b603-4f31-b233-c3f2f45ee038'
p327
aS'http://job-openings.monster.com/monster/5b41f7e3-2e60-4aa1-ab8b-a736e8714363'
p328
aS'http://job-openings.monster.com/monster/1b474dcf-1719-4e79-9e1f-643df07dca22'
p329
aS'http://job-openings.monster.com/monster/b57c13b7-fb9b-4102-9a8f-95e0b02d0723'
p330
aS'http://job-openings.monster.com/monster/abd19d5d-1b89-4b13-ad26-5b0419d6d413'
p331
aS'http://job-openings.monster.com/monster/96b02dd6-4467-4a96-91c2-dd6797632efb'
p332
aS'http://job-openings.monster.com/monster/a28c1793-b7f5-4e5b-98f2-66c8be3d0987'
p333
aS'http://job-openings.monster.com/monster/27be0082-5f4d-488c-932f-787cce4a7fd7'
p334
aS'http://job-openings.monster.com/monster/b1921ba1-ad4f-46b7-a556-c51fc8874e82'
p335
aS'http://job-openings.monster.com/monster/98e2e921-2091-4f6d-9a47-a9c796ee737a'
p336
aS'http://job-openings.monster.com/monster/ecfdb422-fb86-471d-a3ef-ca1cd52a8180'
p337
aS'http://jobview.monster.com/principal-scientist-job-andover-ma-us-182545056.aspx'
p338
aS'http://job-openings.monster.com/monster/49c0d30d-8cf2-4ce8-8945-422445ae6e75'
p339
aS'http://job-openings.monster.com/monster/6890e596-3409-4633-8606-b265a11e649d'
p340
aS'http://job-openings.monster.com/monster/74f9fb88-3e42-4a61-ade6-69ebcebf3789'
p341
aS'http://job-openings.monster.com/monster/63412c14-30f4-4500-9456-e740c70a266c'
p342
aS'http://jobview.monster.com/sr-spark-engineer-job-medford-ma-us-182641490.aspx'
p343
aS'http://job-openings.monster.com/monster/036994cd-52d6-4446-b2d8-9fad450e2019'
p344
aS'http://job-openings.monster.com/monster/18bb6f8d-f47a-4657-bb98-a5e5836431e4'
p345
aS'http://job-openings.monster.com/monster/0591da68-0513-4111-9e01-a3a5a32075be'
p346
aS'http://job-openings.monster.com/monster/8f2ac522-8760-485b-8264-0f29a6f8a3ab'
p347
aS'http://job-openings.monster.com/monster/7acfc55a-b7a8-4fa2-9441-420da4cb9bef'
p348
aS'http://job-openings.monster.com/monster/5195b56e-424f-42d7-a7d3-74d3e7b6e049'
p349
aS'http://job-openings.monster.com/monster/f5844f8a-75d1-47d5-b2e3-a7a5842da8c8'
p350
aS'http://jobview.monster.com/senior-scientist-job-andover-ma-us-182544792.aspx'
p351
aS'http://job-openings.monster.com/monster/3ad52659-9521-4992-97e1-185e9bb3556d'
p352
aS'http://job-openings.monster.com/monster/975343ad-9147-42e5-8e8d-16af35132d09'
p353
aS'http://job-openings.monster.com/monster/24dbdac0-0646-4fef-bd90-ac6284dd831b'
p354
aS'http://job-openings.monster.com/monster/38d13adf-f006-48bf-82a2-e42239cd9490'
p355
aS'http://job-openings.monster.com/monster/ab9ddfc8-44af-4896-897d-89031b7da118'
p356
aS'http://job-openings.monster.com/monster/c3b75d39-b37d-47d4-97fe-6cab7318b534'
p357
aS'http://jobview.monster.com/data-scientist-job-boston-ma-us-182655103.aspx'
p358
aS'http://job-openings.monster.com/monster/89917ba6-c1db-4532-91cf-af3406bf21cd'
p359
aS'http://job-openings.monster.com/monster/d05839d7-176a-4426-a141-3ed52fe17454'
p360
aS'http://job-openings.monster.com/monster/e0a2dc7e-c4ec-48ce-952d-e9e35de86c40'
p361
aS'http://job-openings.monster.com/monster/4c5adc34-bab3-4a14-b137-3f5ddb132af4'
p362
aS'http://job-openings.monster.com/monster/78e5c27d-6410-4d4d-ad0a-26d2214a4895'
p363
aS'http://job-openings.monster.com/monster/4eda778f-6e64-4485-8499-2b6c40a8c40d'
p364
aS'http://job-openings.monster.com/monster/2ca583c7-5728-4db4-93f4-c7f2c75f13dc'
p365
aS'http://job-openings.monster.com/monster/4183d328-6973-44f2-893a-158daafcbe6a'
p366
aS'http://job-openings.monster.com/monster/5824d305-203a-4fdc-bc14-8aca58b84a2b'
p367
aS'http://job-openings.monster.com/monster/be09f058-8565-474b-ba78-9c3baf60694a'
p368
aS'http://job-openings.monster.com/monster/5360efba-c47d-4748-825b-1da6ae2f1a1e'
p369
aS'http://job-openings.monster.com/monster/0bd609a5-d23b-40e8-b495-8820b176bf6f'
p370
aS'http://job-openings.monster.com/monster/d41a2120-aa4d-468a-8d4a-6771308eea1e'
p371
aS'http://job-openings.monster.com/monster/85942183-34fd-4d5a-b69f-35be3648605a'
p372
aS'http://job-openings.monster.com/monster/09c96326-89ff-4260-b69f-e91aa84c3bf7'
p373
aS'http://job-openings.monster.com/monster/f9b87e76-302e-4a98-a22c-fa0cfe9dbbed'
p374
aS'http://job-openings.monster.com/monster/38aec5dc-edb4-4073-9022-45657bcf2d5b'
p375
aS'http://job-openings.monster.com/monster/1ff6218e-1629-4599-8d46-964d5bfc3543'
p376
aS'http://job-openings.monster.com/monster/05c10729-3905-49fa-bfd9-edff3a05b036'
p377
aS'http://job-openings.monster.com/monster/9e3550be-6ac1-40c5-8db0-4656496af32e'
p378
aS'http://job-openings.monster.com/monster/85a2be40-12e6-4c11-9b27-e41441124e5e'
p379
aS'http://jobview.monster.com/qa-product-support-analyst-job-boston-ma-us-182659150.aspx'
p380
aS'http://job-openings.monster.com/monster/0e8f4fa7-536a-4209-b2a3-4c3dbfd5e192'
p381
aS'http://jobview.monster.com/vp-data-controls-quality-framework-delivery-multiple-locations-job-boston-ma-us-182523222.aspx'
p382
aS'http://job-openings.monster.com/monster/f88247e4-0ff5-4b42-bd01-222eecea11d2'
p383
aS'http://job-openings.monster.com/monster/86d6309c-8356-4771-8b9a-45f8744f1ef6'
p384
aS'http://job-openings.monster.com/monster/c0aa9fe4-5fcc-4793-b6ca-0c90209eb9a0'
p385
aS'http://job-openings.monster.com/monster/516af9bf-3358-4fe8-b349-521f0eb52941'
p386
aS'http://job-openings.monster.com/monster/5fab5fe6-bf96-4888-b48e-3135207f9ae4'
p387
aS'http://job-openings.monster.com/monster/0c444bf4-7d01-4f58-9ea4-a73ca068f0f2'
p388
aS'http://job-openings.monster.com/monster/5967e741-9be1-4b6a-bd0e-c6cca3bf3dd8'
p389
aS'http://job-openings.monster.com/monster/4ec8cbb1-b599-4f98-80fd-8afebed1b6e7'
p390
aS'http://jobview.monster.com/data-scientist-job-boston-ma-us-182942542.aspx'
p391
aS'http://job-openings.monster.com/monster/22dcce74-385c-4999-a212-5fd72a3acb71'
p392
aS'http://job-openings.monster.com/monster/1155910e-ad2b-430c-8735-2a130542e99d'
p393
aS'http://job-openings.monster.com/monster/52e45e27-8701-4492-8cd0-a352bf595a96'
p394
aS'http://job-openings.monster.com/monster/6c6db5c8-bdc5-4465-a25d-0e2d10b70540'
p395
aS'http://job-openings.monster.com/monster/570eb469-9953-49a3-a732-d8abd28fb19a'
p396
aS'http://job-openings.monster.com/monster/c49c1b82-9459-4566-b9eb-01bb7a5f81bd'
p397
aS'http://job-openings.monster.com/monster/cd7910b5-5095-457c-9560-b9b121e94509'
p398
aS'http://job-openings.monster.com/monster/960bdf41-5e08-403b-985b-62c87a11e67c'
p399
aS'http://job-openings.monster.com/monster/43ad0c85-39e5-4f05-9627-12534721dd14'
p400
aS'http://job-openings.monster.com/monster/3131a9a0-62d2-4379-b0db-09b1c68a4b01'
p401
aS'http://job-openings.monster.com/monster/dbe1c7d5-c0a9-46e5-bf1f-64e9feb58587'
p402
aS'http://jobview.monster.com/scientist-environmental-statistics-data-analytics-job-newton-ma-us-182658776.aspx'
p403
aS'http://job-openings.monster.com/monster/16da4a5a-045c-4db9-bf1c-0c9e4b21eb10'
p404
aS'http://job-openings.monster.com/monster/095d10cc-9612-46d3-9766-85aca4415e70'
p405
aS'http://job-openings.monster.com/monster/87d367f6-afc0-4f79-a879-3eeb3f62fa9c'
p406
aS'http://job-openings.monster.com/monster/708b0e91-4ebf-4532-bd2c-f6b9eb8cdb24'
p407
aS'http://job-openings.monster.com/monster/482a22db-ad1e-4c28-ab51-bdab9a5c2da9'
p408
aS'http://job-openings.monster.com/monster/8cc4158c-a555-4330-96cd-a0d3891411ed'
p409
aS'http://jobview.monster.com/scientist-job-andover-ma-us-182545362.aspx'
p410
aS'http://job-openings.monster.com/monster/651924a0-3d87-4022-9ff0-99e1bb5f374a'
p411
aS'http://job-openings.monster.com/monster/8f550832-8f97-4850-ae77-e1756f51f95d'
p412
aS'http://job-openings.monster.com/monster/b3fd1f44-abd3-4cf0-8ab3-12b64ce9ea17'
p413
aS'http://job-openings.monster.com/monster/54d9a1a4-9a1b-467a-a5bf-b3888aa2b8c5'
p414
aS'http://job-openings.monster.com/monster/7c40a6dd-3c6e-4fd0-bed2-520044465f0e'
p415
aS'http://job-openings.monster.com/monster/6defadbd-04c9-4305-8790-2b875e94b371'
p416
aS'http://job-openings.monster.com/monster/217fcfb5-4b9b-4b13-9fd9-0a6a16d769ea'
p417
aS'http://job-openings.monster.com/monster/2559ca03-da7e-477a-887c-0b7cbdfa4d01'
p418
aS'http://job-openings.monster.com/monster/a9525784-8e41-43c0-b3a7-5f24224ab7cb'
p419
aS'http://job-openings.monster.com/monster/46f3f59c-1885-4e7b-bf34-7723ed9a4157'
p420
aS'http://job-openings.monster.com/monster/625dfd86-dd9c-4fcb-a5eb-0d5af978fcf3'
p421
aS'http://job-openings.monster.com/monster/dc92a577-0158-457e-9e7d-4501296143a4'
p422
aS'http://job-openings.monster.com/monster/a0033450-f660-45a4-8481-5d00fefff8ec'
p423
aS'http://jobview.monster.com/data-scientist-predictive-analytics-consultants-job-boston-ma-us-181669371.aspx'
p424
aS'http://job-openings.monster.com/monster/1551fff2-d9a1-42b1-b19f-b26f93a7dfe1'
p425
aS'http://job-openings.monster.com/monster/9a2108e6-524c-4757-980c-6aceaf160fc8'
p426
aS'http://job-openings.monster.com/monster/85b98bc3-e18e-4514-a686-91c6f2732092'
p427
aS'http://job-openings.monster.com/monster/8f6107aa-0edc-432e-b555-fdddb6096c83'
p428
aS'http://jobview.monster.com/tech-recruiter-job-boston-ma-us-182433904.aspx'
p429
aS'http://job-openings.monster.com/monster/cda8e46d-2926-4048-9b97-20a6aae20c49'
p430
aS'http://job-openings.monster.com/monster/0addd646-c5a8-46e7-a1d0-a939b8f761c5'
p431
aS'http://job-openings.monster.com/monster/056d53e5-4563-4c60-b55d-5a4150e5d2fc'
p432
aS'http://job-openings.monster.com/monster/e043ce55-3a57-4631-8bdb-b583db347778'
p433
aS'http://jobview.monster.com/data-job-newton-center-ma-us-182914099.aspx'
p434
aS'http://job-openings.monster.com/monster/f4991fe7-19b7-4b4d-b7b1-449f9481ae0e'
p435
aS'http://job-openings.monster.com/monster/fa50532a-c25d-4da8-a39e-6941981d2de4'
p436
aS'http://job-openings.monster.com/monster/e52165ac-2dec-4296-a2e6-0eac38e044fa'
p437
aS'http://job-openings.monster.com/monster/fa2888d8-969c-4eb3-b92c-34ef8ae27e69'
p438
aS'http://job-openings.monster.com/monster/569b8987-3d0f-46fc-9c22-848d73c07f7a'
p439
aS'http://job-openings.monster.com/monster/f978c69d-94ae-482a-b153-af8fbbc4bbf2'
p440
aS'http://job-openings.monster.com/monster/7727cbbd-f668-46e6-a43f-90fb76edaf52'
p441
aS'http://job-openings.monster.com/monster/e8fda3a0-84b6-43fc-bb2b-147aad61b904'
p442
aS'http://job-openings.monster.com/monster/8367d437-85e1-4004-bba3-a740659b5cd3'
p443
aS'http://job-openings.monster.com/monster/192888c4-584d-49b4-ab72-b5005519b1d0'
p444
aS'http://job-openings.monster.com/monster/57a9afbc-712f-4374-a9e5-d9da518df882'
p445
aS'http://job-openings.monster.com/monster/3789ebde-e257-44d3-a941-f3e61e1509ec'
p446
aS'http://job-openings.monster.com/monster/88b40cbc-722e-4b6c-8757-1dca3ca3a9d4'
p447
aS'http://job-openings.monster.com/monster/9a5c067b-d2a9-4f89-8536-79218bdf9197'
p448
aS'http://job-openings.monster.com/monster/03907257-0121-47bb-b420-1e08f4ce21a4'
p449
aS'http://job-openings.monster.com/monster/6a340cfa-75f5-4e69-9a02-a788787a3993'
p450
aS'http://job-openings.monster.com/monster/bc150dc7-ef0c-43d9-b0ca-e27902f4537b'
p451
aS'http://job-openings.monster.com/monster/ee7b6f45-79ca-47bd-9357-902b34268469'
p452
aS'http://job-openings.monster.com/monster/35d8812b-093a-4f89-9c68-35468fedd301'
p453
aS'http://job-openings.monster.com/monster/96f87745-df53-4291-8c60-8578301897e4'
p454
aS'http://job-openings.monster.com/monster/32857745-5b7b-44ca-bfc3-1f66745aff64'
p455
aS'http://job-openings.monster.com/monster/e8038048-ae29-498c-89e2-c3720af2a4e1'
p456
aS'http://job-openings.monster.com/monster/d59c3c20-e58b-4457-a89a-562149525dee'
p457
aS'http://job-openings.monster.com/monster/1256edf2-b674-424f-97e4-ac1422c54b25'
p458
aS'http://job-openings.monster.com/monster/1d2a251e-54f7-4398-a3ca-b7242860f487'
p459
aS'http://jobview.monster.com/senior-scientist-job-andover-ma-us-182546218.aspx'
p460
aS'http://job-openings.monster.com/monster/e3480e26-6d06-4789-8f97-ba40ecae557e'
p461
aS'http://job-openings.monster.com/monster/649381bb-463f-47a6-ae90-aa8d869694b6'
p462
aS'http://job-openings.monster.com/monster/52231ba1-0e72-4c59-a4d7-00aa799ae399'
p463
aS'http://job-openings.monster.com/monster/8177b84d-61b3-48be-b176-a635d26adf52'
p464
aS'http://job-openings.monster.com/monster/4da48975-d344-4057-9362-d886a77b1b79'
p465
aS'http://job-openings.monster.com/monster/def4715a-28ae-40ba-9a56-7870f767f94c'
p466
aS'http://job-openings.monster.com/monster/75c7a552-38a4-4796-b82d-642411d57cca'
p467
aS'http://job-openings.monster.com/monster/ad175992-a446-4bb0-bab3-5ed111d2b879'
p468
aS'http://job-openings.monster.com/monster/c6b98d4b-31a7-45c0-bfaa-13c77e006513'
p469
aS'http://job-openings.monster.com/monster/23634c17-5031-4eee-a616-02bcd6220b62'
p470
aS'http://job-openings.monster.com/monster/72a2f5ff-94c0-416c-9ef7-be2cd7443151'
p471
aS'http://job-openings.monster.com/monster/fb6e641b-2ba3-4a35-985c-991928f74433'
p472
aS'http://job-openings.monster.com/monster/96f006a9-e964-4ec9-b4f7-2f14d5b3dd9d'
p473
aS'http://jobview.monster.com/data-analyst-data-modeling-pharma-life-science-job-boston-ma-us-183122597.aspx'
p474
aS'http://job-openings.monster.com/monster/3afb2b19-cfd4-4e30-803f-451cf97cfde5'
p475
aS'http://job-openings.monster.com/monster/578a17c8-fefc-434d-b01f-b19e947f9543'
p476
aS'http://job-openings.monster.com/monster/a280ddf6-2100-46c4-9751-2604d5860d67'
p477
aS'http://job-openings.monster.com/monster/1c9e0476-ec31-4aa4-8b89-05e53cec1f57'
p478
aS'http://job-openings.monster.com/monster/92cda12a-fdb0-46ee-9f76-6441a0bec348'
p479
aS'http://job-openings.monster.com/monster/7bb2f55b-ca71-4c0a-89bd-6d0cc6dd88a8'
p480
aS'http://job-openings.monster.com/monster/ff081c33-293c-46dc-abf7-72d0be9460e7'
p481
aS'http://jobview.monster.com/sr-scientist-immunogenicity-job-andover-ma-us-182545928.aspx'
p482
aS'http://job-openings.monster.com/monster/c9df409f-00a6-4c09-9880-b761d49bce40'
p483
aS'http://job-openings.monster.com/monster/2c64b6ca-60f4-4225-b4a2-86a2de1c423e'
p484
aS'http://job-openings.monster.com/monster/d2c7851e-fd01-41a1-bd54-ae96e66df317'
p485
aS'http://jobview.monster.com/data-scientist-job-cambridge-ma-us-182901296.aspx'
p486
aS'http://job-openings.monster.com/monster/1b7f5ab3-ea13-4ca2-8e51-a17de4337376'
p487
aS'http://job-openings.monster.com/monster/28b2b604-17b4-4bb9-a353-948fb2e14587'
p488
aS'http://job-openings.monster.com/monster/aca23176-69c7-4ea5-b242-4d173f132308'
p489
aS'http://job-openings.monster.com/monster/0a7c44be-225f-4450-94c2-65351340a01c'
p490
aS'http://job-openings.monster.com/monster/d3958ff3-e4a8-439f-98d4-ea450f6d08ed'
p491
aS'http://job-openings.monster.com/monster/c97ebf6e-704f-4e22-98f0-f32d2d42e71b'
p492
aS'http://job-openings.monster.com/monster/1c07bdc6-60bd-4c5c-a97a-fed49bc81de4'
p493
aS'http://job-openings.monster.com/monster/1b7f3f17-9ece-4223-9bf2-d71083c4d6f8'
p494
aS'http://job-openings.monster.com/monster/f11140fd-c6bd-4fdc-9804-9a6d75872ee0'
p495
aS'http://job-openings.monster.com/monster/3ec4ccc6-a86f-4b97-a1d6-9a331c8e1c63'
p496
aS'http://job-openings.monster.com/monster/1e5175c2-09aa-463b-84ca-5e81030e13e5'
p497
aS'http://job-openings.monster.com/monster/1893bd70-a316-4109-bf52-5e99e032bbbb'
p498
aS'http://job-openings.monster.com/monster/d780eaeb-cc35-40d3-bf58-8cd3f2a060f0'
p499
aS'http://job-openings.monster.com/monster/7b30e4a0-cd78-422b-8116-d7cf0ef655d2'
p500
aS'http://job-openings.monster.com/monster/a6e2b6e6-742a-413a-8b5b-360bacde1dcc'
p501
aS'http://job-openings.monster.com/monster/c4e47c7a-91dd-4900-b2ef-671302bff98b'
p502
aS'http://job-openings.monster.com/monster/3d1e67b6-abde-4ab2-acd3-788388a2808c'
p503
aS'http://job-openings.monster.com/monster/2cfeb9c0-0abf-4d8b-a43b-c1b7225b342c'
p504
aS'http://job-openings.monster.com/monster/bcd00da1-65cb-4f4a-a779-0173454d88db'
p505
aS'http://job-openings.monster.com/monster/d6f0f64a-9f7d-42d2-ac09-8fa99167ba5c'
p506
aS'http://job-openings.monster.com/monster/0a819512-0732-42d9-a96b-075525dfe55d'
p507
aS'http://job-openings.monster.com/monster/332ef6e7-6d9f-4995-a573-e4ccb33e8458'
p508
aS'http://job-openings.monster.com/monster/6f4a588d-ec33-4c85-be77-4cff8616b9e0'
p509
aS'http://job-openings.monster.com/monster/1505b420-3f04-4a5b-8698-2ed02187d541'
p510
aS'http://job-openings.monster.com/monster/b40479b3-74bd-4268-8656-ef32a07ea4f0'
p511
aS'http://job-openings.monster.com/monster/85a465d1-81eb-4ff5-9ff6-8a1795549c3c'
p512
aS'http://job-openings.monster.com/monster/bc9f0d5b-4eca-4bd2-ba1c-71d378126ba8'
p513
aS'http://job-openings.monster.com/monster/6b81fa90-94a1-4720-83ad-bcf8414554e2'
p514
aS'http://job-openings.monster.com/monster/381fde8a-c627-4a68-95f4-35a9275661ce'
p515
aS'http://job-openings.monster.com/monster/593096ae-71b4-4d2c-8f17-0fc8eab301e7'
p516
aS'http://job-openings.monster.com/monster/038d6df9-f2b9-42fa-aedd-9228f84c2424'
p517
aS'http://job-openings.monster.com/monster/566f7712-fab9-4072-b839-55023a098e44'
p518
aS'http://job-openings.monster.com/monster/34c22af1-9fe3-4008-9396-2782774f63b3'
p519
aS'http://job-openings.monster.com/monster/dce5abcd-feed-4a60-b8c3-5de2924f9364'
p520
aS'http://job-openings.monster.com/monster/8369e85b-8785-4620-aae5-066b24cbf03c'
p521
aS'http://job-openings.monster.com/monster/19ee6571-6c42-4c0e-8cf6-df6dae4e8947'
p522
aS'http://job-openings.monster.com/monster/cfaa80a6-8b56-4f1e-ad95-2d84fb34c494'
p523
aS'http://job-openings.monster.com/monster/046049f0-a5ba-486d-9c38-00c0a267646f'
p524
aS'http://job-openings.monster.com/monster/7e21c828-4546-4b93-8d45-10daf2b54ffc'
p525
aS'http://job-openings.monster.com/monster/8b30f8f7-178c-49cd-99a4-ba4bfd4890b8'
p526
aS'http://job-openings.monster.com/monster/b3902b0d-ace2-464c-a30a-74234cfbdde6'
p527
aS'http://job-openings.monster.com/monster/ea819933-851c-47b0-a81e-20d3953123a8'
p528
aS'http://job-openings.monster.com/monster/61b9a0da-484a-46b1-ab34-b33942654de6'
p529
aS'http://job-openings.monster.com/monster/e289c02a-7a6c-4969-98b7-a1df6fa6e215'
p530
aS'http://job-openings.monster.com/monster/1b2f8678-9afd-40a4-902a-f261607b7cfe'
p531
aS'http://job-openings.monster.com/monster/3ede5f42-cc62-4c8c-b913-e3a82d38d874'
p532
aS'http://job-openings.monster.com/monster/babec861-a441-45a1-a90c-f1ea877df54e'
p533
aS'http://job-openings.monster.com/monster/748682ab-6777-4931-8e7b-ff764f545825'
p534
aS'http://job-openings.monster.com/monster/6c8ddc8a-8fb4-4559-9982-a5e6df0e1fcc'
p535
aS'http://job-openings.monster.com/monster/80c411d3-6a65-42c6-a72d-eca4dfeb9de8'
p536
aS'http://job-openings.monster.com/monster/63fa4551-80d2-4e27-b8a2-02a1dbc58627'
p537
aS'http://job-openings.monster.com/monster/3ad3cf7a-65d3-48da-bca3-4a219c90b349'
p538
aS'http://job-openings.monster.com/monster/8c9da232-7a6d-4d3a-b66f-13eb64fb0595'
p539
aS'http://job-openings.monster.com/monster/b4948c5a-9de8-4356-b696-bc3d44dd2fd6'
p540
aS'http://job-openings.monster.com/monster/f8169e25-733b-4686-aa1a-75172f6ee602'
p541
aS'http://job-openings.monster.com/monster/de46f673-720e-404c-bf45-941147bb202c'
p542
aS'http://job-openings.monster.com/monster/5d8cd15b-a409-47d9-9f02-39275d66e135'
p543
aS'http://job-openings.monster.com/monster/9ad33e72-59ca-4742-ba29-8045c7552391'
p544
aS'http://job-openings.monster.com/monster/efa9f702-95a9-4984-a364-49f54d7c0195'
p545
aS'http://job-openings.monster.com/monster/0af1036f-08fd-4e89-a082-cd2277ae40bd'
p546
aS'http://job-openings.monster.com/monster/bba451c2-7799-475f-8693-385332cde242'
p547
aS'http://job-openings.monster.com/monster/a9c78974-5807-41a1-9b08-2ed6daa38e3f'
p548
aS'http://job-openings.monster.com/monster/93af19da-7a3c-427b-b225-80e166a7563a'
p549
aS'http://job-openings.monster.com/monster/cbfd82b4-09af-4fbe-83bd-f9f49034a1a9'
p550
aS'http://job-openings.monster.com/monster/109e3eb5-97c9-4d6e-b6b8-33f6037ae401'
p551
aS'http://job-openings.monster.com/monster/d21875da-e8f0-49e2-9d37-4675b151f204'
p552
aS'http://jobview.monster.com/computational-biologist-job-cambridge-ma-us-182546924.aspx'
p553
aS'http://job-openings.monster.com/monster/19f95232-0300-4706-a413-41c90c953875'
p554
aS'http://job-openings.monster.com/monster/61d97ce6-30ac-43bf-8e30-3686772f78cb'
p555
aS'http://job-openings.monster.com/monster/b8bb3ed2-aeea-4fa6-8e59-947895f9c620'
p556
aS'http://job-openings.monster.com/monster/0aab0ba9-3d0b-442e-87a0-6224a8952c3c'
p557
aS'http://job-openings.monster.com/monster/d539897a-a694-4a27-9300-28343b72725e'
p558
aS'http://job-openings.monster.com/monster/8f914a24-9c3b-40dd-a6e5-3a3a476765ef'
p559
aS'http://job-openings.monster.com/monster/a974833e-56b8-47cc-8c8b-08001e0cfbad'
p560
aS'http://job-openings.monster.com/monster/f6e6c970-4ae8-4ec2-803a-9ef46205e799'
p561
aS'http://job-openings.monster.com/monster/e544548a-1d64-4abd-9906-5510d17cd241'
p562
aS'http://job-openings.monster.com/monster/54fadad1-0766-435f-99f2-be5f2832b4ad'
p563
aS'http://job-openings.monster.com/monster/7b28e38f-8ed8-4b75-9a7a-d937f16a9bbd'
p564
aS'http://job-openings.monster.com/monster/a9baebcd-2107-4f6f-9190-2c90f3b64ede'
p565
aS'http://job-openings.monster.com/monster/2c79660f-c37e-407e-aad7-e58f4949e67f'
p566
aS'http://job-openings.monster.com/monster/a582b9ec-cff2-41d4-9e4e-453dcabbba28'
p567
aS'http://job-openings.monster.com/monster/89bd3df3-6231-44a8-a02f-40795bce80af'
p568
aS'http://job-openings.monster.com/monster/eae36c25-299c-47a1-b313-851cdb1c7740'
p569
aS'http://job-openings.monster.com/monster/973a59a9-f84c-41f1-9f94-f7fbeb751573'
p570
aS'http://job-openings.monster.com/monster/49c3dd34-4a72-4ba6-92d1-144ce003fa07'
p571
aS'http://job-openings.monster.com/monster/79710845-52ae-4c9d-806c-7d567c3bcfc0'
p572
aS'http://job-openings.monster.com/monster/32183ad6-3429-40da-af01-d774d9dba80e'
p573
aS'http://job-openings.monster.com/monster/31eb85db-5a80-4c83-b37c-15f76f84d99d'
p574
aS'http://job-openings.monster.com/monster/b2c11565-9d54-4a62-9598-b98126c1f73d'
p575
aS'http://jobview.monster.com/sr-scientist-job-framingham-ma-us-182006972.aspx'
p576
aS'http://job-openings.monster.com/monster/5d142460-2b11-4fc9-8ccb-a3ccc54cccb5'
p577
a.