(lp1
S'http://jobview.monster.com/data-scientist-consultant-job-piscataway-nj-us-182269233.aspx'
p2
aS'http://job-openings.monster.com/monster/df27f39c-190b-4e9e-87ec-b4cd4e3e1ba5'
p3
aS'http://job-openings.monster.com/monster/ac81d67f-6afb-440c-8712-52856f999378'
p4
aS'http://job-openings.monster.com/monster/de65ce1c-f71d-42c5-97d8-94773a619116'
p5
aS'http://job-openings.monster.com/monster/83c628d2-d32c-42d0-8483-d226a0107c67'
p6
aS'http://job-openings.monster.com/monster/009bad99-5b6e-4c7d-8e12-a4625030831e'
p7
aS'http://job-openings.monster.com/monster/3c7ca046-ef33-4225-b892-0281e2a6ef13'
p8
aS'http://job-openings.monster.com/monster/3b5ee615-ee45-4fb9-8d49-79b0b759a87a'
p9
aS'http://job-openings.monster.com/monster/36983208-5d63-43d5-b935-891939c30911'
p10
aS'http://job-openings.monster.com/monster/5dbe63a3-c521-48b0-8873-c2ffd1b9d77b'
p11
aS'http://job-openings.monster.com/monster/2920f023-e08e-40e5-8d90-f3364e5f5c0c'
p12
aS'http://job-openings.monster.com/monster/910ed689-55e1-4977-97a1-0af56a44e5b6'
p13
aS'http://job-openings.monster.com/monster/cb55e2ae-0c09-40e4-9c1e-795426916765'
p14
aS'http://jobview.monster.com/ivd-testing-job-flanders-nj-us-182398380.aspx'
p15
aS'http://job-openings.monster.com/monster/8e6f4cc5-d3fa-47c9-b545-3501cbc73e83'
p16
aS'http://job-openings.monster.com/monster/d4566aaf-2f3d-4c1b-adb9-fb0abb3bad8f'
p17
aS'http://jobview.monster.com/molecular-genetics-analyst-job-livingston-nj-us-182332546.aspx'
p18
aS'http://job-openings.monster.com/monster/f1862795-870c-442f-b4af-880f450292eb'
p19
aS'http://jobview.monster.com/systems-administrator-job-fort-dix-nj-us-182123431.aspx'
p20
aS'http://job-openings.monster.com/monster/ae59e530-deed-46f7-afa6-77acec6c9b1b'
p21
aS'http://job-openings.monster.com/monster/2871d9a8-8432-4e28-9f68-7f57a4ae817a'
p22
aS'http://job-openings.monster.com/monster/1326e09a-0792-43ac-a7d9-3bf3de32769f'
p23
aS'http://job-openings.monster.com/monster/e11558d9-3e89-4b4b-973e-6323feac7535'
p24
aS'http://job-openings.monster.com/monster/049f7279-6e9a-4e74-9a65-92c97ce4ffe5'
p25
aS'http://job-openings.monster.com/monster/06330107-3239-432c-8bdd-6df1cf73cc0d'
p26
aS'http://job-openings.monster.com/monster/9391c295-c952-474f-8f59-1b3478c85bb1'
p27
aS'http://job-openings.monster.com/monster/a4af86d4-d920-40c4-944f-22d683887477'
p28
aS'http://job-openings.monster.com/monster/c8ea0252-9d39-42a3-804d-0a378f9c8c05'
p29
aS'http://job-openings.monster.com/monster/16ab5df4-460c-4070-8b54-54ac935e1731'
p30
aS'http://job-openings.monster.com/monster/962eb72e-ba19-49c2-bca1-2ccf25bccf16'
p31
aS'http://job-openings.monster.com/monster/cd13dc7a-e27a-4bf5-a640-618a45f5b62b'
p32
aS'http://jobview.monster.com/data-governance-data-analysts-job-warren-nj-us-182946055.aspx'
p33
aS'http://job-openings.monster.com/monster/c4db351c-4731-48fd-b2b3-f5b2d3b4368d'
p34
aS'http://job-openings.monster.com/monster/2655a114-cbf4-4aa2-b24b-c686e4011708'
p35
aS'http://job-openings.monster.com/monster/d5d12a98-24b0-451e-8438-8f617bc85456'
p36
aS'http://job-openings.monster.com/monster/ffbb9cc0-f55b-42e0-a7f1-f44dba0b97ed'
p37
aS'http://job-openings.monster.com/monster/c39fff63-8ce3-45ae-beb5-e76cb4afa63b'
p38
aS'http://job-openings.monster.com/monster/3bb06912-6d0f-4254-9b4e-ed977824e127'
p39
aS'http://job-openings.monster.com/monster/f93e913a-d3e5-49a4-8952-4d9b77ee9547'
p40
aS'http://job-openings.monster.com/monster/a25b7451-3da2-426c-9022-c6c7f3d55b13'
p41
aS'http://job-openings.monster.com/monster/b3eca61e-930a-40a1-be4e-19a280d3ca56'
p42
aS'http://job-openings.monster.com/monster/def486d6-ce4b-40fe-a805-31c156185846'
p43
aS'http://job-openings.monster.com/monster/1cc8cce8-7d90-409d-b4d8-dce6b398b278'
p44
aS'http://job-openings.monster.com/monster/6f7b273a-5e02-4e5e-9d33-c66ec4b1134d'
p45
aS'http://job-openings.monster.com/monster/31667496-0900-48bc-8023-0532cfe7f0c2'
p46
aS'http://job-openings.monster.com/monster/911543c8-2f4b-41d1-a226-0fbf9344c18b'
p47
aS'http://job-openings.monster.com/monster/189754c6-7ef9-430d-8900-df552d242af6'
p48
aS'http://job-openings.monster.com/monster/00f85bbb-ad21-4640-b075-bfbba28986fb'
p49
aS'http://job-openings.monster.com/monster/7b1eb6e9-f9d8-4f6a-bb5c-488fd63bf19f'
p50
aS'http://job-openings.monster.com/monster/7f5a91c5-029e-48a5-b255-6124a475c8c2'
p51
aS'http://job-openings.monster.com/monster/67a90fcc-287a-4288-b792-1ecef24619a5'
p52
aS'http://job-openings.monster.com/monster/9195e52e-0c61-4d25-8834-8adfac99b523'
p53
aS'http://job-openings.monster.com/monster/9b5edbce-b35c-4d5a-bfe3-63891b67d6fd'
p54
aS'http://job-openings.monster.com/monster/3cd8e63f-192f-4135-8a9f-8680016bdd96'
p55
aS'http://job-openings.monster.com/monster/8c238cf8-cb33-481a-bcef-588ac718da6d'
p56
aS'http://job-openings.monster.com/monster/328a45ff-e954-46b4-b5ff-d60ef8b8e99e'
p57
aS'http://job-openings.monster.com/monster/3f38b41e-da84-4086-a9fe-c042bd34c9d7'
p58
aS'http://job-openings.monster.com/monster/dcabfe75-c0a7-41f5-8f40-86b4d5b1339a'
p59
aS'http://job-openings.monster.com/monster/18f9e2af-31f8-4cf0-983b-1ee2ff8a05ce'
p60
aS'http://job-openings.monster.com/monster/4df8a196-e127-454a-92f9-935f3989f3ea'
p61
aS'http://job-openings.monster.com/monster/106fc63a-9866-4e0b-8a25-f7ccb904e7fd'
p62
aS'http://job-openings.monster.com/monster/f0d07267-cc2f-4afe-b6d1-b62e8da102f5'
p63
aS'http://job-openings.monster.com/monster/d4cc61c1-1034-41f7-9685-5c638fb306ad'
p64
aS'http://job-openings.monster.com/monster/3abfd0f3-9405-4eaf-ba0f-7ba15edc36b6'
p65
aS'http://job-openings.monster.com/monster/4a7d3222-d8c5-4489-a582-b3f3d28e5654'
p66
aS'http://job-openings.monster.com/monster/c12af0a0-664e-49b2-a625-11ba3bbbf338'
p67
aS'http://job-openings.monster.com/monster/fd60d391-5b50-41e9-a626-27bac2c42903'
p68
aS'http://job-openings.monster.com/monster/cd618371-7099-41e8-9fda-f798d4bef8ce'
p69
aS'http://job-openings.monster.com/monster/e7bc8532-0ec5-44d3-95fa-dfa26cd1c127'
p70
aS'http://job-openings.monster.com/monster/5b65f04b-351f-4523-9b5d-e162e71f7a08'
p71
aS'http://job-openings.monster.com/monster/8f73c1c8-2046-4f89-affa-5f803c6ce134'
p72
aS'http://job-openings.monster.com/monster/08f479de-cc67-4adb-bd06-f158cf75a929'
p73
aS'http://job-openings.monster.com/monster/bfc669a8-df31-4d91-8476-ab297e1a14a4'
p74
aS'http://job-openings.monster.com/monster/fbed9cdf-c9bd-4fe6-9b4f-ededfef17f79'
p75
aS'http://job-openings.monster.com/monster/d8436bd7-c261-4350-b8b9-d8f541fc42b9'
p76
aS'http://job-openings.monster.com/monster/557beaab-f387-444c-a40b-138a5009d096'
p77
aS'http://job-openings.monster.com/monster/4cb967a2-16c4-4a5e-bd3f-b58b962ae45b'
p78
aS'http://job-openings.monster.com/monster/4b085c47-e672-4f04-b340-eb7063a47b85'
p79
aS'http://jobview.monster.com/big-data-engineers-job-warren-nj-us-182426599.aspx'
p80
aS'http://job-openings.monster.com/monster/fa2a0b15-d75c-4526-b17b-3f566b0bbd17'
p81
aS'http://job-openings.monster.com/monster/b8cc667f-e496-4306-ab24-ae276e0429e1'
p82
aS'http://job-openings.monster.com/monster/fe3f5222-0aef-4d30-8d2f-0342b466f4dd'
p83
aS'http://job-openings.monster.com/monster/cbceaef9-ca17-4b8f-b1b1-4fd589a3d9b4'
p84
aS'http://job-openings.monster.com/monster/581afc35-bc36-4e78-8451-1fdf28f16310'
p85
aS'http://job-openings.monster.com/monster/6b915e71-6fda-4d0c-828b-78216007311a'
p86
aS'http://job-openings.monster.com/monster/810fbdac-3ae0-4c6a-8b2d-d574c66131d6'
p87
aS'http://job-openings.monster.com/monster/c3bf5ad7-d7b2-4a76-be87-02dbdc3ccf8b'
p88
aS'http://job-openings.monster.com/monster/af9e3609-8407-411f-9448-6c618f4a1399'
p89
aS'http://job-openings.monster.com/monster/4ce30023-96a9-45a7-ad22-0a07403176d9'
p90
aS'http://job-openings.monster.com/monster/703083cb-4302-4c31-889c-0a46824d64e2'
p91
aS'http://job-openings.monster.com/monster/6e4d26dc-cd6d-461e-a1be-d82b86738a82'
p92
aS'http://job-openings.monster.com/monster/33f0a652-4e76-4308-aae3-82219eef9d40'
p93
aS'http://job-openings.monster.com/monster/4c7bbdfd-fec7-47a9-aa22-3731d72c7bf1'
p94
aS'http://job-openings.monster.com/monster/08a36b89-0302-4123-98fe-de8345c72a78'
p95
aS'http://job-openings.monster.com/monster/b929f0c8-69dc-49c0-a27b-8668f61cd7b6'
p96
aS'http://job-openings.monster.com/monster/d3c2348f-a597-4844-a20a-09abb35bdc7c'
p97
aS'http://job-openings.monster.com/monster/6fca749c-f396-462a-88f4-e52b480f92fa'
p98
aS'http://job-openings.monster.com/monster/46d055a2-cfa7-4cd2-b279-720aac47a733'
p99
aS'http://job-openings.monster.com/monster/a3f68609-b085-47df-81d5-62beb7549d0a'
p100
aS'http://job-openings.monster.com/monster/54b29886-7f35-4d8e-9228-c25a8f72b7f5'
p101
aS'http://job-openings.monster.com/monster/07438e2b-98d9-44ec-92bf-ed40111fe5bd'
p102
aS'http://job-openings.monster.com/monster/da64e72c-25f1-41aa-9016-01f57491e978'
p103
aS'http://job-openings.monster.com/monster/a9bd6998-c3d9-4568-a282-c4ec3c23a35c'
p104
aS'http://job-openings.monster.com/monster/398f3cf7-6480-4746-8950-6dda69fa3452'
p105
aS'http://job-openings.monster.com/monster/4bd1f59f-ccaa-4803-be07-8271b9cb263a'
p106
aS'http://job-openings.monster.com/monster/3125e796-f6bb-4eb8-b320-fb0ab7e9ce7e'
p107
aS'http://job-openings.monster.com/monster/32e280a0-f000-43ea-8145-e3415b8ea721'
p108
aS'http://job-openings.monster.com/monster/c2e8a778-0175-4c40-8d9c-f15d83fc9584'
p109
aS'http://job-openings.monster.com/monster/414024ac-2ec5-4a04-a6d0-ef4c57ee11aa'
p110
aS'http://job-openings.monster.com/monster/2d8b7cf2-58aa-4436-be48-cef26238b31a'
p111
aS'http://job-openings.monster.com/monster/814b337e-93b4-4dbc-b27e-99d8656a0899'
p112
aS'http://job-openings.monster.com/monster/29e63c37-04a2-4e17-b486-3025dfc227b7'
p113
aS'http://job-openings.monster.com/monster/6ce40d1b-bc68-4dd8-8eb6-d450cfd993e2'
p114
aS'http://job-openings.monster.com/monster/bac7a3d3-b3a0-4c6a-96c8-25f6d06efe41'
p115
aS'http://jobview.monster.com/director-predictive-analytics-job-newark-nj-us-182279527.aspx'
p116
aS'http://job-openings.monster.com/monster/58cebafc-85db-46fb-a6fa-a1062874a7ce'
p117
aS'http://job-openings.monster.com/monster/0649a025-5c3b-4518-bd9e-c2ae154e5a99'
p118
aS'http://job-openings.monster.com/monster/e212cf59-34c8-4b4e-a5c4-a78747ff4f70'
p119
aS'http://job-openings.monster.com/monster/b3e10431-a507-4fa1-95ae-6d9f1b666650'
p120
aS'http://job-openings.monster.com/monster/27f93924-4241-4459-874b-21e67a59cfa8'
p121
aS'http://job-openings.monster.com/monster/41fb75bc-31fa-4593-ac6b-d1ff0106ff41'
p122
aS'http://job-openings.monster.com/monster/284ffded-f6a3-4b34-92be-32d5dabef8b6'
p123
aS'http://job-openings.monster.com/monster/e5ca7e9b-e69d-4c5e-83e7-5ce8d0a9f314'
p124
aS'http://job-openings.monster.com/monster/f3f68154-e378-47da-9653-f26a0679074e'
p125
aS'http://job-openings.monster.com/monster/bdc7869f-8dfc-4de2-a697-1616263b3d81'
p126
aS'http://job-openings.monster.com/monster/f835f0c6-ff4b-4b34-9296-1e9146cfc286'
p127
aS'http://job-openings.monster.com/monster/5e7cb459-9aac-43e4-9c7f-9dfb6cb44676'
p128
aS'http://job-openings.monster.com/monster/9350e501-48df-43f2-8f1d-dcd685d5ff23'
p129
aS'http://job-openings.monster.com/monster/936ba116-65a5-4155-9817-70e14077ed54'
p130
aS'http://job-openings.monster.com/monster/d9bb5599-2d12-4be1-9d37-697a2161150f'
p131
aS'http://job-openings.monster.com/monster/180d3633-5654-438a-ae26-d78c91450a0f'
p132
aS'http://job-openings.monster.com/monster/2071b003-b3e6-4a80-a019-d6939b75340b'
p133
aS'http://job-openings.monster.com/monster/d2f4b5ad-c4c4-4385-9d01-c5c1516b0958'
p134
aS'http://job-openings.monster.com/monster/740d0bf2-23a3-4b6d-83ee-0632ca181dc2'
p135
aS'http://job-openings.monster.com/monster/b0bc2f4b-8f7c-4f9d-84ff-9cea57301f06'
p136
aS'http://job-openings.monster.com/monster/fda880d0-6731-4534-86be-8a9b775f9063'
p137
aS'http://job-openings.monster.com/monster/b373f5f3-dc97-4e53-b430-865639ecd2bb'
p138
aS'http://job-openings.monster.com/monster/a776301d-1770-4790-ab6a-a7f3f903e0d2'
p139
aS'http://job-openings.monster.com/monster/5821e1e1-3ffc-4b3c-a278-1f6cd772d8ff'
p140
aS'http://job-openings.monster.com/monster/719553aa-6bf3-4ee9-8e4c-345811cff8fb'
p141
aS'http://job-openings.monster.com/monster/a32acae3-8281-42d5-bd8f-9a6c1eea47b6'
p142
aS'http://job-openings.monster.com/monster/fa8ceede-37dc-42f1-843e-2447062cdbdf'
p143
aS'http://job-openings.monster.com/monster/ba38770c-eed7-4cf9-9cbe-3325e1b06d38'
p144
aS'http://job-openings.monster.com/monster/d1fb6a2a-c31b-41a6-8376-b6acf00b1bab'
p145
aS'http://job-openings.monster.com/monster/13bcecde-c556-4fa2-ac26-5079a2ac5aee'
p146
aS'http://job-openings.monster.com/monster/46cab8a7-142d-40e3-be9e-e6518bf42bc0'
p147
aS'http://job-openings.monster.com/monster/99d3c29b-3522-4b2a-9121-7e27852b45fd'
p148
aS'http://job-openings.monster.com/monster/0c801bbb-113b-4c33-8009-7def0d13dbf1'
p149
aS'http://job-openings.monster.com/monster/3df5a6ef-2976-40d3-94a4-9b8bf19f857b'
p150
aS'http://job-openings.monster.com/monster/7fc94012-39c7-42ea-8442-c14e3d21311c'
p151
aS'http://job-openings.monster.com/monster/ff8f11a9-f266-4987-9c0d-9f2b20493f8a'
p152
aS'http://job-openings.monster.com/monster/cc19bc48-aaa3-4d60-b68d-c307c2c65f93'
p153
aS'http://jobview.monster.com/lead-data-scientists-job-warren-nj-us-182155191.aspx'
p154
aS'http://job-openings.monster.com/monster/4d735f5e-2f15-4f6d-8ebe-a2ecfcc7c44b'
p155
aS'http://job-openings.monster.com/monster/40b1d1ed-cbda-4f87-85de-e6b6a2309527'
p156
aS'http://job-openings.monster.com/monster/adf8fe51-81d2-49aa-a735-396595b19ab1'
p157
aS'http://job-openings.monster.com/monster/4ee80bbb-f5ea-4056-8e2e-659028cfdef1'
p158
aS'http://job-openings.monster.com/monster/e52e413c-51e1-42ad-88ed-67f8e7fccfd3'
p159
aS'http://job-openings.monster.com/monster/f996e813-afe8-4f04-be15-ae8af5f9d087'
p160
aS'http://job-openings.monster.com/monster/c70d7c74-acb4-4045-b611-6e101c2d9c80'
p161
aS'http://job-openings.monster.com/monster/087eebcc-36b1-45cf-b677-fc05d8abba25'
p162
aS'http://job-openings.monster.com/monster/7686ee0a-dac8-46dc-b970-cea2c9971418'
p163
aS'http://job-openings.monster.com/monster/ec777728-5d9b-4395-bf7a-1c5792793b3e'
p164
aS'http://job-openings.monster.com/monster/65d99fc8-011c-456d-8d53-b317c3d5205e'
p165
aS'http://job-openings.monster.com/monster/c238ab27-865d-4b1c-83b5-c0f34290de46'
p166
aS'http://job-openings.monster.com/monster/af273bea-d7e5-4f32-bb58-85bd7eadfdda'
p167
aS'http://job-openings.monster.com/monster/ce33955b-0fdd-4d55-ac70-88c824b86d2d'
p168
aS'http://job-openings.monster.com/monster/d2c4ddee-430a-42e3-82d5-170344f6918a'
p169
aS'http://job-openings.monster.com/monster/852393bc-6ead-4696-b636-abad4793af79'
p170
aS'http://job-openings.monster.com/monster/e40a78cc-dd8d-4768-b025-1b40333c43de'
p171
aS'http://job-openings.monster.com/monster/fb04162b-0ce9-4c6d-9404-3265ad1541fe'
p172
aS'http://job-openings.monster.com/monster/546bc103-f582-43a6-8416-c4e706d76107'
p173
aS'http://job-openings.monster.com/monster/eefc5cee-5627-49d4-8e86-7738822ac3a1'
p174
aS'http://job-openings.monster.com/monster/6f750ee9-eef7-4858-8608-425a7e374ee9'
p175
aS'http://job-openings.monster.com/monster/81c0e3c3-94dd-46ba-897b-6f4d93815b88'
p176
aS'http://job-openings.monster.com/monster/73392a4e-3d5a-46e5-879f-030a5513fec0'
p177
aS'http://job-openings.monster.com/monster/00679389-aa03-4791-93f0-f9733bf75b01'
p178
aS'http://job-openings.monster.com/monster/708e5789-a115-49c5-ab51-7a6e95fc2416'
p179
aS'http://job-openings.monster.com/monster/7e2ee65a-3abb-4a1c-9fc9-cfb7dbbaa600'
p180
aS'http://job-openings.monster.com/monster/344c584f-bb77-40f9-a1c1-5bc9293d4415'
p181
aS'http://job-openings.monster.com/monster/056b785c-7c42-4521-bedb-49cb1e00c88f'
p182
aS'http://job-openings.monster.com/monster/3e1b1719-5905-41fe-bff9-4b85a583810b'
p183
aS'http://job-openings.monster.com/monster/549a7990-1dc9-401d-bf2d-ece3612a96f7'
p184
aS'http://job-openings.monster.com/monster/87d802b9-4ffc-48c4-8f47-b842fe07d568'
p185
aS'http://job-openings.monster.com/monster/9606ed94-b814-4c80-bf2f-bfa5306257f9'
p186
aS'http://jobview.monster.com/senior-inventive-scientist-labs-big-data-research-job-bedminster-nj-us-181123280.aspx'
p187
aS'http://job-openings.monster.com/monster/ae146531-f7e2-4aca-ab8d-629589c8954c'
p188
aS'http://job-openings.monster.com/monster/cc5be7ef-c427-4038-9fd4-e849ba2101c7'
p189
aS'http://jobview.monster.com/sr-market-intelligence-analyst-job-bridgewater-nj-us-182760430.aspx'
p190
aS'http://job-openings.monster.com/monster/15bd5613-71a8-43f0-aeb0-7aba84be8ccd'
p191
aS'http://job-openings.monster.com/monster/e2789aeb-d633-4d1a-92d2-57d45d5ca1e6'
p192
aS'http://job-openings.monster.com/monster/c17322fd-9235-4565-9791-6e471a2efe25'
p193
aS'http://job-openings.monster.com/monster/8f0c1698-9bf3-4991-b775-fb4548d838d0'
p194
aS'http://job-openings.monster.com/monster/cfa6d151-2952-487a-bd12-804f1c06c1d6'
p195
aS'http://job-openings.monster.com/monster/fc3ccf1b-7789-4c5f-89a5-2b74fbd1a58d'
p196
aS'http://job-openings.monster.com/monster/6086661a-639f-4313-827f-f97631a786a7'
p197
aS'http://job-openings.monster.com/monster/32ec8cd2-4ef7-4135-ad2e-79713b8168c7'
p198
aS'http://job-openings.monster.com/monster/13916ce7-3566-48c9-979a-4392d0b9d5d8'
p199
aS'http://job-openings.monster.com/monster/ddbd93bd-1a93-44d6-8501-5cd7b80c3756'
p200
aS'http://jobview.monster.com/product-manager-job-south-amboy-nj-us-183104375.aspx'
p201
aS'http://job-openings.monster.com/monster/0c17c080-c3bf-4271-9d86-fa998dfe0b97'
p202
aS'http://job-openings.monster.com/monster/7e7ca982-a986-4c61-b768-08efb22d524f'
p203
aS'http://job-openings.monster.com/monster/98cb3dee-f342-4196-9218-cce0d45d1290'
p204
aS'http://job-openings.monster.com/monster/b2d0f051-5ff2-4f82-8732-5cf49accf277'
p205
aS'http://job-openings.monster.com/monster/57b36962-c291-457a-b9e4-5206f86e29f5'
p206
aS'http://job-openings.monster.com/monster/14448cdc-26a3-4641-96dd-18e95d35c38f'
p207
aS'http://jobview.monster.com/mdm-strategists-job-warren-nj-us-182946559.aspx'
p208
aS'http://job-openings.monster.com/monster/79187ae7-114f-4eba-9f2f-099d4825f6f7'
p209
aS'http://job-openings.monster.com/monster/be045dc3-e999-46bc-8d69-0733c1d1a4ff'
p210
aS'http://job-openings.monster.com/monster/ae5a4750-37ea-469a-9769-726502d867d7'
p211
aS'http://job-openings.monster.com/monster/477f2569-99b1-484c-8ea5-fa948aa7ae8d'
p212
aS'http://job-openings.monster.com/monster/114ff9de-bc01-4843-9ba4-8b3c0636ccc4'
p213
aS'http://job-openings.monster.com/monster/f25ed78d-75c4-47db-85e7-e5ffb6786aa5'
p214
aS'http://job-openings.monster.com/monster/c6d569a5-06fc-42db-b754-2343d177725f'
p215
aS'http://job-openings.monster.com/monster/4b391d09-7c04-4aee-9a8b-6536f590b0d7'
p216
aS'http://job-openings.monster.com/monster/0bfb7149-3e31-41bb-a8ac-71fd7d638cb6'
p217
aS'http://job-openings.monster.com/monster/d9d06ba1-432c-4598-8887-b1e489e8db40'
p218
aS'http://job-openings.monster.com/monster/fc68f9ff-fac0-4d3d-a4b4-00ea66d23640'
p219
aS'http://job-openings.monster.com/monster/71f5fa03-c057-4479-b039-b8375181bc71'
p220
aS'http://job-openings.monster.com/monster/2d0dac6b-0ebf-4970-8787-7cb523bcaf81'
p221
aS'http://job-openings.monster.com/monster/8d04a840-8a1d-4b6e-9e1f-1acc359cce18'
p222
aS'http://job-openings.monster.com/monster/420242bc-87d8-4c52-8595-0220d54a38bd'
p223
aS'http://job-openings.monster.com/monster/7b268555-5814-4caa-950d-0ca39bef16c0'
p224
aS'http://job-openings.monster.com/monster/d95cd25c-45ef-4b6d-8314-38ad5075d230'
p225
aS'http://job-openings.monster.com/monster/b24b89c8-ba04-46be-92eb-9cfec2d536df'
p226
aS'http://job-openings.monster.com/monster/4318ce83-b4b3-4e94-ac0e-f6a7b293fa31'
p227
aS'http://job-openings.monster.com/monster/b98c0442-acd7-4153-b2cb-a364cae2d139'
p228
aS'http://job-openings.monster.com/monster/a355bc4e-7475-49d4-8db3-3f1ef757bd5b'
p229
aS'http://job-openings.monster.com/monster/4303dd35-f573-4f34-92be-27597172045a'
p230
aS'http://job-openings.monster.com/monster/36dd19ec-1800-4e4b-a1bb-1698259329fd'
p231
aS'http://job-openings.monster.com/monster/7c281683-e31b-4ab8-9436-72f9e700c351'
p232
aS'http://job-openings.monster.com/monster/7dc9292d-7268-4420-9a59-c26755008086'
p233
aS'http://job-openings.monster.com/monster/61602a6a-c1ec-40f6-bfd4-227e9b0cfce9'
p234
aS'http://job-openings.monster.com/monster/bf355c96-8469-4697-bf4a-090df17b4318'
p235
aS'http://jobview.monster.com/data-science-engineer-mid-level-job-teaneck-nj-us-182705678.aspx'
p236
aS'http://job-openings.monster.com/monster/f8568997-f9da-43a1-a540-a8ceeb5bd23a'
p237
aS'http://job-openings.monster.com/monster/17cb89e9-e5b5-45a4-9e1f-f26d7cb29b12'
p238
aS'http://job-openings.monster.com/monster/cbeaf71b-22da-4701-b373-730a8882d948'
p239
aS'http://jobview.monster.com/collibra-architects-job-warren-nj-us-182947177.aspx'
p240
aS'http://job-openings.monster.com/monster/c08a14a9-dbfe-42a6-8da3-6f475eb3120d'
p241
aS'http://job-openings.monster.com/monster/9a9ae694-d417-4c7e-b7a9-dbf0e18aaa3d'
p242
aS'http://job-openings.monster.com/monster/9f0ef581-8774-4e0a-8ac5-424936f17bd9'
p243
aS'http://job-openings.monster.com/monster/a0abda3d-f791-4547-a208-667dfec32a28'
p244
aS'http://job-openings.monster.com/monster/675ffdc1-b6ba-4347-8ae8-a853ccd6ad7e'
p245
aS'http://job-openings.monster.com/monster/076b23b3-8f41-4b04-abbb-90799e0671c2'
p246
aS'http://job-openings.monster.com/monster/6b48d5d6-dee8-4efd-8a97-7c1396186f78'
p247
aS'http://job-openings.monster.com/monster/2eaa1651-1018-483c-af92-08c38b81d3fa'
p248
aS'http://job-openings.monster.com/monster/a988b872-c71c-40aa-be6f-ff67758dee61'
p249
aS'http://jobview.monster.com/data-scientist-deep-learning-job-warren-nj-us-182152255.aspx'
p250
aS'http://job-openings.monster.com/monster/034113e3-755f-43aa-adf2-33eb762199e6'
p251
aS'http://job-openings.monster.com/monster/af000de3-12d7-4211-9563-9eb7a9782a20'
p252
aS'http://job-openings.monster.com/monster/38d4112a-436b-45ba-a3a7-535c419ff09c'
p253
aS'http://job-openings.monster.com/monster/84092e51-5213-43be-82c8-020806d1bcb4'
p254
aS'http://job-openings.monster.com/monster/91c52cf1-6554-46f1-83a1-2ca897542221'
p255
aS'http://job-openings.monster.com/monster/5ef39d86-0c0b-4c04-a50e-5d02fd1c4203'
p256
aS'http://job-openings.monster.com/monster/bd2ba0c9-ba7a-47b1-990d-008e5c2586df'
p257
aS'http://job-openings.monster.com/monster/f6615952-f278-4936-aea9-69d943ddacfa'
p258
aS'http://job-openings.monster.com/monster/0b39967d-88b3-499c-83aa-0e1532e70b53'
p259
aS'http://job-openings.monster.com/monster/ae450c8d-c16d-48be-9f0a-95d82f4bd957'
p260
aS'http://job-openings.monster.com/monster/4ff6a796-36e4-4d82-8d6e-4aaa3f64b797'
p261
aS'http://job-openings.monster.com/monster/6e069eb6-7ef1-405d-8201-7c820c00b032'
p262
aS'http://job-openings.monster.com/monster/4c3d2177-9845-41d1-b01a-decbbe368612'
p263
aS'http://job-openings.monster.com/monster/978d0a78-4545-4bc7-8e0e-81c761c07a2d'
p264
aS'http://job-openings.monster.com/monster/70f16a08-da0e-4fab-aac3-0a9f6fd17577'
p265
aS'http://job-openings.monster.com/monster/f66d9cbe-ff90-4d18-aa01-e1495c7a760a'
p266
aS'http://job-openings.monster.com/monster/d123b747-554e-4cc4-9712-c996451876d2'
p267
aS'http://job-openings.monster.com/monster/a3d7be99-0f79-45d6-9768-d5c6b7c4fe4f'
p268
aS'http://job-openings.monster.com/monster/6c884996-f8ad-4b6a-8e89-1c1d436a90bc'
p269
aS'http://job-openings.monster.com/monster/45ab680a-d5e9-4290-a05d-36711c013567'
p270
aS'http://jobview.monster.com/aws-solution-leads-job-warren-nj-us-167402662.aspx'
p271
aS'http://job-openings.monster.com/monster/16166c25-a607-461d-bc2f-8938d049e743'
p272
aS'http://job-openings.monster.com/monster/26720b8e-c70d-4ae1-839a-558d004e640f'
p273
aS'http://job-openings.monster.com/monster/cfb366e1-b781-41bd-915b-d57d7bf14894'
p274
aS'http://job-openings.monster.com/monster/00fb1282-6d4e-4d6e-8909-7b2260c9870f'
p275
aS'http://job-openings.monster.com/monster/23e4080d-6cf4-4a0d-8aed-df2e63bdbf32'
p276
aS'http://job-openings.monster.com/monster/0c5d6b98-48fc-439a-84b8-3423e011c6be'
p277
aS'http://job-openings.monster.com/monster/cbaa2a2b-4807-4035-bd11-0f90d3f058be'
p278
aS'http://jobview.monster.com/at-t-labs-internship-%e2%94%80-undergraduate-masters-degrees-job-nj-nj-us-178879798.aspx'
p279
aS'http://job-openings.monster.com/monster/9743fafd-0619-4a32-bc64-1892cac811c2'
p280
aS'http://job-openings.monster.com/monster/2bb4eb25-34e2-450b-9808-a3113621ec83'
p281
aS'http://jobview.monster.com/senior-statistician-data-scientist-job-jamesburg-nj-us-170347113.aspx'
p282
aS'http://job-openings.monster.com/monster/984d1a92-c1d1-40b1-be7d-1d3ab3fc0b67'
p283
aS'http://job-openings.monster.com/monster/444912af-d5e6-49f5-b514-727b2ca47fae'
p284
aS'http://job-openings.monster.com/monster/79cc4d09-fc1a-4533-a3b9-c44aae901739'
p285
aS'http://job-openings.monster.com/monster/a00ec4ae-ca8e-44d8-ab82-b77ce276f774'
p286
aS'http://job-openings.monster.com/monster/6972f75d-992a-4a24-bcbe-4cfc706ba32a'
p287
aS'http://job-openings.monster.com/monster/0469f559-3ff5-4325-a6fd-0bad4ed5be73'
p288
aS'http://job-openings.monster.com/monster/6e8d1054-6557-49d2-834e-41431e7117e4'
p289
aS'http://job-openings.monster.com/monster/28167777-b638-4ad2-bdd8-efd3be78b76e'
p290
aS'http://job-openings.monster.com/monster/efc3da10-3e98-45c5-8bed-b31739d97657'
p291
aS'http://job-openings.monster.com/monster/e40e5373-c0fb-4437-ae79-a660ed9be69f'
p292
aS'http://job-openings.monster.com/monster/eb35a88b-ff76-460d-85f2-057c8def370e'
p293
aS'http://job-openings.monster.com/monster/021e9d4f-89d4-41ef-9435-609e2c8efda6'
p294
aS'http://job-openings.monster.com/monster/c796e6b5-6f42-45af-9d2f-4e788b9370dd'
p295
aS'http://job-openings.monster.com/monster/bbfeddfe-1ffe-4ed3-a11b-c6fa38dc5f0d'
p296
aS'http://jobview.monster.com/sr-hadoop-developer-job-weehawken-nj-us-182342993.aspx'
p297
aS'http://job-openings.monster.com/monster/79661b0d-f8e8-4882-a1df-2e008eefa650'
p298
aS'http://job-openings.monster.com/monster/573430a3-b37b-48e2-abb2-d2b7b629d188'
p299
aS'http://job-openings.monster.com/monster/df83b433-fabe-4dff-ae77-6fd9f98cf142'
p300
aS'http://job-openings.monster.com/monster/251a363c-d140-431a-9521-72129fcc7dd7'
p301
aS'http://job-openings.monster.com/monster/0d33d6ed-35b9-4c76-9d83-5e2001d14921'
p302
aS'http://job-openings.monster.com/monster/3e4b5dee-71b2-4fac-8b56-488d44d5f07f'
p303
aS'http://job-openings.monster.com/monster/70fff349-eea8-4d14-b348-f1bcbcde07a5'
p304
aS'http://job-openings.monster.com/monster/7b4f4945-bbee-48c9-848a-05c84d3f25bd'
p305
aS'http://job-openings.monster.com/monster/70fa209c-3945-4fbe-8abb-2fd9b43c92e4'
p306
aS'http://job-openings.monster.com/monster/ef76964c-5269-4260-a634-ac5a95c978f8'
p307
aS'http://job-openings.monster.com/monster/d78b46b8-3891-4dd8-9bd7-2a990df76f8d'
p308
aS'http://job-openings.monster.com/monster/d6dfcf35-06dc-4df6-a94d-459573de0bc9'
p309
aS'http://job-openings.monster.com/monster/5cc90b10-e7e1-437b-92d1-1d666611b373'
p310
aS'http://job-openings.monster.com/monster/d82bd6e8-3fd4-4ca8-aac7-7e6685ed3a00'
p311
aS'http://jobview.monster.com/mdm-data-virtulization-project-managers-job-warren-nj-us-182946241.aspx'
p312
aS'http://job-openings.monster.com/monster/123e51f7-7f06-4400-9d68-5246105d1afd'
p313
aS'http://job-openings.monster.com/monster/49c56051-2eea-4d7b-850b-d2b8a852ebfd'
p314
aS'http://jobview.monster.com/data-science-faculty-job-menlo-park-nj-us-181682937.aspx'
p315
aS'http://job-openings.monster.com/monster/a146c706-3b64-4d1f-8558-fce7e41d0b4e'
p316
aS'http://job-openings.monster.com/monster/3cbd9ddf-7d63-4d91-997c-99cf42062da6'
p317
aS'http://job-openings.monster.com/monster/b45792f1-e2fe-4efc-9917-7a4b9adf3f98'
p318
aS'http://jobview.monster.com/at-t-labs-internship-%e2%80%93-advanced-degrees-job-nj-nj-us-177359755.aspx'
p319
aS'http://job-openings.monster.com/monster/75346487-c89d-47e5-bfed-9b3077ea0422'
p320
aS'http://job-openings.monster.com/monster/eec9faed-06de-4b3c-8da9-87c3cba015fc'
p321
aS'http://job-openings.monster.com/monster/3a28e516-4435-40e4-a896-2ff9e3a1a815'
p322
aS'http://job-openings.monster.com/monster/8bbe46ca-3771-4d6c-93d6-af8cce3b9447'
p323
aS'http://job-openings.monster.com/monster/7e2363ea-3ec7-4f0e-a2a0-dc56aecfdde3'
p324
aS'http://job-openings.monster.com/monster/5057d738-4857-432e-b968-13ad7602ac98'
p325
aS'http://job-openings.monster.com/monster/b233b883-c397-4240-9517-ac3c596bfb06'
p326
aS'http://job-openings.monster.com/monster/09ab7942-78ed-4477-8964-6e5a8cbde5ca'
p327
aS'http://job-openings.monster.com/monster/cc4503e9-66d8-48ff-b7c8-34f79ae8db61'
p328
aS'http://job-openings.monster.com/monster/b26cec31-ea51-4d69-bc17-844b1f6779fa'
p329
aS'http://job-openings.monster.com/monster/b915c628-4c9d-41b9-8be5-25903cd30968'
p330
aS'http://jobview.monster.com/ups-data-scientist-11809-4-11-17-job-wayne-nj-us-183127864.aspx'
p331
aS'http://job-openings.monster.com/monster/d622318d-9b45-416b-af08-3499dfa50684'
p332
aS'http://job-openings.monster.com/monster/71cdfbda-c9e2-4981-8418-f132f26755a0'
p333
aS'http://job-openings.monster.com/monster/72a159ea-2d43-4c17-936b-c5e009fc9a61'
p334
aS'http://job-openings.monster.com/monster/34aec4a3-624a-438a-8212-ff786a444a69'
p335
aS'http://job-openings.monster.com/monster/76c2a459-4974-45ae-9f93-1e782be83ba0'
p336
aS'http://job-openings.monster.com/monster/b086cb51-6448-430e-9398-5edaf4b201a2'
p337
aS'http://job-openings.monster.com/monster/c0af6db3-9287-401d-9c97-cf8ad3f514eb'
p338
aS'http://job-openings.monster.com/monster/c6575c39-5787-4dfb-896a-641db59747ea'
p339
aS'http://job-openings.monster.com/monster/8bae170d-9e82-4047-bddc-b7794b8e55f7'
p340
aS'http://job-openings.monster.com/monster/4d4fd6b1-c61f-4152-acd2-0343a74cfa9f'
p341
aS'http://job-openings.monster.com/monster/9dd6a47c-e150-4061-b0ab-86f428bed25f'
p342
aS'http://job-openings.monster.com/monster/7e38e7ad-791e-4bc2-818f-3727036485fd'
p343
aS'http://job-openings.monster.com/monster/6d90b79b-f36b-4111-8613-58d6616675bd'
p344
aS'http://job-openings.monster.com/monster/4ca13efb-e74d-41ed-90b9-a86601b50301'
p345
aS'http://job-openings.monster.com/monster/82bee59d-51bc-4e4a-a093-d26c0d27d308'
p346
aS'http://job-openings.monster.com/monster/5ce94c1f-19a8-4c09-9a88-a157c54b58d7'
p347
aS'http://job-openings.monster.com/monster/3dca87c8-1822-45b8-a571-86a8b35cb219'
p348
aS'http://jobview.monster.com/fixed-income-vba-sql-developer-data-scientist-job-jersey-city-nj-us-183084368.aspx'
p349
aS'http://job-openings.monster.com/monster/765b7046-9bf8-4a8f-9cc1-d58a8eede0a0'
p350
aS'http://job-openings.monster.com/monster/c3891913-aff4-4859-9404-105f55687aea'
p351
aS'http://job-openings.monster.com/monster/0fbe2423-ea60-416d-85e7-c839d09be45d'
p352
aS'http://job-openings.monster.com/monster/9bb52603-9f98-4827-9d99-09d75a96d774'
p353
aS'http://job-openings.monster.com/monster/930fa5ae-e4d1-4b1e-bfca-2ae52addc5dc'
p354
aS'http://job-openings.monster.com/monster/abdc4c45-1c4f-41da-a9fb-27fbd562fa43'
p355
aS'http://job-openings.monster.com/monster/26c46c4f-c676-41fe-90e7-84d80c952eb0'
p356
aS'http://job-openings.monster.com/monster/2c11aef8-9c0a-4196-bcb4-39f452ef9fd0'
p357
aS'http://job-openings.monster.com/monster/43593cd3-fa75-48fa-9bd1-100b3958d59a'
p358
aS'http://job-openings.monster.com/monster/28dbad47-101f-4dfc-8d71-0bb68f54b886'
p359
aS'http://job-openings.monster.com/monster/a76bfac3-48b3-42d9-9978-7bc2232f56d1'
p360
aS'http://job-openings.monster.com/monster/de4c018c-6276-47ae-a297-87debf8b71fc'
p361
aS'http://job-openings.monster.com/monster/8b108a3d-81da-460d-bb7d-7cdf0f6b7561'
p362
aS'http://jobview.monster.com/software-implementation-engineer-cutting-edge-java-platform-job-edison-nj-us-182749625.aspx'
p363
aS'http://job-openings.monster.com/monster/d6890f06-93b2-4ac3-8c22-19fbea2f19cb'
p364
aS'http://job-openings.monster.com/monster/372564cf-55f0-469b-bb8c-56bceedfb46a'
p365
aS'http://job-openings.monster.com/monster/e5a7662a-72d3-4573-bf3b-3a7b823f4666'
p366
aS'http://job-openings.monster.com/monster/63503e70-5f26-4113-a804-b04296d0b982'
p367
aS'http://job-openings.monster.com/monster/02bb9017-f502-466d-8a74-1f0b4ecaafe8'
p368
aS'http://job-openings.monster.com/monster/cbb7849d-16e4-4b13-9698-e349f6c429d0'
p369
aS'http://job-openings.monster.com/monster/47822b55-33f0-41ae-a618-9c53cded439f'
p370
aS'http://job-openings.monster.com/monster/56c3a5c9-635d-441e-94a2-0f7611a6956e'
p371
aS'http://jobview.monster.com/product-manager-job-south-amboy-nj-us-182455173.aspx'
p372
aS'http://job-openings.monster.com/monster/17b68c6a-3517-48f6-bd9a-474475645586'
p373
aS'http://job-openings.monster.com/monster/ca049e7c-7cb4-48d6-a1c8-b17ca040b220'
p374
aS'http://job-openings.monster.com/monster/31583b00-4628-4c9f-9b0a-265f4e2cc518'
p375
aS'http://job-openings.monster.com/monster/8f89882c-196c-49e7-b6d8-382e5ae33ee1'
p376
aS'http://job-openings.monster.com/monster/0e3a48fa-73d1-45c7-bcc5-f157103ed8c3'
p377
aS'http://job-openings.monster.com/monster/c6f2f42d-baa4-4536-8bf7-62c6e2cb21c2'
p378
aS'http://job-openings.monster.com/monster/c5c06c4f-d6ed-4349-be5b-ed8acf1072a6'
p379
aS'http://job-openings.monster.com/monster/d19131cf-8606-4483-9141-47c229b1359b'
p380
aS'http://job-openings.monster.com/monster/9a49d7a9-d1c8-497e-8a17-06fb2b9eb12b'
p381
aS'http://job-openings.monster.com/monster/a17eca4f-e6e4-4a58-b43b-e72bdda486d4'
p382
aS'http://job-openings.monster.com/monster/6120e951-f7fb-44b3-89bb-87e0bebcdfec'
p383
aS'http://job-openings.monster.com/monster/fd864834-3b18-4ddc-8017-9dc0f1d7acea'
p384
aS'http://job-openings.monster.com/monster/8dc10e2f-ee78-49ba-9420-3204f7776832'
p385
aS'http://job-openings.monster.com/monster/e6bac4ce-e88c-4890-9d2e-37a65295e174'
p386
aS'http://job-openings.monster.com/monster/8255e4e0-abb4-4926-88e5-2c1f0004ef57'
p387
aS'http://job-openings.monster.com/monster/ae3fb203-8970-42d6-9bb1-4bc5091b2304'
p388
aS'http://job-openings.monster.com/monster/fa7f5e09-5a74-4e84-9674-1501477be9e5'
p389
aS'http://job-openings.monster.com/monster/abfc679a-f40c-4be4-95c7-6739a68972e5'
p390
aS'http://job-openings.monster.com/monster/0901672c-b1b7-4925-9765-51d9bb673633'
p391
aS'http://job-openings.monster.com/monster/2789b4ad-b96a-4636-8917-1069c832bc96'
p392
aS'http://job-openings.monster.com/monster/129194d6-82e1-460d-84ed-b921f09baea3'
p393
aS'http://job-openings.monster.com/monster/0e6ba89a-84ea-4b22-be06-f5624cfa0f90'
p394
aS'http://job-openings.monster.com/monster/ea54faa0-258f-473c-84fe-84e4f98fda96'
p395
aS'http://job-openings.monster.com/monster/11127f14-ce1e-4903-945d-1a163a3e39c2'
p396
aS'http://job-openings.monster.com/monster/16e83626-201f-4f67-b800-befb2005fcc7'
p397
aS'http://job-openings.monster.com/monster/c391c8bd-c508-478c-9112-0c24f2b87e8e'
p398
aS'http://job-openings.monster.com/monster/6b1b59af-16e1-4658-9beb-5a3780289129'
p399
aS'http://job-openings.monster.com/monster/42644125-1057-48b0-bcf7-d29866e8564e'
p400
aS'http://job-openings.monster.com/monster/5f562a85-9b91-4ce4-97e1-cdd6b7a2d68f'
p401
aS'http://job-openings.monster.com/monster/23b85954-063e-4d22-9b96-7cb895c1f66c'
p402
aS'http://job-openings.monster.com/monster/0f3c5899-9657-4959-8b85-0c69c90ac668'
p403
aS'http://job-openings.monster.com/monster/4ed1881f-9165-434f-b2d2-f94bac4f3ad8'
p404
aS'http://job-openings.monster.com/monster/4c3f7179-7b9a-4fbf-a5b0-e7a1eed6d2d2'
p405
aS'http://job-openings.monster.com/monster/31777a1b-d8fa-4eb6-8f97-d9d92028e7eb'
p406
aS'http://job-openings.monster.com/monster/63417e77-9e5d-4f3a-9219-05fc9ea207ec'
p407
aS'http://job-openings.monster.com/monster/a44c5859-2447-4b84-b041-86f591561c9d'
p408
aS'http://job-openings.monster.com/monster/f93c220c-b42f-453f-b0ef-c10ede56ef7b'
p409
aS'http://jobview.monster.com/engineering-specialist-iii-job-bridgewater-nj-us-182343015.aspx'
p410
a.