(lp1
S'http://job-openings.monster.com/monster/611aa2f0-6215-4055-8b63-dbf8d4e71470'
p2
aS'http://jobview.monster.com/financial-market-data-manager-analyst-sql-job-manhattan-ny-us-183145450.aspx'
p3
aS'http://job-openings.monster.com/monster/0d804e5d-a724-4b0c-8394-4dde1f561e09'
p4
aS'http://job-openings.monster.com/monster/9411449e-eb1e-4a91-859c-90200963ac47'
p5
aS'http://job-openings.monster.com/monster/6ce8a644-23b6-4996-a136-354c368d31e0'
p6
aS'http://job-openings.monster.com/monster/0399a17b-a711-4d31-96ae-29a056ea888f'
p7
aS'http://job-openings.monster.com/monster/43eb0bca-b5fa-4045-a380-e8d277782078'
p8
aS'http://job-openings.monster.com/monster/8069d8ae-5ca8-46b5-8a5c-b27e1b9def1e'
p9
aS'http://job-openings.monster.com/monster/0d8fc304-24c9-4a52-8e9a-d86f8d59e41b'
p10
aS'http://job-openings.monster.com/monster/14c8e9df-dc65-4727-b8ac-1644b0d86973'
p11
aS'http://job-openings.monster.com/monster/d8864252-40cd-45dc-85bc-729da43d8b73'
p12
aS'http://job-openings.monster.com/monster/fc36fe96-49bc-4db8-98bc-2ec82346672a'
p13
aS'http://job-openings.monster.com/monster/b3443f31-9f54-4952-9e54-9d4e01f79b3d'
p14
aS'http://jobview.monster.com/e-commerce-product-listing-specialist-ecommerce-marketplace-specialist%e2%80%99s-job-hicksville-ny-us-179444519.aspx'
p15
aS'http://job-openings.monster.com/monster/bc06225a-278e-4703-83cc-2f4406060166'
p16
aS'http://job-openings.monster.com/monster/9a5472d5-f63f-41c4-864b-3392fc25dd11'
p17
aS'http://job-openings.monster.com/monster/6b8c731f-439b-4604-a292-dbf7ad591d5b'
p18
aS'http://job-openings.monster.com/monster/7ed18ac9-d140-47e4-8d5a-476138460249'
p19
aS'http://job-openings.monster.com/monster/fe280c9e-9485-44d9-a3aa-c981b32839dd'
p20
aS'http://job-openings.monster.com/monster/6e692a27-fc8c-41f4-b31c-32b5fe0b96e6'
p21
aS'http://job-openings.monster.com/monster/de067d2f-6ac7-4389-89d6-10d26017dc40'
p22
aS'http://job-openings.monster.com/monster/602d843b-cb59-483c-a3c0-c3cc1acf21a4'
p23
aS'http://job-openings.monster.com/monster/8506551b-ac7b-4c22-b89e-d090a9a4e061'
p24
aS'http://job-openings.monster.com/monster/8949a9c9-287c-4151-830a-0f8e499468a5'
p25
aS'http://job-openings.monster.com/monster/4a823eb9-1d40-4ac9-b529-2676c60df403'
p26
aS'http://job-openings.monster.com/monster/0dfb5925-7fb2-45b8-8344-076ea277e857'
p27
aS'http://job-openings.monster.com/monster/41be124a-e056-44b5-8b43-9ab2c32b18c7'
p28
aS'http://job-openings.monster.com/monster/01a97fd1-af5c-4428-8778-538f6c299132'
p29
aS'http://job-openings.monster.com/monster/5c361211-8eb3-4922-b802-9804c977734d'
p30
aS'http://job-openings.monster.com/monster/9c32a0e2-173e-430c-8caf-6d4406ef4907'
p31
aS'http://job-openings.monster.com/monster/552854ba-b510-4041-bcae-ce48d6aa8e1c'
p32
aS'http://jobview.monster.com/senior-inventive-scientist-labs-big-data-research-job-new-york-ny-us-181123277.aspx'
p33
aS'http://job-openings.monster.com/monster/b94ea4d0-fe05-42d1-b4a7-521309c685e8'
p34
aS'http://job-openings.monster.com/monster/041e0b9c-edab-4bdb-905b-39482c7b7b30'
p35
aS'http://job-openings.monster.com/monster/8cb086d1-4c34-4dd7-955f-6882f619b11d'
p36
aS'http://job-openings.monster.com/monster/59aa5136-15e4-4752-a866-5326b2d4a94d'
p37
aS'http://job-openings.monster.com/monster/4d8820b6-412f-42a9-a939-ff32a829a544'
p38
aS'http://job-openings.monster.com/monster/c99641cc-9806-4dba-a6fb-c0b21af190c2'
p39
aS'http://jobview.monster.com/healthcare-business-analysts-job-new-york-ny-us-182161527.aspx'
p40
aS'http://job-openings.monster.com/monster/e584e7a8-4711-46d9-8f08-c00ac2dddbc7'
p41
aS'http://job-openings.monster.com/monster/b64f40c7-f939-41b0-aed1-9f25c7e2db37'
p42
aS'http://job-openings.monster.com/monster/f207bf69-3653-41b1-875a-2dccd840fbe3'
p43
aS'http://job-openings.monster.com/monster/fd3f8bfb-9e28-4c52-b74b-937f929dde98'
p44
aS'http://job-openings.monster.com/monster/1982c00e-850e-44b2-8482-3d12ca5cf47b'
p45
aS'http://job-openings.monster.com/monster/62934e24-19b2-4de1-9a2b-9e73b45357f4'
p46
aS'http://job-openings.monster.com/monster/ee70cd86-b174-4a90-867f-77f7d945bb9c'
p47
aS'http://job-openings.monster.com/monster/edfa7dbc-b86c-4cf8-9427-c632cdb604d9'
p48
aS'http://job-openings.monster.com/monster/e543f255-92f8-4675-a6da-0a64a9896b5f'
p49
aS'http://job-openings.monster.com/monster/5008ae05-f76c-49c5-acbf-76d03c2ef930'
p50
aS'http://job-openings.monster.com/monster/fd893e87-9797-413f-bc8d-105599ba68fc'
p51
aS'http://job-openings.monster.com/monster/e8a83e9a-78d8-495b-a6c5-30a4463382e7'
p52
aS'http://job-openings.monster.com/monster/c43a8796-9571-45fa-887c-3008be1b2570'
p53
aS'http://job-openings.monster.com/monster/3937af23-0df1-43e2-912f-35e76f457b84'
p54
aS'http://job-openings.monster.com/monster/165d47bc-bfc1-477d-93bf-7516f4dfaa1a'
p55
aS'http://job-openings.monster.com/monster/e986b2a3-06db-4665-9517-ebe2b837501b'
p56
aS'http://job-openings.monster.com/monster/6d0bdb44-b5a2-4083-af53-8d444a128240'
p57
aS'http://job-openings.monster.com/monster/36337097-1fcf-4038-88f9-2a704a9290cc'
p58
aS'http://job-openings.monster.com/monster/3f9eda37-34de-49cb-9ced-0104330951be'
p59
aS'http://job-openings.monster.com/monster/896272aa-5ee8-4d30-985e-b7def3be7349'
p60
aS'http://job-openings.monster.com/monster/c64f11a7-c31d-4158-9603-a493e2e53fea'
p61
aS'http://job-openings.monster.com/monster/49844a0b-b3d6-418e-9409-e2535425fffd'
p62
aS'http://job-openings.monster.com/monster/fa039f45-ca46-4670-9d3c-b721537b4c31'
p63
aS'http://job-openings.monster.com/monster/f54f86fc-37ae-4e99-8c6d-036c057a2c6b'
p64
aS'http://job-openings.monster.com/monster/35392f2a-eb77-40ef-a667-f1138656176d'
p65
aS'http://job-openings.monster.com/monster/7219585a-3df1-437c-a5d5-63ccab54fcbc'
p66
aS'http://jobview.monster.com/lead-data-scientist-w-hr-bi-exp-job-new-york-city-ny-us-182265907.aspx'
p67
aS'http://job-openings.monster.com/monster/f2ecb86d-dd5b-4017-8080-4d936f3ac6ea'
p68
aS'http://job-openings.monster.com/monster/af7ddd7e-b8d8-4427-890a-670bd9e0e4c4'
p69
aS'http://job-openings.monster.com/monster/7db2344f-c334-4865-b9cb-bbb9ae2ce406'
p70
aS'http://job-openings.monster.com/monster/789d026a-c57c-4817-b21e-263e2605234b'
p71
aS'http://job-openings.monster.com/monster/c8badfff-7177-4054-b824-4c9db821cae7'
p72
aS'http://job-openings.monster.com/monster/a61ed727-5e8e-414a-9272-1497e32c239c'
p73
aS'http://job-openings.monster.com/monster/489f21a4-de86-4bce-aa22-f6d909fb1d0a'
p74
aS'http://job-openings.monster.com/monster/e335b482-7aa2-44fa-9494-969c9c750dff'
p75
aS'http://job-openings.monster.com/monster/e7d77aa5-f2a1-4017-89f5-eeab0c486d89'
p76
aS'http://job-openings.monster.com/monster/ebe72b19-9119-4a8f-ba3a-41b3d0fc2711'
p77
aS'http://job-openings.monster.com/monster/685c6b6f-2e47-485a-8521-f3b0018b95ac'
p78
aS'http://job-openings.monster.com/monster/0e71f160-1178-4434-8f96-fa7742dbf4d7'
p79
aS'http://job-openings.monster.com/monster/222d17f2-da28-45ec-81a3-91e163f38137'
p80
aS'http://job-openings.monster.com/monster/1059b2bf-7f6e-4ddb-a734-f73e3368a342'
p81
aS'http://jobview.monster.com/data-scientist-job-new-york-ny-us-183037566.aspx'
p82
aS'http://job-openings.monster.com/monster/f1fa063e-68dd-4b39-a338-7b5751065f8a'
p83
aS'http://job-openings.monster.com/monster/49c5f615-710f-4005-a523-1808ebdbfcb0'
p84
aS'http://job-openings.monster.com/monster/fa05fb86-87fd-4a7a-b5d8-e912f25db157'
p85
aS'http://job-openings.monster.com/monster/b70e44d0-6071-4cf4-8add-4f67bd0e46de'
p86
aS'http://job-openings.monster.com/monster/459966ab-38c8-45b2-b306-113e3a29022d'
p87
aS'http://job-openings.monster.com/monster/b149099d-3a4e-4770-b970-fdded44fd990'
p88
aS'http://job-openings.monster.com/monster/8e257e89-65f7-4086-9bcf-3bbd77ed6fca'
p89
aS'http://job-openings.monster.com/monster/e51a5268-2d53-46a8-87d6-59a9a7904b04'
p90
aS'http://job-openings.monster.com/monster/16bf0f10-d97a-4880-a5d9-a923cc548620'
p91
aS'http://job-openings.monster.com/monster/5390fd25-8dc1-4005-b731-da0b5c07898d'
p92
aS'http://job-openings.monster.com/monster/b33db0fa-174c-46f3-9d59-d99254006d87'
p93
aS'http://job-openings.monster.com/monster/5d845225-9847-4cf8-b03e-7d45308a5b40'
p94
aS'http://job-openings.monster.com/monster/95fd079d-3d71-4a45-abc1-85d7bbe2717f'
p95
aS'http://job-openings.monster.com/monster/aa8a84e9-0460-4051-a049-ddf1180d3096'
p96
aS'http://job-openings.monster.com/monster/ee943b68-d940-4bc3-b434-809fe86be887'
p97
aS'http://job-openings.monster.com/monster/67efe3f4-fa6b-4f5e-a4ac-5355206e8065'
p98
aS'http://job-openings.monster.com/monster/998572b1-8e70-4004-b0dd-b880ab1a58e4'
p99
aS'http://job-openings.monster.com/monster/8af2d824-d273-4bb1-ac14-093cdfaf5e45'
p100
aS'http://job-openings.monster.com/monster/f138f150-f02b-45cc-a8b7-8630f665f11f'
p101
aS'http://job-openings.monster.com/monster/c8347718-1a33-4129-b18e-7d05b68b70c7'
p102
aS'http://job-openings.monster.com/monster/cc9d8341-ad08-45d0-863b-7fdd49bdc367'
p103
aS'http://job-openings.monster.com/monster/67928dc6-1488-4bad-b21f-9d98d965b3d2'
p104
aS'http://job-openings.monster.com/monster/1890b276-9833-424c-83b4-5f9609061627'
p105
aS'http://job-openings.monster.com/monster/30db44aa-b1ac-4ec1-80fe-2328fa90e491'
p106
aS'http://job-openings.monster.com/monster/3202f026-c116-45d2-bfd1-47cc58e41250'
p107
aS'http://job-openings.monster.com/monster/d6612702-33a7-49ff-b936-686259353026'
p108
aS'http://job-openings.monster.com/monster/b311f870-b9c9-4a0c-97f0-36a1e185a3de'
p109
aS'http://job-openings.monster.com/monster/d89e3566-93e6-4328-9c05-730a1921e7d6'
p110
aS'http://job-openings.monster.com/monster/aa638a81-5b6c-43a9-9f5e-f33c176547eb'
p111
aS'http://job-openings.monster.com/monster/2bbf5ff7-bbe8-48af-a2cf-f2fdc9d63c2f'
p112
aS'http://job-openings.monster.com/monster/fe33d35e-688e-412e-b1b0-2e593a5de64e'
p113
aS'http://job-openings.monster.com/monster/71c36ef1-8b52-4b84-8ed4-bbe64f50fd15'
p114
aS'http://job-openings.monster.com/monster/710206ff-00b5-4726-b5ab-9166b361a631'
p115
aS'http://job-openings.monster.com/monster/a5814f20-5a05-451a-a42f-d7682407e331'
p116
aS'http://job-openings.monster.com/monster/00cc96eb-5325-4fe1-ae13-d7cabcbf4b7a'
p117
aS'http://job-openings.monster.com/monster/f87dc6ce-9620-480a-b645-7b9aace4c568'
p118
aS'http://job-openings.monster.com/monster/77b90f12-dbc1-4f32-aae4-b7066e458c3e'
p119
aS'http://job-openings.monster.com/monster/7de6ec79-fc70-493c-989e-d75cab5c9c79'
p120
aS'http://job-openings.monster.com/monster/79f241da-05b1-4d11-bdae-0572ab851bc3'
p121
aS'http://job-openings.monster.com/monster/afd24c0a-41e1-4b55-a06e-aaae2aeffeef'
p122
aS'http://job-openings.monster.com/monster/49735cff-2117-492b-863c-7c572b8c9ae7'
p123
aS'http://job-openings.monster.com/monster/4376bbc7-da62-4d31-9156-a727d5eb2011'
p124
aS'http://job-openings.monster.com/monster/4a5f1aac-9952-4aa9-bf7b-29a788ba8ddc'
p125
aS'http://job-openings.monster.com/monster/e7cf7da0-92e7-4fb4-b14c-e66ecee1d27a'
p126
aS'http://job-openings.monster.com/monster/48831077-1d62-4aac-a1c9-f65f0f4573ee'
p127
aS'http://job-openings.monster.com/monster/ec7537f6-2b2c-4ecd-b7ae-55fc94902212'
p128
aS'http://job-openings.monster.com/monster/efb3551c-90f0-4772-b4de-b210fa939d76'
p129
aS'http://job-openings.monster.com/monster/13cfaff3-cb94-495a-8e1a-00db1ac7c5b0'
p130
aS'http://job-openings.monster.com/monster/efb45c57-6390-4759-a7b2-8af91f917301'
p131
aS'http://job-openings.monster.com/monster/9c07a377-644e-421f-ad29-91854d759ae4'
p132
aS'http://job-openings.monster.com/monster/05a18437-d30e-44ec-aec5-b70660f2c623'
p133
aS'http://job-openings.monster.com/monster/e757a700-fb7e-4238-a0a9-eef72ddc63b4'
p134
aS'http://job-openings.monster.com/monster/96706394-9005-43e6-8891-569ffa5072d7'
p135
aS'http://job-openings.monster.com/monster/9020b1ce-fb7b-4f4d-b4e3-641dd21e5b56'
p136
aS'http://job-openings.monster.com/monster/3dd6c972-ff1f-4ce2-9b75-a7fb6c0a655d'
p137
aS'http://job-openings.monster.com/monster/7d7a168d-fb2b-4667-9e35-596325c9989e'
p138
aS'http://job-openings.monster.com/monster/18871f44-ed78-48e5-b21c-377aac39a655'
p139
aS'http://job-openings.monster.com/monster/2dd60b8d-6233-476a-a1fa-79d36cecb622'
p140
aS'http://job-openings.monster.com/monster/71616a02-46de-41ca-9ce6-932def211fdf'
p141
aS'http://job-openings.monster.com/monster/f58f5bbb-ab50-4a9c-acc2-b990093f2e85'
p142
aS'http://job-openings.monster.com/monster/e6350199-c9a5-47e0-8dea-e34807bfa921'
p143
aS'http://jobview.monster.com/senior-android-developer-job-new-york-ny-us-182951812.aspx'
p144
aS'http://job-openings.monster.com/monster/0cd55409-c36e-485d-834d-554cca9cca28'
p145
aS'http://job-openings.monster.com/monster/e1dba08d-2610-4405-b190-7ebfd0225e63'
p146
aS'http://job-openings.monster.com/monster/c8bba983-cc13-4b62-8729-2296cbe19f06'
p147
aS'http://job-openings.monster.com/monster/737103b9-a9c0-4c68-b55f-cafccc3ac992'
p148
aS'http://jobview.monster.com/sr-rsde-job-new-york-ny-us-182732999.aspx'
p149
aS'http://job-openings.monster.com/monster/1c1e21a0-381a-44b4-9448-28be0a6c804a'
p150
aS'http://job-openings.monster.com/monster/5325778c-188f-466f-8f68-ed9981447103'
p151
aS'http://job-openings.monster.com/monster/2401f88e-fcd4-4453-8c84-09771fed2fcc'
p152
aS'http://job-openings.monster.com/monster/02a36ab1-e61c-45d1-bb84-8709dab6591a'
p153
aS'http://job-openings.monster.com/monster/5f3ac895-bfa9-4f24-bd20-b5e56f961ac9'
p154
aS'http://job-openings.monster.com/monster/b0e238ec-696b-45f6-a1a9-9a53f1d323bb'
p155
aS'http://job-openings.monster.com/monster/2b38df3b-3ea1-41db-bac5-00e7cbd8e555'
p156
aS'http://job-openings.monster.com/monster/caeeb205-3868-46aa-907a-2c16f79ca9a9'
p157
aS'http://job-openings.monster.com/monster/b2787871-f744-43f8-b2b2-00763a9e2284'
p158
aS'http://job-openings.monster.com/monster/6bea9cfd-9c4d-470c-94bf-3d0eb86ce126'
p159
aS'http://job-openings.monster.com/monster/5497a442-58a1-4664-a782-9378b65fe558'
p160
aS'http://job-openings.monster.com/monster/03ef0802-5b69-41cd-b5f0-671af37bebad'
p161
aS'http://job-openings.monster.com/monster/f25e0476-3441-439c-962c-2342ea0db78c'
p162
aS'http://job-openings.monster.com/monster/f7169d22-b9aa-45e9-b32a-e24e35ea50db'
p163
aS'http://job-openings.monster.com/monster/918ee82d-9cf8-4796-9071-74c627adfcb3'
p164
aS'http://job-openings.monster.com/monster/ccba4171-9b06-4b34-9575-227a9237e7ba'
p165
aS'http://job-openings.monster.com/monster/b2d3d25c-2700-4c50-a778-444737c69e30'
p166
aS'http://job-openings.monster.com/monster/5d83052c-292f-443b-8fe8-52a98b5735ea'
p167
aS'http://job-openings.monster.com/monster/37f87f18-0268-4d06-870c-efcc36c058dd'
p168
aS'http://job-openings.monster.com/monster/9875f5e1-ccfb-433f-8574-8a516514a4f4'
p169
aS'http://job-openings.monster.com/monster/b7b1c8d9-7234-4ad9-bf7f-683023ba7553'
p170
aS'http://job-openings.monster.com/monster/df62f84f-2acc-441c-b9e5-42c1bcf84d25'
p171
aS'http://job-openings.monster.com/monster/91a746c9-cab6-465d-96ad-e14cdedd6e59'
p172
aS'http://job-openings.monster.com/monster/c10db63e-fa35-4ebc-9cec-33ef86886f38'
p173
aS'http://job-openings.monster.com/monster/51f33961-95b4-462e-b0d1-46342c617ad3'
p174
aS'http://job-openings.monster.com/monster/8199437a-455f-49d2-b8c2-549eccf3b0b1'
p175
aS'http://jobview.monster.com/ux-architect-level-2-242725-job-new-york-ny-us-182342778.aspx'
p176
aS'http://job-openings.monster.com/monster/e3158435-a55d-4a9f-959c-21de878a27c4'
p177
aS'http://job-openings.monster.com/monster/ed3cd877-4710-4cc0-84b5-3deb0a746721'
p178
aS'http://job-openings.monster.com/monster/144caf5c-c0c2-4589-a257-73f6fe2734bd'
p179
aS'http://jobview.monster.com/data-engineer-job-new-york-city-ny-us-183140134.aspx'
p180
aS'http://job-openings.monster.com/monster/3655fd41-7876-4f1c-9a44-9de1ea99f826'
p181
aS'http://job-openings.monster.com/monster/0cba35a2-50db-40c6-9ec8-86f75f03f0a9'
p182
aS'http://job-openings.monster.com/monster/0976bec7-c99b-4dd7-8e15-68d7be60280c'
p183
aS'http://job-openings.monster.com/monster/94163806-5dc6-419b-a093-6c9ac2c38c45'
p184
aS'http://job-openings.monster.com/monster/36dfcba5-8c22-44c3-bc4a-8b5e085556d6'
p185
aS'http://job-openings.monster.com/monster/67e78407-e855-4e9f-8368-6778cd7549b0'
p186
aS'http://job-openings.monster.com/monster/f1e595b3-0f6e-4202-b71d-40cc4f47a396'
p187
aS'http://job-openings.monster.com/monster/bcf1c6fe-6282-447f-a397-a92d76f1a9c7'
p188
aS'http://job-openings.monster.com/monster/7db7a7fe-9e7b-4c8f-bd26-2a093d281d8d'
p189
aS'http://job-openings.monster.com/monster/20d90d66-bf5e-475c-8a8c-563b3b201107'
p190
aS'http://job-openings.monster.com/monster/c7a2fb26-619b-4022-9895-fdcfe21ba346'
p191
aS'http://job-openings.monster.com/monster/e951ac92-c989-4871-8a82-202d3d9d1279'
p192
aS'http://job-openings.monster.com/monster/9b8942c3-1610-4e9e-af34-22a5131dc556'
p193
aS'http://job-openings.monster.com/monster/7284c94a-7afc-4e37-979b-790f8ab4d2a5'
p194
aS'http://job-openings.monster.com/monster/d1d0cd2d-0fdd-42ad-8b72-9c2c0da04030'
p195
aS'http://job-openings.monster.com/monster/af50a5b2-096f-4620-ae59-427755a03037'
p196
aS'http://job-openings.monster.com/monster/2862bffa-be21-4603-b815-de1223d30e2e'
p197
aS'http://job-openings.monster.com/monster/fc16ac59-97ac-4253-b2d3-f17113afb13a'
p198
aS'http://job-openings.monster.com/monster/a8d3a00d-b49d-4bc2-b1f6-4c9f4c82231c'
p199
aS'http://jobview.monster.com/ux-designer-job-new-york-ny-us-182747267.aspx'
p200
aS'http://job-openings.monster.com/monster/59468040-7ca7-43f9-a53d-fe85c448601f'
p201
aS'http://job-openings.monster.com/monster/f3b02d36-be5e-4013-b69b-b6a37ab0baae'
p202
aS'http://job-openings.monster.com/monster/70610994-5e43-4eac-9fd0-ad69b45ae974'
p203
aS'http://job-openings.monster.com/monster/78b21bfc-c702-4fdc-bdc8-12013f5d3383'
p204
aS'http://job-openings.monster.com/monster/8cc7097f-c7ff-454d-aad1-cbb123f61012'
p205
aS'http://job-openings.monster.com/monster/6a10096a-d9b3-44d7-b59b-40b560868727'
p206
aS'http://job-openings.monster.com/monster/a283ed3c-e83d-447f-8ce0-015942a876ea'
p207
aS'http://job-openings.monster.com/monster/022aebde-da70-4ce4-91c3-0d2c336c1e69'
p208
aS'http://job-openings.monster.com/monster/250779d2-ca76-44f0-9940-6acbf75bbfbf'
p209
aS'http://job-openings.monster.com/monster/eb77a0e0-486b-4ebd-a788-ae4f1e10252c'
p210
aS'http://job-openings.monster.com/monster/458a2979-9d3b-4e80-bfe8-56c7841666dd'
p211
aS'http://job-openings.monster.com/monster/fd374270-3b54-4417-9e76-956fc85fef8d'
p212
aS'http://job-openings.monster.com/monster/6187c3bf-7fb6-41da-8405-fbe88d72703a'
p213
aS'http://job-openings.monster.com/monster/937541fa-1f72-4bc4-925c-c61679261a69'
p214
aS'http://job-openings.monster.com/monster/a78727a4-bde3-484c-8a28-998ec36c7f86'
p215
aS'http://job-openings.monster.com/monster/9b6ad2ba-4e16-4b3e-adb2-05bbf0e31c62'
p216
aS'http://job-openings.monster.com/monster/1675710e-5248-4e5b-9476-8a24e1c559d2'
p217
aS'http://jobview.monster.com/data-scientist-economy-simulator-longitudinal-panel-research-job-new-york-city-ny-us-183099789.aspx'
p218
aS'http://job-openings.monster.com/monster/7a74eb21-f663-49f3-81d8-bae6b3974b97'
p219
aS'http://job-openings.monster.com/monster/44f1beab-ae9c-4ca3-8f74-7221fea3026d'
p220
aS'http://job-openings.monster.com/monster/88d6aac6-44d1-41bf-b19d-d98f699a1656'
p221
aS'http://job-openings.monster.com/monster/0792b945-89cc-462a-870b-88ad7c837633'
p222
aS'http://job-openings.monster.com/monster/e153a2d2-a54e-465a-950b-cc7883b0ebea'
p223
aS'http://job-openings.monster.com/monster/c56fa919-0122-4bce-b9ab-87e3eb8147c5'
p224
aS'http://job-openings.monster.com/monster/3056eb5d-ad91-41bd-b1af-e5509c28dff8'
p225
aS'http://job-openings.monster.com/monster/42d505fd-585b-4e75-baea-1e8acaff4f9b'
p226
aS'http://job-openings.monster.com/monster/21a15ad2-fd55-4580-90c3-4f78c0223fff'
p227
aS'http://job-openings.monster.com/monster/8acef82d-2319-434b-933d-e2e3dca7e5b2'
p228
aS'http://job-openings.monster.com/monster/219e205d-0232-40e8-ae3d-a2263fe267f0'
p229
aS'http://jobview.monster.com/data-scientist-machine-learning-data-mining-python-job-new-york-city-ny-us-182616747.aspx'
p230
aS'http://job-openings.monster.com/monster/4b4cd9d6-1925-4b3e-beff-7f465fa3d70c'
p231
aS'http://job-openings.monster.com/monster/5ca6ace7-de64-45ab-8c16-034e4ee29425'
p232
aS'http://job-openings.monster.com/monster/bac32df9-5538-4c6e-a230-32d46eff99e9'
p233
aS'http://job-openings.monster.com/monster/7316b19f-a832-4908-bf88-e3d639338c2c'
p234
aS'http://job-openings.monster.com/monster/d223f4a9-d3c4-422b-9242-ae4263f3a63a'
p235
aS'http://job-openings.monster.com/monster/2d799bac-fe72-40d7-8b2b-6ae0bf274bbc'
p236
aS'http://job-openings.monster.com/monster/afdeaa58-a97c-4d69-a220-a4854f24be8c'
p237
aS'http://job-openings.monster.com/monster/1125c8a7-fc2d-46f3-8751-1b1552c99154'
p238
aS'http://job-openings.monster.com/monster/dd0cfc41-c075-4a8a-ab25-d9837a7dc889'
p239
aS'http://job-openings.monster.com/monster/e6e8f5ef-fbfa-4991-bc57-31620838cd68'
p240
aS'http://job-openings.monster.com/monster/a7b9c53f-1c78-4ec8-bfac-9e15b8f9eb21'
p241
aS'http://job-openings.monster.com/monster/f2f42943-f760-4026-9d00-c29d725da289'
p242
aS'http://job-openings.monster.com/monster/cca74b46-93e6-4a8f-a39b-2da5d12c6152'
p243
aS'http://job-openings.monster.com/monster/8e6b832b-1c7f-4324-b64b-83eb9f66d42d'
p244
aS'http://job-openings.monster.com/monster/80ddaccf-e0cc-4af2-acf2-14106f563147'
p245
aS'http://job-openings.monster.com/monster/d2ae077d-13c1-498c-aaa5-db3d81d553a8'
p246
aS'http://job-openings.monster.com/monster/15ddf174-8a02-4ce9-889b-11d545e6a79b'
p247
aS'http://job-openings.monster.com/monster/44b02eb2-19bc-4d81-9500-28b03dc7e2e0'
p248
aS'http://job-openings.monster.com/monster/71eb59f0-2b89-44a2-a3c5-bce432567750'
p249
aS'http://job-openings.monster.com/monster/0322a115-ab4c-42d9-bb05-3a3d5554b84d'
p250
aS'http://job-openings.monster.com/monster/90b38c6f-5af8-4c9c-80ba-b67b700796c2'
p251
aS'http://job-openings.monster.com/monster/ce69393c-20c3-47d2-961d-d19f2466e3da'
p252
aS'http://job-openings.monster.com/monster/0347b7f0-3de3-4b8a-8bcb-fd9ac691eccf'
p253
aS'http://job-openings.monster.com/monster/e76e38e6-8f68-4833-98ba-38f088914991'
p254
aS'http://job-openings.monster.com/monster/b6da7adc-26c9-4e1c-84db-0d5240bbf28c'
p255
aS'http://job-openings.monster.com/monster/d6bf7f00-d4fe-4b6b-93e0-03f5fdc61dfb'
p256
aS'http://job-openings.monster.com/monster/5c176ba2-af8d-4f23-99c8-e3220dbaa688'
p257
aS'http://job-openings.monster.com/monster/b06a530d-644c-4d12-a5dd-667dff7bdb6b'
p258
aS'http://job-openings.monster.com/monster/08298899-94ea-4ab7-9348-0d307caea915'
p259
aS'http://job-openings.monster.com/monster/3baecebb-5f36-43aa-8d50-1464238cdcbe'
p260
aS'http://job-openings.monster.com/monster/6f8ddfea-9701-464f-9d2b-790595942011'
p261
aS'http://job-openings.monster.com/monster/33125581-19e0-4c80-b8e6-2a48480cd080'
p262
aS'http://job-openings.monster.com/monster/5b5498e9-5d2c-475d-ac31-44dd7b8776c5'
p263
aS'http://jobview.monster.com/group-account-supervisor-job-new-york-city-ny-us-182285476.aspx'
p264
aS'http://job-openings.monster.com/monster/b4259a57-9ebf-4a57-adbb-750e85f622ad'
p265
aS'http://job-openings.monster.com/monster/c5d5a0f3-20a9-4346-85f0-ae8a03931f4f'
p266
aS'http://job-openings.monster.com/monster/df412e62-99fb-428e-9fb9-37de4805c943'
p267
aS'http://jobview.monster.com/lead-automation-engineer-job-new-york-ny-us-182952287.aspx'
p268
aS'http://job-openings.monster.com/monster/aa6b459d-d8fd-4239-890a-9c229cbdcb89'
p269
aS'http://job-openings.monster.com/monster/19671010-ed79-4adc-bc65-f0390d1f73a8'
p270
aS'http://job-openings.monster.com/monster/08113afb-af3d-4885-b91e-e7d446f68b5b'
p271
aS'http://job-openings.monster.com/monster/ab934430-fc67-4eab-8c52-0c5e2d90931a'
p272
aS'http://job-openings.monster.com/monster/a82ddd33-48c2-42ff-9b0f-89589ea31d43'
p273
aS'http://job-openings.monster.com/monster/13d6ba03-7592-411a-81fd-9c001f37ea42'
p274
aS'http://job-openings.monster.com/monster/ab4918e7-8b40-4950-8bc1-6db5427cfbf9'
p275
aS'http://job-openings.monster.com/monster/861824b9-fa1c-49c9-a65d-e28c05fb139b'
p276
aS'http://job-openings.monster.com/monster/7c8a09c5-f181-4ca4-bd9b-24bf286ae795'
p277
aS'http://jobview.monster.com/data-analyst-data-scientist-job-new-york-ny-us-182829389.aspx'
p278
aS'http://job-openings.monster.com/monster/d973c7d3-7c7f-45ce-bb98-913b86e0861d'
p279
aS'http://job-openings.monster.com/monster/e922fff6-e2fd-48a0-8e02-c519c4d9211b'
p280
aS'http://job-openings.monster.com/monster/4628a30c-ea4e-4ada-9bf5-7739a7bcddc4'
p281
aS'http://job-openings.monster.com/monster/16d5bc01-d7c3-4ea1-a406-7d4ef2e31e91'
p282
aS'http://job-openings.monster.com/monster/d73f4e64-2aa0-41f1-9ddb-a360bd718b1b'
p283
aS'http://job-openings.monster.com/monster/b6f7ccca-f10c-4668-8938-1aac0250e27b'
p284
aS'http://job-openings.monster.com/monster/ed393d4e-16a4-49bd-941c-7eec137d84ac'
p285
aS'http://job-openings.monster.com/monster/f7554788-f70c-44c4-a781-9fd7ce31e3e1'
p286
aS'http://job-openings.monster.com/monster/31f94617-93c9-430f-adf8-17d029c89cf9'
p287
aS'http://job-openings.monster.com/monster/a2a19902-823d-42b8-888a-230faa389063'
p288
aS'http://job-openings.monster.com/monster/994cf112-950a-42ec-ba94-7187e5a664e4'
p289
aS'http://job-openings.monster.com/monster/213c3478-742d-4e15-9ddf-12dff10c437c'
p290
aS'http://jobview.monster.com/financial-scientist-job-new-york-ny-us-182332199.aspx'
p291
aS'http://job-openings.monster.com/monster/5af31a8d-533d-43ff-93b6-3e17905c008b'
p292
aS'http://job-openings.monster.com/monster/f72f3d07-c757-4a83-af11-25cc81dc1321'
p293
aS'http://job-openings.monster.com/monster/a5ff19d5-d40b-48ce-9d15-c7dfc4276f74'
p294
aS'http://job-openings.monster.com/monster/f12348a7-a4e3-48d1-b819-5910ab94fb87'
p295
aS'http://job-openings.monster.com/monster/3b6b61cb-4aa6-4c35-8990-958767aa5880'
p296
aS'http://job-openings.monster.com/monster/204a1574-c5f8-4371-9412-0380940c29ed'
p297
aS'http://job-openings.monster.com/monster/7314d5cf-c845-4593-846d-9ada82c72806'
p298
aS'http://job-openings.monster.com/monster/6f45ee0a-d0a5-4439-b89f-7abbf3b0c9ac'
p299
aS'http://job-openings.monster.com/monster/1c184bf9-31a9-4599-94aa-7d478b6495a9'
p300
aS'http://job-openings.monster.com/monster/f27f2d5a-56ad-414e-a291-351cbf2ef44b'
p301
aS'http://job-openings.monster.com/monster/adc80fef-4e11-4776-bc02-af2f33af43b7'
p302
aS'http://job-openings.monster.com/monster/a9244e1b-ac7d-47f3-8c90-658efc83ac8d'
p303
aS'http://job-openings.monster.com/monster/3582eb26-4f0f-44b0-8345-71bbd8ad0b19'
p304
aS'http://job-openings.monster.com/monster/c39d4e23-88e8-40a2-9b6a-d7d0f1a234d9'
p305
aS'http://job-openings.monster.com/monster/a025822f-1ccb-42c3-9096-c675185ade94'
p306
aS'http://job-openings.monster.com/monster/0e48186a-3b16-45f3-a04e-adb6379ba70d'
p307
aS'http://job-openings.monster.com/monster/f90c3aae-1beb-4779-91d4-9ab1b31e1d9c'
p308
aS'http://job-openings.monster.com/monster/78d5818b-5fb9-4663-9e14-926943de267d'
p309
aS'http://job-openings.monster.com/monster/c9440736-b9d9-44df-a51b-d7b0e1b7d519'
p310
aS'http://job-openings.monster.com/monster/39823606-4d67-45fd-9c54-9d2e0646d82f'
p311
aS'http://job-openings.monster.com/monster/fec0b93f-823a-4581-80c3-79d326ba16ce'
p312
aS'http://jobview.monster.com/senior-ios-developer-job-new-york-ny-us-182951478.aspx'
p313
aS'http://job-openings.monster.com/monster/51793dad-ff9d-402a-875d-d081291f16c5'
p314
aS'http://job-openings.monster.com/monster/78ddae70-c8ec-474a-bc22-b6ad3d793085'
p315
aS'http://job-openings.monster.com/monster/bf50350b-3611-4650-b471-ae9bd5cf106c'
p316
aS'http://jobview.monster.com/senior-visual-designer-job-new-york-ny-us-182211543.aspx'
p317
aS'http://job-openings.monster.com/monster/052bafcd-4513-4de1-83d0-f2f5aae784e3'
p318
aS'http://job-openings.monster.com/monster/1b1e02c3-bfbb-4982-92e9-c5360ef5f7d7'
p319
aS'http://job-openings.monster.com/monster/0e4d92ab-1e52-4e59-a22b-9d91fd401209'
p320
aS'http://job-openings.monster.com/monster/9f71198e-9a36-4579-ac5a-b5404f561390'
p321
aS'http://job-openings.monster.com/monster/227430a4-e95c-48b0-bbf6-af9aff6e8e7e'
p322
aS'http://job-openings.monster.com/monster/3b3dd17b-d796-4452-a865-d86507200c48'
p323
aS'http://job-openings.monster.com/monster/a7a3b71d-dde4-4cdf-bd24-59d5c026feb6'
p324
aS'http://job-openings.monster.com/monster/ad66aab5-2ec0-4057-921e-51aab760cea8'
p325
aS'http://job-openings.monster.com/monster/2fba16e2-dee9-4e98-a8ef-3c528eb63480'
p326
aS'http://job-openings.monster.com/monster/7a3973bd-7524-4aeb-8bb7-14db7019799a'
p327
aS'http://job-openings.monster.com/monster/e3f5503e-be89-489e-9c73-bd12f487ddb4'
p328
aS'http://job-openings.monster.com/monster/bd047196-f522-4027-860a-684b80bc0c8c'
p329
aS'http://job-openings.monster.com/monster/9169fd87-f8fc-45b8-9003-a22c48b0e64e'
p330
aS'http://job-openings.monster.com/monster/3290be21-a70e-441e-8922-8ebae4b9522a'
p331
aS'http://jobview.monster.com/data-scientist-job-new-york-ny-us-183081173.aspx'
p332
aS'http://job-openings.monster.com/monster/81d788f5-e4ca-4ec9-aec2-5e3873dc4318'
p333
aS'http://jobview.monster.com/data-scientist-applied-nlp-job-new-york-ny-us-182119255.aspx'
p334
aS'http://job-openings.monster.com/monster/44428e59-8e31-4aed-b2fa-f476d0b37c0b'
p335
aS'http://job-openings.monster.com/monster/9318242a-f79d-4458-8bc3-23d0263d8e99'
p336
aS'http://job-openings.monster.com/monster/9b85c0fb-3dd9-439d-b55b-26371a816037'
p337
aS'http://job-openings.monster.com/monster/ad5f44c6-3ed1-4d89-b99c-232f64a67798'
p338
aS'http://job-openings.monster.com/monster/8134b870-f941-453a-b51a-6bf972354bc2'
p339
aS'http://job-openings.monster.com/monster/854be4cc-429e-40dc-a296-938e874639aa'
p340
aS'http://job-openings.monster.com/monster/a856bf83-45a1-4d9b-907a-c8bd5614b4cc'
p341
aS'http://job-openings.monster.com/monster/026333f6-6f5c-4ec6-a07f-f09cc38d1473'
p342
aS'http://job-openings.monster.com/monster/c42855b8-90be-4d5a-9d1f-ab914df1ea59'
p343
aS'http://job-openings.monster.com/monster/6e31dc02-f650-4022-aebf-6ad43be054b7'
p344
aS'http://job-openings.monster.com/monster/748fd772-a435-4074-aff4-a915a700b7fd'
p345
aS'http://job-openings.monster.com/monster/5d6e0a83-47ad-460b-a540-d18e7e22290d'
p346
aS'http://job-openings.monster.com/monster/7c2f883b-d2a4-402f-a702-99b780a29e66'
p347
aS'http://job-openings.monster.com/monster/341a4fa7-10da-4867-a524-fa11d05c345d'
p348
aS'http://job-openings.monster.com/monster/fd49da47-062a-4a2b-b58a-0bfa1975ea20'
p349
aS'http://job-openings.monster.com/monster/ffa50b6f-30d1-4e2d-8910-1c07c40efca9'
p350
aS'http://job-openings.monster.com/monster/cfc4efec-3814-4d14-a3dd-8feeb7265c5c'
p351
aS'http://job-openings.monster.com/monster/3c267d6f-2ac8-473f-9d94-e28eb81c9b66'
p352
aS'http://job-openings.monster.com/monster/13f4728f-111e-4444-8d17-0cdaa89f5c84'
p353
aS'http://job-openings.monster.com/monster/bf01fef2-687c-41f9-a10d-adf3ba21af1c'
p354
aS'http://job-openings.monster.com/monster/e453aea3-1395-4d88-a1a2-174189f07911'
p355
aS'http://job-openings.monster.com/monster/6ee03795-18c4-4ebe-b658-e1b1f4df3e3f'
p356
aS'http://job-openings.monster.com/monster/e2b66bd8-fb87-4f82-aadf-3fa59b96498b'
p357
aS'http://job-openings.monster.com/monster/b18177e9-0429-4f06-8540-d8441c914269'
p358
aS'http://job-openings.monster.com/monster/4a20e44d-a083-440d-b0ec-046aa33a2c05'
p359
aS'http://job-openings.monster.com/monster/6b67ca45-0728-4b77-82da-7abd2a622a5a'
p360
aS'http://job-openings.monster.com/monster/b51eaeb6-b400-4348-b340-6fd1234e5095'
p361
aS'http://job-openings.monster.com/monster/351c0f31-4eda-4ad0-bcc8-a5ad26596967'
p362
aS'http://job-openings.monster.com/monster/7552a016-ca7e-4b3b-bb7e-e246d631042b'
p363
aS'http://job-openings.monster.com/monster/ef570d2e-a508-4c6c-980c-3d24f3314dd4'
p364
aS'http://job-openings.monster.com/monster/c57cd9fa-d577-4c4c-896a-6decf894ce02'
p365
aS'http://job-openings.monster.com/monster/64ddbd28-c74c-4920-92b0-366a116612b4'
p366
aS'http://job-openings.monster.com/monster/a59ecbd0-ed7f-470b-8fd2-14dab81f6978'
p367
aS'http://job-openings.monster.com/monster/7d44a5ec-631d-41da-9d41-7325eac63d7e'
p368
aS'http://job-openings.monster.com/monster/72b44a9d-f961-4bb9-85e7-35e3e3ec4680'
p369
aS'http://job-openings.monster.com/monster/cc02e78c-2a06-4e0c-8bbc-3965e144c0be'
p370
aS'http://job-openings.monster.com/monster/9ba8d498-3abf-4773-9dfe-5c21a6b9c561'
p371
aS'http://job-openings.monster.com/monster/006f2fb3-cdfa-4f66-a039-f5030a2b8504'
p372
aS'http://job-openings.monster.com/monster/f2f1d26b-1250-4117-8adf-c75215f3fb5c'
p373
aS'http://job-openings.monster.com/monster/c750d599-5037-413d-b71d-ec330c451b53'
p374
aS'http://job-openings.monster.com/monster/d26df970-f941-4435-8a62-cf262f342e93'
p375
aS'http://job-openings.monster.com/monster/fb109257-7cda-4f8a-8fba-19b462cc9ef4'
p376
aS'http://job-openings.monster.com/monster/9e457094-dc58-47a5-ac26-8b2bc8d5aa29'
p377
aS'http://job-openings.monster.com/monster/f78542ec-91fe-4e46-8e3e-723763c3ad31'
p378
aS'http://job-openings.monster.com/monster/d2ed9959-0b83-4d9a-9959-79389127afc3'
p379
aS'http://job-openings.monster.com/monster/c7f263b9-2205-416f-a840-011f0b81a06c'
p380
aS'http://job-openings.monster.com/monster/e25855e4-974f-4af6-b0e3-28c94579665b'
p381
aS'http://job-openings.monster.com/monster/52b334a2-1b9a-4cb7-b640-ccace828039e'
p382
aS'http://job-openings.monster.com/monster/101b37da-6c11-4579-b091-b1d5a7611b25'
p383
aS'http://job-openings.monster.com/monster/956578aa-3c93-42c5-85c0-6dc36a46b9e3'
p384
aS'http://job-openings.monster.com/monster/68719c38-0c29-41fe-bea1-18c3ceb7877a'
p385
aS'http://job-openings.monster.com/monster/27ddd66c-6e77-488a-bfbb-99f7b41c64ae'
p386
aS'http://job-openings.monster.com/monster/80504819-7295-4540-b61c-a7c51d157871'
p387
aS'http://job-openings.monster.com/monster/b6d7f496-eef4-4409-ba16-2b68d455aaec'
p388
aS'http://job-openings.monster.com/monster/699203b8-8035-498c-8323-b7efe5ea78fb'
p389
aS'http://job-openings.monster.com/monster/4eb451d6-dc04-4e92-9294-81155e76c4c7'
p390
aS'http://job-openings.monster.com/monster/8f911d6a-8052-4d64-b7ca-10225cb7e4e7'
p391
aS'http://jobview.monster.com/data-engineer-job-new-york-ny-us-182952813.aspx'
p392
aS'http://job-openings.monster.com/monster/830b2b23-609a-4e81-b56e-8ca9a391a85d'
p393
aS'http://job-openings.monster.com/monster/e0641036-80f5-4d34-825c-d39b04ea4eee'
p394
aS'http://job-openings.monster.com/monster/238a4815-edfb-432e-9551-8826aab0ca2f'
p395
aS'http://job-openings.monster.com/monster/0e6d54c2-7305-4fd6-a4a0-1a32de97f68c'
p396
aS'http://job-openings.monster.com/monster/494600dd-9d57-4db8-aab9-9dec49c6c8f0'
p397
aS'http://job-openings.monster.com/monster/42272e29-de45-4deb-b7e7-3b21e4b19719'
p398
aS'http://job-openings.monster.com/monster/5694b97d-9461-4352-bd7d-1a813f645e5a'
p399
aS'http://job-openings.monster.com/monster/71c56312-0272-49d7-91a5-38034b7408c0'
p400
aS'http://job-openings.monster.com/monster/43d19b01-3cd9-41b4-b1c4-c29ccaf88f3f'
p401
aS'http://job-openings.monster.com/monster/247091fe-f5cd-4c1c-9982-010cda26e844'
p402
aS'http://job-openings.monster.com/monster/3b1dc24d-90ae-4bac-b916-8089a89bd82a'
p403
aS'http://job-openings.monster.com/monster/49986a0e-c73c-4b53-8455-22b71bc839b0'
p404
aS'http://job-openings.monster.com/monster/b90d1b7e-c9ee-4239-913a-de3dba11b64a'
p405
aS'http://job-openings.monster.com/monster/bd2d677f-bd92-4d13-9a1b-4673d20dca1e'
p406
aS'http://job-openings.monster.com/monster/63bf6f0b-feff-461c-a4e0-7dccb13b614d'
p407
aS'http://job-openings.monster.com/monster/d530bf07-8500-4dc5-91ac-1dfac219cee1'
p408
aS'http://job-openings.monster.com/monster/48c53ac5-2c7e-473f-b212-1152f3639a5d'
p409
aS'http://job-openings.monster.com/monster/c133bc1f-b715-4a0d-8a07-1a66d1da6ff3'
p410
aS'http://job-openings.monster.com/monster/2a2c765c-08ef-4382-80c0-dfcaeb4e87b3'
p411
aS'http://job-openings.monster.com/monster/7d64129b-f0c6-407d-8c92-e3db59485d19'
p412
aS'http://job-openings.monster.com/monster/0e414fee-4714-4c8e-9f95-e6fb23308cf8'
p413
aS'http://job-openings.monster.com/monster/5133fdb1-5d8f-4459-8947-e83de474e54e'
p414
aS'http://job-openings.monster.com/monster/ded71114-43cf-4762-8b73-84e5e2ac7853'
p415
aS'http://job-openings.monster.com/monster/7147fadb-b587-4a73-9034-e00fdb33668b'
p416
aS'http://job-openings.monster.com/monster/efe26e3a-2066-4d73-8602-9f9ae22eeb1a'
p417
aS'http://job-openings.monster.com/monster/c7af3c62-b62c-43b6-b130-a8df2a709094'
p418
aS'http://job-openings.monster.com/monster/e076f942-9361-4db2-8a94-c38474a69750'
p419
aS'http://job-openings.monster.com/monster/4ac705ae-c35f-4409-8b0a-58836434c863'
p420
aS'http://job-openings.monster.com/monster/e7d0f540-a218-4a55-80de-eb216f591291'
p421
aS'http://job-openings.monster.com/monster/2c0a0a94-a381-4302-92b3-037ceed05057'
p422
aS'http://job-openings.monster.com/monster/ee52f3f9-e36a-49c5-b163-23836a85f0e7'
p423
aS'http://job-openings.monster.com/monster/e9a2bd4e-9024-4078-be38-5a157efbae89'
p424
aS'http://job-openings.monster.com/monster/74d2619c-d8e9-461d-998f-59b82a99bc59'
p425
aS'http://job-openings.monster.com/monster/2bbcaea8-29ed-4fb8-8dfc-c2abf6da6213'
p426
aS'http://job-openings.monster.com/monster/634ca9ac-2610-4b48-9db7-531243195506'
p427
aS'http://job-openings.monster.com/monster/113aa9e9-17f6-4b65-bc29-16664dbf9df3'
p428
aS'http://job-openings.monster.com/monster/a40aaa3c-cb90-4d1e-a6a8-b8641eb56a70'
p429
aS'http://job-openings.monster.com/monster/59b32457-da33-45b5-8b38-d41153842ade'
p430
aS'http://job-openings.monster.com/monster/be3cc4eb-0bb9-4409-9644-b4d93af708ee'
p431
aS'http://job-openings.monster.com/monster/0d1061bd-c61e-45b7-bd0e-82d6db3eb167'
p432
aS'http://job-openings.monster.com/monster/10b20cb9-6c7f-4623-8468-cfd40fcecc60'
p433
aS'http://job-openings.monster.com/monster/7be67901-cfa9-4a90-a13b-4708a351cdc1'
p434
aS'http://job-openings.monster.com/monster/51bc4e10-1910-4fcf-a3cb-aa9a60a65002'
p435
aS'http://job-openings.monster.com/monster/ca63d4b8-59b4-4a6d-9491-af0b7d3c0bcc'
p436
aS'http://jobview.monster.com/senior-visual-designer-242596-job-brooklyn-ny-us-182343766.aspx'
p437
aS'http://job-openings.monster.com/monster/40e1c31d-1f0e-496b-a285-1a402a8eec06'
p438
aS'http://job-openings.monster.com/monster/3afe5791-2da2-4eba-bb35-4d17b2a351a9'
p439
aS'http://job-openings.monster.com/monster/b0781c17-d07d-4868-8892-536da7d59a48'
p440
aS'http://job-openings.monster.com/monster/19b9ac45-7aaa-4a6e-81bd-dfdb4b5d5442'
p441
aS'http://job-openings.monster.com/monster/c2413e98-b930-4ff5-89ec-547df0df1a32'
p442
aS'http://job-openings.monster.com/monster/ea85afee-d765-4a64-8588-5c511e3e3b02'
p443
aS'http://job-openings.monster.com/monster/8675be86-2253-4a05-b67b-e39fdaf74ca5'
p444
aS'http://job-openings.monster.com/monster/a34a7c89-19e6-4ec8-b307-8a098cc12b16'
p445
aS'http://job-openings.monster.com/monster/42b525e6-7448-4097-9a47-e25b59f4a942'
p446
aS'http://job-openings.monster.com/monster/1da54c63-b200-41bb-a39d-75e325e48e8a'
p447
aS'http://job-openings.monster.com/monster/84585a47-3fe0-4a88-beba-853892204ca0'
p448
aS'http://job-openings.monster.com/monster/cfd8bee1-30fc-4989-ab9e-d45643b0af2c'
p449
aS'http://job-openings.monster.com/monster/f2d7e2cf-92d8-4f1d-ac86-bdb386058bc2'
p450
aS'http://job-openings.monster.com/monster/628ec7b8-9aac-4c09-ad36-196dea8e514a'
p451
aS'http://job-openings.monster.com/monster/564d45ec-a0a9-4281-a058-e210cdc28b84'
p452
aS'http://job-openings.monster.com/monster/99004f36-08c8-4729-8de6-719ec6b46380'
p453
aS'http://job-openings.monster.com/monster/36f3c6ef-9fdb-4331-adcf-5f3baae84de7'
p454
aS'http://job-openings.monster.com/monster/c3aaf57c-6e9e-431a-9a4e-1a4b50901021'
p455
aS'http://job-openings.monster.com/monster/bf667aca-6975-4d27-a8f1-efbf9de65dab'
p456
aS'http://job-openings.monster.com/monster/299c91f8-f722-4ccf-bdad-f447ab948558'
p457
aS'http://job-openings.monster.com/monster/a6d3278b-899e-4a70-8ce5-758941ac543a'
p458
aS'http://job-openings.monster.com/monster/963dd665-7b25-4952-b1e4-63ca7001aa43'
p459
aS'http://job-openings.monster.com/monster/af5b7aa7-28c6-49b4-ad7b-3e39b10096fe'
p460
aS'http://job-openings.monster.com/monster/32941623-2779-4bf3-81f2-6a121653cf2e'
p461
aS'http://job-openings.monster.com/monster/1044a2ff-cb9d-4854-8989-d402622ac17a'
p462
aS'http://job-openings.monster.com/monster/37a41767-2c27-488d-8140-3e308df85a7f'
p463
aS'http://job-openings.monster.com/monster/59b3132d-637c-4f0b-a5dc-4aaebb6535c6'
p464
aS'http://job-openings.monster.com/monster/757cba42-cbf3-4f4a-8955-684502e3778c'
p465
aS'http://job-openings.monster.com/monster/746cad85-9f4f-4754-8c27-602c41762e63'
p466
aS'http://job-openings.monster.com/monster/385ebe00-5f45-4611-9c87-8472ee2a778b'
p467
aS'http://job-openings.monster.com/monster/d5b7d9b7-7cea-49bf-b2fc-8439fbad5cca'
p468
aS'http://job-openings.monster.com/monster/7bfda009-9e24-4eb5-92fd-e8b8c7430460'
p469
aS'http://job-openings.monster.com/monster/96416679-2d8a-49f0-aa6d-5653efb33add'
p470
aS'http://job-openings.monster.com/monster/eb4d8c66-3aba-4ffd-a17a-5cf730a62e71'
p471
aS'http://job-openings.monster.com/monster/48d7dc4f-a876-41bc-a3cb-62df8d69a392'
p472
aS'http://job-openings.monster.com/monster/1b908986-450e-46dd-8f9c-23fccc95eb60'
p473
aS'http://job-openings.monster.com/monster/5cf3aa6f-1c32-45d4-b385-8ef50d099c79'
p474
aS'http://job-openings.monster.com/monster/06d92a44-fedb-47b6-8eb6-49be8c6e833d'
p475
aS'http://job-openings.monster.com/monster/53b3d929-3c56-425b-91e9-9dabeb7301b4'
p476
aS'http://job-openings.monster.com/monster/626b234f-4a51-4502-9597-f44c4fc5c082'
p477
aS'http://job-openings.monster.com/monster/f644c724-2d09-4c79-94ce-e0196c88aaa9'
p478
aS'http://job-openings.monster.com/monster/8cd33db8-860b-4b77-a41e-74ffa4726c68'
p479
aS'http://job-openings.monster.com/monster/6312514f-691c-4a42-ba3e-60b5a2b025d4'
p480
aS'http://job-openings.monster.com/monster/62a7c372-b38f-49fe-a830-b30410f5cd31'
p481
aS'http://job-openings.monster.com/monster/7513a239-5347-4ddf-9c34-9948fbeed1f1'
p482
aS'http://job-openings.monster.com/monster/d97438b5-a4c5-4cc8-9596-94ee3192c19e'
p483
aS'http://jobview.monster.com/senior-data-scientist-job-santa-clara-ca-us-182484322.aspx'
p484
aS'http://job-openings.monster.com/monster/d6756b93-98dc-4d6f-a6f2-c3266e8af79a'
p485
aS'http://job-openings.monster.com/monster/94a8a7e5-207f-480f-bcf6-b44959755795'
p486
aS'http://job-openings.monster.com/monster/4e949989-8cfe-4354-9a52-292eee7facc7'
p487
aS'http://job-openings.monster.com/monster/531c4b7e-de37-46f5-849b-41dc60e2a0d2'
p488
aS'http://job-openings.monster.com/monster/9751d374-2dfa-4a94-b5ef-1e13662dc7a3'
p489
aS'http://job-openings.monster.com/monster/905d7860-b975-4ecc-9343-b0c6d644f03b'
p490
aS'http://job-openings.monster.com/monster/886a5430-81c6-4a53-970c-fd2a95e4fe4d'
p491
aS'http://job-openings.monster.com/monster/cecf1937-667c-4283-85a3-d36e9c7c43f1'
p492
aS'http://job-openings.monster.com/monster/32e8fe4c-f1cc-4210-b961-ba7e5d11923e'
p493
aS'http://job-openings.monster.com/monster/1195c7b2-c9e8-4412-8da1-21f496a813a2'
p494
aS'http://job-openings.monster.com/monster/377d0f54-a1db-4bfc-94c4-a59a5f55e6dd'
p495
aS'http://job-openings.monster.com/monster/0bebeb1f-9981-414a-aee0-2582e25955a6'
p496
aS'http://job-openings.monster.com/monster/f44c9b99-d1ee-4188-b2c9-650f846f8743'
p497
aS'http://job-openings.monster.com/monster/51be19bb-9b7f-4b32-9cba-9786e4e33ede'
p498
aS'http://jobview.monster.com/ux-architect-job-new-york-ny-us-182349098.aspx'
p499
aS'http://job-openings.monster.com/monster/bc6dd919-1db1-48c9-86ab-6e6d31697ce4'
p500
aS'http://job-openings.monster.com/monster/c27e3ddc-3815-4840-9213-75d132fd281a'
p501
aS'http://job-openings.monster.com/monster/8fce946c-42fa-4aa8-ac54-fa553dca0cc4'
p502
aS'http://job-openings.monster.com/monster/0139d1b3-1c74-400c-b113-44c44547eb9a'
p503
aS'http://job-openings.monster.com/monster/d5a6cfe0-818c-4615-96b8-2e17e18fa1d3'
p504
aS'http://job-openings.monster.com/monster/3cb0cfa9-a702-4a91-a338-3238a5d78271'
p505
aS'http://job-openings.monster.com/monster/f3aa19d7-06e9-498d-991b-8b68abad187e'
p506
aS'http://job-openings.monster.com/monster/5964a1be-e9de-4b51-888e-6d325f0b8810'
p507
aS'http://jobview.monster.com/financial-market-data-analyst-job-manhattan-ny-us-183145456.aspx'
p508
aS'http://job-openings.monster.com/monster/78396d57-0515-44ea-8a35-8ee7e572eb07'
p509
aS'http://job-openings.monster.com/monster/bec650db-5102-4bbd-a9ad-8d1b29213442'
p510
aS'http://job-openings.monster.com/monster/657b75e3-26bb-4a97-82db-0e585285bcfc'
p511
aS'http://job-openings.monster.com/monster/b5eccee1-b2f8-4136-9ad4-4c26cabcbebf'
p512
aS'http://job-openings.monster.com/monster/9b1ccb7c-595a-45db-9ab0-1459489c184c'
p513
aS'http://job-openings.monster.com/monster/d8b1375d-751c-4b21-a9a0-84c3f73237e2'
p514
aS'http://job-openings.monster.com/monster/046dcaf7-31e8-4c44-9bd5-cdcb9c2a1e97'
p515
aS'http://job-openings.monster.com/monster/9c41af6a-6a40-4c40-ad86-b3f33169c19b'
p516
aS'http://job-openings.monster.com/monster/3ee61093-4bde-47f3-976e-caf77e65af0e'
p517
aS'http://job-openings.monster.com/monster/924b68f4-d681-416b-b0bc-afbd6e9379e1'
p518
aS'http://jobview.monster.com/senior-user-experience-designer-job-new-york-ny-us-182288674.aspx'
p519
aS'http://job-openings.monster.com/monster/a0de1655-20a9-4016-9bbe-f68c621ff6a3'
p520
aS'http://job-openings.monster.com/monster/fd211e59-72e1-4380-83c1-4f7dbe5aa2e0'
p521
aS'http://job-openings.monster.com/monster/517c6370-73d8-4f1e-9ddd-f3300465e87d'
p522
aS'http://job-openings.monster.com/monster/f7ca45e3-48a3-4f83-a5f0-fa2c0d6a6617'
p523
aS'http://job-openings.monster.com/monster/3ceff9b4-5d6e-481b-b5c3-fee132cd02e1'
p524
aS'http://job-openings.monster.com/monster/43f21b5f-2423-4aee-82aa-f5d761a2e218'
p525
aS'http://job-openings.monster.com/monster/7f02e413-04bd-4aac-a126-7e147dd29d72'
p526
aS'http://job-openings.monster.com/monster/1dab865a-fe41-4b68-991b-2a22c862eac9'
p527
aS'http://job-openings.monster.com/monster/aaf80ef8-0fda-46f4-ab4f-eec15ccde4e8'
p528
aS'http://job-openings.monster.com/monster/a03c766b-f463-4ce4-a568-aca6a095e2f1'
p529
aS'http://job-openings.monster.com/monster/e02f9f11-3b92-40af-a6d5-a60e35bb4148'
p530
aS'http://job-openings.monster.com/monster/d4ba4204-31a2-4443-9fe2-9bb435bfe0cc'
p531
aS'http://job-openings.monster.com/monster/d355ca02-296a-4d38-81e4-9e6a07394cf6'
p532
aS'http://job-openings.monster.com/monster/782e9cde-ebeb-4433-bac0-a8b9d99ee0ce'
p533
aS'http://job-openings.monster.com/monster/2c7772bc-a808-4566-841f-fa46558d5061'
p534
aS'http://job-openings.monster.com/monster/b762baef-07f0-450c-83d9-e5c677f5ecfe'
p535
aS'http://job-openings.monster.com/monster/d3a51bac-de23-4bfd-8899-6a3dd3f76670'
p536
aS'http://job-openings.monster.com/monster/61b63780-7cd6-4d18-a5ce-4ab1eecddc21'
p537
aS'http://job-openings.monster.com/monster/a0a64284-2b84-4c5a-9e93-f036cbb7151c'
p538
aS'http://job-openings.monster.com/monster/1fb0519c-bcc9-43b3-92dc-33988d2e151a'
p539
aS'http://job-openings.monster.com/monster/53e82bdf-0e0b-41cd-84e6-ea0988b100af'
p540
aS'http://job-openings.monster.com/monster/84f6911b-e0cd-4ad8-a5f8-8db897199fb3'
p541
aS'http://job-openings.monster.com/monster/60623929-dbc3-42ce-b23f-3dc0ed05b28a'
p542
aS'http://job-openings.monster.com/monster/26b5327d-1420-4cb0-b549-5a1e289de3cc'
p543
aS'http://job-openings.monster.com/monster/d83b28f7-0021-4515-8156-26a9566095f3'
p544
aS'http://job-openings.monster.com/monster/5e625d53-c2a9-497c-a8cd-07783501b848'
p545
aS'http://job-openings.monster.com/monster/e70eac2c-7b29-4867-8b1b-8b9827e20b67'
p546
aS'http://job-openings.monster.com/monster/29612457-0aeb-4a1c-ba33-ebc6e13a4e7d'
p547
aS'http://jobview.monster.com/senior-data-scientist-job-albany-ny-us-182938320.aspx'
p548
aS'http://job-openings.monster.com/monster/95314424-df07-4c2b-8760-f6a1a8f3268b'
p549
aS'http://jobview.monster.com/ux-designer-242617-job-new-york-ny-us-182343470.aspx'
p550
aS'http://job-openings.monster.com/monster/68975db7-ab8c-4c5f-a5b2-01bed131024c'
p551
aS'http://job-openings.monster.com/monster/209983f7-2f62-434e-97f9-bf08fb77c4db'
p552
aS'http://job-openings.monster.com/monster/ddbc9f90-a087-45fe-b469-22237bd21b63'
p553
aS'http://jobview.monster.com/quantitative-developer-job-new-york-city-ny-us-167480864.aspx'
p554
aS'http://job-openings.monster.com/monster/a8984937-d9f1-441c-8403-e2568f72f9fe'
p555
aS'http://job-openings.monster.com/monster/76cce776-fe55-4294-b069-e4c98fd103d6'
p556
aS'http://job-openings.monster.com/monster/4089baed-b369-4ab1-8cfb-63bccf3c5c75'
p557
aS'http://job-openings.monster.com/monster/869fbd3b-0096-4575-b9b8-9aecee99898f'
p558
aS'http://job-openings.monster.com/monster/e6730cce-8a19-47a2-868f-21a16f4a2609'
p559
aS'http://job-openings.monster.com/monster/640a350d-e786-4a6c-bb83-303fe0778a4f'
p560
aS'http://job-openings.monster.com/monster/7306f760-4195-4275-84a7-bed72c0e719f'
p561
aS'http://job-openings.monster.com/monster/3becf7e6-fa87-417c-a828-02956745f998'
p562
aS'http://job-openings.monster.com/monster/4af6550f-7909-40c8-9203-713dc0cb9a70'
p563
aS'http://job-openings.monster.com/monster/72f6d1c9-052c-4dd2-9836-b53c39327636'
p564
aS'http://job-openings.monster.com/monster/18fce451-30e5-471c-85fb-0ca207c55dd3'
p565
aS'http://job-openings.monster.com/monster/369d3e28-225e-430d-be20-522b6820c342'
p566
aS'http://job-openings.monster.com/monster/8566cf2b-286e-40ab-ae27-914b5cf9f9cb'
p567
aS'http://job-openings.monster.com/monster/1f3a09a3-b1bb-4e24-b99d-4c9f34d493ee'
p568
aS'http://job-openings.monster.com/monster/be3eb434-33b5-4dfe-bdb5-2c601e971350'
p569
aS'http://job-openings.monster.com/monster/692a6a58-d9f3-4c4c-bdcc-6a4e48ef3ec8'
p570
aS'http://job-openings.monster.com/monster/3b61a258-095f-4d1d-a01a-1c8ce64e7b17'
p571
aS'http://job-openings.monster.com/monster/6b2b8369-be38-4758-846f-f73d6a614259'
p572
aS'http://job-openings.monster.com/monster/ceedeb8f-6e94-47e9-aeab-0ae32e9fc3c0'
p573
aS'http://job-openings.monster.com/monster/9d56d9c5-1cfe-4869-abf0-fa9f065600f1'
p574
aS'http://job-openings.monster.com/monster/8008d213-8377-4f9e-a14d-d231fab2d8c3'
p575
aS'http://job-openings.monster.com/monster/aa47c374-7838-4a08-a19d-cbd00a4e481e'
p576
aS'http://job-openings.monster.com/monster/70aaba89-c3b1-4a8f-8cdd-d121530874ee'
p577
aS'http://job-openings.monster.com/monster/aa6582e4-7c9e-4411-8218-a428d5e10466'
p578
aS'http://job-openings.monster.com/monster/a46d909d-e420-4e5d-97ef-89e50e943519'
p579
aS'http://job-openings.monster.com/monster/54b59c2e-180f-41bb-a4a6-2657c9a7f42f'
p580
aS'http://job-openings.monster.com/monster/116eb02f-c27b-4e95-b36f-f7179fc87e4b'
p581
aS'http://jobview.monster.com/financial-market-data-analyst-job-new-york-city-ny-us-182453524.aspx'
p582
aS'http://job-openings.monster.com/monster/9e6c19a6-75b6-4ead-8a25-34cec6b39f5a'
p583
aS'http://job-openings.monster.com/monster/89f545f3-7f5d-4624-b2c9-414ed39343e7'
p584
aS'http://job-openings.monster.com/monster/3a585607-44b8-43e8-811e-c0caeee58ce3'
p585
aS'http://job-openings.monster.com/monster/14d0549a-b690-4073-a887-eb3dbbfedd52'
p586
aS'http://job-openings.monster.com/monster/5e39b8eb-366b-4c98-8edc-5c4d4e78e321'
p587
aS'http://job-openings.monster.com/monster/ea345149-ad1b-4651-9339-d3fb9c9e3bc9'
p588
aS'http://job-openings.monster.com/monster/cb76cb3f-a5ed-4746-aeac-38adc3041374'
p589
aS'http://job-openings.monster.com/monster/2a0ac777-0089-415d-8e1b-ee27597a81fd'
p590
aS'http://job-openings.monster.com/monster/9b2d734d-e56b-4798-8753-bd5033327e3c'
p591
aS'http://job-openings.monster.com/monster/08b3f523-0d0b-4890-9274-1b35c7ed9d26'
p592
aS'http://job-openings.monster.com/monster/8ecc84fe-1a95-4bde-9325-5fa33a14cda1'
p593
aS'http://job-openings.monster.com/monster/e2550860-5546-445d-8c81-86446b717514'
p594
aS'http://job-openings.monster.com/monster/7e7ed30a-1280-44e6-b57b-97a32cb6fb07'
p595
aS'http://job-openings.monster.com/monster/4c2d41ef-6a68-4383-8e40-815c05421951'
p596
aS'http://job-openings.monster.com/monster/30df57bf-1776-41ca-b0dd-f43a9e1eda4d'
p597
aS'http://job-openings.monster.com/monster/478aa019-de20-472a-88f7-8ae695222203'
p598
aS'http://job-openings.monster.com/monster/927c5b13-4ae6-40aa-ad33-9120921654bc'
p599
aS'http://job-openings.monster.com/monster/a19609d8-5ac5-491c-b98b-c951f51af6c6'
p600
aS'http://job-openings.monster.com/monster/16924b3a-fba1-4d29-9ad6-3096dcb8449e'
p601
aS'http://job-openings.monster.com/monster/fb4b7742-b91e-4c29-8dcf-67808e310e01'
p602
aS'http://job-openings.monster.com/monster/958aa952-f255-4987-bc5f-1a2a18c9269d'
p603
aS'http://job-openings.monster.com/monster/b0dc264f-4422-426d-b811-d169382501e6'
p604
aS'http://job-openings.monster.com/monster/06c4e498-af28-4e15-be4d-6852cd40bd49'
p605
aS'http://job-openings.monster.com/monster/14e22632-8695-4576-8929-d87ca3c54282'
p606
aS'http://job-openings.monster.com/monster/bcd736bc-9e4e-4db5-8c33-9df045c48809'
p607
aS'http://job-openings.monster.com/monster/da7ea9fa-5e3f-49f0-8652-4faccf872890'
p608
aS'http://job-openings.monster.com/monster/eb227f6e-b0f5-4d67-8500-ca1b9bc062e1'
p609
aS'http://job-openings.monster.com/monster/8fede780-6b7d-403d-8b30-188c0eb5320d'
p610
aS'http://job-openings.monster.com/monster/fde16326-9265-4da3-9ce8-9335ce51105d'
p611
aS'http://job-openings.monster.com/monster/b98214c9-da73-4608-9e0f-42b77d0935d7'
p612
aS'http://jobview.monster.com/senior-data-engineer-job-new-york-ny-us-182952700.aspx'
p613
aS'http://job-openings.monster.com/monster/e1b51959-7450-46cc-a845-a3c6c4dc5cdc'
p614
aS'http://job-openings.monster.com/monster/6a3d876b-311b-4f9b-831c-e632ef995fb6'
p615
aS'http://job-openings.monster.com/monster/79b52165-15d2-4bbc-a758-e0d4ddfdce33'
p616
aS'http://job-openings.monster.com/monster/e90a2f82-0f10-4820-9c5e-63b048fefd51'
p617
aS'http://job-openings.monster.com/monster/48afae39-14ff-44f2-adeb-e376167b47c6'
p618
aS'http://job-openings.monster.com/monster/7d3e0258-5584-4cc8-930b-8da79c0cef83'
p619
aS'http://jobview.monster.com/data-scientists-predictive-modeling-consultants-job-new-york-city-ny-us-182328271.aspx'
p620
aS'http://job-openings.monster.com/monster/28e77683-d53e-447e-befb-a744e6e0f5b5'
p621
aS'http://job-openings.monster.com/monster/57c0fab9-2c4f-48d5-b229-3c0517ffb48c'
p622
aS'http://job-openings.monster.com/monster/9ef98909-f316-4339-90e1-096a81ec15a3'
p623
aS'http://job-openings.monster.com/monster/022f168b-e6d6-4c2c-a8d4-97c39a1b9a96'
p624
aS'http://job-openings.monster.com/monster/85c90d59-52e4-4170-baff-90e4d64fb988'
p625
aS'http://job-openings.monster.com/monster/4348b272-69cd-46e8-b402-bd6e42cff1a1'
p626
aS'http://job-openings.monster.com/monster/c393f187-0690-4755-823c-8b66a5fde9f1'
p627
aS'http://job-openings.monster.com/monster/3e98d1ad-1da4-4152-a590-531848be7e21'
p628
aS'http://job-openings.monster.com/monster/7e23f6bc-5677-40d4-8042-e0dfce5c6ee8'
p629
aS'http://job-openings.monster.com/monster/ee7b5a3d-f72b-4579-b106-414af014d40e'
p630
aS'http://job-openings.monster.com/monster/bb06fd0c-295c-49e2-9528-e173d8b2e91e'
p631
aS'http://job-openings.monster.com/monster/43616471-72c0-408f-ad9b-db3cf532944c'
p632
aS'http://job-openings.monster.com/monster/a90fdf84-6c31-40b8-a70f-a3db674661ac'
p633
aS'http://job-openings.monster.com/monster/03b2350f-fa72-45b5-ae6e-0ee348a8226e'
p634
aS'http://job-openings.monster.com/monster/fc4f236c-a4ec-41af-bc3a-8ddb9e7d7602'
p635
aS'http://job-openings.monster.com/monster/bc4cba24-548f-4a2d-afe5-81e6b3101fd7'
p636
aS'http://job-openings.monster.com/monster/bd3a253c-d925-4652-a7bc-2ce054418783'
p637
aS'http://job-openings.monster.com/monster/4885f0f2-62db-4154-90ea-0e30c2c19587'
p638
aS'http://job-openings.monster.com/monster/8617bced-b0a1-44e4-ab75-dc7f1cce208e'
p639
aS'http://job-openings.monster.com/monster/b83e3837-632a-4e1b-bf3c-dcf2d5446a12'
p640
aS'http://job-openings.monster.com/monster/892be80a-412e-468c-a651-3702d50c2b7c'
p641
aS'http://job-openings.monster.com/monster/59555eef-da7e-407e-86a1-398df6c64e9f'
p642
aS'http://job-openings.monster.com/monster/acab1d7b-acd6-41cf-ad12-c7eb7fdb051d'
p643
aS'http://job-openings.monster.com/monster/db11ea7b-07a1-49d5-ae2d-a5cb4f493897'
p644
aS'http://job-openings.monster.com/monster/b4777c8a-5ff7-40fa-9f4d-9231ba9b37ff'
p645
aS'http://job-openings.monster.com/monster/805bdda2-ee2f-4d1a-a784-e8e23302c24a'
p646
aS'http://job-openings.monster.com/monster/6185e3fd-49ef-4b76-8b8d-83e2d6cb0fc3'
p647
aS'http://jobview.monster.com/data-scientist-job-albany-ny-us-182451330.aspx'
p648
aS'http://job-openings.monster.com/monster/8ee3ca69-9ccd-4758-8672-73d25442c18b'
p649
aS'http://job-openings.monster.com/monster/36246eae-f317-404f-aaab-fdba156a9bf5'
p650
aS'http://job-openings.monster.com/monster/a93d7253-8385-467a-89ca-275ae46ea864'
p651
aS'http://job-openings.monster.com/monster/568c8e20-e6d7-4a5b-89bb-a1cad8226352'
p652
aS'http://job-openings.monster.com/monster/c2263572-9d4e-4166-aa4a-a9a79eb0eddd'
p653
aS'http://job-openings.monster.com/monster/eacad59b-3b7f-4dc9-8c87-d30e5ba698d1'
p654
aS'http://job-openings.monster.com/monster/02b22456-bbf5-4b31-9017-b564bd907854'
p655
aS'http://job-openings.monster.com/monster/2d3cc1dc-b616-492a-9a3e-cfda8aff1464'
p656
aS'http://job-openings.monster.com/monster/73d6bc15-11db-4171-9f8b-9caf83440dc6'
p657
aS'http://job-openings.monster.com/monster/e4db8db1-0184-438b-bb33-b32bdfad3971'
p658
aS'http://job-openings.monster.com/monster/f35d8665-aa9e-49cc-be36-ae431166f8c2'
p659
aS'http://job-openings.monster.com/monster/e7872f4a-ed43-43e4-80c1-e07ad7e822e9'
p660
aS'http://job-openings.monster.com/monster/6ff18dfc-c921-41df-a8f2-62f928c32499'
p661
aS'http://job-openings.monster.com/monster/f5fb1148-9d90-4d77-affa-d440df756817'
p662
aS'http://job-openings.monster.com/monster/d2f20c82-9a3b-4cb7-beda-d73351038073'
p663
aS'http://job-openings.monster.com/monster/59955dae-5a9b-4959-afa3-2fa5ed21fc04'
p664
aS'http://job-openings.monster.com/monster/f2ef4ca4-daf5-44ae-829d-c93612f63c06'
p665
aS'http://job-openings.monster.com/monster/dc2c4a17-c626-4c59-83c7-dd5de480bee3'
p666
aS'http://job-openings.monster.com/monster/1aeb6a5d-cfd1-46c7-9a9b-f6011d80f799'
p667
aS'http://job-openings.monster.com/monster/b2bf3fe3-f114-457e-8421-3abea29f6961'
p668
aS'http://job-openings.monster.com/monster/26c55045-a9ad-4971-a130-1464b03be3a5'
p669
aS'http://job-openings.monster.com/monster/ccdfa9f9-a472-4d67-9786-efd4bad303d0'
p670
aS'http://job-openings.monster.com/monster/49581be8-eaaf-4400-9027-0c6baf986b81'
p671
aS'http://job-openings.monster.com/monster/55d7c350-045d-4cb4-8f03-8d2a293b8913'
p672
aS'http://job-openings.monster.com/monster/c2247bd1-01fe-4eb9-ad38-5a61f54df054'
p673
aS'http://job-openings.monster.com/monster/3c9da366-4d55-4bb9-9084-f35b632daa9f'
p674
aS'http://job-openings.monster.com/monster/fca7aa66-3f86-4c68-a582-51b313aa064f'
p675
aS'http://jobview.monster.com/analytics-coe-manager-50043485-job-white-plains-ny-us-183043049.aspx'
p676
aS'http://job-openings.monster.com/monster/7af0c71d-48aa-4eb2-841d-4bb27a809e45'
p677
aS'http://job-openings.monster.com/monster/20124d72-2ca2-49c1-9117-4a767647a847'
p678
aS'http://job-openings.monster.com/monster/77a0fdb1-4a15-4ed6-bd29-ac00a36bf668'
p679
aS'http://job-openings.monster.com/monster/bd4e5d91-9b6a-4f4c-b307-127e176afb78'
p680
aS'http://job-openings.monster.com/monster/88c68ede-b806-49e2-8a9e-350499ca18e6'
p681
aS'http://job-openings.monster.com/monster/55b87e35-aae2-4412-a6fb-960072bf34fc'
p682
aS'http://job-openings.monster.com/monster/d8b50f12-063a-440b-a99e-fb0b58e63e53'
p683
aS'http://job-openings.monster.com/monster/f6610e0f-0e8e-4835-8266-d7e91e7a244b'
p684
aS'http://job-openings.monster.com/monster/afcd5ef0-49ec-44ce-9d65-1b2742b617f9'
p685
aS'http://jobview.monster.com/senior-strategy-performance-advisor-job-brooklyn-ny-us-180789550.aspx'
p686
aS'http://job-openings.monster.com/monster/67e2e753-c906-4d08-b7b7-9dbebf4b955a'
p687
aS'http://jobview.monster.com/account-executive-job-manhattan-ny-us-182284470.aspx'
p688
aS'http://job-openings.monster.com/monster/e194669f-e2fa-49ff-b6c3-13aa412407ff'
p689
aS'http://job-openings.monster.com/monster/eac0c175-5953-4ce1-9a76-0fcbbeca6076'
p690
aS'http://job-openings.monster.com/monster/84026afb-5a1e-426b-adc8-c4853718e774'
p691
aS'http://job-openings.monster.com/monster/edba90f9-613f-4e7b-8041-1895a911e6ef'
p692
aS'http://job-openings.monster.com/monster/d14fca02-5680-4f55-b431-d02bc229759f'
p693
aS'http://job-openings.monster.com/monster/9de02e1e-c39d-44c4-9834-6fb261be910a'
p694
aS'http://job-openings.monster.com/monster/15805bfb-225a-4079-868d-eed24d7168b2'
p695
aS'http://jobview.monster.com/financial-market-data-manager-analyst-sql-job-new-york-city-ny-us-182663910.aspx'
p696
aS'http://job-openings.monster.com/monster/19e409ca-ca2a-4d70-b655-19d85f3db3a7'
p697
aS'http://job-openings.monster.com/monster/8eae5b2b-2ad1-43a6-a4ab-8c7ee7a0edc0'
p698
aS'http://job-openings.monster.com/monster/9614f4f5-bbf4-428c-be60-2b28ae32ad8f'
p699
aS'http://job-openings.monster.com/monster/fc59bae2-fc97-4081-bd87-c0057de6ab94'
p700
aS'http://job-openings.monster.com/monster/2f6bb7df-3d39-4c85-9b08-691637a3f8c7'
p701
aS'http://job-openings.monster.com/monster/30d5850b-1482-4359-a203-63356f37f346'
p702
aS'http://job-openings.monster.com/monster/8a4f9b68-68e7-4d1d-a868-d15442045f30'
p703
aS'http://job-openings.monster.com/monster/5a0cfc7d-82e3-486f-80ae-e1da1bab084a'
p704
aS'http://job-openings.monster.com/monster/78c6a80d-ec10-4d20-9ffe-10e27e4f9c8a'
p705
aS'http://job-openings.monster.com/monster/613a1170-892e-4627-be2c-c274b6289b5e'
p706
aS'http://job-openings.monster.com/monster/b5a15158-973c-4d30-8a36-02c717ef195c'
p707
aS'http://job-openings.monster.com/monster/1865014c-bf0c-4b61-9edc-cabc7c11b3b8'
p708
aS'http://job-openings.monster.com/monster/8310a2dd-5808-4bdd-9a12-87d68dbd2837'
p709
aS'http://job-openings.monster.com/monster/bcb8236a-176a-4293-ae02-7afc0437a7e3'
p710
aS'http://job-openings.monster.com/monster/f6511f45-7a03-4972-9d35-951ff5624fde'
p711
aS'http://jobview.monster.com/senior-data-scientist-job-new-york-ny-us-182901324.aspx'
p712
aS'http://job-openings.monster.com/monster/c3c4505c-2a5c-44a4-b793-1e9b09495e9c'
p713
aS'http://job-openings.monster.com/monster/a0f1792b-c447-4827-bfbe-706599b09492'
p714
aS'http://job-openings.monster.com/monster/ed2d6b44-d204-43be-ba83-4a8abd07712a'
p715
aS'http://job-openings.monster.com/monster/c64775d4-096c-4491-b13f-d083754e09bb'
p716
aS'http://job-openings.monster.com/monster/c9d80710-4798-4690-a170-91901fccd61f'
p717
aS'http://job-openings.monster.com/monster/e81d6311-ffdc-4974-b612-90d76d11ee17'
p718
aS'http://job-openings.monster.com/monster/cdda2e2d-30e2-47b1-8344-b52c916bef44'
p719
aS'http://job-openings.monster.com/monster/0e5e2690-0739-4145-a412-552787af354d'
p720
aS'http://job-openings.monster.com/monster/8d62e50d-17ee-4946-af47-6f12950e9331'
p721
aS'http://job-openings.monster.com/monster/fb070800-9173-4968-af03-6751ff7368f2'
p722
aS'http://job-openings.monster.com/monster/7b7ee4dd-4ea7-4b40-9b4b-a726ac4bd13d'
p723
aS'http://job-openings.monster.com/monster/dfd3f11f-2f42-4892-a52a-e2993b70ec63'
p724
aS'http://job-openings.monster.com/monster/7df99fde-ec7d-4a41-a8a2-c60ca6d7ec89'
p725
aS'http://job-openings.monster.com/monster/8259c33b-35be-4f4a-8f88-a7cc512365f4'
p726
aS'http://job-openings.monster.com/monster/0ffa2355-4f05-49fc-a76e-7475f40bbb6b'
p727
aS'http://job-openings.monster.com/monster/2c7e5aeb-44d8-4a55-a9d6-ac1c094fa3d9'
p728
aS'http://job-openings.monster.com/monster/4f3e8e84-42da-420e-97f6-4d9b454da72a'
p729
aS'http://job-openings.monster.com/monster/5623ef92-2994-4439-bafc-c6d4ce7844d8'
p730
aS'http://job-openings.monster.com/monster/24cf5279-0811-4c58-96e1-7baeb7d5ad3f'
p731
aS'http://job-openings.monster.com/monster/5a0d463a-21e6-43bd-8766-f2c77cd28888'
p732
aS'http://job-openings.monster.com/monster/1b31e8fa-5435-420e-8f9f-a2ce1bd0d5b1'
p733
aS'http://job-openings.monster.com/monster/a47f9fef-af19-4a8f-a0ed-b3d33fde99af'
p734
aS'http://job-openings.monster.com/monster/cb3d2ddb-3f3c-489c-be6b-72d07ed3b6b0'
p735
aS'http://job-openings.monster.com/monster/c04b00cb-416b-46a5-9779-ac35a1ea0558'
p736
aS'http://job-openings.monster.com/monster/eb0cd679-36f5-440b-88ec-40aafe5c994f'
p737
aS'http://job-openings.monster.com/monster/b673200f-2051-4ce1-9456-e3bd590c4d92'
p738
aS'http://job-openings.monster.com/monster/1dab6058-4a0e-483b-bd4c-4ac1bb5e195a'
p739
aS'http://job-openings.monster.com/monster/8a15d226-86e3-4736-afa0-dc343303bd02'
p740
aS'http://job-openings.monster.com/monster/a2af4b44-9244-4293-a8f3-4fa1f59990d8'
p741
aS'http://job-openings.monster.com/monster/f6751063-4147-489f-a7af-fddffdd89625'
p742
aS'http://job-openings.monster.com/monster/ece6ed13-0181-4ba3-89ca-20270147c369'
p743
aS'http://job-openings.monster.com/monster/5f35e7fb-0e74-4aef-ad74-63dfdb1310e4'
p744
aS'http://job-openings.monster.com/monster/d10da728-8e93-40a8-a2fc-69c75b8567eb'
p745
aS'http://job-openings.monster.com/monster/cd66c3ea-1cac-463c-b911-4f39e852b19b'
p746
aS'http://job-openings.monster.com/monster/fa72d4ab-1f75-4424-abe3-21455c775049'
p747
aS'http://job-openings.monster.com/monster/0758a08e-3f90-4c65-9363-5cab320de924'
p748
aS'http://job-openings.monster.com/monster/34f2dfba-6ae7-421d-8f76-bb5d33cb2542'
p749
aS'http://job-openings.monster.com/monster/77a8edef-db23-4ea0-aace-472210979040'
p750
aS'http://job-openings.monster.com/monster/4aff022f-1db8-410c-a8b2-9222ec35217f'
p751
aS'http://job-openings.monster.com/monster/908186b2-a207-4e20-a426-b857dc1b239a'
p752
aS'http://job-openings.monster.com/monster/c4939e51-3f90-41b6-9067-07b9899584db'
p753
aS'http://job-openings.monster.com/monster/416ed5ba-0afe-4513-b0a2-3360bb3f3be8'
p754
aS'http://job-openings.monster.com/monster/c8543345-50b4-4a0a-940f-9965c440b071'
p755
aS'http://job-openings.monster.com/monster/6fefcc46-ef06-4cd4-9250-e696f45c1c98'
p756
aS'http://job-openings.monster.com/monster/1aebace5-046d-472c-89d2-464aa163adb8'
p757
aS'http://job-openings.monster.com/monster/f039edf4-4ac2-4897-9718-1b998a937285'
p758
aS'http://job-openings.monster.com/monster/57312cdd-9524-4145-8e3e-24158dc61108'
p759
aS'http://job-openings.monster.com/monster/4ea5b9ee-1b52-46d2-9616-8507568ec06e'
p760
aS'http://job-openings.monster.com/monster/4a1a6e87-9f8e-4026-80d0-7dfc7085a199'
p761
aS'http://job-openings.monster.com/monster/a4e9216d-850a-4312-9004-f4c7ed110c4e'
p762
aS'http://job-openings.monster.com/monster/7fd6243b-e49c-4fdf-97cf-f9b4e8b69615'
p763
aS'http://job-openings.monster.com/monster/489a4a6f-4af4-439f-989f-e0165cbf0ff6'
p764
aS'http://job-openings.monster.com/monster/011f9687-74c8-48f0-8e72-b1d09627798c'
p765
aS'http://job-openings.monster.com/monster/09707143-cfbb-443d-9ff1-9c03f3ce1ccc'
p766
aS'http://job-openings.monster.com/monster/2bbaaa68-0a93-4570-984b-7e7e82cc4a63'
p767
aS'http://job-openings.monster.com/monster/57de6c9c-f8c0-4cb8-a6fe-fbf83cb03636'
p768
aS'http://job-openings.monster.com/monster/4f09f6d2-308f-4812-8899-41c019980ae5'
p769
aS'http://job-openings.monster.com/monster/9f461dad-7e51-418e-b9da-2390fb583eac'
p770
aS'http://job-openings.monster.com/monster/303db0bd-dc55-44be-bb88-d4655c21f451'
p771
aS'http://job-openings.monster.com/monster/839ef7f5-8adb-4427-a0a7-bf770bc43bae'
p772
aS'http://job-openings.monster.com/monster/888cd0f5-b3fa-4a93-989b-3ddbd82e9fe4'
p773
aS'http://job-openings.monster.com/monster/9f846037-9183-418c-9a18-5834022aa42d'
p774
aS'http://job-openings.monster.com/monster/adf24782-da15-496b-9d0d-b9cbc11f70da'
p775
aS'http://job-openings.monster.com/monster/79001992-5695-4d6e-8e75-1025f2dabe25'
p776
aS'http://job-openings.monster.com/monster/5bce3d6c-0ace-4f05-a323-5596ea0207e8'
p777
aS'http://job-openings.monster.com/monster/a2d43c5a-0104-47cc-b5ab-b4f291503b47'
p778
aS'http://job-openings.monster.com/monster/b6f7a3a7-b334-46c2-97fa-1795a1ed8db3'
p779
aS'http://job-openings.monster.com/monster/956a5c98-ae50-444d-8986-61016f858ff0'
p780
aS'http://job-openings.monster.com/monster/53856707-e675-40cd-b42d-67f92a4b1dcd'
p781
aS'http://job-openings.monster.com/monster/1c0b0c29-38d9-4ef3-9cf7-68f72d64d145'
p782
aS'http://job-openings.monster.com/monster/3ba298b6-3ab7-4f6d-9bf6-d8ed0881e397'
p783
aS'http://job-openings.monster.com/monster/fe0ff669-6680-4021-8f5b-9167c0a43a89'
p784
aS'http://job-openings.monster.com/monster/06d08c69-0b7a-4add-b0aa-5db8386f3d9b'
p785
aS'http://job-openings.monster.com/monster/0c59c1ed-bfeb-444d-972c-4f21e85098a1'
p786
aS'http://job-openings.monster.com/monster/0f41615e-7832-48b6-95af-697ba102ca77'
p787
aS'http://job-openings.monster.com/monster/0a1c1894-8de5-4450-b326-9e255586ed58'
p788
aS'http://job-openings.monster.com/monster/07778489-33e3-4fc3-8592-a03774f1cbc3'
p789
aS'http://job-openings.monster.com/monster/48ad14ca-12ae-4d0d-8a24-06e1f3a9bfb5'
p790
aS'http://job-openings.monster.com/monster/0381a5d5-e366-492d-b237-0852a020e8a7'
p791
aS'http://job-openings.monster.com/monster/bd9520e4-72d6-4fc0-b76d-ea804a847a20'
p792
aS'http://job-openings.monster.com/monster/27c5f00c-4653-4f0a-bd7c-0e7666bda417'
p793
aS'http://job-openings.monster.com/monster/8da62640-db0e-449c-a2e2-f936500c0aae'
p794
aS'http://job-openings.monster.com/monster/4ab646ec-65b0-4df0-9ab0-28e698aa40bf'
p795
aS'http://job-openings.monster.com/monster/53646ca4-7f76-4ee7-96bc-5b8397fcaf74'
p796
aS'http://job-openings.monster.com/monster/8fdb2768-4a78-4f00-a368-561a7d4beee6'
p797
aS'http://job-openings.monster.com/monster/11f2298f-51d1-4a3c-a8a4-bb058efe7f62'
p798
aS'http://job-openings.monster.com/monster/dad53092-3391-48a6-80c5-f5f5cc591e9e'
p799
aS'http://job-openings.monster.com/monster/0287620f-d08e-4980-8ccb-d22d04f71fc6'
p800
aS'http://job-openings.monster.com/monster/e021f688-afbe-44cf-9b35-fb236c23c55c'
p801
aS'http://job-openings.monster.com/monster/b82fe42c-9d12-45f7-b487-446204cefec1'
p802
aS'http://job-openings.monster.com/monster/b5395cb2-c604-4764-89d4-20537e73b11d'
p803
aS'http://job-openings.monster.com/monster/18f7c780-5be5-4704-856c-ab4cfb365c46'
p804
aS'http://job-openings.monster.com/monster/f8816d54-3df9-47ba-952d-d42edb6da2e5'
p805
aS'http://job-openings.monster.com/monster/c1a15f43-f3e3-4acb-bf2d-48d1a444800b'
p806
aS'http://job-openings.monster.com/monster/fb0983ee-1dbb-421f-843a-80beba4e57b2'
p807
a.