(lp1
S'http://job-openings.monster.com/monster/92dc7161-a0b6-49b5-ba40-54dce62b69d7'
p2
aS'http://job-openings.monster.com/monster/e13d0509-1b6c-4318-8ed8-e9d749705ba6'
p3
aS'http://job-openings.monster.com/monster/578d2029-147b-4575-ae0d-8f0926a9365a'
p4
aS'http://job-openings.monster.com/monster/961fb128-2a44-4b84-86fe-6ec6cacb3fc9'
p5
aS'http://job-openings.monster.com/monster/a889cd5e-322b-4511-91ed-e292ec0ee4f2'
p6
aS'http://job-openings.monster.com/monster/6abe5d92-6fca-4aa4-abf0-0ca822e93358'
p7
aS'http://job-openings.monster.com/monster/47406bb3-c306-4c70-bcdb-d84554f692b2'
p8
aS'http://job-openings.monster.com/monster/e87f6649-1296-4e45-bcd5-7edbe1d0c519'
p9
aS'http://job-openings.monster.com/monster/ca321d35-d54a-475d-bd76-fe4b86b39e5e'
p10
aS'http://job-openings.monster.com/monster/cb9eea19-eb69-415f-98ac-73f1907af512'
p11
aS'http://job-openings.monster.com/monster/a1131f50-255f-443e-97c8-7846acd4a338'
p12
aS'http://job-openings.monster.com/monster/8f2cf7d2-3a47-4bda-85a6-02ddcb1d8614'
p13
aS'http://job-openings.monster.com/monster/89bd9e12-97d7-42ba-a4a8-1f2baf6cfb18'
p14
aS'http://job-openings.monster.com/monster/c955db77-bbe6-4858-bda0-892ff90dea1a'
p15
aS'http://jobview.monster.com/support-engineer-job-irving-tx-us-182646727.aspx'
p16
aS'http://job-openings.monster.com/monster/a02bc7db-f6f6-4ffb-88c2-ded3c3476e6c'
p17
aS'http://job-openings.monster.com/monster/d7112cc8-ed28-4465-9be1-784d651e8396'
p18
aS'http://job-openings.monster.com/monster/a608d421-ed97-42b7-ac5a-4153de86a213'
p19
aS'http://job-openings.monster.com/monster/9f5639f8-5dc7-407c-9fa8-53d9b73e0c7f'
p20
aS'http://job-openings.monster.com/monster/e7156691-1933-458b-b77f-1f007c991317'
p21
aS'http://job-openings.monster.com/monster/6a56cbf7-951e-4062-8812-5d1a89a9942a'
p22
aS'http://job-openings.monster.com/monster/0ec62aba-a60d-423c-b8a7-54d9c38f7772'
p23
aS'http://job-openings.monster.com/monster/e3db18fe-3f81-46c2-ad92-9da025c5f51f'
p24
aS'http://job-openings.monster.com/monster/ddefcf51-0af8-4a1a-ba6c-605548488b14'
p25
aS'http://job-openings.monster.com/monster/66ac7b24-3d78-4ff0-83a9-a1ee313f3253'
p26
aS'http://job-openings.monster.com/monster/74ae0885-e202-4207-8afe-1a22ab63052a'
p27
aS'http://job-openings.monster.com/monster/c4b651a8-445e-466b-8ffa-96b2f7875738'
p28
aS'http://job-openings.monster.com/monster/b62fdf1c-00ab-406f-9d54-4fc4788dd852'
p29
aS'http://job-openings.monster.com/monster/8500ec3c-1d29-4c8c-9169-298c843a5192'
p30
aS'http://job-openings.monster.com/monster/5f941482-7eb4-4730-a188-7350db165e92'
p31
aS'http://job-openings.monster.com/monster/f2d0195e-bc83-4dbb-b5d6-c08f8fb0117e'
p32
aS'http://job-openings.monster.com/monster/ecdf219a-c318-441a-bc19-e21c0bb61ba8'
p33
aS'http://job-openings.monster.com/monster/96b6bbce-30d7-4e07-9500-d9c2a437523c'
p34
aS'http://job-openings.monster.com/monster/b77676e0-42e5-4d15-9752-d2843b869ea2'
p35
aS'http://job-openings.monster.com/monster/9fd79ecc-0ab9-480b-98fd-fb6ae3abae73'
p36
aS'http://job-openings.monster.com/monster/a06968fd-b94d-42a1-bd94-b56651bd91cb'
p37
aS'http://job-openings.monster.com/monster/bc72876f-d84c-4b29-a254-996f72d62df7'
p38
aS'http://job-openings.monster.com/monster/9a288d00-abe7-42ed-a0ae-257a8dab5948'
p39
aS'http://job-openings.monster.com/monster/81d6f19f-84e8-4587-bc57-b324cfbbfd89'
p40
aS'http://job-openings.monster.com/monster/6673c1cf-b5d0-41ea-8444-5fb21c325411'
p41
aS'http://job-openings.monster.com/monster/671b0050-87ca-44a9-b030-4563c68d92e1'
p42
aS'http://jobview.monster.com/at-t-labs-internship-%e2%94%80-undergraduate-masters-degrees-job-austin-tx-us-180081393.aspx'
p43
aS'http://job-openings.monster.com/monster/bf1ff217-79b3-49c6-af98-3e12b1858468'
p44
aS'http://jobview.monster.com/at-t-labs-internship-%e2%80%93-advanced-degrees-job-austin-tx-us-180081379.aspx'
p45
aS'http://job-openings.monster.com/monster/84b87a2b-d39a-4047-bd16-52c49fb52e5a'
p46
aS'http://jobview.monster.com/professional-data-scientist-big-data-job-plano-tx-us-183069680.aspx'
p47
aS'http://job-openings.monster.com/monster/0eb072e2-007a-492d-9b09-135796505834'
p48
aS'http://job-openings.monster.com/monster/61894d93-e8ae-4180-8cb5-79293842e8ba'
p49
aS'http://job-openings.monster.com/monster/b4f399bf-608a-4f16-abd1-eb8f6554cfaf'
p50
aS'http://job-openings.monster.com/monster/1ca18fd3-1d37-4a35-a73c-c20254f86f1f'
p51
aS'http://job-openings.monster.com/monster/dfb2bcdf-ee74-42d9-996f-605cc348a7d2'
p52
aS'http://job-openings.monster.com/monster/42f4627d-4327-45e6-94fd-bb65765b8927'
p53
aS'http://job-openings.monster.com/monster/e958ccaa-a87a-42fa-b695-a62374230f65'
p54
aS'http://job-openings.monster.com/monster/aa4d5688-a07c-4193-9312-a540a1edf732'
p55
aS'http://job-openings.monster.com/monster/58366ac2-9d5e-4751-8e90-78787df4b2d8'
p56
aS'http://job-openings.monster.com/monster/bdccaaa5-1c15-488c-bdd5-2655ec525e7e'
p57
aS'http://job-openings.monster.com/monster/15b52865-219d-4bb4-a4ac-7cd7af744dd2'
p58
aS'http://job-openings.monster.com/monster/e6493509-7eeb-4f6e-acec-1b604b8690b2'
p59
aS'http://job-openings.monster.com/monster/6c9a5db6-1b62-4bc0-b421-81cda737f6ff'
p60
aS'http://job-openings.monster.com/monster/8942284c-0da4-43a3-a616-84aebb0da2f1'
p61
aS'http://job-openings.monster.com/monster/db7b17bd-cfd1-475c-86c9-a7e243ba4427'
p62
aS'http://job-openings.monster.com/monster/4292275d-5969-4d0b-b4d7-a48f21f208f8'
p63
aS'http://job-openings.monster.com/monster/ff3c7952-4153-4361-8f6f-44b9605aa505'
p64
aS'http://job-openings.monster.com/monster/f9923d5a-97fe-495b-9f6e-5f6e46ef1559'
p65
aS'http://job-openings.monster.com/monster/d877f623-8e05-4c47-ace9-20158f4c5b38'
p66
aS'http://job-openings.monster.com/monster/9d71031c-0e8f-49f5-88e1-9ef7ab77ac8d'
p67
aS'http://job-openings.monster.com/monster/13f648ea-b085-46bf-bd42-4488f4ade7d4'
p68
aS'http://job-openings.monster.com/monster/6d677ce1-3aa1-4409-bb6f-a11ddc10c863'
p69
aS'http://job-openings.monster.com/monster/bfd2d66d-4324-4685-bcab-6f4250d7e2e1'
p70
aS'http://job-openings.monster.com/monster/00446eba-1249-4ce7-8453-2c521ede06b3'
p71
aS'http://job-openings.monster.com/monster/cd72eedf-07db-4c2d-b51d-d99af004d7b1'
p72
aS'http://jobview.monster.com/professional-data-scientist-big-data-job-plano-tx-us-182739270.aspx'
p73
aS'http://job-openings.monster.com/monster/4f7637d9-55ee-4e97-bf4b-4802c9ccb3be'
p74
aS'http://job-openings.monster.com/monster/f87953c1-41f2-430c-8914-998dcf69fd15'
p75
aS'http://job-openings.monster.com/monster/c0512a2a-5c7c-4667-9e9c-995ba7f0677c'
p76
aS'http://job-openings.monster.com/monster/ed1a8758-6735-43d2-aad9-bfc40e78450b'
p77
aS'http://job-openings.monster.com/monster/7faa5398-21e5-49ec-a9a9-f2f21f7e4d26'
p78
aS'http://job-openings.monster.com/monster/6ec7391e-1c20-466c-bf71-11e93d96bf39'
p79
aS'http://job-openings.monster.com/monster/fb686805-d4e3-4998-be46-74e36ada8384'
p80
aS'http://job-openings.monster.com/monster/27085e8e-4a7e-4b00-bf47-d170ceda29b3'
p81
aS'http://job-openings.monster.com/monster/52b493a7-df52-481a-b64a-9a1f83f3872b'
p82
aS'http://job-openings.monster.com/monster/30872cb5-09e2-4be1-b35c-6b02a40498e7'
p83
aS'http://job-openings.monster.com/monster/605590ee-41ff-4112-bbe7-a4befd42fb26'
p84
aS'http://job-openings.monster.com/monster/1794f48a-e990-4c23-bc09-fefce299960f'
p85
aS'http://job-openings.monster.com/monster/2514a7dd-489b-489c-9e21-9c85e7b908be'
p86
aS'http://job-openings.monster.com/monster/5eeeabc8-2684-4a62-8309-63a934b73233'
p87
aS'http://job-openings.monster.com/monster/49062f42-10c8-4832-b892-c7393ee5156c'
p88
aS'http://job-openings.monster.com/monster/70316ae4-d034-4807-a0f2-0165f3d0e8fb'
p89
aS'http://job-openings.monster.com/monster/eca8a30c-9ba3-402e-b512-f120be28049b'
p90
aS'http://job-openings.monster.com/monster/8dcb3e17-254d-4406-82f8-f489be32a08e'
p91
aS'http://job-openings.monster.com/monster/0583f0e4-fba0-4c94-80c4-a39d65dd67c7'
p92
aS'http://jobview.monster.com/support-engineer-job-irving-tx-us-182646734.aspx'
p93
aS'http://job-openings.monster.com/monster/bd112cb6-6f46-46b3-a4c9-a56f3f30b273'
p94
aS'http://job-openings.monster.com/monster/8881ffd6-4596-4038-81ad-191044d5d16f'
p95
aS'http://job-openings.monster.com/monster/d3417efc-4846-4996-ac93-c14966aded2e'
p96
aS'http://job-openings.monster.com/monster/c8d3cf10-b089-4379-b5f6-723e2599610c'
p97
aS'http://job-openings.monster.com/monster/db3eaf7c-c4b8-49ac-aa2b-fdd4b47768e8'
p98
aS'http://job-openings.monster.com/monster/cd53874a-0b14-477b-81fb-32c44672bc7e'
p99
aS'http://job-openings.monster.com/monster/c6c5503b-c909-40ba-aafc-cae4d520803a'
p100
aS'http://job-openings.monster.com/monster/13ca315e-3960-4eb7-8d2d-740f20325025'
p101
aS'http://job-openings.monster.com/monster/9cd079f4-8ee2-4bcd-9272-0adab44b9c28'
p102
aS'http://job-openings.monster.com/monster/935e6730-949a-4116-8a37-f2d5aab58a6d'
p103
aS'http://job-openings.monster.com/monster/5ec2a859-f79a-420d-a1eb-025770fd99cd'
p104
aS'http://job-openings.monster.com/monster/da485ec1-893f-4e97-a948-5da9843031bd'
p105
aS'http://job-openings.monster.com/monster/e491d140-bee2-471f-98ef-c6ced17a2043'
p106
aS'http://job-openings.monster.com/monster/ba982a2f-16d7-40a1-98d8-4fa66e83449d'
p107
aS'http://job-openings.monster.com/monster/020d15ac-75bc-41fd-b9eb-d2ef04d25db1'
p108
aS'http://job-openings.monster.com/monster/9cf7826c-4ca8-497a-aa66-b85e58916f7d'
p109
aS'http://job-openings.monster.com/monster/b8783f0e-00c7-40d7-952c-d1ce54cef8dc'
p110
aS'http://job-openings.monster.com/monster/9e463e88-935b-4406-8f55-9f250233f1de'
p111
aS'http://job-openings.monster.com/monster/1a6f4e75-aaea-4512-8cde-5e0353046fc3'
p112
aS'http://job-openings.monster.com/monster/aa35e676-289d-46c0-a40a-8cb84f85e2ea'
p113
aS'http://job-openings.monster.com/monster/76a3aeb2-5986-4f47-bb6d-a743059522cc'
p114
aS'http://job-openings.monster.com/monster/fb7497a9-c2bf-4a77-95b4-440c81c51d89'
p115
aS'http://job-openings.monster.com/monster/574e94d6-0ff9-45a2-b7ab-1013cfd7b988'
p116
aS'http://job-openings.monster.com/monster/81f79593-b78c-4aa4-895a-47d48a82d275'
p117
aS'http://job-openings.monster.com/monster/8e14d292-028e-4090-9243-a62dc18f270c'
p118
aS'http://job-openings.monster.com/monster/05be5d68-d323-4bbd-a130-da38ca7b746e'
p119
aS'http://job-openings.monster.com/monster/2295bacc-14b6-4dd6-997e-509f5ecfba46'
p120
aS'http://job-openings.monster.com/monster/22699205-39f6-41df-bdcc-3f390861bfdf'
p121
aS'http://job-openings.monster.com/monster/e108c166-56de-4e87-a75f-1b9b0a274f95'
p122
aS'http://job-openings.monster.com/monster/bba77349-02c7-4b9e-b985-76c3d1e30d81'
p123
aS'http://job-openings.monster.com/monster/0886bac1-ea32-48d9-b72e-5be82e3e4dd1'
p124
aS'http://job-openings.monster.com/monster/fcced96d-08ec-4234-aead-094a3d750e2b'
p125
aS'http://job-openings.monster.com/monster/38d837b9-4320-4007-9667-cfc97de7be6d'
p126
aS'http://job-openings.monster.com/monster/cce3fbd1-347f-4381-8019-da5724ce48af'
p127
aS'http://jobview.monster.com/risk-analyst-statistical-modeling-sas-job-irving-tx-us-182127035.aspx'
p128
aS'http://job-openings.monster.com/monster/5468ae87-27cb-47e3-a9aa-484ea7d58424'
p129
aS'http://job-openings.monster.com/monster/f2cf7bec-4f02-44a0-a430-d702268912c0'
p130
aS'http://job-openings.monster.com/monster/39bfea84-d5e0-417d-b128-f08a6f19c884'
p131
aS'http://job-openings.monster.com/monster/4de5db04-457d-4e4b-925f-7869c9409056'
p132
aS'http://job-openings.monster.com/monster/d95897dd-882f-40d2-b606-48ea334f3298'
p133
aS'http://job-openings.monster.com/monster/d5497286-0d01-41d9-a2e3-7d31bde49247'
p134
aS'http://job-openings.monster.com/monster/d10a284e-7681-4f0e-8b05-1bc834140e5f'
p135
aS'http://job-openings.monster.com/monster/e6d04e93-ff64-4d3c-974d-adb6558ab325'
p136
aS'http://job-openings.monster.com/monster/fb396aad-f9b6-45d8-ba46-1d53605e7fe3'
p137
aS'http://job-openings.monster.com/monster/db78a97b-7d81-47c5-a17d-4a16d2d408c6'
p138
aS'http://job-openings.monster.com/monster/cb981e0b-c111-4d94-90ec-3def7d643431'
p139
aS'http://job-openings.monster.com/monster/99b808ab-6655-40a0-b051-ec6204b23572'
p140
aS'http://job-openings.monster.com/monster/3a94c936-14ac-4054-8b48-fc1f28bcf8c8'
p141
aS'http://job-openings.monster.com/monster/6ba14728-1072-4093-8ef5-454d8e9a1ef2'
p142
aS'http://job-openings.monster.com/monster/385ea8dd-b1c6-4220-9d58-f5c6e8099487'
p143
aS'http://job-openings.monster.com/monster/b6522c93-97fd-469c-837e-bc78c3849f01'
p144
aS'http://job-openings.monster.com/monster/ba46927f-3b94-4e8d-9d47-b642cc78f1d4'
p145
aS'http://job-openings.monster.com/monster/8b1c6fe5-1e91-4343-9d37-3c3b9cced2c4'
p146
aS'http://job-openings.monster.com/monster/90ee0bc4-128a-4e2b-a6a5-f3069728ec3f'
p147
aS'http://job-openings.monster.com/monster/55bd0814-8cd9-4ba6-b75b-10591b26afaf'
p148
aS'http://job-openings.monster.com/monster/617edab9-bd6b-4462-8bca-c94bd156e83f'
p149
aS'http://jobview.monster.com/e2e-integration-architect-ooa-ood-soa-java-background-machine-learning-dallas-location-job-irving-tx-us-182167253.aspx'
p150
aS'http://job-openings.monster.com/monster/e30d5ecd-369a-4c68-8d4a-6da96fc06791'
p151
aS'http://job-openings.monster.com/monster/9b0c3ad8-7024-456c-956d-765570380919'
p152
aS'http://job-openings.monster.com/monster/9d2ab546-451a-4cb4-bbe0-aaa82d1c8755'
p153
aS'http://job-openings.monster.com/monster/9c94b025-f05d-47b0-9f7e-d20b0a0a07e4'
p154
aS'http://job-openings.monster.com/monster/8c33b23e-e1e5-48bf-9ee7-9148117bd76d'
p155
aS'http://job-openings.monster.com/monster/a1bad35d-6473-4d76-adda-5f82cff069e9'
p156
aS'http://job-openings.monster.com/monster/b60beff5-687e-4d18-bfd3-4d8b37b9e816'
p157
aS'http://job-openings.monster.com/monster/5aed8f0b-db53-49d9-93a3-8eb398cb6f7e'
p158
aS'http://job-openings.monster.com/monster/56a264ae-80d2-4433-92c7-5acd4b5df488'
p159
aS'http://job-openings.monster.com/monster/236587a9-5bf3-47a8-8678-abd03b312912'
p160
aS'http://job-openings.monster.com/monster/5c6ab5f7-74a6-4a96-be4c-ab9ddab5bb30'
p161
aS'http://job-openings.monster.com/monster/0f8db8d4-a4d2-41d1-a32b-8cf2ced5fa9d'
p162
aS'http://job-openings.monster.com/monster/082e42e4-b65a-4b46-831b-fdf5b9d4abe4'
p163
aS'http://job-openings.monster.com/monster/908e893c-e9fd-40e4-998e-b637490bff3d'
p164
aS'http://job-openings.monster.com/monster/65b4af39-78a7-48f1-a63c-b6668d420616'
p165
aS'http://job-openings.monster.com/monster/7ef3a135-c364-4c32-a2b3-2ff68b5eea39'
p166
aS'http://job-openings.monster.com/monster/84ad5427-1431-45e2-b335-b74f29a19c55'
p167
aS'http://job-openings.monster.com/monster/9c873e90-2738-45a7-a08e-35670c645c7c'
p168
aS'http://job-openings.monster.com/monster/250eb4a0-5cb8-4651-be5f-4f4a26d72d59'
p169
aS'http://job-openings.monster.com/monster/09558fcb-786f-4c04-8b29-4b0fe4c9da0a'
p170
aS'http://job-openings.monster.com/monster/3dafd0b8-2693-4ecd-b0b7-730fb475c160'
p171
aS'http://jobview.monster.com/software-systems-engineer-iv-wireless-it-job-irving-tx-us-181777040.aspx'
p172
aS'http://job-openings.monster.com/monster/783aca32-ed93-457f-8f5c-51b142cebf11'
p173
aS'http://job-openings.monster.com/monster/82ece6b0-fee9-4c87-a33f-7174ac46abd9'
p174
aS'http://job-openings.monster.com/monster/3a2afdc2-2b63-4554-98c9-6252f14abcee'
p175
aS'http://job-openings.monster.com/monster/919c7d61-627d-4b4b-9a83-c24621b5e371'
p176
aS'http://job-openings.monster.com/monster/12384127-2099-4159-97f2-1e59717490cb'
p177
aS'http://job-openings.monster.com/monster/ce370970-1dd0-469c-923a-1bf00ea7c22a'
p178
aS'http://jobview.monster.com/enterprise-data-quality-lead-job-irving-tx-us-182956580.aspx'
p179
aS'http://job-openings.monster.com/monster/d184ce67-4a6d-436a-9079-423e8f17491a'
p180
aS'http://job-openings.monster.com/monster/1f47da4d-41ce-43d4-9b7c-19768dd0084e'
p181
aS'http://jobview.monster.com/innovation-engineering-data-analyst-job-irving-tx-us-182948631.aspx'
p182
aS'http://job-openings.monster.com/monster/2430a8e1-7c08-459b-b742-36efef028a31'
p183
aS'http://job-openings.monster.com/monster/d00b918a-2757-4dcb-9239-c1c22ebe05b4'
p184
aS'http://job-openings.monster.com/monster/0d03b556-a854-480a-b087-8c06a5308500'
p185
aS'http://jobview.monster.com/senior-big-data-software-eng-job-plano-tx-us-181566915.aspx'
p186
aS'http://job-openings.monster.com/monster/6dc72648-ad07-4425-85d0-e72c956e18d5'
p187
aS'http://job-openings.monster.com/monster/14e46238-1893-437d-bcd9-3147dc701eb3'
p188
aS'http://job-openings.monster.com/monster/558a4078-c950-45a7-8bb6-e03085d6cba0'
p189
aS'http://job-openings.monster.com/monster/cc7ac3da-2e4a-4eae-997c-b39669f83cfc'
p190
aS'http://job-openings.monster.com/monster/bd29fa7f-16fd-4c18-8084-708a5effd266'
p191
aS'http://job-openings.monster.com/monster/8a2db8f8-3918-456f-ad24-f0a8571ef528'
p192
aS'http://job-openings.monster.com/monster/34beb955-3c6f-419c-881d-7e08843ca517'
p193
aS'http://job-openings.monster.com/monster/a90bf86e-e4cf-4c85-be81-9a06120b921b'
p194
aS'http://job-openings.monster.com/monster/e7c434ae-90a1-4c30-9248-c5af34df2a55'
p195
aS'http://job-openings.monster.com/monster/d351d068-41a0-4389-9a2f-70515f9782f1'
p196
aS'http://job-openings.monster.com/monster/78784dc3-0781-44b1-9a6e-2fe84766b3f4'
p197
aS'http://job-openings.monster.com/monster/1903285d-9085-434a-8bcc-aad3b93df636'
p198
aS'http://job-openings.monster.com/monster/8fc6380c-77d7-4a10-81d3-c504832189b8'
p199
aS'http://job-openings.monster.com/monster/5d0cca03-69d9-45ba-9cf9-2a14a356bcea'
p200
aS'http://job-openings.monster.com/monster/d8f47af5-96bb-4a69-9f91-e4fafb937cea'
p201
aS'http://job-openings.monster.com/monster/176d59b1-808f-41ca-bd32-e813efeb3481'
p202
aS'http://job-openings.monster.com/monster/06f73482-1fe4-43d1-b798-5688075b34b3'
p203
aS'http://job-openings.monster.com/monster/c7905ed8-3ec3-457b-8954-40ad1d9bb092'
p204
aS'http://job-openings.monster.com/monster/12ed5d1b-5d1d-41b4-9fef-5b4028935bfc'
p205
aS'http://job-openings.monster.com/monster/ff5e3277-bfee-42ca-ae30-eb5839903a3e'
p206
aS'http://job-openings.monster.com/monster/27afe2e6-eb31-4bd0-97a3-8100ce47aef3'
p207
aS'http://job-openings.monster.com/monster/ade3171e-340a-455b-a94b-e21cd1eb0dac'
p208
aS'http://job-openings.monster.com/monster/7c4806f4-a643-4fed-b60d-6819e5f8e76c'
p209
aS'http://job-openings.monster.com/monster/5d362087-f864-4c1b-a069-a259b25e571b'
p210
aS'http://job-openings.monster.com/monster/b517b0c8-0f74-4963-8a4c-9632e8cfea06'
p211
aS'http://job-openings.monster.com/monster/e135c4ab-8501-452f-a6f3-524ae1590008'
p212
aS'http://job-openings.monster.com/monster/c84e3208-4ea2-4d87-a782-1455e049d385'
p213
aS'http://jobview.monster.com/machine-learning-engineer-remote-job-austin-tx-us-182663980.aspx'
p214
aS'http://job-openings.monster.com/monster/27bdd162-39d7-42c1-b39e-6b1ad9a40bde'
p215
aS'http://job-openings.monster.com/monster/6e33db87-7ef8-4c38-857b-0561d2df2403'
p216
aS'http://jobview.monster.com/senior-big-data-software-eng-big-data-job-plano-tx-us-177204256.aspx'
p217
aS'http://job-openings.monster.com/monster/7f00d54a-3b61-40b8-97ea-e10b46026a35'
p218
aS'http://job-openings.monster.com/monster/c315a3cc-cc52-431f-bc65-4be66ac51999'
p219
aS'http://job-openings.monster.com/monster/52b11c11-7bdb-488d-a6aa-de59ddfc3777'
p220
aS'http://job-openings.monster.com/monster/29b0b7d8-8dc0-4ace-a4a0-2a33ed799c6c'
p221
aS'http://jobview.monster.com/principal-big-data-software-eng-job-plano-tx-us-181339685.aspx'
p222
aS'http://job-openings.monster.com/monster/9c5fa445-362c-47d9-9da0-08f2ed3fd4b9'
p223
aS'http://jobview.monster.com/finance-manager-performance-analytics-manufacturing-or-industrial-engineering-background-a-plus-job-san-antonio-tx-us-182807222.aspx'
p224
aS'http://job-openings.monster.com/monster/0729e381-6a2b-4a34-8d35-de6206c59ca2'
p225
aS'http://job-openings.monster.com/monster/95145055-a2b7-4428-ab51-6d060394b858'
p226
aS'http://job-openings.monster.com/monster/71311026-eaa8-4714-ab58-0226315b11f6'
p227
aS'http://job-openings.monster.com/monster/19a93510-37ad-4706-8291-7e628b9abe32'
p228
aS'http://job-openings.monster.com/monster/78072de5-0cd4-4b7f-92db-42948c5c9ce4'
p229
aS'http://job-openings.monster.com/monster/2af16e6d-51d1-4b3c-be53-62f38a988ae4'
p230
aS'http://job-openings.monster.com/monster/20406142-dfa4-445d-9300-10154377ebb6'
p231
aS'http://job-openings.monster.com/monster/aedb01d8-34c0-4087-81f5-85768b2df230'
p232
aS'http://job-openings.monster.com/monster/c8b0dafd-dd45-43f3-839b-3109c7f4ce91'
p233
aS'http://job-openings.monster.com/monster/99977d6e-98a9-4dd8-b7a5-57b6ffdef260'
p234
aS'http://job-openings.monster.com/monster/5dec87df-5415-4923-94ba-c74d66fef08d'
p235
aS'http://job-openings.monster.com/monster/cdced209-0b0b-4c26-85ad-f37df3a21655'
p236
aS'http://job-openings.monster.com/monster/e18cc337-e084-49be-a0a1-f0767c5299c5'
p237
aS'http://job-openings.monster.com/monster/580833b4-e664-43f4-8438-a892a44d9581'
p238
aS'http://job-openings.monster.com/monster/39757130-0896-4001-af1c-3a6f0a4a0d87'
p239
aS'http://job-openings.monster.com/monster/407457a3-3e40-432a-a47c-73dd512f4af8'
p240
aS'http://jobview.monster.com/data-scientist-job-richardson-tx-us-182153819.aspx'
p241
aS'http://job-openings.monster.com/monster/afa7f0a1-ba62-4b14-9d28-19e5cf9c5a7f'
p242
aS'http://job-openings.monster.com/monster/617fd5d9-cf76-4672-acb5-2abbe0cf5244'
p243
aS'http://job-openings.monster.com/monster/6c068c54-0efb-453c-a185-aa1d94e0d666'
p244
aS'http://job-openings.monster.com/monster/3b4e9872-0990-4e72-83bd-5ca00aee5872'
p245
aS'http://job-openings.monster.com/monster/a9de307d-6644-42bc-ad07-fa8566e14563'
p246
aS'http://job-openings.monster.com/monster/f3d820a5-9498-4aa9-97e4-f2992af7ef5e'
p247
aS'http://job-openings.monster.com/monster/3e60e8f5-05f7-4b86-9885-f8eeb97cda30'
p248
aS'http://job-openings.monster.com/monster/c1f863cb-d159-4f55-9b2b-2c5897fa3fa7'
p249
aS'http://job-openings.monster.com/monster/09ed6eff-9c69-444b-a3ad-c7832d213784'
p250
aS'http://job-openings.monster.com/monster/7a5c5e85-e3f7-4617-a55c-78a51c4950c1'
p251
aS'http://job-openings.monster.com/monster/8650bd4e-0eb0-45f9-8c0b-fefb4f14121b'
p252
aS'http://job-openings.monster.com/monster/bc9d492f-4f8d-4cf7-9911-0df564f6bb9d'
p253
aS'http://jobview.monster.com/lead-machine-learning-engineer-downtown-austin-job-austin-tx-us-182723760.aspx'
p254
aS'http://job-openings.monster.com/monster/36a66a20-c235-4d6e-94e7-fa2d49e7f820'
p255
aS'http://jobview.monster.com/at-t-labs-internship-%e2%94%80-undergraduate-masters-degrees-job-plano-tx-us-180081373.aspx'
p256
aS'http://jobview.monster.com/e2e-integration-architect-ooa-ood-soa-java-background-machine-learning-atlanta-location-job-atlanta-tx-us-182173887.aspx'
p257
aS'http://job-openings.monster.com/monster/c6e2afba-5c71-4ba3-a245-94fc2fab3c85'
p258
aS'http://job-openings.monster.com/monster/996ed2ee-bc75-4dbf-b64c-5cb4e404f6fe'
p259
aS'http://job-openings.monster.com/monster/a9451d2d-cd8a-46ce-a0ee-c2ac3982562b'
p260
aS'http://job-openings.monster.com/monster/a976d295-4dee-423c-b5e2-d48006e279e6'
p261
aS'http://job-openings.monster.com/monster/639519f3-07a0-4512-a5bd-dae0e3395ca4'
p262
aS'http://job-openings.monster.com/monster/0f736d59-0ad6-497c-a5bb-797fc5f4e170'
p263
aS'http://jobview.monster.com/senior-system-engineer-job-dallas-tx-us-183021975.aspx'
p264
aS'http://job-openings.monster.com/monster/ba73dd6a-4159-46eb-b26c-e080fa880562'
p265
aS'http://job-openings.monster.com/monster/b45b0450-29f5-4df0-95fb-28b0922c3951'
p266
aS'http://job-openings.monster.com/monster/6223296d-c4b0-4bca-b91d-a54723bcda79'
p267
aS'http://job-openings.monster.com/monster/5ef88370-dec9-4d82-b0e8-cf841d595caa'
p268
aS'http://job-openings.monster.com/monster/77b5e977-2e88-43d9-94b3-400e6ad64598'
p269
aS'http://job-openings.monster.com/monster/b3a865d0-8a96-411d-b95f-0ffae2fc01ff'
p270
aS'http://job-openings.monster.com/monster/9abb2e68-f54f-48da-91ba-91ce99c43783'
p271
aS'http://job-openings.monster.com/monster/7baf0daf-7c33-4922-9011-a12ebcda8a74'
p272
aS'http://job-openings.monster.com/monster/323ae43b-0335-4400-9e8d-40383d343c1f'
p273
aS'http://job-openings.monster.com/monster/d3b3a1b2-534f-4dac-b145-486572ab5954'
p274
aS'http://job-openings.monster.com/monster/c57d900e-c9c0-417f-b5fe-083eecf76035'
p275
aS'http://job-openings.monster.com/monster/80982d94-0cb1-48df-8012-f4d07f99bdaf'
p276
aS'http://jobview.monster.com/sr-digital-marketing-analyst-job-dallas-tx-us-182429257.aspx'
p277
aS'http://job-openings.monster.com/monster/71bd6519-a0c4-4947-b749-104ecec07293'
p278
aS'http://job-openings.monster.com/monster/6818df69-0fb9-4044-b918-5dc53955e9a7'
p279
aS'http://job-openings.monster.com/monster/3a0c1129-1fa7-40a4-864a-6e3cd8ce9134'
p280
aS'http://job-openings.monster.com/monster/a830d3aa-1c6e-43ed-904b-0f07a2a4fb44'
p281
aS'http://job-openings.monster.com/monster/67c596ef-3bc7-4b9a-a873-9b14b760e668'
p282
aS'http://job-openings.monster.com/monster/35c01cb3-8b83-448e-9d24-9aea012d8073'
p283
aS'http://job-openings.monster.com/monster/a873476b-adc5-4034-9e7d-9d9882e684a6'
p284
aS'http://job-openings.monster.com/monster/a84fa4d5-173a-40d4-af94-38b217c30a04'
p285
aS'http://job-openings.monster.com/monster/56f6d11b-e8db-43e7-aeb7-3768280e7fe2'
p286
aS'http://job-openings.monster.com/monster/2b989e9d-b9f6-4d4c-87a2-4a7ecb5d2795'
p287
aS'http://job-openings.monster.com/monster/b0c59048-4302-4f08-b439-6af1227020a1'
p288
aS'http://job-openings.monster.com/monster/549fae80-de8f-4938-ba8b-c2b5bcfa0ecd'
p289
aS'http://jobview.monster.com/professional-big-data-software-eng-big-data-job-plano-tx-us-182739217.aspx'
p290
aS'http://job-openings.monster.com/monster/4cf4599f-c910-419b-a703-c63613d64753'
p291
aS'http://job-openings.monster.com/monster/67188275-d891-449c-bbd9-2792dede31f3'
p292
aS'http://job-openings.monster.com/monster/6908c771-529c-4abf-9775-4f5343694439'
p293
aS'http://job-openings.monster.com/monster/846e7290-9e45-4a48-ac80-796609e5fed1'
p294
aS'http://job-openings.monster.com/monster/c8f4b5ab-08dd-40cc-b453-e16b67dfb505'
p295
aS'http://job-openings.monster.com/monster/e529f167-e3a6-4098-a90e-3266932434c8'
p296
aS'http://job-openings.monster.com/monster/9e25b769-43c8-4ef8-92b1-b77c8cf15270'
p297
aS'http://job-openings.monster.com/monster/3ac76f34-5964-4423-abf8-dcaa1304dc57'
p298
aS'http://job-openings.monster.com/monster/a5629ced-8652-4f60-89e2-b00149cbf70f'
p299
aS'http://job-openings.monster.com/monster/607c7c70-2866-4841-a22a-89988ee2f8cb'
p300
aS'http://job-openings.monster.com/monster/9cda6863-abb6-4425-b45c-ed48e1197512'
p301
aS'http://job-openings.monster.com/monster/a22373c0-18b0-45ea-b539-056b6bd79384'
p302
aS'http://job-openings.monster.com/monster/c7dc75ae-962f-4529-abf3-77b93343c7fc'
p303
aS'http://job-openings.monster.com/monster/f14e8b4a-ccd9-42e1-8cad-14fa6f13d323'
p304
aS'http://job-openings.monster.com/monster/d4536a20-62c8-415b-8a6d-81e2a2203081'
p305
aS'http://job-openings.monster.com/monster/df7f9dda-36da-4eda-97d6-27d08092b7cf'
p306
aS'http://job-openings.monster.com/monster/513b2c91-fb50-420a-9c61-2877f7520937'
p307
aS'http://job-openings.monster.com/monster/de342538-fcbb-4930-bb0a-f6fd388145df'
p308
aS'http://job-openings.monster.com/monster/57443a3f-4ae6-4561-b250-2a7759a15edc'
p309
aS'http://job-openings.monster.com/monster/7b89df41-dcc9-42a2-bf62-ea3235579d02'
p310
aS'http://job-openings.monster.com/monster/d88c3ba2-e911-4adc-82c1-7faa416b6ec8'
p311
aS'http://job-openings.monster.com/monster/4f050f80-cd27-4b99-9d3a-1fe39a8ea3b7'
p312
aS'http://job-openings.monster.com/monster/2250dbf3-2b99-4e45-a3b9-87777fcbc2c9'
p313
aS'http://job-openings.monster.com/monster/d91ae654-1432-4088-80f0-5ee22eabbe4e'
p314
aS'http://job-openings.monster.com/monster/ea31bb75-3fd9-4753-84b8-15cc789e57b5'
p315
aS'http://job-openings.monster.com/monster/807cb179-3639-4751-8f9c-6a0d1e47a7dc'
p316
aS'http://job-openings.monster.com/monster/c7f17437-62d5-4052-acce-d474463d71ae'
p317
aS'http://job-openings.monster.com/monster/48ad8c1b-b276-48fd-a6c9-3063e6df5784'
p318
aS'http://job-openings.monster.com/monster/e05192b2-240a-403e-a793-dca3fcc2e4f6'
p319
aS'http://job-openings.monster.com/monster/dd59e562-56a6-410f-9fe8-d197fcc9dd13'
p320
aS'http://job-openings.monster.com/monster/f3a275c8-9a21-4d66-8cbd-d01dceb0823b'
p321
aS'http://job-openings.monster.com/monster/9ec4ff00-73a2-4eeb-b153-e51dfc7d0dca'
p322
aS'http://job-openings.monster.com/monster/82d3738d-e62b-4b4f-9a38-989b8987738d'
p323
aS'http://job-openings.monster.com/monster/f1ad6814-3c8d-4203-8c26-fc77447650ce'
p324
aS'http://job-openings.monster.com/monster/049d5ecd-ab6a-4c89-b90d-39e271c84ac8'
p325
aS'http://job-openings.monster.com/monster/2970c842-e0d1-4d65-accf-1989a47914ec'
p326
aS'http://job-openings.monster.com/monster/d4bd5765-c7a4-4986-8189-94669c4ff82c'
p327
aS'http://job-openings.monster.com/monster/260822ed-2a59-459d-ac7f-c7227f7a18bd'
p328
aS'http://job-openings.monster.com/monster/8b816698-49b7-435d-ade6-d6df22ca08dc'
p329
aS'http://jobview.monster.com/business-intelligence-bi-developer-job-houston-tx-us-182763274.aspx'
p330
aS'http://job-openings.monster.com/monster/81c30ff4-f1eb-4cad-870c-26849e7e346d'
p331
aS'http://job-openings.monster.com/monster/3718b5d9-68ee-4481-ba9d-c96e0b378370'
p332
aS'http://job-openings.monster.com/monster/e51e6d73-cdb9-43b1-acad-009536317b38'
p333
aS'http://job-openings.monster.com/monster/839df4c4-fd64-4500-af5c-8753aad53495'
p334
aS'http://job-openings.monster.com/monster/6141bb8b-784a-4900-a20b-4af292d1f0c1'
p335
aS'http://job-openings.monster.com/monster/89e072bf-08dd-4c20-95dd-6e0a435ed434'
p336
aS'http://job-openings.monster.com/monster/f78ae549-80bb-49a3-9b76-34bc2cc270a3'
p337
aS'http://job-openings.monster.com/monster/b2625358-1042-4690-a5d5-e231164c8b44'
p338
aS'http://job-openings.monster.com/monster/a502bf9c-d0e2-435b-8655-227b3a7e9354'
p339
aS'http://job-openings.monster.com/monster/375f49b1-a0ad-4589-b066-46e3bbb39445'
p340
aS'http://job-openings.monster.com/monster/0111337c-a34e-4784-becf-286598a55cbf'
p341
aS'http://job-openings.monster.com/monster/a5eee870-2608-4b77-8d29-d10f5a969566'
p342
aS'http://job-openings.monster.com/monster/44ce4e10-319b-430d-a8d8-67543aa39ce0'
p343
aS'http://job-openings.monster.com/monster/7175b511-95f7-489c-bc42-f5bbe02988b4'
p344
aS'http://job-openings.monster.com/monster/536d5588-1bd5-4e7c-82dc-75d610c4e8ef'
p345
aS'http://job-openings.monster.com/monster/e629ef9a-c4dc-4cf4-b12f-93c80e29f3b2'
p346
aS'http://job-openings.monster.com/monster/b1aa5cfe-375d-4de3-a6d0-0c6e2f765d01'
p347
aS'http://job-openings.monster.com/monster/cc38f68f-ec22-45ae-a91d-dd6062e41f3c'
p348
aS'http://job-openings.monster.com/monster/82d6dc86-13c4-4361-8292-165d7073088e'
p349
aS'http://job-openings.monster.com/monster/c876d6b9-c182-4d9d-b3e4-c79833997ed1'
p350
aS'http://job-openings.monster.com/monster/b6682bfd-71c7-4bdb-b646-73af2c088ea9'
p351
aS'http://job-openings.monster.com/monster/8dfde2e1-8052-4233-86f3-49f8c21c8380'
p352
aS'http://job-openings.monster.com/monster/a2fa4685-b733-4e1e-ad96-c47c076a8f17'
p353
aS'http://job-openings.monster.com/monster/53b5b31c-f6e1-4cd4-95df-93dcd39d53b7'
p354
aS'http://jobview.monster.com/data-integration-lead-etl-hadoop-informatica-etl-job-spring-tx-us-182283982.aspx'
p355
aS'http://job-openings.monster.com/monster/5a05a221-b2ed-4b43-9188-892f5f502192'
p356
aS'http://job-openings.monster.com/monster/02781101-b9ab-40db-b4dd-0eaa250da9dc'
p357
aS'http://job-openings.monster.com/monster/c8e8ab98-5f3a-492f-b8fc-43ac076901de'
p358
aS'http://job-openings.monster.com/monster/52681f09-0f0d-4d34-80fb-51504bc6e613'
p359
aS'http://job-openings.monster.com/monster/03fe0b07-4402-44b9-8872-9cf15d1d296a'
p360
aS'http://job-openings.monster.com/monster/fc132899-a130-4e96-a728-3bb6007d26c5'
p361
aS'http://job-openings.monster.com/monster/a5eab9cd-ce74-45c0-a77f-245df5a66387'
p362
aS'http://job-openings.monster.com/monster/d9ce33ee-6c11-4ce5-909a-b0823c29e0fa'
p363
aS'http://job-openings.monster.com/monster/e7f60df5-8d24-4146-9299-b7ad930b893b'
p364
aS'http://job-openings.monster.com/monster/b8df1ab5-9276-49a4-a414-32f0e823f4d4'
p365
aS'http://job-openings.monster.com/monster/985f0d86-6e1d-4d9a-9318-3eb5e16c5745'
p366
aS'http://job-openings.monster.com/monster/6f30f621-a52f-46f8-9111-2cfe47da7eb8'
p367
aS'http://job-openings.monster.com/monster/0a8ce186-5773-402f-b36c-9a004afabd6c'
p368
aS'http://job-openings.monster.com/monster/593ea0b9-b622-4b41-b0f5-8932c830384a'
p369
aS'http://job-openings.monster.com/monster/e5b7096c-3d7b-4d20-8b5d-b2661ae37630'
p370
aS'http://jobview.monster.com/data-management-specialist-job-austin-tx-us-182218425.aspx'
p371
aS'http://job-openings.monster.com/monster/fd802ecd-ec3d-49b0-b847-18421f561869'
p372
aS'http://job-openings.monster.com/monster/fda28704-1963-40d1-a431-66fdfee62813'
p373
aS'http://job-openings.monster.com/monster/5faf0553-d2de-482d-839f-c65dff037dad'
p374
aS'http://job-openings.monster.com/monster/f79c69c4-7c03-46f1-adcf-2e429bba2672'
p375
aS'http://job-openings.monster.com/monster/c64316bb-7acd-416a-8acc-b2f8e8f32421'
p376
aS'http://job-openings.monster.com/monster/6573394d-86a9-46a0-9971-8798aa5b71aa'
p377
aS'http://job-openings.monster.com/monster/eb42b014-75c1-4772-8043-fc1e4d9b3f64'
p378
aS'http://job-openings.monster.com/monster/6fe1fcd6-50ff-4c04-bad3-bb7d3e95a8eb'
p379
aS'http://job-openings.monster.com/monster/3b47f20b-cb72-493e-b832-ed7e6a0d4fbf'
p380
aS'http://job-openings.monster.com/monster/e3623faf-9523-4454-8beb-fba0ecc0de1e'
p381
aS'http://job-openings.monster.com/monster/8dec00ce-bd99-48e6-b1a2-06760c770fe4'
p382
aS'http://job-openings.monster.com/monster/14b33c86-d1ff-49da-a140-003298ef4ad0'
p383
aS'http://job-openings.monster.com/monster/7da7fa7a-4097-4b4c-a67d-5f28609e9c39'
p384
aS'http://job-openings.monster.com/monster/b04f1384-76f5-49c1-aed8-3a9d0eee428f'
p385
aS'http://jobview.monster.com/assoc-director-data-insights-big-data-job-plano-tx-us-182739252.aspx'
p386
aS'http://job-openings.monster.com/monster/d52183b3-b290-42f3-a549-64b66bfc5f92'
p387
aS'http://job-openings.monster.com/monster/45da77a1-fe98-457a-81aa-8ece838cfcfc'
p388
aS'http://job-openings.monster.com/monster/14a2a64b-cfa4-46fb-aac0-70d8432beec5'
p389
aS'http://job-openings.monster.com/monster/39a276ac-12eb-4646-a6f1-dabd3d05af55'
p390
aS'http://job-openings.monster.com/monster/e796ee18-1cce-4401-99af-f8edd55d08f3'
p391
aS'http://job-openings.monster.com/monster/4a84a444-bd9a-41f6-9a56-0240cea65a45'
p392
aS'http://job-openings.monster.com/monster/d5482d7d-586d-4ef5-a414-8de0cba24dd9'
p393
aS'http://job-openings.monster.com/monster/9c0db45c-4958-4b31-8fe5-982ad0589a3c'
p394
aS'http://job-openings.monster.com/monster/5daea07a-8459-420d-9841-0ef96aeb42e2'
p395
aS'http://jobview.monster.com/principal-or-senior-big-data-software-eng-big-data-job-plano-tx-us-183069689.aspx'
p396
aS'http://job-openings.monster.com/monster/6aff5820-cd33-4d17-bd22-bbded3a01afb'
p397
aS'http://job-openings.monster.com/monster/669e7e2d-5b95-49e4-9f2e-9d748b1eac0b'
p398
aS'http://job-openings.monster.com/monster/104e494e-1ccb-446c-a488-13ec0b5dc02f'
p399
aS'http://job-openings.monster.com/monster/33de95ae-317a-43e6-9e64-16bb437bf9d1'
p400
aS'http://job-openings.monster.com/monster/dcc7e011-5741-42d8-97af-98d976b9e06c'
p401
aS'http://job-openings.monster.com/monster/c01e383f-0d42-4a0b-977c-d9fe48f10344'
p402
aS'http://job-openings.monster.com/monster/57abdbb7-29f0-430b-8a9a-fcd96b853607'
p403
aS'http://job-openings.monster.com/monster/a65db8e6-5056-4e13-9d2f-5022c9d85534'
p404
aS'http://job-openings.monster.com/monster/f4e3ff19-d2b8-432e-8feb-9f48c30514d4'
p405
aS'http://job-openings.monster.com/monster/31623b7f-0cd0-460f-a956-69dbb59bf6d6'
p406
aS'http://job-openings.monster.com/monster/acdbef5c-47ee-488f-bfa7-277424637f30'
p407
aS'http://job-openings.monster.com/monster/ac36f79b-5cc9-4275-b17a-5ecfd69a40c1'
p408
aS'http://job-openings.monster.com/monster/02cff94d-70c2-448c-a304-51fb3ec4a05b'
p409
aS'http://job-openings.monster.com/monster/465b60c5-be63-4b6c-ab43-7dd74e786b3f'
p410
aS'http://jobview.monster.com/business-intelligence-lead-analyst-job-allen-tx-us-183111280.aspx'
p411
aS'http://job-openings.monster.com/monster/99b42de1-b020-441d-8d13-1ff448fb799d'
p412
aS'http://job-openings.monster.com/monster/9efa0e39-b6ef-467a-b727-16e61fca3895'
p413
aS'http://job-openings.monster.com/monster/75d85966-130f-4c48-bf5d-cd90834e87a6'
p414
aS'http://job-openings.monster.com/monster/1d1a04b6-46be-4951-8752-c392f27f775b'
p415
aS'http://job-openings.monster.com/monster/84d2f6b1-f4ea-48fc-af57-fa9b9b80cf80'
p416
aS'http://job-openings.monster.com/monster/dfbde4b2-b667-42cd-9602-1aaf61b0c464'
p417
aS'http://job-openings.monster.com/monster/4e773847-5c63-4589-bd6f-c8e99685d83b'
p418
aS'http://job-openings.monster.com/monster/18a82881-2787-49f0-8e83-1a759a905764'
p419
aS'http://job-openings.monster.com/monster/b3e9f9f9-6e4a-40ce-8027-7fe18fcfda62'
p420
aS'http://job-openings.monster.com/monster/e44866e1-ac15-4d74-9c03-77324116f41f'
p421
aS'http://job-openings.monster.com/monster/b5973948-ebac-4aa7-a88a-97817877aef3'
p422
aS'http://job-openings.monster.com/monster/0afdde13-c8c0-44d1-b144-638df1057f09'
p423
aS'http://job-openings.monster.com/monster/0fd379b6-62c7-4476-a68c-817d9f4fbad2'
p424
aS'http://job-openings.monster.com/monster/a4887b39-e1bf-468a-8b29-20046ab774ba'
p425
aS'http://job-openings.monster.com/monster/8f5ef99f-5306-490b-9ec7-542ba27cc3ea'
p426
aS'http://job-openings.monster.com/monster/fa95a423-e592-40aa-89b4-6af5e124d815'
p427
aS'http://job-openings.monster.com/monster/fcd79575-d181-48eb-9570-8d2e71460f29'
p428
aS'http://job-openings.monster.com/monster/7d386760-fe6e-41ad-a95b-c5395a2d8597'
p429
aS'http://job-openings.monster.com/monster/861fccb3-c888-4b64-9e6f-4973a8a3ebc5'
p430
aS'http://job-openings.monster.com/monster/ee0a6db9-63c8-4460-9168-963c957a3995'
p431
aS'http://job-openings.monster.com/monster/ec3b819e-148e-4507-bd0d-5029438a736f'
p432
aS'http://job-openings.monster.com/monster/0c955cfc-7ed3-4c09-9db3-ddcd0a6b14f4'
p433
aS'http://job-openings.monster.com/monster/21350102-3bf0-43b1-856f-db7d475af6f5'
p434
aS'http://job-openings.monster.com/monster/b0c422f0-5b83-4716-9d28-87f095b177b4'
p435
aS'http://job-openings.monster.com/monster/b3051fb8-854c-45c1-8ea2-3986c4f6dede'
p436
aS'http://job-openings.monster.com/monster/fa41cf58-f789-4b83-965e-44402e497d6c'
p437
aS'http://job-openings.monster.com/monster/54778e82-b260-454d-a6d0-fe1627998918'
p438
aS'http://job-openings.monster.com/monster/c6a9d890-15ac-4274-9dab-5dad43771c59'
p439
aS'http://job-openings.monster.com/monster/ce30dc62-82d6-47c4-9273-83c7a3d13be7'
p440
aS'http://job-openings.monster.com/monster/7580aae9-fc49-40e2-bc7f-2157b6021581'
p441
aS'http://job-openings.monster.com/monster/81bdf3f5-22f4-445e-93b6-dc24af42e08f'
p442
aS'http://job-openings.monster.com/monster/5f3eaabf-c22f-4ac9-b77f-c2cacc309a6e'
p443
aS'http://job-openings.monster.com/monster/8c7d408a-03cb-4201-be74-1f62509a191b'
p444
aS'http://job-openings.monster.com/monster/f09a4408-be58-45aa-9fe0-725ba66f17d0'
p445
aS'http://job-openings.monster.com/monster/dda19181-b871-410c-9a04-bd29cfceecda'
p446
aS'http://job-openings.monster.com/monster/f7a8f1d0-4364-4f9a-bb8c-04a67023500d'
p447
aS'http://job-openings.monster.com/monster/dd5c3e8f-ec0e-419e-8914-a03f47eb8fc3'
p448
aS'http://jobview.monster.com/senior-etl-lead-developer-job-houston-tx-us-182273993.aspx'
p449
aS'http://job-openings.monster.com/monster/3e9a506e-2530-4789-8f80-8b57140df96f'
p450
aS'http://job-openings.monster.com/monster/3abdf8ec-583b-48ac-852f-38066009dcf5'
p451
aS'http://job-openings.monster.com/monster/6171265c-a706-4c05-89ce-724ca213be80'
p452
aS'http://job-openings.monster.com/monster/21b57e62-eb55-44a8-8575-604a64838afd'
p453
aS'http://job-openings.monster.com/monster/b8c536d4-8eab-4b57-8a76-729a32a5b0c0'
p454
aS'http://job-openings.monster.com/monster/33a7eab0-838a-4107-b9d2-a1eb03f529bb'
p455
aS'http://job-openings.monster.com/monster/f48b3f02-5971-4ef7-8d35-8056df84c4c2'
p456
aS'http://jobview.monster.com/lead-machine-learning-engineer-downtown-austin-job-austin-tx-us-183104099.aspx'
p457
aS'http://job-openings.monster.com/monster/e80db32f-f06b-4419-93c4-b9cf360db24b'
p458
aS'http://jobview.monster.com/principal-business-consulting-job-plano-tx-us-182339909.aspx'
p459
aS'http://jobview.monster.com/data-scientist-job-plano-tx-us-182800875.aspx'
p460
aS'http://job-openings.monster.com/monster/5e737262-3d46-4f6b-92b5-d93209d424dc'
p461
aS'http://job-openings.monster.com/monster/092a369f-eaec-4fc0-962f-82b0f290a91f'
p462
aS'http://job-openings.monster.com/monster/ce6f33f5-0fab-48f6-8cb0-d3f1374e1951'
p463
aS'http://job-openings.monster.com/monster/83e47447-de2a-4ebf-a7ea-9eb74d1580e7'
p464
aS'http://job-openings.monster.com/monster/8d5d64d8-93e1-4447-af7b-a2254978e73f'
p465
aS'http://job-openings.monster.com/monster/18cf0562-26ff-4dcf-95b0-feb52358e084'
p466
aS'http://job-openings.monster.com/monster/19cd2db8-30fe-4a47-89a2-62ae7a025b07'
p467
aS'http://job-openings.monster.com/monster/4e20da26-33be-429f-b0d2-363b61f42ae5'
p468
aS'http://job-openings.monster.com/monster/0e313641-6c3d-4744-826f-90457d5eb019'
p469
aS'http://job-openings.monster.com/monster/c826b0c1-413c-4317-b6f9-eb66a1c91ad1'
p470
aS'http://job-openings.monster.com/monster/d00a22ee-0238-4215-97d6-08bb1510253f'
p471
aS'http://job-openings.monster.com/monster/45e69ca7-5b14-4c56-8017-2a20ac116f85'
p472
aS'http://job-openings.monster.com/monster/cb75f70d-e9de-439e-957c-787cfe7feaff'
p473
aS'http://job-openings.monster.com/monster/9749bdfb-8abb-479f-84f7-37ff5599d595'
p474
aS'http://jobview.monster.com/financial-planning-analyst-job-dallas-tx-us-183127534.aspx'
p475
aS'http://jobview.monster.com/principal-or-senior-data-scientist-big-data-job-plano-tx-us-183069683.aspx'
p476
aS'http://job-openings.monster.com/monster/e99996dc-9184-462d-beab-b5d5ea301573'
p477
aS'http://job-openings.monster.com/monster/e3aab199-8051-4bfd-a59f-bea79e3e7f7c'
p478
aS'http://job-openings.monster.com/monster/7001e299-8eef-4280-92fe-0592389236f3'
p479
aS'http://job-openings.monster.com/monster/b9891fcc-6584-4925-8dfc-89cfbc424ebd'
p480
aS'http://job-openings.monster.com/monster/0855d883-18ea-4bde-b8b0-1a8b7cbe918e'
p481
aS'http://jobview.monster.com/professional-big-data-software-eng-big-data-job-plano-tx-us-183069686.aspx'
p482
aS'http://job-openings.monster.com/monster/bf15b429-e196-4a33-9982-7966b91b9970'
p483
aS'http://job-openings.monster.com/monster/544653c1-7deb-4ce9-9d11-a433d06996fa'
p484
aS'http://job-openings.monster.com/monster/c2de5a64-2ef5-4272-ba76-c4d87fe396b9'
p485
aS'http://job-openings.monster.com/monster/e33de054-d2bd-415b-ac01-b4cedbba5fc1'
p486
aS'http://jobview.monster.com/at-t-labs-internship-%e2%80%93-advanced-degrees-job-plano-tx-us-180081350.aspx'
p487
aS'http://job-openings.monster.com/monster/eb896726-9008-452b-9ec7-2e94dfc502aa'
p488
aS'http://job-openings.monster.com/monster/f21b7efb-5fe2-457c-bc19-0e1f9d0c01aa'
p489
aS'http://jobview.monster.com/at-t-labs-internship-part-time-%e2%94%80-undergraduate-masters-degrees-job-plano-tx-us-180525024.aspx'
p490
aS'http://job-openings.monster.com/monster/a620d00f-ed67-4d46-a0cc-0731c161f87a'
p491
aS'http://job-openings.monster.com/monster/e1eacd8e-6a44-487f-a6cc-f71444a3b648'
p492
aS'http://job-openings.monster.com/monster/ab975cf9-8a52-4619-94ae-e16e6c4b6de9'
p493
aS'http://job-openings.monster.com/monster/55a5cad6-d0bf-4711-ab2d-48b3efa98484'
p494
aS'http://job-openings.monster.com/monster/f8484b7d-3359-4bd8-8017-7bdde117c889'
p495
aS'http://job-openings.monster.com/monster/fc142d9e-a5d5-4b92-af17-84598431c354'
p496
aS'http://job-openings.monster.com/monster/affc9273-ae27-444c-b66a-cdc1dd0d1a68'
p497
aS'http://job-openings.monster.com/monster/85ec3d4d-c0e1-45a0-bd5f-9d5c9b7f09a7'
p498
aS'http://job-openings.monster.com/monster/b50c53cd-2020-400b-8c0c-1d2b4e84d92a'
p499
aS'http://job-openings.monster.com/monster/3d0f4462-e1fc-4f5c-8f1a-d4d87a786613'
p500
a.