(lp1
S'http://job-openings.monster.com/monster/64258d92-c416-4b35-9973-bb501c7be8dc'
p2
aS'http://job-openings.monster.com/monster/224afab4-db74-47d0-98fd-e233f4d07bcb'
p3
aS'http://job-openings.monster.com/monster/28c48115-41bf-4661-828a-75632bd8604e'
p4
aS'http://job-openings.monster.com/monster/4cc9f377-9482-4086-9eeb-91617b78ffb4'
p5
aS'http://job-openings.monster.com/monster/c18b56c2-3b85-484b-943c-b2ec584258de'
p6
aS'http://job-openings.monster.com/monster/3fa1a888-e7cf-4f68-a65a-5cd8af0205be'
p7
aS'http://job-openings.monster.com/monster/dbd2dcc8-90dc-49d1-9aab-a35177187926'
p8
aS'http://jobview.monster.com/sr-lead-architect-job-herndon-va-us-182924220.aspx'
p9
aS'http://job-openings.monster.com/monster/1cb2c5e1-a127-47e0-9194-9fb5d2abf6e6'
p10
aS'http://job-openings.monster.com/monster/837da641-f565-4170-b863-34eeef369691'
p11
aS'http://job-openings.monster.com/monster/4b9a42c3-065e-47a3-9ae0-3ee45b5fc099'
p12
aS'http://job-openings.monster.com/monster/5c152f60-240d-44d5-894f-f6cabb409c31'
p13
aS'http://job-openings.monster.com/monster/234dec59-0314-40d6-8b4a-ecdbd7868d2d'
p14
aS'http://job-openings.monster.com/monster/3fb34fd5-82e8-4ada-91c6-49799f3eafcd'
p15
aS'http://job-openings.monster.com/monster/a804142f-9ab3-4ece-a51f-c31e521795be'
p16
aS'http://job-openings.monster.com/monster/728666c6-cdb9-4ebd-834e-49c6401f492c'
p17
aS'http://job-openings.monster.com/monster/7d994b72-2f35-41a0-9fc4-c94d1b86dd91'
p18
aS'http://jobview.monster.com/deveops-engineer-job-fairfax-va-us-182837704.aspx'
p19
aS'http://job-openings.monster.com/monster/e1a3b96b-ce12-4128-b764-d06d9c3d313a'
p20
aS'http://job-openings.monster.com/monster/e45c309e-b648-4092-bc4a-b84aefe073e4'
p21
aS'http://job-openings.monster.com/monster/d954947c-1e92-47f2-883d-43c50ecf074b'
p22
aS'http://job-openings.monster.com/monster/05e58f8a-c9c8-4ffd-88e7-c0cce98260dc'
p23
aS'http://job-openings.monster.com/monster/1663ff41-fc2b-40ba-877d-0c5711126713'
p24
aS'http://job-openings.monster.com/monster/31cb38c0-79de-4e8e-b79c-dcc18cabe162'
p25
aS'http://job-openings.monster.com/monster/96f36689-a3bc-4a5e-8ca0-0f8973cf4d9f'
p26
aS'http://job-openings.monster.com/monster/8eff2e76-c94a-4e10-b55e-45079c3ff64c'
p27
aS'http://job-openings.monster.com/monster/2ba80742-bbbb-4e66-a4e6-4758a8e589aa'
p28
aS'http://job-openings.monster.com/monster/b82f38b7-1ffa-4b47-8b45-171e0575911c'
p29
aS'http://job-openings.monster.com/monster/7f8b2601-c5e2-4691-9de9-36ae200201c4'
p30
aS'http://job-openings.monster.com/monster/904691a1-462c-4657-8e2f-38152bd0a647'
p31
aS'http://job-openings.monster.com/monster/9d3ddcf5-9a63-4b0e-969c-89a5b9997fe1'
p32
aS'http://job-openings.monster.com/monster/277e2d4b-5372-4040-a50f-15b5930aeb50'
p33
aS'http://job-openings.monster.com/monster/e5173b6a-f240-439d-b2d0-7cc2cea5179d'
p34
aS'http://job-openings.monster.com/monster/9b606bb3-2ed5-41bf-bd32-41904044fe2a'
p35
aS'http://job-openings.monster.com/monster/c850c459-4ede-47d6-9f69-a1126c4cc1b3'
p36
aS'http://job-openings.monster.com/monster/3ceeb940-cf31-428f-85ef-b9fee09d0bba'
p37
aS'http://job-openings.monster.com/monster/c303b27b-7bbd-479d-b9b1-0823b3f971ea'
p38
aS'http://job-openings.monster.com/monster/91805eb7-d774-4010-ae16-9d4f71e93bf5'
p39
aS'http://job-openings.monster.com/monster/7a3f068c-3698-45f9-a49f-ab606c9dfeb1'
p40
aS'http://job-openings.monster.com/monster/c5baf841-22e7-43e1-83da-b53cf955bcc9'
p41
aS'http://job-openings.monster.com/monster/46aef4b1-4729-4e8a-996d-e44adad4f74e'
p42
aS'http://job-openings.monster.com/monster/6790f2ae-2a8f-41c4-a4cd-e14bf4e2fcc2'
p43
aS'http://job-openings.monster.com/monster/f97ff791-4346-43ec-b75a-24f6c54f86ec'
p44
aS'http://job-openings.monster.com/monster/e0e6990a-b67d-4329-80be-4c1750acb353'
p45
aS'http://job-openings.monster.com/monster/2757d35a-54ee-4d02-abfa-4a6b29ef34c4'
p46
aS'http://job-openings.monster.com/monster/e6703aed-26e4-4b80-b0b3-72cb931c0306'
p47
aS'http://job-openings.monster.com/monster/271a153e-2e13-4630-9817-d6fafd08c517'
p48
aS'http://job-openings.monster.com/monster/70f85bc8-57dd-473c-97ec-44b8a3e14c9d'
p49
aS'http://job-openings.monster.com/monster/91e37a3e-f309-4831-b7e6-5eeee4f26210'
p50
aS'http://job-openings.monster.com/monster/d398af45-ff9b-4f57-9e2f-7cf675f6f4b2'
p51
aS'http://job-openings.monster.com/monster/138ec6a7-38fc-4a0a-b020-78493353999d'
p52
aS'http://job-openings.monster.com/monster/b9b1a236-e535-41ba-8932-a2d3ca51be15'
p53
aS'http://job-openings.monster.com/monster/c97d82d0-33c2-4968-825a-701fd37bf05a'
p54
aS'http://job-openings.monster.com/monster/49b19e6e-0794-4b0d-b265-090543be15a9'
p55
aS'http://job-openings.monster.com/monster/1fd0d3e6-868b-46f4-b3bb-a7cd912af665'
p56
aS'http://job-openings.monster.com/monster/317f6a77-7034-442a-9772-3d3a29f4edf8'
p57
aS'http://job-openings.monster.com/monster/5cb92067-7027-45e4-aec0-9f98d44c3b67'
p58
aS'http://job-openings.monster.com/monster/ba5c90b7-2efe-4c4a-af36-9f20163fe6fc'
p59
aS'http://job-openings.monster.com/monster/6e6453b8-48ee-4ea0-8cbd-627dbf2ccbe2'
p60
aS'http://job-openings.monster.com/monster/ba5fe518-d47d-4d14-af19-60028519f46a'
p61
aS'http://job-openings.monster.com/monster/833e6275-3839-49b4-ad01-c22633bd7078'
p62
aS'http://job-openings.monster.com/monster/2e19a325-53eb-451e-bee2-dd15183f77ba'
p63
aS'http://job-openings.monster.com/monster/d24a8334-6301-4dcc-9612-8fafcc03db25'
p64
aS'http://job-openings.monster.com/monster/d8605558-1b55-4588-9d67-7c27af3a9446'
p65
aS'http://job-openings.monster.com/monster/1ca6a53f-5970-47f3-9e12-59a64f0b5b08'
p66
aS'http://job-openings.monster.com/monster/5c2be89b-2e34-41b7-8409-0b824a795b1e'
p67
aS'http://job-openings.monster.com/monster/fa249029-808e-4789-9c1e-ddfc0fa53447'
p68
aS'http://job-openings.monster.com/monster/f05552df-fed7-45a8-8022-fc321fb3564b'
p69
aS'http://job-openings.monster.com/monster/89b29edd-271f-4fd7-8cc5-9174938f7c99'
p70
aS'http://job-openings.monster.com/monster/8d493672-15da-4276-841f-9b868a82108b'
p71
aS'http://job-openings.monster.com/monster/3c84dce7-0487-4be8-9dbe-6805e4a00292'
p72
aS'http://job-openings.monster.com/monster/308815cd-b300-4ba7-b28c-be0c9495b582'
p73
aS'http://job-openings.monster.com/monster/31914498-6ad2-4511-88ce-4cb5e78fc1e8'
p74
aS'http://job-openings.monster.com/monster/c077d8ed-397a-402d-9cac-96252ff0af31'
p75
aS'http://job-openings.monster.com/monster/b5ba6dab-80f4-4d1c-b55b-be5f6b91bd5d'
p76
aS'http://job-openings.monster.com/monster/58abc09d-9208-45ed-b6e4-5676158a3803'
p77
aS'http://job-openings.monster.com/monster/a5375301-3ff4-461f-9522-e86cbd7de3d2'
p78
aS'http://job-openings.monster.com/monster/feccfaba-51ac-4f3d-af43-e40d37ecc73a'
p79
aS'http://job-openings.monster.com/monster/1404f9ff-9618-4638-81cc-43ed3616b77a'
p80
aS'http://job-openings.monster.com/monster/dc2ae38f-fcf7-49e7-967d-f269ecde94f5'
p81
aS'http://job-openings.monster.com/monster/0d394bfc-02a8-4c6b-9aca-443c7ee14201'
p82
aS'http://job-openings.monster.com/monster/088b3d51-c6f4-44ff-ad6e-352518c2db6b'
p83
aS'http://job-openings.monster.com/monster/74502ed5-50c7-476c-9f58-41d5e801d669'
p84
aS'http://job-openings.monster.com/monster/6c819d25-647a-4165-9700-3375a7cc8cb1'
p85
aS'http://job-openings.monster.com/monster/e4f45bb7-225c-456c-89f3-b3212673408b'
p86
aS'http://job-openings.monster.com/monster/11ed0701-d724-45a9-a5e3-b5845a5be02d'
p87
aS'http://job-openings.monster.com/monster/d0ec6612-8578-4681-b7af-b11a5900d80d'
p88
aS'http://job-openings.monster.com/monster/8265c5a4-a599-415c-a861-b5305df3553f'
p89
aS'http://job-openings.monster.com/monster/ffb866ed-61c9-426e-914f-e012964cbaa7'
p90
aS'http://job-openings.monster.com/monster/b7548497-e9a3-4eae-82a9-66dc5c7d93ee'
p91
aS'http://job-openings.monster.com/monster/cf898dc4-a0cb-4364-84bd-439e5ad76356'
p92
aS'http://job-openings.monster.com/monster/b9f74583-4fdd-46ff-836d-6f69610587f6'
p93
aS'http://job-openings.monster.com/monster/6c733bcb-896f-478d-96a0-651e9768b503'
p94
aS'http://job-openings.monster.com/monster/860a3e72-ca7d-41e6-b91a-2e31633bcd92'
p95
aS'http://job-openings.monster.com/monster/14603f9e-0b2f-4010-89f2-8b1afdd1f16f'
p96
aS'http://job-openings.monster.com/monster/fef5dc30-2d2b-418d-aed7-ba118eb5ac9e'
p97
aS'http://job-openings.monster.com/monster/ec4dc794-485f-450c-9551-12c9be108f75'
p98
aS'http://job-openings.monster.com/monster/65ef9fd3-532d-4d59-81ab-e1c789b8c64a'
p99
aS'http://job-openings.monster.com/monster/05e1847c-046e-4463-88b8-9b10e3fae1c1'
p100
aS'http://job-openings.monster.com/monster/9fc1491e-5acd-400d-9834-c8de3cabeb48'
p101
aS'http://job-openings.monster.com/monster/a70c00f2-0a7d-4a6f-b72e-e70595f5d063'
p102
aS'http://job-openings.monster.com/monster/2c658a5f-fdb5-415a-ab1f-03149746ad78'
p103
aS'http://job-openings.monster.com/monster/dacd16fe-c770-421b-a517-57ce763ead1a'
p104
aS'http://job-openings.monster.com/monster/eedb5dfc-ad17-4a1e-9292-3dd7cd983f00'
p105
aS'http://job-openings.monster.com/monster/b20bb6e1-d194-48db-9c5e-6ef1a488b7f6'
p106
aS'http://job-openings.monster.com/monster/1f70524c-4eb9-4efc-a72e-d31cd230cfc1'
p107
aS'http://job-openings.monster.com/monster/d1b7b6d4-8037-4c3a-86c0-3bb24f6ed3eb'
p108
aS'http://job-openings.monster.com/monster/9b864110-24e7-49a9-862b-4974aad8005e'
p109
aS'http://job-openings.monster.com/monster/b107bd39-0b95-439c-b18f-271f0c165d6f'
p110
aS'http://job-openings.monster.com/monster/81fbaa2c-8b66-44d9-8e34-72c4a5b0b20e'
p111
aS'http://job-openings.monster.com/monster/95b67f3b-2993-45da-9a29-b56fa1746ebb'
p112
aS'http://job-openings.monster.com/monster/3baa5939-665e-4a8a-9ddb-d711227916e1'
p113
aS'http://job-openings.monster.com/monster/4bfef509-8f13-4d29-8914-5b7c833f0f61'
p114
aS'http://job-openings.monster.com/monster/6cb41b81-ac50-46a4-98a5-44ba8080ed18'
p115
aS'http://job-openings.monster.com/monster/c53b9295-663a-43bc-8b71-f8a97afd24d1'
p116
aS'http://job-openings.monster.com/monster/e5689456-3e13-4ad9-a93c-eee6ff411613'
p117
aS'http://job-openings.monster.com/monster/39b2b798-88f6-4b82-a534-830ab7fa59f0'
p118
aS'http://job-openings.monster.com/monster/dc4944cc-2663-4c95-b7ce-d25edace2db4'
p119
aS'http://job-openings.monster.com/monster/1f9a2f6d-1799-4d08-a2a2-a23f1572ccb1'
p120
aS'http://job-openings.monster.com/monster/dd8db954-4cf0-4026-95e6-3c216e3346db'
p121
aS'http://job-openings.monster.com/monster/5889eb58-19d9-4cec-ba0b-69fe5c7883dd'
p122
aS'http://job-openings.monster.com/monster/6976e27f-90d1-4b2f-9a28-5a51054d68af'
p123
aS'http://job-openings.monster.com/monster/6c0cf25d-92e8-4d56-bff0-73e7e3ac9a01'
p124
aS'http://job-openings.monster.com/monster/00930d83-01b7-449b-a708-30326b270854'
p125
aS'http://job-openings.monster.com/monster/a068a330-9175-402c-94a2-2898e8b186c5'
p126
aS'http://job-openings.monster.com/monster/480afb45-c4e3-4cde-b4a7-4bbb19043655'
p127
aS'http://jobview.monster.com/statistician-job-richmond-va-us-182349401.aspx'
p128
aS'http://job-openings.monster.com/monster/7c051d2b-7127-44d9-a1f6-fba9f101fec8'
p129
aS'http://job-openings.monster.com/monster/d82bdf04-5fd2-47bd-bfb5-9ed0413d9189'
p130
aS'http://job-openings.monster.com/monster/586a98d7-27c4-4b0c-a1e2-f90c2d54f757'
p131
aS'http://job-openings.monster.com/monster/01a15094-ff9a-4b37-8253-15cce8944a66'
p132
aS'http://job-openings.monster.com/monster/f51387df-86e8-4f33-ab70-51b70177216b'
p133
aS'http://job-openings.monster.com/monster/6a43d691-bd05-4272-82d0-25d5d9ff7d22'
p134
aS'http://job-openings.monster.com/monster/1a37eae9-0546-4988-b2d1-d9bab88218e9'
p135
aS'http://job-openings.monster.com/monster/71d3fe34-7ee1-41c5-870b-4304cfa76d6c'
p136
aS'http://job-openings.monster.com/monster/46cd7d10-b7a0-459c-960a-0b14288c8817'
p137
aS'http://job-openings.monster.com/monster/d4a1626e-4287-4c03-b0f0-dc4e9197b928'
p138
aS'http://job-openings.monster.com/monster/bf9dd70a-adca-4f02-b9c5-f2e1ad186b62'
p139
aS'http://job-openings.monster.com/monster/31172388-e69a-411a-978d-abca90ebb597'
p140
aS'http://job-openings.monster.com/monster/f4b2f254-8f0e-4d88-afd6-c6746efb1dcc'
p141
aS'http://job-openings.monster.com/monster/b3e7b30e-7719-41e5-969f-b2921db9d5ec'
p142
aS'http://job-openings.monster.com/monster/1b0082bc-1605-4787-b73e-7ca0dad745cf'
p143
aS'http://job-openings.monster.com/monster/5772fb84-5e45-4d51-8b26-28282efd9c7e'
p144
aS'http://job-openings.monster.com/monster/76ee7ded-e2a1-4481-9fa5-7d9025ee697f'
p145
aS'http://job-openings.monster.com/monster/9972694a-4c24-42f4-896e-63a90eb34c22'
p146
aS'http://job-openings.monster.com/monster/b4069be3-6c3d-429b-8a48-48c68488ca32'
p147
aS'http://job-openings.monster.com/monster/fe1d41fa-1a72-4184-b551-db112ae81c2d'
p148
aS'http://job-openings.monster.com/monster/e9d8f261-a8cf-4d46-b6a3-fa1112c5e3bd'
p149
aS'http://job-openings.monster.com/monster/e5262fc9-f0c2-4d63-bb1f-14d3d490218f'
p150
aS'http://job-openings.monster.com/monster/2ddf058e-be2f-46cb-9b28-08a9253c8fb5'
p151
aS'http://job-openings.monster.com/monster/2191781c-62ed-4155-bb70-f2675e7589a9'
p152
aS'http://job-openings.monster.com/monster/4281f18e-971e-4e42-9646-053e4c033656'
p153
aS'http://job-openings.monster.com/monster/891508ee-1705-4282-9052-9395e7f3db1a'
p154
aS'http://job-openings.monster.com/monster/81c7e882-2b91-4147-aba9-ec6f937d0338'
p155
aS'http://job-openings.monster.com/monster/e0b9e2a1-7f85-489c-b7af-386ab7594333'
p156
aS'http://job-openings.monster.com/monster/7b7424d8-8fe6-4994-81e5-a4dfdb4d1959'
p157
aS'http://job-openings.monster.com/monster/1265c132-242d-4f50-b718-d573a8a1827e'
p158
aS'http://job-openings.monster.com/monster/8f82c857-ebd3-4b80-a6a5-ebaca4bcb7f9'
p159
aS'http://job-openings.monster.com/monster/0ce073e2-2055-4a79-a577-ae320af238ba'
p160
aS'http://job-openings.monster.com/monster/c8ceab29-3639-454f-9c67-6bbf8e6331d2'
p161
aS'http://job-openings.monster.com/monster/a5d4eaea-16a3-4dea-bacc-4a5acaafaa5e'
p162
aS'http://job-openings.monster.com/monster/f234c879-37d4-4b11-aeaa-3c867b179a6d'
p163
aS'http://job-openings.monster.com/monster/745088cb-606e-46ff-aae6-19331b0c4f11'
p164
aS'http://job-openings.monster.com/monster/8b5ae6bf-7f31-4390-abc7-5d321ca9f260'
p165
aS'http://job-openings.monster.com/monster/8e6184ed-97d2-4581-a608-3e3df14d4608'
p166
aS'http://job-openings.monster.com/monster/1f40f290-eb07-4cba-9487-8373846b10b6'
p167
aS'http://job-openings.monster.com/monster/c45eb97f-eee5-4837-a270-8195b6b2546e'
p168
aS'http://job-openings.monster.com/monster/02cee24f-8208-4796-b680-22f9a7b06d3d'
p169
aS'http://job-openings.monster.com/monster/1238cc71-93d5-4283-9327-cd1ac05b2833'
p170
aS'http://job-openings.monster.com/monster/51cde94b-9c7b-4196-a479-ac0198451789'
p171
aS'http://job-openings.monster.com/monster/cedeb059-ad89-413b-8831-8d5f11516772'
p172
aS'http://job-openings.monster.com/monster/1803ec2d-df27-41bb-8db3-fb64a276a87a'
p173
aS'http://job-openings.monster.com/monster/e8ae36e6-118f-4af3-8fd9-7e759c615115'
p174
aS'http://job-openings.monster.com/monster/0f910a61-4ddc-4a93-862d-6bc4fd41b776'
p175
aS'http://job-openings.monster.com/monster/54fbc1b6-4499-40e3-881c-7963dee061b4'
p176
aS'http://job-openings.monster.com/monster/c12e656a-6748-4635-a4f1-5a499bcaf7f3'
p177
aS'http://job-openings.monster.com/monster/63d33024-3bd2-44c6-88be-babb627480b9'
p178
aS'http://job-openings.monster.com/monster/fcf4793d-740a-40ca-b3ae-d1f802d430cf'
p179
aS'http://job-openings.monster.com/monster/a9aca2c9-4c21-442e-b7da-fcb67669be1c'
p180
aS'http://job-openings.monster.com/monster/ab1cda43-33ae-4eac-a23f-9d153f72b2b8'
p181
aS'http://job-openings.monster.com/monster/e8a19427-0448-404e-80e2-54dec245d7f8'
p182
aS'http://job-openings.monster.com/monster/c9e70db3-ccad-421a-b1f4-6e8660208f28'
p183
aS'http://job-openings.monster.com/monster/a148c96d-0f48-41b0-a4f2-04a2bfc76c98'
p184
aS'http://job-openings.monster.com/monster/42560af3-3f42-4dd4-be5a-c2f347d1eaa4'
p185
aS'http://job-openings.monster.com/monster/0daa6e1a-8bbb-4d65-b684-827f81bae8a3'
p186
aS'http://job-openings.monster.com/monster/0208c972-347d-4b3a-992e-6ff1c90ee8b0'
p187
aS'http://job-openings.monster.com/monster/5e5a1a5d-eaeb-4cc3-927e-10d3ed122d77'
p188
aS'http://job-openings.monster.com/monster/ae332917-b0df-4634-92ee-85844c810b99'
p189
aS'http://job-openings.monster.com/monster/2c8c81a3-e4c8-4d1c-a905-133782d612e4'
p190
aS'http://job-openings.monster.com/monster/d438ffca-5a47-4ce7-b7ca-c6075642c4bf'
p191
aS'http://job-openings.monster.com/monster/56cae776-3b75-474c-8b32-e15a1d70ffa4'
p192
aS'http://job-openings.monster.com/monster/356f25c0-ac6e-4452-8e34-995ff14afc88'
p193
aS'http://job-openings.monster.com/monster/41a9a205-cb0f-4923-aa53-7620a60c55a3'
p194
aS'http://job-openings.monster.com/monster/0b607613-771d-44f4-b179-8f171cbd8b77'
p195
aS'http://job-openings.monster.com/monster/12f8dd68-2ed2-4691-a372-4b020600260e'
p196
aS'http://job-openings.monster.com/monster/890eb46b-8527-4342-994f-3aaf651815fd'
p197
aS'http://job-openings.monster.com/monster/8c111d31-856c-4245-8003-bc409f01b231'
p198
aS'http://job-openings.monster.com/monster/c7031edf-3268-4fdf-9777-0d6f6a27728c'
p199
aS'http://job-openings.monster.com/monster/40c4e5ac-62dd-4aaa-8b39-29f2111b5ac2'
p200
aS'http://job-openings.monster.com/monster/087353db-52ca-4660-a8ab-e4da06dc337e'
p201
aS'http://job-openings.monster.com/monster/104aa25a-634f-4194-84a9-5367197f185e'
p202
aS'http://job-openings.monster.com/monster/4f5cfa69-60ed-40ea-999a-01e20e44f07e'
p203
aS'http://job-openings.monster.com/monster/eb018453-77b9-40df-b44d-9a466986e458'
p204
aS'http://job-openings.monster.com/monster/06ebe2cd-1eea-4b60-9894-a73a5123b2f2'
p205
aS'http://job-openings.monster.com/monster/621364ac-8f2a-45b1-996c-6c632f724dae'
p206
aS'http://job-openings.monster.com/monster/4d656d2e-6d35-4263-8ccf-51c2e6fcab64'
p207
aS'http://job-openings.monster.com/monster/0e5cb822-9692-429b-99b3-efe6f42c5cb1'
p208
aS'http://job-openings.monster.com/monster/ea5e3478-79c7-4a4f-8cb7-4ea2433f6482'
p209
aS'http://job-openings.monster.com/monster/b236dc44-da85-4a91-a6c0-a487e3c6d670'
p210
aS'http://job-openings.monster.com/monster/44b102cb-5483-4aba-b09b-c483a7e95d0d'
p211
aS'http://job-openings.monster.com/monster/f3ce4802-469d-4bc6-b369-5cdcad3f638c'
p212
aS'http://job-openings.monster.com/monster/64ac4841-86dc-4eef-bfbd-a1423b4a7fbb'
p213
aS'http://job-openings.monster.com/monster/04c24d7f-82f5-4ab6-931c-5e68bc485095'
p214
aS'http://job-openings.monster.com/monster/9a074220-f72a-4f94-86e2-f7c03a488f9e'
p215
aS'http://job-openings.monster.com/monster/e5b3cd1d-ecf7-4925-90d6-7c020c475195'
p216
aS'http://job-openings.monster.com/monster/3be00793-2304-44b0-9c73-8a8d1a5dcd5c'
p217
aS'http://job-openings.monster.com/monster/d8192c96-bcd1-4f30-867f-d8dd0c640eb6'
p218
aS'http://job-openings.monster.com/monster/a1b2bb1c-e4ea-45c3-935c-7e17bea7f09d'
p219
aS'http://job-openings.monster.com/monster/d8c3634d-b33a-4751-b30a-81395fe282fc'
p220
aS'http://job-openings.monster.com/monster/e41cdd9a-b794-48fa-b4e0-14d814d771e2'
p221
aS'http://job-openings.monster.com/monster/b01e99d2-81a4-4c4a-8ccc-d261ef5f46b9'
p222
aS'http://job-openings.monster.com/monster/8d47a800-62be-4dae-bf03-3d6de664973a'
p223
aS'http://job-openings.monster.com/monster/a0947d6f-236b-48d2-acad-1e7ea6132a2c'
p224
aS'http://job-openings.monster.com/monster/978db0d6-6e55-464a-af46-09e3275db576'
p225
aS'http://job-openings.monster.com/monster/94f60026-b96a-4dc6-b985-4f373561e343'
p226
aS'http://job-openings.monster.com/monster/95dd5486-e4c6-4a42-9c92-a22d44caae10'
p227
aS'http://job-openings.monster.com/monster/a0fec2b6-ab17-4311-917c-55758d34ebb7'
p228
aS'http://job-openings.monster.com/monster/2c917a01-578e-4859-abda-2288f219a1ca'
p229
aS'http://job-openings.monster.com/monster/a8a8765b-be7a-4f9b-9017-492afe390ceb'
p230
aS'http://job-openings.monster.com/monster/57ea08c0-dd9c-4fd3-8b90-b54d0af399f5'
p231
aS'http://job-openings.monster.com/monster/37b94cf0-feed-4727-af8e-6bd0517690e3'
p232
aS'http://job-openings.monster.com/monster/ceda31f0-7b03-4954-aa7a-a283c6d73f1f'
p233
aS'http://job-openings.monster.com/monster/f713dde1-14b4-480a-9499-0f9bf32a7dc0'
p234
aS'http://job-openings.monster.com/monster/9cc99a75-bd1c-4817-a133-cae43f353a41'
p235
aS'http://job-openings.monster.com/monster/06f9e00d-ddaa-4c79-88bf-48392a811db3'
p236
aS'http://job-openings.monster.com/monster/97b17e9c-3da5-48f4-9f7c-239bd050c925'
p237
aS'http://job-openings.monster.com/monster/fd330fd3-b653-420f-a885-2abadc20d6b6'
p238
aS'http://job-openings.monster.com/monster/94726b66-17cb-4523-954b-f0ed8058c1f0'
p239
aS'http://job-openings.monster.com/monster/f20bc6ea-9c42-4cff-b549-b443476d2e26'
p240
aS'http://job-openings.monster.com/monster/2fe2215d-4f7d-491b-b3f6-fd0a1a6fa28e'
p241
aS'http://job-openings.monster.com/monster/7ab7315d-995e-4ddb-9694-6f6591f9290b'
p242
aS'http://job-openings.monster.com/monster/8105b4b9-8070-415b-bbab-445917c2de6c'
p243
aS'http://job-openings.monster.com/monster/d33fe6c4-b3b1-4c5d-8f25-e96c3266f009'
p244
aS'http://job-openings.monster.com/monster/8529db2f-1ffb-496b-a55f-61041084d282'
p245
aS'http://job-openings.monster.com/monster/e9088e70-f812-4b35-95e6-3417bf33478e'
p246
aS'http://job-openings.monster.com/monster/c9cbfd11-8ff5-4d43-ad88-240ce291efcd'
p247
aS'http://job-openings.monster.com/monster/e7921d0b-ceb6-4ee1-8dd6-8d5dafe2a213'
p248
aS'http://job-openings.monster.com/monster/19f32e4a-659a-49fa-ad86-4809284b5cc6'
p249
aS'http://job-openings.monster.com/monster/242c17f7-5490-4e45-992b-43e03a2e0773'
p250
aS'http://job-openings.monster.com/monster/5bf8f0d4-9c26-4920-ba4c-fd97d3c8f2bc'
p251
aS'http://job-openings.monster.com/monster/8321c8e2-2ba1-4056-b8b9-da4837d4c1e1'
p252
aS'http://job-openings.monster.com/monster/0483f541-5159-4723-b0c3-e6886165c4eb'
p253
aS'http://job-openings.monster.com/monster/40cd2c6d-c4b6-4d35-ac07-372c8121ad06'
p254
aS'http://job-openings.monster.com/monster/b368f24f-e298-440b-8731-4d1dbc145eb0'
p255
aS'http://job-openings.monster.com/monster/85a2d7c5-61a6-484e-9893-4505428cf783'
p256
aS'http://job-openings.monster.com/monster/a4f60240-d464-4fa2-a708-8c333c172920'
p257
aS'http://job-openings.monster.com/monster/c22f0381-863e-4fac-ae56-15c053524a5c'
p258
aS'http://job-openings.monster.com/monster/63d01df8-2a26-4e87-9293-590c559b8658'
p259
aS'http://job-openings.monster.com/monster/42455d98-b026-4503-a10f-b8d018a0ed58'
p260
aS'http://job-openings.monster.com/monster/542ad634-63b7-42d8-80bf-8d505e7987bb'
p261
aS'http://job-openings.monster.com/monster/14e47d48-bd8a-4d34-a7de-e172e032352e'
p262
aS'http://job-openings.monster.com/monster/437d78ce-f34f-4594-ae72-35a0bfbe3220'
p263
aS'http://job-openings.monster.com/monster/b580f03d-9eb6-4e46-9540-755ef339409a'
p264
aS'http://job-openings.monster.com/monster/f25f23bf-c0dc-47cb-961b-f573b1ee38b1'
p265
aS'http://job-openings.monster.com/monster/aca5d061-53b3-4a09-9b5d-f08e4925e497'
p266
aS'http://job-openings.monster.com/monster/44b358d1-cf8b-427c-b168-adf8eafc76b0'
p267
aS'http://job-openings.monster.com/monster/a0cd24b7-726f-457f-81e4-af562d2faeb3'
p268
aS'http://job-openings.monster.com/monster/01857747-aae0-4104-bc45-a47f476b9a0a'
p269
aS'http://job-openings.monster.com/monster/963b15a0-7b6d-44c2-a2c8-acab521e843b'
p270
aS'http://job-openings.monster.com/monster/dc42e908-e381-4540-9c6d-ee96f1dc9f98'
p271
aS'http://job-openings.monster.com/monster/944934e5-4c0e-4414-8a33-75a17425c406'
p272
aS'http://job-openings.monster.com/monster/f743378a-14c0-4bc7-9f4f-bcefe73d1ed7'
p273
aS'http://job-openings.monster.com/monster/f44acdfc-3b94-4cc7-b822-d0e1ebf8c900'
p274
aS'http://job-openings.monster.com/monster/4f67b909-58f1-45b2-a999-b1f62cdc7576'
p275
aS'http://job-openings.monster.com/monster/aea9a7d9-876b-47a9-b70b-b66ccbf59606'
p276
aS'http://job-openings.monster.com/monster/bc28ac7d-c982-48ee-b120-32dc4607f7fc'
p277
aS'http://job-openings.monster.com/monster/526c08e0-29bb-4c61-ba61-91a0d32e5e81'
p278
aS'http://job-openings.monster.com/monster/3422e58f-5d19-4003-a002-471acc09d012'
p279
aS'http://job-openings.monster.com/monster/1c22d16a-3d1e-4818-951c-48ccfd3bf048'
p280
aS'http://job-openings.monster.com/monster/f945c9de-fe68-4b38-b361-4d83a600773e'
p281
aS'http://job-openings.monster.com/monster/88c0febc-320a-4646-8389-7e702e046608'
p282
aS'http://job-openings.monster.com/monster/c8462c59-96a4-421d-8d43-0051ff8b89d4'
p283
aS'http://job-openings.monster.com/monster/b9cb57e9-3f29-4a18-a3f7-da0e0fe2b8f8'
p284
aS'http://job-openings.monster.com/monster/29721f5a-e0a5-4156-8f08-b994dbc8784f'
p285
aS'http://job-openings.monster.com/monster/496674e8-106c-41c9-a71e-cc91d712d9d7'
p286
aS'http://job-openings.monster.com/monster/6e69f6b9-5ff4-4e1e-92a0-583ccb545dbd'
p287
aS'http://job-openings.monster.com/monster/e5c0ec9d-f65a-4197-aa32-0bda6562ab20'
p288
aS'http://job-openings.monster.com/monster/2235305d-1545-48e5-a2f8-edd342b3dd15'
p289
aS'http://job-openings.monster.com/monster/fe27d719-573f-4efc-a9ea-072bb1a0f843'
p290
aS'http://job-openings.monster.com/monster/ce997aee-b732-43ef-af5a-31edc036f343'
p291
aS'http://job-openings.monster.com/monster/434d5865-1390-4066-8b03-416b22ca28cb'
p292
aS'http://job-openings.monster.com/monster/a909e65f-8f3b-4bd7-9d50-c48db1660cc7'
p293
aS'http://job-openings.monster.com/monster/2cfbc32e-3920-44fd-81df-f96df66d06cb'
p294
aS'http://job-openings.monster.com/monster/1918b5f1-7e21-418d-a4e8-4301e0e724be'
p295
aS'http://job-openings.monster.com/monster/79929157-7d80-4222-9557-c878e7aa4b37'
p296
aS'http://job-openings.monster.com/monster/70f88086-a361-4102-8a03-68f80e6fc516'
p297
aS'http://job-openings.monster.com/monster/1cd91cd2-48a3-41dc-ab65-eebd7881c3ef'
p298
aS'http://job-openings.monster.com/monster/20cd3ffa-5d61-4b82-9580-06dc48d80acd'
p299
aS'http://job-openings.monster.com/monster/dee3b8b0-0189-401c-8fb1-e53ea5d0bcd0'
p300
aS'http://job-openings.monster.com/monster/5e957ce2-bb94-4d28-8302-ea2968b590e5'
p301
aS'http://job-openings.monster.com/monster/539ee4bb-96b5-4dab-8114-38ea70dfe034'
p302
aS'http://job-openings.monster.com/monster/beabf437-0bb5-47b4-ba25-0b055359be1c'
p303
aS'http://job-openings.monster.com/monster/941663a6-cd53-464a-a352-0530d594f03c'
p304
aS'http://job-openings.monster.com/monster/a1d79220-55a4-46fe-be1f-16cbf69c5b09'
p305
aS'http://job-openings.monster.com/monster/881d0c2a-1828-496a-8456-63c51c9493a1'
p306
aS'http://job-openings.monster.com/monster/5e60a611-9959-4e38-9e5a-e45f71e1fef5'
p307
aS'http://job-openings.monster.com/monster/80327ccf-6797-4625-aead-0d59c4e2bed3'
p308
aS'http://job-openings.monster.com/monster/7548a376-43a0-47cd-b45e-e2abdc086700'
p309
aS'http://job-openings.monster.com/monster/6e32b05a-b54b-4aa4-9656-8839e57be89a'
p310
aS'http://job-openings.monster.com/monster/b50743aa-278a-4cec-b25e-667c47d3a233'
p311
aS'http://job-openings.monster.com/monster/dca178c1-3829-4621-8e97-d17a173d4463'
p312
aS'http://job-openings.monster.com/monster/77ffe1af-6c0b-48f6-b4ef-94bccbf36438'
p313
aS'http://job-openings.monster.com/monster/83f2e3c5-65cf-422b-ae48-808efd30fe0f'
p314
aS'http://job-openings.monster.com/monster/46d50f5c-d02a-4bc9-9e39-80d52760de9c'
p315
aS'http://job-openings.monster.com/monster/1dd6ac2b-0910-4243-a40c-040fbb3bed20'
p316
aS'http://job-openings.monster.com/monster/bf1768c1-a489-4b41-a845-82e9cfc6a19e'
p317
aS'http://job-openings.monster.com/monster/bd90857e-1198-4794-8ed9-34f35cc9126d'
p318
aS'http://job-openings.monster.com/monster/7858ccd4-b6a0-4176-89f9-376f0ddb9cb6'
p319
aS'http://job-openings.monster.com/monster/d9aa6046-b824-4998-9575-f036009821dd'
p320
aS'http://job-openings.monster.com/monster/9d9e16d5-599a-4ee4-88fd-1a7b0277d331'
p321
aS'http://job-openings.monster.com/monster/ceb81c6c-511d-41a0-9da3-25e5713b8901'
p322
aS'http://job-openings.monster.com/monster/27ca1b88-4085-42b5-82af-fb1a064fbd22'
p323
aS'http://job-openings.monster.com/monster/16370409-67bd-4a28-beed-c558e4d84085'
p324
aS'http://job-openings.monster.com/monster/9fdf0861-d183-4324-a17f-f39e155780a3'
p325
aS'http://job-openings.monster.com/monster/d1f52242-191d-4f02-85c7-4ffab09208b0'
p326
aS'http://job-openings.monster.com/monster/d3fd08e2-9a0e-4f61-8dac-1c9b3843780b'
p327
aS'http://job-openings.monster.com/monster/cc8da4f7-d629-4564-a106-52b15ed2dc61'
p328
aS'http://job-openings.monster.com/monster/cd223289-f443-4b11-94dc-341a63b36838'
p329
aS'http://job-openings.monster.com/monster/9ab82348-cd2b-4fa5-a9a5-7dd74231f251'
p330
aS'http://job-openings.monster.com/monster/a4607f2f-bf3f-4b40-a88d-c04b0bd78511'
p331
aS'http://job-openings.monster.com/monster/30776f37-1ae7-4d1e-af69-d10dd66bf54e'
p332
aS'http://jobview.monster.com/java-developer-with-javascript-nodejs-job-charlottesvle-va-us-173724613.aspx'
p333
aS'http://job-openings.monster.com/monster/f6cb0d28-b4b1-495a-889d-7399b78ca013'
p334
aS'http://job-openings.monster.com/monster/1525ab69-fa9e-4da8-8472-63ba284fda3c'
p335
aS'http://job-openings.monster.com/monster/082b66b7-66c6-47c0-a2ed-dd3b65819e79'
p336
aS'http://job-openings.monster.com/monster/d48e0501-de88-4154-beeb-5217858c4922'
p337
aS'http://job-openings.monster.com/monster/5e9a12c9-ee95-4aa7-862a-25e2892b7e49'
p338
aS'http://job-openings.monster.com/monster/bb98ae02-79ca-4b2a-8514-93efd43e8890'
p339
aS'http://job-openings.monster.com/monster/6b8e06a3-8527-4707-83f3-1c7f292119cf'
p340
aS'http://job-openings.monster.com/monster/ad2cb000-a30b-4b0e-a81a-6ff3b52449fe'
p341
aS'http://job-openings.monster.com/monster/4dfa2f70-aa7e-4095-b259-3c3483f34e53'
p342
aS'http://job-openings.monster.com/monster/e8d25a69-bb44-4c78-bb10-1f7c3cdb74ce'
p343
aS'http://job-openings.monster.com/monster/65d9101b-a1b1-4b5e-89d7-4c6fe450feef'
p344
aS'http://job-openings.monster.com/monster/6c96a54b-1640-4d63-b156-19d589239287'
p345
aS'http://job-openings.monster.com/monster/e6cc9807-a1cf-4947-beed-c098625387fd'
p346
aS'http://job-openings.monster.com/monster/05358a0f-e2cb-4320-9060-5ea404a297ce'
p347
aS'http://job-openings.monster.com/monster/d967cb6c-8908-4080-99a7-3bddb1d2e197'
p348
aS'http://job-openings.monster.com/monster/fcbab08b-bc40-4b84-ad41-8dce0935b6df'
p349
aS'http://job-openings.monster.com/monster/b3433a23-16d0-4acd-a5ba-e9d181d4f34e'
p350
aS'http://job-openings.monster.com/monster/77fb4bb1-4caf-4012-9a2c-09ff6aa3639f'
p351
aS'http://job-openings.monster.com/monster/73ddd738-fa74-4324-b263-92f1b404feb9'
p352
aS'http://job-openings.monster.com/monster/b137cc0b-9b8f-4cb4-9965-7ff9f31e6fa9'
p353
aS'http://job-openings.monster.com/monster/566a28cc-10e2-4929-80cd-676b5081be74'
p354
aS'http://job-openings.monster.com/monster/5ae70b56-4eda-4f03-999b-4d4824baecf9'
p355
aS'http://job-openings.monster.com/monster/83ccbcb7-0cbe-4590-a096-d36920a5674f'
p356
aS'http://job-openings.monster.com/monster/232b1622-d042-4d1f-bfbe-43e66d343c7b'
p357
aS'http://job-openings.monster.com/monster/f1194042-ce00-4fc8-83db-7c19f78da785'
p358
aS'http://job-openings.monster.com/monster/eb805acf-9e5c-4eb1-b6db-edd992de2cd6'
p359
aS'http://job-openings.monster.com/monster/0be140a3-8736-4a67-8a23-49ef3aaaa9fb'
p360
aS'http://job-openings.monster.com/monster/77cdd216-31a3-4a06-bed8-2e7b8ded33b0'
p361
aS'http://job-openings.monster.com/monster/6312ce5d-a81e-408f-8002-5c916606deed'
p362
aS'http://job-openings.monster.com/monster/11c4cd8e-e167-4405-8071-0513dc07467a'
p363
aS'http://job-openings.monster.com/monster/7105f331-8e67-46e4-8d8d-b20c62407f81'
p364
aS'http://job-openings.monster.com/monster/929394c0-5c19-4b6a-8f1a-14abfc3aa5f9'
p365
aS'http://job-openings.monster.com/monster/4728dbcd-4a1e-41c8-88e6-86000b547e89'
p366
aS'http://job-openings.monster.com/monster/7fef5f76-3dff-4331-a70d-6205995e5efe'
p367
aS'http://job-openings.monster.com/monster/1cc2d50b-8e17-44f0-b409-91faeed01207'
p368
aS'http://job-openings.monster.com/monster/aea94ba4-2076-4224-b95f-ec99a8ee77da'
p369
aS'http://job-openings.monster.com/monster/bd130fd7-fa98-4895-8f79-cb8749694d99'
p370
aS'http://job-openings.monster.com/monster/75570432-7259-4fb1-9b12-f60e975fac25'
p371
aS'http://job-openings.monster.com/monster/518d77ad-d501-4aef-b66d-daa77ba8fa46'
p372
aS'http://job-openings.monster.com/monster/108021a4-dadd-4901-9315-af33bbd04e75'
p373
aS'http://job-openings.monster.com/monster/8a0e887a-f4f8-472b-a333-9dfec2f5e178'
p374
aS'http://job-openings.monster.com/monster/ed75a18f-d22b-41a5-9af1-e67698163a63'
p375
aS'http://job-openings.monster.com/monster/aba30353-9b55-4075-918d-26d5ce04cbfd'
p376
aS'http://job-openings.monster.com/monster/644e29a9-af91-4767-bf0e-2b43daba753d'
p377
aS'http://job-openings.monster.com/monster/5f422139-314c-4ca6-8a56-f1ff292a5ae7'
p378
aS'http://job-openings.monster.com/monster/7f95b4b9-a0a5-4ff5-86fd-980d24bd97a9'
p379
aS'http://jobview.monster.com/mgr-regional-sales-job-herndon-va-us-182262758.aspx'
p380
aS'http://job-openings.monster.com/monster/8a88499b-ecf4-44fa-b291-330c98f02ccf'
p381
aS'http://job-openings.monster.com/monster/3e063825-b207-4f64-82b3-fe5bc069479a'
p382
aS'http://job-openings.monster.com/monster/ae7d5c31-a2ec-48c5-847e-35f24448bf19'
p383
aS'http://job-openings.monster.com/monster/b3762c07-6077-4699-9911-f1bdbfd105f0'
p384
aS'http://job-openings.monster.com/monster/e0137c4b-06c0-4ed0-a7c2-43c68a08c1d3'
p385
aS'http://job-openings.monster.com/monster/722ff698-6d49-4938-8e62-d2efadc1bad2'
p386
aS'http://job-openings.monster.com/monster/3aa607e7-d9d1-452e-84ed-e0ed8299efd7'
p387
aS'http://job-openings.monster.com/monster/5bc3c219-4b0e-47b8-a357-d83375d684ef'
p388
aS'http://job-openings.monster.com/monster/623752bc-7b46-487e-bb0f-9fdd429faafb'
p389
aS'http://job-openings.monster.com/monster/f65d3f6f-8e3e-4717-853c-fa954ae29c66'
p390
aS'http://job-openings.monster.com/monster/1f61235a-91c5-42a4-91ec-f7014017979b'
p391
aS'http://job-openings.monster.com/monster/e45beb9b-156e-4fcd-b665-0b292ee36cf8'
p392
aS'http://job-openings.monster.com/monster/de2c62bd-402b-4883-8766-9f776aa71e02'
p393
aS'http://job-openings.monster.com/monster/4bd8cd8f-3cff-4c81-9ae2-8639ea0835ab'
p394
aS'http://job-openings.monster.com/monster/7e9dac65-dff9-4af2-8e81-776b0ddd8713'
p395
aS'http://job-openings.monster.com/monster/d4912daf-8c4b-4149-ab48-e6ba0e07f0e8'
p396
aS'http://jobview.monster.com/cloud-analytics-developer-job-alexandria-va-us-182434743.aspx'
p397
aS'http://job-openings.monster.com/monster/5990098b-deba-4708-91a1-189da0010029'
p398
aS'http://job-openings.monster.com/monster/cd9688f9-ef3a-4299-9e7b-9a793ae0cf00'
p399
aS'http://job-openings.monster.com/monster/dd7ca3a8-165a-4836-aa10-60705cac15cb'
p400
aS'http://jobview.monster.com/data-scientist-job-reston-va-us-182509274.aspx'
p401
aS'http://job-openings.monster.com/monster/e1185c0d-9db1-452c-987f-cae66cd08bd4'
p402
aS'http://job-openings.monster.com/monster/61e37070-bba6-4680-80b7-ee96b6a4c130'
p403
aS'http://job-openings.monster.com/monster/c5b29fa6-676c-4dfd-9703-9d0593061692'
p404
aS'http://job-openings.monster.com/monster/5cbb4ada-2b6f-401b-b51c-dc5ef25572a2'
p405
aS'http://job-openings.monster.com/monster/6df47b44-152d-49ed-934c-4168708603fa'
p406
aS'http://job-openings.monster.com/monster/d56bc90a-a664-412a-af27-2a4826aacc74'
p407
aS'http://job-openings.monster.com/monster/af6936c3-e269-4424-bd0c-67ef03e5f88d'
p408
aS'http://job-openings.monster.com/monster/17e23cb8-ea1d-4493-93cc-7e69a8fff6e2'
p409
aS'http://job-openings.monster.com/monster/2048a538-36a7-450b-b1a5-a58ba204e61f'
p410
aS'http://job-openings.monster.com/monster/a785e15d-e4c9-4917-9429-2fdfa4304510'
p411
aS'http://job-openings.monster.com/monster/9c51add2-5471-4ff9-9dbf-4b5466f49a85'
p412
aS'http://job-openings.monster.com/monster/634ba893-0e94-4282-b14b-c62ae90541d0'
p413
aS'http://job-openings.monster.com/monster/c1ff2748-f7c2-4d1a-9c8f-ffd7276638a0'
p414
aS'http://job-openings.monster.com/monster/dd0782e7-7c40-4e37-bc24-cb9646bac64a'
p415
aS'http://job-openings.monster.com/monster/fa948605-2336-4d71-b5fe-4e69946af0a7'
p416
aS'http://job-openings.monster.com/monster/baccab6e-1070-4ae7-9215-53ad09bf4c2e'
p417
aS'http://job-openings.monster.com/monster/e77ac3d3-e8d5-48b4-a257-9e97690d92f1'
p418
aS'http://job-openings.monster.com/monster/d55fa281-3901-4864-b818-d9d7f6dad576'
p419
aS'http://job-openings.monster.com/monster/13a1e110-74d3-4fd1-b54f-7b1a5412d8c3'
p420
aS'http://job-openings.monster.com/monster/acf015bf-03b7-422b-8b74-1f253fce6306'
p421
aS'http://job-openings.monster.com/monster/c31974bd-6d0e-4c2b-8cea-3022e5ba1d9b'
p422
aS'http://job-openings.monster.com/monster/2631bb35-c3cc-423f-a1f2-d24b1bffa5a5'
p423
aS'http://jobview.monster.com/mgr-regional-sales-job-herndon-va-us-182924252.aspx'
p424
aS'http://job-openings.monster.com/monster/dae8e395-143e-4b54-8e96-706f22c3ab3a'
p425
aS'http://job-openings.monster.com/monster/c6710073-b2ab-4a6b-9eaa-58591b0fdbf0'
p426
aS'http://job-openings.monster.com/monster/9eee4199-248f-4665-9616-428d9334db9f'
p427
aS'http://job-openings.monster.com/monster/b0696021-f9f7-43e2-9e7b-110de7cb169b'
p428
aS'http://job-openings.monster.com/monster/bf4ea3d8-0bff-426b-8c21-eaf629796ee1'
p429
aS'http://job-openings.monster.com/monster/b83c6046-271d-4b6f-95e6-045c9e07d824'
p430
aS'http://job-openings.monster.com/monster/e7a4714f-8655-416f-b182-eecbaf2b97c3'
p431
aS'http://job-openings.monster.com/monster/0fb9ca0a-53bd-4ee6-9b94-b3680b9c6ebd'
p432
aS'http://job-openings.monster.com/monster/c3b8dbf2-fa50-4985-9cde-a7ab1b3ee5a4'
p433
aS'http://job-openings.monster.com/monster/38a62da6-0c60-4d23-8997-83caee7cf886'
p434
aS'http://job-openings.monster.com/monster/bab8352e-6abc-4feb-be0b-eda3245e44bb'
p435
aS'http://job-openings.monster.com/monster/04a5c596-ce4a-4d17-8393-8bc650bd2182'
p436
aS'http://jobview.monster.com/chief-technology-officer-cto-job-fairfax-va-us-181635062.aspx'
p437
aS'http://job-openings.monster.com/monster/b45fbf04-dc39-4a1e-91ff-3011b01f27b7'
p438
aS'http://job-openings.monster.com/monster/0d3d9681-b743-439d-a9bd-29abc14a2521'
p439
aS'http://job-openings.monster.com/monster/af0b5e60-3331-4440-bd56-a543cae24953'
p440
aS'http://job-openings.monster.com/monster/f31381fd-bce8-4184-9766-a4ece267138d'
p441
aS'http://job-openings.monster.com/monster/b93e03b4-6db9-4e9c-b305-02aab4903a62'
p442
aS'http://job-openings.monster.com/monster/ceed31cd-b3cc-473e-833e-9e2c8327193f'
p443
aS'http://job-openings.monster.com/monster/0333c4ad-f728-49eb-a7ff-68d1b0911ab5'
p444
aS'http://job-openings.monster.com/monster/9de6de49-208c-4cd2-808d-b4cf4a25e073'
p445
aS'http://job-openings.monster.com/monster/b21cd8b6-c091-4396-83e2-d54f3e86c4ee'
p446
aS'http://job-openings.monster.com/monster/260be2c7-f185-49be-ba78-e2c2b522df00'
p447
aS'http://job-openings.monster.com/monster/f2372469-64ad-446c-8c8d-60f5b8f33365'
p448
aS'http://job-openings.monster.com/monster/0f1f4096-9e1d-4772-b845-a3477a26dc9b'
p449
aS'http://job-openings.monster.com/monster/bc117cf9-4d61-4e53-8714-f137a0ef4837'
p450
aS'http://job-openings.monster.com/monster/3f52a106-b730-439b-9222-c11693512bd9'
p451
aS'http://job-openings.monster.com/monster/446cb1a8-f46b-48ca-8437-f5e457f11b22'
p452
aS'http://job-openings.monster.com/monster/13e9856f-7334-4b94-85b8-e40c0ff8428a'
p453
aS'http://job-openings.monster.com/monster/b4037d43-de49-4928-a7a8-ccb3b1f88816'
p454
aS'http://job-openings.monster.com/monster/17f96549-7f02-41a5-8bdb-2e5c7c12f5b5'
p455
aS'http://job-openings.monster.com/monster/7c53afe1-536b-41e1-9f36-dbfa5e0093fc'
p456
aS'http://job-openings.monster.com/monster/81182488-0c1f-4bfa-a17f-3ae710292b37'
p457
aS'http://job-openings.monster.com/monster/23e9f0f7-7211-4d1e-aa10-497ac2e8a620'
p458
aS'http://job-openings.monster.com/monster/7a55a5ef-9502-4d28-9871-46f72a23d950'
p459
aS'http://job-openings.monster.com/monster/de3e2c97-3b4c-4623-ab30-38848140d076'
p460
aS'http://job-openings.monster.com/monster/33135c85-53be-4136-8754-f80e722feed0'
p461
aS'http://job-openings.monster.com/monster/50524b90-4b51-4a22-a953-4d461649494c'
p462
aS'http://job-openings.monster.com/monster/bc52558b-965b-4930-a51c-9ca7aef2d359'
p463
aS'http://job-openings.monster.com/monster/72497850-a1e3-4f5e-a83e-ff90afc133f0'
p464
aS'http://job-openings.monster.com/monster/d438f57d-eca5-4f51-9d8b-3978535cfc6b'
p465
aS'http://job-openings.monster.com/monster/ac3aa446-2f9a-42df-8472-9501636c9d2f'
p466
aS'http://job-openings.monster.com/monster/8fdd78f7-a635-4779-b38f-013b648ac44f'
p467
aS'http://job-openings.monster.com/monster/a84db602-438e-490d-bc0c-1b5f5b578c9c'
p468
aS'http://job-openings.monster.com/monster/fa99e56e-f795-4291-9aea-14503584d50c'
p469
aS'http://job-openings.monster.com/monster/cf963271-285b-410b-abb4-84c8107dab0b'
p470
aS'http://job-openings.monster.com/monster/becc05c4-4596-444b-97cc-6db11d87580d'
p471
aS'http://job-openings.monster.com/monster/1ae92bdb-19e1-4402-931d-666773a7ace1'
p472
aS'http://job-openings.monster.com/monster/917803ba-779b-4953-bd15-807aafe01a2f'
p473
aS'http://job-openings.monster.com/monster/a1e9017b-dca7-4537-8110-fce49e2eaa84'
p474
aS'http://job-openings.monster.com/monster/bdb1d601-4744-4a9e-ae02-cda5e7c0cb51'
p475
aS'http://job-openings.monster.com/monster/155c6c19-e0ee-44be-ad3f-07dbabd8ee98'
p476
aS'http://job-openings.monster.com/monster/a0aae434-7cfc-4db2-bdf2-4c8a92e55d1d'
p477
aS'http://job-openings.monster.com/monster/6f367cf9-982f-43c5-99a1-5d6342da1773'
p478
aS'http://job-openings.monster.com/monster/51592b27-ac0d-4d28-8562-2e300ddcd351'
p479
aS'http://job-openings.monster.com/monster/f3ae91b1-b683-4b6d-aca0-874dd80a747d'
p480
aS'http://job-openings.monster.com/monster/4aa0bfa8-2c4a-4dd1-8dc3-b55cd34e2a1f'
p481
aS'http://job-openings.monster.com/monster/57f08d2f-beee-46d9-8e8a-293a2bdd0629'
p482
aS'http://job-openings.monster.com/monster/6a161a1c-8163-4a0e-b88c-e7f6f334f595'
p483
aS'http://job-openings.monster.com/monster/023f6bdc-c133-4f92-a4ab-ade066749db8'
p484
aS'http://job-openings.monster.com/monster/db5cd723-1a21-40ee-a089-3f13e35aa036'
p485
aS'http://job-openings.monster.com/monster/cef32ab2-db3b-474e-8ea2-7a757e1c3c54'
p486
aS'http://job-openings.monster.com/monster/4864a5c7-de88-47c8-b0ec-4b52047b5997'
p487
aS'http://job-openings.monster.com/monster/ad754e19-6476-4fde-abd8-18f304069628'
p488
aS'http://job-openings.monster.com/monster/3500b209-024f-49fe-bda9-5fc59928912c'
p489
aS'http://job-openings.monster.com/monster/f90c3268-d4d4-4494-94bd-95b1f86f734b'
p490
aS'http://job-openings.monster.com/monster/ec69d565-5255-43db-9202-36d984f119b5'
p491
aS'http://job-openings.monster.com/monster/92e2c79b-066b-4ddb-ac9c-aecfb1158de1'
p492
aS'http://job-openings.monster.com/monster/6e08cb1a-143a-4618-8d98-91175553b5f9'
p493
aS'http://job-openings.monster.com/monster/434e6496-3f8d-4895-9de3-6b0ed03fe7e5'
p494
aS'http://job-openings.monster.com/monster/dac08448-7474-45bb-a8e1-54d288c07ea1'
p495
aS'http://job-openings.monster.com/monster/6d5ff956-3ce9-45bb-ab99-975ec4f59673'
p496
aS'http://job-openings.monster.com/monster/1b08d5cc-1406-441c-9314-fc90b366e8d3'
p497
aS'http://job-openings.monster.com/monster/fb632fd0-cf38-4efa-b69f-aab0add4238d'
p498
aS'http://job-openings.monster.com/monster/6d2aa693-dc04-48d3-bc03-0f44e517a149'
p499
aS'http://job-openings.monster.com/monster/37750a55-7c2e-4abc-bca7-94bc5833254b'
p500
aS'http://job-openings.monster.com/monster/4d675318-9e23-4ca3-bd1c-654f6a8f2065'
p501
aS'http://job-openings.monster.com/monster/d4af1b3c-c45a-41b0-b3c9-7c1199c5d8ed'
p502
aS'http://job-openings.monster.com/monster/a157c682-b0a7-46e7-b2ce-4d0f7012191e'
p503
aS'http://job-openings.monster.com/monster/25a6028f-7e14-4a7f-95eb-0d0566e6f62d'
p504
aS'http://job-openings.monster.com/monster/e6097240-15b3-47fb-94b7-cf8b426ea779'
p505
aS'http://job-openings.monster.com/monster/8461d48f-8253-42e6-bc06-024ca91854e9'
p506
aS'http://job-openings.monster.com/monster/813ec718-045f-4fe1-8b1e-738e46e7940c'
p507
aS'http://job-openings.monster.com/monster/9f2b5c36-3e06-495e-8cea-f2bdbd311f4a'
p508
aS'http://job-openings.monster.com/monster/bf283332-62b8-4877-b36c-d1e088fc288d'
p509
aS'http://job-openings.monster.com/monster/656bc94a-b266-450e-ab57-8360993faeb8'
p510
aS'http://job-openings.monster.com/monster/03f374a7-f22e-4fdb-8c3d-eccc21d0a272'
p511
aS'http://job-openings.monster.com/monster/51dae40f-f5e7-4d35-8018-55de6e1ac4ce'
p512
aS'http://job-openings.monster.com/monster/b1f3859d-239f-469c-957e-d31cccefed1d'
p513
aS'http://job-openings.monster.com/monster/eee4123b-bf39-4561-8023-eeaae1c2d001'
p514
aS'http://job-openings.monster.com/monster/4773169c-d18b-4196-9b7e-16f4382ce549'
p515
aS'http://job-openings.monster.com/monster/c902c4ba-241e-4306-9667-eabcdb078009'
p516
aS'http://job-openings.monster.com/monster/0604039c-7c19-427f-a01c-ca2a94963c50'
p517
aS'http://job-openings.monster.com/monster/4d5e0c9f-00e1-4fc6-b491-915d6206b781'
p518
aS'http://job-openings.monster.com/monster/8ed008b5-de3a-4507-99ad-06915d6ce601'
p519
aS'http://job-openings.monster.com/monster/ad987a87-f20a-4b6a-87e0-c9482ebadef6'
p520
aS'http://job-openings.monster.com/monster/19017380-34cf-42e9-8126-899579e9c9dd'
p521
aS'http://job-openings.monster.com/monster/3e9397c7-4d6d-46a2-a68a-e71f548517f1'
p522
aS'http://jobview.monster.com/junior-test-engineer-job-ashburn-va-us-182561180.aspx'
p523
aS'http://job-openings.monster.com/monster/5c70fe17-4a2e-4659-a696-e144a683add7'
p524
aS'http://job-openings.monster.com/monster/8317a025-d4fb-4be8-a5df-1b46847aa7d8'
p525
aS'http://job-openings.monster.com/monster/1c6eaca9-b622-458e-b462-2866d0df1752'
p526
aS'http://job-openings.monster.com/monster/1d7f6e72-1167-4aa9-ac22-6ebf7baad452'
p527
aS'http://job-openings.monster.com/monster/22deedba-0b11-4b7a-938e-28152afb0e4d'
p528
aS'http://job-openings.monster.com/monster/de0541cb-04ab-4f9f-ac06-06b942171964'
p529
aS'http://job-openings.monster.com/monster/9cc49824-6973-454b-8a2f-e8cba37e5297'
p530
aS'http://job-openings.monster.com/monster/737c860d-5269-425b-8e65-e17143870409'
p531
aS'http://job-openings.monster.com/monster/f77d21c9-4314-4e80-9501-ed7f44907b74'
p532
aS'http://job-openings.monster.com/monster/9de81d66-f6ac-4730-8005-fcb10a63b423'
p533
aS'http://job-openings.monster.com/monster/5c25461a-52c2-41cb-93f5-749bd7dfaf99'
p534
aS'http://job-openings.monster.com/monster/58317b03-270f-4ad7-bdb9-75c7953ad5c6'
p535
aS'http://job-openings.monster.com/monster/1766bf2b-f773-4f8a-8b6c-c9478d3f1c8a'
p536
aS'http://jobview.monster.com/reporting-senior-financial-analysis-senior-it-job-mc-lean-va-us-182904969.aspx'
p537
aS'http://job-openings.monster.com/monster/e4aedbcd-64f2-4604-b1e8-711014ca700d'
p538
aS'http://job-openings.monster.com/monster/b7c0408b-c070-4794-a654-b9d84d2b289d'
p539
aS'http://job-openings.monster.com/monster/d572d60c-d8d9-444f-bc0a-dd630089d297'
p540
aS'http://job-openings.monster.com/monster/981ac5b5-bbdd-4f54-989a-78d633c1c5d4'
p541
aS'http://job-openings.monster.com/monster/3252b7df-ca2b-49fb-8e21-cafb0703b7d0'
p542
aS'http://job-openings.monster.com/monster/6a85cd3b-41c0-47dc-8934-e5695b573e1c'
p543
aS'http://job-openings.monster.com/monster/895be2ae-5f13-4ec2-95dd-6b8d8f9666e1'
p544
aS'http://job-openings.monster.com/monster/733d4e83-9d00-4e4d-bb64-2b02b5c71188'
p545
aS'http://job-openings.monster.com/monster/9a7cb1a8-4dde-4722-9c0a-99976caf9436'
p546
aS'http://job-openings.monster.com/monster/82c1c40c-5850-49a9-b2d8-3f2dda4e919f'
p547
aS'http://job-openings.monster.com/monster/110dfdbb-74fc-42cf-8d56-2b5dd941702e'
p548
aS'http://job-openings.monster.com/monster/2a74d6e8-a547-49f0-a792-56bd0312ca81'
p549
aS'http://job-openings.monster.com/monster/13ed44a8-86b1-4d87-8ce4-5b0b077ec5eb'
p550
aS'http://job-openings.monster.com/monster/981e5286-b92a-44d6-a19e-838f64fe6952'
p551
aS'http://job-openings.monster.com/monster/2fab8b39-d441-4a94-adac-06330769a89f'
p552
aS'http://job-openings.monster.com/monster/89ed2043-ebd4-40ab-84cd-c570cc0c1fef'
p553
aS'http://job-openings.monster.com/monster/a05f5874-0fd1-475d-a9f0-321574127446'
p554
aS'http://job-openings.monster.com/monster/374bbbd1-ec1d-4b55-b620-0e73d17dadc8'
p555
aS'http://job-openings.monster.com/monster/8ce57641-a7b2-46b1-8a7b-2fad120b089a'
p556
aS'http://job-openings.monster.com/monster/e0613fa9-fd43-44be-9f7e-194994f73c88'
p557
aS'http://job-openings.monster.com/monster/bf7605b6-8a55-477c-a3ca-2b3452fdc708'
p558
aS'http://job-openings.monster.com/monster/ae43dfff-aea2-408f-8b60-3b654b10430e'
p559
aS'http://job-openings.monster.com/monster/7c95bd3b-5c09-4a0f-85de-5e9114abbd88'
p560
aS'http://job-openings.monster.com/monster/8904ec44-39fd-4ffd-97bf-9506800a3df9'
p561
aS'http://job-openings.monster.com/monster/0cbc684a-365e-44bb-89cf-ceb5212bcb4c'
p562
aS'http://job-openings.monster.com/monster/7249cee2-82fa-4091-9a46-4ef837640ce8'
p563
aS'http://job-openings.monster.com/monster/798b519c-42f6-4279-adf5-5e4acfa23777'
p564
aS'http://job-openings.monster.com/monster/3f5e7534-a252-4d21-8d61-311c133cff3b'
p565
aS'http://job-openings.monster.com/monster/75678b79-10af-4460-a7f8-f9031221f806'
p566
aS'http://job-openings.monster.com/monster/d35fa9ac-48fe-49eb-be21-7d4c3cef64a7'
p567
aS'http://job-openings.monster.com/monster/ed9be760-0cf3-49ae-b2e6-7c5c5dc0c332'
p568
aS'http://job-openings.monster.com/monster/76e22410-dc69-44e0-afc3-3609658de06e'
p569
aS'http://job-openings.monster.com/monster/68f24848-373c-4746-99d3-42025956f737'
p570
aS'http://job-openings.monster.com/monster/1617280d-1e04-4766-8115-e083ea4175bc'
p571
aS'http://job-openings.monster.com/monster/e4b5e0e6-3c24-4f57-83e9-96d8ad1dadf9'
p572
aS'http://job-openings.monster.com/monster/8928976f-ea3e-4f9e-b9ed-58b9dc0ca140'
p573
aS'http://job-openings.monster.com/monster/6f611b26-e67f-42d4-a26f-85381e327d86'
p574
aS'http://job-openings.monster.com/monster/7bf522e4-b3d1-4cfa-bcac-353b7c8aba89'
p575
aS'http://job-openings.monster.com/monster/ee8a65ea-dc8f-4575-9f6d-ff69702afe19'
p576
aS'http://job-openings.monster.com/monster/f2d81e71-9304-47ab-a29a-a6939a663004'
p577
aS'http://job-openings.monster.com/monster/4e1b3f80-42ff-4580-be47-d254d10b37b1'
p578
aS'http://job-openings.monster.com/monster/3a5afc7a-8f09-4868-85f4-7049cc271eff'
p579
aS'http://job-openings.monster.com/monster/e60a71fd-086d-46d9-9552-a79b1dd5593e'
p580
aS'http://job-openings.monster.com/monster/a970d849-f9dc-4a70-9f2a-34b447ff3ebb'
p581
aS'http://job-openings.monster.com/monster/d8b6e769-04a1-44bc-bf15-852e6c59e16e'
p582
aS'http://job-openings.monster.com/monster/9c9dc109-82e2-4565-9906-b03482d3f87c'
p583
aS'http://job-openings.monster.com/monster/df26b474-386a-41f5-93d1-e5ac52e2b7f5'
p584
aS'http://job-openings.monster.com/monster/6bd48230-e049-4aa6-9794-00731c189f73'
p585
aS'http://job-openings.monster.com/monster/95eeccd3-6208-4238-8699-d5e26d03efe0'
p586
aS'http://job-openings.monster.com/monster/c5dd9b90-7391-4ec8-8cf3-bab401edf9ff'
p587
aS'http://job-openings.monster.com/monster/f14f863d-a3d4-4661-adfc-e86952c185e3'
p588
aS'http://job-openings.monster.com/monster/aa2e868a-b9f2-4da3-b613-5396d511cabf'
p589
aS'http://job-openings.monster.com/monster/75efe0db-4f91-4558-a0da-10250eee957b'
p590
aS'http://job-openings.monster.com/monster/baa9f005-3861-4f3a-935f-4bcbfa2701bb'
p591
aS'http://job-openings.monster.com/monster/43c78d1b-2551-45d3-a08c-aec70019a016'
p592
aS'http://job-openings.monster.com/monster/7ac3b808-e4f9-4ae9-bef8-2dfc9e7366d3'
p593
aS'http://job-openings.monster.com/monster/7b929d32-2012-4719-9546-e87e16661d1b'
p594
aS'http://job-openings.monster.com/monster/95b1a341-729c-4300-864b-d018e8078bb4'
p595
aS'http://job-openings.monster.com/monster/3866ecce-ee2d-4ca3-b5b9-61673ba82c33'
p596
aS'http://job-openings.monster.com/monster/aa89da40-8808-41c9-891d-329cada5ecda'
p597
aS'http://job-openings.monster.com/monster/b89465e2-c180-453f-bd8a-efa5bed971af'
p598
aS'http://job-openings.monster.com/monster/6d0ded7f-2772-45e6-831c-039483cd8166'
p599
aS'http://job-openings.monster.com/monster/5e620fcc-c0f4-4db6-a110-0080b8343ee9'
p600
aS'http://job-openings.monster.com/monster/40dba0c2-e4f4-4a7c-8acd-9c5a32997fec'
p601
aS'http://job-openings.monster.com/monster/b7cc3ba2-56ed-4168-91c0-91ce99d6f593'
p602
aS'http://job-openings.monster.com/monster/c62da60e-2408-424f-bead-7d7ba610c084'
p603
aS'http://job-openings.monster.com/monster/79b805b6-1325-4af2-9dbf-1ec1432b190a'
p604
aS'http://job-openings.monster.com/monster/e3ecc95f-46a9-4ac8-b01a-83541aee8fab'
p605
aS'http://job-openings.monster.com/monster/d35f0d56-0de8-4355-9dde-55a3495aef1e'
p606
aS'http://job-openings.monster.com/monster/603dc336-d7ae-405f-9b43-23946a208fcc'
p607
aS'http://job-openings.monster.com/monster/62523023-acb5-4925-9d61-50923f1ba2af'
p608
aS'http://job-openings.monster.com/monster/f34f2b0e-1bb7-43a0-9c62-8805fafb0847'
p609
aS'http://job-openings.monster.com/monster/780e6887-06ca-4901-84f5-efb4751c80e5'
p610
aS'http://job-openings.monster.com/monster/3e874128-8865-45fd-8147-2f67be6e94e2'
p611
aS'http://jobview.monster.com/nlp-developer-job-falls-church-va-us-182178794.aspx'
p612
aS'http://jobview.monster.com/junior-cloud-analytics-developer-job-alexandria-va-us-182434740.aspx'
p613
aS'http://job-openings.monster.com/monster/b008d22f-edfd-458d-9f33-940c92f4c897'
p614
aS'http://jobview.monster.com/junior-data-scientist-python-job-falls-church-va-us-182836047.aspx'
p615
aS'http://job-openings.monster.com/monster/6ade5b07-c555-4902-b004-0bac193564a3'
p616
aS'http://job-openings.monster.com/monster/3b70cccd-e66b-4ea4-b7ec-1069afbad335'
p617
aS'http://job-openings.monster.com/monster/4a6670ae-52e5-46d7-8692-d4912f42cc7e'
p618
aS'http://job-openings.monster.com/monster/b6f4fdfc-89d5-43de-a0bc-21b80ea0d4b6'
p619
aS'http://jobview.monster.com/chief-data-scientist-job-west-mclean-va-us-182466039.aspx'
p620
a.