(dp1
S'skills'
p2
(lp3
S'programming'
p4
aS'data'
p5
asS'working-year'
p6
(lp7
S'[0]'
p8
asS'major'
p9
(lp10
sS'education'
p11
(lp12
S'Bachelor'
p13
asS'responsibility'
p14
(lp15
S'solve problem'
p16
as.