(dp1
S'skills'
p2
(lp3
S'survival analysis'
p4
aS'consulting'
p5
aS'data science'
p6
aS'testing'
p7
aS'tableau'
p8
aS'graphic design'
p9
aS'analytics'
p10
aS'ec2'
p11
aS'problem solving'
p12
aS'creative problem solving'
p13
aS'sap'
p14
aS'random forest'
p15
aS'management'
p16
aS'arcgis'
p17
aS'education'
p18
aS'hadoop'
p19
aS'writing'
p20
aS'computer science'
p21
aS'advanced analytics'
p22
aS'mathematics'
p23
aS'quality assurance'
p24
aS'customer relationship management crm'
p25
aS'python'
p26
aS'data scientist'
p27
aS'business process'
p28
aS'sql'
p29
aS'modeling'
p30
aS'data'
p31
aS'information technology'
p32
aS'word'
p33
aS'science'
p34
aS'economics'
p35
aS'analysis'
p36
aS'machine learning'
p37
aS'credit'
p38
aS'r'
aS'oracle'
p39
aS'organization'
p40
aVbayesian statistic
p41
aS'crm'
p42
asS'working-year'
p43
(lp44
V(2, 5]
p45
asS'major'
p46
(lp47
VBusiness
p48
aVData Science
p49
aVEconomics
p50
aVInformation Science
p51
aVComputer Science
p52
aVMathematics
p53
aVManagement Science and Engineering
p54
asS'education'
p55
(lp56
VBachelor
p57
asS'responsibility'
p58
(lp59
S'development'
p60
aS'information'
p61
aS'product'
p62
aS'insight'
p63
aS'communicate'
p64
aS'analysis'
p65
aS'analytic'
p66
aS'design'
p67
aS'modeling'
p68
aS'understand'
p69
aS'model'
p70
as.