(dp1
S'skills'
p2
(lp3
S'communication'
p4
aS'mysql'
p5
aS'problem solving'
p6
aS'linux'
p7
aS'content management'
p8
aS'management'
p9
aS'java'
p10
aS'publishing'
p11
aS'user experience'
p12
aS'data'
p13
aS'research'
p14
aS'mac os'
p15
aS'web development'
p16
aS'python'
p17
aS'data scientist'
p18
aS'maven'
p19
aS'sql'
p20
aS'apache'
p21
aS'solr'
p22
aS'postgresql'
p23
aS'tomcat'
p24
aS'sql server'
p25
aS'mac os x'
p26
aS'communication skills'
p27
aS'django'
p28
aS'os x'
p29
aS'healthcare'
p30
aS'oracle'
p31
asS'working-year'
p32
(lp33
sS'major'
p34
(lp35
S'communication'
p36
aS'management'
p37
aS'business'
p38
aS'web development'
p39
asS'education'
p40
(lp41
S'Bachelor'
p42
asS'responsibility'
p43
(lp44
S'report'
p45
aS'development'
p46
aS'product'
p47
as.