(dp1
S'skills'
p2
(lp3
S'consulting'
p4
aS'data acquisition'
p5
aS'analytics'
p6
aS'engineering'
p7
aS'visualization'
p8
aS'management'
p9
aS'big data'
p10
aS'government'
p11
aS'python'
p12
aS'marketing'
p13
aS'public health'
p14
aS'processing'
p15
aS'data scientist'
p16
aS'data'
p17
aS'statistical programming'
p18
aS'training'
p19
aS'programming'
p20
aS'organizational development'
p21
aS'data engineering'
p22
aS'r'
aS'customer support'
p23
aS'security'
p24
aS'data analytics'
p25
asS'working-year'
p26
(lp27
V(2, 5]
p28
asS'major'
p29
(lp30
VData Science
p31
aVEconomics
p32
aVEngineering
p33
aVBusiness
p34
aVManagement Science and Engineering
p35
asS'education'
p36
(lp37
VBachelor
p38
asS'responsibility'
p39
(lp40
S'development'
p41
aS'product'
p42
aS'processing'
p43
aS'design'
p44
aS'model'
p45
as.