(dp1
S'skills'
p2
(lp3
S'intelligence'
p4
aS'data science'
p5
aS'testing'
p6
aS'communication'
p7
aS'analytics'
p8
aS'marketing strategy'
p9
aS'sas'
p10
aS'analysis'
p11
aS'continuous improvement'
p12
aS'management'
p13
aS'agile'
p14
aS'strategy'
p15
aS'innovation'
p16
aS'advanced analytics'
p17
aS'mathematics'
p18
aS'segmentation'
p19
aS'marketing'
p20
aS'data scientist'
p21
aS'leadership'
p22
aS'sql'
p23
aS'modeling'
p24
aS'data'
p25
aS'project management'
p26
aS'science'
p27
aS'applied mathematics'
p28
aS'marketing analytics'
p29
aS'business objects'
p30
aS'dashboard'
p31
asS'working-year'
p32
(lp33
V(5, 10]
p34
asS'major'
p35
(lp36
VMathematics
p37
aVData Science
p38
aVEconomics
p39
aVBusiness
p40
aVManagement Science and Engineering
p41
asS'education'
p42
(lp43
VBachelor
p44
aVMaster
p45
asS'responsibility'
p46
(lp47
S'development'
p48
aS'prototype'
p49
aS'insight'
p50
aS'analysis'
p51
aS'improvement'
p52
aS'analytic'
p53
aS'design'
p54
aS'report'
p55
aS'modeling'
p56
aS'model'
p57
aS'develop ... model'
p58
aS'transformation'
p59
as.