(dp1
S'skills'
p2
(lp3
S'research design'
p4
aS'nosql'
p5
aS'communication'
p6
aS'data science'
p7
aS'strategic planning'
p8
aS'analytics'
p9
aS'engineering'
p10
aS'data analysis'
p11
aS'trading'
p12
aS'data mining'
p13
aS'finance'
p14
aS'visualization'
p15
aS'statistics'
p16
aS'probability'
p17
aS'big data'
p18
aS'time series analysis'
p19
aS'agile'
p20
aS'statistical computing'
p21
aS'research'
p22
aS'computer science'
p23
aS'natural language processing'
p24
aS'mathematics'
p25
aS'data management'
p26
aS'text mining'
p27
aS'processing'
p28
aS'theory'
p29
aS'government'
p30
aS'python'
p31
aS'innovation'
p32
aS'data scientist'
p33
aS'product development'
p34
aS'management'
p35
aS'data processing'
p36
aS'information retrieval'
p37
aS'data'
p38
aS'analytical skills'
p39
aVbayesian method
p40
aS'software engineering'
p41
aS'data visualization'
p42
aS'science'
p43
aS'programming'
p44
aS'analysis'
p45
aS'machine learning'
p46
aS'data architecture'
p47
aS'banking'
p48
aS'r'
aS'architecture'
p49
aS'organization'
p50
aS'security'
p51
aS'data analytics'
p52
asS'working-year'
p53
(lp54
S'[0]'
p55
asS'major'
p56
(lp57
VStatistics
p58
aVBusiness
p59
aVData Science
p60
aVEconomics
p61
aVEngineering
p62
aVComputer Science
p63
aVMathematics
p64
aVManagement Science and Engineering
p65
asS'education'
p66
(lp67
VDoctor
p68
asS'responsibility'
p69
(lp70
S'development'
p71
aS'ad-hoc exploratory'
p72
aS'product'
p73
aS'data analysis'
p74
aS'information'
p75
aS'processing'
p76
aS'communicate'
p77
aS'analysis'
p78
aS'design'
p79
aS'data mining'
p80
aS'implement'
p81
aS'model'
p82
aS'decision-making'
p83
as.