(dp1
S'skills'
p2
(lp3
S'intelligence'
p4
aS'human resources'
p5
aS'analytics'
p6
aS'business intelligence'
p7
aS'distributed computing'
p8
aS'spss'
p9
aS'quantitative analysis'
p10
aS'research'
p11
aS'visualization'
p12
aS'statistics'
p13
aS'strategy'
p14
aS'computer science'
p15
aS'natural language processing'
p16
aS'advanced analytics'
p17
aS'artificial intelligence'
p18
aS'text mining'
p19
aS'data analysis'
p20
aS'data modeling'
p21
aS'theory'
p22
aS'python'
p23
aS'processing'
p24
aS'data scientist'
p25
aS'management'
p26
aS'sql'
p27
aS'modeling'
p28
aS'data'
p29
aS'project management'
p30
aS'data visualization'
p31
aS'data cleaning'
p32
aS'science'
p33
aS'analysis'
p34
aS'machine learning'
p35
aS'r'
aS'financial services'
p36
asS'working-year'
p37
(lp38
V(5, 10]
p39
asS'major'
p40
(lp41
VData Science
p42
aVStatistics
p43
aVComputer Science
p44
aVBusiness
p45
aVManagement Science and Engineering
p46
asS'education'
p47
(lp48
VMaster
p49
aVDoctor
p50
asS'responsibility'
p51
(lp52
S'development'
p53
aS'processing'
p54
aS'business problem'
p55
aS'quantitative analysis'
p56
aS'insight'
p57
aS'analysis'
p58
aS'analytic'
p59
aS'data analysis'
p60
aS'solve problem'
p61
aS'recommendation'
p62
aS'report'
p63
aS'modeling'
p64
aS'model'
p65
aS'interface'
p66
aS'decision-making'
p67
as.