(dp1
S'skills'
p2
(lp3
S'interaction design'
p4
aS'data'
p5
aS'data scientist'
p6
aS'r d'
p7
asS'working-year'
p8
(lp9
V(2, 5]
p10
asS'major'
p11
(lp12
S'design'
p13
aS'general'
p14
asS'education'
p15
(lp16
S'Bachelor'
p17
asS'responsibility'
p18
(lp19
S'communicate'
p20
aS'design'
p21
as.