(dp1
S'skills'
p2
(lp3
S'training'
p4
aS'data analysis'
p5
aS'data modeling'
p6
aS'python'
p7
aS'science'
p8
aS'data science'
p9
aS'excel'
p10
aS'tableau'
p11
aS'analysis'
p12
aS'research'
p13
aS'data engineering'
p14
aS'engineering'
p15
aS'r'
aS'problem solving'
p16
aS'sql'
p17
aS'policy'
p18
aS'modeling'
p19
aS'education'
p20
aS'data'
p21
aS'options'
p22
asS'working-year'
p23
(lp24
S'[0]'
p25
asS'major'
p26
(lp27
VData Science
p28
aVEngineering
p29
aVBusiness
p30
asS'education'
p31
(lp32
VBachelor
p33
asS'responsibility'
p34
(lp35
S'development'
p36
aS'information'
p37
aS'data analysis'
p38
aVtest hypothesis
p39
aS'analysis'
p40
aS'design'
p41
aS'modeling'
p42
aS'model'
p43
aS'design ... experiment'
p44
aS'decision making'
p45
as.