(dp1
S'skills'
p2
(lp3
S'research design'
p4
aS'communication'
p5
aS'tableau'
p6
aS'cluster'
p7
aS'business intelligence'
p8
aS'hive'
p9
aS'problem solving'
p10
aS'education'
p11
aS'management'
p12
aS'critical thinking'
p13
aS'predictive modeling'
p14
aS'hadoop'
p15
aS'research'
p16
aS'optimization'
p17
aS'intelligence'
p18
aS'data management'
p19
aS'segmentation'
p20
aS'python'
p21
aS'collaboration'
p22
aS'data scientist'
p23
aS'sql'
p24
aS'modeling'
p25
aS'data'
p26
aS'project management'
p27
aS'business intelligence tools'
p28
aS'data collection'
p29
aS'economics'
p30
aS'analysis'
p31
aS'credit'
p32
aS'r'
aS'healthcare'
p33
aS'organization'
p34
aS'security'
p35
asS'working-year'
p36
(lp37
V(2, 5]
p38
asS'major'
p39
(lp40
VEconomics
p41
aVChemical Engineering
p42
aVBusiness
p43
aVManagement Science and Engineering
p44
asS'education'
p45
(lp46
VMaster
p47
asS'responsibility'
p48
(lp49
S'information'
p50
aS'product'
p51
aS'data collection'
p52
aS'manipulate ... dataset'
p53
aS'evaluation'
p54
aS'insight'
p55
aS'communicate'
p56
aS'analysis'
p57
aS'develop ... model'
p58
aS'analytic'
p59
aS'optimization'
p60
aS'design'
p61
aS'recommendation'
p62
aS'modeling'
p63
aS'model'
p64
aS'statistical model'
p65
aS'presentation'
p66
as.