(dp1
S'skills'
p2
(lp3
S'consulting'
p4
aS'management'
p5
aS'theory'
p6
aS'marketing analytics'
p7
aS'statistical analysis'
p8
aS'marketing'
p9
aS'economics'
p10
aS'data scientist'
p11
aS'analysis'
p12
aS'econometrics'
p13
aS'analytics'
p14
aS'teamwork'
p15
aVbayesian statistic
p16
aS'mathematics'
p17
aS'modeling'
p18
aS'data'
p19
aS'regression'
p20
aS'project management'
p21
aS'predictive analytics'
p22
asS'working-year'
p23
(lp24
V(5, 10]
p25
asS'major'
p26
(lp27
S'law'
p28
aS'business'
p29
aS'marketing analytics'
p30
aS'marketing'
p31
aS'economics'
p32
aS'analytics'
p33
aS'management'
p34
aS'statistic'
p35
aS'mathematics'
p36
aS'quantitative marketing'
p37
aS'econometrics'
p38
aS'project management'
p39
aS'predictive analytics'
p40
asS'education'
p41
(lp42
S'Bachelor'
p43
asS'responsibility'
p44
(lp45
S'development'
p46
aS'build model'
p47
aVinsight
p48
aS'communicate'
p49
aS'analysis'
p50
aS'understand'
p51
aS'modeling'
p52
aS'model'
p53
as.