(dp1
S'skills'
p2
(lp3
S'digital marketing'
p4
aS'ip'
p5
aS'linux'
p6
aS'tcp'
p7
aS'hardware'
p8
aS'engineering'
p9
aS'ansible'
p10
aS'mysql'
p11
aS'management'
p12
aS'genetics'
p13
aS'big data'
p14
aS'storage'
p15
aS'information technology'
p16
aS'reliability engineering'
p17
aS'communication'
p18
aS'computer science'
p19
aS'python'
p20
aS'marketing'
p21
aS'aws'
p22
aS'automation'
p23
aS'spark'
p24
aS'data'
p25
aS'bash'
p26
aS'science'
p27
aS'unix'
p28
aS'data center'
p29
aS'organization'
p30
aS'docker'
p31
aS'scripting'
p32
asS'working-year'
p33
(lp34
V(2, 5]
p35
asS'major'
p36
(lp37
VEconomics
p38
aVEngineering
p39
aVInformation Science
p40
aVComputer Science
p41
aVBiological Engineering
p42
aVManagement Science and Engineering
p43
asS'education'
p44
(lp45
VBachelor
p46
aVMaster
p47
asS'responsibility'
p48
(lp49
S'information'
p50
aS'design'
p51
aS'data infrastructure'
p52
as.