(dp1
S'skills'
p2
(lp3
S'data science'
p4
aS'testing'
p5
aS'analytics'
p6
aS'statistical analysis'
p7
aS'problem solving'
p8
aS'education'
p9
aS'management'
p10
aS'predictive modeling'
p11
aS'hadoop'
p12
aS'advanced analytics'
p13
aS'unstructured data'
p14
aS'team leadership'
p15
aS'mathematical analysis'
p16
aS'leadership'
p17
aS'mentoring'
p18
aS'modeling'
p19
aS'data'
p20
aS'science'
p21
aS'analysis'
p22
aS'machine learning'
p23
aS'credit'
p24
aS'healthcare'
p25
aS'organization'
p26
aS'security'
p27
asS'working-year'
p28
(lp29
V(5, 10]
p30
asS'major'
p31
(lp32
S'information'
p33
aS'management'
p34
aS'business'
p35
aS'science'
p36
aS'data science'
p37
aS'machine learning'
p38
aS'analytics'
p39
aS'advanced analytics'
p40
asS'education'
p41
(lp42
VMaster
p43
asS'responsibility'
p44
(lp45
S'large data set'
p46
aS'product'
p47
aS'business problem'
p48
aS'communicate'
p49
aS'analysis'
p50
aS'statistical model'
p51
aS'analytic'
p52
aS'statistical method'
p53
aS'modeling'
p54
aS'information'
p55
aS'evaluation'
p56
aS'model'
p57
as.