(dp1
S'skills'
p2
(lp3
S'visualization'
p4
aS'management'
p5
aS'theory'
p6
aS'data visualization'
p7
aS'communication'
p8
aS'collaboration'
p9
aS'data scientist'
p10
aS'graphic design'
p11
aS'interaction design'
p12
aS'product design'
p13
aS'leadership'
p14
aS'information design'
p15
aS'innovation'
p16
aS'product management'
p17
aS'fixed income'
p18
aS'data'
p19
asS'working-year'
p20
(lp21
V(5, 10]
p22
asS'major'
p23
(lp24
VBusiness
p25
aVManagement Science and Engineering
p26
asS'education'
p27
(lp28
VBachelor
p29
asS'responsibility'
p30
(lp31
S'development'
p32
aS'information'
p33
aS'product'
p34
aS'insight'
p35
aS'design'
p36
as.