(dp1
S'skills'
p2
(lp3
S'a'
aS'investment banking'
p4
aS'apis'
p5
aS'python'
p6
aS'communication'
p7
aS'market making'
p8
aS'processing'
p9
aS'data scientist'
p10
aS'physics'
p11
aS'research'
p12
aS'banking'
p13
aS'management'
p14
aS'trading'
p15
aS'computer science'
p16
aS'science'
p17
aS'organization'
p18
aS'government'
p19
aS'strategy'
p20
aS'data'
p21
aS'asset management'
p22
aS'electronic trading'
p23
asS'working-year'
p24
(lp25
S'[0]'
p26
asS'major'
p27
(lp28
VPhysics
p29
aVComputer Science
p30
aVBusiness
p31
aVManagement Science and Engineering
p32
asS'education'
p33
(lp34
S'Bachelor'
p35
asS'responsibility'
p36
(lp37
S'development'
p38
aS'information'
p39
aS'processing'
p40
aS'design'
p41
aS'large data set'
p42
as.