(dp1
S'skills'
p2
(lp3
S'java'
p4
aS'big data'
p5
aS'scala'
p6
aS'python'
p7
aS'science'
p8
aS'data science'
p9
aS'data mining'
p10
aS'data scientist'
p11
aS'hadoop'
p12
aS'machine learning'
p13
aS'big data analytics'
p14
aS'analytics'
p15
aS'engineering'
p16
aS'sql'
p17
aS'healthcare'
p18
aS'spark'
p19
aS'data'
p20
aS'collaboration'
p21
aS'data analytics'
p22
aS'data engineering'
p23
asS'working-year'
p24
(lp25
V(2, 5]
p26
asS'major'
p27
(lp28
S'big data'
p29
aS'science'
p30
aS'data science'
p31
aS'machine learning'
p32
aS'big data analytics'
p33
aS'analytics'
p34
aS'engineering'
p35
aS'data mining'
p36
aS'data analytics'
p37
asS'education'
p38
(lp39
S'Bachelor'
p40
asS'responsibility'
p41
(lp42
S'report'
p43
aS'development'
p44
aS'data mining'
p45
aS'improvement'
p46
as.