(dp1
S'skills'
p2
(lp3
S'consulting'
p4
aS'health economics'
p5
aS'healthcare analytics'
p6
aS'analytics'
p7
aS'problem solving'
p8
aS'statistics'
p9
aS'research'
p10
aS'innovation'
p11
aS'policy'
p12
aS'mathematics'
p13
aS'collaboration'
p14
aS'data analysis'
p15
aS'design thinking'
p16
aS'public health'
p17
aS'data scientist'
p18
aS'sql'
p19
aS'data'
p20
aS'health policy'
p21
aS'economics'
p22
aS'analysis'
p23
aS'r'
aS'healthcare'
p24
aS'organization'
p25
aS'data analytics'
p26
asS'working-year'
p27
(lp28
sS'major'
p29
(lp30
VStatistics
p31
aVBusiness
p32
aVData Science
p33
aVEconomics
p34
aVChemical Engineering
p35
aVMathematics
p36
asS'education'
p37
(lp38
VBachelor
p39
asS'responsibility'
p40
(lp41
S'development'
p42
aS'product'
p43
aS'data analysis'
p44
aS'insight'
p45
aS'communicate'
p46
aS'analysis'
p47
aS'design'
p48
aS'model'
p49
aS'transformation'
p50
as.