(dp1
S'skills'
p2
(lp3
S'management'
p4
aS'capital markets'
p5
aS'critical thinking'
p6
aS'business objects'
p7
aS'research'
p8
aS'project management'
p9
aS'trading'
p10
aS'analysis'
p11
aS'data analysis'
p12
aS'sql'
p13
aS'process improvement'
p14
aS'automation'
p15
aS'data'
p16
aS'data management'
p17
asS'working-year'
p18
(lp19
V(5, 10]
p20
asS'major'
p21
(lp22
S'information'
p23
aS'management'
p24
aS'business'
p25
aS'data analyst'
p26
aS'automation'
p27
aS'project management'
p28
asS'education'
p29
(lp30
S'Bachelor'
p31
asS'responsibility'
p32
(lp33
S'development'
p34
aS'information'
p35
aS'product'
p36
aS'data analysis'
p37
aS'pattern'
p38
aVinsight
p39
aS'communicate'
p40
aS'analysis'
p41
aS'improvement'
p42
aS'ownership'
p43
aS'report'
p44
as.