(dp1
S'skills'
p2
(lp3
S'management'
p4
aS'capital markets'
p5
aS'r d'
p6
aS'critical thinking'
p7
aS'business objects'
p8
aS'research'
p9
aS'project management'
p10
aS'trading'
p11
aS'analysis'
p12
aS'data analysis'
p13
aS'sql'
p14
aS'process improvement'
p15
aS'automation'
p16
aS'data'
p17
aS'data management'
p18
asS'working-year'
p19
(lp20
V(5, 10]
p21
asS'major'
p22
(lp23
S'information'
p24
aS'management'
p25
aS'business'
p26
aS'data analyst'
p27
aS'automation'
p28
aS'project management'
p29
asS'education'
p30
(lp31
S'Bachelor'
p32
asS'responsibility'
p33
(lp34
S'development'
p35
aS'information'
p36
aS'product'
p37
aS'data analysis'
p38
aS'pattern'
p39
aVinsight
p40
aS'communicate'
p41
aS'analysis'
p42
aS'improvement'
p43
aS'ownership'
p44
aS'report'
p45
as.