(dp1
S'skills'
p2
(lp3
S'r d'
p4
aS'intelligence'
p5
aS'data science'
p6
aS'testing'
p7
aS'engineering'
p8
aS'hive'
p9
aS'hbase'
p10
aS'research'
p11
aS'cassandra'
p12
aS'investment banking'
p13
aS'java'
p14
aS'big data'
p15
aS'army'
p16
aS'user experience'
p17
aS'agile'
p18
aS'hadoop'
p19
aS'writing'
p20
aS'computer science'
p21
aS'operations research'
p22
aS'data analysis'
p23
aS'government'
p24
aS'python'
p25
aS'collaboration'
p26
aS'processing'
p27
aS'data scientist'
p28
aS'data processing'
p29
aS'apache'
p30
aS'modeling'
p31
aS'spark'
p32
aS'data'
p33
aS'banking'
p34
aS'science'
p35
aS'economics'
p36
aS'mapreduce'
p37
aS'analysis'
p38
aS'machine learning'
p39
aS'credit'
p40
aS'optimization'
p41
aS'elasticsearch'
p42
aS'architecture'
p43
aS'asset management'
p44
aS'anomaly detection'
p45
aS'start-ups'
p46
aS'trend analysis'
p47
asS'working-year'
p48
(lp49
V(5, 10]
p50
asS'major'
p51
(lp52
S'computer science operations research'
p53
aS'information'
p54
aS'business'
p55
aS'big data'
p56
aS'computational science'
p57
aS'data science'
p58
aS'economics'
p59
aS'physics economics'
p60
aS'statistic'
p61
aS'machine learning'
p62
aS'applied math computer science'
p63
aS'engineering'
p64
aS'operations research'
p65
aS'applied math'
p66
aS'computer science'
p67
aS'machine learning engineer'
p68
aVphysic
p69
aS'science'
p70
asS'education'
p71
(lp72
VMaster
p73
asS'responsibility'
p74
(lp75
S'development'
p76
aS'information'
p77
aS'product'
p78
aS'data analysis'
p79
aS'processing'
p80
aS'analysis'
p81
aS'optimization'
p82
aS'solve problem'
p83
aS'recommendation'
p84
aS'modeling'
p85
aS'model'
p86
aS'transformation'
p87
as.