(dp1
S'skills'
p2
(lp3
S'r d'
p4
aS'shell scripting'
p5
aS'communication'
p6
aS'testing'
p7
aS'analysis'
p8
aS'linux'
p9
aS'random forest'
p10
aS'clustering'
p11
aS'linguistics'
p12
aS'java'
p13
aS'classification'
p14
aS'big data'
p15
aS'nosql'
p16
aS'predictive modeling'
p17
aS'hadoop'
p18
aS'insurance'
p19
aS'computer science'
p20
aS'hypothesis testing'
p21
aS'matlab'
p22
aS'python'
p23
aS'collaboration'
p24
aS'data scientist'
p25
aS'bayesian inference'
p26
aS'hive'
p27
aS'decision trees'
p28
aS'computational linguistics'
p29
aS'statistical modeling'
p30
aS'sql'
p31
aS'regression'
p32
aS'modeling'
p33
aS'data'
p34
aS'svm'
p35
aS'octave'
p36
aS'fraud'
p37
aS'property casualty insurance'
p38
aS'science'
p39
aS'economics'
p40
aS'programming'
p41
aS'c++'
p42
aS'machine learning'
p43
aS'r'
aS'logistic regression'
p44
aS'scripting'
p45
aS'statistical analysis'
p46
asS'working-year'
p47
(lp48
V(10, 15]
p49
asS'major'
p50
(lp51
S'linguistics'
p52
aS'statistics economics'
p53
aS'big data'
p54
aS'information'
p55
aS'science'
p56
aS'economics'
p57
aS'communication'
p58
aS'computer science statistics'
p59
aS'computing'
p60
aS'machine learning'
p61
aS'business'
p62
aS'design'
p63
aS'computer science'
p64
aS'statistic'
p65
aS'phd'
p66
aVphysic
p67
aS'computational linguistics'
p68
asS'education'
p69
(lp70
VMaster
p71
aVDoctor
p72
asS'responsibility'
p73
(lp74
S'large data set'
p75
aS'product'
p76
aS'information'
p77
aVinsight
p78
aS'analysis'
p79
aS'statistical model'
p80
aS'design'
p81
aS'modeling'
p82
as.