(dp1
S'skills'
p2
(lp3
S'attribution modeling'
p4
aS'testing'
p5
aS'tableau'
p6
aS'cluster'
p7
aS'product strategy'
p8
aS'data mining'
p9
aS'spss'
p10
aS'regression'
p11
aS'visualization'
p12
aS'integrated marketing'
p13
aS'java'
p14
aS'excel'
p15
aS'hadoop'
p16
aS'anova'
p17
aS'strategy'
p18
aS'statistical software'
p19
aS'computer science'
p20
aS'pca'
p21
aS'unstructured data'
p22
aS'teradata'
p23
aS'social media'
p24
aS'python'
p25
aS'marketing'
p26
aS'data scientist'
p27
aS'sql'
p28
aS'modeling'
p29
aS'data'
p30
aS'software development'
p31
aVbayesian network
p32
aS'svm'
p33
aS'data visualization'
p34
aS'analytics'
p35
aS'data cleaning'
p36
aS'science'
p37
aS'analysis'
p38
aS'machine learning'
p39
aS'google analytics'
p40
aS'r'
aS'product launch'
p41
aS'logistic regression'
p42
aS'cluster analysis'
p43
asS'working-year'
p44
(lp45
V[0]
p46
asS'major'
p47
(lp48
S'business'
p49
aS'marketing'
p50
aS'machine learning statistics'
p51
aS'statistic'
p52
aS'machine learning data mining'
p53
aS'analytics'
p54
aS'computer science'
p55
aS'phd'
p56
aS'data mining'
p57
aS'machine learning'
p58
aS'computer science machine learning'
p59
aS'science'
p60
asS'education'
p61
(lp62
VMaster
p63
aVDoctor
p64
asS'responsibility'
p65
(lp66
S'development'
p67
aS'product'
p68
aS'analysis'
p69
aS'statistical method'
p70
aS'product launch'
p71
aS'data mining'
p72
aS'modeling'
p73
aS'model'
p74
as.