(dp1
S'skills'
p2
(lp3
S'supply chain'
p4
aS'communication'
p5
aS'data science'
p6
aS'engineering'
p7
aS'defense'
p8
aS'analysis'
p9
aS'problem solving'
p10
aS'mysql'
p11
aS'go'
p12
aS'research'
p13
aS'management'
p14
aS'java'
p15
aS'big data'
p16
aS'education'
p17
aS'hadoop'
p18
aS'perl'
p19
aS'optimization'
p20
aS'gurobi'
p21
aS'matlab'
p22
aS'innovation'
p23
aS'computer science'
p24
aS'distributed computing'
p25
aS'python'
p26
aS'marketing'
p27
aS'data scientist'
p28
aS'search'
p29
aS'automation'
p30
aS'hive'
p31
aS'leadership'
p32
aS'aerospace'
p33
aS'aviation'
p34
aS'spark'
p35
aS'data'
p36
aS'c'
aS'solver'
p37
aS'science'
p38
aS'programming'
p39
aS'thought leadership'
p40
aS'c++'
p41
aS'machine learning'
p42
aS'r'
aS'internet things'
p43
aS'security'
p44
aS'statistical analysis'
p45
asS'working-year'
p46
(lp47
V(2, 5]
p48
asS'major'
p49
(lp50
S'science'
p51
aS'management'
p52
aS'high technology'
p53
aS'big data'
p54
aS'computing'
p55
aS'marketing'
p56
aS'data science'
p57
aS'communication'
p58
aS'machine learning'
p59
aS'business'
p60
aS'engineering'
p61
aS'design'
p62
aS'computer science'
p63
aS'statistic'
p64
aS'automation'
p65
aS'ee computer science'
p66
aS'history'
p67
asS'education'
p68
(lp69
S'Bachelor'
p70
asS'responsibility'
p71
(lp72
S'large data set'
p73
aS'product'
p74
aS'develop model'
p75
aVinsight
p76
aS'analysis'
p77
aS'optimization'
p78
aS'design'
p79
aS'ownership'
p80
aS'identify trend'
p81
aS'implement'
p82
aS'engineering design'
p83
aS'model'
p84
as.