(dp1
S'skills'
p2
(lp3
S'communication'
p4
aS'data science'
p5
aS'sales'
p6
aS'research'
p7
aS'insurance'
p8
aS'management'
p9
aS'genetics'
p10
aS'recruiting'
p11
aS'sports'
p12
aS'access'
p13
aS'teamwork'
p14
aS'marketing'
p15
aS'policy'
p16
aS'finance'
p17
aS'customer service'
p18
aS'collaboration'
p19
aS'data scientist'
p20
aS'user research'
p21
aS'data'
p22
aS'training'
p23
aS'science'
p24
aS'credit'
p25
aS'financial services'
p26
aS'product management'
p27
asS'working-year'
p28
(lp29
V(5, 10]
p30
asS'major'
p31
(lp32
VBiological Engineering
p33
aVData Science
p34
aVEconomics
p35
aVBusiness
p36
aVManagement Science and Engineering
p37
asS'education'
p38
(lp39
S'Bachelor'
p40
asS'responsibility'
p41
(lp42
S'development'
p43
aS'information'
p44
aS'product'
p45
as.