(dp1
S'skills'
p2
(lp3
S'management'
p4
aS'r d'
p5
aS'finance'
p6
aS'recruiting'
p7
aS'collaboration'
p8
aS'customer service'
p9
aS'data science'
p10
aS'data scientist'
p11
aS'user research'
p12
aS'research'
p13
aS'access'
p14
aS'credit'
p15
aS'communication'
p16
aS'teamwork'
p17
aS'financial services'
p18
aS'policy'
p19
aS'marketing'
p20
aS'product management'
p21
aS'data'
p22
aS'insurance'
p23
aS'science'
p24
asS'working-year'
p25
(lp26
V(5, 10]
p27
asS'major'
p28
(lp29
S'information'
p30
aS'management'
p31
aS'finance'
p32
aS'business'
p33
aS'marketing'
p34
aS'data science'
p35
aS'communication'
p36
aS'marketing finance'
p37
aS'science'
p38
aS'law'
p39
asS'education'
p40
(lp41
S'Bachelor'
p42
asS'responsibility'
p43
(lp44
S'development'
p45
aS'information'
p46
aS'product'
p47
as.