(dp1
S'skills'
p2
(lp3
S'data'
p4
aS'finance'
p5
asS'working-year'
p6
(lp7
V[0]
p8
asS'major'
p9
(lp10
S'finance'
p11
asS'education'
p12
(lp13
S'Bachelor'
p14
asS'responsibility'
p15
(lp16
S'report'
p17
as.