(dp1
S'skills'
p2
(lp3
S'organization'
p4
aS'customer insight'
p5
aS'marketing'
p6
aS'energy'
p7
aS'documentation'
p8
aS'management'
p9
aS'governance'
p10
aS'data quality'
p11
aS'analytics'
p12
aS'business intelligence'
p13
aS'data governance'
p14
aS'financial services'
p15
aS'intelligence'
p16
aS'communication'
p17
aS'policy'
p18
aS'analysis'
p19
aS'advanced analytics'
p20
aS'data'
p21
aS'data management'
p22
asS'working-year'
p23
(lp24
V(2, 5]
p25
asS'major'
p26
(lp27
S'information'
p28
aS'management'
p29
aS'business'
p30
aS'business administration'
p31
aS'marketing'
p32
aS'mba'
p33
aS'data analyst'
p34
aS'analytics'
p35
aS'communication'
p36
aS'advanced analytics'
p37
asS'education'
p38
(lp39
VBachelor
p40
aVMaster
p41
asS'responsibility'
p42
(lp43
S'development'
p44
aS'information'
p45
aS'documentation'
p46
aVinsight
p47
aS'analysis'
p48
aS'understand'
p49
aS'implement'
p50
as.