(dp1
S'skills'
p2
(lp3
S'data science'
p4
aS'information retrieval'
p5
aS'engineering'
p6
aS'hive'
p7
aS'data mining'
p8
aS'hbase'
p9
aS'quantitative analysis'
p10
aS'experimentation'
p11
aS'instrumentation'
p12
aS'hadoop'
p13
aS'research'
p14
aS'optimization'
p15
aS'online advertising'
p16
aS'innovation'
p17
aS'mathematics'
p18
aS'matlab'
p19
aS'computer science'
p20
aS'biology'
p21
aS'distributed computing'
p22
aS'finance'
p23
aS'python'
p24
aS'marketing'
p25
aS'data scientist'
p26
aS'sql'
p27
aS'neuroscience'
p28
aS'data'
p29
aS'a'
aS'science'
p30
aS'economics'
p31
aS'analysis'
p32
aS'machine learning'
p33
aS'r'
aS'advertising'
p34
aS'scripting'
p35
asS'working-year'
p36
(lp37
V(2, 5]
p38
asS'major'
p39
(lp40
VData Science
p41
aVEconomics
p42
aVEngineering
p43
aVCognitive Science
p44
aVComputer Science
p45
aVBiological Engineering
p46
aVMathematics
p47
asS'education'
p48
(lp49
VDoctor
p50
asS'responsibility'
p51
(lp52
S'information'
p53
aS'product'
p54
aS'large data set'
p55
aS'quantitative analysis'
p56
aS'communicate'
p57
aS'analysis'
p58
aS'analytic'
p59
aS'statistical method'
p60
aS'optimization'
p61
aS'data mining'
p62
aS'presentation'
p63
as.