(dp1
S'skills'
p2
(lp3
S'nlp'
p4
aS'software engineering'
p5
aS'big data'
p6
aS'deep learning'
p7
aS'data scientist'
p8
aS'hadoop'
p9
aS'machine learning'
p10
aS'engineering'
p11
aS'spark'
p12
aS'research'
p13
aS'data'
p14
asS'working-year'
p15
(lp16
S'[0]'
p17
asS'major'
p18
(lp19
VEngineering
p20
aVComputer Science
p21
asS'education'
p22
(lp23
VMaster
p24
aVDoctor
p25
asS'responsibility'
p26
(lp27
S'development'
p28
aS'model'
p29
aS'insight'
p30
as.