(dp1
S'skills'
p2
(lp3
S'probability'
p4
aS'communication'
p5
aS'data science'
p6
aS'testing'
p7
aS'analytics'
p8
aS'engineering'
p9
aS'data-driven decision making'
p10
aS'data mining'
p11
aS'visualization'
p12
aS'big data'
p13
aS'programming languages'
p14
aS'agile'
p15
aS'hadoop'
p16
aS'computer science'
p17
aS'intelligence'
p18
aS'advanced analytics'
p19
aS'hypothesis testing'
p20
aS'energy'
p21
aS'calculus'
p22
aS'finance'
p23
aS'algebra'
p24
aS'python'
p25
aS'data scientist'
p26
aS'experimental design'
p27
aS'business analytics'
p28
aS'sql'
p29
aS'modeling'
p30
aS'spark'
p31
aS'data'
p32
aS'software development'
p33
aS'employee engagement'
p34
aS'github'
p35
aS'science'
p36
aS'economics'
p37
aS'programming'
p38
aS'analysis'
p39
aS'machine learning'
p40
aS'r'
aS'linear algebra'
p41
aS'data analytics'
p42
asS'working-year'
p43
(lp44
V(2, 5]
p45
asS'major'
p46
(lp47
S'engineering science'
p48
aS'communication'
p49
aS'finance'
p50
aS'big data'
p51
aS'science'
p52
aS'data science'
p53
aS'economics'
p54
aS'statistic'
p55
aS'machine learning'
p56
aS'business analytics'
p57
aS'analytics'
p58
aS'engineering'
p59
aS'design'
p60
aS'economics finance'
p61
aS'data mining'
p62
aS'advanced analytics'
p63
aS'phd'
p64
aS'business'
p65
aS'data analytics'
p66
aS'computer science'
p67
asS'education'
p68
(lp69
VBachelor
p70
aVMaster
p71
aVDoctor
p72
asS'responsibility'
p73
(lp74
S'development'
p75
aS'product'
p76
aS'predict'
p77
aS'presentation'
p78
aVinsight
p79
aS'communicate'
p80
aS'analysis'
p81
aS'statistical method'
p82
aS'design'
p83
aS'data mining'
p84
aS'understand'
p85
aS'modeling'
p86
aS'extract'
p87
aS'model'
p88
as.