(dp1
S'skills'
p2
(lp3
S'r d'
p4
aS'redis'
p5
aS'data science'
p6
aS'cluster'
p7
aS'engineering'
p8
aS'linux'
p9
aS'storage'
p10
aS'integration'
p11
aS'vertica'
p12
aS'fraud detection'
p13
aS'computer science'
p14
aS'intelligence'
p15
aS'apis'
p16
aS'python'
p17
aS'processing'
p18
aS'aws'
p19
aS'experimental design'
p20
aS'facebook'
p21
aS'data processing'
p22
aS'data'
p23
aS'bash'
p24
aS'fraud'
p25
aS'analytics'
p26
aS'science'
p27
aS'programming'
p28
aS'mapreduce'
p29
aS'analysis'
p30
aS'optimization'
p31
aS'advertising'
p32
aS'organization'
p33
aS'root'
p34
asS'working-year'
p35
(lp36
V(2, 5]
p37
asS'major'
p38
(lp39
S'science'
p40
aS'data science'
p41
aS'phd'
p42
aS'analytics'
p43
aS'engineering'
p44
aS'computer science engineering'
p45
aS'computer science'
p46
aS'statistic'
p47
aS'design'
p48
asS'education'
p49
(lp50
VDoctor
p51
asS'responsibility'
p52
(lp53
S'design'
p54
aS'processing'
p55
aVinsight
p56
aS'product'
p57
aS'analysis'
p58
aS'optimization'
p59
aS'understand'
p60
aS'product decision'
p61
aS'implement'
p62
aS'model'
p63
as.