(dp1
S'skills'
p2
(lp3
S'digital marketing'
p4
aS'design thinking'
p5
aS'english'
p6
aS'marketing'
p7
aS'innovation'
p8
aS'data scientist'
p9
aS'strategy'
p10
aS'strategic thinking'
p11
aS'analytics'
p12
aS'marketing strategy'
p13
aS'agile'
p14
aS'data'
p15
asS'working-year'
p16
(lp17
V[0]
p18
asS'major'
p19
(lp20
S'analytics'
p21
aS'marketing'
p22
aS'design'
p23
aS'marketing strategy'
p24
aS'english'
p25
asS'education'
p26
(lp27
S'Bachelor'
p28
asS'responsibility'
p29
(lp30
Vinsight
p31
aS'design'
p32
aS'transformation'
p33
aS'solve problem'
p34
as.