(dp1
S'skills'
p2
(lp3
S'characterization'
p4
aS'communication'
p5
aS'energy'
p6
aS'engineering'
p7
aS'search'
p8
aS'presentations'
p9
aS'laboratory'
p10
aS'nanofabrication'
p11
aS'insurance'
p12
aS'big data'
p13
aS'storage'
p14
aS'research'
p15
aS'matlab'
p16
aS'policy'
p17
aS'materials science'
p18
aS'biology'
p19
aS'theory'
p20
aS'python'
p21
aS'gas'
p22
aS'c'
aS'medicine'
p23
aS'nanomaterials'
p24
aS'organization'
p25
aS'data'
p26
aS'training'
p27
aS'science'
p28
aS'programming'
p29
aS'microscopy'
p30
aS'simulation'
p31
aS'materials'
p32
aS'algorithms'
p33
aS'spectroscopy'
p34
aS'electrical engineering'
p35
aS'chemistry'
p36
aS'physics'
p37
asS'working-year'
p38
(lp39
sS'major'
p40
(lp41
VBiological Engineering
p42
aVEngineering
p43
aVElectrical and Electronics Engineering
p44
aVPhysics
p45
aVChemical Engineering
p46
asS'education'
p47
(lp48
VDoctor
p49
asS'responsibility'
p50
(lp51
S'development'
p52
aS'information'
p53
aS'simulation'
p54
as.