(dp1
S'skills'
p2
(lp3
S'training'
p4
aS'management'
p5
aS'english'
p6
aS'data'
p7
aS'healthcare'
p8
aS'data scientist'
p9
aS'search'
p10
aS'time management'
p11
aS'hardware'
p12
aS'engineering'
p13
aS'facebook'
p14
aS'innovation'
p15
aS'organization'
p16
aS'electronics'
p17
aS'research'
p18
aS'start-ups'
p19
aS'project management'
p20
asS'working-year'
p21
(lp22
V(5, 10]
p23
aV(2, 5]
p24
asS'major'
p25
(lp26
S'information'
p27
aS'management'
p28
aS'business'
p29
aS'english'
p30
aS'engineering'
p31
aS'phd'
p32
aS'computer engineering'
p33
aS'design'
p34
aS'mechanical'
p35
aS'electrical'
p36
aS'electronics'
p37
aS'electrical computer engineering'
p38
aS'project management'
p39
asS'education'
p40
(lp41
VDoctor
p42
asS'responsibility'
p43
(lp44
S'development'
p45
aS'information'
p46
aS'product'
p47
aS'design'
p48
aS'recommendation'
p49
aS'interface'
p50
as.