(dp1
S'skills'
p2
(lp3
S'nlp'
p4
aS'aws'
p5
aS'java'
p6
aS'big data'
p7
aS'scala'
p8
aS'python'
p9
aS'science'
p10
aS'data science'
p11
aS'testing'
p12
aS'data scientist'
p13
aS'analysis'
p14
aS'machine learning'
p15
aS'analytics'
p16
aS'computer vision'
p17
aS'r'
aS'statistical analysis'
p18
aS'data'
p19
aS'optimization'
p20
asS'working-year'
p21
(lp22
V[0]
p23
asS'major'
p24
(lp25
S'science'
p26
aS'analytics'
p27
aS'data science'
p28
aS'big data'
p29
aS'machine learning'
p30
asS'education'
p31
(lp32
VMaster
p33
asS'responsibility'
p34
(lp35
S'product'
p36
aS'optimization'
p37
aS'model'
p38
aS'analysis'
p39
as.