(dp1
S'skills'
p2
(lp3
S'insurance'
p4
aS'problem solving'
p5
aS'nosql'
p6
aS'scikit-learn'
p7
aS'energy'
p8
aS'communication'
p9
aS'analytics'
p10
aS'engineering'
p11
aS'data analysis'
p12
aS'research'
p13
aS'hbase'
p14
aS'django'
p15
aS'd3'
p16
aS'visualization'
p17
aS'statistics'
p18
aS'probability'
p19
aS'critical thinking'
p20
aS'hadoop'
p21
aS'd3.js'
p22
aS'database design'
p23
aS'html'
p24
aS'computer science'
p25
aS'natural language processing'
p26
aS'advanced analytics'
p27
aS'mathematics'
p28
aS'military'
p29
aS'numpy'
p30
aS'css'
p31
aS'algorithm development'
p32
aS'processing'
p33
aS'apis'
p34
aS'python'
p35
aS'javascript'
p36
aS'data scientist'
p37
aS'matplotlib'
p38
aS'scipy'
p39
aS'facebook'
p40
aS'sql'
p41
aS'spark'
p42
aS'data'
p43
aS'organization'
p44
aVbayesian method
p45
aS'science'
p46
aS'applied mathematics'
p47
aS'programming'
p48
aS'analysis'
p49
aS'machine learning'
p50
aVpanda
p51
aS'flask'
p52
aS'r'
aS'electrical engineering'
p53
aS'physics'
p54
asS'working-year'
p55
(lp56
V(5, 10]
p57
aV(10, 15]
p58
asS'major'
p59
(lp60
VStatistics
p61
aVBusiness
p62
aVData Science
p63
aVElectrical and Electronics Engineering
p64
aVEngineering
p65
aVComputer Science
p66
aVMathematics
p67
aVPhysics
p68
asS'education'
p69
(lp70
VMaster
p71
aVDoctor
p72
asS'responsibility'
p73
(lp74
S'development'
p75
aS'information'
p76
aS'product'
p77
aS'data analysis'
p78
aS'develop ... system'
p79
aS'design ... experiment'
p80
aS'processing'
p81
aS'analysis'
p82
aS'develop ... model'
p83
aS'design'
p84
aS'ownership'
p85
aS'report'
p86
aS'model'
p87
aS'prototype'
p88
aS'presentation'
p89
aS'decision making'
p90
as.