(dp1
S'skills'
p2
(lp3
S'consulting'
p4
aS'nosql'
p5
aS'intellectual property'
p6
aS'storage'
p7
aS'regression'
p8
aS'analytics'
p9
aS'statistical analysis'
p10
aS'data mining'
p11
aS'mathematical modeling'
p12
aS'strategy'
p13
aS'quantitative analysis'
p14
aS'insurance'
p15
aS'business modeling'
p16
aS'it strategy'
p17
aS'clustering'
p18
aS'java'
p19
aS'probability'
p20
aS'big data'
p21
aS'scala'
p22
aS'solr'
p23
aS'predictive modeling'
p24
aS'excel'
p25
aS'hadoop'
p26
aS'writing'
p27
aS'vertica'
p28
aS'natural language processing'
p29
aS'mathematics'
p30
aS'algorithm development'
p31
aS'theory'
p32
aS'government'
p33
aS'python'
p34
aS'processing'
p35
aS'data scientist'
p36
aS'business process'
p37
aS'sql'
p38
aS'apache'
p39
aS'modeling'
p40
aS'data'
p41
aS'search'
p42
aS'svm'
p43
aS'solver'
p44
aS'analysis'
p45
aS'machine learning'
p46
aS'lucene'
p47
aS'optimization'
p48
aS'organization'
p49
aS'probability theory'
p50
aS'data analytics'
p51
asS'working-year'
p52
(lp53
V(2, 5]
p54
asS'major'
p55
(lp56
S'it strategy'
p57
aS'big data'
p58
aS'data mining'
p59
aS'statistic'
p60
aS'machine learning'
p61
aS'business'
p62
aS'analytics'
p63
aS'natural language processing'
p64
aS'mathematics'
p65
aS'data analytics'
p66
asS'education'
p67
(lp68
S'Bachelor'
p69
asS'responsibility'
p70
(lp71
S'development'
p72
aS'product'
p73
aS'quantitative analysis'
p74
aS'processing'
p75
aS'analysis'
p76
aS'analytic'
p77
aS'optimization'
p78
aS'understand'
p79
aS'data mining'
p80
aS'modeling'
p81
aS'presentation'
p82
as.