(dp1
S'skills'
p2
(lp3
S'cognos'
p4
aS'problem solving'
p5
aS'communication'
p6
aS'data science'
p7
aS'sales'
p8
aS'analytics'
p9
aS'business intelligence'
p10
aS'go'
p11
aS'sas'
p12
aS'visualization'
p13
aS'management'
p14
aS'customer retention'
p15
aS'governance'
p16
aS'strategy'
p17
aS'teamwork'
p18
aS'intelligence'
p19
aS'electronics'
p20
aS'data analysis'
p21
aS'finance'
p22
aS'marketing'
p23
aS'innovation'
p24
aS'data scientist'
p25
aS'leadership'
p26
aS'aerospace'
p27
aS'manufacturing'
p28
aS'data'
p29
aS'customer experience'
p30
aS'financial analysis'
p31
aS'erp'
p32
aS'data visualization'
p33
aS'science'
p34
aS'economics'
p35
aS'thought leadership'
p36
aS'analysis'
p37
aS'r'
aS'crm'
p38
asS'working-year'
p39
(lp40
V(2, 5]
p41
asS'major'
p42
(lp43
VData Science
p44
aVEconomics
p45
aVInformation Science
p46
aVBusiness
p47
aVManagement Science and Engineering
p48
asS'education'
p49
(lp50
VBachelor
p51
asS'responsibility'
p52
(lp53
S'product leadership'
p54
aS'information'
p55
aS'product'
p56
aS'data analysis'
p57
aS'insight'
p58
aS'analysis'
p59
aS'implement'
p60
aS'model'
p61
as.