(dp1
S'skills'
p2
(lp3
S'integration'
p4
aS'consulting'
p5
aS'r d'
p6
aS'nosql'
p7
aS'communication'
p8
aS'data science'
p9
aS'data acquisition'
p10
aS'hadoop'
p11
aS'database administration'
p12
aS'analytics'
p13
aS'engineering'
p14
aS'open source'
p15
aS'big data'
p16
aS'agile'
p17
aS'redis'
p18
aS'outsourcing'
p19
aS'governance'
p20
aS'strategy'
p21
aS'access'
p22
aS'etl'
p23
aS'optimization'
p24
aS'computer science'
p25
aS'data modeling'
p26
aS'database design'
p27
aS'processing'
p28
aS'data scientist'
p29
aS'html5'
p30
aS'data processing'
p31
aS'modeling'
p32
aS'data'
p33
aS'node.js'
p34
aS'c'
aS'cloudera'
p35
aS'software engineering'
p36
aS'science'
p37
aS'.net'
p38
aS'machine learning'
p39
aS'r'
aS'architecture'
p40
aS'data integration'
p41
asS'working-year'
p42
(lp43
V(5, 10]
p44
aV(2, 5]
p45
asS'major'
p46
(lp47
S'business'
p48
aS'big data'
p49
aS'business administration'
p50
aS'science'
p51
aS'data science'
p52
aS'software engineering'
p53
aS'machine learning'
p54
aS'analytics'
p55
aS'engineering'
p56
aS'computer science software engineering'
p57
aS'computer science'
p58
aS'communication'
p59
aS'design'
p60
asS'education'
p61
(lp62
S'Bachelor'
p63
asS'responsibility'
p64
(lp65
S'development'
p66
aS'large data set'
p67
aS'product'
p68
aS'formulate'
p69
aS'pattern'
p70
aS'processing'
p71
aS'optimization'
p72
aS'design'
p73
aS'report'
p74
aS'modeling'
p75
as.