(dp1
S'skills'
p2
(lp3
S'supply chain'
p4
aS'r d'
p5
aS'product development'
p6
aS'healthcare'
p7
aS'marketing'
p8
aS'energy'
p9
aS'predictive modeling'
p10
aS'data scientist'
p11
aS'innovation'
p12
aS'machine learning'
p13
aS'water'
p14
aS'analytics'
p15
aS'engineering'
p16
aS'r'
aS'facebook'
p17
aS'data mining'
p18
aS'modeling'
p19
aS'research'
p20
aS'data'
p21
aS'data analytics'
p22
aS'science'
p23
asS'working-year'
p24
(lp25
V[0]
p26
asS'major'
p27
(lp28
S'science'
p29
aS'information'
p30
aS'business'
p31
aS'marketing'
p32
aS'machine learning'
p33
aS'analytics'
p34
aS'engineering'
p35
aS'design'
p36
aS'data mining'
p37
aS'data analytics'
p38
aS'data mining machine learning'
p39
asS'education'
p40
(lp41
S'Bachelor'
p42
asS'responsibility'
p43
(lp44
S'development'
p45
aS'information'
p46
aS'product'
p47
aS'test model'
p48
aS'analytic'
p49
aS'design'
p50
aS'data mining'
p51
aS'modeling'
p52
aS'implement'
p53
aS'model'
p54
as.