(dp1
S'skills'
p2
(lp3
S'data science'
p4
aS'analytics'
p5
aS'engineering'
p6
aS'pricing'
p7
aS'problem solving'
p8
aS'go'
p9
aS'education'
p10
aS'insurance'
p11
aS'management'
p12
aS'research'
p13
aS'innovation'
p14
aS'mathematics'
p15
aS'energy'
p16
aS'automotive'
p17
aS'collaboration'
p18
aS'processing'
p19
aS'leadership development'
p20
aS'c'
aS'leadership'
p21
aS'data'
p22
aS'training'
p23
aS'science'
p24
aS'architecture'
p25
asS'working-year'
p26
(lp27
V(5, 10]
p28
aV(2, 5]
p29
asS'major'
p30
(lp31
S'information'
p32
aS'management'
p33
aS'business'
p34
aS'analytics'
p35
aS'science'
p36
aS'data science'
p37
aS'mathematics statistics'
p38
aS'engineering'
p39
aS'design'
p40
aS'statistic'
p41
aS'mathematics'
p42
asS'education'
p43
(lp44
VBachelor
p45
asS'responsibility'
p46
(lp47
S'development'
p48
aS'information'
p49
aS'product'
p50
aS'processing'
p51
aS'predict'
p52
aVinsight
p53
aS'communicate'
p54
aS'analytic'
p55
aS'design'
p56
aS'report'
p57
aS'understand'
p58
aS'model'
p59
as.