(dp1
S'skills'
p2
(lp3
S'r d'
p4
aS'data science'
p5
aS'analytics'
p6
aS'engineering'
p7
aS'pricing'
p8
aS'problem solving'
p9
aS'go'
p10
aS'education'
p11
aS'insurance'
p12
aS'management'
p13
aS'research'
p14
aS'innovation'
p15
aS'mathematics'
p16
aS'energy'
p17
aS'automotive'
p18
aS'collaboration'
p19
aS'processing'
p20
aS'leadership development'
p21
aS'c'
aS'leadership'
p22
aS'data'
p23
aS'training'
p24
aS'science'
p25
aS'architecture'
p26
asS'working-year'
p27
(lp28
V(5, 10]
p29
aV(2, 5]
p30
asS'major'
p31
(lp32
S'information'
p33
aS'management'
p34
aS'business'
p35
aS'analytics'
p36
aS'science'
p37
aS'data science'
p38
aS'mathematics statistics'
p39
aS'engineering'
p40
aS'design'
p41
aS'statistic'
p42
aS'mathematics'
p43
asS'education'
p44
(lp45
VBachelor
p46
asS'responsibility'
p47
(lp48
S'development'
p49
aS'information'
p50
aS'product'
p51
aS'processing'
p52
aS'predict'
p53
aVinsight
p54
aS'communicate'
p55
aS'analytic'
p56
aS'design'
p57
aS'report'
p58
aS'understand'
p59
aS'model'
p60
as.