(dp1
S'skills'
p2
(lp3
S'r d'
p4
aS'analytics'
p5
aS'education'
p6
aS'management'
p7
aS'integration'
p8
aS'access'
p9
aS'computer science'
p10
aS'innovation'
p11
aS'data management'
p12
aS'pyspark'
p13
aS'python'
p14
aS'data scientist'
p15
aS'data quality'
p16
aS'sql'
p17
aS'modeling'
p18
aS'data'
p19
aS'information technology'
p20
aS'training'
p21
aS'data collection'
p22
aS'science'
p23
aS'economics'
p24
aS'programming'
p25
aS'analysis'
p26
aS'r'
aS'architecture'
p27
asS'working-year'
p28
(lp29
V(2, 5]
p30
asS'major'
p31
(lp32
S'information'
p33
aS'management'
p34
aS'business'
p35
aS'statistics economics'
p36
aS'science'
p37
aS'economics'
p38
aS'computer science statistics'
p39
aS'analytics'
p40
aS'design'
p41
aS'computer science'
p42
aS'statistic'
p43
aS'ee computer science'
p44
aS'information technology'
p45
asS'education'
p46
(lp47
VBachelor
p48
aVMaster
p49
asS'responsibility'
p50
(lp51
S'information'
p52
aS'data collection'
p53
aVinsight
p54
aS'analysis'
p55
aS'statistical method'
p56
aS'model'
p57
aS'design'
p58
aS'report'
p59
aS'modeling'
p60
aS'implement'
p61
aS'data gathering'
p62
as.