(dp1
S'skills'
p2
(lp3
S'r d'
p4
aS'communication'
p5
aS'data warehousing'
p6
aS'experimentation'
p7
aS'management'
p8
aS'clinical trials'
p9
aS'clinical development'
p10
aS'governance'
p11
aS'research'
p12
aS'innovation'
p13
aS'policy'
p14
aS'data management'
p15
aS'clinical research'
p16
aS'data scientist'
p17
aS'leadership'
p18
aS'mentoring'
p19
aS'data'
p20
aS'statistical programming'
p21
aS'fda'
p22
aS'training'
p23
aS'data collection'
p24
aS'science'
p25
aS'programming'
p26
aS'validation'
p27
asS'working-year'
p28
(lp29
V(5, 10]
p30
asS'major'
p31
(lp32
S'communication'
p33
aS'statistical science'
p34
aS'management'
p35
aS'design'
p36
aS'science'
p37
asS'education'
p38
(lp39
VBachelor
p40
aVMaster
p41
asS'responsibility'
p42
(lp43
S'development'
p44
aS'product'
p45
aS'data collection'
p46
aS'mapping'
p47
aS'improvement'
p48
aS'design'
p49
aS'implement'
p50
aS'presentation'
p51
as.