(dp1
S'skills'
p2
(lp3
S'web development'
p4
aS'communication'
p5
aS'energy'
p6
aS'testing'
p7
aS'due diligence'
p8
aS'rest'
p9
aS'software design'
p10
aS'engineering'
p11
aS'unit testing'
p12
aS'problem solving'
p13
aS'mysql'
p14
aS'technical leadership'
p15
aS'java'
p16
aS'agile'
p17
aS'servlets'
p18
aS'integration'
p19
aS'writing'
p20
aS'spring framework'
p21
aS'weblogic'
p22
aS'computer science'
p23
aS'spring'
p24
aS'soap'
p25
aS'css'
p26
aS'a'
aS'hibernate'
p27
aS'transportation'
p28
aS'finance'
p29
aS'scrum'
p30
aS'leadership development'
p31
aS'scalability'
p32
aS'automation'
p33
aS'maven'
p34
aS'leadership'
p35
aS'jsp'
p36
aS'html5'
p37
aS'sql'
p38
aS'apache'
p39
aS'manufacturing'
p40
aS'data'
p41
aS'software development'
p42
aS'jquery'
p43
aS'j2ee'
p44
aS'design patterns'
p45
aS'tomcat'
p46
aS'software engineering'
p47
aS'science'
p48
aS'programming'
p49
aS'analysis'
p50
aS'technical analysis'
p51
aS'credit'
p52
aS'mvc'
p53
aS'architecture'
p54
aS'healthcare'
p55
aS'oracle'
p56
aS'mentoring'
p57
aS'architectures'
p58
asS'working-year'
p59
(lp60
V(5, 10]
p61
aV(2, 5]
p62
asS'major'
p63
(lp64
VEngineering
p65
aVEconomics
p66
aVComputer Science
p67
aVBusiness
p68
asS'education'
p69
(lp70
VBachelor
p71
aVMaster
p72
aVDoctor
p73
asS'responsibility'
p74
(lp75
S'development'
p76
aS'information'
p77
aS'product'
p78
aS'due diligence'
p79
aS'analysis'
p80
aS'understand'
p81
aS'interface'
p82
aS'design'
p83
aS'implement'
p84
as.