(dp1
S'skills'
p2
(lp3
S'intelligence'
p4
aS'energy'
p5
aS'business intelligence'
p6
aS'process improvement'
p7
aS'user experience'
p8
aS'recruiting'
p9
aS'hadoop'
p10
aS'policy'
p11
aS'data science'
p12
aS'data analysis'
p13
aS'python'
p14
aS'marketing'
p15
aS'product design'
p16
aS'sql'
p17
aS'spark'
p18
aS'data'
p19
aS'engineering'
p20
aS'customer experience'
p21
aS'software development'
p22
aS'science'
p23
aS'consumer insights'
p24
aS'mapreduce'
p25
aS'analysis'
p26
aS'unstructured data'
p27
aS'r'
aS'scripting'
p28
aS'crm'
p29
asS'working-year'
p30
(lp31
V(2, 5]
p32
asS'major'
p33
(lp34
VData Science
p35
aVEconomics
p36
aVEngineering
p37
aVBusiness
p38
asS'education'
p39
(lp40
S'Bachelor'
p41
asS'responsibility'
p42
(lp43
S'development'
p44
aS'information'
p45
aS'product'
p46
aS'data analysis'
p47
aS'insight'
p48
aS'analysis'
p49
aS'improvement'
p50
aS'understand'
p51
aS'design'
p52
as.