(dp1
S'skills'
p2
(lp3
S'supply chain'
p4
aS'data science'
p5
aS'analytics'
p6
aS'data mining'
p7
aS'visualization'
p8
aS'big data'
p9
aS'tableau'
p10
aS'coaching'
p11
aS'mathematics'
p12
aS'technical training'
p13
aS'data analysis'
p14
aS'product development'
p15
aS'python'
p16
aS'marketing'
p17
aS'leadership'
p18
aS'mentoring'
p19
aS'manufacturing'
p20
aS'data'
p21
aS'training'
p22
aS'data visualization'
p23
aS'science'
p24
aS'analysis'
p25
aS'simulation'
p26
aS'r'
aS'customer support'
p27
asS'working-year'
p28
(lp29
V[0]
p30
asS'major'
p31
(lp32
S'business'
p33
aS'big data'
p34
aS'marketing'
p35
aS'data science'
p36
aS'data mining'
p37
aS'analytics'
p38
aS'statistic'
p39
aS'mathematics'
p40
aS'science'
p41
asS'education'
p42
(lp43
VMaster
p44
aVDoctor
p45
asS'responsibility'
p46
(lp47
S'development'
p48
aS'product'
p49
aS'data analysis'
p50
aS'recommendation'
p51
aS'analysis'
p52
aS'simulation'
p53
aS'solve problem'
p54
aS'data mining'
p55
as.