(dp1
S'skills'
p2
(lp3
S'problem solving'
p4
aS'communication'
p5
aS'testing'
p6
aS'analytics'
p7
aS'statistical analysis'
p8
aS'go'
p9
aS'sas'
p10
aS'agile'
p11
aS'research'
p12
aS'teamwork'
p13
aS'computer science'
p14
aS'mathematics'
p15
aS'customer satisfaction'
p16
aS'data analysis'
p17
aS'data modeling'
p18
aS'product development'
p19
aS'data scientist'
p20
aS'sql'
p21
aS'technical documentation'
p22
aS'modeling'
p23
aS'data'
p24
aS'science'
p25
aS'documentation'
p26
aS'programming'
p27
aS'analysis'
p28
aS'machine learning'
p29
aS'healthcare'
p30
aS'cms'
p31
aS'etl'
p32
asS'working-year'
p33
(lp34
sS'major'
p35
(lp36
VMathematics
p37
aVData Science
p38
aVComputer Science
p39
aVBusiness
p40
asS'education'
p41
(lp42
VBachelor
p43
asS'responsibility'
p44
(lp45
S'development'
p46
aS'product'
p47
aS'data analysis'
p48
aS'documentation'
p49
aS'analysis'
p50
aS'analytic'
p51
aS'design'
p52
aS'modeling'
p53
aS'model'
p54
aS'extract'
p55
aS'transformation'
p56
as.