(dp1
S'skills'
p2
(lp3
S'business insights'
p4
aS'analytics'
p5
aS'engineering'
p6
aS'statistical analysis'
p7
aS'go'
p8
aS'education'
p9
aS'visualization'
p10
aS'management'
p11
aS'agile'
p12
aS'research'
p13
aS'sas'
p14
aS'innovation'
p15
aS'advanced analytics'
p16
aS'mathematics'
p17
aS'python'
p18
aS'data scientist'
p19
aS'business analytics'
p20
aS'sql'
p21
aS'modeling'
p22
aS'business transformation'
p23
aS'data'
p24
aS'information technology'
p25
aS'programming'
p26
aS'analysis'
p27
aS'r'
aS'algorithms'
p28
aS'data analytics'
p29
asS'working-year'
p30
(lp31
V(2, 5]
p32
asS'major'
p33
(lp34
VBusiness
p35
aVData Science
p36
aVEngineering
p37
aVInformation Science
p38
aVMathematics
p39
aVManagement Science and Engineering
p40
asS'education'
p41
(lp42
S'Bachelor'
p43
asS'responsibility'
p44
(lp45
S'development'
p46
aS'information'
p47
aS'product'
p48
aS'communicate'
p49
aS'data infrastructure'
p50
aS'pattern'
p51
aS'insight'
p52
aS'manage data'
p53
aS'analysis'
p54
aS'improvement'
p55
aS'analytic'
p56
aS'modeling'
p57
aS'implement'
p58
aS'transformation'
p59
as.