(dp1
S'skills'
p2
(lp3
S'.net'
p4
aS'problem solving'
p5
aS'communication'
p6
aS'testing'
p7
aS'analytics'
p8
aS'statistical analysis'
p9
aS'go'
p10
aS'sas'
p11
aS'agile'
p12
aS'research'
p13
aS'teamwork'
p14
aS'computer science'
p15
aS'mathematics'
p16
aS'customer satisfaction'
p17
aS'data analysis'
p18
aS'data modeling'
p19
aS'product development'
p20
aS'data scientist'
p21
aS'sql'
p22
aS'technical documentation'
p23
aS'modeling'
p24
aS'data'
p25
aS'science'
p26
aS'documentation'
p27
aS'programming'
p28
aS'analysis'
p29
aS'machine learning'
p30
aS'r'
aS'healthcare'
p31
aS'cms'
p32
aS'etl'
p33
asS'working-year'
p34
(lp35
V(5, 10]
p36
asS'major'
p37
(lp38
VMathematics
p39
aVData Science
p40
aVComputer Science
p41
aVBusiness
p42
asS'education'
p43
(lp44
VBachelor
p45
asS'responsibility'
p46
(lp47
S'development'
p48
aS'product'
p49
aS'data analysis'
p50
aS'documentation'
p51
aS'analysis'
p52
aS'analytic'
p53
aS'design'
p54
aS'modeling'
p55
aS'model'
p56
aS'extract'
p57
aS'transformation'
p58
as.