(dp1
S'skills'
p2
(lp3
S'qualitative research'
p4
aS'r d'
p5
aS'communication'
p6
aS'data science'
p7
aS'testing'
p8
aS'analytics'
p9
aS'survey methodology'
p10
aS'social sciences'
p11
aS'sociology'
p12
aS'genetics'
p13
aS'psychology'
p14
aS'questionnaire design'
p15
aS'management'
p16
aS'research'
p17
aS'market research'
p18
aS'statistical software'
p19
aS'survey research'
p20
aS'performance management'
p21
aS'government'
p22
aS'python'
p23
aS'data scientist'
p24
aS'performance measurement'
p25
aS'data quality'
p26
aS'survey design'
p27
aS'leadership'
p28
aS'editing'
p29
aS'data'
p30
aS'training'
p31
aS'data collection'
p32
aS'quantitative research'
p33
aS'eye tracking'
p34
aS'documentation'
p35
aS'analysis'
p36
aS'r'
aS'advertising'
p37
aS'science'
p38
aS'organization'
p39
aS'retail'
p40
asS'working-year'
p41
(lp42
V(2, 5]
p43
asS'major'
p44
(lp45
S'information'
p46
aS'management'
p47
aS'genetics'
p48
aS'psychology'
p49
aS'business'
p50
aS'science'
p51
aS'data science'
p52
aS'phd'
p53
aS'analytics'
p54
aS'sociology'
p55
aS'design'
p56
aS'communication'
p57
aS'survey methodology'
p58
asS'education'
p59
(lp60
VBachelor
p61
aVMaster
p62
aVDoctor
p63
asS'responsibility'
p64
(lp65
S'development'
p66
aS'information'
p67
aS'data collection'
p68
aS'explore opportunity'
p69
aS'documentation'
p70
aS'communicate'
p71
aS'analysis'
p72
aS'design'
p73
aS'report'
p74
aS'implement'
p75
aS'evaluation'
p76
as.