(dp1
S'skills'
p2
(lp3
S'sip'
p4
aS'r d'
p5
aS'theory'
p6
aS'management'
p7
aS'communication'
p8
aS'applied mathematics'
p9
aS'economics'
p10
aS'data scientist'
p11
aS'engineering'
p12
aS'product design'
p13
aS'executive management'
p14
aS'mathematics'
p15
aS'data'
p16
aS'collaboration'
p17
aS'philosophy'
p18
aS'finance'
p19
asS'working-year'
p20
(lp21
V[0]
p22
asS'major'
p23
(lp24
S'mathematics physics'
p25
aS'management'
p26
aS'economics'
p27
aS'finance'
p28
aS'business'
p29
aS'communication'
p30
aS'applied mathematics'
p31
aS'philosophy'
p32
aS'engineering'
p33
aS'design'
p34
aS'finance economics'
p35
aS'applied math'
p36
aS'mathematics'
p37
aVphysic
p38
asS'education'
p39
(lp40
VDoctor
p41
asS'responsibility'
p42
(lp43
S'development'
p44
aS'product'
p45
aS'prototype'
p46
aS'design'
p47
as.