(dp1
S'skills'
p2
(lp3
S'intelligence'
p4
aS'data science'
p5
aS'engineering'
p6
aS'natural language processing'
p7
aS'go'
p8
aS'research'
p9
aS'computer science'
p10
aS'innovation'
p11
aS'mathematics'
p12
aS'artificial intelligence'
p13
aS'philosophy'
p14
aS'transportation'
p15
aS'collaboration'
p16
aS'processing'
p17
aS'entrepreneurship'
p18
aS'leadership'
p19
aS'bioinformatics'
p20
aS'manufacturing'
p21
aS'data'
p22
aS'science'
p23
aS'machine learning'
p24
aS'banking'
p25
aS'teaching'
p26
aS'visual c'
p27
asS'working-year'
p28
(lp29
V[0]
p30
asS'major'
p31
(lp32
S'information'
p33
aS'mathematics computer science'
p34
aS'transportation'
p35
aS'computing'
p36
aS'science'
p37
aS'data science'
p38
aS'philosophy'
p39
aS'statistic'
p40
aS'entrepreneurship'
p41
aS'computer science artificial intelligence'
p42
aS'engineering'
p43
aS'natural language processing'
p44
aS'bioinformatics'
p45
aS'mathematics'
p46
aS'machine learning'
p47
aS'artificial intelligence'
p48
aS'computer science'
p49
asS'education'
p50
(lp51
VDoctor
p52
asS'responsibility'
p53
(lp54
S'information'
p55
aS'processing'
p56
aS'evaluation'
p57
as.