(dp1
S'skills'
p2
(lp3
S'training'
p4
aS'open source'
p5
aS'big data'
p6
aS'solver'
p7
aS'python'
p8
aS'agile'
p9
aS'linux'
p10
aS'advanced analytics'
p11
aS'apache spark'
p12
aS'hive'
p13
aS'hadoop'
p14
aS'analytics'
p15
aS'r'
aS'sql'
p16
aS'apache'
p17
aS'java'
p18
aS'spark'
p19
aS'education'
p20
aS'data'
p21
aS'hbase'
p22
asS'working-year'
p23
(lp24
V(2, 5]
p25
asS'major'
p26
(lp27
VData Science
p28
aVBusiness
p29
asS'education'
p30
(lp31
VBachelor
p32
asS'responsibility'
p33
(lp34
S'development'
p35
aS'analytic'
p36
aS'prototype'
p37
as.