(dp1
S'skills'
p2
(lp3
S'research design'
p4
aS'communication'
p5
aS'data science'
p6
aS'analytics'
p7
aS'engineering'
p8
aS'research'
p9
aS'team building'
p10
aS'predictive modeling'
p11
aS'saas'
p12
aS'strategy'
p13
aS'business planning'
p14
aS'computer science'
p15
aS'data scientist'
p16
aS'leadership'
p17
aS'mentoring'
p18
aS'modeling'
p19
aS'data'
p20
aS'software development'
p21
aS'science'
p22
aS'thought leadership'
p23
aS'machine learning'
p24
aS'architecture'
p25
aS'organization'
p26
asS'working-year'
p27
(lp28
V(2, 5]
p29
aV(10, 15]
p30
asS'major'
p31
(lp32
VData Science
p33
aVEngineering
p34
aVComputer Science
p35
aVBusiness
p36
asS'education'
p37
(lp38
VBachelor
p39
asS'responsibility'
p40
(lp41
S'development'
p42
aS'product'
p43
aS'decision-making'
p44
aS'drive ... decision'
p45
aS'design'
p46
aS'modeling'
p47
as.