(dp1
S'skills'
p2
(lp3
S'testing'
p4
aS'rest'
p5
aS'analytics'
p6
aS'api development'
p7
aS'virtualization'
p8
aS'data mining'
p9
aS'neo4j'
p10
aS'clustering'
p11
aS'java'
p12
aS'hadoop'
p13
aS'json'
p14
aS'computer science'
p15
aS'mathematics'
p16
aS'data scientist'
p17
aS'spark'
p18
aS'data'
p19
aS'software development'
p20
aS'c'
aS'c++'
p21
aS'machine learning'
p22
aS'credit'
p23
aS'r'
asS'working-year'
p24
(lp25
V(2, 5]
p26
asS'major'
p27
(lp28
S'statistic'
p29
aVapplied statistic
p30
aS'machine learning'
p31
aS'analytics'
p32
aS'computer science'
p33
aS'data mining'
p34
aS'mathematics'
p35
aS'development practice'
p36
aS'mathematics computer science'
p37
aS'data mining machine learning'
p38
asS'education'
p39
(lp40
S'Bachelor'
p41
asS'responsibility'
p42
(lp43
S'development'
p44
aS'product'
p45
aS'data mining'
p46
as.