(dp1
S'skills'
p2
(lp3
S'aws'
p4
aS'communication'
p5
aS'data science'
p6
aS'linux'
p7
aS'healthcare analytics'
p8
aS'analytics'
p9
aS'engineering'
p10
aS'data mining'
p11
aS'sas'
p12
aS'sas programming'
p13
aS'quantitative analysis'
p14
aS'regression'
p15
aS'management'
p16
aS'ehr'
p17
aS'predictive modeling'
p18
aS'education'
p19
aS'research'
p20
aS'computer science'
p21
aS'intelligence'
p22
aS'mathematics'
p23
aS'algorithm development'
p24
aS'data analysis'
p25
aS'product development'
p26
aS'python'
p27
aS'marketing'
p28
aS'innovation'
p29
aS'data scientist'
p30
aS'reinforcement learning'
p31
aS'leadership'
p32
aS'statistical modeling'
p33
aS'sql'
p34
aS'modeling'
p35
aS'spark'
p36
aS'data'
p37
aS'science'
p38
aS'cloud computing'
p39
aS'economics'
p40
aS'programming'
p41
aS'analysis'
p42
aS'machine learning'
p43
aS'healthcare'
p44
aS'product management'
p45
aS'organization'
p46
aS'data analytics'
p47
asS'working-year'
p48
(lp49
V(5, 10]
p50
aV(2, 5]
p51
asS'major'
p52
(lp53
VStatistics
p54
aVBusiness
p55
aVData Science
p56
aVEconomics
p57
aVEngineering
p58
aVComputer Science
p59
aVMathematics
p60
aVManagement Science and Engineering
p61
asS'education'
p62
(lp63
VMaster
p64
aVDoctor
p65
asS'responsibility'
p66
(lp67
S'development'
p68
aS'mine data'
p69
aS'data analysis'
p70
aS'business problem'
p71
aS'communicate'
p72
aS'product'
p73
aS'analysis'
p74
aS'analytic'
p75
aS'statistical method'
p76
aS'data mining'
p77
aS'modeling'
p78
aS'model'
p79
aS'quantitative analysis'
p80
as.