(dp1
S'skills'
p2
(lp3
S'oncology'
p4
aS'higher education'
p5
aS'proteomics'
p6
aS'data science'
p7
aS'cluster'
p8
aS'defense'
p9
aS'problem solving'
p10
aS'biomarker discovery'
p11
aS'education'
p12
aS'genomics'
p13
aS'management'
p14
aS'publishing'
p15
aS'deep learning'
p16
aS'government'
p17
aS'integration'
p18
aS'research'
p19
aS'computer science'
p20
aS'natural language processing'
p21
aS'intelligence'
p22
aS'biology'
p23
aS'visualization'
p24
aS'processing'
p25
aS'information visualization'
p26
aS'statistical modeling'
p27
aS'bioinformatics'
p28
aS'modeling'
p29
aS'data'
p30
aS'information technology'
p31
aS'software development'
p32
aS'pattern recognition'
p33
aS'science'
p34
aS'programming'
p35
aS'image analysis'
p36
aS'analysis'
p37
aS'machine learning'
p38
aS'architecture'
p39
aS'security'
p40
aS'data integration'
p41
asS'working-year'
p42
(lp43
V[0]
p44
asS'major'
p45
(lp46
S'information'
p47
aS'biology'
p48
aS'management'
p49
aS'business'
p50
aS'computing'
p51
aS'science'
p52
aS'data science'
p53
aS'natural language processing'
p54
aS'machine learning'
p55
aS'information system'
p56
aS'computer science'
p57
aS'bioinformatics'
p58
aS'information systems'
p59
aS'information technology'
p60
asS'education'
p61
(lp62
VDoctor
p63
asS'responsibility'
p64
(lp65
S'development'
p66
aS'information'
p67
aS'processing'
p68
aS'pattern'
p69
aVinsight
p70
aS'communicate'
p71
aS'analysis'
p72
aS'statistical model'
p73
aS'modeling'
p74
aS'implement'
p75
as.