(dp1
S'skills'
p2
(lp3
S'classification'
p4
aS'communication'
p5
aS'analytics'
p6
aS'engineering'
p7
aS'investment management'
p8
aS'statistical analysis'
p9
aS'problem solving'
p10
aS'data mining'
p11
aS'insurance'
p12
aS'clustering'
p13
aS'investment banking'
p14
aS'banking'
p15
aS'predictive modeling'
p16
aS'strategy'
p17
aS'matlab'
p18
aS'mathematics'
p19
aS'computer science'
p20
aS'finance'
p21
aS'government'
p22
aS'philosophy'
p23
aS'data scientist'
p24
aS'business analytics'
p25
aS'management'
p26
aS'algorithm design'
p27
aS'modeling'
p28
aS'data'
p29
aS'information technology'
p30
aS'fraud'
p31
aS'science'
p32
aS'analysis'
p33
aS'spss'
p34
aS'credit'
p35
aS'organization'
p36
aS'security'
p37
asS'working-year'
p38
(lp39
V[0]
p40
asS'major'
p41
(lp42
S'information'
p43
aS'management'
p44
aS'finance'
p45
aS'business'
p46
aS'analytics'
p47
aS'science'
p48
aS'philosophy'
p49
aS'statistic'
p50
aS'mathematics'
p51
aS'business analytics'
p52
aS'mathematics statistics'
p53
aS'engineering'
p54
aS'design'
p55
aS'computer science'
p56
aS'data mining'
p57
aS'communication'
p58
aS'computer science engineering'
p59
aS'ee computer science'
p60
aS'information technology'
p61
asS'education'
p62
(lp63
VDoctor
p64
asS'responsibility'
p65
(lp66
S'development'
p67
aS'large data set'
p68
aS'product'
p69
aS'information'
p70
aS'pattern'
p71
aS'data mining'
p72
aS'communicate'
p73
aS'analysis'
p74
aS'analytic'
p75
aS'statistical method'
p76
aS'design'
p77
aS'ownership'
p78
aS'recommendation'
p79
aS'report'
p80
aS'modeling'
p81
as.