(dp1
S'skills'
p2
(lp3
S'debugging'
p4
aS'networking'
p5
aS'r d'
p6
aS'processing'
p7
aS'intelligence'
p8
aS'linux'
p9
aS'intelligence analysis'
p10
aS'tcp'
p11
aS'analytics'
p12
aS'business intelligence'
p13
aS'defense'
p14
aS'analysis'
p15
aS'data mining'
p16
aS'research'
p17
aS'web 2.0'
p18
aS'xml'
p19
aS'visualization'
p20
aS'open source'
p21
aS'agile'
p22
aS'integration'
p23
aS'writing'
p24
aS'json'
p25
aS'computer science'
p26
aS'web services'
p27
aS'natural language processing'
p28
aS'advanced analytics'
p29
aS'unstructured data'
p30
aS'graph theory'
p31
aS'product development'
p32
aS'social network analysis'
p33
aS'javascript'
p34
aS'jsp'
p35
aS'ubuntu'
p36
aS'apache'
p37
aS'java'
p38
aS'data'
p39
aS'financial analysis'
p40
aS'data visualization'
p41
aS'risk assessment'
p42
aS'amazon ec2'
p43
aS'object oriented design'
p44
aS'c++'
p45
aS'machine learning'
p46
aS'r'
aS'architecture'
p47
aS'science'
p48
aS'tomcat'
p49
aS'security'
p50
aS'ec2'
p51
asS'working-year'
p52
(lp53
V(5, 10]
p54
aV(2, 5]
p55
asS'major'
p56
(lp57
S'graph theory'
p58
aS'business'
p59
aS'science'
p60
aS'data mining'
p61
aS'statistic'
p62
aS'machine learning'
p63
aS'analytics'
p64
aS'design'
p65
aS'computer science'
p66
aS'natural language processing'
p67
aS'advanced analytics'
p68
aS'general'
p69
aVphysic
p70
aS'data mining machine learning'
p71
asS'education'
p72
(lp73
VMaster
p74
asS'responsibility'
p75
(lp76
S'development'
p77
aS'product'
p78
aS'processing'
p79
aVinsight
p80
aS'recommendation'
p81
aS'construct'
p82
aS'design'
p83
aS'solve problem'
p84
aS'data mining'
p85
aS'analysis'
p86
as.