(dp1
S'skills'
p2
(lp3
S'nlp'
p4
aS'r d'
p5
aS'classification'
p6
aS'intelligence'
p7
aS'pig'
p8
aS'business intelligence'
p9
aS'hive'
p10
aS'data mining'
p11
aS'education'
p12
aS'nosql'
p13
aS'agile'
p14
aS'hadoop'
p15
aS'research'
p16
aS'natural language processing'
p17
aS'dimensional modeling'
p18
aS'data analysis'
p19
aS'distributed computing'
p20
aS'python'
p21
aS'mongodb'
p22
aS'processing'
p23
aS'data scientist'
p24
aS'data quality'
p25
aS'modeling'
p26
aS'translation'
p27
aS'data'
p28
aS'software development'
p29
aS'search'
p30
aS'cloudera'
p31
aS'hypothesis testing'
p32
aS'programming'
p33
aS'mapreduce'
p34
aS'analysis'
p35
aS'machine learning'
p36
aS'r'
aS'elasticsearch'
p37
aS'healthcare'
p38
aS'scripting'
p39
aS'statistical analysis'
p40
asS'working-year'
p41
(lp42
V(10, 15]
p43
asS'major'
p44
(lp45
S'business'
p46
aS'natural language processing'
p47
aS'phd'
p48
aS'design'
p49
aS'data mining'
p50
aS'machine learning'
p51
asS'education'
p52
(lp53
VMaster
p54
aVDoctor
p55
asS'responsibility'
p56
(lp57
S'development'
p58
aS'data analysis'
p59
aS'processing'
p60
aS'analysis'
p61
aS'design'
p62
aS'data mining'
p63
aS'modeling'
p64
aS'extract'
p65
as.