(dp1
S'skills'
p2
(lp3
S'r d'
p4
aS'classification'
p5
aS'communication'
p6
aS'analytics'
p7
aS'engineering'
p8
aS'investment management'
p9
aS'statistical analysis'
p10
aS'problem solving'
p11
aS'data mining'
p12
aS'education'
p13
aS'insurance'
p14
aS'clustering'
p15
aS'investment banking'
p16
aS'banking'
p17
aS'predictive modeling'
p18
aS'strategy'
p19
aS'matlab'
p20
aS'mathematics'
p21
aS'computer science'
p22
aS'finance'
p23
aS'government'
p24
aS'philosophy'
p25
aS'data scientist'
p26
aS'business analytics'
p27
aS'management'
p28
aS'algorithm design'
p29
aS'modeling'
p30
aS'data'
p31
aS'information technology'
p32
aS'fraud'
p33
aS'science'
p34
aS'analysis'
p35
aS'spss'
p36
aS'credit'
p37
aS'organization'
p38
aS'security'
p39
asS'working-year'
p40
(lp41
V[0]
p42
asS'major'
p43
(lp44
S'information'
p45
aS'management'
p46
aS'finance'
p47
aS'business'
p48
aS'analytics'
p49
aS'science'
p50
aS'philosophy'
p51
aS'statistic'
p52
aS'mathematics'
p53
aS'business analytics'
p54
aS'mathematics statistics'
p55
aS'engineering'
p56
aS'design'
p57
aS'computer science'
p58
aS'data mining'
p59
aS'communication'
p60
aS'computer science engineering'
p61
aS'ee computer science'
p62
aS'information technology'
p63
asS'education'
p64
(lp65
VBachelor
p66
aVDoctor
p67
asS'responsibility'
p68
(lp69
S'development'
p70
aS'large data set'
p71
aS'product'
p72
aS'information'
p73
aS'pattern'
p74
aS'data mining'
p75
aS'communicate'
p76
aS'analysis'
p77
aS'analytic'
p78
aS'statistical method'
p79
aS'design'
p80
aS'ownership'
p81
aS'recommendation'
p82
aS'report'
p83
aS'modeling'
p84
as.