(dp1
S'skills'
p2
(lp3
S'characterization'
p4
aS'renewable energy'
p5
aS'data science'
p6
aS'technical writing'
p7
aS'communication skills'
p8
aS'data mining'
p9
aS'laboratory'
p10
aS'research'
p11
aS'experimentation'
p12
aS'technical leadership'
p13
aS'management'
p14
aS'sustainable development'
p15
aS'storage'
p16
aS'integration'
p17
aS'writing'
p18
aS'communication'
p19
aS'policy'
p20
aS'energy'
p21
aS'theory'
p22
aS'biophysics'
p23
aS'presentations'
p24
aS'leadership'
p25
aS'energy efficiency'
p26
aS'informatics'
p27
aS'modeling'
p28
aS'data'
p29
aS'project management'
p30
aS'software development'
p31
aS'science'
p32
aS'education'
p33
aS'high performance computing'
p34
aS'simulation'
p35
aS'materials'
p36
aS'security'
p37
asS'working-year'
p38
(lp39
V(15, 20]
p40
aV(10, 15]
p41
asS'major'
p42
(lp43
VBiological Engineering
p44
aVData Science
p45
aVInformation Science
p46
aVComputer Science
p47
aVManagement Science and Engineering
p48
asS'education'
p49
(lp50
VBachelor
p51
aVMaster
p52
aVDoctor
p53
asS'responsibility'
p54
(lp55
S'development'
p56
aS'modeling'
p57
aS'information'
p58
aS'data mining'
p59
aS'simulation'
p60
as.