(dp1
S'skills'
p2
(lp3
S'software development'
p4
aS'consulting'
p5
aS'saas'
p6
aS'big data'
p7
aS'nosql'
p8
aS'marketing'
p9
aS'innovation'
p10
aS'data scientist'
p11
aS'integration'
p12
aS'business analytics'
p13
aS'analytics'
p14
aS'salesforce.com'
p15
aS'amazon redshift'
p16
aS'computer science'
p17
aS'science'
p18
aS'engineering'
p19
aS'sap'
p20
aS'data'
p21
aS'quality assurance'
p22
aS'data integration'
p23
aS'product marketing'
p24
asS'working-year'
p25
(lp26
V[0]
p27
asS'major'
p28
(lp29
S'information'
p30
aS'business'
p31
aS'big data'
p32
aS'marketing'
p33
aS'business analytics'
p34
aS'analytics'
p35
aS'engineering'
p36
aS'computer science'
p37
aS'science'
p38
asS'education'
p39
(lp40
S'Bachelor'
p41
asS'responsibility'
p42
(lp43
S'development'
p44
aS'information'
p45
aS'product'
p46
aS'communicate'
p47
as.