(dp1
S'skills'
p2
(lp3
S'spring'
p4
aS'testing'
p5
aS'rest'
p6
aS'unit testing'
p7
aS'linux'
p8
aS'xml'
p9
aS'management'
p10
aS'java'
p11
aS'agile'
p12
aS'excel'
p13
aS'integration'
p14
aS'research'
p15
aS'json'
p16
aS'project management'
p17
aS'sdlc'
p18
aS'innovation'
p19
aS'test planning'
p20
aS'junit'
p21
aS'software development life cycle sdlc'
p22
aS'hibernate'
p23
aS'product development'
p24
aS'mongodb'
p25
aS'javascript'
p26
aS'data scientist'
p27
aS'business process'
p28
aS'product design'
p29
aS'sql'
p30
aS'data'
p31
aS'b2b'
p32
aS'information technology'
p33
aS'software development'
p34
aS'search'
p35
aS'saas'
p36
aS'tomcat'
p37
aS'performance tuning'
p38
aS'analysis'
p39
aS'lucene'
p40
aS'solr'
p41
aS'scripting'
p42
aS'security'
p43
aS'application development'
p44
asS'working-year'
p45
(lp46
V(5, 10]
p47
asS'major'
p48
(lp49
VInformation Science
p50
aVBusiness
p51
aVManagement Science and Engineering
p52
asS'education'
p53
(lp54
S'Bachelor'
p55
asS'responsibility'
p56
(lp57
S'development'
p58
aS'information'
p59
aS'product'
p60
aS'analysis'
p61
aS'design'
p62
aS'implement'
p63
as.