(dp1
S'skills'
p2
(lp3
S'data analysis'
p4
aS'german'
p5
aS'data scientist'
p6
aS'analysis'
p7
aS'writing'
p8
aS'teamwork'
p9
aS'data'
p10
aS'experimentation'
p11
asS'working-year'
p12
(lp13
V[0]
p14
asS'major'
p15
(lp16
S'information'
p17
asS'education'
p18
(lp19
S'Bachelor'
p20
asS'responsibility'
p21
(lp22
S'development'
p23
aS'information'
p24
aS'data analysis'
p25
aS'understand'
p26
aS'analysis'
p27
as.