(dp1
S'skills'
p2
(lp3
S'nlp'
p4
aS'higher education'
p5
aS'data science'
p6
aS'sas'
p7
aS'spss'
p8
aS'xml'
p9
aS'statistics'
p10
aS'java'
p11
aS'deep learning'
p12
aS'predictive modeling'
p13
aS'education'
p14
aS'research'
p15
aS'json'
p16
aS'natural language processing'
p17
aS'android'
p18
aS'operations research'
p19
aS'python'
p20
aS'processing'
p21
aS'data scientist'
p22
aS'automation'
p23
aS'facebook'
p24
aS'informatics'
p25
aS'modeling'
p26
aS'data'
p27
aS'c'
aS'science'
p28
aS'machine learning'
p29
aS'r'
aS'architecture'
p30
aS'agile'
p31
aS'oracle'
p32
asS'working-year'
p33
(lp34
S'[0]'
p35
asS'major'
p36
(lp37
VStatistics
p38
aVBusiness
p39
aVData Science
p40
aVInformation Science
p41
aVComputer Science
p42
aVOperations Research
p43
asS'education'
p44
(lp45
VMaster
p46
aVDoctor
p47
asS'responsibility'
p48
(lp49
S'development'
p50
aS'processing'
p51
aS'insight'
p52
aS'design'
p53
aS'interface'
p54
aS'modeling'
p55
aS'implement'
p56
aS'model'
p57
as.