(dp1
S'skills'
p2
(lp3
S'consulting'
p4
aS'excel'
p5
aS'communication'
p6
aS'analytics'
p7
aS'business intelligence'
p8
aS'process improvement'
p9
aS'big data'
p10
aS'sharepoint'
p11
aS'sas enterprise guide'
p12
aS'tableau'
p13
aS'access'
p14
aS'computer science'
p15
aS'visio'
p16
aS'intelligence'
p17
aS'processing'
p18
aS'microsoft office'
p19
aS'innovation'
p20
aS'data scientist'
p21
aS'automation'
p22
aS'sql'
p23
aS'data'
p24
aS'science'
p25
aS'banking'
p26
aS'dashboard'
p27
aS'root'
p28
aS'powerpoint'
p29
aS'data analytics'
p30
asS'working-year'
p31
(lp32
V[0]
p33
asS'major'
p34
(lp35
S'information'
p36
aS'information systems'
p37
aS'business'
p38
aS'big data'
p39
aS'science'
p40
aS'automation'
p41
aS'analytics'
p42
aS'information system'
p43
aS'design'
p44
aS'computer science'
p45
aS'communication'
p46
aS'data analytics'
p47
asS'education'
p48
(lp49
S'Bachelor'
p50
asS'responsibility'
p51
(lp52
S'development'
p53
aS'information'
p54
aS'build dashboard'
p55
aS'processing'
p56
aS'improvement'
p57
aS'analytic'
p58
aS'design'
p59
aS'key decision'
p60
aS'recommendation'
p61
aS'understand'
p62
aS'implement'
p63
aS'model'
p64
as.