(dp1
S'skills'
p2
(lp3
S'research design'
p4
aS'classification'
p5
aS'scikit-learn'
p6
aS'analytics'
p7
aS'statistical analysis'
p8
aS'data mining'
p9
aS'clustering'
p10
aS'big data'
p11
aS'predictive modeling'
p12
aS'hadoop'
p13
aS'research'
p14
aS'r'
aS'python'
p15
aS'data scientist'
p16
aS'modeling'
p17
aS'data'
p18
aS'programming'
p19
aS'analysis'
p20
aS'machine learning'
p21
aS'optimization algorithms'
p22
aS'optimization'
p23
aS'algorithms'
p24
aS'data analytics'
p25
aS'predictive analytics'
p26
asS'working-year'
p27
(lp28
S'[0]'
p29
asS'major'
p30
(lp31
VData Science
p32
aVStatistics
p33
aVComputer Science
p34
asS'education'
p35
(lp36
VBachelor
p37
aVMaster
p38
asS'responsibility'
p39
(lp40
S'data mining'
p41
aS'development'
p42
aS'insight'
p43
aS'analysis'
p44
aS'analytic'
p45
aS'optimization'
p46
aS'design'
p47
aS'recommendation'
p48
aS'report'
p49
aS'modeling'
p50
aS'implement'
p51
as.