(dp1
S'skills'
p2
(lp3
S'digital marketing'
p4
aS'communication'
p5
aS'data science'
p6
aS'data mining'
p7
aS'analytics'
p8
aS'thought leadership'
p9
aS'trading'
p10
aS'analysis'
p11
aS'personalization'
p12
aS'digital analytics'
p13
aS'management'
p14
aS'big data'
p15
aS'strategy'
p16
aS'optimization'
p17
aS'innovation'
p18
aS'advanced analytics'
p19
aS'segmentation'
p20
aS'marketing'
p21
aS'data scientist'
p22
aS'leadership'
p23
aS'organization'
p24
aS'business development'
p25
aS'data'
p26
aS'project management'
p27
aS'word'
p28
aS'science'
p29
aS'marketing analytics'
p30
aS'communication skills'
p31
aS'data center'
p32
aS'r'
aS'customer acquisition'
p33
asS'working-year'
p34
(lp35
V(5, 10]
p36
aV(2, 5]
p37
aV(10, 15]
p38
asS'major'
p39
(lp40
VData Science
p41
aVEconomics
p42
aVComputer Science
p43
aVBusiness
p44
aVManagement Science and Engineering
p45
asS'education'
p46
(lp47
VBachelor
p48
aVMaster
p49
asS'responsibility'
p50
(lp51
S'development'
p52
aS'model'
p53
aS'decision-making'
p54
aS'analysis'
p55
aS'develop ... model'
p56
aS'analytic'
p57
aS'optimization'
p58
aS'data mining'
p59
aS'implement'
p60
aS'transformation'
p61
as.