(dp1
S'skills'
p2
(lp3
S'r d'
p4
aS'classification'
p5
aS'communication'
p6
aS'data science'
p7
aS'robotics'
p8
aS'mapreduce'
p9
aS'hardware'
p10
aS'unix'
p11
aS'ec2'
p12
aS'linux'
p13
aS'education'
p14
aS'image processing'
p15
aS'open source'
p16
aS'research'
p17
aS'opencv'
p18
aS'computer vision'
p19
aS'computer science'
p20
aS'mathematics'
p21
aS'operating systems'
p22
aS'segmentation'
p23
aS'artificial intelligence'
p24
aS'theory'
p25
aS'machine vision'
p26
aS'python'
p27
aS'aws'
p28
aS'collaboration'
p29
aS'processing'
p30
aS'data scientist'
p31
aS'gpu'
p32
aS'genetics'
p33
aS'data'
p34
aS'tensorflow'
p35
aS'engineering'
p36
aS'pattern recognition'
p37
aS'fluorescence'
p38
aS'science'
p39
aS'cloud computing'
p40
aS'programming'
p41
aS'image analysis'
p42
aS'analysis'
p43
aS'machine learning'
p44
aS'optimization'
p45
aS'architecture'
p46
aS'english'
p47
aS'electrical engineering'
p48
asS'working-year'
p49
(lp50
V(0, 2]
p51
asS'major'
p52
(lp53
S'genetics'
p54
aS'physics mathematics'
p55
aS'imaging science'
p56
aS'science'
p57
aS'data science'
p58
aS'robotics'
p59
aS'computer science computer engineering'
p60
aS'engineering'
p61
aS'computing'
p62
aS'machine learning'
p63
aS'mathematics'
p64
aS'computer engineering'
p65
aS'design'
p66
aS'artificial intelligence'
p67
aS'phd'
p68
aS'english'
p69
aS'communication'
p70
aS'electrical engineering'
p71
aS'electrical'
p72
aVphysic
p73
aS'computer science'
p74
asS'education'
p75
(lp76
VDoctor
p77
asS'responsibility'
p78
(lp79
S'pattern'
p80
aS'processing'
p81
aS'analysis'
p82
aS'optimization'
p83
aS'design'
p84
aS'implement'
p85
aS'prototype'
p86
as.