(dp1
S'skills'
p2
(lp3
S'consulting'
p4
aS'r d'
p5
aS'go'
p6
aS'research'
p7
aS'quantitative analysis'
p8
aS'visualization'
p9
aS'management'
p10
aS'excel'
p11
aS'time management'
p12
aS'market research'
p13
aS'innovation'
p14
aS'mathematics'
p15
aS'survey research'
p16
aS'marketing'
p17
aS'data scientist'
p18
aS'modeling'
p19
aS'data'
p20
aS'project management'
p21
aS'customer experience'
p22
aS'word'
p23
aS'data visualization'
p24
aS'science'
p25
aS'documentation'
p26
aS'education'
p27
aS'analysis'
p28
aS'spss'
p29
aS'organization'
p30
aS'powerpoint'
p31
asS'working-year'
p32
(lp33
V[0]
p34
asS'major'
p35
(lp36
S'management'
p37
aS'business'
p38
aS'marketing'
p39
aS'science'
p40
aS'mathematics'
p41
aS'project management'
p42
asS'education'
p43
(lp44
VBachelor
p45
asS'responsibility'
p46
(lp47
S'product'
p48
aS'documentation'
p49
aS'presentation'
p50
aVinsight
p51
aS'analysis'
p52
aS'recommendation'
p53
aS'report'
p54
aS'modeling'
p55
aS'quantitative analysis'
p56
as.