(dp1
S'skills'
p2
(lp3
S'survival analysis'
p4
aS'r d'
p5
aS'teamwork'
p6
aS'communication'
p7
aS'eviews'
p8
aS'grid computing'
p9
aS'analytics'
p10
aS'pricing'
p11
aS'data mining'
p12
aS'go'
p13
aS'econometrics'
p14
aS'qlikview'
p15
aS'visualization'
p16
aS'management'
p17
aS'big data'
p18
aS'tableau'
p19
aS'research'
p20
aS'market research'
p21
aS'optimization'
p22
aS'statistical software'
p23
aS'matlab'
p24
aS'stata'
p25
aS'innovation'
p26
aS'microeconomics'
p27
aS'mathematics'
p28
aS'computer science'
p29
aS'teradata'
p30
aS'theory'
p31
aS'conjoint analysis'
p32
aS'marketing'
p33
aS'collaboration'
p34
aS'data scientist'
p35
aS'industrial organization'
p36
aS'automotive'
p37
aS'sql'
p38
aS'modeling'
p39
aS'data'
p40
aS'data visualization'
p41
aS'science'
p42
aS'economics'
p43
aS'programming'
p44
aS'analysis'
p45
aS'machine learning'
p46
aS'r'
aVbayesian statistic
p47
aS'organization'
p48
aS'microsoft office'
p49
aS'game theory'
p50
aS'statistical analysis'
p51
asS'working-year'
p52
(lp53
V(2, 5]
p54
asS'major'
p55
(lp56
S'statistics computer science'
p57
aS'management'
p58
aS'physics mathematics'
p59
aS'big data'
p60
aS'analytics'
p61
aS'marketing'
p62
aS'economics'
p63
aS'applied econometrics'
p64
aS'statistic'
p65
aS'machine learning'
p66
aS'business'
p67
aS'mathematics statistics'
p68
aS'computing'
p69
aS'computer science'
p70
aS'data mining'
p71
aS'communication'
p72
aS'mathematics'
p73
aS'econometrics'
p74
aVphysic
p75
aS'science'
p76
asS'education'
p77
(lp78
VMaster
p79
aVDoctor
p80
asS'responsibility'
p81
(lp82
S'development'
p83
aS'product'
p84
aS'develop model'
p85
aS'formulate'
p86
aS'business problem'
p87
aVinsight
p88
aS'communicate'
p89
aS'analysis'
p90
aS'analytic'
p91
aS'optimization'
p92
aS'data mining'
p93
aS'report'
p94
aS'modeling'
p95
aS'model'
p96
as.