(dp1
S'skills'
p2
(lp3
S'survival analysis'
p4
aS'teamwork'
p5
aS'communication'
p6
aS'eviews'
p7
aS'grid computing'
p8
aS'analytics'
p9
aS'pricing'
p10
aS'data mining'
p11
aS'go'
p12
aS'econometrics'
p13
aS'qlikview'
p14
aS'visualization'
p15
aS'management'
p16
aS'big data'
p17
aS'tableau'
p18
aS'research'
p19
aS'market research'
p20
aS'optimization'
p21
aS'statistical software'
p22
aS'matlab'
p23
aS'stata'
p24
aS'innovation'
p25
aS'microeconomics'
p26
aS'mathematics'
p27
aS'computer science'
p28
aS'teradata'
p29
aS'theory'
p30
aS'conjoint analysis'
p31
aS'marketing'
p32
aS'collaboration'
p33
aS'industrial organization'
p34
aS'automotive'
p35
aS'sql'
p36
aS'modeling'
p37
aS'data'
p38
aS'data visualization'
p39
aS'science'
p40
aS'economics'
p41
aS'programming'
p42
aS'analysis'
p43
aS'machine learning'
p44
aS'r'
aVbayesian statistic
p45
aS'organization'
p46
aS'microsoft office'
p47
aS'game theory'
p48
aS'statistical analysis'
p49
asS'working-year'
p50
(lp51
V(2, 5]
p52
asS'major'
p53
(lp54
S'statistics computer science'
p55
aS'management'
p56
aS'physics mathematics'
p57
aS'big data'
p58
aS'analytics'
p59
aS'marketing'
p60
aS'economics'
p61
aS'applied econometrics'
p62
aS'statistic'
p63
aS'machine learning'
p64
aS'business'
p65
aS'mathematics statistics'
p66
aS'computing'
p67
aS'computer science'
p68
aS'data mining'
p69
aS'communication'
p70
aS'mathematics'
p71
aS'econometrics'
p72
aVphysic
p73
aS'science'
p74
asS'education'
p75
(lp76
VMaster
p77
aVDoctor
p78
asS'responsibility'
p79
(lp80
S'development'
p81
aS'product'
p82
aS'develop model'
p83
aS'formulate'
p84
aS'business problem'
p85
aVinsight
p86
aS'communicate'
p87
aS'analysis'
p88
aS'analytic'
p89
aS'optimization'
p90
aS'data mining'
p91
aS'report'
p92
aS'modeling'
p93
aS'model'
p94
as.