(dp1
S'skills'
p2
(lp3
S'nosql'
p4
aS'communication'
p5
aS'sqoop'
p6
aS'pig'
p7
aS'analytics'
p8
aS'engineering'
p9
aS'go'
p10
aS'hdfs'
p11
aS'management'
p12
aS'big data'
p13
aS'computer science'
p14
aS'flume'
p15
aS'alteryx'
p16
aS'data scientist'
p17
aS'oozie'
p18
aS'spark'
p19
aS'data'
p20
aS'project management'
p21
aS'science'
p22
aS'mapreduce'
p23
aS'hive'
p24
aS'data engineering'
p25
aS'r'
aS'organization'
p26
asS'working-year'
p27
(lp28
V(0, 2]
p29
aV(2, 5]
p30
asS'major'
p31
(lp32
S'information'
p33
aS'management'
p34
aS'big data'
p35
aS'science'
p36
aS'information systems'
p37
aS'analytics'
p38
aS'engineering'
p39
aS'information system'
p40
aS'computer science engineering'
p41
aS'computer science'
p42
aS'communication'
p43
aS'ee computer science'
p44
aS'project management'
p45
asS'education'
p46
(lp47
VBachelor
p48
aVMaster
p49
asS'responsibility'
p50
(lp51
S'report'
p52
aS'analytic'
p53
aS'information'
p54
as.