(dp1
S'skills'
p2
(lp3
S'nosql'
p4
aS'communication'
p5
aS'data science'
p6
aS'integration'
p7
aS'analytics'
p8
aS'data governance'
p9
aS'process improvement'
p10
aS'problem solving'
p11
aS'education'
p12
aS'finance'
p13
aS'management'
p14
aS'rdbms'
p15
aS'big data'
p16
aS'hadoop'
p17
aS'governance'
p18
aS'strategy'
p19
aS'coaching'
p20
aS'computer science'
p21
aS'master data management'
p22
aS'data management'
p23
aS'product development'
p24
aS'marketing'
p25
aS'data scientist'
p26
aS'data quality'
p27
aS'talent management'
p28
aS'leadership'
p29
aS'manufacturing'
p30
aS'data'
p31
aS'customer relations'
p32
aS'database management'
p33
aS'science'
p34
aS'data analytics'
p35
aS'english'
p36
aS'organization'
p37
aS'data integration'
p38
asS'working-year'
p39
(lp40
V[0]
p41
asS'major'
p42
(lp43
S'information'
p44
aS'management'
p45
aS'finance'
p46
aS'big data'
p47
aS'statistics computer science'
p48
aS'marketing'
p49
aS'data science'
p50
aS'statistic'
p51
aS'communication'
p52
aS'data analyst'
p53
aS'general'
p54
aS'business'
p55
aS'analytics'
p56
aS'computer science'
p57
aS'english'
p58
aS'data analytics'
p59
aS'science'
p60
asS'education'
p61
(lp62
VBachelor
p63
aVMaster
p64
asS'responsibility'
p65
(lp66
S'development'
p67
aS'information'
p68
aS'product'
p69
aS'decision-making'
p70
aS'business problem'
p71
aVinsight
p72
aS'communicate'
p73
aS'mapping'
p74
aS'improvement'
p75
aS'analytic'
p76
aS'understand'
p77
aS'solve problem'
p78
aS'implement'
p79
aS'model'
p80
as.