(dp1
S'skills'
p2
(lp3
S'nosql'
p4
aS'communication'
p5
aS'integration'
p6
aS'analytics'
p7
aS'engineering'
p8
aS'hive'
p9
aS'education'
p10
aS'visualization'
p11
aS'management'
p12
aS'rdbms'
p13
aS'big data'
p14
aS'hadoop'
p15
aS'governance'
p16
aS'etl'
p17
aS'computer science'
p18
aS'policy'
p19
aS'master data management'
p20
aS'dimensional modeling'
p21
aS'data management'
p22
aS'teradata'
p23
aS'data modeling'
p24
aS'finance'
p25
aS'hdfs'
p26
aS'database design'
p27
aS'informatica'
p28
aS'data scientist'
p29
aS'data quality'
p30
aS'sql'
p31
aS'modeling'
p32
aS'spark'
p33
aS'manufacturing'
p34
aS'data'
p35
aS'customer relations'
p36
aS'science'
p37
aS'mapreduce'
p38
aS'business objects'
p39
aS'data architecture'
p40
aS'architecture'
p41
aS'english'
p42
aS'security'
p43
aS'data integration'
p44
asS'working-year'
p45
(lp46
V(2, 5]
p47
asS'major'
p48
(lp49
S'information'
p50
aS'management'
p51
aS'finance'
p52
aS'big data'
p53
aS'science'
p54
aS'communication'
p55
aS'business'
p56
aS'analytics'
p57
aS'engineering'
p58
aS'design'
p59
aS'computer science'
p60
aS'english'
p61
aS'ee computer science'
p62
asS'education'
p63
(lp64
VBachelor
p65
aVMaster
p66
asS'responsibility'
p67
(lp68
S'development'
p69
aS'information'
p70
aS'product'
p71
aVinsight
p72
aS'communicate'
p73
aS'data gathering'
p74
aS'problem statement'
p75
aS'design'
p76
aS'modeling'
p77
aS'implement'
p78
aS'transformation'
p79
as.