(dp1
S'skills'
p2
(lp3
S'management'
p4
aS'finance'
p5
aS'data scientist'
p6
aS'integration'
p7
aS'governance'
p8
aS'data quality'
p9
aS'analytics'
p10
aS'engineering'
p11
aS'data integration'
p12
aS'policy'
p13
aS'master data management'
p14
aS'security'
p15
aS'manufacturing'
p16
aS'data'
p17
aS'data management'
p18
aS'r d'
p19
asS'working-year'
p20
(lp21
V[0]
p22
asS'major'
p23
(lp24
S'information'
p25
aS'management'
p26
aS'finance'
p27
aS'business'
p28
aS'analytics'
p29
aS'engineering'
p30
asS'education'
p31
(lp32
VMaster
p33
asS'responsibility'
p34
(lp35
S'development'
p36
aS'information'
p37
aS'product'
p38
aVinsight
p39
aS'problem statement'
p40
aS'implement'
p41
aS'transformation'
p42
as.