(dp1
S'skills'
p2
(lp3
S'rapidminer'
p4
aS'management'
p5
aS'science'
p6
aS'english'
p7
aS'actuarial science'
p8
aS'analysis'
p9
aS'tableau'
p10
aS'mathematics'
p11
aS'engineering'
p12
aS'r'
aS'computer science'
p13
aS'data analysis'
p14
aS'data mining'
p15
aS'modeling'
p16
aS'security'
p17
aS'data'
p18
aS'data management'
p19
asS'working-year'
p20
(lp21
V[0]
p22
asS'major'
p23
(lp24
S'information'
p25
aS'management'
p26
aS'mathematics statistics'
p27
aS'science'
p28
aS'data mining'
p29
aS'statistic'
p30
aS'actuarial science'
p31
aS'statistics actuarial science'
p32
aS'engineering'
p33
aS'computer science'
p34
aS'computer science mathematics'
p35
aS'english'
p36
aS'mathematics'
p37
aS'law'
p38
aS'ee computer science'
p39
asS'education'
p40
(lp41
S'Bachelor'
p42
asS'responsibility'
p43
(lp44
S'information'
p45
aS'data analysis'
p46
aS'communicate'
p47
aS'analysis'
p48
aS'data mining'
p49
aS'modeling'
p50
as.