(dp1
S'skills'
p2
(lp3
S'energy'
p4
aS'grid computing'
p5
aS'analytics'
p6
aS'marketing strategy'
p7
aS'data mining'
p8
aS'strategy'
p9
aS'education'
p10
aS'deep learning'
p11
aS'research'
p12
aS'optimization'
p13
aS'matlab'
p14
aS'automotive'
p15
aS'computer science'
p16
aS'teradata'
p17
aS'finance'
p18
aS'python'
p19
aS'marketing'
p20
aS'data scientist'
p21
aS'aerospace'
p22
aS'modeling'
p23
aS'data'
p24
aS'c'
aS'dynamic programming'
p25
aS'statistical analysis'
p26
aS'science'
p27
aS'economics'
p28
aS'programming'
p29
aS'analysis'
p30
aS'r'
aS'organization'
p31
aS'pricing'
p32
asS'working-year'
p33
(lp34
V[0]
p35
asS'major'
p36
(lp37
S'finance'
p38
aS'business'
p39
aS'computing'
p40
aS'marketing'
p41
aS'economics'
p42
aS'statistic'
p43
aS'computer sciences'
p44
aS'phd'
p45
aS'analytics'
p46
aS'economics computer science'
p47
aS'marketing strategy'
p48
aS'data mining'
p49
aS'computer science'
p50
aVphysic
p51
aS'science'
p52
asS'education'
p53
(lp54
VDoctor
p55
asS'responsibility'
p56
(lp57
S'development'
p58
aS'extract'
p59
aVinsight
p60
aS'analysis'
p61
aS'optimization'
p62
aS'data mining'
p63
aS'report'
p64
aS'modeling'
p65
aS'model'
p66
aS'evaluation'
p67
as.