(dp1
S'skills'
p2
(lp3
S'consulting'
p4
aS'go'
p5
aS'research'
p6
aS'quantitative analysis'
p7
aS'management'
p8
aS'excel'
p9
aS'time management'
p10
aS'market research'
p11
aS'innovation'
p12
aS'mathematics'
p13
aS'survey research'
p14
aS'customer satisfaction'
p15
aS'marketing'
p16
aS'data scientist'
p17
aS'modeling'
p18
aS'data'
p19
aS'project management'
p20
aS'word'
p21
aS'science'
p22
aS'documentation'
p23
aS'education'
p24
aS'analysis'
p25
aS'organization'
p26
aS'powerpoint'
p27
asS'working-year'
p28
(lp29
V[0]
p30
asS'major'
p31
(lp32
S'management'
p33
aS'business'
p34
aS'marketing'
p35
aS'science'
p36
aS'mathematics'
p37
aS'project management'
p38
asS'education'
p39
(lp40
VBachelor
p41
asS'responsibility'
p42
(lp43
S'product'
p44
aS'documentation'
p45
aS'presentation'
p46
aVinsight
p47
aS'analysis'
p48
aS'recommendation'
p49
aS'report'
p50
aS'modeling'
p51
aS'quantitative analysis'
p52
as.