(dp1
S'skills'
p2
(lp3
S'neural networks'
p4
aS'intelligence'
p5
aS'data science'
p6
aS'engineering'
p7
aVpanda
p8
aS'deep learning'
p9
aS'research'
p10
aS'access'
p11
aS'statistical software'
p12
aS'matlab'
p13
aS'mathematics'
p14
aS'numpy'
p15
aS'operations research'
p16
aS'computer science'
p17
aS'product development'
p18
aS'python'
p19
aS'jmp'
p20
aS'data scientist'
p21
aS'scipy'
p22
aS'octave'
p23
aS'regression'
p24
aS'data'
p25
aS'science'
p26
aS'applied mathematics'
p27
aS'economics'
p28
aS'machine learning'
p29
aS'r'
aS'artificial intelligence'
p30
aS'nltk'
p31
aS'scripting'
p32
asS'working-year'
p33
(lp34
V(2, 5]
p35
asS'major'
p36
(lp37
S'information'
p38
aS'business'
p39
aS'science'
p40
aS'applied mathematics'
p41
aS'economics'
p42
aVapplied statistic
p43
aS'engineering'
p44
aS'statistic'
p45
aS'machine learning'
p46
aS'mathematics'
p47
aS'statistics applied mathematics'
p48
aS'design'
p49
aS'artificial intelligence'
p50
aS'applied math'
p51
aS'computer science engineering'
p52
aS'phd'
p53
aS'data science'
p54
aS'operations research'
p55
aS'computer science'
p56
asS'education'
p57
(lp58
VDoctor
p59
asS'responsibility'
p60
(lp61
S'information'
p62
aS'product'
p63
aS'formulate'
p64
aS'evaluation'
p65
aS'decision-making'
p66
aS'communicate'
p67
aS'design'
p68
aS'model'
p69
aS'extract'
p70
as.