(dp1
S'skills'
p2
(lp3
S'neural networks'
p4
aS'intelligence'
p5
aS'data science'
p6
aS'engineering'
p7
aVpanda
p8
aS'statistics'
p9
aS'deep learning'
p10
aS'research'
p11
aS'access'
p12
aS'statistical software'
p13
aS'matlab'
p14
aS'mathematics'
p15
aS'numpy'
p16
aS'operations research'
p17
aS'computer science'
p18
aS'product development'
p19
aS'python'
p20
aS'jmp'
p21
aS'data scientist'
p22
aS'scipy'
p23
aS'octave'
p24
aS'sql'
p25
aS'regression'
p26
aS'data'
p27
aS'science'
p28
aS'applied mathematics'
p29
aS'economics'
p30
aS'machine learning'
p31
aS'r'
aS'artificial intelligence'
p32
aS'nltk'
p33
aS'scripting'
p34
asS'working-year'
p35
(lp36
V(2, 5]
p37
asS'major'
p38
(lp39
VStatistics
p40
aVBusiness
p41
aVData Science
p42
aVEconomics
p43
aVEngineering
p44
aVComputer Science
p45
aVMathematics
p46
aVOperations Research
p47
asS'education'
p48
(lp49
VDoctor
p50
asS'responsibility'
p51
(lp52
S'development'
p53
aS'information'
p54
aS'product'
p55
aS'formulate'
p56
aS'design ... experiment'
p57
aS'evaluation'
p58
aS'decision-making'
p59
aS'communicate'
p60
aS'develop ... model'
p61
aS'design'
p62
aS'model'
p63
aS'extract'
p64
as.