(dp1
S'skills'
p2
(lp3
S'science'
p4
aS'management'
p5
aS'english'
p6
aS'python'
p7
aS'customer service'
p8
aS'data science'
p9
aS'innovation'
p10
aS'data scientist'
p11
aS'analysis'
p12
aS'access'
p13
aS'credit'
p14
aS'r'
aS'data analysis'
p15
aS'sql'
p16
aS'data'
p17
aS'data management'
p18
aS'customer experience'
p19
asS'working-year'
p20
(lp21
S'[0]'
p22
asS'major'
p23
(lp24
VData Science
p25
aVBusiness
p26
aVManagement Science and Engineering
p27
asS'education'
p28
(lp29
S'Bachelor'
p30
asS'responsibility'
p31
(lp32
S'information'
p33
aS'data analysis'
p34
aS'communicate'
p35
aS'analysis'
p36
aS'understand'
p37
aS'report'
p38
as.