(dp1
S'skills'
p2
(lp3
S'communication'
p4
aS'tableau'
p5
aS'analytics'
p6
aS'data warehousing'
p7
aS'hive'
p8
aS'visualization'
p9
aS'genetics'
p10
aS'saas'
p11
aS'hadoop'
p12
aS'perl'
p13
aS'access'
p14
aS'web development'
p15
aS'architecture'
p16
aS'data analysis'
p17
aS'data modeling'
p18
aS'python'
p19
aS'data scientist'
p20
aS'sql'
p21
aS'modeling'
p22
aS'data'
p23
aS'data visualization'
p24
aS'programming'
p25
aS'analysis'
p26
aS'dashboard'
p27
aS'impala'
p28
aS'powershell'
p29
aS'data analytics'
p30
asS'working-year'
p31
(lp32
V(2, 5]
p33
asS'major'
p34
(lp35
S'information'
p36
aS'genetics'
p37
aS'business'
p38
aS'communication'
p39
aS'analytics'
p40
aS'design'
p41
aS'data analytics'
p42
aS'web development'
p43
asS'education'
p44
(lp45
S'Bachelor'
p46
asS'responsibility'
p47
(lp48
S'development'
p49
aS'information'
p50
aS'product'
p51
aS'data analysis'
p52
aS'manage data'
p53
aS'analysis'
p54
aS'design'
p55
aS'interface'
p56
aS'modeling'
p57
aS'model'
p58
aS'transformation'
p59
as.