(dp1
S'skills'
p2
(lp3
S'intelligence'
p4
aS'data science'
p5
aS'engineering'
p6
aS'security clearance'
p7
aS'linux'
p8
aS'strategy'
p9
aS'vmware'
p10
aS'management'
p11
aS'java'
p12
aS'storage'
p13
aS'integration'
p14
aS'perl'
p15
aS'gcp'
p16
aS'education'
p17
aS'distributed computing'
p18
aS'government'
p19
aS'python'
p20
aS'aws'
p21
aS'splunk'
p22
aS'data'
p23
aS'information technology'
p24
aS'a'
aS'windows'
p25
aS'science'
p26
aS'documentation'
p27
aS'programming'
p28
aS'dod'
p29
aS'security'
p30
aS'root'
p31
aS'scripting'
p32
aS'troubleshooting'
p33
asS'working-year'
p34
(lp35
V(5, 10]
p36
aV(10, 15]
p37
asS'major'
p38
(lp39
VBusiness
p40
aVData Science
p41
aVEngineering
p42
aVInformation Science
p43
aVComputer Science
p44
aVManagement Science and Engineering
p45
asS'education'
p46
(lp47
VBachelor
p48
aVMaster
p49
aVDoctor
p50
asS'responsibility'
p51
(lp52
S'development'
p53
aS'information'
p54
aS'documentation'
p55
aS'insight'
p56
aS'design'
p57
aS'report'
p58
aS'implement'
p59
as.