(dp1
S'skills'
p2
(lp3
S'nlp'
p4
aS'text analytics'
p5
aS'intelligence'
p6
aS'data science'
p7
aS'pig'
p8
aS'sentiment analysis'
p9
aS'engineering'
p10
aS'defense'
p11
aS'analysis'
p12
aS'hbase'
p13
aS'simulation'
p14
aS'xml'
p15
aS'git'
p16
aS'java'
p17
aS'storage'
p18
aS'hadoop'
p19
aS'json'
p20
aS'html'
p21
aS'education'
p22
aS'natural language processing'
p23
aS'processing'
p24
aS'distributed computing'
p25
aS'government'
p26
aS'javascript'
p27
aS'c'
aS'hive'
p28
aS'management'
p29
aS'spark'
p30
aS'data'
p31
aS'information technology'
p32
aS'training'
p33
aS'science'
p34
aS'documentation'
p35
aS'programming'
p36
aS'security clearance'
p37
aS'machine learning'
p38
aS'r'
aS'security'
p39
aS'etl'
p40
asS'working-year'
p41
(lp42
V(5, 10]
p43
asS'major'
p44
(lp45
S'information'
p46
aS'management'
p47
aS'computing'
p48
aS'science'
p49
aS'data science'
p50
aS'machine learning'
p51
aS'engineering'
p52
aS'design'
p53
aS'natural language processing'
p54
aS'general'
p55
aS'information technology'
p56
asS'education'
p57
(lp58
VBachelor
p59
asS'responsibility'
p60
(lp61
S'development'
p62
aS'information'
p63
aS'documentation'
p64
aS'processing'
p65
aS'analysis'
p66
aS'simulation'
p67
aS'design'
p68
as.