(dp1
S'skills'
p2
(lp3
S'aerospace'
p4
aS'nosql'
p5
aS'intelligence'
p6
aS'data science'
p7
aS'linux'
p8
aS'intelligence analysis'
p9
aS'integration'
p10
aS'analytics'
p11
aS'business intelligence'
p12
aS'defense'
p13
aS'security clearance'
p14
aS'data mining'
p15
aS'neo4j'
p16
aS'education'
p17
aS'xml'
p18
aS'visualization'
p19
aS'management'
p20
aS'anomaly detection'
p21
aS'hadoop'
p22
aS'writing'
p23
aS'json'
p24
aS'computer science'
p25
aS'information security'
p26
aS'algorithm development'
p27
aS'data management'
p28
aS'clustering'
p29
aS'data analysis'
p30
aS'government'
p31
aS'python'
p32
aS'processing'
p33
aS'data scientist'
p34
aS'statistical modeling'
p35
aS'sql'
p36
aS'modeling'
p37
aS'data'
p38
aS'information technology'
p39
aS'c'
aS'pattern recognition'
p40
aS'risk assessment'
p41
aS'data visualization'
p42
aS'science'
p43
aS'dod'
p44
aS'machine learning'
p45
aS'information assurance'
p46
aS'r'
aS'security'
p47
aS'analysis'
p48
aS'data analytics'
p49
aS'predictive analytics'
p50
asS'working-year'
p51
(lp52
V(0, 2]
p53
aV(2, 5]
p54
asS'major'
p55
(lp56
S'information'
p57
aS'management'
p58
aS'business'
p59
aS'science'
p60
aS'data science'
p61
aS'statistic'
p62
aS'machine learning'
p63
aS'analytics'
p64
aS'design'
p65
aS'information technology'
p66
aS'data mining'
p67
aS'computer science'
p68
aS'machine learning data mining'
p69
aS'data analytics'
p70
aS'predictive analytics'
p71
asS'education'
p72
(lp73
VBachelor
p74
aVMaster
p75
asS'responsibility'
p76
(lp77
S'development'
p78
aS'large data set'
p79
aVinsight
p80
aS'information'
p81
aS'pattern'
p82
aS'processing'
p83
aS'analysis'
p84
aS'statistical model'
p85
aS'analytic'
p86
aS'data analysis'
p87
aS'design'
p88
aS'data aggregation'
p89
aS'data mining'
p90
aS'understand'
p91
aS'modeling'
p92
aS'extract'
p93
aS'model'
p94
aS'decision-making'
p95
as.