(dp1
S'skills'
p2
(lp3
S'nosql'
p4
aS'communication'
p5
aS'engineering'
p6
aS'problem solving'
p7
aS'cassandra'
p8
aS'technical leadership'
p9
aS'java'
p10
aS'team building'
p11
aS'agile'
p12
aS'redis'
p13
aS'strategy'
p14
aS'computer science'
p15
aS'css'
p16
aS'a'
aS'scrum'
p17
aS'python'
p18
aS'mongodb'
p19
aS'javascript'
p20
aS'leadership development'
p21
aS'scalability'
p22
aS'leadership'
p23
aS'mentoring'
p24
aS'html5'
p25
aS'sql'
p26
aS'data'
p27
aS'software development'
p28
aS'c'
aS'postgresql'
p29
aS'sql server'
p30
aS'science'
p31
aS'cloud computing'
p32
aS'aws'
p33
aS'architecture'
p34
aS'oracle'
p35
asS'working-year'
p36
(lp37
V(5, 10]
p38
aV(2, 5]
p39
aV(10, 15]
p40
asS'major'
p41
(lp42
VEngineering
p43
aVComputer Science
p44
aVBusiness
p45
asS'education'
p46
(lp47
VBachelor
p48
aVMaster
p49
aVDoctor
p50
asS'responsibility'
p51
(lp52
S'development'
p53
aS'product'
p54
aS'problem statement'
p55
aS'understand'
p56
aS'ownership'
p57
aS'design'
p58
aS'implement'
p59
as.