(dp1
S'skills'
p2
(lp3
S'nlp'
p4
aS'nosql'
p5
aS'intelligence'
p6
aS'data science'
p7
aS'rest'
p8
aS'software design'
p9
aS'sentiment analysis'
p10
aS'social media'
p11
aS'java'
p12
aS'big data'
p13
aS'deep learning'
p14
aS'computer science'
p15
aS'natural language processing'
p16
aS'tensorflow'
p17
aS'unstructured data'
p18
aS'artificial intelligence'
p19
aS'python'
p20
aS'processing'
p21
aS'data scientist'
p22
aS'automation'
p23
aS'data'
p24
aS'science'
p25
aS'programming'
p26
aS'analysis'
p27
aS'machine learning'
p28
aS'elasticsearch'
p29
aS'clojure'
p30
asS'working-year'
p31
(lp32
V[0]
p33
asS'major'
p34
(lp35
S'computer science/artificial intelligence'
p36
aS'general'
p37
aS'big data'
p38
aS'science'
p39
aS'data science'
p40
aS'automation'
p41
aS'design'
p42
aS'computer science'
p43
aS'phd'
p44
aS'natural language processing'
p45
aS'machine learning'
p46
aS'artificial intelligence'
p47
asS'education'
p48
(lp49
VDoctor
p50
asS'responsibility'
p51
(lp52
S'product'
p53
aVinsight
p54
aS'design'
p55
aS'analysis'
p56
aS'processing'
p57
as.