(dp1
S'skills'
p2
(lp3
S'classification'
p4
aS'communication'
p5
aS'data science'
p6
aS'linux'
p7
aS'intelligence analysis'
p8
aS'analytics'
p9
aS'engineering'
p10
aS'communication skills'
p11
aS'data mining'
p12
aS'analysis'
p13
aS'finance'
p14
aS'access'
p15
aS'git'
p16
aS'big data'
p17
aS'agile'
p18
aS'predictive modeling'
p19
aS'hadoop'
p20
aS'research'
p21
aS'big data analytics'
p22
aS'computer science'
p23
aS'intelligence'
p24
aS'mathematics'
p25
aS'operations research'
p26
aS'quality assurance'
p27
aS'processing'
p28
aS'theory'
p29
aS'government'
p30
aS'python'
p31
aS'collaboration'
p32
aS'innovation'
p33
aS'leadership'
p34
aS'sql'
p35
aS'apache'
p36
aS'modeling'
p37
aS'data'
p38
aS'a'
aS'statistical analysis'
p39
aS'science'
p40
aS'cloud computing'
p41
aS'economics'
p42
aS'security clearance'
p43
aS'machine learning'
p44
aS'data engineering'
p45
aS'r'
aS'data analytics'
p46
aS'security'
p47
aS'scripting'
p48
aS'statistics'
p49
asS'working-year'
p50
(lp51
V(2, 5]
p52
asS'major'
p53
(lp54
VStatistics
p55
aVData Science
p56
aVEconomics
p57
aVEngineering
p58
aVComputer Science
p59
aVMathematics
p60
aVOperations Research
p61
asS'education'
p62
(lp63
S'Bachelor'
p64
asS'responsibility'
p65
(lp66
S'product'
p67
aS'processing'
p68
aS'insight'
p69
aS'communicate'
p70
aS'analysis'
p71
aS'statistical model'
p72
aS'design'
p73
aS'data mining'
p74
aS'modeling'
p75
aS'model'
p76
as.