(dp1
S'skills'
p2
(lp3
S'r d'
p4
aS'intelligence'
p5
aS'testing'
p6
aS'tableau'
p7
aS'd3'
p8
aS'visualization'
p9
aS'open source'
p10
aS'big data'
p11
aS'banking'
p12
aS'hadoop'
p13
aS'writing'
p14
aS'innovation'
p15
aS'teaching'
p16
aS'artificial intelligence'
p17
aS'data analysis'
p18
aS'distributed computing'
p19
aS'apis'
p20
aS'python'
p21
aS'aws'
p22
aS'data scientist'
p23
aS'military experience'
p24
aS'statistical modeling'
p25
aS'modeling'
p26
aS'spark'
p27
aS'data'
p28
aS'data visualization'
p29
aS'scala'
p30
aS'programming'
p31
aS'analysis'
p32
aS'machine learning'
p33
aS'data center'
p34
aS'credit'
p35
aS'h2o'
p36
aS'r'
aS'military'
p37
aS'validation'
p38
asS'working-year'
p39
(lp40
V(0, 2]
p41
aV(2, 5]
p42
asS'major'
p43
(lp44
S'big data'
p45
aS'computing'
p46
aS'phd'
p47
aS'machine learning artificial intelligence'
p48
aS'machine learning'
p49
aS'artificial intelligence'
p50
asS'education'
p51
(lp52
VBachelor
p53
aVMaster
p54
aVDoctor
p55
asS'responsibility'
p56
(lp57
S'development'
p58
aS'data analysis'
p59
aS'communicate'
p60
aS'analysis'
p61
aS'statistical model'
p62
aS'modeling'
p63
aS'model'
p64
aS'extract'
p65
aS'transformation'
p66
as.