(dp1
S'skills'
p2
(lp3
S'soa'
p4
aS'hdfs'
p5
aS'search'
p6
aS'.net'
p7
aS'java'
p8
aS'r d'
p9
aS'solr'
p10
aS'javascript'
p11
aS'data scientist'
p12
aS'j2ee'
p13
aS'soap'
p14
aS'lucene'
p15
aS'architecture'
p16
aS'apache'
p17
aS'data'
p18
aS'junit'
p19
asS'working-year'
p20
(lp21
V(5, 10]
p22
aV(0, 2]
p23
asS'major'
p24
(lp25
S'design'
p26
aS'business'
p27
asS'education'
p28
(lp29
S'Bachelor'
p30
asS'responsibility'
p31
(lp32
S'report'
p33
aS'development'
p34
aS'product'
p35
aS'design'
p36
as.