(dp1
S'skills'
p2
(lp3
S'communication'
p4
aS'data science'
p5
aS'engineering'
p6
aS'product strategy'
p7
aS'strategy'
p8
aS'management'
p9
aS'big data'
p10
aS'credit'
p11
aS'agile'
p12
aS'power bi'
p13
aS'recruiting'
p14
aS'writing'
p15
aS'teamwork'
p16
aS'computer science'
p17
aS'innovation'
p18
aS'collaboration'
p19
aS'scrum'
p20
aS'data scientist'
p21
aS'military experience'
p22
aS'data'
p23
aS'search'
p24
aS'solver'
p25
aS'science'
p26
aS'business strategy'
p27
aS'analysis'
p28
aS'machine learning'
p29
aS'banking'
p30
aS'optimization'
p31
aS'product management'
p32
aS'military'
p33
asS'working-year'
p34
(lp35
V(2, 5]
p36
asS'major'
p37
(lp38
S'information'
p39
aS'management'
p40
aS'general'
p41
aS'business'
p42
aS'big data'
p43
aS'science'
p44
aS'data science'
p45
aS'mba'
p46
aS'machine learning'
p47
aS'engineering'
p48
aS'computer science engineering'
p49
aS'computer science'
p50
aS'communication'
p51
aS'law'
p52
aS'ee computer science'
p53
aS'history'
p54
asS'education'
p55
(lp56
VBachelor
p57
aVMaster
p58
asS'responsibility'
p59
(lp60
S'information'
p61
aS'product'
p62
aS'mapping'
p63
aS'analysis'
p64
aS'optimization'
p65
aS'transformation'
p66
as.