(dp1
S'skills'
p2
(lp3
S'r d'
p4
aS'intelligence'
p5
aS'defense'
p6
aS'analysis'
p7
aS'simulation'
p8
aS'education'
p9
aS'continuous improvement'
p10
aS'innovation'
p11
aS'mathematics'
p12
aS'data analysis'
p13
aS'data modeling'
p14
aS'theory'
p15
aS'government'
p16
aS'data scientist'
p17
aS'modeling'
p18
aS'data'
p19
aS'national security'
p20
aS'programming'
p21
aS'security clearance'
p22
aS'machine learning'
p23
aS'exploratory data analysis'
p24
aS'security'
p25
asS'working-year'
p26
(lp27
V(5, 10]
p28
asS'major'
p29
(lp30
S'information'
p31
aS'information systems'
p32
aS'business'
p33
aS'machine learning'
p34
aS'information system'
p35
aS'design'
p36
aS'statistic'
p37
aS'mathematics'
p38
asS'education'
p39
(lp40
VBachelor
p41
asS'responsibility'
p42
(lp43
S'development'
p44
aS'information'
p45
aS'product'
p46
aS'data analysis'
p47
aVtest hypothesis
p48
aS'pattern'
p49
aS'communicate'
p50
aS'analysis'
p51
aS'simulation'
p52
aS'model'
p53
aS'design'
p54
aS'identify opportunity'
p55
aS'prototype'
p56
aS'modeling'
p57
aS'improvement'
p58
aS'transformation'
p59
as.