(dp1
S'skills'
p2
(lp3
S'data scientist'
p4
aS'communication'
p5
aS'testing'
p6
aS'hardware'
p7
aS'engineering'
p8
aS'grants'
p9
aS'troubleshooting'
p10
aS'problem solving'
p11
aS'it management'
p12
aS'education'
p13
aS'management'
p14
aS'saas'
p15
aS'governance'
p16
aS'research'
p17
aS'access'
p18
aS'innovation'
p19
aS'policy'
p20
aS'operating systems'
p21
aS'product development'
p22
aS'customer service'
p23
aS'ios'
p24
aS'leadership'
p25
aS'data'
p26
aS'b2b'
p27
aS'project management'
p28
aS'itil'
p29
aS'windows'
p30
aS'documentation'
p31
aS'analysis'
p32
aS'command'
p33
aS'architecture'
p34
aS'organization'
p35
aS'security'
p36
aS'root'
p37
aS'crm'
p38
asS'working-year'
p39
(lp40
V(2, 5]
p41
asS'major'
p42
(lp43
VEngineering
p44
aVBusiness
p45
aVManagement Science and Engineering
p46
asS'education'
p47
(lp48
VBachelor
p49
asS'responsibility'
p50
(lp51
S'development'
p52
aS'product'
p53
aS'documentation'
p54
aS'analysis'
p55
aS'design'
p56
aS'ownership'
p57
aS'implement'
p58
aS'model'
p59
as.