(dp1
S'skills'
p2
(lp3
S'r d'
p4
aS'communication'
p5
aS'testing'
p6
aS'hardware'
p7
aS'engineering'
p8
aS'troubleshooting'
p9
aS'problem solving'
p10
aS'it management'
p11
aS'education'
p12
aS'management'
p13
aS'saas'
p14
aS'governance'
p15
aS'research'
p16
aS'access'
p17
aS'innovation'
p18
aS'policy'
p19
aS'operating systems'
p20
aS'product development'
p21
aS'customer service'
p22
aS'mac os'
p23
aS'data scientist'
p24
aS'data'
p25
aS'b2b'
p26
aS'project management'
p27
aS'itil'
p28
aS'documentation'
p29
aS'analysis'
p30
aS'command'
p31
aS'architecture'
p32
aS'organization'
p33
aS'security'
p34
aS'root'
p35
aS'crm'
p36
asS'working-year'
p37
(lp38
V(2, 5]
p39
asS'major'
p40
(lp41
S'management'
p42
aS'business'
p43
aS'communication'
p44
aS'business leadership'
p45
aS'engineering'
p46
aS'design'
p47
aS'project management'
p48
asS'education'
p49
(lp50
VBachelor
p51
asS'responsibility'
p52
(lp53
S'development'
p54
aS'product'
p55
aS'documentation'
p56
aS'analysis'
p57
aS'design'
p58
aS'ownership'
p59
aS'implement'
p60
aS'model'
p61
as.