(dp1
S'skills'
p2
(lp3
S'.net'
p4
aS'intelligence'
p5
aS'data science'
p6
aS'operational planning'
p7
aS'intelligence analysis'
p8
aS'analytics'
p9
aS'business intelligence'
p10
aS'troubleshooting'
p11
aS'data mining'
p12
aS'research'
p13
aS'visualization'
p14
aS'management'
p15
aS'open source'
p16
aS'big data'
p17
aS'program management'
p18
aS'user experience'
p19
aS'agile'
p20
aS'integration'
p21
aS'governance'
p22
aS'writing'
p23
aS'computer science'
p24
aS'project planning'
p25
aS'data analysis'
p26
aS'business analysis'
p27
aS'collaboration'
p28
aS'data scientist'
p29
aS'presentations'
p30
aS'technical documentation'
p31
aS'data'
p32
aS'project management'
p33
aS'data visualization'
p34
aS'science'
p35
aS'documentation'
p36
aS'budgeting'
p37
aS'engineering'
p38
aS'analysis'
p39
aS'data engineering'
p40
aS'r'
aS'interaction design'
p41
aS'security'
p42
aS'data analytics'
p43
asS'working-year'
p44
(lp45
S'[0]'
p46
asS'major'
p47
(lp48
VData Science
p49
aVEngineering
p50
aVComputer Science
p51
aVBusiness
p52
aVManagement Science and Engineering
p53
asS'education'
p54
(lp55
VBachelor
p56
aVMaster
p57
asS'responsibility'
p58
(lp59
S'development'
p60
aS'information'
p61
aS'product'
p62
aS'data analysis'
p63
aS'documentation'
p64
aS'communicate'
p65
aS'analysis'
p66
aS'design'
p67
aS'data mining'
p68
as.