(dp1
S'skills'
p2
(lp3
S'application architecture'
p4
aS'r d'
p5
aS'shell scripting'
p6
aS'communication'
p7
aS'testing'
p8
aS'presentation skills'
p9
aS'rest'
p10
aS'ant'
p11
aS'analytics'
p12
aS'troubleshooting'
p13
aS'research'
p14
aS'vmware'
p15
aS'management'
p16
aS'open source'
p17
aS'agile'
p18
aS'sharepoint'
p19
aS'saas'
p20
aS'integration'
p21
aS'writing'
p22
aS'strategy'
p23
aS'html'
p24
aS'oracle sql'
p25
aS'web services'
p26
aS'innovation'
p27
aS'jenkins'
p28
aS'junit'
p29
aS'product development'
p30
aS'windows server'
p31
aS'processing'
p32
aS'data scientist'
p33
aS'test automation'
p34
aS'automation'
p35
aS'maven'
p36
aS'scripting'
p37
aS'sql'
p38
aS'java'
p39
aS'data'
p40
aS'b2b'
p41
aS'training'
p42
aS'sql server'
p43
aS'documentation'
p44
aS'programming'
p45
aS'communication skills'
p46
aS'architecture'
p47
aS'core java'
p48
aS'oracle'
p49
aS'organization'
p50
aS'application development'
p51
asS'working-year'
p52
(lp53
V(2, 5]
p54
asS'major'
p55
(lp56
S'information'
p57
aS'management'
p58
aS'business'
p59
aS'communication'
p60
aS'automation'
p61
aS'analytics'
p62
asS'education'
p63
(lp64
VBachelor
p65
asS'responsibility'
p66
(lp67
S'development'
p68
aS'information'
p69
aS'product'
p70
aS'documentation'
p71
aS'processing'
p72
aS'interface'
p73
aS'report'
p74
aS'presentation'
p75
as.