(dp1
S'skills'
p2
(lp3
S'communication'
p4
aS'testing'
p5
aS'hardware'
p6
aS'engineering'
p7
aS'grants'
p8
aS'troubleshooting'
p9
aS'it management'
p10
aS'distributed systems'
p11
aS'management'
p12
aS'saas'
p13
aS'governance'
p14
aS'research'
p15
aS'access'
p16
aS'innovation'
p17
aS'policy'
p18
aS'operating systems'
p19
aS'product development'
p20
aS'data scientist'
p21
aS'ios'
p22
aS'leadership'
p23
aS'data'
p24
aS'b2b'
p25
aS'project management'
p26
aS'disaster recovery'
p27
aS'itil'
p28
aS'windows'
p29
aS'documentation'
p30
aS'analysis'
p31
aS'data center'
p32
aS'command'
p33
aS'architecture'
p34
aS'organization'
p35
aS'security'
p36
aS'root'
p37
asS'working-year'
p38
(lp39
S'[0]'
p40
asS'major'
p41
(lp42
VEngineering
p43
aVComputer Science
p44
aVBusiness
p45
aVManagement Science and Engineering
p46
asS'education'
p47
(lp48
S'Bachelor'
p49
asS'responsibility'
p50
(lp51
S'development'
p52
aS'product'
p53
aS'documentation'
p54
aS'analysis'
p55
aS'design'
p56
aS'ownership'
p57
aS'implement'
p58
aS'model'
p59
as.