(dp1
S'skills'
p2
(lp3
S'nlp'
p4
aS'data science'
p5
aS'testing'
p6
aS'defense'
p7
aS'research'
p8
aS'education'
p9
aS'java'
p10
aS'flask'
p11
aS'integration'
p12
aS'writing'
p13
aS'natural language processing'
p14
aS'python'
p15
aS'processing'
p16
aS'data scientist'
p17
aS'machine learning'
p18
aS'apache'
p19
aS'data'
p20
aS'tomcat'
p21
aS'regular expressions'
p22
aS'science'
p23
aS'django'
p24
aS'security'
p25
aS'nltk'
p26
aS'application development'
p27
asS'working-year'
p28
(lp29
V(2, 5]
p30
asS'major'
p31
(lp32
S'science'
p33
aS'data science'
p34
aS'law'
p35
aS'natural language processing'
p36
aS'machine learning'
p37
asS'education'
p38
(lp39
VBachelor
p40
asS'responsibility'
p41
(lp42
S'development'
p43
aS'product'
p44
aS'processing'
p45
aS'communicate'
p46
aS'understand'
p47
aS'report'
p48
as.