(dp1
S'skills'
p2
(lp3
S'unsupervised learning'
p4
aS'data science'
p5
aS'testing'
p6
aS'analytics'
p7
aS'engineering'
p8
aS'statistical analysis'
p9
aS'random forest'
p10
aS'clustering'
p11
aS'statistics'
p12
aS'java'
p13
aS'anomaly detection'
p14
aS'predictive modeling'
p15
aS'strategy'
p16
aS'computer vision'
p17
aS'natural language processing'
p18
aS'mathematics'
p19
aS'hypothesis testing'
p20
aS'segmentation'
p21
aS'processing'
p22
aS'signal processing'
p23
aS'product development'
p24
aS'government'
p25
aS'python'
p26
aS'innovation'
p27
aS'data scientist'
p28
aS'mentoring'
p29
aS'data processing'
p30
aS'modeling'
p31
aS'data'
p32
aS'c'
aS'science'
p33
aS'programming'
p34
aS'analysis'
p35
aS'machine learning'
p36
aS'r'
aS'validation'
p37
aS'physics'
p38
asS'working-year'
p39
(lp40
V(2, 5]
p41
asS'major'
p42
(lp43
VStatistics
p44
aVData Science
p45
aVEngineering
p46
aVComputer Science
p47
aVMathematics
p48
aVPhysics
p49
asS'education'
p50
(lp51
VBachelor
p52
aVMaster
p53
aVDoctor
p54
asS'responsibility'
p55
(lp56
S'development'
p57
aS'product'
p58
aS'processing'
p59
aS'analysis'
p60
aS'develop ... model'
p61
aS'design'
p62
aS'report'
p63
aS'modeling'
p64
aS'model'
p65
aS'design ... experiment'
p66
as.