(dp1
S'skills'
p2
(lp3
S'github'
p4
aS'postgresql'
p5
aS'python'
p6
aS'data scientist'
p7
aS'aws'
p8
aS'scikit-learn'
p9
aS'writing'
p10
aS'data warehousing'
p11
aS'troubleshooting'
p12
aS'linux'
p13
aS'java'
p14
aS'docker'
p15
aS'data'
p16
aS'etl'
p17
asS'working-year'
p18
(lp19
S'[0]'
p20
asS'major'
p21
(lp22
sS'education'
p23
(lp24
S'Bachelor'
p25
asS'responsibility'
p26
(lp27
S'implement'
p28
as.