(dp1
S'skills'
p2
(lp3
S'digital marketing'
p4
aS'consulting'
p5
aS'r d'
p6
aS'hedge funds'
p7
aS'communication'
p8
aS'data science'
p9
aS'human resources'
p10
aS'rest'
p11
aS'pig'
p12
aS'analytics'
p13
aS'data analysis'
p14
aS'analysis'
p15
aS'data mining'
p16
aS'insurance'
p17
aS'quantitative finance'
p18
aS'java'
p19
aS'psychology'
p20
aS'big data'
p21
aS'ruby'
p22
aS'predictive modeling'
p23
aS'recruiting'
p24
aS'hadoop'
p25
aS'risk management'
p26
aS'json'
p27
aS'html'
p28
aS'computer science'
p29
aS'customer service'
p30
aS'intelligence'
p31
aS'web development'
p32
aS'matlab'
p33
aS'advertising'
p34
aS'finance'
p35
aS'apis'
p36
aS'python'
p37
aS'marketing'
p38
aS'javascript'
p39
aS'data scientist'
p40
aS'ruby rails'
p41
aS'hive'
p42
aS'management'
p43
aS'html5'
p44
aS'sql'
p45
aS'modeling'
p46
aS'data'
p47
aS'software development'
p48
aS'fraud'
p49
aS'science'
p50
aS'programming'
p51
aS'high performance computing'
p52
aS'machine learning'
p53
aS'data architecture'
p54
aS'credit'
p55
aS'r'
aS'architecture'
p56
aS'start-ups'
p57
aS'artificial intelligence'
p58
asS'working-year'
p59
(lp60
V[0]
p61
asS'major'
p62
(lp63
S'science'
p64
aS'management'
p65
aS'psychology'
p66
aS'big data'
p67
aS'computing'
p68
aS'marketing'
p69
aS'data science'
p70
aS'communication'
p71
aS'high performance computing'
p72
aS'machine learning'
p73
aS'business'
p74
aS'analytics'
p75
aS'quantitative finance'
p76
aS'artificial intelligence'
p77
aS'machine learning artificial intelligence'
p78
aS'data mining'
p79
aS'computer science'
p80
aS'decision sciences'
p81
aS'web development'
p82
aS'finance'
p83
asS'education'
p84
(lp85
S'Bachelor'
p86
asS'responsibility'
p87
(lp88
S'development'
p89
aS'data analysis'
p90
aS'analysis'
p91
aS'analytic'
p92
aS'data mining'
p93
aS'modeling'
p94
aS'model'
p95
as.