(dp1
S'skills'
p2
(lp3
S'processing'
p4
aS'r d'
p5
aS'python'
p6
aS'science'
p7
aS'data science'
p8
aS'natural language processing'
p9
aS'data scientist'
p10
aS'machine learning'
p11
aS'engineering'
p12
aS'management'
p13
aS'sql'
p14
aS'data'
p15
asS'working-year'
p16
(lp17
V(5, 10]
p18
aV(2, 5]
p19
asS'major'
p20
(lp21
S'management'
p22
aS'business'
p23
aS'science'
p24
aS'data science'
p25
aS'statistic'
p26
aS'phd'
p27
aS'engineering'
p28
aS'natural language processing'
p29
aS'machine learning'
p30
asS'education'
p31
(lp32
VDoctor
p33
asS'responsibility'
p34
(lp35
S'development'
p36
aS'product'
p37
aS'processing'
p38
as.