(dp1
S'skills'
p2
(lp3
S'higher education'
p4
aS'healthcare industry'
p5
aS'data science'
p6
aS'analytics'
p7
aS'statistical analysis'
p8
aS'education'
p9
aS'big data'
p10
aS'programming languages'
p11
aS'predictive modeling'
p12
aS'hadoop'
p13
aS'advanced analytics'
p14
aS'unstructured data'
p15
aS'python'
p16
aS'data scientist'
p17
aS'mathematical analysis'
p18
aS'sql'
p19
aS'modeling'
p20
aS'data'
p21
aS'performance metrics'
p22
aS'science'
p23
aS'programming'
p24
aS'analysis'
p25
aS'machine learning'
p26
aS'r'
aS'healthcare'
p27
aS'organization'
p28
aS'validation'
p29
aS'data analytics'
p30
asS'working-year'
p31
(lp32
V(2, 5]
p33
asS'major'
p34
(lp35
S'information'
p36
aS'business'
p37
aS'big data'
p38
aS'science'
p39
aS'data science'
p40
aS'machine learning'
p41
aS'analytics'
p42
aS'machine learning big data'
p43
aS'advanced analytics'
p44
aS'data analytics'
p45
asS'education'
p46
(lp47
VMaster
p48
asS'responsibility'
p49
(lp50
S'development'
p51
aS'large data set'
p52
aS'product'
p53
aS'business problem'
p54
aS'pattern'
p55
aVinsight
p56
aS'communicate'
p57
aS'analysis'
p58
aS'statistical model'
p59
aS'information'
p60
aS'understand'
p61
aS'report'
p62
aS'modeling'
p63
aS'model'
p64
aS'presentation'
p65
as.