(dp1
S'skills'
p2
(lp3
S'healthcare industry'
p4
aS'data science'
p5
aS'strategic leadership'
p6
aS'analytics'
p7
aS'problem solving'
p8
aS'sas'
p9
aS'education'
p10
aS'management'
p11
aS'big data'
p12
aS'programming languages'
p13
aS'predictive modeling'
p14
aS'hadoop'
p15
aS'strategy'
p16
aS'theory'
p17
aS'python'
p18
aS'leadership development'
p19
aS'processing'
p20
aS'data scientist'
p21
aS'leadership'
p22
aS'mentoring'
p23
aS'sql'
p24
aS'modeling'
p25
aS'data'
p26
aS'science'
p27
aS'programming'
p28
aS'machine learning'
p29
aS'credit'
p30
aS'r'
aS'healthcare'
p31
aS'organization'
p32
aS'security'
p33
aS'validation'
p34
aS'data analytics'
p35
asS'working-year'
p36
(lp37
V(5, 10]
p38
asS'major'
p39
(lp40
VData Science
p41
aVComputer Science
p42
aVBusiness
p43
aVManagement Science and Engineering
p44
asS'education'
p45
(lp46
VMaster
p47
aVDoctor
p48
asS'responsibility'
p49
(lp50
S'development'
p51
aS'information'
p52
aS'product'
p53
aS'processing'
p54
aS'business problem'
p55
aS'pattern'
p56
aS'insight'
p57
aS'communicate'
p58
aS'statistical model'
p59
aS'analytic'
p60
aS'statistical method'
p61
aS'understand'
p62
aS'modeling'
p63
aS'model'
p64
as.