(dp1
S'skills'
p2
(lp3
S'r d'
p4
aS'communication'
p5
aS'analytics'
p6
aS'business intelligence'
p7
aS'problem solving'
p8
aS'research'
p9
aS'insurance'
p10
aS'technical leadership'
p11
aS'management'
p12
aS'java'
p13
aS'agile'
p14
aS'education'
p15
aS'hadoop'
p16
aS'strategy'
p17
aS'information technology'
p18
aS'intelligence'
p19
aS'python'
p20
aS'data scientist'
p21
aS'leadership'
p22
aS'data'
p23
aS'project management'
p24
aS'solution architecture'
p25
aS'programming'
p26
aS'machine learning'
p27
aS'architecture'
p28
aS'data analytics'
p29
asS'working-year'
p30
(lp31
V(0, 2]
p32
aV(2, 5]
p33
asS'major'
p34
(lp35
S'information'
p36
aS'management'
p37
aS'business'
p38
aS'communication'
p39
aS'machine learning'
p40
aS'analytics'
p41
aS'project management'
p42
aS'information technology'
p43
aS'data analytics'
p44
asS'education'
p45
(lp46
VBachelor
p47
asS'responsibility'
p48
(lp49
S'development'
p50
aS'information'
p51
aS'formulate'
p52
aVinsight
p53
aS'understand'
p54
aS'implement'
p55
as.