(dp1
S'skills'
p2
(lp3
S'r d'
p4
aS'healthcare industry'
p5
aS'communication'
p6
aS'data science'
p7
aS'analytics'
p8
aS'thought leadership'
p9
aS'hive'
p10
aS'strategy'
p11
aS'quantitative analysis'
p12
aS'education'
p13
aS'java'
p14
aS'big data'
p15
aS'hadoop'
p16
aS'research'
p17
aS'big data analytics'
p18
aS'computer vision'
p19
aS'natural language processing'
p20
aS'advanced analytics'
p21
aS'mathematics'
p22
aS'unstructured data'
p23
aS'data analysis'
p24
aS'signal processing'
p25
aS'team leadership'
p26
aS'python'
p27
aS'processing'
p28
aS'data scientist'
p29
aS'leadership'
p30
aS'sql'
p31
aS'modeling'
p32
aS'spark'
p33
aS'data'
p34
aS'c'
aS'science'
p35
aS'analysis'
p36
aS'machine learning'
p37
aS'customer analytics'
p38
aS'r'
aS'healthcare'
p39
aS'data analytics'
p40
aS'statistical analysis'
p41
asS'working-year'
p42
(lp43
V(5, 10]
p44
asS'major'
p45
(lp46
S'business'
p47
aS'big data'
p48
aS'science'
p49
aS'data science'
p50
aS'statistic'
p51
aS'communication'
p52
aS'machine learning'
p53
aS'big data analytics'
p54
aS'analytics'
p55
aS'machine learning big data'
p56
aS'natural language processing'
p57
aS'advanced analytics'
p58
aS'mathematics'
p59
aS'data analytics'
p60
asS'education'
p61
(lp62
VMaster
p63
asS'responsibility'
p64
(lp65
Vinsight
p66
aS'business problem'
p67
aS'quantitative analysis'
p68
aS'processing'
p69
aS'communicate'
p70
aS'analysis'
p71
aS'analytic'
p72
aS'data analysis'
p73
aS'modeling'
p74
aS'prototype'
p75
aS'presentation'
p76
as.