(dp1
S'skills'
p2
(lp3
S'data science'
p4
aS'testing'
p5
aS'tableau'
p6
aS'analytics'
p7
aS'analysis'
p8
aS'problem solving'
p9
aS'data mining'
p10
aS'sas'
p11
aS'education'
p12
aS'visualization'
p13
aS'management'
p14
aS'big data'
p15
aS'predictive modeling'
p16
aS'hadoop'
p17
aS'advanced analytics'
p18
aS'unstructured data'
p19
aS'data analysis'
p20
aS'python'
p21
aS'processing'
p22
aS'data scientist'
p23
aS'mathematical analysis'
p24
aS'hive'
p25
aS'leadership'
p26
aS'mentoring'
p27
aS'data processing'
p28
aS'sql'
p29
aS'modeling'
p30
aS'spark'
p31
aS'pig'
p32
aS'data'
p33
aS'data visualization'
p34
aS'science'
p35
aS'programming'
p36
aS'business objects'
p37
aS'machine learning'
p38
aS'credit'
p39
aS'organizational leadership'
p40
aS'r'
aS'healthcare'
p41
aS'organization'
p42
aS'security'
p43
aS'data analytics'
p44
aS'statistical analysis'
p45
asS'working-year'
p46
(lp47
V(5, 10]
p48
asS'major'
p49
(lp50
VData Science
p51
aVComputer Science
p52
aVBusiness
p53
aVManagement Science and Engineering
p54
asS'education'
p55
(lp56
VMaster
p57
aVDoctor
p58
asS'responsibility'
p59
(lp60
S'insight'
p61
aS'drive ... decision'
p62
aS'design'
p63
aS'data mining'
p64
aS'decision making'
p65
aS'information'
p66
aS'business problem'
p67
aS'improvement'
p68
aS'analytic'
p69
aS'evaluation'
p70
aS'product'
p71
aS'data analysis'
p72
aS'large data set'
p73
aS'processing'
p74
aS'communicate'
p75
aS'statistical model'
p76
aS'statistical method'
p77
aS'understand'
p78
aS'identify opportunity'
p79
aS'modeling'
p80
aS'analysis'
p81
aS'model'
p82
as.