(dp1
S'skills'
p2
(lp3
S'r d'
p4
aS'data science'
p5
aS'testing'
p6
aS'analytics'
p7
aS'engineering'
p8
aS'sap'
p9
aS'esri'
p10
aS'management'
p11
aS'strategy'
p12
aS'six sigma'
p13
aS'policy'
p14
aS'mathematics'
p15
aS'energy'
p16
aS'human resources'
p17
aS'python'
p18
aS'data scientist'
p19
aS'business process'
p20
aS'minitab'
p21
aS'data'
p22
aS'erp'
p23
aS'performance metrics'
p24
aS'science'
p25
aS'business strategy'
p26
aS'analysis'
p27
aS'unstructured data'
p28
aS'r'
aS'oracle'
p29
aS'organization'
p30
aS'advanced analytics'
p31
asS'working-year'
p32
(lp33
V(0, 2]
p34
aV(2, 5]
p35
asS'major'
p36
(lp37
S'information'
p38
aS'management'
p39
aS'telecommunication'
p40
aS'business'
p41
aS'science'
p42
aS'data science'
p43
aS'analytics'
p44
aS'engineering'
p45
aS'statistic'
p46
aS'advanced analytics'
p47
aS'mathematics'
p48
asS'education'
p49
(lp50
VBachelor
p51
aVMaster
p52
asS'responsibility'
p53
(lp54
S'development'
p55
aS'information'
p56
aS'pattern'
p57
aS'analysis'
p58
aS'improvement'
p59
aS'model'
p60
aS'presentation'
p61
aS'transformation'
p62
as.