(dp1
S'skills'
p2
(lp3
S'data science'
p4
aS'testing'
p5
aS'analytics'
p6
aS'engineering'
p7
aS'sas'
p8
aS'sap'
p9
aS'telecommunications'
p10
aS'esri'
p11
aS'management'
p12
aS'strategy'
p13
aS'six sigma'
p14
aS'policy'
p15
aS'mathematics'
p16
aS'unstructured data'
p17
aS'human resources'
p18
aS'energy'
p19
aS'python'
p20
aS'data scientist'
p21
aS'metrics'
p22
aS'business process'
p23
aS'minitab'
p24
aS'modeling'
p25
aS'data'
p26
aS'a'
aS'erp'
p27
aS'performance metrics'
p28
aS'science'
p29
aS'business strategy'
p30
aS'analysis'
p31
aS'advanced analytics'
p32
aS'r'
aS'oracle'
p33
aS'organization'
p34
asS'working-year'
p35
(lp36
V(0, 2]
p37
aV(2, 5]
p38
asS'major'
p39
(lp40
VMathematics
p41
aVData Science
p42
aVEngineering
p43
aVBusiness
p44
aVManagement Science and Engineering
p45
asS'education'
p46
(lp47
VBachelor
p48
aVMaster
p49
asS'responsibility'
p50
(lp51
S'development'
p52
aS'information'
p53
aS'pattern'
p54
aS'analysis'
p55
aS'develop ... model'
p56
aS'modeling'
p57
aS'model'
p58
aS'improvement'
p59
aS'presentation'
p60
aS'transformation'
p61
as.