(dp1
S'skills'
p2
(lp3
S'research design'
p4
aS'consulting'
p5
aS'programming'
p6
aS'data science'
p7
aS'tableau'
p8
aS'analytics'
p9
aS'engineering'
p10
aS'data mining'
p11
aVpanda
p12
aS'open source'
p13
aS'big data'
p14
aS'predictive modeling'
p15
aS'integration'
p16
aS'research'
p17
aS'computer science'
p18
aS'communication'
p19
aS'mathematics'
p20
aS'numpy'
p21
aS'operations research'
p22
aS'matlab'
p23
aS'teradata'
p24
aS'theory'
p25
aS'python'
p26
aS'marketing'
p27
aS'collaboration'
p28
aS'data scientist'
p29
aS'scipy'
p30
aS'octave'
p31
aS'sql'
p32
aS'modeling'
p33
aS'data'
p34
aS'statistical programming'
p35
aS'science'
p36
aS'scikit-learn'
p37
aS'analysis'
p38
aS'machine learning'
p39
aS'data architecture'
p40
aS'r'
aS'architecture'
p41
aS'organization'
p42
aS'rapid prototyping'
p43
aS'data integration'
p44
aS'predictive analytics'
p45
asS'working-year'
p46
(lp47
V(0, 2]
p48
aV(2, 5]
p49
asS'major'
p50
(lp51
S'science'
p52
aS'mathematics'
p53
aS'big data'
p54
aS'analytics'
p55
aS'marketing'
p56
aS'data science'
p57
aS'statistic'
p58
aS'communication'
p59
aS'machine learning'
p60
aS'mathematics statistics'
p61
aS'engineering'
p62
aS'design'
p63
aS'computer science'
p64
aS'phd'
p65
aS'data mining'
p66
aS'computer science engineering'
p67
aS'data science operations research'
p68
aS'operations research'
p69
aS'predictive analytics'
p70
asS'education'
p71
(lp72
VMaster
p73
aVDoctor
p74
asS'responsibility'
p75
(lp76
S'exploratory analysis'
p77
aS'pattern'
p78
aS'analysis'
p79
aS'analytic'
p80
aS'design'
p81
aS'data mining'
p82
aS'modeling'
p83
aS'prototype'
p84
as.