(dp1
S'skills'
p2
(lp3
S'risk modeling'
p4
aS'classification'
p5
aS'communication'
p6
aS'data science'
p7
aS'analytics'
p8
aS'engineering'
p9
aS'data mining'
p10
aS'accounting'
p11
aS'regression'
p12
aS'clustering'
p13
aS'visualization'
p14
aS'management'
p15
aS'probability'
p16
aS'anomaly detection'
p17
aS'strategy'
p18
aS'risk management'
p19
aS'fraud detection'
p20
aS'computer science'
p21
aS'data analysis'
p22
aS'finance'
p23
aS'statistical modeling'
p24
aS'sql'
p25
aS'modeling'
p26
aS'data'
p27
aS'fraud'
p28
aS'data visualization'
p29
aS'science'
p30
aS'economics'
p31
aS'analysis'
p32
aS'machine learning'
p33
aS'credit'
p34
asS'working-year'
p35
(lp36
V(2, 5]
p37
asS'major'
p38
(lp39
S'management'
p40
aS'finance'
p41
aS'business'
p42
aS'science'
p43
aS'data science'
p44
aS'economics'
p45
aS'data science analytics'
p46
aS'statistic'
p47
aS'machine learning data mining'
p48
aS'analytics'
p49
aS'engineering'
p50
aS'finance accounting'
p51
aS'design'
p52
aS'computer science'
p53
aS'data mining'
p54
aS'communication'
p55
aS'accounting'
p56
aS'machine learning'
p57
aS'computer science economics'
p58
asS'education'
p59
(lp60
VMaster
p61
asS'responsibility'
p62
(lp63
S'product'
p64
aS'data analysis'
p65
aS'business problem'
p66
aS'communicate'
p67
aS'analysis'
p68
aS'statistical model'
p69
aS'design'
p70
aS'data mining'
p71
aS'modeling'
p72
aS'model'
p73
as.