(dp1
S'skills'
p2
(lp3
S'forecasting'
p4
aS'programming'
p5
aS'julia'
p6
aS'scientific computing'
p7
aS'analytics'
p8
aS'engineering'
p9
aS'analysis'
p10
aS'problem solving'
p11
aS'data mining'
p12
aS'hbase'
p13
aS'research'
p14
aS'quantitative analysis'
p15
aS'experimentation'
p16
aS'statistics'
p17
aS'java'
p18
aS'big data'
p19
aS'user experience'
p20
aS'solr'
p21
aS'predictive modeling'
p22
aS'education'
p23
aS'hadoop'
p24
aS'perl'
p25
aS'mahout'
p26
aS'strategy'
p27
aS'optimization'
p28
aS'computer science'
p29
aS'communication'
p30
aS'intelligence'
p31
aS'mathematics'
p32
aS'unstructured data'
p33
aS'matlab'
p34
aS'segmentation'
p35
aS'data analysis'
p36
aS'python'
p37
aS'marketing'
p38
aS'data scientist'
p39
aS'experimental design'
p40
aS'hive'
p41
aS'octave'
p42
aS'sql'
p43
aS'modeling'
p44
aS'data'
p45
aS'c'
aS'science'
p46
aS'business strategy'
p47
aS'communication skills'
p48
aS'machine learning'
p49
aS'lucene'
p50
aS'weka'
p51
aS'r'
aS'data analytics'
p52
aS'scripting'
p53
aS'statistical analysis'
p54
asS'working-year'
p55
(lp56
V(2, 5]
p57
asS'major'
p58
(lp59
VStatistics
p60
aVBusiness
p61
aVData Science
p62
aVEconomics
p63
aVEngineering
p64
aVComputer Science
p65
aVMathematics
p66
asS'education'
p67
(lp68
VDoctor
p69
asS'responsibility'
p70
(lp71
S'forecasting'
p72
aS'data analysis'
p73
aS'quantitative analysis'
p74
aS'business problem'
p75
aS'pattern'
p76
aS'insight'
p77
aS'communicate'
p78
aS'product'
p79
aS'analysis'
p80
aS'analytic'
p81
aS'optimization'
p82
aS'design'
p83
aS'data mining'
p84
aS'understand'
p85
aS'modeling'
p86
aS'extract'
p87
aS'model'
p88
as.