(dp1
S'skills'
p2
(lp3
S'consulting'
p4
aS'r d'
p5
aS'communication'
p6
aS'energy'
p7
aS'hadoop'
p8
aS'hardware'
p9
aS'analytics'
p10
aS'engineering'
p11
aS'personalization'
p12
aS'tableau'
p13
aS'management'
p14
aS'big data'
p15
aS'predictive modeling'
p16
aS'integration'
p17
aS'strategy'
p18
aS'innovation'
p19
aS'advanced analytics'
p20
aS'master data management'
p21
aS'electronics'
p22
aS'data management'
p23
aS'product development'
p24
aS'marketing'
p25
aS'philosophy'
p26
aS'leadership'
p27
aS'data'
p28
aS'customer relations'
p29
aS'project management'
p30
aS'cloudera'
p31
aS'analysis'
p32
aS'customer analytics'
p33
aS'organization'
p34
aS'data analytics'
p35
asS'working-year'
p36
(lp37
V[0]
p38
asS'major'
p39
(lp40
S'information'
p41
aS'management'
p42
aS'telecommunication'
p43
aS'big data'
p44
aS'marketing'
p45
aS'philosophy'
p46
aS'general'
p47
aS'business'
p48
aS'analytics'
p49
aS'engineering'
p50
aS'information system'
p51
aS'design'
p52
aS'data analytics'
p53
aS'communication'
p54
aS'advanced analytics'
p55
aS'electronics'
p56
aS'project management'
p57
asS'education'
p58
(lp59
VMaster
p60
aVDoctor
p61
asS'responsibility'
p62
(lp63
S'development'
p64
aS'information'
p65
aS'product'
p66
aS'support platform'
p67
aVinsight
p68
aS'communicate'
p69
aS'analysis'
p70
aS'analytic'
p71
aS'design'
p72
aS'understand'
p73
aS'model'
p74
aS'presentation'
p75
as.