(dp1
S'skills'
p2
(lp3
S'science'
p4
aS'search'
p5
aS'retail'
p6
aS'pig'
p7
aS'big data'
p8
aS'communication'
p9
aS'predictive analytics'
p10
aS'data scientist'
p11
aS'hadoop'
p12
aS'communication skills'
p13
aS'machine learning'
p14
aS'analytics'
p15
aS'business intelligence'
p16
aS'computer science'
p17
aS'data mining'
p18
aS'intelligence'
p19
aS'analysis'
p20
aS'spark'
p21
aS'research'
p22
aS'data'
p23
aS'advertising'
p24
asS'working-year'
p25
(lp26
V(0, 2]
p27
asS'major'
p28
(lp29
S'business intelligence analytics'
p30
aS'business'
p31
aS'big data'
p32
aS'science'
p33
aS'statistic'
p34
aS'communication'
p35
aS'computer science statistics'
p36
aS'machine learning'
p37
aS'analytics'
p38
aS'computer science'
p39
aS'data mining'
p40
aS'machine learning data mining'
p41
aS'ee computer science'
p42
aS'predictive analytics'
p43
asS'education'
p44
(lp45
VMaster
p46
aVDoctor
p47
asS'responsibility'
p48
(lp49
S'business problem'
p50
aVinsight
p51
aS'communicate'
p52
aS'analysis'
p53
aS'improvement'
p54
aS'data mining'
p55
as.