(dp1
S'skills'
p2
(lp3
S'speech recognition'
p4
aS'forecasting'
p5
aS'networking'
p6
aS'communication'
p7
aS'data mining'
p8
aS'analytics'
p9
aS'engineering'
p10
aS'analysis'
p11
aS'modeling'
p12
aS'hbase'
p13
aS'research'
p14
aS'experimentation'
p15
aS'data center'
p16
aS'statistics'
p17
aS'java'
p18
aS'big data'
p19
aS'deep learning'
p20
aS'predictive modeling'
p21
aS'storage'
p22
aS'hadoop'
p23
aS'perl'
p24
aS'mahout'
p25
aS'strategy'
p26
aS'computer science'
p27
aS'natural language processing'
p28
aS'intelligence'
p29
aS'mathematics'
p30
aS'unstructured data'
p31
aS'artificial intelligence'
p32
aS'matlab'
p33
aS'data analysis'
p34
aS'government'
p35
aS'python'
p36
aS'processing'
p37
aS'mpi'
p38
aS'octave'
p39
aS'sql'
p40
aS'neuroscience'
p41
aS'spark'
p42
aS'data'
p43
aS'c'
aS'cluster'
p44
aS'computational neuroscience'
p45
aS'business strategy'
p46
aS'communication skills'
p47
aS'machine learning'
p48
aS'lucene'
p49
aS'weka'
p50
aS'r'
aS'solr'
p51
aS'architecture'
p52
aS'science'
p53
aS'electrical engineering'
p54
aS'scripting'
p55
asS'working-year'
p56
(lp57
V(2, 5]
p58
asS'major'
p59
(lp60
VStatistics
p61
aVBusiness
p62
aVData Science
p63
aVElectrical and Electronics Engineering
p64
aVEngineering
p65
aVCognitive Science
p66
aVComputer Science
p67
aVMathematics
p68
asS'education'
p69
(lp70
VDoctor
p71
asS'responsibility'
p72
(lp73
S'data mining'
p74
aS'forecasting'
p75
aS'data analysis'
p76
aS'processing'
p77
aS'business problem'
p78
aS'pattern'
p79
aS'insight'
p80
aS'product'
p81
aS'analysis'
p82
aS'recommendation'
p83
aS'modeling'
p84
aS'model'
p85
aS'extract'
p86
aS'transformation'
p87
as.