(dp1
S'skills'
p2
(lp3
S'r d'
p4
aS'communication'
p5
aS'data science'
p6
aS'analytics'
p7
aS'analysis'
p8
aS'quantitative analysis'
p9
aS'excel'
p10
aS'data analysis'
p11
aS'distributed computing'
p12
aS'python'
p13
aS'data scientist'
p14
aS'facebook'
p15
aS'scripting'
p16
aS'sql'
p17
aS'php'
p18
aS'data'
p19
aS'search'
p20
aS'science'
p21
aS'documentation'
p22
aS'communication skills'
p23
aS'dashboard'
p24
aS'etl'
p25
asS'working-year'
p26
(lp27
V(5, 10]
p28
asS'major'
p29
(lp30
S'business'
p31
aS'computing'
p32
aS'communication'
p33
aS'data science'
p34
aS'mba'
p35
aS'general'
p36
aS'analytics'
p37
aS'science'
p38
asS'education'
p39
(lp40
VMaster
p41
asS'responsibility'
p42
(lp43
S'financial model'
p44
aS'product'
p45
aS'build dashboard'
p46
aS'large data set'
p47
aS'ensure accuracy'
p48
aVinsight
p49
aS'analysis'
p50
aS'cross-functionally'
p51
aS'data analysis'
p52
aS'understand'
p53
aS'model'
p54
aS'quantitative analysis'
p55
aS'documentation'
p56
as.