(dp1
S'skills'
p2
(lp3
S'artificial intelligence'
p4
aS'programming'
p5
aS'deep learning'
p6
aS'data science'
p7
aS'processing'
p8
aS'data scientist'
p9
aS'reinforcement learning'
p10
aS'analysis'
p11
aS'machine learning'
p12
aS'computer science'
p13
aS'natural language processing'
p14
aS'intelligence'
p15
aS'mathematics'
p16
aS'research'
p17
aS'data'
p18
aS'applied mathematics'
p19
aS'semantics'
p20
aS'science'
p21
asS'working-year'
p22
(lp23
V[0]
p24
asS'major'
p25
(lp26
S'science'
p27
aS'applied mathematics'
p28
aS'applied math'
p29
aS'statistic'
p30
aS'reinforcement learning'
p31
aS'machine learning'
p32
aS'artificial intelligence machine learning'
p33
aS'computer science'
p34
aS'natural language processing'
p35
aS'mathematics'
p36
aS'data science'
p37
aS'artificial intelligence'
p38
asS'education'
p39
(lp40
S'Bachelor'
p41
asS'responsibility'
p42
(lp43
S'processing'
p44
aS'non-routine analysis problem'
p45
aS'analytical method'
p46
aVinsight
p47
aS'ongoing deliverable'
p48
aS'analysis'
p49
aVrequirement specification
p50
aS'complex data set'
p51
aS'report'
p52
aS'understand'
p53
aS'model'
p54
aS'prototype'
p55
aS'data gathering'
p56
as.