(dp1
S'skills'
p2
(lp3
S'computer security'
p4
aS'communication'
p5
aS'data acquisition'
p6
aS'integration'
p7
aS'cluster'
p8
aS'engineering'
p9
aS'enterprise software'
p10
aS'troubleshooting'
p11
aS'hbase'
p12
aS'continuous improvement'
p13
aS'cassandra'
p14
aS'management'
p15
aS'open source'
p16
aS'big data'
p17
aS'analytics'
p18
aS'r d'
p19
aS'storage'
p20
aS'hadoop'
p21
aS'research'
p22
aS'access'
p23
aS'unstructured data'
p24
aS'product development'
p25
aS'processing'
p26
aS'data scientist'
p27
aS'performance measurement'
p28
aS'data quality'
p29
aS'leadership'
p30
aS'mentoring'
p31
aS'data processing'
p32
aS'dna'
p33
aS'spark'
p34
aS'data'
p35
aS'software development'
p36
aS'saas'
p37
aS'data visualization'
p38
aS'presto'
p39
aS'cloud computing'
p40
aS'solution architecture'
p41
aS'machine learning'
p42
aS'data engineering'
p43
aS'optimization'
p44
aS'architecture'
p45
aS'security'
p46
aS'high availability'
p47
asS'working-year'
p48
(lp49
V(5, 10]
p50
aV(2, 5]
p51
asS'major'
p52
(lp53
S'management'
p54
aS'business'
p55
aS'big data'
p56
aS'computing'
p57
aS'communication'
p58
aS'machine learning'
p59
aS'analytics'
p60
aS'engineering'
p61
aS'design'
p62
aS'computer security'
p63
asS'education'
p64
(lp65
S'Bachelor'
p66
asS'responsibility'
p67
(lp68
S'development'
p69
aS'product'
p70
aS'processing'
p71
aVinsight
p72
aS'improvement'
p73
aS'optimization'
p74
aS'design'
p75
aS'ownership'
p76
aS'implement'
p77
as.