(dp1
S'skills'
p2
(lp3
S'data modeling'
p4
aS'r d'
p5
aS'quantitative analysis'
p6
aS'python'
p7
aS'communication'
p8
aS'data mining'
p9
aS'analysis'
p10
aS'machine learning'
p11
aS'engineering'
p12
aS'r'
aS'computer science'
p13
aS'statistical modeling'
p14
aS'sql'
p15
aS'modeling'
p16
aS'problem solving'
p17
aS'data'
p18
aS'science'
p19
asS'working-year'
p20
(lp21
V(2, 5]
p22
asS'major'
p23
(lp24
S'science'
p25
aS'applied math'
p26
aS'statistic'
p27
aS'machine learning'
p28
aS'statistics computer science'
p29
aS'engineering'
p30
aS'design'
p31
aS'computer science'
p32
aS'data mining'
p33
aS'communication'
p34
aS'machine learning engineer'
p35
asS'education'
p36
(lp37
VBachelor
p38
asS'responsibility'
p39
(lp40
S'development'
p41
aS'quantitative analysis'
p42
aVinsight
p43
aS'analysis'
p44
aS'statistical model'
p45
aS'design'
p46
aS'data mining'
p47
aS'modeling'
p48
aS'implement'
p49
aS'presentation'
p50
aS'model'
p51
as.