(dp1
S'skills'
p2
(lp3
S'clustering'
p4
aS'visualization'
p5
aS'structural equation modeling'
p6
aS'data visualization'
p7
aS'predictive modeling'
p8
aS'segmentation'
p9
aS'analysis'
p10
aS'tableau'
p11
aS'r'
aS'dashboard'
p12
aS'sql'
p13
aS'factor analysis'
p14
aS'modeling'
p15
aS'pca'
p16
aS'data'
p17
aS'regression'
p18
asS'working-year'
p19
(lp20
V(5, 10]
p21
asS'major'
p22
(lp23
sS'education'
p24
(lp25
S'Bachelor'
p26
asS'responsibility'
p27
(lp28
S'modeling'
p29
aS'implement'
p30
aS'mapping'
p31
aS'analysis'
p32
as.