(dp1
S'skills'
p2
(lp3
S'quality improvement'
p4
aS'continuous improvement'
p5
aS'r d'
p6
aS'shell scripting'
p7
aS'intelligence'
p8
aS'mysql'
p9
aS'hardware'
p10
aS'analytics'
p11
aS'business intelligence'
p12
aS'data warehousing'
p13
aS'hive'
p14
aS'data mining'
p15
aS'unix shell scripting'
p16
aS'regression'
p17
aS'clustering'
p18
aS'visualization'
p19
aS'big data'
p20
aS'tableau'
p21
aS'research'
p22
aS'etl'
p23
aS'json'
p24
aS'mathematics'
p25
aS'unstructured data'
p26
aS'operations research'
p27
aS'teradata'
p28
aS'data analysis'
p29
aS'python'
p30
aS'sql'
p31
aS'spark'
p32
aS'data'
p33
aS'hardware diagnostics'
p34
aS'six sigma'
p35
aS'software engineering'
p36
aS'engineering'
p37
aS'analysis'
p38
aS'machine learning'
p39
aS'jenkins'
p40
aS'dashboard'
p41
aS'scripting'
p42
asS'working-year'
p43
(lp44
V(5, 10]
p45
asS'major'
p46
(lp47
S'mathematics'
p48
aS'business'
p49
aS'big data'
p50
aS'machine learning statistics'
p51
aS'statistic'
p52
aS'data analyst'
p53
aS'machine learning'
p54
aS'analytics'
p55
aS'engineering'
p56
aS'operations research'
p57
aS'data mining'
p58
aS'software engineering'
p59
aS'statistics operations research'
p60
aS'data mining machine learning'
p61
asS'education'
p62
(lp63
VMaster
p64
aVDoctor
p65
asS'responsibility'
p66
(lp67
S'development'
p68
aS'product'
p69
aS'data analysis'
p70
aS'pattern'
p71
aVinsight
p72
aS'analysis'
p73
aS'improvement'
p74
aS'data mining'
p75
as.