(dp1
S'skills'
p2
(lp3
S'consulting'
p4
aS'communication'
p5
aS'data science'
p6
aS'testing'
p7
aS'analytics'
p8
aS'problem solving'
p9
aS'research'
p10
aS'critical thinking'
p11
aS'writing'
p12
aS'access'
p13
aS'computer science'
p14
aS'transportation'
p15
aS'python'
p16
aS'collaboration'
p17
aS'semantic analysis'
p18
aS'data scientist'
p19
aS'data quality'
p20
aS'leadership'
p21
aS'data'
p22
aS'software development'
p23
aS'risk assessment'
p24
aS'science'
p25
aS'analysis'
p26
aS'machine learning'
p27
aS'healthcare'
p28
aS'data analytics'
p29
aS'predictive analytics'
p30
asS'working-year'
p31
(lp32
V[0]
p33
asS'major'
p34
(lp35
S'transportation'
p36
aS'business'
p37
aS'science'
p38
aS'machine learning data science'
p39
aS'statistic'
p40
aS'communication'
p41
aS'machine learning'
p42
aS'analytics'
p43
aS'computer science'
p44
aS'berkeley'
p45
aS'phd'
p46
aS'data science'
p47
aS'data analytics'
p48
aS'predictive analytics'
p49
asS'education'
p50
(lp51
VMaster
p52
aVDoctor
p53
asS'responsibility'
p54
(lp55
S'development'
p56
aS'large data set'
p57
aS'product'
p58
aS'communicate'
p59
aS'analysis'
p60
aS'statistical method'
p61
aS'complex data set'
p62
aS'identify opportunity'
p63
aS'report'
p64
aS'presentation'
p65
as.