(dp1
S'skills'
p2
(lp3
S'communication'
p4
aS'sql'
p5
aS'analytics'
p6
aS'engineering'
p7
aS'statistical analysis'
p8
aS'data mining'
p9
aS'go'
p10
aS'research'
p11
aS'insurance'
p12
aS'experimentation'
p13
aS'visualization'
p14
aS'java'
p15
aS'big data'
p16
aS'perl'
p17
aS'big data analytics'
p18
aS'strategy'
p19
aS'computer science'
p20
aS'innovation'
p21
aS'mathematics'
p22
aS'data analysis'
p23
aS'python'
p24
aS'javascript'
p25
aS'aws'
p26
aS'data wrangling'
p27
aS'sensors'
p28
aS'data'
p29
aS'c'
aS'data visualization'
p30
aS'science'
p31
aS'programming'
p32
aS'analysis'
p33
aS'machine learning'
p34
aS'r'
aS'data analytics'
p35
aS'electrical engineering'
p36
aS'physics'
p37
aS'scripting'
p38
asS'working-year'
p39
(lp40
V(5, 10]
p41
asS'major'
p42
(lp43
VBusiness
p44
aVData Science
p45
aVElectrical and Electronics Engineering
p46
aVEngineering
p47
aVComputer Science
p48
aVMathematics
p49
aVPhysics
p50
asS'education'
p51
(lp52
VBachelor
p53
aVDoctor
p54
asS'responsibility'
p55
(lp56
S'development'
p57
aS'large data set'
p58
aS'product'
p59
aS'data analysis'
p60
aS'build model'
p61
aS'data wrangling'
p62
aS'business problem'
p63
aS'insight'
p64
aS'analysis'
p65
aS'develop ... model'
p66
aS'analytic'
p67
aS'design'
p68
aS'data mining'
p69
aS'model'
p70
as.