(dp1
S'skills'
p2
(lp3
S'consulting'
p4
aS'biostatistics'
p5
aS'data science'
p6
aS'management consulting'
p7
aS'pig'
p8
aS'analytics'
p9
aS'engineering'
p10
aS'product strategy'
p11
aS'problem solving'
p12
aS'data mining'
p13
aS'sas'
p14
aS'spss'
p15
aS'quantitative analysis'
p16
aS'sociology'
p17
aS'psychology'
p18
aS'statistics'
p19
aS'saas'
p20
aS'hadoop'
p21
aS'research'
p22
aS'market research'
p23
aS'strategy'
p24
aS'statistical software'
p25
aS'computer science'
p26
aS'stata'
p27
aS'advanced analytics'
p28
aS'unstructured data'
p29
aS'operations research'
p30
aS'data analysis'
p31
aS'finance'
p32
aS'python'
p33
aS'collaboration'
p34
aS'leadership'
p35
aS'bloomberg'
p36
aS'sql'
p37
aS'modeling'
p38
aS'spark'
p39
aS'data'
p40
aS'customer experience'
p41
aS'management'
p42
aS'science'
p43
aS'economics'
p44
aS'analysis'
p45
aS'machine learning'
p46
aS'r'
aS'product management'
p47
aS'organization'
p48
aS'data analytics'
p49
asS'working-year'
p50
(lp51
S'[0]'
p52
asS'major'
p53
(lp54
VStatistics
p55
aVPsychology
p56
aVBusiness
p57
aVData Science
p58
aVEconomics
p59
aVEngineering
p60
aVSociology
p61
aVComputer Science
p62
aVBiological Engineering
p63
aVOperations Research
p64
aVManagement Science and Engineering
p65
asS'education'
p66
(lp67
VMaster
p68
aVDoctor
p69
asS'responsibility'
p70
(lp71
S'development'
p72
aS'large data set'
p73
aS'product'
p74
aS'data analysis'
p75
aS'communicate'
p76
aS'analysis'
p77
aS'analytic'
p78
aS'drive ... model'
p79
aS'design'
p80
aS'data mining'
p81
aS'understand'
p82
aS'modeling'
p83
aS'quantitative analysis'
p84
aS'model'
p85
as.