(dp1
S'skills'
p2
(lp3
S'consulting'
p4
aS'biostatistics'
p5
aS'data science'
p6
aS'management consulting'
p7
aS'pig'
p8
aS'analytics'
p9
aS'engineering'
p10
aS'product strategy'
p11
aS'problem solving'
p12
aS'data mining'
p13
aS'spss'
p14
aS'quantitative analysis'
p15
aS'sociology'
p16
aS'psychology'
p17
aS'saas'
p18
aS'hadoop'
p19
aS'research'
p20
aS'market research'
p21
aS'strategy'
p22
aS'statistical software'
p23
aS'computer science'
p24
aS'stata'
p25
aS'advanced analytics'
p26
aS'unstructured data'
p27
aS'operations research'
p28
aS'data analysis'
p29
aS'finance'
p30
aS'python'
p31
aS'collaboration'
p32
aS'data scientist'
p33
aS'leadership'
p34
aS'bloomberg'
p35
aS'sql'
p36
aS'modeling'
p37
aS'spark'
p38
aS'data'
p39
aS'customer experience'
p40
aS'management'
p41
aS'science'
p42
aS'economics'
p43
aS'analysis'
p44
aS'machine learning'
p45
aS'r'
aS'product management'
p46
aS'organization'
p47
aS'data analytics'
p48
asS'working-year'
p49
(lp50
V[0]
p51
asS'major'
p52
(lp53
S'biostatistics'
p54
aS'data science'
p55
aS'data mining'
p56
aS'analytics'
p57
aS'engineering'
p58
aS'design'
p59
aS'statistic'
p60
aS'statistics operations research'
p61
aS'management'
p62
aS'psychology'
p63
aS'computer science statistics'
p64
aS'computer science'
p65
aS'advanced analytics'
p66
aS'operations research'
p67
aS'data mining machine learning'
p68
aS'finance'
p69
aS'business'
p70
aS'phd'
p71
aS'sociology'
p72
aS'management science'
p73
aS'data analytics business'
p74
aS'economics'
p75
aS'machine learning'
p76
aS'science'
p77
aS'data science engineering'
p78
aS'data analytics'
p79
asS'education'
p80
(lp81
VMaster
p82
aVDoctor
p83
asS'responsibility'
p84
(lp85
S'development'
p86
aS'large data set'
p87
aS'product'
p88
aS'data analysis'
p89
aS'quantitative analysis'
p90
aS'communicate'
p91
aS'analysis'
p92
aS'analytic'
p93
aS'design'
p94
aS'data mining'
p95
aS'understand'
p96
aS'modeling'
p97
aS'drive model'
p98
aS'model'
p99
as.