(dp1
S'skills'
p2
(lp3
S'r d'
p4
aS'analytics'
p5
aS'visualization'
p6
aS'java'
p7
aS'big data'
p8
aS'scala'
p9
aS'hadoop'
p10
aS'access'
p11
aS'computer science'
p12
aS'mathematics'
p13
aS'matlab'
p14
aS'data analysis'
p15
aS'python'
p16
aS'collaboration'
p17
aS'data scientist'
p18
aS'spark'
p19
aS'data'
p20
aS'science'
p21
aS'analysis'
p22
aS'machine learning'
p23
aS'r'
aS'dashboard'
p24
aS'impala'
p25
aS'predictive analytics'
p26
asS'working-year'
p27
(lp28
V[0]
p29
asS'major'
p30
(lp31
S'information'
p32
aS'business'
p33
aS'big data'
p34
aS'science'
p35
aS'machine learning'
p36
aS'analytics'
p37
aS'design'
p38
aS'computer science'
p39
aS'mathematics'
p40
aS'mathematics computer science'
p41
aVphysic
p42
aS'predictive analytics'
p43
asS'education'
p44
(lp45
VMaster
p46
asS'responsibility'
p47
(lp48
S'information'
p49
aS'product'
p50
aVproduct operation
p51
aS'design experiment'
p52
aS'exploratory analysis'
p53
aS'define metric'
p54
aVinsight
p55
aS'analysis'
p56
aS'analytic'
p57
aS'build dashboard'
p58
aS'design'
p59
aS'data analysis'
p60
aS'complex data set'
p61
aS'model'
p62
as.