(dp1
S'skills'
p2
(lp3
S'data mining'
p4
aS'statistical analysis'
p5
aS'personalization'
p6
aS'hbase'
p7
aS'open source'
p8
aS'big data'
p9
aS'hadoop'
p10
aS'research'
p11
aS'optimization'
p12
aS'gurobi'
p13
aS'matlab'
p14
aS'policy'
p15
aS'data analysis'
p16
aS'data scientist'
p17
aS'search'
p18
aS'modeling'
p19
aS'data'
p20
aS'customer experience'
p21
aS'training'
p22
aS'mysql'
p23
aS'mapreduce'
p24
aS'analysis'
p25
aS'machine learning'
p26
aS'e-commerce'
p27
aS'weka'
p28
aS'r'
asS'working-year'
p29
(lp30
V[0]
p31
asS'major'
p32
(lp33
S'business'
p34
aS'big data'
p35
aS'machine learning data mining'
p36
aS'machine learning'
p37
aS'design'
p38
aS'data mining'
p39
aS'phd'
p40
asS'education'
p41
(lp42
VDoctor
p43
asS'responsibility'
p44
(lp45
S'development'
p46
aS'large data set'
p47
aS'product'
p48
aS'data analysis'
p49
aS'develop model'
p50
aS'recommendation'
p51
aS'analysis'
p52
aS'improvement'
p53
aS'optimization'
p54
aS'design'
p55
aS'data mining'
p56
aS'validate model'
p57
aS'complex data set'
p58
aS'modeling'
p59
aS'prototype'
p60
aS'model'
p61
as.