(dp1
S'skills'
p2
(lp3
S'big data'
p4
aS'communication'
p5
aS'data science'
p6
aS'data scientist'
p7
aS'strategy'
p8
aS'e-commerce'
p9
aS'science'
p10
aS'data'
p11
asS'working-year'
p12
(lp13
V[0]
p14
asS'major'
p15
(lp16
S'information'
p17
aS'big data'
p18
aS'business'
p19
aS'communication'
p20
aS'data science'
p21
aS'science'
p22
asS'education'
p23
(lp24
S'Bachelor'
p25
asS'responsibility'
p26
(lp27
S'report'
p28
aS'predict'
p29
aS'information'
p30
as.