(dp1
S'skills'
p2
(lp3
S'scientific programming'
p4
aS'statistical modeling'
p5
aS'data science'
p6
aS'robotics'
p7
aS'scientific computing'
p8
aS'hardware'
p9
aS'insurance'
p10
aS'gis'
p11
aS'deep learning'
p12
aS'integration'
p13
aS'research'
p14
aS'opencv'
p15
aS'computer vision'
p16
aS'tensorflow'
p17
aS'numpy'
p18
aS'testing'
p19
aS'python'
p20
aS'collaboration'
p21
aS'data quality'
p22
aS'scipy'
p23
aS'aerospace'
p24
aS'modeling'
p25
aS'spark'
p26
aS'data'
p27
aS'software development'
p28
aS'science'
p29
aS'cloud computing'
p30
aS'programming'
p31
aS'machine learning'
p32
aS'construction'
p33
aS'theano'
p34
asS'working-year'
p35
(lp36
S'[0]'
p37
asS'major'
p38
(lp39
VData Science
p40
aVComputer Science
p41
aVBusiness
p42
asS'education'
p43
(lp44
VBachelor
p45
aVDoctor
p46
asS'responsibility'
p47
(lp48
S'development'
p49
aS'modeling'
p50
aS'product'
p51
aS'model'
p52
aS'decision making'
p53
as.