(dp1
S'skills'
p2
(lp3
S'forecasting'
p4
aS'r d'
p5
aS'probability'
p6
aS'intelligence'
p7
aS'data science'
p8
aS'analytics'
p9
aS'engineering'
p10
aS'mobile advertising'
p11
aS'scala'
p12
aS'r programming'
p13
aS'hadoop'
p14
aS'research'
p15
aS'python'
p16
aS'marketing'
p17
aS'data scientist'
p18
aS'experimental design'
p19
aS'leadership'
p20
aS'sql'
p21
aS'modeling'
p22
aS'spark'
p23
aS'data quality'
p24
aS'data'
p25
aS'c'
aS'software engineering'
p26
aS'science'
p27
aS'programming'
p28
aS'thought leadership'
p29
aS'hive'
p30
aS'machine learning'
p31
aS'r'
aS'advertising'
p32
asS'working-year'
p33
(lp34
V[0]
p35
asS'major'
p36
(lp37
S'software engineering'
p38
aS'business'
p39
aS'marketing'
p40
aS'data science'
p41
aS'machine learning'
p42
aS'analytics'
p43
aS'engineering'
p44
aS'design'
p45
aS'statistic'
p46
aS'ee cs'
p47
aS'science'
p48
asS'education'
p49
(lp50
S'Bachelor'
p51
asS'responsibility'
p52
(lp53
S'forecasting'
p54
aVinsight
p55
aS'product'
p56
aS'understand'
p57
aS'modeling'
p58
aS'design'
p59
aS'model'
p60
as.