(dp1
S'skills'
p2
(lp3
S'r d'
p4
aS'shell scripting'
p5
aS'intelligence'
p6
aS'analytics'
p7
aS'statistical analysis'
p8
aS'data mining'
p9
aS'accounting'
p10
aS'amazon web services'
p11
aS'dimensionality reduction'
p12
aS'management'
p13
aS'java'
p14
aS'anomaly detection'
p15
aS'data'
p16
aS'perl'
p17
aS'optimization'
p18
aS'web services'
p19
aS'natural language processing'
p20
aS'distributed computing'
p21
aS'finance'
p22
aS'python'
p23
aS'marketing'
p24
aS'processing'
p25
aS'data scientist'
p26
aS'business analytics'
p27
aS'sql'
p28
aS'ruby'
p29
aS'software development'
p30
aS'c'
aVbayesian method
p31
aS'scala'
p32
aS'programming'
p33
aS'analysis'
p34
aS'machine learning'
p35
aS'r'
aS'microsoft azure'
p36
aS'statistical inference'
p37
aS'scripting'
p38
asS'working-year'
p39
(lp40
V[0]
p41
asS'major'
p42
(lp43
S'information'
p44
aS'management'
p45
aS'finance'
p46
aS'business'
p47
aS'computing'
p48
aS'marketing'
p49
aS'data mining'
p50
aS'machine learning'
p51
aS'business analytics'
p52
aS'analytics'
p53
aS'natural language processing'
p54
aS'accounting'
p55
aS'general'
p56
aS'accounting finance'
p57
asS'education'
p58
(lp59
S'Bachelor'
p60
asS'responsibility'
p61
(lp62
S'development'
p63
aS'information'
p64
aS'processing'
p65
aS'recommendation'
p66
aS'analysis'
p67
aS'analytic'
p68
aS'statistical method'
p69
aS'optimization'
p70
aS'data mining'
p71
as.