(dp1
S'skills'
p2
(lp3
S'search'
p4
aS'open source'
p5
aS'open source software'
p6
aS'science'
p7
aS'mapreduce'
p8
aS'analysis'
p9
aS'hadoop'
p10
aS'hive'
p11
aS'unix'
p12
aS'computer science'
p13
aS'problem solving'
p14
aS'data'
p15
aVpanda
p16
aS'scripting'
p17
asS'working-year'
p18
(lp19
V(2, 5]
p20
asS'major'
p21
(lp22
S'science'
p23
aS'physics computer science'
p24
aS'computer science'
p25
aVphysic
p26
aS'statistic'
p27
asS'education'
p28
(lp29
VMaster
p30
asS'responsibility'
p31
(lp32
S'analysis'
p33
aS'recommendation'
p34
as.