(dp1
S'skills'
p2
(lp3
S'digital marketing'
p4
aS'cognos'
p5
aS'intelligence'
p6
aS'business intelligence'
p7
aS'analysis'
p8
aS'data mining'
p9
aS'spss'
p10
aS'econometrics'
p11
aS'market research'
p12
aS'big data'
p13
aS'social networking'
p14
aS'excel'
p15
aS'tableau'
p16
aS'research'
p17
aS'access'
p18
aS'strategy'
p19
aS'optimization'
p20
aS'matlab'
p21
aS'computer science'
p22
aS'segmentation'
p23
aS'data analysis'
p24
aS'marketing'
p25
aS'statistical modeling'
p26
aS'sql'
p27
aS'modeling'
p28
aS'data'
p29
aS'econometric modeling'
p30
aS'sql server'
p31
aS'science'
p32
aS'economics'
p33
aS'business objects'
p34
aS'machine learning'
p35
aS'r'
aS'advertising'
p36
aS'marketing research'
p37
asS'working-year'
p38
(lp39
V(2, 5]
p40
asS'major'
p41
(lp42
S'science'
p43
aS'business'
p44
aS'big data'
p45
aS'statistics economics'
p46
aS'marketing'
p47
aS'economics'
p48
aS'statistic'
p49
aS'computer science statistics'
p50
aS'machine learning data mining'
p51
aS'marketing research'
p52
aS'phd'
p53
aS'data mining'
p54
aS'computer science'
p55
aS'machine learning'
p56
aS'econometrics'
p57
aS'history'
p58
asS'education'
p59
(lp60
VDoctor
p61
asS'responsibility'
p62
(lp63
S'development'
p64
aS'large data set'
p65
aS'product'
p66
aS'data analysis'
p67
aS'recommendation'
p68
aS'analysis'
p69
aS'statistical model'
p70
aS'optimization'
p71
aS'data mining'
p72
aS'modeling'
p73
as.