(dp1
S'skills'
p2
(lp3
S'attribution modeling'
p4
aS'communication'
p5
aS'data science'
p6
aS'testing'
p7
aS'business intelligence'
p8
aS'data mining'
p9
aS'direct marketing'
p10
aS'community outreach'
p11
aS'visualization'
p12
aS'predictive modeling'
p13
aS'hadoop'
p14
aS'etl'
p15
aS'statistical software'
p16
aS'stata'
p17
aS'intelligence'
p18
aS'theory'
p19
aS'python'
p20
aS'marketing'
p21
aS'data scientist'
p22
aS'multivariate testing'
p23
aS'sql'
p24
aS'modeling'
p25
aS'data'
p26
aS'econometric modeling'
p27
aS'science'
p28
aS'engineering'
p29
aS'spss'
p30
aS'r'
aS'architecture'
p31
aS'healthcare'
p32
aS'oracle'
p33
aS'retail'
p34
aVbayesian statistic
p35
aS'game theory'
p36
asS'working-year'
p37
(lp38
V(2, 5]
p39
asS'major'
p40
(lp41
S'business'
p42
aS'marketing'
p43
aS'data science'
p44
aS'data mining'
p45
aS'communication'
p46
aS'engineering'
p47
aS'statistic'
p48
aS'science'
p49
asS'education'
p50
(lp51
VMaster
p52
asS'responsibility'
p53
(lp54
S'development'
p55
aS'recommendation'
p56
aS'statistical model'
p57
aS'data mining'
p58
aS'interface'
p59
aS'modeling'
p60
aS'model'
p61
aS'business recommendation'
p62
as.