(dp1
S'skills'
p2
(lp3
S'nosql'
p4
aS'business strategy'
p5
aS'data science'
p6
aS'communication'
p7
aS'portfolio management'
p8
aS'hadoop'
p9
aS'analytics'
p10
aS'engineering'
p11
aS'product strategy'
p12
aS'linux'
p13
aS'strategy'
p14
aS'management'
p15
aS'java'
p16
aS'critical thinking'
p17
aS'agile'
p18
aS'mllib'
p19
aS'research'
p20
aS'coaching'
p21
aS'optimization'
p22
aS'ip'
p23
aS'mathematics'
p24
aS'transportation'
p25
aS'performance management'
p26
aS'healthcare'
p27
aS'python'
p28
aS'gas'
p29
aS'collaboration'
p30
aS'philosophy'
p31
aS'data scientist'
p32
aS'scalability'
p33
aS'leadership'
p34
aS'chemical engineering'
p35
aS'sql'
p36
aS'modeling'
p37
aS'spark'
p38
aS'manufacturing'
p39
aS'data'
p40
aS'tensorflow'
p41
aS'project management'
p42
aS'c'
aS'data collection'
p43
aS'software engineering'
p44
aS'windows'
p45
aS'science'
p46
aS'aws'
p47
aS'scikit-learn'
p48
aS'analysis'
p49
aS'machine learning'
p50
aS'r'
aS'architecture'
p51
aS'deep learning'
p52
aS'product management'
p53
aS'organization'
p54
aS'physics'
p55
aS'data analytics'
p56
asS'working-year'
p57
(lp58
V(10, 15]
p59
asS'major'
p60
(lp61
VBusiness
p62
aVData Science
p63
aVEngineering
p64
aVComputer Science
p65
aVChemical Engineering
p66
aVMathematics
p67
aVPhysics
p68
aVManagement Science and Engineering
p69
asS'education'
p70
(lp71
VMaster
p72
aVDoctor
p73
asS'responsibility'
p74
(lp75
S'development'
p76
aS'product'
p77
aS'data collection'
p78
aS'analysis'
p79
aS'analytic'
p80
aS'interface'
p81
aS'optimization'
p82
aS'design'
p83
aS'report'
p84
aS'modeling'
p85
aS'presentation'
p86
as.