(dp1
S'skills'
p2
(lp3
S'pricing optimization'
p4
aS'data analysis'
p5
aS'statistical analysis'
p6
aS'communication'
p7
aS'applied mathematics'
p8
aS'personalization'
p9
aS'programming'
p10
aS'analysis'
p11
aS'machine learning'
p12
aS'pricing'
p13
aS'mathematics'
p14
aS'r'
aS'computer science'
p15
aS'data mining'
p16
aS'modeling'
p17
aS'data'
p18
aS'collaboration'
p19
aS'scripting'
p20
aS'science'
p21
asS'working-year'
p22
(lp23
V(2, 5]
p24
asS'major'
p25
(lp26
S'science'
p27
aS'applied mathematics'
p28
aS'data mining'
p29
aS'statistic'
p30
aS'computer science statistics'
p31
aS'machine learning'
p32
aS'statistics applied mathematics'
p33
aS'computer science'
p34
aS'applied math'
p35
aS'communication'
p36
aS'mathematics'
p37
aS'phd'
p38
aS'data mining machine learning'
p39
asS'education'
p40
(lp41
VDoctor
p42
asS'responsibility'
p43
(lp44
S'modeling'
p45
aVinsight
p46
aS'analysis'
p47
aS'data analysis'
p48
aS'data mining'
p49
as.