(dp1
S'skills'
p2
(lp3
S'qualitative research'
p4
aS'r d'
p5
aS'analytics'
p6
aS'engineering'
p7
aS'hive'
p8
aS'strategy'
p9
aVpanda
p10
aS'scala'
p11
aS'research'
p12
aS'cell'
p13
aS'leadership'
p14
aS'data modeling'
p15
aS'product development'
p16
aS'python'
p17
aS'data scientist'
p18
aS'scipy'
p19
aS'sql'
p20
aS'modeling'
p21
aS'data'
p22
aS'quantitative analytics'
p23
aS'quantitative research'
p24
aS'programming'
p25
aS'analysis'
p26
aS'r'
aS'healthcare'
p27
aS'statistical analysis'
p28
asS'working-year'
p29
(lp30
V(2, 5]
p31
asS'major'
p32
(lp33
S'analytics'
p34
aS'engineering'
p35
aS'design'
p36
asS'education'
p37
(lp38
VDoctor
p39
asS'responsibility'
p40
(lp41
S'development'
p42
aS'product'
p43
aS'exploratory analysis'
p44
aVinsight
p45
aS'communicate'
p46
aS'analysis'
p47
aS'design'
p48
aS'modeling'
p49
aS'product decision'
p50
aS'model'
p51
as.