(dp1
S'skills'
p2
(lp3
S'forecasting'
p4
aS'testing'
p5
aS'analytics'
p6
aS'engineering'
p7
aS'data-driven decision making'
p8
aS'data mining'
p9
aS'sas'
p10
aS'root'
p11
aS'strategy'
p12
aS'quantitative analysis'
p13
aS'regression'
p14
aS'statistics'
p15
aS'programming languages'
p16
aS'hadoop'
p17
aS'perl'
p18
aS'vertica'
p19
aS'statistical software'
p20
aS'computer science'
p21
aS'hypothesis testing'
p22
aS'distributed computing'
p23
aS'python'
p24
aS'data scientist'
p25
aS'hive'
p26
aS'leadership'
p27
aS'facebook'
p28
aS'sql'
p29
aS'php'
p30
aS'data'
p31
aS'etl'
p32
aS'mysql'
p33
aS'science'
p34
aS'programming'
p35
aS'analysis'
p36
aS'r'
aS'product launch'
p37
aS'dashboard'
p38
aS'oracle'
p39
aS'physics'
p40
aS'scripting'
p41
asS'working-year'
p42
(lp43
V(2, 5]
p44
asS'major'
p45
(lp46
VStatistics
p47
aVBusiness
p48
aVData Science
p49
aVEngineering
p50
aVComputer Science
p51
aVPhysics
p52
asS'education'
p53
(lp54
VBachelor
p55
asS'responsibility'
p56
(lp57
S'forecasting'
p58
aS'exploratory analysis'
p59
aS'insight'
p60
aS'solve problem'
p61
aS'data mining'
p62
aS'product decision'
p63
aS'quantitative analysis'
p64
aS'decision making'
p65
aS'product leadership'
p66
aS'large data set'
p67
aS'recommendation'
p68
aS'presentation'
p69
aS'development'
p70
aS'product'
p71
aS'data infrastructure'
p72
aS'communicate'
p73
aS'understand'
p74
aS'report'
p75
aS'identify ... trend'
p76
aS'analysis'
p77
aS'product launch'
p78
aS'model'
p79
as.