(dp1
S'skills'
p2
(lp3
S'nlp'
p4
aS'classification'
p5
aS'programming'
p6
aS'data science'
p7
aS'personalization'
p8
aS'reinforcement learning'
p9
aS'engineering'
p10
aS'data warehousing'
p11
aS'hive'
p12
aS'data mining'
p13
aS'accounting'
p14
aS'regression'
p15
aS'clustering'
p16
aS'statistics'
p17
aS'java'
p18
aS'big data'
p19
aS'anomaly detection'
p20
aS'deep learning'
p21
aS'hadoop'
p22
aS'research'
p23
aS'access'
p24
aS'vertica'
p25
aS'optimization'
p26
aS'computer science'
p27
aS'communication'
p28
aS'tensorflow'
p29
aS'operations research'
p30
aS'text mining'
p31
aS'data analysis'
p32
aS'finance'
p33
aS'python'
p34
aS'collaboration'
p35
aS'innovation'
p36
aS'data scientist'
p37
aS'apache spark'
p38
aS'linux'
p39
aS'management'
p40
aS'statistical modeling'
p41
aS'sql'
p42
aS'apache'
p43
aS'modeling'
p44
aS'spark'
p45
aS'data'
p46
aS'a'
aS'science'
p47
aS'scikit-learn'
p48
aS'analysis'
p49
aS'machine learning'
p50
aS'r'
aS'algorithms'
p51
aS'product management'
p52
aS'etl'
p53
aS'statistical analysis'
p54
asS'working-year'
p55
(lp56
V(0, 2]
p57
asS'major'
p58
(lp59
VStatistics
p60
aVBusiness
p61
aVData Science
p62
aVEconomics
p63
aVEngineering
p64
aVComputer Science
p65
aVMathematics
p66
aVOperations Research
p67
aVManagement Science and Engineering
p68
asS'education'
p69
(lp70
VBachelor
p71
aVMaster
p72
aVDoctor
p73
asS'responsibility'
p74
(lp75
S'product'
p76
aS'data analysis'
p77
aS'data infrastructure'
p78
aS'pattern'
p79
aS'communicate'
p80
aS'analysis'
p81
aS'optimization'
p82
aS'design'
p83
aS'data mining'
p84
aS'modeling'
p85
aS'model'
p86
aS'engineering design'
p87
as.