(dp1
S'skills'
p2
(lp3
S'marketing analytics'
p4
aS'chaid'
p5
aS'analytics'
p6
aS'thought leadership'
p7
aS'problem solving'
p8
aS'sas'
p9
aS'education'
p10
aS'regression'
p11
aS'excel'
p12
aS'hadoop'
p13
aS'customer retention'
p14
aS'research'
p15
aS'optimization'
p16
aS'computer science'
p17
aS'innovation'
p18
aS'pca'
p19
aS'factor analysis'
p20
aS'python'
p21
aS'marketing'
p22
aS'data scientist'
p23
aS'automation'
p24
aS'business process'
p25
aS'leadership'
p26
aS'mentoring'
p27
aS'sql'
p28
aS'modeling'
p29
aS'spark'
p30
aS'data'
p31
aS'science'
p32
aS'economics'
p33
aS'analysis'
p34
aS'simulation'
p35
aS'r'
aS'advertising'
p36
aS'logistic regression'
p37
aS'quantitative research'
p38
aVbayesian statistic
p39
aS'powerpoint'
p40
aS'data analytics'
p41
aS'trend analysis'
p42
asS'working-year'
p43
(lp44
V(5, 10]
p45
aV(2, 5]
p46
asS'major'
p47
(lp48
VData Science
p49
aVEconomics
p50
aVComputer Science
p51
aVBusiness
p52
asS'education'
p53
(lp54
VBachelor
p55
aVMaster
p56
aVDoctor
p57
asS'responsibility'
p58
(lp59
S'development'
p60
aS'analysis'
p61
aS'develop ... model'
p62
aS'optimization'
p63
aS'understand'
p64
aS'recommendation'
p65
aS'modeling'
p66
aS'model'
p67
aS'simulation'
p68
aS'presentation'
p69
aS'data aggregation'
p70
as.