(dp1
S'skills'
p2
(lp3
S'science'
p4
aS'clustering'
p5
aS'weka'
p6
aS'data'
p7
aS'data science'
p8
aS'economics'
p9
aS'programming'
p10
aS'analysis'
p11
aS'machine learning'
p12
aS'pricing'
p13
aS'credit'
p14
aS'r'
aS'matlab'
p15
aS'sql'
p16
aS'numpy'
p17
aS'regression'
p18
aS'scripting'
p19
aS'computer science'
p20
asS'working-year'
p21
(lp22
S'[0]'
p23
asS'major'
p24
(lp25
VData Science
p26
aVEconomics
p27
aVComputer Science
p28
asS'education'
p29
(lp30
VBachelor
p31
aVMaster
p32
aVDoctor
p33
asS'responsibility'
p34
(lp35
S'analytic'
p36
aS'implement'
p37
aS'recommendation'
p38
aS'analysis'
p39
aS'improvement'
p40
as.