(dp1
S'skills'
p2
(lp3
S'science'
p4
aS'management'
p5
aS'health economics'
p6
aS'healthcare industry'
p7
aS'healthcare'
p8
aS'data scientist'
p9
aS'data science'
p10
aS'economics'
p11
aS'recruiting'
p12
aS'research'
p13
aS'epidemiology'
p14
aS'engineering'
p15
aS'leadership'
p16
aS'biomedical informatics'
p17
aS'communication'
p18
aS'informatics'
p19
aS'genetics'
p20
aS'data'
p21
aS'collaboration'
p22
aS'experimentation'
p23
asS'working-year'
p24
(lp25
V(5, 10]
p26
aV(2, 5]
p27
asS'major'
p28
(lp29
S'information'
p30
aS'management'
p31
aS'genetics'
p32
aS'science'
p33
aS'data science'
p34
aS'economics'
p35
aS'communication'
p36
aS'epidemiology'
p37
aS'engineering'
p38
aS'biomedical informatics'
p39
aS'statistic'
p40
aS'informatics'
p41
aS'medical informatics'
p42
aS'data science engineering'
p43
asS'education'
p44
(lp45
S'Bachelor'
p46
asS'responsibility'
p47
(lp48
S'development'
p49
aS'information'
p50
aS'product'
p51
aS'communicate'
p52
aS'understand'
p53
aS'analytical method'
p54
as.