(dp1
S'skills'
p2
(lp3
S'knowledge management'
p4
aS'analytics'
p5
aS'engineering'
p6
aS'management'
p7
aS'agile'
p8
aS'recruiting'
p9
aS'teamwork'
p10
aS'computer science'
p11
aS'innovation'
p12
aS'intelligence'
p13
aS'product development'
p14
aS'apis'
p15
aS'collaboration'
p16
aS'data scientist'
p17
aS'military experience'
p18
aS'military'
p19
aS'data'
p20
aS'customer experience'
p21
aS'search'
p22
aS'science'
p23
aS'machine learning'
p24
aS'banking'
p25
aS'architecture'
p26
aS'product management'
p27
aS'organization'
p28
asS'working-year'
p29
(lp30
V(5, 10]
p31
aV(2, 5]
p32
asS'major'
p33
(lp34
S'information'
p35
aS'management'
p36
aS'business'
p37
aS'knowledge management'
p38
aS'mba'
p39
aS'machine learning'
p40
aS'analytics'
p41
aS'engineering'
p42
aS'computer science engineering'
p43
aS'computer science'
p44
aS'science'
p45
aS'law'
p46
aS'ee computer science'
p47
aS'history'
p48
asS'education'
p49
(lp50
VBachelor
p51
aVMaster
p52
asS'responsibility'
p53
(lp54
S'development'
p55
aS'information'
p56
aS'product'
p57
aS'business problem'
p58
as.