(dp1
S'skills'
p2
(lp3
S'data analysis'
p4
aS'r d'
p5
aS'finance'
p6
aS'statistical analysis'
p7
aS'storage'
p8
aS'data science'
p9
aS'innovation'
p10
aS'data scientist'
p11
aS'analysis'
p12
aS'machine learning'
p13
aS'strategy'
p14
aS'exploratory data analysis'
p15
aS'architecture'
p16
aS'science'
p17
aS'research'
p18
aS'data'
p19
aS'advertising'
p20
asS'working-year'
p21
(lp22
sS'major'
p23
(lp24
S'science'
p25
aS'data science'
p26
aS'finance'
p27
aS'business'
p28
aS'machine learning'
p29
asS'education'
p30
(lp31
S'Bachelor'
p32
asS'responsibility'
p33
(lp34
S'model'
p35
aS'product'
p36
aS'data analysis'
p37
aS'analysis'
p38
aS'formulate'
p39
as.