(dp1
S'skills'
p2
(lp3
S'soa'
p4
aS'consulting'
p5
aS'r d'
p6
aS'intelligence'
p7
aS'analytics'
p8
aS'business intelligence'
p9
aS'data warehousing'
p10
aS'management'
p11
aS'sharepoint'
p12
aS'outsourcing'
p13
aS'enterprise architecture'
p14
aS'innovation'
p15
aS'data management'
p16
aS'product development'
p17
aS'government'
p18
aS'data scientist'
p19
aS'aws'
p20
aS'data'
p21
aS'erp'
p22
aS'engineering'
p23
aS'e-commerce'
p24
aS'architecture'
p25
aS'organization'
p26
aS'crm'
p27
asS'working-year'
p28
(lp29
V[0]
p30
asS'major'
p31
(lp32
S'information'
p33
aS'engineering'
p34
aS'management'
p35
aS'business'
p36
aS'analytics'
p37
asS'education'
p38
(lp39
S'Bachelor'
p40
asS'responsibility'
p41
(lp42
S'development'
p43
aS'information'
p44
aS'product'
p45
as.