(dp1
S'skills'
p2
(lp3
S'research design'
p4
aS'r d'
p5
aS'data science'
p6
aS'testing'
p7
aS'pig'
p8
aS'analytics'
p9
aS'hive'
p10
aS'research'
p11
aS'econometrics'
p12
aS'experimentation'
p13
aS'visualization'
p14
aS'management'
p15
aS'open source'
p16
aS'scala'
p17
aS'data'
p18
aS'product marketing'
p19
aS'perl'
p20
aS'optimization'
p21
aS'computer science'
p22
aS'innovation'
p23
aS'advanced analytics'
p24
aS'mathematics'
p25
aS'android'
p26
aS'operations research'
p27
aS'education'
p28
aS'python'
p29
aS'marketing'
p30
aS'data scientist'
p31
aS'data quality'
p32
aS'sql'
p33
aS'java'
p34
aS'spark'
p35
aS'ruby'
p36
aS'project management'
p37
aS'c'
aS'b testing'
p38
aS'science'
p39
aS'programming'
p40
aS'analysis'
p41
aS'machine learning'
p42
aS'r'
aS'teaching'
p43
aS'scripting'
p44
aS'statistical analysis'
p45
asS'working-year'
p46
(lp47
V(2, 5]
p48
asS'major'
p49
(lp50
S'information'
p51
aS'management'
p52
aS'business'
p53
aS'analytics'
p54
aS'marketing'
p55
aS'data science'
p56
aS'data analyst'
p57
aS'machine learning'
p58
aS'analytics data science'
p59
aS'mathematics'
p60
aS'design'
p61
aS'operations research'
p62
aS'statistic'
p63
aS'advanced analytics'
p64
aS'computer science'
p65
aS'phd'
p66
aS'econometrics'
p67
aS'project management'
p68
aS'science'
p69
asS'education'
p70
(lp71
VBachelor
p72
aVDoctor
p73
asS'responsibility'
p74
(lp75
S'development'
p76
aS'information'
p77
aS'product'
p78
aS'decision-making'
p79
aS'complex data set'
p80
aVinsight
p81
aS'communicate'
p82
aS'analysis'
p83
aS'analytic'
p84
aS'optimization'
p85
aS'design'
p86
aS'recommendation'
p87
aS'report'
p88
aS'product decision'
p89
aS'implement'
p90
aS'prototype'
p91
aS'business recommendation'
p92
aS'model'
p93
as.