(dp1
S'skills'
p2
(lp3
S'r d'
p4
aS'communication'
p5
aS'data science'
p6
aS'tableau'
p7
aS'analytics'
p8
aS'd3'
p9
aS'visualization'
p10
aS'java'
p11
aS'scala'
p12
aS'hadoop'
p13
aS'music'
p14
aS'computer science'
p15
aS'mac os'
p16
aS'mathematics'
p17
aS'python'
p18
aS'data scientist'
p19
aS'sql'
p20
aS'spark'
p21
aS'pig'
p22
aS'data'
p23
aS'data visualization'
p24
aS'presto'
p25
aS'mac os x'
p26
aS'applied mathematics'
p27
aS'hive'
p28
aS'machine learning'
p29
aS'os x'
p30
aS'science'
p31
asS'working-year'
p32
(lp33
V[0]
p34
asS'major'
p35
(lp36
S'mathematics'
p37
aS'computer science applied math'
p38
aS'business'
p39
aS'analytics'
p40
aS'science'
p41
aS'applied mathematics'
p42
aS'statistic'
p43
aS'communication'
p44
aS'machine learning'
p45
aS'mathematics statistics'
p46
aS'music'
p47
aS'computer science'
p48
aS'applied math'
p49
aS'applied mathematics statistics'
p50
aS'data science'
p51
asS'education'
p52
(lp53
VMaster
p54
aVDoctor
p55
asS'responsibility'
p56
(lp57
S'product'
p58
aVinsight
p59
aS'communicate'
p60
as.