(dp1
S'skills'
p2
(lp3
S'scientific programming'
p4
aS'neural networks'
p5
aS'engineering'
p6
aS'distributed computing'
p7
aVpanda
p8
aS'dna'
p9
aS'big data'
p10
aS'biochemistry'
p11
aS'deep learning'
p12
aS'research'
p13
aS'computer science'
p14
aS'natural language processing'
p15
aS'tensorflow'
p16
aS'numpy'
p17
aS'matlab'
p18
aS'dna sequencing'
p19
aS'biology'
p20
aS'processing'
p21
aS'signal processing'
p22
aS'theory'
p23
aS'computational biology'
p24
aS'python'
p25
aS'collaboration'
p26
aS'innovation'
p27
aS'data scientist'
p28
aS'matplotlib'
p29
aS'theano'
p30
aS'bioinformatics'
p31
aS'sequencing'
p32
aS'data'
p33
aS'training'
p34
aS'software engineering'
p35
aS'science'
p36
aS'information theory'
p37
aS'programming'
p38
aS'machine learning'
p39
aS'architecture'
p40
aS'healthcare'
p41
aS'electrical engineering'
p42
asS'working-year'
p43
(lp44
V[0]
p45
asS'major'
p46
(lp47
S'information'
p48
aS'biology'
p49
aS'software engineering'
p50
aS'big data'
p51
aS'computational biology'
p52
aS'computing'
p53
aS'biochemistry'
p54
aS'science'
p55
aS'natural language processing'
p56
aS'statistic'
p57
aS'machine learning'
p58
aS'engineering'
p59
aS'design'
p60
aS'computer science'
p61
aS'machine learning big data'
p62
aS'bioinformatics'
p63
aS'electrical engineering'
p64
aS'computational biolog'
p65
aS'electrical'
p66
aVphysic
p67
asS'education'
p68
(lp69
VDoctor
p70
asS'responsibility'
p71
(lp72
S'information'
p73
aS'model'
p74
aS'processing'
p75
aS'design'
p76
aS'statistical model'
p77
as.