(dp1
S'skills'
p2
(lp3
S'research design'
p4
aS'communication'
p5
aS'analytics'
p6
aS'engineering'
p7
aS'pricing'
p8
aS'regression'
p9
aS'clustering'
p10
aS'management'
p11
aS'big data'
p12
aS'predictive modeling'
p13
aS'hadoop'
p14
aS'research'
p15
aS'big data analytics'
p16
aS'mathematics'
p17
aS'python'
p18
aS'data scientist'
p19
aS'hive'
p20
aS'sql'
p21
aS'modeling'
p22
aS'data'
p23
aS'science'
p24
aS'applied mathematics'
p25
aS'economics'
p26
aS'programming'
p27
aS'analysis'
p28
aS'engineering management'
p29
aS'banking'
p30
aS'r'
aS'logistic regression'
p31
aS'shiny'
p32
aS'data analytics'
p33
asS'working-year'
p34
(lp35
S'[0]'
p36
asS'major'
p37
(lp38
VBusiness
p39
aVData Science
p40
aVEconomics
p41
aVEngineering
p42
aVMathematics
p43
aVManagement Science and Engineering
p44
asS'education'
p45
(lp46
VMaster
p47
aVDoctor
p48
asS'responsibility'
p49
(lp50
S'product'
p51
aS'business problem'
p52
aS'insight'
p53
aS'analysis'
p54
aS'develop ... model'
p55
aS'analytic'
p56
aS'statistical model'
p57
aS'design'
p58
aS'modeling'
p59
aS'understand'
p60
aS'model'
p61
aS'prototype'
p62
as.