(dp1
S'skills'
p2
(lp3
S'nlp'
p4
aS'intelligence'
p5
aS'data science'
p6
aS'testing'
p7
aS'analytics'
p8
aS'business intelligence'
p9
aS'ansible'
p10
aS'ec2'
p11
aS'data analytics'
p12
aS'cassandra'
p13
aS'git'
p14
aS'java'
p15
aS'scala'
p16
aS'flume'
p17
aS'python'
p18
aS'aws'
p19
aS'apache spark'
p20
aS'automation'
p21
aS'management'
p22
aS'awk'
p23
aS'sql'
p24
aS'apache'
p25
aS'spark'
p26
aS'data'
p27
aS'bash'
p28
aS'groovy'
p29
aS'science'
p30
aS'machine learning'
p31
aS'h2o'
p32
aS'architecture'
p33
aS'docker'
p34
aS'etl'
p35
asS'working-year'
p36
(lp37
S'[0]'
p38
asS'major'
p39
(lp40
VData Science
p41
aVComputer Science
p42
aVBusiness
p43
aVManagement Science and Engineering
p44
asS'education'
p45
(lp46
VBachelor
p47
asS'responsibility'
p48
(lp49
S'report'
p50
aS'model'
p51
aS'extract'
p52
as.