(dp1
S'skills'
p2
(lp3
S'debugging'
p4
aS'r d'
p5
aS'probability'
p6
aS'robotics'
p7
aS'engineering'
p8
aS'ggplot2'
p9
aS'modeling'
p10
aS'laboratory'
p11
aS'insurance'
p12
aS'visualization'
p13
aS'management'
p14
aS'genetics'
p15
aS'asset management'
p16
aS'industrial engineering'
p17
aS'excel'
p18
aS'access'
p19
aS'computer science'
p20
aS'innovation'
p21
aS'medicine'
p22
aS'mathematics'
p23
aS'web development'
p24
aS'data analysis'
p25
aS'python'
p26
aS'philosophy'
p27
aS'data scientist'
p28
aS'matplotlib'
p29
aS'statistical modeling'
p30
aS'dna'
p31
aS'data'
p32
aS'statistical programming'
p33
aS'data visualization'
p34
aS'science'
p35
aS'programming'
p36
aS'analysis'
p37
aS'machine learning'
p38
aS'r'
asS'working-year'
p39
(lp40
V[0]
p41
asS'major'
p42
(lp43
S'management'
p44
aS'genetics'
p45
aS'business'
p46
aS'robotics'
p47
aS'science'
p48
aS'industrial engineering'
p49
aS'philosophy'
p50
aS'computer science mathematics'
p51
aS'machine learning'
p52
aS'statistics computer science'
p53
aS'engineering'
p54
aS'industrial engineering statistics'
p55
aS'computer science'
p56
aS'statistic'
p57
aS'medicine'
p58
aS'mathematics'
p59
aS'phd'
p60
aS'web development'
p61
asS'education'
p62
(lp63
VDoctor
p64
asS'responsibility'
p65
(lp66
S'development'
p67
aS'product'
p68
aS'data analysis'
p69
aS'analysis'
p70
aS'statistical model'
p71
aS'report'
p72
aS'modeling'
p73
as.