(dp1
S'skills'
p2
(lp3
S'r d'
p4
aS'regression analysis'
p5
aS'communication'
p6
aS'data mining'
p7
aS'engineering'
p8
aS'analysis'
p9
aS'mysql'
p10
aS'perl'
p11
aS'regression'
p12
aS'management'
p13
aS'big data'
p14
aS'data'
p15
aS'excel'
p16
aS'hadoop'
p17
aS'writing'
p18
aS'matlab'
p19
aS'computer science'
p20
aS'transportation'
p21
aS'python'
p22
aS'data scientist'
p23
aS'hive'
p24
aS'sql'
p25
aS'php'
p26
aS'ruby'
p27
aS'postgresql'
p28
aS'science'
p29
aS'communication skills'
p30
aS'r'
aS'scripting'
p31
asS'working-year'
p32
(lp33
V[0]
p34
asS'major'
p35
(lp36
S'management'
p37
aS'transportation'
p38
aS'business'
p39
aS'big data'
p40
aS'science'
p41
aS'applied math'
p42
aS'communication'
p43
aS'engineering'
p44
aS'computer science'
p45
aS'data mining'
p46
asS'education'
p47
(lp48
VBachelor
p49
asS'responsibility'
p50
(lp51
Vinsight
p52
aS'analysis'
p53
aS'cross-functionally'
p54
aS'data mining'
p55
aS'report'
p56
aS'model'
p57
as.