(dp1
S'skills'
p2
(lp3
S'visualization'
p4
aS'data analysis'
p5
aS'java'
p6
aS'big data'
p7
aS'nosql'
p8
aS'python'
p9
aS'science'
p10
aS'mysql'
p11
aS'saas'
p12
aS'hadoop'
p13
aS'analysis'
p14
aS'computer science'
p15
aS'communication'
p16
aS'organization'
p17
aS'scheme'
p18
aS'data'
p19
aS'arm'
p20
asS'working-year'
p21
(lp22
V[0]
p23
asS'major'
p24
(lp25
S'science'
p26
aS'communication'
p27
aS'computer science'
p28
aS'big data'
p29
aS'phd'
p30
asS'education'
p31
(lp32
VDoctor
p33
asS'responsibility'
p34
(lp35
Vinsight
p36
aS'analysis'
p37
aS'data analysis'
p38
as.