(dp1
S'skills'
p2
(lp3
S'consulting'
p4
aS'r d'
p5
aS'nosql'
p6
aS'attribution modeling'
p7
aS'communication'
p8
aS'tableau'
p9
aS'analytics'
p10
aS'analysis'
p11
aS'problem solving'
p12
aS'data mining'
p13
aS'digital analytics'
p14
aS'strategy'
p15
aS'econometrics'
p16
aS'visualization'
p17
aS'management'
p18
aS'java'
p19
aS'marketing mix modeling'
p20
aS'big data'
p21
aS'excel'
p22
aS'hadoop'
p23
aS'research'
p24
aS'matlab'
p25
aS'stata'
p26
aS'mongodb'
p27
aS'database development'
p28
aS'mathematics'
p29
aS'data management'
p30
aS'calculus'
p31
aS'statistical data analysis'
p32
aS'data analysis'
p33
aS'algebra'
p34
aS'python'
p35
aS'marketing'
p36
aS'alteryx'
p37
aS'advanced analytics'
p38
aS'modeling'
p39
aS'data'
p40
aS'c'
aS'data visualization'
p41
aS'database management'
p42
aS'linear algebra'
p43
aS'marketing analytics'
p44
aS'programming'
p45
aS'c++'
p46
aS'spss'
p47
aS'r'
aS'operations research'
p48
aS'organization'
p49
aS'root'
p50
aS'pricing'
p51
asS'working-year'
p52
(lp53
V(5, 10]
p54
aV(2, 5]
p55
asS'major'
p56
(lp57
S'management'
p58
aS'business'
p59
aS'big data'
p60
aS'marketing analytics'
p61
aS'marketing'
p62
aS'statistic'
p63
aS'communication'
p64
aS'analytics'
p65
aS'data mining'
p66
aS'advanced analytics'
p67
aS'mathematics'
p68
aS'econometrics'
p69
aS'operations research'
p70
asS'education'
p71
(lp72
S'Bachelor'
p73
asS'responsibility'
p74
(lp75
S'development'
p76
aS'product'
p77
aS'data analysis'
p78
aS'business problem'
p79
aVinsight
p80
aS'communicate'
p81
aS'analysis'
p82
aS'analytic'
p83
aS'understand'
p84
aS'data mining'
p85
aS'modeling'
p86
aS'model'
p87
as.