(dp1
S'skills'
p2
(lp3
S'nlp'
p4
aS'r d'
p5
aS'debugging'
p6
aS'communication'
p7
aS'analytics'
p8
aS'engineering'
p9
aS'linux'
p10
aS'it management'
p11
aS'management'
p12
aS'java'
p13
aS'computer science'
p14
aS'natural language processing'
p15
aS'processing'
p16
aS'python'
p17
aS'javascript'
p18
aS'data scientist'
p19
aS'sql'
p20
aS'data'
p21
aS'science'
p22
aS'programming'
p23
aS'machine learning'
p24
aS'healthcare'
p25
aS'scripting'
p26
asS'working-year'
p27
(lp28
V[0]
p29
asS'major'
p30
(lp31
S'information'
p32
aS'management'
p33
aS'science'
p34
aS'communication'
p35
aS'machine learning'
p36
aS'analytics'
p37
aS'engineering'
p38
aS'design'
p39
aS'computer science'
p40
aS'natural language processing'
p41
asS'education'
p42
(lp43
S'Bachelor'
p44
asS'responsibility'
p45
(lp46
S'information'
p47
aS'processing'
p48
aS'design'
p49
as.