(dp1
S'skills'
p2
(lp3
S'consulting'
p4
aS'r d'
p5
aS'marketing'
p6
aS'processing'
p7
aS'data scientist'
p8
aS'c'
aS'analytics'
p9
aS'pricing'
p10
aS'intelligence'
p11
aS'organization'
p12
aS'direct mail'
p13
aS'data'
p14
aS'customer experience'
p15
asS'working-year'
p16
(lp17
V(2, 5]
p18
asS'major'
p19
(lp20
S'marketing'
p21
aS'business'
p22
aS'analytics'
p23
asS'education'
p24
(lp25
S'Bachelor'
p26
asS'responsibility'
p27
(lp28
S'report'
p29
aS'analytic'
p30
aVinsight
p31
aS'processing'
p32
as.