(dp1
S'skills'
p2
(lp3
S'.net'
p4
aS'communication'
p5
aS'data science'
p6
aS'testing'
p7
aS'penetration testing'
p8
aS'go'
p9
aS'management'
p10
aS'java'
p11
aS'critical thinking'
p12
aS'agile'
p13
aS'hadoop'
p14
aS'governance'
p15
aS'risk management'
p16
aS'computer science'
p17
aS'innovation'
p18
aS'asp'
p19
aS'data scientist'
p20
aS'c'
aS'business process'
p21
aS'leadership'
p22
aS'technical documentation'
p23
aS'data'
p24
aS'event management'
p25
aS'training'
p26
aS'vb.net'
p27
aS'documentation'
p28
aS'programming'
p29
aS'analysis'
p30
aS'machine learning'
p31
aS'asp.net'
p32
aS'organizational leadership'
p33
aS'science'
p34
aS'organization'
p35
aS'security'
p36
asS'working-year'
p37
(lp38
S'[0]'
p39
asS'major'
p40
(lp41
VData Science
p42
aVManagement Science and Engineering
p43
aVChemical Engineering
p44
aVBusiness
p45
aVComputer Science
p46
asS'education'
p47
(lp48
VBachelor
p49
asS'responsibility'
p50
(lp51
S'development'
p52
aS'information'
p53
aS'documentation'
p54
aS'analysis'
p55
aS'design'
p56
aS'report'
p57
aS'model'
p58
as.