(dp1
S'skills'
p2
(lp3
S'research design'
p4
aS'r d'
p5
aS'classification'
p6
aS'data science'
p7
aS'analytics'
p8
aS'engineering'
p9
aS'data mining'
p10
aS'research'
p11
aS'clustering'
p12
aS'predictive modeling'
p13
aS'excel'
p14
aS'tableau'
p15
aS'strategy'
p16
aS'r'
aS'advanced analytics'
p17
aS'mathematics'
p18
aS'unstructured data'
p19
aS'data scientist'
p20
aS'modeling'
p21
aS'data'
p22
aS'science'
p23
aS'machine learning'
p24
aS'optimization algorithms'
p25
aS'optimization'
p26
asS'working-year'
p27
(lp28
V(2, 5]
p29
asS'major'
p30
(lp31
S'business'
p32
aS'analytics'
p33
aS'science'
p34
aS'data science'
p35
aS'statistic'
p36
aVapplied statistic
p37
aS'machine learning'
p38
aS'analytics data science'
p39
aS'engineering'
p40
aS'design'
p41
aS'data mining'
p42
aS'advanced analytics'
p43
aS'mathematics'
p44
aVphysic
p45
aS'data mining machine learning'
p46
asS'education'
p47
(lp48
VBachelor
p49
asS'responsibility'
p50
(lp51
S'data mining'
p52
aS'development'
p53
aS'product'
p54
aS'business problem'
p55
aS'predict'
p56
aS'pattern'
p57
aVinsight
p58
aS'communicate'
p59
aS'modeling'
p60
aS'analytic'
p61
aS'optimization'
p62
aS'design'
p63
aS'recommendation'
p64
aS'understand'
p65
aS'implement'
p66
aS'extract'
p67
as.