(dp1
S'skills'
p2
(lp3
S'soa'
p4
aS'reporting analysis'
p5
aS'communication'
p6
aS'data science'
p7
aS'testing'
p8
aS'hardware'
p9
aS'analytics'
p10
aS'business intelligence'
p11
aS'haskell'
p12
aS'data warehousing'
p13
aS'cassandra'
p14
aS'management'
p15
aS'java'
p16
aS'big data'
p17
aS'scala'
p18
aS'user experience'
p19
aS'ruby'
p20
aS'firmware'
p21
aS'hadoop'
p22
aS'continuous improvement'
p23
aS'computer science'
p24
aS'intelligence'
p25
aS'android'
p26
aS'unstructured data'
p27
aS'quality assurance'
p28
aS'flume'
p29
aS'data modeling'
p30
aS'python'
p31
aS'data scientist'
p32
aS'apache spark'
p33
aS'data quality'
p34
aS'data collection'
p35
aS'embedded c'
p36
aS'apache'
p37
aS'modeling'
p38
aS'spark'
p39
aS'data'
p40
aS'customer experience'
p41
aS'software development'
p42
aS'software quality assurance'
p43
aS'cloudera'
p44
aS'software engineering'
p45
aS'science'
p46
aS'engineering'
p47
aS'analysis'
p48
aS'machine learning'
p49
aS'optimization'
p50
aS'architecture'
p51
aS'organization'
p52
aS'docker'
p53
aS'validation'
p54
asS'working-year'
p55
(lp56
V[0]
p57
asS'major'
p58
(lp59
S'management'
p60
aS'business'
p61
aS'big data'
p62
aS'science'
p63
aS'data science'
p64
aS'data analyst'
p65
aS'machine learning'
p66
aS'analytics'
p67
aS'engineering'
p68
aS'computer science'
p69
aS'communication'
p70
aS'analytics data science'
p71
aS'software engineering'
p72
asS'education'
p73
(lp74
S'Bachelor'
p75
asS'responsibility'
p76
(lp77
S'development'
p78
aS'product'
p79
aS'data collection'
p80
aVinsight
p81
aS'analysis'
p82
aS'transformation'
p83
aS'optimization'
p84
aS'ownership'
p85
aS'identify opportunity'
p86
aS'modeling'
p87
aS'improvement'
p88
aS'data gathering'
p89
as.