(dp1
S'skills'
p2
(lp3
S'research design'
p4
aS'supply chain'
p5
aS'problem solving'
p6
aS'communication'
p7
aS'energy'
p8
aS'presentation skills'
p9
aS'analytics'
p10
aS'engineering'
p11
aS'operational excellence'
p12
aS'analysis'
p13
aS'system design'
p14
aS'data mining'
p15
aS'gas'
p16
aS'research'
p17
aS'technical leadership'
p18
aS'management'
p19
aS'big data'
p20
aS'team building'
p21
aS'predictive modeling'
p22
aS'product marketing'
p23
aS'writing'
p24
aS'computer science'
p25
aS'innovation'
p26
aS'construction'
p27
aS'data analysis'
p28
aS'performance management'
p29
aS'process optimization'
p30
aS'marketing'
p31
aS'collaboration'
p32
aS'data scientist'
p33
aS'leadership'
p34
aS'mentoring'
p35
aS'chemical engineering'
p36
aS'modeling'
p37
aS'manufacturing'
p38
aS'data'
p39
aS'software development'
p40
aS'c'
aS'science'
p41
aS'programming'
p42
aS'c++'
p43
aS'machine learning'
p44
aS'time series analysis'
p45
aS'optimization'
p46
aS'architecture'
p47
aS'english'
p48
aS'product management'
p49
aS'predictive analytics'
p50
asS'working-year'
p51
(lp52
V(5, 10]
p53
asS'major'
p54
(lp55
S'science'
p56
aS'information'
p57
aS'management'
p58
aS'business'
p59
aS'big data'
p60
aS'marketing'
p61
aS'data mining'
p62
aS'communication'
p63
aS'machine learning'
p64
aS'analytics'
p65
aS'engineering'
p66
aS'design'
p67
aS'chemical engineering'
p68
aS'english'
p69
aS'computer science'
p70
aS'phd'
p71
aS'predictive analytics'
p72
asS'education'
p73
(lp74
VDoctor
p75
asS'responsibility'
p76
(lp77
S'development'
p78
aS'information'
p79
aS'product'
p80
aS'data analysis'
p81
aS'analysis'
p82
aS'optimization'
p83
aS'design'
p84
aS'data mining'
p85
aS'modeling'
p86
aS'model'
p87
aS'presentation'
p88
as.