(dp1
S'skills'
p2
(lp3
S'logistics'
p4
aS'search'
p5
aS'networking'
p6
aS'r d'
p7
aS'data scientist'
p8
aS'energy'
p9
aS'recruiting'
p10
aS'research'
p11
aS'go'
p12
aS'strategy'
p13
aS'data'
p14
asS'working-year'
p15
(lp16
V(5, 10]
p17
aV(2, 5]
p18
asS'major'
p19
(lp20
S'business'
p21
asS'education'
p22
(lp23
VBachelor
p24
asS'responsibility'
p25
(lp26
S'product leadership'
p27
aS'report'
p28
aS'product'
p29
aS'communicate'
p30
as.