(dp1
S'skills'
p2
(lp3
S'data'
p4
aS'optimization'
p5
aS'data scientist'
p6
asS'working-year'
p7
(lp8
S'[0]'
p9
asS'major'
p10
(lp11
sS'education'
p12
(lp13
VMaster
p14
asS'responsibility'
p15
(lp16
S'report'
p17
aS'optimization'
p18
as.