(dp1
S'skills'
p2
(lp3
S'communication'
p4
aS'principal component analysis'
p5
aS'analysis'
p6
aS'linux'
p7
aS'data modeling'
p8
aS'regression'
p9
aS'clustering'
p10
aS'java'
p11
aS'time series analysis'
p12
aS'agile'
p13
aS'predictive modeling'
p14
aS'recruiting'
p15
aS'research'
p16
aS'python'
p17
aS'optimization'
p18
aS'music'
p19
aS'matlab'
p20
aS'mathematics'
p21
aS'unstructured data'
p22
aS'transportation'
p23
aS'stochastic processes'
p24
aS'combinatorial optimization'
p25
aS'collaboration'
p26
aS'modeling'
p27
aS'data'
p28
aS'software development'
p29
aS'c++'
p30
aS'machine learning'
p31
aS'weka'
p32
aS'r'
aS'logistic regression'
p33
aS'statistical analysis'
p34
asS'working-year'
p35
(lp36
V[0]
p37
asS'major'
p38
(lp39
S'transportation'
p40
aS'communication'
p41
aS'phd'
p42
aS'music'
p43
aS'mathematics'
p44
aS'machine learning'
p45
asS'education'
p46
(lp47
VDoctor
p48
asS'responsibility'
p49
(lp50
S'development'
p51
aS'product'
p52
aS'analysis'
p53
aS'improvement'
p54
aS'statistical method'
p55
aS'optimization'
p56
aS'understand'
p57
aS'modeling'
p58
aS'model'
p59
aS'presentation'
p60
as.