(dp1
S'skills'
p2
(lp3
S'nlp'
p4
aS'classification'
p5
aS'communication'
p6
aS'information retrieval'
p7
aS'hive'
p8
aS'personalization'
p9
aS'regression'
p10
aS'clustering'
p11
aS'statistics'
p12
aS'java'
p13
aS'big data'
p14
aS'hadoop'
p15
aS'research'
p16
aS'python'
p17
aS'fraud detection'
p18
aS'computer science'
p19
aS'operations research'
p20
aS'machine vision'
p21
aS'social network analysis'
p22
aS'data scientist'
p23
aS'c'
aS'statistical modeling'
p24
aS'sql'
p25
aS'modeling'
p26
aS'spark'
p27
aS'data'
p28
aS'a'
aS'search'
p29
aS'fraud'
p30
aS'collaborative filtering'
p31
aS'science'
p32
aS'scikit-learn'
p33
aS'analysis'
p34
aS'machine learning'
p35
aS'r'
aS'statistical inference'
p36
aS'statistical analysis'
p37
asS'working-year'
p38
(lp39
V(2, 5]
p40
asS'major'
p41
(lp42
VOperations Research
p43
aVStatistics
p44
aVComputer Science
p45
aVBusiness
p46
asS'education'
p47
(lp48
VMaster
p49
aVDoctor
p50
asS'responsibility'
p51
(lp52
S'information'
p53
aS'product'
p54
aS'analysis'
p55
aS'design'
p56
aS'modeling'
p57
aS'implement'
p58
as.