(dp1
S'skills'
p2
(lp3
S'nlp'
p4
aS'classification'
p5
aS'communication'
p6
aS'information retrieval'
p7
aS'analysis'
p8
aS'personalization'
p9
aS'regression'
p10
aS'clustering'
p11
aS'java'
p12
aS'big data'
p13
aS'hadoop'
p14
aS'research'
p15
aS'python'
p16
aS'fraud detection'
p17
aS'computer science'
p18
aS'operations research'
p19
aS'machine vision'
p20
aS'social network analysis'
p21
aS'data scientist'
p22
aS'hive'
p23
aS'statistical modeling'
p24
aS'sql'
p25
aS'spark'
p26
aS'data'
p27
aS'search'
p28
aS'fraud'
p29
aS'collaborative filtering'
p30
aS'science'
p31
aS'scikit-learn'
p32
aS'c++'
p33
aS'machine learning'
p34
aS'r'
aS'statistical inference'
p35
aS'statistical analysis'
p36
asS'working-year'
p37
(lp38
V(2, 5]
p39
asS'major'
p40
(lp41
S'information'
p42
aS'big data'
p43
aS'science'
p44
aS'communication'
p45
aS'computer science statistics'
p46
aS'machine learning'
p47
aS'design'
p48
aS'operations research'
p49
aS'statistic'
p50
aS'phd'
p51
aS'information retrieval'
p52
aS'machine learning engineer'
p53
aS'statistics operations research'
p54
aS'computer science'
p55
asS'education'
p56
(lp57
VMaster
p58
aVDoctor
p59
asS'responsibility'
p60
(lp61
S'information'
p62
aS'product'
p63
aS'analysis'
p64
aS'statistical model'
p65
aS'design'
p66
aS'implement'
p67
as.