(dp1
S'skills'
p2
(lp3
S'r d'
p4
aS'communication'
p5
aS'energy'
p6
aS'analytics'
p7
aS'engineering'
p8
aS'dod'
p9
aS'research'
p10
aS'technical leadership'
p11
aS'management'
p12
aS'big data'
p13
aS'strategy'
p14
aS'big data analytics'
p15
aS'system architecture'
p16
aS'computer science'
p17
aS'innovation'
p18
aS'transportation'
p19
aS'government'
p20
aS'data scientist'
p21
aS'leadership'
p22
aS'business development'
p23
aS'data'
p24
aS'project management'
p25
aS'software development'
p26
aS'science'
p27
aS'analysis'
p28
aS'r'
aS'architecture'
p29
aS'electrical engineering'
p30
aS'data analytics'
p31
asS'working-year'
p32
(lp33
V(10, 15]
p34
asS'major'
p35
(lp36
S'management'
p37
aS'transportation'
p38
aS'business'
p39
aS'big data'
p40
aS'science'
p41
aS'phd'
p42
aS'big data analytics'
p43
aS'analytics'
p44
aS'engineering'
p45
aS'design'
p46
aS'project management'
p47
aS'communication'
p48
aS'electrical engineering'
p49
aS'electrical'
p50
aS'data analytics'
p51
aS'computer science'
p52
asS'education'
p53
(lp54
VDoctor
p55
asS'responsibility'
p56
(lp57
S'development'
p58
aS'model'
p59
aVinsight
p60
aS'design'
p61
aS'analysis'
p62
as.