(dp1
S'skills'
p2
(lp3
S'communication'
p4
aS'energy'
p5
aS'analytics'
p6
aS'engineering'
p7
aS'analysis'
p8
aS'strategy'
p9
aS'technical leadership'
p10
aS'management'
p11
aS'big data'
p12
aS'research'
p13
aS'big data analytics'
p14
aS'system architecture'
p15
aS'computer science'
p16
aS'innovation'
p17
aS'a'
aS'transportation'
p18
aS'government'
p19
aS'leadership'
p20
aS'business development'
p21
aS'data'
p22
aS'project management'
p23
aS'software development'
p24
aS'science'
p25
aS'dod'
p26
aS'r'
aS'architecture'
p27
aS'electrical engineering'
p28
aS'data analytics'
p29
asS'working-year'
p30
(lp31
V(10, 15]
p32
asS'major'
p33
(lp34
VBusiness
p35
aVData Science
p36
aVElectrical and Electronics Engineering
p37
aVEngineering
p38
aVComputer Science
p39
aVManagement Science and Engineering
p40
asS'education'
p41
(lp42
VDoctor
p43
asS'responsibility'
p44
(lp45
S'development'
p46
aS'insight'
p47
aS'analysis'
p48
aS'track ... activity'
p49
aS'cost benefit'
p50
aS'design'
p51
aS'model'
p52
as.