(dp1
S'skills'
p2
(lp3
S'communication'
p4
aS'data science'
p5
aS'analytics'
p6
aS'hive'
p7
aS'data mining'
p8
aS'analysis'
p9
aS'hbase'
p10
aS'hdfs'
p11
aS'git'
p12
aS'java'
p13
aS'big data'
p14
aS'recruiting'
p15
aS'integration'
p16
aS'test automation'
p17
aS'computer science'
p18
aS'advanced analytics'
p19
aS'python'
p20
aS'data scientist'
p21
aS'automation'
p22
aS'data'
p23
aS'software development'
p24
aS'c'
aS'science'
p25
aS'c++'
p26
aS'machine learning'
p27
aS'organization'
p28
aS'validation'
p29
aS'predictive analytics'
p30
asS'working-year'
p31
(lp32
V(5, 10]
p33
asS'major'
p34
(lp35
S'information'
p36
aS'big data'
p37
aS'ee computer science'
p38
aS'science'
p39
aS'data science'
p40
aS'communication'
p41
aS'machine learning'
p42
aS'analytics'
p43
aS'computer science'
p44
aS'automation'
p45
aS'data mining'
p46
aS'advanced analytics'
p47
aS'law'
p48
aS'machine learning data mining'
p49
aS'predictive analytics'
p50
asS'education'
p51
(lp52
S'Bachelor'
p53
asS'responsibility'
p54
(lp55
S'development'
p56
aS'information'
p57
aS'product'
p58
aS'pattern'
p59
aS'analysis'
p60
aS'data mining'
p61
as.