(dp1
S'skills'
p2
(lp3
S'software development'
p4
aS'consulting'
p5
aS'organization'
p6
aS'r d'
p7
aS'aws'
p8
aS'agile'
p9
aS'innovation'
p10
aS'data scientist'
p11
aS'training'
p12
aS'research'
p13
aS'go'
p14
aS'management'
p15
aS'devops'
p16
aS'communication'
p17
aS'informatics'
p18
aS'modeling'
p19
aS'drug discovery'
p20
aS'education'
p21
aS'data'
p22
aS'science'
p23
asS'working-year'
p24
(lp25
V(2, 5]
p26
aV(10, 15]
p27
asS'major'
p28
(lp29
S'management'
p30
aS'computing'
p31
aS'science'
p32
aS'design'
p33
aS'communication'
p34
aS'informatics'
p35
aS'history'
p36
asS'education'
p37
(lp38
S'Bachelor'
p39
asS'responsibility'
p40
(lp41
S'development'
p42
aS'modeling'
p43
aS'design'
p44
as.