(dp1
S'skills'
p2
(lp3
S'r d'
p4
aS'communication'
p5
aS'data science'
p6
aS'sql'
p7
aS'engineering'
p8
aS'analysis'
p9
aS'data mining'
p10
aS'strategy'
p11
aS'java'
p12
aS'big data'
p13
aS'scala'
p14
aS'research'
p15
aS'marketing'
p16
aS'mathematics'
p17
aS'data analysis'
p18
aS'python'
p19
aS'customer service'
p20
aS'personalization'
p21
aS'algorithm design'
p22
aS'php'
p23
aS'data'
p24
aS'b2b'
p25
aS'customer experience'
p26
aS'c'
aS'science'
p27
aS'economics'
p28
aS'programming'
p29
aS'c++'
p30
aS'machine learning'
p31
aS'r'
asS'working-year'
p32
(lp33
V(2, 5]
p34
asS'major'
p35
(lp36
S'mathematics economics'
p37
aS'general'
p38
aS'business'
p39
aS'big data'
p40
aS'marketing'
p41
aS'data science'
p42
aS'economics'
p43
aS'statistic'
p44
aS'machine learning'
p45
aS'engineering'
p46
aS'design'
p47
aS'data mining'
p48
aS'communication'
p49
aS'mathematics'
p50
aS'phd'
p51
aS'science'
p52
asS'education'
p53
(lp54
VDoctor
p55
asS'responsibility'
p56
(lp57
S'data mining'
p58
aS'development'
p59
aS'product'
p60
aVinsight
p61
aS'build model'
p62
aVproduct operation
p63
aS'analysis'
p64
aS'data analysis'
p65
aS'design'
p66
aS'solve problem'
p67
aS'recommendation'
p68
aS'model'
p69
as.