(dp1
S'skills'
p2
(lp3
S'healthcare industry'
p4
aS'data science'
p5
aS'testing'
p6
aS'tableau'
p7
aS'analytics'
p8
aS'statistical analysis'
p9
aS'problem solving'
p10
aS'sas'
p11
aS'education'
p12
aS'management'
p13
aS'big data'
p14
aS'programming languages'
p15
aS'predictive modeling'
p16
aS'hadoop'
p17
aS'advanced analytics'
p18
aS'unstructured data'
p19
aS'python'
p20
aS'data scientist'
p21
aS'mathematical analysis'
p22
aS'leadership'
p23
aS'mentoring'
p24
aS'sql'
p25
aS'modeling'
p26
aS'data'
p27
aS'science'
p28
aS'programming'
p29
aS'analysis'
p30
aS'machine learning'
p31
aS'credit'
p32
aS'organizational leadership'
p33
aS'r'
aS'healthcare'
p34
aS'organization'
p35
aS'security'
p36
asS'working-year'
p37
(lp38
V(5, 10]
p39
asS'major'
p40
(lp41
VData Science
p42
aVComputer Science
p43
aVBusiness
p44
aVManagement Science and Engineering
p45
asS'education'
p46
(lp47
VMaster
p48
aVDoctor
p49
asS'responsibility'
p50
(lp51
S'information'
p52
aS'product'
p53
aS'large data set'
p54
aS'business problem'
p55
aS'insight'
p56
aS'communicate'
p57
aS'statistical method'
p58
aS'analysis'
p59
aS'statistical model'
p60
aS'analytic'
p61
aS'drive ... decision'
p62
aS'understand'
p63
aS'modeling'
p64
aS'model'
p65
aS'evaluation'
p66
aS'decision making'
p67
as.