(dp1
S'skills'
p2
(lp3
S'r d'
p4
aS'communication'
p5
aS'data science'
p6
aS'testing'
p7
aS'integration'
p8
aS'software design'
p9
aS'business intelligence'
p10
aS'data warehousing'
p11
aS'hive'
p12
aS'system design'
p13
aS'hbase'
p14
aS'application architecture'
p15
aS'insurance'
p16
aS'change management'
p17
aS'technical leadership'
p18
aS'management'
p19
aS'java'
p20
aS'rdbms'
p21
aS'big data'
p22
aS'team building'
p23
aS'hadoop'
p24
aS'strategy'
p25
aS'sdlc'
p26
aS'intelligence'
p27
aS'sqoop'
p28
aS'web services'
p29
aS'apis'
p30
aS'python'
p31
aS'data scientist'
p32
aS'leadership'
p33
aS'mentoring'
p34
aS'performance tuning'
p35
aS'apache'
p36
aS'spark'
p37
aS'pig'
p38
aS'data'
p39
aS'software development'
p40
aS'search'
p41
aS'disaster recovery'
p42
aS'software engineering'
p43
aS'science'
p44
aS'documentation'
p45
aS'programming'
p46
aS'engineering'
p47
aS'analysis'
p48
aS'r'
aS'architecture'
p49
aS'organization'
p50
aS'application development'
p51
asS'working-year'
p52
(lp53
V[0]
p54
asS'major'
p55
(lp56
S'information'
p57
aS'management'
p58
aS'business'
p59
aS'big data'
p60
aS'science'
p61
aS'data science'
p62
aS'communication'
p63
aS'general'
p64
aS'engineering'
p65
aS'design'
p66
aS'statistic'
p67
aS'software engineering'
p68
asS'education'
p69
(lp70
S'Bachelor'
p71
asS'responsibility'
p72
(lp73
S'development'
p74
aS'information'
p75
aS'documentation'
p76
aS'analysis'
p77
aS'improvement'
p78
aS'design'
p79
aS'solve problem'
p80
aS'recommendation'
p81
aS'interface'
p82
aS'model'
p83
aS'presentation'
p84
as.