(dp1
S'skills'
p2
(lp3
S'soa'
p4
aS'r d'
p5
aS'nosql'
p6
aS'data science'
p7
aS'testing'
p8
aS'informatics'
p9
aS'engineering'
p10
aS'git'
p11
aS'open source'
p12
aS'cancer'
p13
aS'big data'
p14
aS'storage'
p15
aS'integration'
p16
aS'research'
p17
aS'computer science'
p18
aS'data management'
p19
aS'distributed computing'
p20
aS'apis'
p21
aS'cancer research'
p22
aS'processing'
p23
aS'aws'
p24
aS'maven'
p25
aS'management'
p26
aS'biomedical informatics'
p27
aS'sql'
p28
aS'apache'
p29
aS'java'
p30
aS'data'
p31
aS'project management'
p32
aS'publishing'
p33
aS'open source software'
p34
aS'science'
p35
aS'cloud computing'
p36
aS'data engineering'
p37
aS'architecture'
p38
asS'working-year'
p39
(lp40
V[0]
p41
asS'major'
p42
(lp43
S'management'
p44
aS'big data'
p45
aS'computing'
p46
aS'science'
p47
aS'data science'
p48
aS'computer science computer engineering'
p49
aS'engineering'
p50
aS'phd'
p51
aS'computer engineering'
p52
aS'design'
p53
aS'computer science'
p54
aS'biomedical informatics'
p55
aS'informatics'
p56
aS'medical informatics'
p57
aS'project management'
p58
asS'education'
p59
(lp60
VDoctor
p61
asS'responsibility'
p62
(lp63
S'development'
p64
aS'mine data'
p65
aS'processing'
p66
aS'manage data'
p67
aS'design'
p68
aS'implement'
p69
as.