(dp1
S'skills'
p2
(lp3
S'spring'
p4
aS'devops'
p5
aS'engineering'
p6
aS'management'
p7
aS'java'
p8
aS'agile'
p9
aS'saas'
p10
aS'integration'
p11
aS'research'
p12
aS'computer science'
p13
aS'innovation'
p14
aS'jenkins'
p15
aS'soap'
p16
aS'scrum'
p17
aS'product development'
p18
aS'javascript'
p19
aS'data scientist'
p20
aS'data'
p21
aS'b2b'
p22
aS'a'
aS'j2ee'
p23
aS'science'
p24
aS'excel'
p25
aS'docker'
p26
asS'working-year'
p27
(lp28
sS'major'
p29
(lp30
VEngineering
p31
aVComputer Science
p32
aVBusiness
p33
aVManagement Science and Engineering
p34
asS'education'
p35
(lp36
VBachelor
p37
aVMaster
p38
asS'responsibility'
p39
(lp40
S'interface'
p41
aS'information'
p42
aS'development'
p43
aS'design'
p44
aS'product'
p45
as.