(dp1
S'skills'
p2
(lp3
S'negotiation'
p4
aS'nosql'
p5
aS'data science'
p6
aS'tableau'
p7
aS'engineering'
p8
aS'sas'
p9
aS'd3'
p10
aS'qlikview'
p11
aS'visualization'
p12
aS'hadoop'
p13
aS'd3.js'
p14
aS'computer science'
p15
aS'mathematics'
p16
aS'data modeling'
p17
aS'python'
p18
aS'collaboration'
p19
aS'spotfire'
p20
aS'business process'
p21
aS'modeling'
p22
aS'data'
p23
aS'science'
p24
aS'applied mathematics'
p25
aS'spss'
p26
aS'data architecture'
p27
aS'r'
aS'architecture'
p28
asS'working-year'
p29
(lp30
V(2, 5]
p31
asS'major'
p32
(lp33
VMathematics
p34
aVData Science
p35
aVEngineering
p36
aVComputer Science
p37
aVBusiness
p38
asS'education'
p39
(lp40
VBachelor
p41
aVMaster
p42
asS'responsibility'
p43
(lp44
S'development'
p45
aS'modeling'
p46
aS'model'
p47
aS'prototype'
p48
aS'design'
p49
as.