(dp1
S'skills'
p2
(lp3
S'scientific programming'
p4
aS'nosql'
p5
aS'communication'
p6
aS'data science'
p7
aS'mysql'
p8
aS'julia'
p9
aS'analytics'
p10
aS'statistical analysis'
p11
aS'email marketing'
p12
aS'big data'
p13
aS'redis'
p14
aS'scientific computing'
p15
aS'research'
p16
aS'marketing automation'
p17
aS'matlab'
p18
aS'command'
p19
aS'apis'
p20
aS'python'
p21
aS'marketing'
p22
aS'data scientist'
p23
aS'automation'
p24
aS'sql'
p25
aS'data'
p26
aS'training'
p27
aS'postgresql'
p28
aS'science'
p29
aS'programming'
p30
aS'analysis'
p31
aS'machine learning'
p32
aS'r'
aS'elasticsearch'
p33
aS'predictive analytics'
p34
asS'working-year'
p35
(lp36
V(2, 5]
p37
asS'major'
p38
(lp39
S'business'
p40
aS'big data'
p41
aS'computing'
p42
aS'marketing'
p43
aS'data science'
p44
aS'communication'
p45
aS'scientific computing'
p46
aS'machine learning'
p47
aS'analytics'
p48
aS'design'
p49
aS'science'
p50
aS'automation'
p51
aS'predictive analytics'
p52
asS'education'
p53
(lp54
S'Bachelor'
p55
asS'responsibility'
p56
(lp57
S'development'
p58
aVinsight
p59
aS'communicate'
p60
aS'analysis'
p61
aS'design'
p62
aS'identify opportunity'
p63
aS'model'
p64
as.