(dp1
S'skills'
p2
(lp3
S'automotive'
p4
aS'data scientist'
p5
aS'strategy'
p6
aS'analytics'
p7
aS'advanced analytics'
p8
aS'data'
p9
asS'working-year'
p10
(lp11
V[0]
p12
asS'major'
p13
(lp14
S'advanced analytics'
p15
aS'analytics'
p16
aS'business'
p17
asS'education'
p18
(lp19
S'Bachelor'
p20
asS'responsibility'
p21
(lp22
S'report'
p23
aS'development'
p24
aS'model'
p25
aS'statistical model'
p26
as.