(dp1
S'skills'
p2
(lp3
S'digital marketing'
p4
aS'forecasting'
p5
aS'communication'
p6
aS'data science'
p7
aS'display advertising'
p8
aS'problem solving'
p9
aS'data mining'
p10
aS'social sciences'
p11
aS'statistics'
p12
aS'big data'
p13
aS'mllib'
p14
aS'optimization'
p15
aS'computer science'
p16
aS'mathematics'
p17
aS'data management'
p18
aS'product development'
p19
aS'marketing'
p20
aS'processing'
p21
aS'personalization'
p22
aS'management'
p23
aS'data processing'
p24
aS'sql'
p25
aS'spark'
p26
aS'data'
p27
aS'search'
p28
aS'science'
p29
aS'economics'
p30
aS'machine learning'
p31
aS'r'
aS'advertising'
p32
asS'working-year'
p33
(lp34
V(0, 2]
p35
asS'major'
p36
(lp37
VStatistics
p38
aVData Science
p39
aVEconomics
p40
aVComputer Science
p41
aVMathematics
p42
aVManagement Science and Engineering
p43
asS'education'
p44
(lp45
VBachelor
p46
aVMaster
p47
aVDoctor
p48
asS'responsibility'
p49
(lp50
S'development'
p51
aS'forecasting'
p52
aS'processing'
p53
aS'product'
p54
aS'optimization'
p55
aS'design'
p56
aS'data mining'
p57
as.