(dp1
S'skills'
p2
(lp3
S'documentation'
p4
aS'r d'
p5
aS'active directory'
p6
aS'ip'
p7
aS'testing'
p8
aS'hardware'
p9
aS'engineering'
p10
aS'troubleshooting'
p11
aS'go'
p12
aS'research'
p13
aS'education'
p14
aS'networking'
p15
aS'scala'
p16
aS'saas'
p17
aS'integration'
p18
aS'perl'
p19
aS'access'
p20
aS'innovation'
p21
aS'product development'
p22
aS'python'
p23
aS'aws'
p24
aS'data scientist'
p25
aS'wireless'
p26
aS'php'
p27
aS'data'
p28
aS'b2b'
p29
aS'bash'
p30
aS'training'
p31
aS'wifi'
p32
aS'procurement'
p33
aS'optimization'
p34
aS'architecture'
p35
aS'security'
p36
aS'traffic engineering'
p37
aS'scripting'
p38
asS'working-year'
p39
(lp40
V[0]
p41
asS'major'
p42
(lp43
S'engineering'
p44
aS'design'
p45
aS'business'
p46
asS'education'
p47
(lp48
VBachelor
p49
asS'responsibility'
p50
(lp51
S'development'
p52
aS'product'
p53
aS'documentation'
p54
aS'optimization'
p55
aS'understand'
p56
aS'interface'
p57
aS'design'
p58
aS'implement'
p59
as.