(dp1
S'skills'
p2
(lp3
S'ppc'
p4
aS'social media'
p5
aS'web analytics'
p6
aS'java'
p7
aS'analytics'
p8
aS'user experience'
p9
aS'communication'
p10
aS'data scientist'
p11
aS'machine learning'
p12
aS'e-commerce'
p13
aS'management'
p14
aS'account management'
p15
aS'seo'
p16
aS'data'
p17
asS'working-year'
p18
(lp19
S'[0]'
p20
asS'major'
p21
(lp22
VData Science
p23
aVComputer Science
p24
aVManagement Science and Engineering
p25
asS'education'
p26
(lp27
S'Bachelor'
p28
asS'responsibility'
p29
(lp30
s.