(dp1
S'skills'
p2
(lp3
S'intelligence'
p4
aS'data science'
p5
aS'analytics'
p6
aS'business intelligence'
p7
aS'data-driven decision making'
p8
aS'problem solving'
p9
aS'seo'
p10
aS'sem'
p11
aS'integrated marketing'
p12
aS'performance management'
p13
aS'web analytics'
p14
aS'excel'
p15
aS'strategy'
p16
aS'computer science'
p17
aS'communication'
p18
aS'mathematics'
p19
aS'microsoft excel'
p20
aS'product development'
p21
aS'marketing'
p22
aS'collaboration'
p23
aS'private equity'
p24
aS'search'
p25
aS'wireless'
p26
aS'management'
p27
aS'data'
p28
aS'a'
aS'training'
p29
aS'science'
p30
aS'economics'
p31
aS'business strategy'
p32
aS'engineering'
p33
aS'analysis'
p34
aS'google analytics'
p35
aS'optimization'
p36
aS'real estate'
p37
aS'organization'
p38
aS'google adwords'
p39
asS'working-year'
p40
(lp41
sS'major'
p42
(lp43
VBusiness
p44
aVData Science
p45
aVEconomics
p46
aVEngineering
p47
aVComputer Science
p48
aVMathematics
p49
aVManagement Science and Engineering
p50
asS'education'
p51
(lp52
VBachelor
p53
asS'responsibility'
p54
(lp55
S'development'
p56
aS'information'
p57
aS'product'
p58
aS'insight'
p59
aS'analysis'
p60
aS'interface'
p61
aS'optimization'
p62
aS'report'
p63
aS'implement'
p64
aS'presentation'
p65
aS'decision making'
p66
as.