(dp1
S'skills'
p2
(lp3
S'r d'
p4
aS'communication'
p5
aS'data science'
p6
aS'analytics'
p7
aS'process improvement'
p8
aS'analysis'
p9
aS'data mining'
p10
aS'strategy'
p11
aS'big data'
p12
aS'critical thinking'
p13
aS'valuation'
p14
aS'predictive modeling'
p15
aS'r programming'
p16
aS'hadoop'
p17
aS'research'
p18
aS'computer science'
p19
aS'automotive'
p20
aS'data scientist'
p21
aS'business process'
p22
aS'sql'
p23
aS'modeling'
p24
aS'spark'
p25
aS'data'
p26
aS'training'
p27
aS'science'
p28
aS'programming'
p29
aS'communication skills'
p30
aS'machine learning'
p31
aS'r'
aS'organization'
p32
aS'data analytics'
p33
aS'pricing'
p34
asS'working-year'
p35
(lp36
V(5, 10]
p37
aV(2, 5]
p38
asS'major'
p39
(lp40
S'business'
p41
aS'big data'
p42
aS'computing'
p43
aS'science'
p44
aS'data science'
p45
aS'statistic'
p46
aVapplied statistic
p47
aS'machine learning'
p48
aS'analytics'
p49
aS'design'
p50
aVphysic
p51
aS'data mining'
p52
aS'communication'
p53
aS'computer science'
p54
aS'data analytics'
p55
aS'data mining machine learning'
p56
asS'education'
p57
(lp58
VMaster
p59
asS'responsibility'
p60
(lp61
S'development'
p62
aS'product'
p63
aVinsight
p64
aS'analysis'
p65
aS'analytic'
p66
aS'understand'
p67
aS'data mining'
p68
aS'design'
p69
aS'modeling'
p70
aS'model'
p71
as.