(dp1
S'skills'
p2
(lp3
S'excel'
p4
aS'microsoft excel'
p5
aS'integration'
p6
aS'hardware'
p7
aS'analysis'
p8
aS'problem solving'
p9
aS'strategy'
p10
aS'management'
p11
aS'rdbms'
p12
aS'big data'
p13
aS'storage'
p14
aS'hadoop'
p15
aS'governance'
p16
aS'research'
p17
aS'access'
p18
aS'risk management'
p19
aS'microstrategy'
p20
aS'communication'
p21
aS'customer service'
p22
aS'data scientist'
p23
aS'scalability'
p24
aS'data quality'
p25
aS'business process'
p26
aS'sql'
p27
aS'data'
p28
aS'information technology'
p29
aS'documentation'
p30
aS'business objects'
p31
aS'architecture'
p32
aS'security'
p33
aS'data integration'
p34
asS'working-year'
p35
(lp36
V(5, 10]
p37
asS'major'
p38
(lp39
S'information'
p40
aS'management'
p41
aS'big data'
p42
aS'business'
p43
aS'communication'
p44
aS'design'
p45
aS'information technology'
p46
asS'education'
p47
(lp48
VBachelor
p49
asS'responsibility'
p50
(lp51
S'development'
p52
aS'information'
p53
aS'documentation'
p54
aS'analysis'
p55
aS'design'
p56
aS'report'
p57
aS'understand'
p58
aS'implement'
p59
aS'evaluation'
p60
as.