(dp1
S'skills'
p2
(lp3
S'negotiation'
p4
aS'r d'
p5
aS'nosql'
p6
aS'intelligence'
p7
aS'data science'
p8
aS'tableau'
p9
aS'analytics'
p10
aS'business intelligence'
p11
aS'spss'
p12
aS'qlikview'
p13
aS'visualization'
p14
aS'hadoop'
p15
aS'd3.js'
p16
aS'strategy'
p17
aS'computer science'
p18
aS'mathematics'
p19
aS'unstructured data'
p20
aS'data analysis'
p21
aS'data modeling'
p22
aS'python'
p23
aS'data scientist'
p24
aS'collaboration'
p25
aS'spotfire'
p26
aS'business process'
p27
aS'modeling'
p28
aS'data'
p29
aS'search'
p30
aS'data visualization'
p31
aS'science'
p32
aS'applied mathematics'
p33
aS'engineering'
p34
aS'analysis'
p35
aS'machine learning'
p36
aS'data architecture'
p37
aS'r'
aS'architecture'
p38
asS'working-year'
p39
(lp40
V(0, 2]
p41
aV(2, 5]
p42
asS'major'
p43
(lp44
S'business intelligence analytics'
p45
aS'mathematics'
p46
aS'business'
p47
aS'science'
p48
aS'applied mathematics'
p49
aS'machine learning'
p50
aS'analytics'
p51
aS'engineering'
p52
aS'design'
p53
aS'computer science'
p54
aS'applied math'
p55
aS'computer science engineering'
p56
aS'ee computer science'
p57
aS'data science'
p58
asS'education'
p59
(lp60
VBachelor
p61
aVMaster
p62
asS'responsibility'
p63
(lp64
S'development'
p65
aS'product'
p66
aS'data analysis'
p67
aS'pattern'
p68
aS'communicate'
p69
aS'analysis'
p70
aS'design'
p71
aS'identify opportunity'
p72
aS'report'
p73
aS'modeling'
p74
aS'model'
p75
aS'prototype'
p76
as.