(dp1
S'skills'
p2
(lp3
S'saas'
p4
aS'project planning'
p5
aS'testing'
p6
aS'engineering'
p7
aS'angularjs'
p8
aS'strategy'
p9
aS'product development'
p10
aS'management'
p11
aS'java'
p12
aS'agile'
p13
aS'excel'
p14
aS'integration'
p15
aS'research'
p16
aS'business planning'
p17
aS'computer science'
p18
aS'sdlc'
p19
aS'innovation'
p20
aS'construction'
p21
aS'junit'
p22
aS'quality assurance'
p23
aS'jquery'
p24
aS'software development life cycle sdlc'
p25
aS'it strategy'
p26
aS'apis'
p27
aS'scrum'
p28
aS'data scientist'
p29
aS'business process'
p30
aS'product design'
p31
aS'project management'
p32
aS'data'
p33
aS'b2b'
p34
aS'information technology'
p35
aS'software development'
p36
aS'training'
p37
aS'science'
p38
aS'unit testing'
p39
aS'machine learning'
p40
aS'procurement'
p41
aS'mvc'
p42
aS'security'
p43
asS'working-year'
p44
(lp45
V(0, 2]
p46
aV(2, 5]
p47
asS'major'
p48
(lp49
S'information'
p50
aS'management'
p51
aS'it strategy'
p52
aS'business'
p53
aS'science'
p54
aS'machine learning'
p55
aS'engineering'
p56
aS'information system'
p57
aS'design'
p58
aS'project management'
p59
aS'information systems'
p60
aS'ee computer science'
p61
aS'information technology'
p62
aS'computer science'
p63
asS'education'
p64
(lp65
VBachelor
p66
asS'responsibility'
p67
(lp68
S'development'
p69
aS'information'
p70
aS'implement'
p71
aS'design'
p72
aS'product'
p73
as.