(dp1
S'skills'
p2
(lp3
S'communication'
p4
aS'decision support'
p5
aS'analytics'
p6
aS'engineering'
p7
aS'process improvement'
p8
aS'data mining'
p9
aS'education'
p10
aS'image processing'
p11
aS'random forest'
p12
aS'visualization'
p13
aS'management'
p14
aS'java'
p15
aS'big data'
p16
aS'deep learning'
p17
aS'tableau'
p18
aS'research'
p19
aS'computer science'
p20
aS'advanced analytics'
p21
aS'mathematics'
p22
aS'operations research'
p23
aS'systems engineering'
p24
aS'transportation'
p25
aS'python'
p26
aS'automotive'
p27
aS'processing'
p28
aS'spotfire'
p29
aS'experimental design'
p30
aS'business process'
p31
aS'sql'
p32
aS'data'
p33
aS'software development'
p34
aS'parallel programming'
p35
aS'data visualization'
p36
aS'science'
p37
aS'applied mathematics'
p38
aS'programming'
p39
aS'mapreduce'
p40
aS'c++'
p41
aS'machine learning'
p42
aS'olap'
p43
aS'r'
asS'working-year'
p44
(lp45
V(0, 2]
p46
aV(2, 5]
p47
asS'major'
p48
(lp49
S'mathematical sciences'
p50
aS'communication'
p51
aS'statistic'
p52
aS'analytics'
p53
aS'engineering'
p54
aS'design'
p55
aS'data mining'
p56
aS'information'
p57
aS'management'
p58
aS'big data'
p59
aS'information science'
p60
aS'computer science'
p61
aS'advanced analytics'
p62
aS'mathematics'
p63
aS'operations research'
p64
aS'data mining machine learning'
p65
aS'systems engineering'
p66
aS'transportation'
p67
aS'business'
p68
aS'science'
p69
aS'applied mathematics'
p70
aS'machine learning'
p71
aS'applied math'
p72
asS'education'
p73
(lp74
VMaster
p75
aVDoctor
p76
asS'responsibility'
p77
(lp78
S'development'
p79
aS'information'
p80
aS'processing'
p81
aS'identify opportunity'
p82
aS'recommendation'
p83
aS'improvement'
p84
aS'design'
p85
aS'data mining'
p86
aS'model'
p87
as.