(dp1
S'skills'
p2
(lp3
S'business strategy'
p4
aS'data acquisition'
p5
aS'pig'
p6
aS'analytics'
p7
aS'engineering'
p8
aS'hive'
p9
aS'visualization'
p10
aS'management'
p11
aS'java'
p12
aS'big data'
p13
aS'integration'
p14
aS'strategy'
p15
aS'computer science'
p16
aS'data analysis'
p17
aS'python'
p18
aS'data scientist'
p19
aS'c'
aS'sql'
p20
aS'spark'
p21
aS'data'
p22
aS'statistical programming'
p23
aS'training'
p24
aS'erp'
p25
aS'sql server'
p26
aS'science'
p27
aS'programming'
p28
aS'analysis'
p29
aS'machine learning'
p30
aS'r'
aS'data analytics'
p31
aS'data integration'
p32
asS'working-year'
p33
(lp34
V(5, 10]
p35
asS'major'
p36
(lp37
S'information'
p38
aS'management'
p39
aS'business'
p40
aS'big data'
p41
aS'science'
p42
aS'machine learning'
p43
aS'analytics'
p44
aS'engineering'
p45
aS'information system'
p46
aS'design'
p47
aS'computer science'
p48
aS'law'
p49
aS'information system management'
p50
aS'data analytics'
p51
aS'history'
p52
asS'education'
p53
(lp54
VMaster
p55
asS'responsibility'
p56
(lp57
S'development'
p58
aS'information'
p59
aS'data analysis'
p60
aS'communicate'
p61
aS'analysis'
p62
aS'design'
p63
aS'report'
p64
aS'presentation'
p65
aS'transformation'
p66
as.