(dp1
S'skills'
p2
(lp3
S'nosql'
p4
aS'excel'
p5
aS'data science'
p6
aS'tableau'
p7
aS'analytics'
p8
aS'engineering'
p9
aS'analysis'
p10
aS'weka'
p11
aS'spss'
p12
aS'insurance'
p13
aS'geography'
p14
aS'visualization'
p15
aS'management'
p16
aS'java'
p17
aS'power bi'
p18
aS'predictive modeling'
p19
aS'r programming'
p20
aS'hadoop'
p21
aS'perl'
p22
aS'matlab'
p23
aS'mathematics'
p24
aS'unstructured data'
p25
aS'data management'
p26
aS'computer science'
p27
aS'product development'
p28
aS'python'
p29
aS'processing'
p30
aS'data scientist'
p31
aS'cart'
p32
aS'data processing'
p33
aS'sql'
p34
aS'modeling'
p35
aS'data'
p36
aS'c'
aS'database management'
p37
aS'science'
p38
aS'.net'
p39
aS'programming'
p40
aS'excel vba'
p41
aS'high performance computing'
p42
aS'machine learning'
p43
aS'data engineering'
p44
aS'r'
aS'data analytics'
p45
aS'predictive analytics'
p46
asS'working-year'
p47
(lp48
V(2, 5]
p49
asS'major'
p50
(lp51
S'mathematics'
p52
aS'management'
p53
aS'business'
p54
aS'computing'
p55
aS'science'
p56
aS'data science'
p57
aS'high performance computing'
p58
aS'machine learning'
p59
aS'analytics'
p60
aS'engineering'
p61
aS'design'
p62
aS'mathematics computer science'
p63
aS'statistic'
p64
aS'computer science'
p65
aS'predictive analytics'
p66
aS'data analytics'
p67
aS'geography'
p68
asS'education'
p69
(lp70
VMaster
p71
asS'responsibility'
p72
(lp73
S'development'
p74
aS'product'
p75
aS'processing'
p76
aS'build model'
p77
aVinsight
p78
aS'communicate'
p79
aS'analysis'
p80
aS'analytic'
p81
aS'design'
p82
aS'modeling'
p83
aS'model'
p84
aS'prototype'
p85
as.