(dp1
S'skills'
p2
(lp3
S'visualization'
p4
aS'vba'
p5
aS'investment banking'
p6
aS'finance'
p7
aS'excel'
p8
aS'data scientist'
p9
aS'analysis'
p10
aS'banking'
p11
aS'management'
p12
aS'matlab'
p13
aS'microsoft office'
p14
aS'programming'
p15
aS'education'
p16
aS'data'
p17
aS'powerpoint'
p18
aS'data management'
p19
aS'business analysis'
p20
asS'working-year'
p21
(lp22
V(5, 10]
p23
asS'major'
p24
(lp25
S'information'
p26
aS'management'
p27
aS'finance'
p28
aS'business'
p29
aS'business analysis'
p30
asS'education'
p31
(lp32
VBachelor
p33
asS'responsibility'
p34
(lp35
S'development'
p36
aS'information'
p37
aS'product'
p38
aS'business problem'
p39
aS'communicate'
p40
aS'analysis'
p41
as.