(dp1
S'skills'
p2
(lp3
S'research design'
p4
aS'jira'
p5
aS'scrum'
p6
aS'r d'
p7
aS'nosql'
p8
aS'intelligence'
p9
aS'testing'
p10
aS'test driven development'
p11
aS'hardware'
p12
aS'business intelligence'
p13
aS'angularjs'
p14
aS'relational databases'
p15
aS'research'
p16
aS'xml'
p17
aS'management'
p18
aS'java'
p19
aS'json'
p20
aS'user experience'
p21
aS'agile'
p22
aS'excel'
p23
aS'integration'
p24
aS'github'
p25
aS'user interface'
p26
aS'computer science'
p27
aS'spring'
p28
aS'jenkins'
p29
aS'innovation'
p30
aS'education'
p31
aS'hibernate'
p32
aS'aws'
p33
aS'javascript'
p34
aS'data scientist'
p35
aS'j2ee'
p36
aS'ajax'
p37
aS'leadership'
p38
aS'jsp'
p39
aS'scripting'
p40
aS'sql'
p41
aS'data'
p42
aS'software development'
p43
aS'search'
p44
aS'disaster recovery'
p45
aS'tomcat'
p46
aS'science'
p47
aS'eclipse'
p48
aS'engineering'
p49
aS'analysis'
p50
aS'r'
aS'architecture'
p51
aS'research development r d'
p52
aS'quality assurance'
p53
aS'application development'
p54
aS'html5'
p55
asS'working-year'
p56
(lp57
V(2, 5]
p58
asS'major'
p59
(lp60
S'information'
p61
aS'management'
p62
aS'business'
p63
aS'science'
p64
aS'engineering'
p65
aS'design'
p66
aS'computer science'
p67
asS'education'
p68
(lp69
S'Bachelor'
p70
asS'responsibility'
p71
(lp72
S'development'
p73
aS'information'
p74
aS'product'
p75
aS'business problem'
p76
aS'analysis'
p77
aS'understand'
p78
aS'interface'
p79
aS'design'
p80
aS'transformation'
p81
as.