(dp1
S'skills'
p2
(lp3
S'visualization'
p4
aS'data analysis'
p5
aS'python'
p6
aS'data scientist'
p7
aS'data science'
p8
aS'aws'
p9
aS'programming'
p10
aS'analysis'
p11
aS'r'
aS'algorithms'
p12
aS'science'
p13
aS'data'
p14
asS'working-year'
p15
(lp16
S'[0]'
p17
asS'major'
p18
(lp19
VData Science
p20
asS'education'
p21
(lp22
S'Bachelor'
p23
asS'responsibility'
p24
(lp25
S'pattern'
p26
aS'data analysis'
p27
aS'analysis'
p28
as.