(dp1
S'skills'
p2
(lp3
S'classification'
p4
aS'bioinformatics'
p5
aS'information retrieval'
p6
aS'analytics'
p7
aS'engineering'
p8
aS'hive'
p9
aS'data mining'
p10
aS'regression'
p11
aS'visualization'
p12
aS'java'
p13
aS'big data'
p14
aS'data'
p15
aS'hadoop'
p16
aS'research'
p17
aS'matlab'
p18
aS'statistical analysis'
p19
aS'mathematics'
p20
aS'operations research'
p21
aS'computer science'
p22
aS'data analysis'
p23
aS'sentiment analysis'
p24
aS'python'
p25
aS'collaboration'
p26
aS'processing'
p27
aS'data scientist'
p28
aS'business analytics'
p29
aS'business process'
p30
aS'statistical modeling'
p31
aS'sql'
p32
aS'modeling'
p33
aS'spark'
p34
aS'pig'
p35
aS'ruby'
p36
aS'linux'
p37
aS'collaborative filtering'
p38
aS'data visualization'
p39
aS'cluster'
p40
aS'amazon ec2'
p41
aS'science'
p42
aS'programming'
p43
aS'mapreduce'
p44
aS'analysis'
p45
aS'machine learning'
p46
aS'r'
aS'solr'
p47
aS'data analytics'
p48
aS'healthcare'
p49
aS'statistical inference'
p50
aS'validation'
p51
aS'scripting'
p52
aS'ec2'
p53
asS'working-year'
p54
(lp55
V(0, 2]
p56
aV(2, 5]
p57
asS'major'
p58
(lp59
S'information'
p60
aS'business'
p61
aS'big data'
p62
aS'mathematics'
p63
aS'science'
p64
aS'data mining'
p65
aS'statistic'
p66
aS'computer science statistics'
p67
aS'machine learning'
p68
aS'business analytics'
p69
aS'analytics'
p70
aS'engineering'
p71
aS'operations research'
p72
aS'data analytics'
p73
aS'phd'
p74
aS'bioinformatics'
p75
aS'computer science'
p76
aS'law'
p77
aS'information retrieval'
p78
aVphysic
p79
aS'history'
p80
asS'education'
p81
(lp82
VMaster
p83
aVDoctor
p84
asS'responsibility'
p85
(lp86
S'data mining'
p87
aS'information'
p88
aS'data analysis'
p89
aS'data infrastructure'
p90
aS'pattern'
p91
aS'processing'
p92
aS'communicate'
p93
aS'analysis'
p94
aS'statistical model'
p95
aS'statistical method'
p96
aS'understand'
p97
aS'recommendation'
p98
aS'report'
p99
aS'modeling'
p100
aS'implement'
p101
aS'presentation'
p102
aS'model'
p103
as.