(dp1
S'skills'
p2
(lp3
S'nlp'
p4
aS'documentation'
p5
aS'software engineering'
p6
aS'big data'
p7
aS'science'
p8
aS'testing'
p9
aS'processing'
p10
aS'analysis'
p11
aS'machine learning'
p12
aS'engineering'
p13
aS'natural language processing'
p14
aS'laboratory'
p15
aS'data'
p16
asS'working-year'
p17
(lp18
S'[0]'
p19
asS'major'
p20
(lp21
VEngineering
p22
aVComputer Science
p23
asS'education'
p24
(lp25
S'Bachelor'
p26
asS'responsibility'
p27
(lp28
S'development'
p29
aS'product'
p30
aS'documentation'
p31
aS'processing'
p32
aS'analysis'
p33
aS'design'
p34
as.