(dp1
S'skills'
p2
(lp3
S'research design'
p4
aS'statistical modeling'
p5
aS'classification'
p6
aS'communication'
p7
aS'data science'
p8
aS'competitive analysis'
p9
aS'tableau'
p10
aS'analytics'
p11
aS'engineering'
p12
aS'hive'
p13
aS'data mining'
p14
aS'strategy'
p15
aS'clustering'
p16
aS'market research'
p17
aS'management'
p18
aS'java'
p19
aS'big data'
p20
aS'predictive modeling'
p21
aS'excel'
p22
aS'hadoop'
p23
aS'research'
p24
aS'big data analytics'
p25
aS'optimization'
p26
aS'matlab'
p27
aS'microstrategy'
p28
aS'advanced analytics'
p29
aS'unstructured data'
p30
aS'data modeling'
p31
aS'product development'
p32
aS'python'
p33
aS'marketing'
p34
aS'processing'
p35
aS'data scientist'
p36
aS'data processing'
p37
aS'sql'
p38
aS'client presentation'
p39
aS'modeling'
p40
aS'spark'
p41
aS'information extraction'
p42
aS'data'
p43
aS'data collection'
p44
aS'digital strategy'
p45
aS'pig'
p46
aS'science'
p47
aS'analysis'
p48
aS'machine learning'
p49
aS'optimization algorithms'
p50
aS'r'
aS'dashboard'
p51
aS'retail'
p52
aS'data analytics'
p53
aS'statistical analysis'
p54
asS'working-year'
p55
(lp56
V(5, 10]
p57
asS'major'
p58
(lp59
S'communication'
p60
aS'data science'
p61
aS'data mining'
p62
aS'analytics'
p63
aS'engineering'
p64
aS'design'
p65
aS'statistic'
p66
aS'information'
p67
aS'management'
p68
aS'big data'
p69
aVapplied statistic
p70
aS'pharmacy'
p71
aS'big data analytics'
p72
aS'advanced analytics'
p73
aS'data mining machine learning'
p74
aS'business'
p75
aS'marketing'
p76
aVphysic
p77
aS'science'
p78
aS'machine learning'
p79
aS'analytics data science'
p80
aS'data analytics'
p81
asS'education'
p82
(lp83
VMaster
p84
aVDoctor
p85
asS'responsibility'
p86
(lp87
Vinsight
p88
aS'design'
p89
aS'data mining'
p90
aS'extract'
p91
aS'information'
p92
aS'pattern'
p93
aS'recommendation'
p94
aS'analytic'
p95
aS'presentation'
p96
aS'development'
p97
aS'product'
p98
aS'business problem'
p99
aS'processing'
p100
aS'communicate'
p101
aS'statistical model'
p102
aS'understand'
p103
aS'report'
p104
aS'modeling'
p105
aS'model'
p106
aS'data collection'
p107
aS'analysis'
p108
aS'optimization'
p109
aS'implement'
p110
as.