(dp1
S'skills'
p2
(lp3
S'communication'
p4
aS'data science'
p5
aS'integration'
p6
aS'analytics'
p7
aS'thought leadership'
p8
aS'statistical analysis'
p9
aS'data mining'
p10
aS'management'
p11
aS'big data'
p12
aS'agile'
p13
aS'hadoop'
p14
aS'governance'
p15
aS'strategy'
p16
aS'intelligence'
p17
aS'data management'
p18
aS'data modeling'
p19
aS'mongodb'
p20
aS'innovation'
p21
aS'leadership'
p22
aS'sql'
p23
aS'modeling'
p24
aS'data'
p25
aS'a'
aS'c'
aS'science'
p26
aS'.net'
p27
aS'analysis'
p28
aS'r'
aS'architecture'
p29
aS'data analytics'
p30
asS'working-year'
p31
(lp32
S'[0]'
p33
asS'major'
p34
(lp35
VData Science
p36
aVComputer Science
p37
aVBusiness
p38
aVManagement Science and Engineering
p39
asS'education'
p40
(lp41
S'Bachelor'
p42
asS'responsibility'
p43
(lp44
S'information'
p45
aS'product'
p46
aS'insight'
p47
aS'communicate'
p48
aS'analysis'
p49
aS'design'
p50
aS'data mining'
p51
aS'modeling'
p52
aS'implement'
p53
aS'presentation'
p54
aS'model'
p55
as.