(dp1
S'skills'
p2
(lp3
S'marketing analytics'
p4
aS'finance'
p5
aS'big data'
p6
aS'scala'
p7
aS'python'
p8
aS'marketing'
p9
aS'data science'
p10
aS'predictive modeling'
p11
aS'data scientist'
p12
aS'machine learning'
p13
aS'analytics'
p14
aS'r'
aS'intelligence'
p15
aS'sql'
p16
aS'communication'
p17
aS'modeling'
p18
aS'spark'
p19
aS'data'
p20
aS'artificial intelligence'
p21
aS'science'
p22
asS'working-year'
p23
(lp24
V[0]
p25
asS'major'
p26
(lp27
S'finance'
p28
aS'big data'
p29
aS'marketing'
p30
aS'data science'
p31
aS'marketing analytics'
p32
aS'communication'
p33
aS'machine learning'
p34
aS'business'
p35
aS'analytics'
p36
aS'machine learning artificial intelligence'
p37
aS'science'
p38
aS'artificial intelligence'
p39
aS'telecommunication'
p40
asS'education'
p41
(lp42
S'Bachelor'
p43
asS'responsibility'
p44
(lp45
S'analytic'
p46
aS'product'
p47
aVinsight
p48
aS'modeling'
p49
as.