(dp1
S'skills'
p2
(lp3
S'debugging'
p4
aS'r d'
p5
aS'communication'
p6
aS'data science'
p7
aS'information retrieval'
p8
aS'analytics'
p9
aS'unix'
p10
aS'java'
p11
aS'big data'
p12
aS'storage'
p13
aS'hadoop'
p14
aS'research'
p15
aS'computer science'
p16
aS'operating systems'
p17
aS'python'
p18
aS'data scientist'
p19
aS'mpi'
p20
aS'mentoring'
p21
aS'data wrangling'
p22
aS'spark'
p23
aS'data'
p24
aS'software engineering'
p25
aS'science'
p26
aS'scikit-learn'
p27
aS'engineering'
p28
aS'machine learning'
p29
aS'oracle'
p30
asS'working-year'
p31
(lp32
V(5, 10]
p33
aV(2, 5]
p34
asS'major'
p35
(lp36
S'information'
p37
aS'software engineering'
p38
aS'big data'
p39
aS'science'
p40
aS'machine learning data science'
p41
aS'machine learning'
p42
aS'analytics'
p43
aS'engineering'
p44
aS'design'
p45
aS'computer science'
p46
aS'communication'
p47
aS'information retrieval'
p48
aS'data science'
p49
asS'education'
p50
(lp51
S'Bachelor'
p52
asS'responsibility'
p53
(lp54
S'development'
p55
aS'information'
p56
aS'product'
p57
aS'design'
p58
aS'data wrangling'
p59
aS'interface'
p60
aS'prototype'
p61
as.