(dp1
S'skills'
p2
(lp3
S'consulting'
p4
aS'r d'
p5
aS'communication'
p6
aS'data science'
p7
aS'analytics'
p8
aS'engineering'
p9
aS'process improvement'
p10
aS'marketing research'
p11
aS'system design'
p12
aS'data mining'
p13
aS'strategy'
p14
aS'visualization'
p15
aS'management'
p16
aS'user experience'
p17
aS'predictive modeling'
p18
aS'research'
p19
aS'market research'
p20
aS'project coordination'
p21
aS'computer science'
p22
aS'marketing'
p23
aS'mathematics'
p24
aS'segmentation'
p25
aS'finance'
p26
aS'customer service'
p27
aS'statistical modeling'
p28
aS'sql'
p29
aS'modeling'
p30
aS'data'
p31
aS'customer experience'
p32
aS'quantitative research'
p33
aS'economics'
p34
aS'programming'
p35
aS'analysis'
p36
aS'science'
p37
aS'organization'
p38
aS'crm'
p39
aS'system administration'
p40
aS'statistical analysis'
p41
asS'working-year'
p42
(lp43
V(2, 5]
p44
asS'major'
p45
(lp46
S'computing'
p47
aS'communication'
p48
aS'data science'
p49
aS'statistic'
p50
aS'analytics'
p51
aS'engineering'
p52
aS'design'
p53
aS'economics finance'
p54
aS'data mining'
p55
aS'information'
p56
aS'management'
p57
aS'computer science'
p58
aS'mathematics'
p59
aS'finance'
p60
aS'business'
p61
aS'marketing'
p62
aS'information system'
p63
aVphysic
p64
aS'information systems'
p65
aS'science'
p66
aS'economics'
p67
aS'business management'
p68
aS'management information systems'
p69
aS'marketing research'
p70
asS'education'
p71
(lp72
VMaster
p73
asS'responsibility'
p74
(lp75
S'development'
p76
aS'information'
p77
aS'product'
p78
aVinsight
p79
aS'analysis'
p80
aS'improvement'
p81
aS'analytic'
p82
aS'design'
p83
aS'data mining'
p84
aS'report'
p85
aS'modeling'
p86
aS'implement'
p87
aS'statistical model'
p88
aS'model'
p89
as.