(dp1
S'skills'
p2
(lp3
S'speech recognition'
p4
aS'text analytics'
p5
aS'communication'
p6
aS'analytics'
p7
aS'openmp'
p8
aS'sas'
p9
aS'education'
p10
aS'statistics'
p11
aS'open source'
p12
aS'deep learning'
p13
aS'research'
p14
aS'access'
p15
aS'teamwork'
p16
aS'computer science'
p17
aS'natural language processing'
p18
aS'mathematics'
p19
aS'architecture'
p20
aS'processing'
p21
aS'signal processing'
p22
aS'collaboration'
p23
aS'innovation'
p24
aS'data scientist'
p25
aS'mpi'
p26
aS'gpu'
p27
aS'java'
p28
aS'data'
p29
aS'tensorflow'
p30
aS'c'
aS'science'
p31
aS'programming'
p32
aS'machine learning'
p33
aS'cuda'
p34
aS'theano'
p35
aS'physics'
p36
asS'working-year'
p37
(lp38
S'[0]'
p39
asS'major'
p40
(lp41
VMathematics
p42
aVData Science
p43
aVStatistics
p44
aVPhysics
p45
aVComputer Science
p46
asS'education'
p47
(lp48
VMaster
p49
aVDoctor
p50
asS'responsibility'
p51
(lp52
S'development'
p53
aS'information'
p54
aS'product'
p55
aS'processing'
p56
aS'implement'
p57
aS'prototype'
p58
as.