(dp1
S'skills'
p2
(lp3
S'insurance'
p4
aS'consulting'
p5
aS'science'
p6
aS'data scientist'
p7
aS'life sciences'
p8
aS'analysis'
p9
aS'information retrieval'
p10
aS'business analytics'
p11
aS'analytics'
p12
aS'computer science'
p13
aS'problem solving'
p14
aS'data mining'
p15
aS'information security'
p16
aS'mathematics'
p17
aS'security'
p18
aS'data'
p19
aS'statistical learning'
p20
aS'application development'
p21
asS'working-year'
p22
(lp23
V(2, 5]
p24
asS'major'
p25
(lp26
S'information'
p27
aS'mathematics physics'
p28
aS'business'
p29
aS'science'
p30
aS'statistic'
p31
aS'life sciences'
p32
aS'phd'
p33
aS'business analytics'
p34
aS'analytics'
p35
aS'physics computer science'
p36
aS'computer science'
p37
aS'data mining'
p38
aS'mathematics'
p39
aS'information retrieval'
p40
aVphysic
p41
asS'education'
p42
(lp43
VMaster
p44
aVDoctor
p45
asS'responsibility'
p46
(lp47
S'development'
p48
aS'information'
p49
aS'business problem'
p50
aS'communicate'
p51
aS'analysis'
p52
aS'statistical method'
p53
aS'data mining'
p54
as.