(dp1
S'skills'
p2
(lp3
S'r d'
p4
aS'classification'
p5
aS'intelligence'
p6
aS'data science'
p7
aS'analytics'
p8
aS'engineering'
p9
aS'insurance'
p10
aS'management'
p11
aS'java'
p12
aS'scala'
p13
aS'agile'
p14
aS'research'
p15
aS'computer science'
p16
aS'mathematics'
p17
aS'product development'
p18
aS'python'
p19
aS'marketing'
p20
aS'data scientist'
p21
aS'leadership'
p22
aS'sql'
p23
aS'spark'
p24
aS'data'
p25
aS'software development'
p26
aS'c'
aS'science'
p27
aS'consumer insights'
p28
aS'retail'
p29
asS'working-year'
p30
(lp31
V[0]
p32
asS'major'
p33
(lp34
S'information'
p35
aS'management'
p36
aS'business'
p37
aS'analytics'
p38
aS'marketing'
p39
aS'data science'
p40
aS'mathematics statistics'
p41
aS'engineering'
p42
aS'computer science'
p43
aS'statistic'
p44
aS'mathematics'
p45
aS'computer science mathematics'
p46
aS'science'
p47
asS'education'
p48
(lp49
VBachelor
p50
asS'responsibility'
p51
(lp52
S'development'
p53
aS'information'
p54
aS'product'
p55
aS'business problem'
p56
aS'communicate'
p57
aS'analytic'
p58
aS'prototype'
p59
as.