(dp1
S'skills'
p2
(lp3
S'digital marketing'
p4
aS'communication'
p5
aS'data science'
p6
aS'testing'
p7
aS'pig'
p8
aS'analytics'
p9
aS'business intelligence'
p10
aS'data analysis'
p11
aS'analysis'
p12
aS'intelligence'
p13
aS'data mining'
p14
aS'hbase'
p15
aS'random forest'
p16
aS'cassandra'
p17
aS'visualization'
p18
aS'management'
p19
aS'big data'
p20
aS'hadoop'
p21
aS'insurance'
p22
aS'optimization'
p23
aS'matlab'
p24
aS'natural language processing'
p25
aS'policy'
p26
aS'data management'
p27
aS'processing'
p28
aS'hdfs'
p29
aS'python'
p30
aS'marketing'
p31
aS'collaboration'
p32
aS'innovation'
p33
aS'data scientist'
p34
aS'experimental design'
p35
aS'strategic thinking'
p36
aS'sql'
p37
aS'spark'
p38
aS'data'
p39
aS'data visualization'
p40
aS'science'
p41
aS'programming'
p42
aS'c++'
p43
aS'machine learning'
p44
aS'exploratory data analysis'
p45
aS'r'
aS'customer acquisition'
p46
aS'data analytics'
p47
aS'statistical analysis'
p48
asS'working-year'
p49
(lp50
V(2, 5]
p51
asS'major'
p52
(lp53
S'management'
p54
aS'business'
p55
aS'big data'
p56
aS'marketing'
p57
aS'data science'
p58
aS'data mining'
p59
aS'data science analytics'
p60
aS'machine learning'
p61
aS'analytics'
p62
aS'design'
p63
aS'natural language processing'
p64
aS'communication'
p65
aS'data analytics'
p66
aS'science'
p67
asS'education'
p68
(lp69
S'Bachelor'
p70
asS'responsibility'
p71
(lp72
S'development'
p73
aS'large data set'
p74
aS'product'
p75
aS'data analysis'
p76
aS'business problem'
p77
aS'processing'
p78
aS'analysis'
p79
aS'optimization'
p80
aS'design'
p81
aS'data mining'
p82
aS'model'
p83
aS'presentation'
p84
as.