(dp1
S'skills'
p2
(lp3
S'consulting'
p4
aS'shell scripting'
p5
aS'communication'
p6
aS'analytics'
p7
aS'process improvement'
p8
aS'linux'
p9
aS'management'
p10
aS'java'
p11
aS'computer science'
p12
aS'information security'
p13
aS'mathematics'
p14
aS'unstructured data'
p15
aS'data management'
p16
aS'processing'
p17
aS'data modeling'
p18
aS'finance'
p19
aS'python'
p20
aS'javascript'
p21
aS'data scientist'
p22
aS'business analytics'
p23
aS'modeling'
p24
aS'data'
p25
aS'life sciences'
p26
aS'data collection'
p27
aS'science'
p28
aS'analysis'
p29
aS'r'
aS'data analytics'
p30
aS'organization'
p31
aS'security'
p32
aS'scripting'
p33
asS'working-year'
p34
(lp35
V(2, 5]
p36
asS'major'
p37
(lp38
S'information'
p39
aS'life sciences'
p40
aS'management'
p41
aS'finance'
p42
aS'business'
p43
aS'mathematics finance'
p44
aS'science'
p45
aS'communication'
p46
aS'computer science statistics'
p47
aS'business analytics'
p48
aS'analytics'
p49
aS'computer science'
p50
aS'statistic'
p51
aS'mathematics'
p52
aS'ee computer science'
p53
aS'data analytics'
p54
asS'education'
p55
(lp56
VBachelor
p57
aVMaster
p58
asS'responsibility'
p59
(lp60
S'development'
p61
aS'information'
p62
aS'data collection'
p63
aS'processing'
p64
aS'communicate'
p65
aS'analysis'
p66
aS'improvement'
p67
aS'modeling'
p68
aS'model'
p69
as.