(dp1
S'skills'
p2
(lp3
S'text analytics'
p4
aS'communication'
p5
aS'strategic planning'
p6
aS'analytics'
p7
aS'data warehousing'
p8
aS'education'
p9
aS'visualization'
p10
aS'management'
p11
aS'big data'
p12
aS'agile'
p13
aS'hadoop'
p14
aS'information management'
p15
aS'computer science'
p16
aS'advanced analytics'
p17
aS'master data management'
p18
aS'data management'
p19
aS'data modeling'
p20
aS'six sigma'
p21
aS'data scientist'
p22
aS'modeling'
p23
aS'data'
p24
aS'training'
p25
aS'data visualization'
p26
aS'science'
p27
aS'cloud computing'
p28
aS'budgeting'
p29
aS'data architecture'
p30
aS'architecture'
p31
aS'healthcare'
p32
aS'etl'
p33
asS'working-year'
p34
(lp35
V(5, 10]
p36
asS'major'
p37
(lp38
S'information'
p39
aS'management'
p40
aS'business'
p41
aS'big data'
p42
aS'business administration'
p43
aS'science'
p44
aS'computing'
p45
aS'information management'
p46
aS'analytics'
p47
aS'design'
p48
aS'computer science'
p49
aS'communication'
p50
aS'advanced analytics'
p51
asS'education'
p52
(lp53
VBachelor
p54
aVMaster
p55
asS'responsibility'
p56
(lp57
S'development'
p58
aS'information'
p59
aS'communicate'
p60
aS'mapping'
p61
aS'design'
p62
aS'modeling'
p63
aS'implement'
p64
aS'evaluation'
p65
as.