(dp1
S'skills'
p2
(lp3
S'forecasting'
p4
aS'communication'
p5
aS'data science'
p6
aS'testing'
p7
aS'analytics'
p8
aS'quality control'
p9
aS'data mining'
p10
aS'education'
p11
aS'econometrics'
p12
aS'integration'
p13
aS'research'
p14
aS'access'
p15
aS'user interface'
p16
aS'statistical software'
p17
aS'matlab'
p18
aS'stata'
p19
aS'advanced analytics'
p20
aS'mathematics'
p21
aS'data analysis'
p22
aS'marketing'
p23
aS'data'
p24
aS'software development'
p25
aS'science'
p26
aS'applied mathematics'
p27
aS'documentation'
p28
aS'programming'
p29
aS'analysis'
p30
aS'sas programming'
p31
aS'r'
asS'working-year'
p32
(lp33
V(2, 5]
p34
asS'major'
p35
(lp36
S'information'
p37
aS'marketing'
p38
aS'applied mathematics'
p39
aS'data mining'
p40
aS'statistic'
p41
aS'econometrics'
p42
aS'analytics'
p43
aS'statistics applied mathematics'
p44
aS'design'
p45
aS'applied math'
p46
aS'advanced analytics'
p47
aS'mathematics'
p48
aS'law'
p49
aS'data science'
p50
aS'communication'
p51
aS'science'
p52
asS'education'
p53
(lp54
VMaster
p55
aVDoctor
p56
asS'responsibility'
p57
(lp58
S'development'
p59
aS'information'
p60
aS'forecasting'
p61
aS'data analysis'
p62
aS'documentation'
p63
aS'product'
p64
aS'analysis'
p65
aS'analytic'
p66
aS'design'
p67
aS'data mining'
p68
aS'interface'
p69
as.