(dp1
S'skills'
p2
(lp3
S'forecasting'
p4
aS'r d'
p5
aS'communication'
p6
aS'data science'
p7
aS'testing'
p8
aS'analytics'
p9
aS'quality control'
p10
aS'data mining'
p11
aS'education'
p12
aS'econometrics'
p13
aS'integration'
p14
aS'research'
p15
aS'access'
p16
aS'user interface'
p17
aS'statistical software'
p18
aS'matlab'
p19
aS'stata'
p20
aS'advanced analytics'
p21
aS'mathematics'
p22
aS'data analysis'
p23
aS'marketing'
p24
aS'data'
p25
aS'software development'
p26
aS'science'
p27
aS'applied mathematics'
p28
aS'documentation'
p29
aS'programming'
p30
aS'analysis'
p31
aS'sas programming'
p32
aS'r'
asS'working-year'
p33
(lp34
V(2, 5]
p35
asS'major'
p36
(lp37
S'information'
p38
aS'marketing'
p39
aS'applied mathematics'
p40
aS'data mining'
p41
aS'statistic'
p42
aS'econometrics'
p43
aS'analytics'
p44
aS'statistics applied mathematics'
p45
aS'design'
p46
aS'applied math'
p47
aS'advanced analytics'
p48
aS'mathematics'
p49
aS'law'
p50
aS'data science'
p51
aS'communication'
p52
aS'science'
p53
asS'education'
p54
(lp55
VMaster
p56
aVDoctor
p57
asS'responsibility'
p58
(lp59
S'development'
p60
aS'information'
p61
aS'forecasting'
p62
aS'data analysis'
p63
aS'documentation'
p64
aS'product'
p65
aS'analysis'
p66
aS'analytic'
p67
aS'design'
p68
aS'data mining'
p69
aS'interface'
p70
as.