(dp1
S'skills'
p2
(lp3
S'training'
p4
aS'r d'
p5
aS'healthcare industry'
p6
aS'healthcare'
p7
aS'communication'
p8
aS'documentation'
p9
aS'data scientist'
p10
aS'communication skills'
p11
aS'analytics'
p12
aS'analysis'
p13
aS'business requirements'
p14
aS'modeling'
p15
aS'data'
p16
aS'data analytics'
p17
asS'working-year'
p18
(lp19
V(2, 5]
p20
asS'major'
p21
(lp22
S'analytics'
p23
aS'business'
p24
aS'data analytics'
p25
aS'communication'
p26
asS'education'
p27
(lp28
S'Bachelor'
p29
asS'responsibility'
p30
(lp31
S'product'
p32
aS'documentation'
p33
aS'analysis'
p34
aS'statistical model'
p35
aS'analytic'
p36
aS'understand'
p37
aS'interface'
p38
aS'modeling'
p39
aS'model'
p40
aS'presentation'
p41
as.