(dp1
S'skills'
p2
(lp3
S'r d'
p4
aS'knowledge management'
p5
aS'decision support'
p6
aS'analytics'
p7
aS'analysis'
p8
aS'accounting'
p9
aS'management'
p10
aS'excel'
p11
aS'strategy'
p12
aS'teamwork'
p13
aS'communication'
p14
aS'advanced analytics'
p15
aS'quality management'
p16
aS'data management'
p17
aS'finance'
p18
aS'collaboration'
p19
aS'data scientist'
p20
aS'performance measurement'
p21
aS'leadership'
p22
aS'data'
p23
aS'communication skills'
p24
aS'healthcare'
p25
aS'organization'
p26
aS'microsoft office'
p27
aS'predictive analytics'
p28
asS'working-year'
p29
(lp30
V(0, 2]
p31
aV(2, 5]
p32
asS'major'
p33
(lp34
S'information'
p35
aS'management'
p36
aS'finance'
p37
aS'knowledge management'
p38
aS'mba'
p39
aS'analytics'
p40
aS'communication'
p41
aS'advanced analytics'
p42
aS'accounting'
p43
aS'predictive analytics'
p44
asS'education'
p45
(lp46
VBachelor
p47
asS'responsibility'
p48
(lp49
S'development'
p50
aS'large data set'
p51
aS'product'
p52
aS'information'
p53
aVinsight
p54
aS'communicate'
p55
aS'analysis'
p56
aS'improvement'
p57
aS'complex data set'
p58
aS'report'
p59
aS'presentation'
p60
as.