(dp1
S'skills'
p2
(lp3
S'knowledge management'
p4
aS'decision support'
p5
aS'analytics'
p6
aS'analysis'
p7
aS'accounting'
p8
aS'education'
p9
aS'management'
p10
aS'excel'
p11
aS'strategy'
p12
aS'teamwork'
p13
aS'communication'
p14
aS'advanced analytics'
p15
aS'quality management'
p16
aS'data management'
p17
aS'finance'
p18
aS'collaboration'
p19
aS'data scientist'
p20
aS'performance measurement'
p21
aS'leadership'
p22
aS'data'
p23
aS'communication skills'
p24
aS'healthcare'
p25
aS'organization'
p26
aS'microsoft office'
p27
aS'predictive analytics'
p28
asS'working-year'
p29
(lp30
V(0, 2]
p31
aV(2, 5]
p32
asS'major'
p33
(lp34
VData Science
p35
aVEconomics
p36
aVComputer Science
p37
aVBusiness
p38
aVManagement Science and Engineering
p39
asS'education'
p40
(lp41
VBachelor
p42
asS'responsibility'
p43
(lp44
S'development'
p45
aS'information'
p46
aS'product'
p47
aS'large data set'
p48
aS'insight'
p49
aS'communicate'
p50
aS'analysis'
p51
aS'improvement'
p52
aS'complex data set'
p53
aS'report'
p54
aS'manipulate ... data set'
p55
aS'develop ... model'
p56
aS'presentation'
p57
as.