(dp1
S'skills'
p2
(lp3
S'consulting'
p4
aS'assembly language'
p5
aS'computer architecture'
p6
aS'communication'
p7
aS'sales'
p8
aS'analytics'
p9
aS'communication skills'
p10
aS'linux'
p11
aS'perl'
p12
aS'data analytics'
p13
aS'management'
p14
aS'big data'
p15
aS'deep learning'
p16
aS'hadoop'
p17
aS'writing'
p18
aS'big data analytics'
p19
aS'fortran'
p20
aS'optimization'
p21
aS'intelligence'
p22
aS'artificial intelligence'
p23
aS'government'
p24
aS'python'
p25
aS'data scientist'
p26
aS'technical writing'
p27
aS'data'
p28
aS'software development'
p29
aS'c'
aS'programming'
p30
aS'high performance computing'
p31
aS'data architecture'
p32
aS'r'
aS'architecture'
p33
aS'organization'
p34
aS'security'
p35
aS'pre-sales'
p36
aS'scripting'
p37
asS'working-year'
p38
(lp39
sS'major'
p40
(lp41
VData Science
p42
aVComputer Science
p43
aVManagement Science and Engineering
p44
asS'education'
p45
(lp46
S'Bachelor'
p47
asS'responsibility'
p48
(lp49
S'development'
p50
aS'design'
p51
aS'optimization'
p52
aS'presentation'
p53
aS'transformation'
p54
as.