(dp1
S'skills'
p2
(lp3
S'photoshop'
p4
aS'text analytics'
p5
aS'excel'
p6
aS'intelligence analysis'
p7
aS'hardware'
p8
aS'analytics'
p9
aS'engineering'
p10
aS'defense'
p11
aS'process improvement'
p12
aS'analysis'
p13
aS'problem solving'
p14
aS'laboratory'
p15
aS'research'
p16
aS'owl'
p17
aS'earth science'
p18
aS'visualization'
p19
aS'management'
p20
aS'characterization'
p21
aS'air force'
p22
aS'tableau'
p23
aS'writing'
p24
aS'access'
p25
aS'rf'
p26
aS'matlab'
p27
aS'intelligence'
p28
aS'advanced analytics'
p29
aS'mathematics'
p30
aS'operations research'
p31
aS'systems engineering'
p32
aS'data analysis'
p33
aS'visual analytics'
p34
aS'theory'
p35
aS'government'
p36
aS'adobe creative suite'
p37
aS'data scientist'
p38
aS'leadership'
p39
aS'html5'
p40
aS'aerospace'
p41
aS'technical writing'
p42
aS'modeling'
p43
aS'manufacturing'
p44
aS'data'
p45
aS'arena'
p46
aS'word'
p47
aS'national security'
p48
aS'spatial analysis'
p49
aS'remote sensing'
p50
aS'science'
p51
aS'education'
p52
aS'security clearance'
p53
aS'simulation'
p54
aS'arcgis'
p55
aS'r'
aS'gephi'
p56
aS'security'
p57
aS'powerpoint'
p58
asS'working-year'
p59
(lp60
V(0, 2]
p61
aV(2, 5]
p62
asS'major'
p63
(lp64
S'systems engineering'
p65
aS'information'
p66
aS'management'
p67
aS'business'
p68
aS'science'
p69
aS'analytics'
p70
aS'engineering'
p71
aS'statistic'
p72
aS'advanced analytics'
p73
aS'mathematics'
p74
aS'operations research'
p75
asS'education'
p76
(lp77
VMaster
p78
aVDoctor
p79
asS'responsibility'
p80
(lp81
S'development'
p82
aS'information'
p83
aS'product'
p84
aS'data analysis'
p85
aS'communicate'
p86
aS'analysis'
p87
aS'simulation'
p88
aS'analytic'
p89
aS'solve problem'
p90
aS'report'
p91
aS'modeling'
p92
aS'model'
p93
as.