(dp1
S'skills'
p2
(lp3
S'r d'
p4
aS'shell scripting'
p5
aS'spanish'
p6
aS'rest'
p7
aS'pig'
p8
aS'unix'
p9
aS'hive'
p10
aS'data mining'
p11
aS'web crawling'
p12
aS'java'
p13
aS'critical thinking'
p14
aS'predictive modeling'
p15
aS'hadoop'
p16
aS'access'
p17
aS'teamwork'
p18
aS'computer science'
p19
aS'unstructured data'
p20
aS'distributed computing'
p21
aS'apis'
p22
aS'python'
p23
aS'processing'
p24
aS'apache spark'
p25
aS'business process'
p26
aS'sql'
p27
aS'apache'
p28
aS'modeling'
p29
aS'spark'
p30
aS'data'
p31
aS'engineering'
p32
aS'c'
aS'solver'
p33
aS'data cleaning'
p34
aS'science'
p35
aS'mapreduce'
p36
aS'analysis'
p37
aS'security'
p38
aS'scripting'
p39
asS'working-year'
p40
(lp41
V(2, 5]
p42
asS'major'
p43
(lp44
S'information'
p45
aS'business'
p46
aS'computing'
p47
aS'science'
p48
aS'statistic'
p49
aS'general'
p50
aS'engineering'
p51
aS'computer science'
p52
aS'data mining'
p53
aS'history'
p54
asS'education'
p55
(lp56
S'Bachelor'
p57
asS'responsibility'
p58
(lp59
S'large data set'
p60
aS'processing'
p61
aS'business problem'
p62
aVinsight
p63
aS'analysis'
p64
aS'analytic'
p65
aS'data mining'
p66
aS'modeling'
p67
aS'information'
p68
aS'extract'
p69
as.