(dp1
S'skills'
p2
(lp3
S'hardware'
p4
aS'engineering'
p5
aS'research'
p6
aS'management'
p7
aS'java'
p8
aS'big data'
p9
aS'hadoop'
p10
aS'strategy'
p11
aS'market research'
p12
aS'project coordination'
p13
aS'computer science'
p14
aS'innovation'
p15
aS'architecture'
p16
aS'data modeling'
p17
aS'collaboration'
p18
aS'business process'
p19
aS'leadership'
p20
aS'application architecture'
p21
aS'modeling'
p22
aS'spark'
p23
aS'data'
p24
aS'software development'
p25
aS'science'
p26
aS'product innovation'
p27
aS'advertising'
p28
aS'organization'
p29
asS'working-year'
p30
(lp31
V(5, 10]
p32
aV(2, 5]
p33
asS'major'
p34
(lp35
VEngineering
p36
aVComputer Science
p37
aVBusiness
p38
aVManagement Science and Engineering
p39
asS'education'
p40
(lp41
VBachelor
p42
asS'responsibility'
p43
(lp44
S'development'
p45
aS'product'
p46
aS'design'
p47
aS'recommendation'
p48
aS'interface'
p49
aS'modeling'
p50
aS'implement'
p51
aS'prototype'
p52
as.