(dp1
S'skills'
p2
(lp3
S'biostatistics'
p4
aS'healthcare analytics'
p5
aS'analytics'
p6
aS'process improvement'
p7
aS'statistical analysis'
p8
aS'data mining'
p9
aS'sas'
p10
aS'spss'
p11
aS'regression'
p12
aS'clustering'
p13
aS'statistics'
p14
aS'probability'
p15
aS'predictive modeling'
p16
aS'excel'
p17
aS'research'
p18
aS'education'
p19
aS'unstructured data'
p20
aS'data scientist'
p21
aS'sql'
p22
aS'modeling'
p23
aS'data'
p24
aS'information technology'
p25
aS'a'
aS'life sciences'
p26
aS'econometric modeling'
p27
aS'programming'
p28
aS'analysis'
p29
aS'machine learning'
p30
aS'r'
aS'healthcare'
p31
aS'organization'
p32
asS'working-year'
p33
(lp34
V(5, 10]
p35
asS'major'
p36
(lp37
VStatistics
p38
aVBusiness
p39
aVData Science
p40
aVInformation Science
p41
aVComputer Science
p42
aVBiological Engineering
p43
asS'education'
p44
(lp45
VBachelor
p46
aVDoctor
p47
asS'responsibility'
p48
(lp49
S'information'
p50
aS'decision-making'
p51
aS'business problem'
p52
aS'insight'
p53
aS'analysis'
p54
aS'improvement'
p55
aS'analytic'
p56
aS'drive ... decision'
p57
aS'data mining'
p58
aS'modeling'
p59
as.