(dp1
S'skills'
p2
(lp3
S'consulting'
p4
aS'web applications'
p5
aS'r d'
p6
aS'communication'
p7
aS'data science'
p8
aS'testing'
p9
aS'continuous improvement'
p10
aS'data'
p11
aS'amazon web services'
p12
aS'git'
p13
aS'java'
p14
aS'agile'
p15
aS'recruiting'
p16
aS'integration'
p17
aS'strategy'
p18
aS'teamwork'
p19
aS'computer science'
p20
aS'web services'
p21
aS'innovation'
p22
aS'jenkins'
p23
aS'amazon web services aws'
p24
aS'quality assurance'
p25
aS'scrum'
p26
aS'aws'
p27
aS'javascript'
p28
aS'data scientist'
p29
aS'automation'
p30
aS'ruby'
p31
aS'android'
p32
aS'science'
p33
aS'programming'
p34
aS'financial services'
p35
aS'healthcare'
p36
aS'retail'
p37
asS'working-year'
p38
(lp39
V(2, 5]
p40
asS'major'
p41
(lp42
S'communication'
p43
aS'data science'
p44
aS'automation'
p45
aS'design'
p46
aS'computer science'
p47
aS'science'
p48
aS'data science engineering'
p49
asS'education'
p50
(lp51
S'Bachelor'
p52
asS'responsibility'
p53
(lp54
S'report'
p55
aS'development'
p56
aS'product'
p57
aS'design'
p58
aS'improvement'
p59
as.