(dp1
S'skills'
p2
(lp3
S'a'
aS'organization'
p4
aS'probability'
p5
aS'classification'
p6
aS'python'
p7
aS'science'
p8
aS'data science'
p9
aS'predictive modeling'
p10
aS'.net'
p11
aS'engineering'
p12
aS'r'
aS'architecture'
p13
aS'algorithm development'
p14
aS'intelligence'
p15
aS'modeling'
p16
aS'validation'
p17
aS'data'
p18
aS'artificial intelligence'
p19
asS'working-year'
p20
(lp21
V(2, 5]
p22
asS'major'
p23
(lp24
VData Science
p25
aVEngineering
p26
aVBusiness
p27
asS'education'
p28
(lp29
S'Bachelor'
p30
asS'responsibility'
p31
(lp32
S'development'
p33
aS'modeling'
p34
aS'product'
p35
aS'insight'
p36
aS'model'
p37
as.