(dp1
S'skills'
p2
(lp3
S'soa'
p4
aS'consulting'
p5
aS'predictive modeling'
p6
aS'intelligence'
p7
aS'analytics'
p8
aS'business intelligence'
p9
aS'data warehousing'
p10
aS'data mining'
p11
aS'spss'
p12
aS'management'
p13
aS'sharepoint'
p14
aS'excel'
p15
aS'outsourcing'
p16
aS'research'
p17
aS'enterprise architecture'
p18
aS'innovation'
p19
aS'data management'
p20
aS'product development'
p21
aS'government'
p22
aS'sql'
p23
aS'modeling'
p24
aS'data'
p25
aS'organization'
p26
aS'erp'
p27
aS'programming'
p28
aS'engineering'
p29
aS'analysis'
p30
aS'machine learning'
p31
aS'e-commerce'
p32
aS'architecture'
p33
aS'healthcare'
p34
aS'process improvement'
p35
aS'crm'
p36
asS'working-year'
p37
(lp38
V(0, 2]
p39
asS'major'
p40
(lp41
S'information'
p42
aS'management'
p43
aS'business'
p44
aS'statistic'
p45
aS'phd'
p46
aS'analytics'
p47
aS'engineering'
p48
aS'data mining'
p49
aS'machine learning'
p50
asS'education'
p51
(lp52
VMaster
p53
aVDoctor
p54
asS'responsibility'
p55
(lp56
S'development'
p57
aS'information'
p58
aS'product'
p59
aVinsight
p60
aS'analysis'
p61
aS'improvement'
p62
aS'data mining'
p63
aS'modeling'
p64
as.