(dp1
S'skills'
p2
(lp3
S'continuous improvement'
p4
aS'communication'
p5
aS'energy'
p6
aS'analytics'
p7
aS'strategy'
p8
aS'change management'
p9
aS'management'
p10
aS'big data'
p11
aS'excel'
p12
aS'time management'
p13
aS'big data analytics'
p14
aS'teamwork'
p15
aS'innovation'
p16
aS'customer satisfaction'
p17
aS'performance management'
p18
aS'six sigma'
p19
aS'customer service'
p20
aS'leadership'
p21
aS'requirements management'
p22
aS'data'
p23
aS'project management'
p24
aS'process development'
p25
aS'organization'
p26
aS'team management'
p27
aS'data analytics'
p28
asS'working-year'
p29
(lp30
S'[0]'
p31
asS'major'
p32
(lp33
VData Science
p34
aVEconomics
p35
aVBusiness
p36
aVManagement Science and Engineering
p37
asS'education'
p38
(lp39
VBachelor
p40
aVMaster
p41
asS'responsibility'
p42
(lp43
S'development'
p44
aS'improvement'
p45
aS'identify opportunity'
p46
aS'report'
p47
aS'model'
p48
aS'presentation'
p49
as.