(dp1
S'skills'
p2
(lp3
S'security'
p4
aS'testing'
p5
aS'research'
p6
aS'management'
p7
aS'java'
p8
aS'critical thinking'
p9
aS'sharepoint'
p10
aS'saas'
p11
aS'perl'
p12
aS'innovation'
p13
aS'product development'
p14
aS'iis'
p15
aS'data scientist'
p16
aS'apache'
p17
aS'data'
p18
aS'b2b'
p19
aS'bash'
p20
aS'a'
aS'windows'
p21
aS'docker'
p22
aS'powershell'
p23
aS'scripting'
p24
asS'working-year'
p25
(lp26
V(2, 5]
p27
asS'major'
p28
(lp29
VBusiness
p30
aVManagement Science and Engineering
p31
asS'education'
p32
(lp33
VBachelor
p34
asS'responsibility'
p35
(lp36
S'development'
p37
aS'implement'
p38
aS'design'
p39
aS'product'
p40
as.