(dp1
S'skills'
p2
(lp3
S'r d'
p4
aS'ip'
p5
aS'energy'
p6
aS'hardware'
p7
aS'engineering'
p8
aS'enterprise software'
p9
aS'go'
p10
aS'continuous improvement'
p11
aS'geography'
p12
aS'management'
p13
aS'big data'
p14
aS'user experience'
p15
aS'agile'
p16
aS'integration'
p17
aS'research'
p18
aS'music'
p19
aS'communication'
p20
aS'master data management'
p21
aS'data management'
p22
aS'scrum'
p23
aS'aws'
p24
aS'collaboration'
p25
aS'innovation'
p26
aS'data scientist'
p27
aS'leadership'
p28
aS'sql'
p29
aS'data'
p30
aS'software development'
p31
aS'training'
p32
aS'sql server'
p33
aS'analysis'
p34
aS'critical thinking'
p35
aS'optimization'
p36
aS'etl'
p37
aS'organization'
p38
aS'retail'
p39
aS'root'
p40
aS'scripting'
p41
asS'working-year'
p42
(lp43
V(2, 5]
p44
asS'major'
p45
(lp46
S'information'
p47
aS'management'
p48
aS'business'
p49
aS'big data'
p50
aS'communication'
p51
aS'technology management'
p52
aS'phd'
p53
aS'engineering'
p54
aS'management technology'
p55
aS'music'
p56
aVphysic
p57
aS'geography'
p58
asS'education'
p59
(lp60
VBachelor
p61
aVMaster
p62
aVDoctor
p63
asS'responsibility'
p64
(lp65
S'development'
p66
aS'information'
p67
aS'product'
p68
aS'business problem'
p69
aVinsight
p70
aS'communicate'
p71
aS'analysis'
p72
aS'improvement'
p73
aS'optimization'
p74
aS'understand'
p75
aS'model'
p76
aS'transformation'
p77
as.