(dp1
S'skills'
p2
(lp3
S'communication'
p4
aS'energy'
p5
aS'personalization'
p6
aS'data'
p7
aS'open source'
p8
aS'agile'
p9
aS'recruiting'
p10
aS'perl'
p11
aS'fraud detection'
p12
aS'computer science'
p13
aS'innovation'
p14
aS'policy'
p15
aS'data science'
p16
aS'apis'
p17
aS'python'
p18
aS'aws'
p19
aS'scalability'
p20
aS'automation'
p21
aS'java'
p22
aS'ruby'
p23
aS'b2b'
p24
aS'bash'
p25
aS'groovy'
p26
aS'search'
p27
aS'fraud'
p28
aS'science'
p29
aS'e-commerce'
p30
aS'advertising'
p31
aS'docker'
p32
aS'clojure'
p33
aS'scripting'
p34
asS'working-year'
p35
(lp36
V(2, 5]
p37
asS'major'
p38
(lp39
S'information'
p40
aS'business'
p41
aS'science'
p42
aS'data science'
p43
aS'automation'
p44
aS'computer science'
p45
aS'communication'
p46
aS'general'
p47
aS'ee computer science'
p48
asS'education'
p49
(lp50
VBachelor
p51
asS'responsibility'
p52
(lp53
S'development'
p54
aS'information'
p55
aS'model'
p56
aS'recommendation'
p57
as.