(dp1
S'skills'
p2
(lp3
S'psychology'
p4
aS'user experience'
p5
aS'excel'
p6
aS'testing'
p7
aS'data scientist'
p8
aS'tableau'
p9
aS'analysis'
p10
aS'research'
p11
aS'market research'
p12
aS'survey design'
p13
aS'quantitative research'
p14
aS'business development'
p15
aS'data'
p16
aS'powerpoint'
p17
asS'working-year'
p18
(lp19
V[0]
p20
asS'major'
p21
(lp22
S'anthropology'
p23
aS'design'
p24
aS'psychology'
p25
aS'business'
p26
aS'general'
p27
asS'education'
p28
(lp29
S'Bachelor'
p30
asS'responsibility'
p31
(lp32
S'development'
p33
aS'product'
p34
aVinsight
p35
aS'analysis'
p36
aS'design'
p37
aS'construct'
p38
aS'report'
p39
aS'presentation'
p40
as.