(dp1
S'skills'
p2
(lp3
S'consulting'
p4
aS'probability'
p5
aS'analytics'
p6
aS'product strategy'
p7
aS'go'
p8
aS'strategy'
p9
aS'quantitative analysis'
p10
aS'management'
p11
aS'java'
p12
aS'excel'
p13
aS'tableau'
p14
aS'research'
p15
aS'computer science'
p16
aS'python'
p17
aS'data scientist'
p18
aS'sql'
p19
aS'php'
p20
aS'data'
p21
aS'science'
p22
aS'economics'
p23
aS'analysis'
p24
aS'powerpoint'
p25
asS'working-year'
p26
(lp27
S'[0]'
p28
asS'major'
p29
(lp30
VBusiness
p31
aVData Science
p32
aVEconomics
p33
aVInformation Science
p34
aVComputer Science
p35
aVMathematics
p36
aVManagement Science and Engineering
p37
asS'education'
p38
(lp39
VBachelor
p40
asS'responsibility'
p41
(lp42
S'development'
p43
aS'information'
p44
aS'product'
p45
aS'quantitative analysis'
p46
aS'insight'
p47
aS'analysis'
p48
aS'analytic'
p49
aS'understand'
p50
aS'identify opportunity'
p51
aS'report'
p52
aS'presentation'
p53
as.