(dp1
S'skills'
p2
(lp3
S'digital marketing'
p4
aS'training'
p5
aS'valuation'
p6
aS'marketing'
p7
aS'data scientist'
p8
aS'e-commerce'
p9
aS'pricing'
p10
aS'automotive'
p11
aS'sql'
p12
aS'communication'
p13
aS'organization'
p14
aS'education'
p15
aS'data'
p16
asS'working-year'
p17
(lp18
V(5, 10]
p19
asS'major'
p20
(lp21
S'marketing'
p22
aS'business communications'
p23
aS'communication'
p24
aS'business'
p25
aS'information'
p26
asS'education'
p27
(lp28
VBachelor
p29
aVMaster
p30
asS'responsibility'
p31
(lp32
S'report'
p33
aS'development'
p34
aS'collect data'
p35
aS'information'
p36
as.