(dp1
S'skills'
p2
(lp3
S'communication'
p4
aS'devops'
p5
aS'ant'
p6
aS'unix'
p7
aS'linux'
p8
aS'continuous improvement'
p9
aS'git'
p10
aS'user experience'
p11
aS'agile'
p12
aS'sharepoint'
p13
aS'excel'
p14
aS'integration'
p15
aS'research'
p16
aS'subversion'
p17
aS'innovation'
p18
aS'policy'
p19
aS'jenkins'
p20
aS'product development'
p21
aS'collaboration'
p22
aS'scrum'
p23
aS'data scientist'
p24
aS'automation'
p25
aS'maven'
p26
aS'process automation'
p27
aS'management'
p28
aS'data'
p29
aS'b2b'
p30
aS'software development'
p31
aS'github'
p32
aS'saas'
p33
aS'programming'
p34
aS'engineering'
p35
aS'scripting'
p36
aS'docker'
p37
aS'application development'
p38
asS'working-year'
p39
(lp40
V(5, 10]
p41
aV(2, 5]
p42
asS'major'
p43
(lp44
S'information'
p45
aS'management'
p46
aS'business'
p47
aS'communication'
p48
aS'automation'
p49
aS'engineering'
p50
asS'education'
p51
(lp52
S'Bachelor'
p53
asS'responsibility'
p54
(lp55
S'development'
p56
aS'information'
p57
aS'product'
p58
aVinsight
p59
aS'communicate'
p60
aS'improvement'
p61
aS'interface'
p62
aS'report'
p63
as.