(dp1
S'skills'
p2
(lp3
S'software development'
p4
aS'consulting'
p5
aS'sqoop'
p6
aS'tableau'
p7
aS'big data'
p8
aS'communication'
p9
aS'oozie'
p10
aS'data scientist'
p11
aS'mapreduce'
p12
aS'hive'
p13
aS'time management'
p14
aS'computer science'
p15
aS'science'
p16
aS'hadoop'
p17
aS'hbase'
p18
aS'data'
p19
asS'working-year'
p20
(lp21
V(5, 10]
p22
asS'major'
p23
(lp24
S'science'
p25
aS'ee computer science'
p26
aS'computer science'
p27
aS'big data'
p28
aS'communication'
p29
asS'education'
p30
(lp31
VBachelor
p32
asS'responsibility'
p33
(lp34
S'development'
p35
aS'communicate'
p36
as.