(dp1
S'skills'
p2
(lp3
S'visualization'
p4
aS'r d'
p5
aS'data visualization'
p6
aS'marketing'
p7
aS'data scientist'
p8
aS'rest'
p9
aS'access'
p10
aS'engineering'
p11
aS'product design'
p12
aS'pricing'
p13
aS'organization'
p14
aS'go'
p15
aS'business development'
p16
aS'data'
p17
asS'working-year'
p18
(lp19
V[0]
p20
asS'major'
p21
(lp22
S'marketing'
p23
aS'engineering'
p24
aS'business'
p25
aS'data analyst'
p26
asS'education'
p27
(lp28
S'Bachelor'
p29
asS'responsibility'
p30
(lp31
S'development'
p32
aS'large data set'
p33
aS'product'
p34
aVinsight
p35
aS'statistical model'
p36
aS'report'
p37
aS'model'
p38
as.