(dp1
S'skills'
p2
(lp3
S'analytics'
p4
aS'engineering'
p5
aS'mathematical modeling'
p6
aS'research'
p7
aS'econometrics'
p8
aS'experimentation'
p9
aS'visualization'
p10
aS'management'
p11
aS'psychology'
p12
aS'strategy'
p13
aS'mathematics'
p14
aS'customer satisfaction'
p15
aS'python'
p16
aS'business process'
p17
aS'sql'
p18
aS'modeling'
p19
aS'data'
p20
aS'training'
p21
aS'data visualization'
p22
aS'quantitative research'
p23
aS'analysis'
p24
aS'machine learning'
p25
aS'r'
aS'data analytics'
p26
aS'validation'
p27
aS'scripting'
p28
aS'predictive analytics'
p29
asS'working-year'
p30
(lp31
V(2, 5]
p32
asS'major'
p33
(lp34
S'management'
p35
aS'psychology'
p36
aS'business'
p37
aS'machine learning'
p38
aS'analytics'
p39
aS'engineering'
p40
aS'design'
p41
aS'statistic'
p42
aS'mathematics'
p43
aS'phd'
p44
aS'econometrics'
p45
aS'data analytics'
p46
aS'predictive analytics'
p47
asS'education'
p48
(lp49
VDoctor
p50
asS'responsibility'
p51
(lp52
Vtest hypothesis
p53
aS'presentation'
p54
aVinsight
p55
aS'analysis'
p56
aS'improvement'
p57
aS'design'
p58
aS'design experiment'
p59
aS'recommendation'
p60
aS'understand'
p61
aS'modeling'
p62
aS'prototype'
p63
aS'extract'
p64
as.