(dp1
S'skills'
p2
(lp3
S'communication'
p4
aS'data acquisition'
p5
aS'performance improvement'
p6
aS'strategy'
p7
aS'product development'
p8
aS'agile'
p9
aS'saas'
p10
aS'integration'
p11
aS'governance'
p12
aS'research'
p13
aS'access'
p14
aS'innovation'
p15
aS'database development'
p16
aS'data modeling'
p17
aS'theory'
p18
aS'database design'
p19
aS'processing'
p20
aS'data scientist'
p21
aS'presentation skills'
p22
aS'data structures'
p23
aS'application architecture'
p24
aS'data processing'
p25
aS'modeling'
p26
aS'data'
p27
aS'b2b'
p28
aS'design patterns'
p29
aS'performance metrics'
p30
aS'policy'
p31
aS'solution architecture'
p32
aS'analysis'
p33
aS'data architecture'
p34
aS'architecture'
p35
aS'security'
p36
asS'working-year'
p37
(lp38
V[0]
p39
asS'major'
p40
(lp41
S'information'
p42
aS'business'
p43
aS'computing'
p44
aS'communication'
p45
aS'data analyst'
p46
aS'design'
p47
asS'education'
p48
(lp49
S'Bachelor'
p50
asS'responsibility'
p51
(lp52
S'development'
p53
aS'information'
p54
aS'product'
p55
aS'pattern'
p56
aS'processing'
p57
aS'analysis'
p58
aS'improvement'
p59
aS'model'
p60
aS'design'
p61
aS'modeling'
p62
aS'implement'
p63
aS'presentation'
p64
aS'transformation'
p65
as.