(dp1
S'skills'
p2
(lp3
S'nlp'
p4
aS'healthcare industry'
p5
aS'intelligence'
p6
aS'julia'
p7
aS'analytics'
p8
aS'business intelligence'
p9
aS'statistical analysis'
p10
aS'education'
p11
aS'random forest'
p12
aS'clustering'
p13
aS'management'
p14
aS'integration'
p15
aS'research'
p16
aS'knime'
p17
aS'matlab'
p18
aS'communication'
p19
aS'quality management'
p20
aS'performance management'
p21
aS'python'
p22
aS'collaboration'
p23
aS'data scientist'
p24
aS'data quality'
p25
aS'svm'
p26
aS'octave'
p27
aS'sql'
p28
aS'regression'
p29
aS'modeling'
p30
aS'translation'
p31
aS'data'
p32
aS'decision trees'
p33
aS'programming'
p34
aS'analysis'
p35
aS'machine learning'
p36
aS'r'
aS'scripting'
p37
aS'logistic regression'
p38
aS'healthcare'
p39
aS'data integration'
p40
asS'working-year'
p41
(lp42
V(5, 10]
p43
asS'major'
p44
(lp45
S'information'
p46
aS'management'
p47
aS'business'
p48
aS'communication'
p49
aS'phd'
p50
aS'analytics'
p51
aS'design'
p52
aS'statistic'
p53
aS'machine learning'
p54
asS'education'
p55
(lp56
VMaster
p57
aVDoctor
p58
asS'responsibility'
p59
(lp60
S'large data set'
p61
aS'product'
p62
aS'information'
p63
aVinsight
p64
aS'communicate'
p65
aS'analysis'
p66
aS'statistical model'
p67
aS'analytic'
p68
aS'statistical method'
p69
aS'design'
p70
aS'modeling'
p71
aS'report'
p72
aS'understand'
p73
aS'model'
p74
as.