(dp1
S'skills'
p2
(lp3
S'forecasting'
p4
aS'fraud'
p5
aS'python'
p6
aS'science'
p7
aS'statistical computing'
p8
aS'analysis'
p9
aS'machine learning'
p10
aS'credit'
p11
aS'engineering'
p12
aS'r'
aS'computer science'
p13
aS'data mining'
p14
aS'modeling'
p15
aS'strategy'
p16
aS'data'
p17
aS'data science'
p18
aS'scripting'
p19
aS'statistical analysis'
p20
asS'working-year'
p21
(lp22
V(2, 5]
p23
asS'major'
p24
(lp25
VData Science
p26
aVEngineering
p27
aVComputer Science
p28
asS'education'
p29
(lp30
VBachelor
p31
aVMaster
p32
asS'responsibility'
p33
(lp34
S'modeling'
p35
aS'forecasting'
p36
aS'model'
p37
aS'analysis'
p38
aS'data mining'
p39
as.