(dp1
S'skills'
p2
(lp3
S'consulting'
p4
aS'data science'
p5
aS'analytics'
p6
aS'problem solving'
p7
aS'statistics'
p8
aS'genetics'
p9
aS'agile'
p10
aS'predictive modeling'
p11
aS'integration'
p12
aS'strategy'
p13
aS'mixed model'
p14
aS'python'
p15
aS'experimental design'
p16
aS'management'
p17
aS'sql'
p18
aS'modeling'
p19
aS'data'
p20
aS'science'
p21
aS'programming'
p22
aS'analysis'
p23
aS'simulation'
p24
aS'r'
aS'organization'
p25
aS'predictive analytics'
p26
aVbayesian statistic
p27
aS'scripting'
p28
aS'trend analysis'
p29
asS'working-year'
p30
(lp31
V(0, 2]
p32
asS'major'
p33
(lp34
VBiological Engineering
p35
aVData Science
p36
aVStatistics
p37
aVComputer Science
p38
aVManagement Science and Engineering
p39
asS'education'
p40
(lp41
VMaster
p42
aVDoctor
p43
asS'responsibility'
p44
(lp45
S'large data set'
p46
aS'analysis'
p47
aS'simulation'
p48
aS'analytic'
p49
aS'design'
p50
aS'modeling'
p51
aS'model'
p52
as.