(dp1
S'skills'
p2
(lp3
S'consulting'
p4
aS'data science'
p5
aS'analytics'
p6
aS'problem solving'
p7
aS'management'
p8
aS'genetics'
p9
aS'critical thinking'
p10
aS'agile'
p11
aS'predictive modeling'
p12
aS'integration'
p13
aS'strategy'
p14
aS'mixed model'
p15
aS'python'
p16
aS'experimental design'
p17
aS'sql'
p18
aS'modeling'
p19
aS'data'
p20
aS'data collection'
p21
aS'science'
p22
aS'programming'
p23
aS'analysis'
p24
aS'simulation'
p25
aS'r'
aS'organization'
p26
aS'predictive analytics'
p27
aVbayesian statistic
p28
aS'scripting'
p29
aS'trend analysis'
p30
asS'working-year'
p31
(lp32
V(0, 2]
p33
asS'major'
p34
(lp35
S'management'
p36
aS'genetics'
p37
aS'science'
p38
aS'data science'
p39
aS'general'
p40
aS'analytics'
p41
aS'statistical genetics'
p42
aS'design'
p43
aS'statistic'
p44
aS'predictive analytics'
p45
asS'education'
p46
(lp47
VMaster
p48
aVDoctor
p49
asS'responsibility'
p50
(lp51
S'large data set'
p52
aS'data collection'
p53
aS'analysis'
p54
aS'simulation'
p55
aS'analytic'
p56
aS'design'
p57
aS'modeling'
p58
aS'model'
p59
as.