(dp1
S'skills'
p2
(lp3
S'java'
p4
aS'programming'
p5
aS'scala'
p6
aS'python'
p7
aS'agile'
p8
aS'collaboration'
p9
aS'innovation'
p10
aS'data scientist'
p11
aS'mapreduce'
p12
aS'rest'
p13
aS'machine learning'
p14
aS'analytics'
p15
aS'r'
aS'computer science'
p16
aS'science'
p17
aS'analysis'
p18
aS'spark'
p19
aS'data'
p20
aS'r d'
p21
asS'working-year'
p22
(lp23
V[0]
p24
asS'major'
p25
(lp26
S'science'
p27
aS'analytics'
p28
aS'computer science'
p29
aS'machine learning'
p30
asS'education'
p31
(lp32
S'Bachelor'
p33
asS'responsibility'
p34
(lp35
S'development'
p36
aS'product'
p37
aS'analysis'
p38
aS'statistical model'
p39
aS'understand'
p40
aS'implement'
p41
aS'model'
p42
as.