(dp1
S'skills'
p2
(lp3
S'logistics'
p4
aS'r d'
p5
aS'communication'
p6
aS'data science'
p7
aS'software design'
p8
aS'analytics'
p9
aS'engineering'
p10
aS'product strategy'
p11
aS'strategy'
p12
aS'finance'
p13
aS'management'
p14
aS'user experience'
p15
aS'agile'
p16
aS'research'
p17
aS'computer science'
p18
aS'innovation'
p19
aS'advanced analytics'
p20
aS'product development'
p21
aS'marketing'
p22
aS'collaboration'
p23
aS'scrum'
p24
aS'data scientist'
p25
aS'leadership'
p26
aS'data'
p27
aS'hardware'
p28
aS'science'
p29
aS'business strategy'
p30
aS'analysis'
p31
aS'product design'
p32
aS'customer support'
p33
aS'product management'
p34
aS'organization'
p35
aS'data analytics'
p36
asS'working-year'
p37
(lp38
V(0, 2]
p39
aV(2, 5]
p40
asS'major'
p41
(lp42
S'information'
p43
aS'management'
p44
aS'finance'
p45
aS'business'
p46
aS'marketing'
p47
aS'data science'
p48
aS'communication'
p49
aS'analytics'
p50
aS'engineering'
p51
aS'finance marketing'
p52
aS'design'
p53
aS'computer science'
p54
aS'science'
p55
aS'advanced analytics'
p56
aS'computer science engineering'
p57
aS'ee computer science'
p58
aS'data analytics'
p59
asS'education'
p60
(lp61
VBachelor
p62
asS'responsibility'
p63
(lp64
S'development'
p65
aS'information'
p66
aS'product'
p67
aS'design'
p68
aS'analysis'
p69
as.