(dp1
S'skills'
p2
(lp3
S'consulting'
p4
aS'investment banking'
p5
aS'pmp'
p6
aS'organization'
p7
aS'banking'
p8
aS'critical thinking'
p9
aS'communication'
p10
aS'management consulting'
p11
aS'processing'
p12
aS'data scientist'
p13
aS'analytics'
p14
aS'problem solving'
p15
aS'management'
p16
aS'project management'
p17
aS'statistical modeling'
p18
aS'asset management'
p19
aS'advanced analytics'
p20
aS'modeling'
p21
aS'government'
p22
aS'data'
p23
aS'business modeling'
p24
asS'working-year'
p25
(lp26
V(10, 15]
p27
asS'major'
p28
(lp29
S'information'
p30
aS'management'
p31
aS'business'
p32
aS'communication'
p33
aS'analytics'
p34
aS'advanced analytics'
p35
aS'project management'
p36
asS'education'
p37
(lp38
S'Bachelor'
p39
asS'responsibility'
p40
(lp41
S'development'
p42
aS'information'
p43
aS'business problem'
p44
aS'processing'
p45
aS'communicate'
p46
aS'statistical model'
p47
aS'identify opportunity'
p48
aS'modeling'
p49
aS'presentation'
p50
as.