(dp1
S'skills'
p2
(lp3
S'communication'
p4
aS'data science'
p5
aS'testing'
p6
aS'analytics'
p7
aS'thought leadership'
p8
aS'process improvement'
p9
aS'problem solving'
p10
aS'data mining'
p11
aS'insurance'
p12
aS'management'
p13
aS'big data'
p14
aS'hadoop'
p15
aS'research'
p16
aS'access'
p17
aS'optimization'
p18
aS'computer science'
p19
aS'advanced analytics'
p20
aS'mathematics'
p21
aS'hypothesis testing'
p22
aS'unstructured data'
p23
aS'operations research'
p24
aS'python'
p25
aS'collaboration'
p26
aS'processing'
p27
aS'data scientist'
p28
aS'experimental design'
p29
aS'leadership'
p30
aS'sql'
p31
aS'modeling'
p32
aS'data'
p33
aS'project management'
p34
aS'customer experience'
p35
aS'econometrics'
p36
aS'science'
p37
aS'programming'
p38
aS'analysis'
p39
aS'machine learning'
p40
aS'customer analytics'
p41
aS'r'
aS'healthcare'
p42
aS'organization'
p43
aS'crm'
p44
asS'working-year'
p45
(lp46
V(0, 2]
p47
aV(2, 5]
p48
asS'major'
p49
(lp50
S'mathematics'
p51
aS'management'
p52
aS'business'
p53
aS'big data'
p54
aS'science'
p55
aS'data science'
p56
aS'statistic'
p57
aS'communication'
p58
aS'data analyst'
p59
aS'machine learning'
p60
aS'analytics'
p61
aS'operations research'
p62
aS'design'
p63
aS'project management'
p64
aS'data mining'
p65
aS'advanced analytics'
p66
aS'computer science'
p67
aS'econometrics'
p68
aS'statistics operations research'
p69
aS'data mining machine learning'
p70
asS'education'
p71
(lp72
VBachelor
p73
asS'responsibility'
p74
(lp75
S'data mining'
p76
aS'model'
p77
aS'product'
p78
aS'processing'
p79
aS'business problem'
p80
aS'pattern'
p81
aVinsight
p82
aS'communicate'
p83
aS'modeling'
p84
aS'analysis'
p85
aS'improvement'
p86
aS'optimization'
p87
aS'design'
p88
aS'recommendation'
p89
aS'understand'
p90
aS'implement'
p91
aS'evaluation'
p92
aS'transformation'
p93
as.