(dp1
S'skills'
p2
(lp3
S'forecasting'
p4
aS'r d'
p5
aS'nosql'
p6
aS'regression analysis'
p7
aS'linear programming'
p8
aS'decision support'
p9
aS'cluster'
p10
aS'ssrs'
p11
aS'data mining'
p12
aS'modeling'
p13
aS'simulation'
p14
aS'regression'
p15
aS'qlikview'
p16
aS'management'
p17
aS'rdbms'
p18
aS'analytics'
p19
aS'r programming'
p20
aS'tableau'
p21
aS'research'
p22
aS'sybase'
p23
aS'ssis'
p24
aS'optimization'
p25
aS'mathematics'
p26
aS'pl'
p27
aS'data modeling'
p28
aS'theory'
p29
aS'python'
p30
aS'collaboration'
p31
aS'data scientist'
p32
aS'mathematical analysis'
p33
aS'data collection'
p34
aS'sql'
p35
aS'word'
p36
aS'data'
p37
aS'project management'
p38
aS'vba'
p39
aS'dynamic programming'
p40
aS'postgresql'
p41
aS'database management'
p42
aS'mysql'
p43
aS'programming'
p44
aS'analysis'
p45
aS'machine learning'
p46
aS'r'
aS'team management'
p47
aS'cluster analysis'
p48
aS'etl'
p49
asS'working-year'
p50
(lp51
V(0, 2]
p52
asS'major'
p53
(lp54
S'information'
p55
aS'management'
p56
aS'statistic'
p57
aS'machine learning'
p58
aS'analytics'
p59
aS'design'
p60
aS'data mining'
p61
aS'mathematics'
p62
aS'project management'
p63
asS'education'
p64
(lp65
VBachelor
p66
asS'responsibility'
p67
(lp68
S'information'
p69
aS'forecasting'
p70
aS'data collection'
p71
aS'develop model'
p72
aS'data mining'
p73
aS'model'
p74
aS'mapping'
p75
aS'analysis'
p76
aS'improvement'
p77
aS'problem statement'
p78
aS'design'
p79
aS'recommendation'
p80
aS'report'
p81
aS'modeling'
p82
aS'implement'
p83
aS'simulation'
p84
aS'optimization'
p85
as.