(dp1
S'skills'
p2
(lp3
S'problem solving'
p4
aS'nosql'
p5
aS'data science'
p6
aS'testing'
p7
aS'due diligence'
p8
aS'rest'
p9
aS'software design'
p10
aS'analytics'
p11
aS'engineering'
p12
aS'data warehousing'
p13
aS'unit testing'
p14
aS'system design'
p15
aS'mysql'
p16
aS'cassandra'
p17
aS'technical leadership'
p18
aS'open source'
p19
aS'big data'
p20
aS'scala'
p21
aS'agile'
p22
aS'hadoop'
p23
aS'computer science'
p24
aS'soap'
p25
aS'python'
p26
aS'leadership development'
p27
aS'data scientist'
p28
aS'scalability'
p29
aS'automation'
p30
aS'leadership'
p31
aS'sql'
p32
aS'design patterns'
p33
aS'data'
p34
aS'software development'
p35
aS'postgresql'
p36
aS'java'
p37
aS'science'
p38
aS'aws'
p39
aS'analysis'
p40
aS'emr'
p41
aS'oracle'
p42
aS'application development'
p43
asS'working-year'
p44
(lp45
V(0, 2]
p46
asS'major'
p47
(lp48
S'information'
p49
aS'business'
p50
aS'big data'
p51
aS'science'
p52
aS'data science'
p53
aS'automation'
p54
aS'analytics'
p55
aS'engineering'
p56
aS'design'
p57
aS'computer science'
p58
aS'ee computer science'
p59
asS'education'
p60
(lp61
VBachelor
p62
aVMaster
p63
asS'responsibility'
p64
(lp65
S'development'
p66
aS'information'
p67
aS'product'
p68
aS'pattern'
p69
aS'due diligence'
p70
aS'analysis'
p71
aS'understand'
p72
aS'interface'
p73
aS'design'
p74
aS'implement'
p75
as.