(dp1
S'skills'
p2
(lp3
S'communication'
p4
aS'information security'
p5
aS'hardware'
p6
aS'analytics'
p7
aS'engineering'
p8
aS'go'
p9
aS'strategy'
p10
aS'statistics'
p11
aS'big data'
p12
aS'management'
p13
aS'integration'
p14
aS'governance'
p15
aS'research'
p16
aS'risk management'
p17
aS'computer science'
p18
aS'sdlc'
p19
aS'innovation'
p20
aS'policy'
p21
aS'operations research'
p22
aS'systems engineering'
p23
aS'a'
aS'software development life cycle sdlc'
p24
aS'collaboration'
p25
aS'data scientist'
p26
aS'advanced analytics'
p27
aS'leadership'
p28
aS'data'
p29
aS'information technology'
p30
aS'software development'
p31
aS'risk assessment'
p32
aS'science'
p33
aS'data center'
p34
aS'architecture'
p35
aS'organization'
p36
aS'security'
p37
aS'data analytics'
p38
asS'working-year'
p39
(lp40
S'[0]'
p41
asS'major'
p42
(lp43
VStatistics
p44
aVBusiness
p45
aVData Science
p46
aVEconomics
p47
aVEngineering
p48
aVInformation Science
p49
aVComputer Science
p50
aVMathematics
p51
aVOperations Research
p52
aVManagement Science and Engineering
p53
asS'education'
p54
(lp55
VBachelor
p56
aVMaster
p57
asS'responsibility'
p58
(lp59
S'development'
p60
aS'information'
p61
aS'business problem'
p62
aS'decision-making'
p63
aS'analytic'
p64
aS'model'
p65
as.