(dp1
S'skills'
p2
(lp3
S'search'
p4
aS'agile'
p5
aS'healthcare'
p6
aS'customer service'
p7
aS'innovation'
p8
aS'data scientist'
p9
aS'finance'
p10
aS'writing'
p11
aS'access'
p12
aS'psychology'
p13
aS'marketing strategy'
p14
aS'marketing'
p15
aS'go'
p16
aS'business development'
p17
aS'strategy'
p18
aS'data'
p19
aS'product marketing'
p20
asS'working-year'
p21
(lp22
V(5, 10]
p23
aV(2, 5]
p24
asS'major'
p25
(lp26
S'finance'
p27
aS'business'
p28
aS'marketing'
p29
aS'mba'
p30
aS'finance marketing'
p31
aS'marketing strategy'
p32
aS'behavioral psychology'
p33
aS'psychology'
p34
asS'education'
p35
(lp36
VBachelor
p37
aVDoctor
p38
asS'responsibility'
p39
(lp40
S'report'
p41
aS'development'
p42
aS'product'
p43
aS'understand'
p44
as.