(dp1
S'skills'
p2
(lp3
S'supply chain'
p4
aS'r d'
p5
aS'text analytics'
p6
aS'data science'
p7
aS'analytics'
p8
aS'management'
p9
aS'networking'
p10
aS'coaching'
p11
aS'innovation'
p12
aS'collaboration'
p13
aS'processing'
p14
aS'talent management'
p15
aS'leadership'
p16
aS'staff development'
p17
aS'manufacturing'
p18
aS'data'
p19
aS'project management'
p20
aS'training'
p21
aS'science'
p22
aS'machine learning'
p23
aS'r'
aS'product innovation'
p24
aS'organization'
p25
asS'working-year'
p26
(lp27
V(5, 10]
p28
asS'major'
p29
(lp30
S'management'
p31
aS'business'
p32
aS'science'
p33
aS'data science'
p34
aS'machine learning'
p35
aS'business leadership'
p36
aS'analytics'
p37
aS'project management'
p38
asS'education'
p39
(lp40
S'Bachelor'
p41
asS'responsibility'
p42
(lp43
S'report'
p44
aS'development'
p45
aS'statistical method'
p46
aS'processing'
p47
aS'product'
p48
as.