(dp1
S'skills'
p2
(lp3
S'jira'
p4
aS'data mining'
p5
aS'integration'
p6
aS'analytics'
p7
aS'engineering'
p8
aS'defense'
p9
aS'data warehousing'
p10
aS'analysis'
p11
aS'system design'
p12
aS'linux'
p13
aS'arm'
p14
aS'visualization'
p15
aS'java'
p16
aS'scala'
p17
aS'hadoop'
p18
aS'research'
p19
aS'computer science'
p20
aS'microstrategy'
p21
aS'python'
p22
aS'data scientist'
p23
aS'sql'
p24
aS'data analytics'
p25
aS'modeling'
p26
aS'data'
p27
aS'information technology'
p28
aS'c'
aS'itil'
p29
aS'data visualization'
p30
aS'science'
p31
aS'dod'
p32
aS'system architecture'
p33
aS'architecture'
p34
aS'security'
p35
aS'etl'
p36
asS'working-year'
p37
(lp38
V(15, 20]
p39
aV(20, 30)
p40
asS'major'
p41
(lp42
S'information'
p43
aS'science'
p44
aS'data analyst'
p45
aS'analytics'
p46
aS'engineering'
p47
aS'design'
p48
aS'information technology'
p49
aS'data mining'
p50
aS'data analytics'
p51
aS'computer science'
p52
asS'education'
p53
(lp54
VBachelor
p55
aVMaster
p56
asS'responsibility'
p57
(lp58
S'development'
p59
aS'information'
p60
aS'communicate'
p61
aS'analysis'
p62
aS'design'
p63
aS'data mining'
p64
aS'modeling'
p65
aS'model'
p66
as.