(dp1
S'skills'
p2
(lp3
S'science'
p4
aS'documentation'
p5
aS'java'
p6
aS'big data'
p7
aS'python'
p8
aS'deep learning'
p9
aS'data mining'
p10
aS'data scientist'
p11
aS'analysis'
p12
aS'machine learning'
p13
aS'engineering'
p14
aS'data collection'
p15
aS'matlab'
p16
aS'problem solving'
p17
aS'sql'
p18
aS'communication'
p19
aS'personalization'
p20
aS'research'
p21
aS'data'
p22
aS'tensorflow'
p23
aS'computer science'
p24
asS'working-year'
p25
(lp26
V[0]
p27
asS'major'
p28
(lp29
S'information'
p30
aS'big data'
p31
aS'computing'
p32
aS'science'
p33
aS'communication'
p34
aS'machine learning'
p35
aS'engineering'
p36
aS'design'
p37
aS'computer science'
p38
aS'data mining'
p39
aS'data mining machine learning'
p40
asS'education'
p41
(lp42
S'Bachelor'
p43
asS'responsibility'
p44
(lp45
S'development'
p46
aS'information'
p47
aS'data collection'
p48
aS'recommendation'
p49
aS'analysis'
p50
aS'design'
p51
aS'data mining'
p52
aS'implement'
p53
aS'prototype'
p54
aS'presentation'
p55
aS'documentation'
p56
as.