(dp1
S'skills'
p2
(lp3
S'cognos'
p4
aS'databases'
p5
aS'intelligence'
p6
aS'data science'
p7
aS'dashboards'
p8
aS'analytics'
p9
aS'business intelligence'
p10
aS'statistical analysis'
p11
aS'sas'
p12
aS'relational databases'
p13
aS'research'
p14
aS'insurance'
p15
aS'management'
p16
aS'excel'
p17
aS'tableau'
p18
aS'writing'
p19
aS'access'
p20
aS'statistical software'
p21
aS'education'
p22
aS'policy'
p23
aS'mathematics'
p24
aS'data analysis'
p25
aS'theory'
p26
aS'toad'
p27
aS'processing'
p28
aS'business analytics'
p29
aS'medicaid'
p30
aS'sql'
p31
aS'data'
p32
aS'microsoft access'
p33
aS'a'
aS'program evaluation'
p34
aS'quantitative research'
p35
aS'economics'
p36
aS'programming'
p37
aS'health insurance'
p38
aS'analysis'
p39
aS'spss'
p40
aS'credit'
p41
aS'science'
p42
aS'security'
p43
asS'working-year'
p44
(lp45
V(0, 2]
p46
aV(2, 5]
p47
asS'major'
p48
(lp49
VBusiness
p50
aVData Science
p51
aVEconomics
p52
aVChemical Engineering
p53
aVMathematics
p54
aVManagement Science and Engineering
p55
asS'education'
p56
(lp57
VBachelor
p58
aVMaster
p59
aVDoctor
p60
asS'responsibility'
p61
(lp62
S'development'
p63
aS'information'
p64
aS'product'
p65
aS'data analysis'
p66
aS'extract'
p67
aS'processing'
p68
aS'analysis'
p69
aS'improvement'
p70
aS'report'
p71
aS'model'
p72
aS'evaluation'
p73
as.