(dp1
S'skills'
p2
(lp3
S'software development'
p4
aS'consulting'
p5
aS'management'
p6
aS'product development'
p7
aS'communication'
p8
aS'data scientist'
p9
aS'go'
p10
aS'product design'
p11
aS'product launch'
p12
aS'product management'
p13
aS'data'
p14
asS'working-year'
p15
(lp16
S'[0]'
p17
asS'major'
p18
(lp19
VBusiness
p20
aVManagement Science and Engineering
p21
asS'education'
p22
(lp23
S'Bachelor'
p24
asS'responsibility'
p25
(lp26
S'development'
p27
aS'information'
p28
aS'product'
p29
aS'product launch'
p30
aS'insight'
p31
aS'communicate'
p32
aS'drive ... decision'
p33
aS'understand'
p34
aS'identify ... trend'
p35
aS'design'
p36
as.