(dp1
S'skills'
p2
(lp3
S'data science'
p4
aS'tableau'
p5
aS'analytics'
p6
aS'ggplot2'
p7
aS'hive'
p8
aS'go'
p9
aS'relational databases'
p10
aS'd3'
p11
aS'visualization'
p12
aS'big data'
p13
aS'hadoop'
p14
aS'data analysis'
p15
aS'python'
p16
aS'data scientist'
p17
aS'matplotlib'
p18
aS'facebook'
p19
aS'sql'
p20
aS'spark'
p21
aS'data'
p22
aS'data visualization'
p23
aS'solver'
p24
aS'science'
p25
aS'analysis'
p26
aS'r'
aS'advertising'
p27
aS'oracle'
p28
asS'working-year'
p29
(lp30
V(0, 2]
p31
aV(2, 5]
p32
asS'major'
p33
(lp34
S'big data'
p35
aS'business'
p36
aS'science'
p37
aS'data science'
p38
aS'analytics'
p39
aS'design'
p40
asS'education'
p41
(lp42
VBachelor
p43
aVMaster
p44
asS'responsibility'
p45
(lp46
S'product'
p47
aS'data analysis'
p48
aS'business problem'
p49
aVinsight
p50
aS'communicate'
p51
aS'analysis'
p52
aS'statistical method'
p53
aS'design'
p54
aS'analytical method'
p55
aS'presentation'
p56
as.