(dp1
S'skills'
p2
(lp3
S'negotiation'
p4
aS'r d'
p5
aS'nosql'
p6
aS'data science'
p7
aS'tableau'
p8
aS'analytics'
p9
aS'engineering'
p10
aS'spss'
p11
aS'qlikview'
p12
aS'visualization'
p13
aS'hadoop'
p14
aS'd3.js'
p15
aS'strategy'
p16
aS'computer science'
p17
aS'mathematics'
p18
aS'unstructured data'
p19
aS'data analysis'
p20
aS'data modeling'
p21
aS'energy'
p22
aS'python'
p23
aS'data scientist'
p24
aS'collaboration'
p25
aS'spotfire'
p26
aS'business analytics'
p27
aS'business process'
p28
aS'modeling'
p29
aS'data'
p30
aS'search'
p31
aS'data visualization'
p32
aS'science'
p33
aS'applied mathematics'
p34
aS'analysis'
p35
aS'machine learning'
p36
aS'r'
asS'working-year'
p37
(lp38
V(0, 2]
p39
aV(2, 5]
p40
asS'major'
p41
(lp42
S'information'
p43
aS'business'
p44
aS'mathematics'
p45
aS'science'
p46
aS'applied mathematics'
p47
aS'machine learning'
p48
aS'business analytics'
p49
aS'analytics'
p50
aS'engineering'
p51
aS'design'
p52
aS'computer science'
p53
aS'applied math'
p54
aS'computer science engineering'
p55
aS'ee computer science'
p56
aS'data science'
p57
asS'education'
p58
(lp59
VBachelor
p60
aVMaster
p61
asS'responsibility'
p62
(lp63
S'development'
p64
aS'information'
p65
aS'product'
p66
aS'data analysis'
p67
aS'pattern'
p68
aS'communicate'
p69
aS'analysis'
p70
aS'design'
p71
aS'identify opportunity'
p72
aS'report'
p73
aS'modeling'
p74
aS'model'
p75
aS'prototype'
p76
as.