(dp1
S'skills'
p2
(lp3
S'r d'
p4
aS'communication'
p5
aS'engineering'
p6
aS'troubleshooting'
p7
aS'problem solving'
p8
aS'linux'
p9
aS'management'
p10
aS'java'
p11
aS'storage'
p12
aS'saas'
p13
aS'devops'
p14
aS'research'
p15
aS'quality assurance'
p16
aS'innovation'
p17
aS'systems engineering'
p18
aS'product development'
p19
aS'visio'
p20
aS'data scientist'
p21
aS'networking'
p22
aS'data'
p23
aS'b2b'
p24
aS'project management'
p25
aS'documentation'
p26
aS'r'
aS'architecture'
p27
aS'oracle'
p28
aS'organization'
p29
aS'docker'
p30
aS'microsoft office'
p31
aS'powerpoint'
p32
aS'scripting'
p33
asS'working-year'
p34
(lp35
V(5, 10]
p36
asS'major'
p37
(lp38
S'systems engineering'
p39
aS'information'
p40
aS'management'
p41
aS'business'
p42
aS'ee'
p43
aS'communication'
p44
aS'engineering'
p45
aS'design'
p46
aS'project management'
p47
asS'education'
p48
(lp49
S'Bachelor'
p50
asS'responsibility'
p51
(lp52
S'development'
p53
aS'information'
p54
aS'product'
p55
aS'documentation'
p56
aS'improvement'
p57
aS'design'
p58
aS'develop system'
p59
as.