(dp1
S'skills'
p2
(lp3
S'active directory'
p4
aS'saas'
p5
aS'testing'
p6
aS'hardware'
p7
aS'engineering'
p8
aS'troubleshooting'
p9
aS'vmware'
p10
aS'networking'
p11
aS'vbscript'
p12
aS'storage'
p13
aS'research'
p14
aS'quality assurance'
p15
aS'innovation'
p16
aS'product development'
p17
aS'aws'
p18
aS'mac os'
p19
aS'data scientist'
p20
aS'automation'
p21
aS'sql'
p22
aS'data'
p23
aS'b2b'
p24
aS'sql server'
p25
aS'documentation'
p26
aS'analysis'
p27
aS'security'
p28
aS'root'
p29
aS'powershell'
p30
aS'scripting'
p31
aS'virtualization'
p32
asS'working-year'
p33
(lp34
V(5, 10]
p35
asS'major'
p36
(lp37
S'engineering'
p38
aS'computing'
p39
aS'design'
p40
aS'business'
p41
aS'automation'
p42
asS'education'
p43
(lp44
S'Bachelor'
p45
asS'responsibility'
p46
(lp47
S'development'
p48
aS'product'
p49
aS'documentation'
p50
aS'communicate'
p51
aS'analysis'
p52
aS'design'
p53
aS'implement'
p54
as.