(dp1
S'skills'
p2
(lp3
S'negotiation'
p4
aS'nosql'
p5
aS'data science'
p6
aS'analytics'
p7
aS'unix'
p8
aS'system administration'
p9
aS'sas'
p10
aS'data analytics'
p11
aS'visualization'
p12
aS'technical leadership'
p13
aS'management'
p14
aS'open source'
p15
aS'rdbms'
p16
aS'big data'
p17
aS'predictive modeling'
p18
aS'storage'
p19
aS'hadoop'
p20
aS'strategy'
p21
aS'computer science'
p22
aS'advanced analytics'
p23
aS'mathematics'
p24
aS'energy'
p25
aS'data management'
p26
aS'distributed computing'
p27
aS'collaboration'
p28
aS'processing'
p29
aS'data scientist'
p30
aS'automation'
p31
aS'business process'
p32
aS'leadership'
p33
aS'architectures'
p34
aS'energy efficiency'
p35
aS'sql'
p36
aS'modeling'
p37
aS'manufacturing'
p38
aS'data'
p39
aS'software engineering'
p40
aS'science'
p41
aS'applied mathematics'
p42
aS'engineering'
p43
aS'hive'
p44
aS'architecture'
p45
aS'oracle'
p46
aS'organization'
p47
aS'security'
p48
aS'scripting'
p49
asS'working-year'
p50
(lp51
V(2, 5]
p52
asS'major'
p53
(lp54
VBusiness
p55
aVData Science
p56
aVEngineering
p57
aVComputer Science
p58
aVMathematics
p59
aVManagement Science and Engineering
p60
asS'education'
p61
(lp62
VBachelor
p63
asS'responsibility'
p64
(lp65
S'development'
p66
aS'information'
p67
aS'processing'
p68
aS'analytic'
p69
aS'understand'
p70
aS'modeling'
p71
aS'design'
p72
aS'model'
p73
as.