(dp1
S'skills'
p2
(lp3
S'negotiation'
p4
aS'energy efficiency'
p5
aS'nosql'
p6
aS'intelligence'
p7
aS'data science'
p8
aS'tableau'
p9
aS'analytics'
p10
aS'business intelligence'
p11
aS'sas'
p12
aS'spss'
p13
aS'd3'
p14
aS'qlikview'
p15
aS'visualization'
p16
aS'management'
p17
aS'program management'
p18
aS'hadoop'
p19
aS'governance'
p20
aS'd3.js'
p21
aS'strategy'
p22
aS'computer science'
p23
aS'advanced analytics'
p24
aS'mathematics'
p25
aS'energy'
p26
aS'artificial intelligence'
p27
aS'change management'
p28
aS'python'
p29
aS'data scientist'
p30
aS'collaboration'
p31
aS'spotfire'
p32
aS'business process'
p33
aS'leadership'
p34
aS'architectures'
p35
aS'statistical modeling'
p36
aS'modeling'
p37
aS'data'
p38
aS'a'
aS'training'
p39
aS'pattern recognition'
p40
aS'science'
p41
aS'engineering'
p42
aS'machine learning'
p43
aS'r'
aS'architecture'
p44
aS'organization'
p45
aS'security'
p46
aS'data analytics'
p47
asS'working-year'
p48
(lp49
V(2, 5]
p50
asS'major'
p51
(lp52
VBusiness
p53
aVData Science
p54
aVEngineering
p55
aVComputer Science
p56
aVMathematics
p57
aVManagement Science and Engineering
p58
asS'education'
p59
(lp60
VBachelor
p61
aVMaster
p62
aVDoctor
p63
asS'responsibility'
p64
(lp65
S'development'
p66
aS'information'
p67
aS'business problem'
p68
aS'pattern'
p69
aS'insight'
p70
aS'analytic'
p71
aS'design'
p72
aS'modeling'
p73
aS'model'
p74
as.