(dp1
S'skills'
p2
(lp3
S'r d'
p4
aS'saas'
p5
aS'ant'
p6
aS'troubleshooting'
p7
aS'management'
p8
aS'java'
p9
aS'servlets'
p10
aS'excel'
p11
aS'research'
p12
aS'user interface'
p13
aS'innovation'
p14
aS'jenkins'
p15
aS'product development'
p16
aS'cryptography'
p17
aS'data scientist'
p18
aS'j2ee'
p19
aS'maven'
p20
aS'product design'
p21
aS'jsp'
p22
aS'scripting'
p23
aS'data'
p24
aS'b2b'
p25
aS'search'
p26
aS'documentation'
p27
aS'programming'
p28
aS'architecture'
p29
aS'security'
p30
aS'application development'
p31
asS'working-year'
p32
(lp33
V(2, 5]
p34
asS'major'
p35
(lp36
S'information'
p37
aS'management'
p38
aS'design'
p39
aS'business'
p40
asS'education'
p41
(lp42
S'Bachelor'
p43
asS'responsibility'
p44
(lp45
S'development'
p46
aS'information'
p47
aS'product'
p48
aS'documentation'
p49
aS'design'
p50
aS'interface'
p51
as.