(dp1
S'skills'
p2
(lp3
S'r d'
p4
aS'active directory'
p5
aS'excel'
p6
aS'testing'
p7
aS'hardware'
p8
aS'engineering'
p9
aS'virtualization'
p10
aS'vmware'
p11
aS'management'
p12
aS'networking'
p13
aS'vbscript'
p14
aS'storage'
p15
aS'research'
p16
aS'quality assurance'
p17
aS'mac os'
p18
aS'product development'
p19
aS'aws'
p20
aS'innovation'
p21
aS'data scientist'
p22
aS'automation'
p23
aS'performance tuning'
p24
aS'data'
p25
aS'b2b'
p26
aS'saas'
p27
aS'sql server'
p28
aS'documentation'
p29
aS'analysis'
p30
aS'sql'
p31
aS'security'
p32
aS'root'
p33
aS'powershell'
p34
aS'scripting'
p35
aS'troubleshooting'
p36
asS'working-year'
p37
(lp38
V(5, 10]
p39
asS'major'
p40
(lp41
S'information'
p42
aS'management'
p43
aS'business'
p44
aS'computing'
p45
aS'automation'
p46
aS'engineering'
p47
aS'design'
p48
asS'education'
p49
(lp50
S'Bachelor'
p51
asS'responsibility'
p52
(lp53
S'development'
p54
aS'information'
p55
aS'product'
p56
aS'documentation'
p57
aS'communicate'
p58
aS'analysis'
p59
aS'design'
p60
aS'implement'
p61
as.