(dp1
S'skills'
p2
(lp3
S'jira'
p4
aS'programming'
p5
aS'nosql'
p6
aS'knowledge management'
p7
aS'testing'
p8
aS'devops'
p9
aS'problem solving'
p10
aS'content management'
p11
aS'cassandra'
p12
aS'git'
p13
aS'agile'
p14
aS'excel'
p15
aS'integration'
p16
aS'research'
p17
aS'innovation'
p18
aS'jenkins'
p19
aS'web development'
p20
aS'product development'
p21
aS'mongodb'
p22
aS'scrum'
p23
aS'data scientist'
p24
aS'automation'
p25
aS'business process'
p26
aS'process automation'
p27
aS'leadership'
p28
aS'performance tuning'
p29
aS'data'
p30
aS'b2b'
p31
aS'github'
p32
aS'saas'
p33
aS'business strategy'
p34
aS'test automation'
p35
aS'architecture'
p36
aS'management'
p37
aS'docker'
p38
aS'application development'
p39
asS'working-year'
p40
(lp41
V(5, 10]
p42
aV(2, 5]
p43
asS'major'
p44
(lp45
S'information'
p46
aS'management'
p47
aS'business'
p48
aS'knowledge management'
p49
aS'automation'
p50
aS'design'
p51
aS'web development'
p52
asS'education'
p53
(lp54
S'Bachelor'
p55
asS'responsibility'
p56
(lp57
S'development'
p58
aS'information'
p59
aS'product'
p60
aS'pattern'
p61
aS'provide leadership'
p62
aS'construct'
p63
aS'design'
p64
aS'interface'
p65
as.