(dp1
S'skills'
p2
(lp3
S'research design'
p4
aS'continuous improvement'
p5
aS'consulting'
p6
aS'intelligence'
p7
aS'data acquisition'
p8
aS'psychometrics'
p9
aS'tableau'
p10
aS'cluster'
p11
aS'business intelligence'
p12
aS'data warehousing'
p13
aS'data mining'
p14
aS'research'
p15
aS'data analytics'
p16
aS'visualization'
p17
aS'management'
p18
aS'psychology'
p19
aS'integration'
p20
aS'd3.js'
p21
aS'access'
p22
aS'strategy'
p23
aS'coaching'
p24
aS'statistical software'
p25
aS'quality assurance'
p26
aS'microstrategy'
p27
aS'innovation'
p28
aS'teaching'
p29
aS'data analysis'
p30
aS'python'
p31
aS'json'
p32
aS'data quality'
p33
aS'instructional design'
p34
aS'sql'
p35
aS'data'
p36
aS'data collection'
p37
aS'data visualization'
p38
aS'analytics'
p39
aS'science'
p40
aS'analysis'
p41
aS'spss'
p42
aS'r'
aS'dashboard'
p43
aS'etl'
p44
asS'working-year'
p45
(lp46
V[0]
p47
asS'major'
p48
(lp49
S'management'
p50
aS'psychology'
p51
aS'business'
p52
aS'science'
p53
aS'organizational psychology'
p54
aS'analytics'
p55
aS'design'
p56
aS'data mining'
p57
aS'data analytics'
p58
asS'education'
p59
(lp60
VMaster
p61
asS'responsibility'
p62
(lp63
S'development'
p64
aS'data analysis'
p65
aS'business problem'
p66
aVinsight
p67
aS'analysis'
p68
aS'improvement'
p69
aS'data collection'
p70
aS'design'
p71
aS'data mining'
p72
aS'report'
p73
aS'complex data set'
p74
aS'transformation'
p75
as.