(dp1
S'skills'
p2
(lp3
S'classification'
p4
aS'communication'
p5
aS'data science'
p6
aS'integration'
p7
aS'cluster'
p8
aS'engineering'
p9
aS'research'
p10
aS'change management'
p11
aS'management'
p12
aS'big data'
p13
aS'saas'
p14
aS'hadoop'
p15
aS'governance'
p16
aS'strategy'
p17
aS'access'
p18
aS'enterprise architecture'
p19
aS'innovation'
p20
aS'product development'
p21
aS'data scientist'
p22
aS'leadership'
p23
aS'sql'
p24
aS'data'
p25
aS'b2b'
p26
aS'science'
p27
aS'data architecture'
p28
aS'architecture'
p29
aS'security'
p30
aS'validation'
p31
aS'information architecture'
p32
asS'working-year'
p33
(lp34
V[0]
p35
asS'major'
p36
(lp37
S'information'
p38
aS'management'
p39
aS'business'
p40
aS'big data'
p41
aS'science'
p42
aS'data science'
p43
aS'data analyst'
p44
aS'engineering'
p45
aS'design'
p46
aS'communication'
p47
asS'education'
p48
(lp49
S'Bachelor'
p50
asS'responsibility'
p51
(lp52
S'development'
p53
aS'information'
p54
aS'product'
p55
aS'communicate'
p56
aS'understand'
p57
aS'design'
p58
aS'implement'
p59
aS'model'
p60
as.