(dp1
S'skills'
p2
(lp3
S'r d'
p4
aS'active directory'
p5
aS'excel'
p6
aS'communication'
p7
aS'engineering'
p8
aS'continuous improvement'
p9
aS'management'
p10
aS'saas'
p11
aS'integration'
p12
aS'governance'
p13
aS'research'
p14
aS'access'
p15
aS'coaching'
p16
aS'computer science'
p17
aS'innovation'
p18
aS'information security'
p19
aS'product development'
p20
aS'data scientist'
p21
aS'leadership'
p22
aS'data'
p23
aS'b2b'
p24
aS'information technology'
p25
aS'itil'
p26
aS'science'
p27
aS'executive management'
p28
aS'organization'
p29
aS'security'
p30
asS'working-year'
p31
(lp32
V(5, 10]
p33
aV(10, 15]
p34
asS'major'
p35
(lp36
S'information'
p37
aS'management'
p38
aS'business'
p39
aS'computing'
p40
aS'science'
p41
aS'general'
p42
aS'engineering'
p43
aS'design'
p44
aS'computer science'
p45
aS'communication'
p46
aS'ee computer science'
p47
aS'information technology'
p48
asS'education'
p49
(lp50
S'Bachelor'
p51
asS'responsibility'
p52
(lp53
S'development'
p54
aS'information'
p55
aS'product'
p56
aS'improvement'
p57
aS'design'
p58
aS'implement'
p59
as.