(dp1
S'skills'
p2
(lp3
S'knowledge management'
p4
aS'analytics'
p5
aS'process improvement'
p6
aS'research'
p7
aS'content management'
p8
aS'business analysis'
p9
aS'xml'
p10
aS'management'
p11
aS'agile'
p12
aS'interviews'
p13
aS'saas'
p14
aS'information management'
p15
aS'governance'
p16
aS'writing'
p17
aS'strategy'
p18
aS'communication'
p19
aS'product development'
p20
aS'content strategy'
p21
aS'xslt'
p22
aS'innovation'
p23
aS'data scientist'
p24
aS'user research'
p25
aS'html5'
p26
aS'data'
p27
aS'b2b'
p28
aS'project management'
p29
aS'search'
p30
aS'science'
p31
aS'education'
p32
aS'analysis'
p33
aS'optimization'
p34
aS'dashboard'
p35
aS'organization'
p36
aS'cms'
p37
asS'working-year'
p38
(lp39
V(5, 10]
p40
asS'major'
p41
(lp42
VData Science
p43
aVInformation Science
p44
aVBusiness
p45
aVManagement Science and Engineering
p46
asS'education'
p47
(lp48
VBachelor
p49
asS'responsibility'
p50
(lp51
S'development'
p52
aS'information'
p53
aS'product'
p54
aS'cross functionally'
p55
aS'analysis'
p56
aS'improvement'
p57
aS'optimization'
p58
aS'design'
p59
aS'report'
p60
aS'implement'
p61
aS'model'
p62
as.