(dp1
S'skills'
p2
(lp3
S'qlikview'
p4
aS'consulting'
p5
aS'.net'
p6
aS'java'
p7
aS'big data'
p8
aS'sharepoint'
p9
aS'management'
p10
aS'hadoop'
p11
aS'automation'
p12
aS'analytics'
p13
aS'leadership'
p14
aS'data analytics'
p15
aS'sql'
p16
aS'oracle'
p17
aS'tableau'
p18
aS'data'
p19
aS'information technology'
p20
aS'geography'
p21
asS'working-year'
p22
(lp23
V[0]
p24
asS'major'
p25
(lp26
S'information'
p27
aS'management'
p28
aS'business'
p29
aS'big data'
p30
aS'automation'
p31
aS'analytics'
p32
aS'information technology'
p33
aS'data analytics'
p34
aS'geography'
p35
asS'education'
p36
(lp37
VBachelor
p38
asS'responsibility'
p39
(lp40
S'report'
p41
aS'development'
p42
aS'information'
p43
as.