(dp1
S'skills'
p2
(lp3
S'communication'
p4
aS'problem solving'
p5
aS'continuous improvement'
p6
aS'change management'
p7
aS'management'
p8
aS'agile'
p9
aS'saas'
p10
aS'research'
p11
aS'risk management'
p12
aS'coaching'
p13
aS'strategy'
p14
aS'sdlc'
p15
aS'innovation'
p16
aS'product development'
p17
aS'scrum'
p18
aS'data scientist'
p19
aS'leadership'
p20
aS'data'
p21
aS'b2b'
p22
aS'project management'
p23
aS'software development'
p24
aS'organization'
p25
asS'working-year'
p26
(lp27
V(5, 10]
p28
aV(2, 5]
p29
asS'major'
p30
(lp31
S'communication'
p32
aS'management'
p33
aS'business'
p34
aS'project management'
p35
asS'education'
p36
(lp37
VMaster
p38
asS'responsibility'
p39
(lp40
S'report'
p41
aS'development'
p42
aS'product'
p43
aS'improvement'
p44
as.