(dp1
S'skills'
p2
(lp3
S'consulting'
p4
aS'disaster recovery'
p5
aS'product development'
p6
aS'storage'
p7
aS'innovation'
p8
aS'data scientist'
p9
aS'research'
p10
aS'engineering'
p11
aS'oracle sql'
p12
aS'saas'
p13
aS'sql'
p14
aS'oracle'
p15
aS'data'
p16
aS'b2b'
p17
aS'vmware'
p18
aS'troubleshooting'
p19
asS'working-year'
p20
(lp21
V(5, 10]
p22
asS'major'
p23
(lp24
S'engineering'
p25
aS'design'
p26
aS'business'
p27
asS'education'
p28
(lp29
S'Bachelor'
p30
asS'responsibility'
p31
(lp32
S'development'
p33
aS'product'
p34
aS'design'
p35
as.