(dp1
S'skills'
p2
(lp3
S'communication'
p4
aS'vis'
p5
aS'strategy'
p6
aS'product development'
p7
aS'management'
p8
aS'excel'
p9
aS'integration'
p10
aS'research'
p11
aS'business planning'
p12
aS'visio'
p13
aS'operating systems'
p14
aS'ms office suite'
p15
aS'it strategy'
p16
aS'python'
p17
aS'innovation'
p18
aS'data scientist'
p19
aS'scalability'
p20
aS'automation'
p21
aS'wireless'
p22
aS'business process'
p23
aS'leadership'
p24
aS'html5'
p25
aS'data'
p26
aS'b2b'
p27
aS'a'
aS'saas'
p28
aS'analysis'
p29
aS'system architecture'
p30
aS'architecture'
p31
aS'organization'
p32
aS'security'
p33
aS'powerpoint'
p34
aS'scripting'
p35
asS'working-year'
p36
(lp37
V(5, 10]
p38
asS'major'
p39
(lp40
VBusiness
p41
aVManagement Science and Engineering
p42
asS'education'
p43
(lp44
VBachelor
p45
aVMaster
p46
asS'responsibility'
p47
(lp48
S'development'
p49
aS'information'
p50
aS'product'
p51
aS'develop ... system'
p52
aS'pattern'
p53
aS'communicate'
p54
aS'analysis'
p55
aS'design'
p56
aS'recommendation'
p57
aS'understand'
p58
aS'evaluation'
p59
as.