(dp1
S'skills'
p2
(lp3
S'a'
aS'organization'
p4
aS'probability'
p5
aS'classification'
p6
aS'python'
p7
aS'science'
p8
aS'data science'
p9
aS'predictive modeling'
p10
aS'engineering'
p11
aS'architecture'
p12
aS'algorithm development'
p13
aS'intelligence'
p14
aS'modeling'
p15
aS'validation'
p16
aS'data'
p17
aS'artificial intelligence'
p18
asS'working-year'
p19
(lp20
V(2, 5]
p21
asS'major'
p22
(lp23
VData Science
p24
aVEngineering
p25
aVBusiness
p26
asS'education'
p27
(lp28
S'Bachelor'
p29
asS'responsibility'
p30
(lp31
S'development'
p32
aS'modeling'
p33
aS'product'
p34
aS'insight'
p35
aS'model'
p36
as.