(dp1
S'skills'
p2
(lp3
S'fraud'
p4
aS'big data'
p5
aS'statistical computing'
p6
aS'research'
p7
aS'fraud detection'
p8
aS'organization'
p9
aS'data'
p10
asS'working-year'
p11
(lp12
V[0]
p13
asS'major'
p14
(lp15
S'statistical computing'
p16
aS'big data'
p17
aS'computing'
p18
asS'education'
p19
(lp20
S'Bachelor'
p21
asS'responsibility'
p22
(lp23
S'report'
p24
as.