(dp1
S'skills'
p2
(lp3
S'higher education'
p4
aS'data science'
p5
aS'devops'
p6
aS'analytics'
p7
aS'data warehousing'
p8
aS'system administration'
p9
aS'linux'
p10
aS'education'
p11
aS'insurance'
p12
aS'philosophy'
p13
aS'visualization'
p14
aS'management'
p15
aS'agile'
p16
aS'statistical computing'
p17
aS'hadoop'
p18
aS'research'
p19
aS'database design'
p20
aS'innovation'
p21
aS'policy'
p22
aS'linux system administration'
p23
aS'processing'
p24
aS'python'
p25
aS'random forest'
p26
aS'data scientist'
p27
aS'data processing'
p28
aS'data'
p29
aS'software development'
p30
aS'data visualization'
p31
aS'quantitative research'
p32
aS'programming'
p33
aS'analysis'
p34
aS'machine learning'
p35
aS'r'
aS'science'
p36
aS'organization'
p37
aS'data analytics'
p38
asS'working-year'
p39
(lp40
V(2, 5]
p41
asS'major'
p42
(lp43
S'information'
p44
aS'management'
p45
aS'computing'
p46
aS'science'
p47
aS'statistical computing'
p48
aS'philosophy'
p49
aS'machine learning'
p50
aS'analytics'
p51
aS'design'
p52
aS'statistic'
p53
aS'phd'
p54
aS'data science'
p55
aS'data analytics'
p56
asS'education'
p57
(lp58
VBachelor
p59
aVMaster
p60
aVDoctor
p61
asS'responsibility'
p62
(lp63
S'development'
p64
aS'information'
p65
aS'product'
p66
aS'manage data'
p67
aS'processing'
p68
aS'communicate'
p69
aS'analysis'
p70
aS'statistical model'
p71
aS'design'
p72
aS'model'
p73
aS'transformation'
p74
as.