(dp1
S'skills'
p2
(lp3
S'nlp'
p4
aS'r d'
p5
aS'communication'
p6
aS'data science'
p7
aS'testing'
p8
aS'data mining'
p9
aS'visualization'
p10
aS'management'
p11
aS'genetics'
p12
aS'program management'
p13
aS'deep learning'
p14
aS'computer science'
p15
aS'segmentation'
p16
aS'distributed computing'
p17
aS'marketing'
p18
aS'personalization'
p19
aS'modeling'
p20
aS'data'
p21
aS'software development'
p22
aS'search'
p23
aS'b testing'
p24
aS'data visualization'
p25
aS'data cleaning'
p26
aS'science'
p27
aS'programming'
p28
aS'machine learning'
p29
aS'web mining'
p30
aS'security'
p31
aS'scripting'
p32
asS'working-year'
p33
(lp34
V(2, 5]
p35
asS'major'
p36
(lp37
S'information'
p38
aS'management'
p39
aS'genetics'
p40
aS'business'
p41
aS'computing'
p42
aS'marketing'
p43
aS'data science'
p44
aS'statistic'
p45
aS'communication'
p46
aS'machine learning'
p47
aS'computer science'
p48
aS'data mining'
p49
aS'phd'
p50
aS'science'
p51
asS'education'
p52
(lp53
VDoctor
p54
asS'responsibility'
p55
(lp56
S'development'
p57
aS'information'
p58
aS'product'
p59
aS'formulate'
p60
aS'business problem'
p61
aS'understand'
p62
aS'data mining'
p63
aS'modeling'
p64
aS'model'
p65
as.