(dp1
S'skills'
p2
(lp3
S'organization'
p4
aS'team leadership'
p5
aS'hedis'
p6
aS'communication'
p7
aS'healthcare'
p8
aS'data scientist'
p9
aS'analysis'
p10
aS'analytics'
p11
aS'problem solving'
p12
aS'leadership'
p13
aS'process improvement'
p14
aS'data analysis'
p15
aS'sql'
p16
aS'sas'
p17
aS'mathematics'
p18
aS'data'
p19
asS'working-year'
p20
(lp21
S'[0]'
p22
asS'major'
p23
(lp24
VMathematics
p25
aVData Science
p26
aVBusiness
p27
asS'education'
p28
(lp29
S'Bachelor'
p30
asS'responsibility'
p31
(lp32
S'development'
p33
aS'data analysis'
p34
aS'understand'
p35
aS'analysis'
p36
aS'improvement'
p37
as.