(dp1
S'skills'
p2
(lp3
S'neural networks'
p4
aS'intelligence'
p5
aS'data science'
p6
aS'analytics'
p7
aS'engineering'
p8
aS'statistical analysis'
p9
aS'data mining'
p10
aS'spss'
p11
aS'regression'
p12
aS'java'
p13
aS'deep learning'
p14
aS'hadoop'
p15
aS'research'
p16
aS'cell'
p17
aS'optimization'
p18
aS'computer science'
p19
aS'reliability engineering'
p20
aS'natural language processing'
p21
aS'mathematics'
p22
aS'failure analysis'
p23
aS'operations research'
p24
aS'data analysis'
p25
aS'distributed computing'
p26
aS'product development'
p27
aS'conjoint analysis'
p28
aS'processing'
p29
aS'data scientist'
p30
aS'svm'
p31
aS'statistical modeling'
p32
aS'modeling'
p33
aS'manufacturing'
p34
aS'data'
p35
aS'software development'
p36
aS'rapidminer'
p37
aS'search'
p38
aS'genetic algorithms'
p39
aS'collaborative filtering'
p40
aS'science'
p41
aS'analysis'
p42
aS'machine learning'
p43
aS'weka'
p44
aS'r'
aS'etl'
p45
aS'logistic regression'
p46
aS'knime'
p47
aS'electrical engineering'
p48
aS'scripting'
p49
asS'working-year'
p50
(lp51
V(5, 10]
p52
asS'major'
p53
(lp54
S'mathematics'
p55
aS'business'
p56
aS'physics mathematics'
p57
aS'computing'
p58
aS'science'
p59
aS'data science'
p60
aS'data mining'
p61
aS'statistic'
p62
aS'machine learning data mining'
p63
aS'analytics'
p64
aS'engineering'
p65
aS'operations research'
p66
aS'design'
p67
aS'electrical'
p68
aS'phd'
p69
aS'natural language processing'
p70
aS'electrical engineering'
p71
aS'machine learning'
p72
aS'ee computer science'
p73
aVphysic
p74
aS'computer science'
p75
asS'education'
p76
(lp77
VDoctor
p78
asS'responsibility'
p79
(lp80
S'data mining'
p81
aS'development'
p82
aS'product'
p83
aS'data analysis'
p84
aS'business problem'
p85
aS'pattern'
p86
aS'processing'
p87
aS'analysis'
p88
aS'statistical model'
p89
aS'optimization'
p90
aS'design'
p91
aS'design experiment'
p92
aS'recommendation'
p93
aS'report'
p94
aS'modeling'
p95
aS'model'
p96
aS'prototype'
p97
as.