(dp1
S'skills'
p2
(lp3
S'intelligence'
p4
aS'data science'
p5
aS'avro'
p6
aS'hadoop'
p7
aS'ec2'
p8
aS'hbase'
p9
aS'research'
p10
aS'cassandra'
p11
aS'visualization'
p12
aS'java'
p13
aS'big data'
p14
aS'scala'
p15
aS'recruiting'
p16
aS'mllib'
p17
aS'writing'
p18
aS'teamwork'
p19
aS'innovation'
p20
aS'android'
p21
aS'hdfs'
p22
aS'python'
p23
aS'mongodb'
p24
aS'collaboration'
p25
aS'aws'
p26
aS'military experience'
p27
aS'military'
p28
aS'spark'
p29
aS'data'
p30
aS'customer experience'
p31
aS'a'
aS'search'
p32
aS'github'
p33
aS'science'
p34
aS'scikit-learn'
p35
aS'machine learning'
p36
aS'banking'
p37
aS'architecture'
p38
aS'emr'
p39
aS'theano'
p40
asS'working-year'
p41
(lp42
V(0, 2]
p43
aV(2, 5]
p44
asS'major'
p45
(lp46
VData Science
p47
aVComputer Science
p48
aVBusiness
p49
asS'education'
p50
(lp51
VBachelor
p52
aVMaster
p53
asS'responsibility'
p54
(lp55
S'pattern'
p56
aS'product'
p57
aS'information'
p58
as.