(dp1
S'skills'
p2
(lp3
S'reporting analysis'
p4
aS'r d'
p5
aS'regression analysis'
p6
aS'communication'
p7
aS'data science'
p8
aS'tableau'
p9
aS'analytics'
p10
aS'data governance'
p11
aS'problem solving'
p12
aS'data mining'
p13
aS'regression'
p14
aS'visualization'
p15
aS'management'
p16
aS'predictive modeling'
p17
aS'excel'
p18
aS'integration'
p19
aS'governance'
p20
aS'access'
p21
aS'computer science'
p22
aS'advanced analytics'
p23
aS'unstructured data'
p24
aS'data analysis'
p25
aS'python'
p26
aS'data scientist'
p27
aS'data quality'
p28
aS'sql'
p29
aS'modeling'
p30
aS'data'
p31
aS'statistical programming'
p32
aS'word'
p33
aS'data visualization'
p34
aS'sql server'
p35
aS'science'
p36
aS'programming'
p37
aS'analysis'
p38
aS'spss'
p39
aS'r'
aS'dashboard'
p40
aS'microsoft office'
p41
aS'powerpoint'
p42
aS'data analytics'
p43
asS'working-year'
p44
(lp45
V(0, 2]
p46
asS'major'
p47
(lp48
S'information'
p49
aS'management'
p50
aS'ee computer science'
p51
aS'science'
p52
aS'data science'
p53
aS'data science analytics'
p54
aS'analytics'
p55
aS'communication'
p56
aS'information system'
p57
aS'design'
p58
aS'computer science'
p59
aS'data mining'
p60
aS'advanced analytics'
p61
aS'computer science data science'
p62
aS'data analytics'
p63
asS'education'
p64
(lp65
VBachelor
p66
asS'responsibility'
p67
(lp68
S'information'
p69
aS'product'
p70
aS'data analysis'
p71
aVinsight
p72
aS'communicate'
p73
aS'analysis'
p74
aS'design'
p75
aS'data mining'
p76
aS'report'
p77
aS'understand'
p78
aS'modeling'
p79
aS'presentation'
p80
aS'data gathering'
p81
as.