(dp1
S'skills'
p2
(lp3
S'systems engineering'
p4
aS'storage'
p5
aS'data science'
p6
aS'engineering'
p7
aS'statistical analysis'
p8
aS'data mining'
p9
aS'research'
p10
aS'education'
p11
aS'r programming'
p12
aS'strategy'
p13
aS'computer science'
p14
aS'intelligence'
p15
aS'mathematics'
p16
aS'operations research'
p17
aS'calculus'
p18
aS'artificial intelligence'
p19
aS'algebra'
p20
aS'processing'
p21
aS'data scientist'
p22
aS'modeling'
p23
aS'data'
p24
aS'software engineering'
p25
aS'science'
p26
aS'applied mathematics'
p27
aS'programming'
p28
aS'analysis'
p29
aS'machine learning'
p30
aS'architecture'
p31
aS'discrete mathematics'
p32
aS'organization'
p33
aS'scripting'
p34
asS'working-year'
p35
(lp36
V(0, 2]
p37
aV(2, 5]
p38
asS'major'
p39
(lp40
S'systems engineering'
p41
aS'data science'
p42
aS'statistic'
p43
aS'machine learning data mining'
p44
aS'engineering'
p45
aS'design'
p46
aS'applied statistics'
p47
aS'data mining'
p48
aS'data science operations research'
p49
aS'information'
p50
aS'computer science mathematics'
p51
aS'machine learning data science'
p52
aVapplied statistic
p53
aS'computer science'
p54
aS'mathematics'
p55
aS'operations research'
p56
aS'engineering science'
p57
aS'mathematics statistics'
p58
aS'information system'
p59
aVmath course
p60
aS'information systems'
p61
aS'software engineering'
p62
aS'science'
p63
aS'applied mathematics'
p64
aS'machine learning'
p65
aS'computer information systems'
p66
aS'artificial intelligence'
p67
aS'applied math'
p68
aS'applied mathematics statistics'
p69
asS'education'
p70
(lp71
VBachelor
p72
aVMaster
p73
aVDoctor
p74
asS'responsibility'
p75
(lp76
S'data mining'
p77
aS'development'
p78
aS'product'
p79
aS'information'
p80
aS'processing'
p81
aS'communicate'
p82
aS'analysis'
p83
aS'analytic'
p84
aS'statistical method'
p85
aS'design'
p86
aS'recommendation'
p87
aS'modeling'
p88
aS'implement'
p89
aS'model'
p90
as.