(dp1
S'skills'
p2
(lp3
S'visualization'
p4
aS'training'
p5
aS'data collection'
p6
aS'defense'
p7
aS'government'
p8
aS'communication'
p9
aS'data science'
p10
aS'education'
p11
aS'communication skills'
p12
aS'research'
p13
aS'survey design'
p14
aS'engineering'
p15
aS'leadership'
p16
aS'analysis'
p17
aS'science'
p18
aS'intelligence'
p19
aS'security'
p20
aS'simulation'
p21
aS'data'
p22
aS'information technology'
p23
aS'statistical analysis'
p24
asS'working-year'
p25
(lp26
V(5, 10]
p27
asS'major'
p28
(lp29
S'information'
p30
aS'science'
p31
aS'data science'
p32
aS'communication'
p33
aS'general'
p34
aS'engineering'
p35
aS'design'
p36
aS'statistic'
p37
aS'information technology'
p38
asS'education'
p39
(lp40
VBachelor
p41
aVMaster
p42
asS'responsibility'
p43
(lp44
S'information'
p45
aS'product'
p46
aS'data collection'
p47
aS'analysis'
p48
aS'simulation'
p49
aS'design'
p50
aS'report'
p51
aS'model'
p52
as.