(dp1
S'skills'
p2
(lp3
S'r d'
p4
aS'nosql'
p5
aS'intelligence'
p6
aS'data science'
p7
aS'linux'
p8
aS'intelligence analysis'
p9
aS'integration'
p10
aS'analytics'
p11
aS'business intelligence'
p12
aS'defense'
p13
aS'security clearance'
p14
aS'data mining'
p15
aS'neo4j'
p16
aS'education'
p17
aS'xml'
p18
aS'visualization'
p19
aS'management'
p20
aS'aerospace'
p21
aS'anomaly detection'
p22
aS'hadoop'
p23
aS'writing'
p24
aS'json'
p25
aS'computer science'
p26
aS'web services'
p27
aS'information security'
p28
aS'algorithm development'
p29
aS'data management'
p30
aS'clustering'
p31
aS'data analysis'
p32
aS'government'
p33
aS'python'
p34
aS'processing'
p35
aS'data scientist'
p36
aS'statistical modeling'
p37
aS'sql'
p38
aS'modeling'
p39
aS'data'
p40
aS'information technology'
p41
aS'c'
aS'pattern recognition'
p42
aS'risk assessment'
p43
aS'data visualization'
p44
aS'science'
p45
aS'dod'
p46
aS'machine learning'
p47
aS'information assurance'
p48
aS'r'
aS'security'
p49
aS'analysis'
p50
aS'data analytics'
p51
aS'predictive analytics'
p52
asS'working-year'
p53
(lp54
V(0, 2]
p55
aV(2, 5]
p56
asS'major'
p57
(lp58
S'information'
p59
aS'management'
p60
aS'business'
p61
aS'science'
p62
aS'data science'
p63
aS'statistic'
p64
aS'machine learning'
p65
aS'analytics'
p66
aS'design'
p67
aS'information technology'
p68
aS'data mining'
p69
aS'computer science'
p70
aS'machine learning data mining'
p71
aS'data analytics'
p72
aS'predictive analytics'
p73
asS'education'
p74
(lp75
VBachelor
p76
aVMaster
p77
asS'responsibility'
p78
(lp79
S'development'
p80
aS'large data set'
p81
aVinsight
p82
aS'information'
p83
aS'pattern'
p84
aS'processing'
p85
aS'analysis'
p86
aS'statistical model'
p87
aS'analytic'
p88
aS'data analysis'
p89
aS'design'
p90
aS'data aggregation'
p91
aS'data mining'
p92
aS'understand'
p93
aS'modeling'
p94
aS'extract'
p95
aS'model'
p96
aS'decision-making'
p97
as.