(dp1
S'skills'
p2
(lp3
S'text analytics'
p4
aS'communication'
p5
aS'testing'
p6
aS'devops'
p7
aS'analytics'
p8
aS'system administration'
p9
aS'data mining'
p10
aS'ic'
p11
aS'vmware'
p12
aS'visualization'
p13
aS'management'
p14
aS'java'
p15
aS'data'
p16
aS'integration'
p17
aS'policy'
p18
aS'a'
aS'data analysis'
p19
aS'python'
p20
aS'aws'
p21
aS'data scientist'
p22
aS'sql'
p23
aS'ruby'
p24
aS'project management'
p25
aS'software development'
p26
aS'training'
p27
aS'analysis'
p28
aS'machine learning'
p29
aS'r'
aS'architecture'
p30
aS'organization'
p31
aS'security'
p32
aS'predictive analytics'
p33
asS'working-year'
p34
(lp35
V(5, 10]
p36
asS'major'
p37
(lp38
VData Science
p39
aVComputer Science
p40
aVBusiness
p41
aVManagement Science and Engineering
p42
asS'education'
p43
(lp44
VBachelor
p45
asS'responsibility'
p46
(lp47
S'development'
p48
aS'data analysis'
p49
aS'pattern'
p50
aS'analysis'
p51
aS'analytic'
p52
aS'data mining'
p53
aS'report'
p54
aS'model'
p55
aS'decision making'
p56
as.