(dp1
S'skills'
p2
(lp3
S'consulting'
p4
aS'intelligence'
p5
aS'data science'
p6
aS'analytics'
p7
aS'engineering'
p8
aS'data mining'
p9
aS'research'
p10
aS'hdfs'
p11
aS'management'
p12
aS'java'
p13
aS'hadoop'
p14
aS'strategy'
p15
aS'access'
p16
aS'innovation'
p17
aS'mathematics'
p18
aS'artificial intelligence'
p19
aS'government'
p20
aS'python'
p21
aS'data scientist'
p22
aS'data'
p23
aS'c'
aS'science'
p24
aS'documentation'
p25
aS'mapreduce'
p26
aS'c++'
p27
aS'machine learning'
p28
aS'security'
p29
asS'working-year'
p30
(lp31
V(2, 5]
p32
asS'major'
p33
(lp34
S'information'
p35
aS'management'
p36
aS'mathematics'
p37
aS'ee'
p38
aS'science'
p39
aS'data science'
p40
aS'statistic'
p41
aS'machine learning data mining'
p42
aS'analytics'
p43
aS'engineering'
p44
aS'design'
p45
aS'data mining'
p46
aS'management technology'
p47
aS'machine learning'
p48
aS'artificial intelligence'
p49
asS'education'
p50
(lp51
VBachelor
p52
asS'responsibility'
p53
(lp54
S'development'
p55
aS'information'
p56
aS'documentation'
p57
aS'design'
p58
aS'data mining'
p59
as.