(dp1
S'skills'
p2
(lp3
S'insurance'
p4
aS'continuous improvement'
p5
aS'english'
p6
aS'chinese'
p7
aS'german'
p8
aS'communication'
p9
aS'data science'
p10
aS'testing'
p11
aS'analytics'
p12
aS'engineering'
p13
aS'defense'
p14
aS'communication skills'
p15
aS'system design'
p16
aS'spanish'
p17
aS'analysis'
p18
aS'research'
p19
aS'web crawling'
p20
aS'data mining'
p21
aS'visualization'
p22
aS'statistics'
p23
aS'java'
p24
aS'big data'
p25
aS'ruby'
p26
aS'storage'
p27
aS'excel'
p28
aS'innovation'
p29
aS'perl'
p30
aS'user interface'
p31
aS'html'
p32
aS'computer science'
p33
aS'intelligence'
p34
aS'policy'
p35
aS'mathematics'
p36
aS'military'
p37
aS'microsoft excel'
p38
aS'css'
p39
aS'text mining'
p40
aS'education'
p41
aS'recommender systems'
p42
aS'government'
p43
aS'python'
p44
aS'ruby rails'
p45
aS'javascript'
p46
aS'data scientist'
p47
aS'user research'
p48
aS'french'
p49
aS'database development'
p50
aS'leadership'
p51
aS'aerospace'
p52
aS'sql'
p53
aS'data'
p54
aS'national security'
p55
aS'a'
aS'data collection'
p56
aS'data visualization'
p57
aS'collaborative filtering'
p58
aS'management'
p59
aS'statistical analysis'
p60
aS'science'
p61
aS'applied mathematics'
p62
aS'programming'
p63
aS'security clearance'
p64
aS'customer support'
p65
aS'databases'
p66
aS'electrical engineering'
p67
aS'security'
p68
aS'scripting'
p69
aS'predictive analytics'
p70
asS'working-year'
p71
(lp72
V(5, 10]
p73
asS'major'
p74
(lp75
VStatistics
p76
aVData Science
p77
aVElectrical and Electronics Engineering
p78
aVEngineering
p79
aVInformation Science
p80
aVComputer Science
p81
aVMathematics
p82
aVManagement Science and Engineering
p83
asS'education'
p84
(lp85
VBachelor
p86
aVDoctor
p87
asS'responsibility'
p88
(lp89
S'development'
p90
aS'information'
p91
aS'product'
p92
aS'data collection'
p93
aS'insight'
p94
aS'analysis'
p95
aS'improvement'
p96
aS'interface'
p97
aS'design'
p98
aS'data mining'
p99
aS'report'
p100
aS'understand'
p101
aS'transformation'
p102
as.