(dp1
S'skills'
p2
(lp3
S'r d'
p4
aS'public speaking'
p5
aS'intelligence'
p6
aS'data science'
p7
aS'linux'
p8
aS'psychometrics'
p9
aS'analytics'
p10
aS'unix'
p11
aS'defense'
p12
aS'security clearance'
p13
aS'data mining'
p14
aS'analysis'
p15
aS'econometrics'
p16
aS'xml'
p17
aS'visualization'
p18
aS'big data'
p19
aS'optimization'
p20
aS'continuous improvement'
p21
aS'html'
p22
aS'matlab'
p23
aS'innovation'
p24
aS'mathematics'
p25
aS'unstructured data'
p26
aS'operating systems'
p27
aS'computer science'
p28
aS'data analysis'
p29
aS'government'
p30
aS'python'
p31
aS'javascript'
p32
aS'data scientist'
p33
aS'github'
p34
aS'data'
p35
aS'blogging'
p36
aS'c'
aS'cloudera'
p37
aS'national security'
p38
aS'science'
p39
aS'applied mathematics'
p40
aS'c++'
p41
aS'soap'
p42
aS'r'
aS'security'
p43
aS'shiny'
p44
aS'data analytics'
p45
asS'working-year'
p46
(lp47
V[0]
p48
asS'major'
p49
(lp50
S'information'
p51
aS'big data'
p52
aS'science'
p53
aS'applied mathematics'
p54
aS'data mining'
p55
aVapplied statistic
p56
aS'statistic'
p57
aS'econometrics'
p58
aS'analytics'
p59
aS'computer science'
p60
aS'applied math'
p61
aS'mathematics'
p62
aS'computer science mathematics'
p63
aS'ee computer science'
p64
aS'data science'
p65
aS'data analytics'
p66
asS'education'
p67
(lp68
VBachelor
p69
aVDoctor
p70
asS'responsibility'
p71
(lp72
S'development'
p73
aS'information'
p74
aS'data analysis'
p75
aS'communicate'
p76
aS'analysis'
p77
aS'improvement'
p78
aS'analytic'
p79
aS'optimization'
p80
aS'data mining'
p81
aS'prototype'
p82
aS'transformation'
p83
as.