(dp1
S'skills'
p2
(lp3
S'communication'
p4
aS'testing'
p5
aS'node.js'
p6
aS'engineering'
p7
aS'go'
p8
aS'django'
p9
aS'data'
p10
aS'insurance'
p11
aS'java'
p12
aS'agile'
p13
aS'integration'
p14
aS'user interface'
p15
aS'css'
p16
aS'apis'
p17
aS'python'
p18
aS'ruby rails'
p19
aS'collaboration'
p20
aS'javascript'
p21
aS'data scientist'
p22
aS'c'
aS'github'
p23
aS'ruby'
p24
aS'customer experience'
p25
aS'a'
aS'search'
p26
aS'b testing'
p27
aS'machine learning'
p28
aS'optimization'
p29
aS'architecture'
p30
asS'working-year'
p31
(lp32
V(0, 2]
p33
asS'major'
p34
(lp35
VEngineering
p36
aVComputer Science
p37
aVBusiness
p38
asS'education'
p39
(lp40
S'Bachelor'
p41
asS'responsibility'
p42
(lp43
S'development'
p44
aS'ensure data integrity'
p45
aS'pattern'
p46
aS'product'
p47
aS'optimization'
p48
aS'solve problem'
p49
aS'interface'
p50
aS'implement'
p51
aS'model'
p52
as.