(dp1
S'skills'
p2
(lp3
S'financial modeling'
p4
aS'market risk'
p5
aS'management'
p6
aS'capital markets'
p7
aS'finance'
p8
aS'risk management'
p9
aS'c'
aS'education'
p10
aS'portfolio management'
p11
aS'strategy'
p12
aS'credit'
p13
aS'sas'
p14
aS'investment management'
p15
aS'pricing'
p16
aS'sql'
p17
aS'policy'
p18
aS'modeling'
p19
aS'security'
p20
aS'credit risk'
p21
aS'data'
p22
aS'investments'
p23
asS'working-year'
p24
(lp25
V(5, 10]
p26
asS'major'
p27
(lp28
VEconomics
p29
aVManagement Science and Engineering
p30
asS'education'
p31
(lp32
VBachelor
p33
asS'responsibility'
p34
(lp35
S'analytic'
p36
aS'modeling'
p37
as.