(dp1
S'skills'
p2
(lp3
S'multivariate analysis'
p4
aS'python'
p5
aS'predictive modeling'
p6
aS'analysis'
p7
aS'r'
aS'sql'
p8
aS'sas'
p9
aS'modeling'
p10
aS'data'
p11
aS'regression'
p12
asS'working-year'
p13
(lp14
S'[0]'
p15
asS'major'
p16
(lp17
sS'education'
p18
(lp19
S'Bachelor'
p20
asS'responsibility'
p21
(lp22
S'modeling'
p23
aS'analysis'
p24
as.