(dp1
S'skills'
p2
(lp3
S'management'
p4
aS'banking'
p5
aS'agile'
p6
aS'collaboration'
p7
aS'personalization'
p8
aS'data scientist'
p9
aS'business strategy'
p10
aS'analysis'
p11
aS'strategy'
p12
aS'credit'
p13
aS'engineering'
p14
aS'military experience'
p15
aS'computer science'
p16
aS'military'
p17
aS'product management'
p18
aS'laboratory'
p19
aS'data'
p20
aS'science'
p21
asS'working-year'
p22
(lp23
V(2, 5]
p24
asS'major'
p25
(lp26
VEngineering
p27
aVEconomics
p28
aVComputer Science
p29
aVBusiness
p30
aVManagement Science and Engineering
p31
asS'education'
p32
(lp33
VBachelor
p34
aVMaster
p35
asS'responsibility'
p36
(lp37
S'product'
p38
aS'analysis'
p39
as.