(dp1
S'skills'
p2
(lp3
S'nlp'
p4
aS'text analytics'
p5
aS'intelligence'
p6
aS'data science'
p7
aS'pig'
p8
aS'sentiment analysis'
p9
aS'engineering'
p10
aS'defense'
p11
aS'hive'
p12
aS'hbase'
p13
aS'simulation'
p14
aS'xml'
p15
aS'git'
p16
aS'java'
p17
aS'storage'
p18
aS'hadoop'
p19
aS'json'
p20
aS'html'
p21
aS'education'
p22
aS'natural language processing'
p23
aS'processing'
p24
aS'distributed computing'
p25
aS'government'
p26
aS'javascript'
p27
aS'c'
aS'spark'
p28
aS'data'
p29
aS'information technology'
p30
aS'training'
p31
aS'science'
p32
aS'documentation'
p33
aS'programming'
p34
aS'analysis'
p35
aS'machine learning'
p36
aS'r'
aS'security'
p37
aS'etl'
p38
asS'working-year'
p39
(lp40
V(5, 10]
p41
asS'major'
p42
(lp43
S'information'
p44
aS'computing'
p45
aS'science'
p46
aS'data science'
p47
aS'machine learning'
p48
aS'engineering'
p49
aS'design'
p50
aS'natural language processing'
p51
aS'general'
p52
aS'information technology'
p53
asS'education'
p54
(lp55
VBachelor
p56
asS'responsibility'
p57
(lp58
S'development'
p59
aS'information'
p60
aS'documentation'
p61
aS'processing'
p62
aS'analysis'
p63
aS'simulation'
p64
aS'design'
p65
as.