(dp1
S'skills'
p2
(lp3
S'neural networks'
p4
aS'intelligence'
p5
aS'analytics'
p6
aS'defense'
p7
aS'hdfs'
p8
aS'java'
p9
aS'big data'
p10
aS'counterterrorism'
p11
aS'agile'
p12
aS'government'
p13
aS'recruiting'
p14
aS'hadoop'
p15
aS'unstructured data'
p16
aS'social media'
p17
aS'python'
p18
aS'aws'
p19
aS'data scientist'
p20
aS'spark'
p21
aS'data'
p22
aS'national security'
p23
aS'security clearance'
p24
aS'machine learning'
p25
aS'deep learning'
p26
aS'organization'
p27
aS'security'
p28
aS'impala'
p29
aS'data analytics'
p30
asS'working-year'
p31
(lp32
V(2, 5]
p33
asS'major'
p34
(lp35
S'information'
p36
aS'big data'
p37
aS'phd'
p38
aS'analytics'
p39
aS'machine learning'
p40
aS'law'
p41
aS'data analytics'
p42
asS'education'
p43
(lp44
VBachelor
p45
aVMaster
p46
aVDoctor
p47
asS'responsibility'
p48
(lp49
S'analytic'
p50
aS'information'
p51
as.