(dp1
S'skills'
p2
(lp3
S'software development'
p4
aS'open source'
p5
aS'programming'
p6
aS'big data'
p7
aS'agile'
p8
aS'data scientist'
p9
aS'integration'
p10
aS'analysis'
p11
aS'business process'
p12
aS'engineering'
p13
aS'computer science'
p14
aS'science'
p15
aS'security'
p16
aS'education'
p17
aS'data'
p18
aS'application development'
p19
asS'working-year'
p20
(lp21
V(0, 2]
p22
aV(2, 5]
p23
asS'major'
p24
(lp25
VEngineering
p26
aVComputer Science
p27
aVBusiness
p28
asS'education'
p29
(lp30
VBachelor
p31
asS'responsibility'
p32
(lp33
S'development'
p34
aS'model'
p35
aS'insight'
p36
aS'analysis'
p37
aS'analytic'
p38
aS'implement'
p39
aS'transformation'
p40
as.