(dp1
S'skills'
p2
(lp3
S'testing'
p4
aS'sales'
p5
aS'analytics'
p6
aS'go'
p7
aS'management'
p8
aS'big data'
p9
aS'programming languages'
p10
aS'integration'
p11
aS'html'
p12
aS'css'
p13
aS'marketing'
p14
aS'data scientist'
p15
aS'business process'
p16
aS'product design'
p17
aS'data'
p18
aS'b2b'
p19
aS'programming'
p20
aS'machine learning'
p21
aS'etl'
p22
aS'healthcare'
p23
aS'product management'
p24
aS'validation'
p25
aS'data analytics'
p26
asS'working-year'
p27
(lp28
S'[0]'
p29
asS'major'
p30
(lp31
VData Science
p32
aVEconomics
p33
aVComputer Science
p34
aVBusiness
p35
aVManagement Science and Engineering
p36
asS'education'
p37
(lp38
S'Bachelor'
p39
asS'responsibility'
p40
(lp41
S'development'
p42
aS'product'
p43
aS'insight'
p44
aS'understand'
p45
aS'report'
p46
aS'design'
p47
aS'prototype'
p48
aS'monitor ... metric'
p49
as.