(dp1
S'skills'
p2
(lp3
S'debugging'
p4
aS'consulting'
p5
aS'.net'
p6
aS'data science'
p7
aS'testing'
p8
aS'.net framework'
p9
aS'analytics'
p10
aS'engineering'
p11
aS'analysis'
p12
aS'strategy'
p13
aS'visualization'
p14
aS'management'
p15
aS'java'
p16
aS'big data'
p17
aS'agile'
p18
aS'research'
p19
aS'big data analytics'
p20
aS'innovation'
p21
aS'asp'
p22
aS'theory'
p23
aS'government'
p24
aS'python'
p25
aS'javascript'
p26
aS'training'
p27
aS'html5'
p28
aS'php'
p29
aS'data'
p30
aS'jquery'
p31
aS'c'
aS'software engineering'
p32
aS'data visualization'
p33
aS'science'
p34
aS'access'
p35
aS'security clearance'
p36
aS'security'
p37
aS'data analytics'
p38
asS'working-year'
p39
(lp40
V(5, 10]
p41
asS'major'
p42
(lp43
S'management'
p44
aS'software engineering'
p45
aS'big data'
p46
aS'science'
p47
aS'data science'
p48
aS'big data analytics'
p49
aS'analytics'
p50
aS'engineering'
p51
aS'management technology'
p52
aS'design'
p53
aS'data analytics'
p54
asS'education'
p55
(lp56
VBachelor
p57
asS'responsibility'
p58
(lp59
S'development'
p60
aS'product'
p61
aS'analysis'
p62
aS'analytic'
p63
aS'design'
p64
aS'model'
p65
as.