(dp1
S'skills'
p2
(lp3
S'r d'
p4
aS'statistical analysis'
p5
aS'machine learning'
p6
aS'quantitative analysis'
p7
aS'regression'
p8
aS'clustering'
p9
aS'education'
p10
aS'excel'
p11
aS'research'
p12
aS'coaching'
p13
aS'matlab'
p14
aS'data analysis'
p15
aS'data scientist'
p16
aS'mentoring'
p17
aS'sql'
p18
aS'data'
p19
aS'word'
p20
aS'programming'
p21
aS'analysis'
p22
aS'linear regression'
p23
aS'r'
aS'root'
p24
aS'scripting'
p25
asS'working-year'
p26
(lp27
V(2, 5]
p28
asS'major'
p29
(lp30
S'phd'
p31
aS'general'
p32
aS'business'
p33
aS'machine learning'
p34
asS'education'
p35
(lp36
VMaster
p37
aVDoctor
p38
asS'responsibility'
p39
(lp40
S'data analysis'
p41
aS'develop model'
p42
aS'business problem'
p43
aS'communicate'
p44
aS'analysis'
p45
aS'understand'
p46
aS'model'
p47
aS'quantitative analysis'
p48
as.