(dp1
S'skills'
p2
(lp3
S'negotiation'
p4
aS'classification'
p5
aS'communication'
p6
aS'data science'
p7
aS'decision support'
p8
aS'analytics'
p9
aS'business intelligence'
p10
aS'data warehousing'
p11
aS'statistical analysis'
p12
aS'problem solving'
p13
aS'sas'
p14
aS'regression'
p15
aS'clustering'
p16
aS'visualization'
p17
aS'statistics'
p18
aS'predictive modeling'
p19
aS'management'
p20
aS'tableau'
p21
aS'strategy'
p22
aS'computer science'
p23
aS'intelligence'
p24
aS'thought leadership'
p25
aS'collaboration'
p26
aS'innovation'
p27
aS'leadership'
p28
aS'sql'
p29
aS'staff development'
p30
aS'modeling'
p31
aS'data'
p32
aS'training'
p33
aS'software engineering'
p34
aS'science'
p35
aS'business strategy'
p36
aS'engineering'
p37
aS'analysis'
p38
aS'machine learning'
p39
aS'olap'
p40
aS'r'
aS'healthcare'
p41
aS'product management'
p42
aS'organization'
p43
aS'etl'
p44
asS'working-year'
p45
(lp46
V(15, 20]
p47
asS'major'
p48
(lp49
VStatistics
p50
aVBusiness
p51
aVData Science
p52
aVEngineering
p53
aVComputer Science
p54
aVManagement Science and Engineering
p55
asS'education'
p56
(lp57
VMaster
p58
aVDoctor
p59
asS'responsibility'
p60
(lp61
S'modeling'
p62
aS'development'
p63
aS'product'
p64
aS'identify opportunity'
p65
aS'large data set'
p66
aS'insight'
p67
aS'manage data'
p68
aS'analysis'
p69
aS'improvement'
p70
aS'design'
p71
aS'recommendation'
p72
aS'report'
p73
aS'understand'
p74
aS'implement'
p75
aS'prototype'
p76
as.