(dp1
S'skills'
p2
(lp3
S'insurance'
p4
aS'data science'
p5
aS'sql'
p6
aS'analytics'
p7
aS'problem solving'
p8
aS'strategy'
p9
aS'microsoft sql server'
p10
aS'agile'
p11
aS'data migration'
p12
aS'integration'
p13
aS'writing'
p14
aS'database design'
p15
aS'ssis'
p16
aS'optimization'
p17
aS'statistical software'
p18
aS'teamwork'
p19
aS'processing'
p20
aS'product development'
p21
aS'healthcare'
p22
aS'python'
p23
aS'collaboration'
p24
aS'emr'
p25
aS'scalability'
p26
aS'data quality'
p27
aS'business process'
p28
aS'heroku'
p29
aS'performance tuning'
p30
aS'data'
p31
aS'etl'
p32
aS'postgresql'
p33
aS'sql server'
p34
aS'science'
p35
aS'solver'
p36
aS'r'
aS'architecture'
p37
aS'data security'
p38
aS'organization'
p39
aS'security'
p40
aS'hipaa'
p41
aS'data integration'
p42
asS'working-year'
p43
(lp44
V(2, 5]
p45
asS'major'
p46
(lp47
S'analytics'
p48
aS'data science'
p49
aS'design'
p50
aS'business'
p51
aS'science'
p52
asS'education'
p53
(lp54
VBachelor
p55
asS'responsibility'
p56
(lp57
S'development'
p58
aS'product'
p59
aS'processing'
p60
aS'improvement'
p61
aS'analytic'
p62
aS'optimization'
p63
aS'design'
p64
aS'report'
p65
aS'understand'
p66
aS'model'
p67
aS'prototype'
p68
aS'evaluation'
p69
aS'transformation'
p70
as.