(dp1
S'skills'
p2
(lp3
S'databases'
p4
aS'maven'
p5
aS'teamwork'
p6
aS'data science'
p7
aS'oozie'
p8
aS'integration'
p9
aS'ant'
p10
aS'cluster'
p11
aS'unix'
p12
aS'ansible'
p13
aS'troubleshooting'
p14
aS'problem solving'
p15
aS'linux'
p16
aS'hbase'
p17
aS'xml'
p18
aS'hdfs'
p19
aS'git'
p20
aS'java'
p21
aS'rdbms'
p22
aS'big data'
p23
aS'scala'
p24
aS'agile'
p25
aS'hadoop'
p26
aS'json'
p27
aS'devops'
p28
aS'computer science'
p29
aS'innovation'
p30
aS'jenkins'
p31
aS'unstructured data'
p32
aS'operating systems'
p33
aS'teradata'
p34
aS'sqoop'
p35
aS'healthcare'
p36
aS'python'
p37
aS'processing'
p38
aS'hive'
p39
aS'management'
p40
aS'architectures'
p41
aS'sql'
p42
aS'apache'
p43
aS'networking'
p44
aS'spark'
p45
aS'pig'
p46
aS'data'
p47
aS'a'
aS'hardware'
p48
aS'cloudera'
p49
aS'science'
p50
aS'mapreduce'
p51
aS'analysis'
p52
aS'r'
aS'solr'
p53
aS'architecture'
p54
aS'mercurial'
p55
aS'organization'
p56
aS'impala'
p57
aS'application development'
p58
asS'working-year'
p59
(lp60
V(2, 5]
p61
asS'major'
p62
(lp63
VData Science
p64
aVComputer Science
p65
aVBusiness
p66
aVManagement Science and Engineering
p67
asS'education'
p68
(lp69
VBachelor
p70
asS'responsibility'
p71
(lp72
S'development'
p73
aS'understand'
p74
aS'processing'
p75
aS'design'
p76
aS'analysis'
p77
as.