(dp1
S'skills'
p2
(lp3
S'parallel computing'
p4
aS'communication'
p5
aS'report writing'
p6
aS'analytics'
p7
aS'engineering'
p8
aS'analysis'
p9
aS'linux'
p10
aS'research'
p11
aS'image processing'
p12
aS'writing'
p13
aS'computer vision'
p14
aS'matlab'
p15
aS'intelligence'
p16
aS'algorithm development'
p17
aS'artificial intelligence'
p18
aS'computer science'
p19
aS'data analysis'
p20
aS'signal processing'
p21
aS'government'
p22
aS'python'
p23
aS'processing'
p24
aS'data scientist'
p25
aS'c'
aS'technical writing'
p26
aS'data'
p27
aS'search'
p28
aS'pattern recognition'
p29
aS'parallel programming'
p30
aS'science'
p31
aS'programming'
p32
aS'c++'
p33
aS'machine learning'
p34
aS'electrical engineering'
p35
aS'data analytics'
p36
asS'working-year'
p37
(lp38
V(2, 5]
p39
asS'major'
p40
(lp41
S'information'
p42
aS'computing'
p43
aS'science'
p44
aS'intelligent systems'
p45
aS'machine learning'
p46
aS'analytics'
p47
aS'engineering'
p48
aS'electrical'
p49
aS'artificial intelligence'
p50
aS'communication'
p51
aS'electrical engineering'
p52
aS'data analytics'
p53
aS'computer science'
p54
asS'education'
p55
(lp56
VDoctor
p57
asS'responsibility'
p58
(lp59
S'development'
p60
aS'information'
p61
aS'data analysis'
p62
aS'pattern'
p63
aS'processing'
p64
aS'analysis'
p65
aS'interface'
p66
aS'report'
p67
aS'extract'
p68
as.