(dp1
S'skills'
p2
(lp3
S'customer insight'
p4
aS'communication'
p5
aS'testing'
p6
aS'adobe creative suite'
p7
aS'engineering'
p8
aS'user experience design'
p9
aS'strategy'
p10
aS'visualization'
p11
aS'user experience'
p12
aS'agile'
p13
aS'research'
p14
aS'user interface'
p15
aS'android'
p16
aS'product development'
p17
aS'collaboration'
p18
aS'data scientist'
p19
aS'product design'
p20
aS'military experience'
p21
aS'data'
p22
aS'customer experience'
p23
aS'documentation'
p24
aS'banking'
p25
aS'architecture'
p26
aS'military'
p27
aS'visual c'
p28
aS'information architecture'
p29
asS'working-year'
p30
(lp31
V(2, 5]
p32
asS'major'
p33
(lp34
S'information'
p35
aS'engineering'
p36
aS'design'
p37
aS'business'
p38
aS'communication'
p39
asS'education'
p40
(lp41
VBachelor
p42
asS'responsibility'
p43
(lp44
S'development'
p45
aS'information'
p46
aS'product'
p47
aS'documentation'
p48
aS'pattern'
p49
aVinsight
p50
aS'design'
p51
aS'identify opportunity'
p52
aS'interface'
p53
aS'model'
p54
aS'prototype'
p55
as.