(dp1
S'skills'
p2
(lp3
S'training'
p4
aS'software engineering'
p5
aS'hadoop'
p6
aS'programming'
p7
aS'data science'
p8
aS'data scientist'
p9
aS'mobile devices'
p10
aS'analysis'
p11
aS'machine learning'
p12
aS'engineering'
p13
aS'sas programming'
p14
aS'computer science'
p15
aS'mathematics'
p16
aS'electrical engineering'
p17
aS'manufacturing'
p18
aS'data'
p19
aS'industrial engineering'
p20
aS'science'
p21
asS'working-year'
p22
(lp23
V(5, 10]
p24
aV(2, 5]
p25
asS'major'
p26
(lp27
S'information'
p28
aS'general'
p29
aS'software engineering'
p30
aS'mathematics'
p31
aS'science'
p32
aS'data science'
p33
aS'statistic'
p34
aS'machine learning'
p35
aS'statistics computer science'
p36
aS'engineering'
p37
aS'electrical'
p38
aS'computer science'
p39
aS'electrical engineering'
p40
aS'design'
p41
aS'phd'
p42
aS'industrial engineering'
p43
asS'education'
p44
(lp45
VDoctor
p46
asS'responsibility'
p47
(lp48
S'information'
p49
aS'analysis'
p50
aS'improvement'
p51
aS'analytic'
p52
aS'design'
p53
aS'develop system'
p54
aS'implement'
p55
as.