(dp1
S'skills'
p2
(lp3
S'communication'
p4
aS'data science'
p5
aS'analytics'
p6
aS'unix'
p7
aS'problem solving'
p8
aS'linux'
p9
aS'go'
p10
aS'simulation'
p11
aS'management'
p12
aS'scala'
p13
aS'data'
p14
aS'r'
aS'innovation'
p15
aS'leadership development'
p16
aS'energy'
p17
aS'customer satisfaction'
p18
aS'data analysis'
p19
aS'python'
p20
aS'gas'
p21
aS'data scientist'
p22
aS'data quality'
p23
aS'leadership'
p24
aS'modeling'
p25
aS'ruby'
p26
aS'project management'
p27
aS'science'
p28
aS'engineering'
p29
aS'analysis'
p30
aS'machine learning'
p31
aS'optimization'
p32
aS'data analytics'
p33
aS'organization'
p34
aS'scripting'
p35
aS'predictive analytics'
p36
asS'working-year'
p37
(lp38
V(0, 2]
p39
aV(2, 5]
p40
asS'major'
p41
(lp42
S'management'
p43
aS'science'
p44
aS'data science'
p45
aS'communication'
p46
aS'machine learning'
p47
aS'analytics'
p48
aS'engineering'
p49
aS'design'
p50
aS'project management'
p51
aS'statistic'
p52
aS'phd'
p53
aS'geosciences'
p54
aS'data analytics'
p55
aS'predictive analytics'
p56
asS'education'
p57
(lp58
VBachelor
p59
aVDoctor
p60
asS'responsibility'
p61
(lp62
S'development'
p63
aS'product'
p64
aS'data analysis'
p65
aS'communicate'
p66
aS'analysis'
p67
aS'simulation'
p68
aS'optimization'
p69
aS'design'
p70
aS'report'
p71
aS'modeling'
p72
aS'evaluation'
p73
as.