(dp1
S'skills'
p2
(lp3
S'customer insight'
p4
aS'nosql'
p5
aS'text analytics'
p6
aS'business strategy'
p7
aS'decision support'
p8
aS'tableau'
p9
aS'analytics'
p10
aS'data mining'
p11
aS'sas'
p12
aS'strategy'
p13
aS'statistics'
p14
aS'java'
p15
aS'big data'
p16
aS'hadoop'
p17
aS'research'
p18
aS'communication'
p19
aS'mathematics'
p20
aS'unstructured data'
p21
aS'financial services'
p22
aS'flume'
p23
aS'data modeling'
p24
aS'apis'
p25
aS'python'
p26
aS'aws'
p27
aS'data scientist'
p28
aS'management'
p29
aS'sql'
p30
aS'modeling'
p31
aS'data'
p32
aS'statistical programming'
p33
aS'applied mathematics'
p34
aS'programming'
p35
aS'analysis'
p36
aS'machine learning'
p37
aS'r'
aS'dashboard'
p38
aS'organization'
p39
aS'obiee'
p40
aS'data analytics'
p41
asS'working-year'
p42
(lp43
V(5, 10]
p44
aV(0, 2]
p45
aV(2, 5]
p46
asS'major'
p47
(lp48
VStatistics
p49
aVBusiness
p50
aVData Science
p51
aVComputer Science
p52
aVMathematics
p53
aVManagement Science and Engineering
p54
asS'education'
p55
(lp56
VBachelor
p57
aVMaster
p58
aVDoctor
p59
asS'responsibility'
p60
(lp61
S'development'
p62
aS'presentation'
p63
aS'insight'
p64
aS'analysis'
p65
aS'statistical model'
p66
aS'analytic'
p67
aS'data mining'
p68
aS'modeling'
p69
aS'model'
p70
aS'extract'
p71
as.