(dp1
S'skills'
p2
(lp3
S'digital marketing'
p4
aS'communication'
p5
aS'rest'
p6
aS'engineering'
p7
aS'troubleshooting'
p8
aS'xml'
p9
aS'management'
p10
aS'open source'
p11
aS'big data'
p12
aS'strategy'
p13
aS'json'
p14
aS'computer science'
p15
aS'policy'
p16
aS'mathematics'
p17
aS'soap'
p18
aS'product development'
p19
aS'marketing'
p20
aS'data scientist'
p21
aS'maven'
p22
aS'sql'
p23
aS'apache'
p24
aS'java'
p25
aS'data'
p26
aS'a'
aS'science'
p27
aS'documentation'
p28
aS'jenkins'
p29
aS'english'
p30
asS'working-year'
p31
(lp32
V(0, 2]
p33
asS'major'
p34
(lp35
VEconomics
p36
aVEngineering
p37
aVInformation Science
p38
aVComputer Science
p39
aVMathematics
p40
aVManagement Science and Engineering
p41
asS'education'
p42
(lp43
VBachelor
p44
asS'responsibility'
p45
(lp46
S'development'
p47
aS'information'
p48
aS'product'
p49
aS'documentation'
p50
as.