(dp1
S'skills'
p2
(lp3
S'r d'
p4
aS'cancer'
p5
aS'communication'
p6
aS'data science'
p7
aS'testing'
p8
aS'analytics'
p9
aS'personalization'
p10
aS'quantitative analysis'
p11
aS'insurance'
p12
aS'visualization'
p13
aS'excel'
p14
aS'optimization'
p15
aS'intelligence'
p16
aS'advanced analytics'
p17
aS'mathematics'
p18
aS'artificial intelligence'
p19
aS'data analysis'
p20
aS'theory'
p21
aS'apis'
p22
aS'healthcare'
p23
aS'business analytics'
p24
aS'epidemiology'
p25
aS'leadership'
p26
aS'sql'
p27
aS'data'
p28
aS'word'
p29
aS'data visualization'
p30
aS'science'
p31
aS'analysis'
p32
aS'machine learning'
p33
aS'data center'
p34
aS'r'
aS'data analytics'
p35
aS'data security'
p36
aS'security'
p37
aS'powerpoint'
p38
aS'community outreach'
p39
asS'working-year'
p40
(lp41
V[0]
p42
asS'major'
p43
(lp44
S'artificial intelligence machine learning'
p45
aS'artificial intelligence'
p46
aS'general'
p47
aS'business'
p48
aS'analytics'
p49
aS'science'
p50
aS'data science'
p51
aS'communication'
p52
aS'machine learning'
p53
aS'business analytics'
p54
aS'mathematics statistics'
p55
aS'analytics data science'
p56
aS'statistic'
p57
aS'advanced analytics'
p58
aS'mathematics'
p59
aS'epidemiology'
p60
aS'phd'
p61
aS'data analytics'
p62
asS'education'
p63
(lp64
VMaster
p65
aVDoctor
p66
asS'responsibility'
p67
(lp68
S'data analysis'
p69
aS'business problem'
p70
aS'pattern'
p71
aS'construct'
p72
aS'optimization'
p73
aS'collect data'
p74
aS'recommendation'
p75
aS'analysis'
p76
aS'quantitative analysis'
p77
aS'transformation'
p78
as.