(dp1
S'skills'
p2
(lp3
S'r d'
p4
aS'communication'
p5
aS'data science'
p6
aS'analytics'
p7
aS'business intelligence'
p8
aS'statistical analysis'
p9
aS'problem solving'
p10
aS'data mining'
p11
aS'management'
p12
aS'publishing'
p13
aS'critical thinking'
p14
aS'predictive modeling'
p15
aS'tableau'
p16
aS'research'
p17
aS'computer science'
p18
aS'intelligence'
p19
aS'mathematics'
p20
aS'unstructured data'
p21
aS'data analysis'
p22
aS'data modeling'
p23
aS'finance'
p24
aS'marketing'
p25
aS'collaboration'
p26
aS'data scientist'
p27
aS'leadership'
p28
aS'statistical modeling'
p29
aS'modeling'
p30
aS'data'
p31
aS'science'
p32
aS'economics'
p33
aS'thought leadership'
p34
aS'analysis'
p35
aS'machine learning'
p36
aS'r'
asS'working-year'
p37
(lp38
V(0, 2]
p39
asS'major'
p40
(lp41
S'science'
p42
aS'mathematics economics'
p43
aS'economics statistics'
p44
aS'finance'
p45
aS'business'
p46
aS'marketing'
p47
aS'data science'
p48
aS'economics'
p49
aS'statistic'
p50
aS'machine learning'
p51
aS'analytics'
p52
aS'management'
p53
aS'computer science'
p54
aS'computer science mathematics'
p55
aS'data mining'
p56
aS'communication'
p57
aS'mathematics'
p58
aS'machine learning data mining'
p59
aS'ee computer science'
p60
aS'mathematics economics statistics'
p61
aS'history'
p62
asS'education'
p63
(lp64
VBachelor
p65
aVMaster
p66
asS'responsibility'
p67
(lp68
S'development'
p69
aS'data analysis'
p70
aS'communicate'
p71
aS'analysis'
p72
aS'statistical model'
p73
aS'data mining'
p74
aS'modeling'
p75
aS'model'
p76
as.