(dp1
S'skills'
p2
(lp3
S'nlp'
p4
aS'communication'
p5
aS'energy'
p6
aS'integration'
p7
aS'analytics'
p8
aS'business intelligence'
p9
aS'hadoop'
p10
aS'computer science'
p11
aS'intelligence'
p12
aS'mathematics'
p13
aS'innovation'
p14
aS'teradata'
p15
aS'apis'
p16
aS'javascript'
p17
aS'data scientist'
p18
aS'business analytics'
p19
aS'html5'
p20
aS'sql'
p21
aS'spark'
p22
aS'data'
p23
aS'c'
aS'sql server'
p24
aS'science'
p25
aS'applied mathematics'
p26
aS'engineering'
p27
aS'machine learning'
p28
aS'r'
aS'military'
p29
aS'scripting'
p30
asS'working-year'
p31
(lp32
sS'major'
p33
(lp34
VMathematics
p35
aVData Science
p36
aVEngineering
p37
aVComputer Science
p38
aVBusiness
p39
asS'education'
p40
(lp41
VBachelor
p42
asS'responsibility'
p43
(lp44
S'development'
p45
aS'information'
p46
aS'insight'
p47
aS'design'
p48
aS'interface'
p49
aS'implement'
p50
as.