(dp1
S'skills'
p2
(lp3
S'cognos'
p4
aS'consulting'
p5
aS'r d'
p6
aS'nosql'
p7
aS'r programming'
p8
aS'hadoop'
p9
aS'hardware'
p10
aS'analytics'
p11
aS'hive'
p12
aS'data mining'
p13
aS'go'
p14
aS'distributed computing'
p15
aS'sap'
p16
aS'hdfs'
p17
aS'genetics'
p18
aS'big data'
p19
aS'scala'
p20
aS'recruiting'
p21
aS'coaching'
p22
aS'research'
p23
aS'strategy'
p24
aS'ssis'
p25
aS'microstrategy'
p26
aS'networking'
p27
aS'policy'
p28
aS'unstructured data'
p29
aS'data modeling'
p30
aS'python'
p31
aS'marketing'
p32
aS'informatica'
p33
aS'data scientist'
p34
aS'performance measurement'
p35
aS'leadership'
p36
aS'mentoring'
p37
aS'mobile marketing'
p38
aS'modeling'
p39
aS'pig'
p40
aS'data'
p41
aS'information technology'
p42
aS'training'
p43
aS'documentation'
p44
aS'business objects'
p45
aS'machine learning'
p46
aS'data architecture'
p47
aS'optimization'
p48
aS'architecture'
p49
aS'facebook'
p50
aS'etl'
p51
asS'working-year'
p52
(lp53
V(5, 10]
p54
asS'major'
p55
(lp56
S'information'
p57
aS'genetics'
p58
aS'business'
p59
aS'big data'
p60
aS'computing'
p61
aS'marketing'
p62
aS'statistic'
p63
aS'machine learning'
p64
aS'analytics'
p65
aS'design'
p66
aS'data mining'
p67
aS'information technology'
p68
asS'education'
p69
(lp70
VBachelor
p71
aVMaster
p72
asS'responsibility'
p73
(lp74
S'development'
p75
aS'large data set'
p76
aS'information'
p77
aS'provide leadership'
p78
aS'documentation'
p79
aS'optimization'
p80
aS'design'
p81
aS'data mining'
p82
aS'report'
p83
aS'modeling'
p84
aS'implement'
p85
aS'model'
p86
as.