(dp1
S'skills'
p2
(lp3
S'spring'
p4
aS'rest'
p5
aS'pig'
p6
aS'cluster'
p7
aS'engineering'
p8
aS'data analysis'
p9
aS'hive'
p10
aS'linux'
p11
aS'education'
p12
aS'java'
p13
aS'saas'
p14
aS'hadoop'
p15
aS'perl'
p16
aS'html'
p17
aS'computer science'
p18
aS'processing'
p19
aS'product development'
p20
aS'apis'
p21
aS'python'
p22
aS'javascript'
p23
aS'data scientist'
p24
aS'c'
aS'data processing'
p25
aS'spark'
p26
aS'data'
p27
aS'bash'
p28
aS'a'
aS'search'
p29
aS'postgresql'
p30
aS'lisp'
p31
aS'science'
p32
aS'documentation'
p33
aS'programming'
p34
aS'mapreduce'
p35
aS'analysis'
p36
aS'r'
aS'retail'
p37
asS'working-year'
p38
(lp39
V(0, 2]
p40
aV(2, 5]
p41
asS'major'
p42
(lp43
VEngineering
p44
aVInformation Science
p45
aVComputer Science
p46
asS'education'
p47
(lp48
VBachelor
p49
asS'responsibility'
p50
(lp51
S'development'
p52
aS'information'
p53
aS'product'
p54
aS'data analysis'
p55
aS'processing'
p56
aS'analysis'
p57
aS'implement'
p58
aS'documentation'
p59
as.