(dp1
S'skills'
p2
(lp3
S'intellectual property'
p4
aS'communication'
p5
aS'analytics'
p6
aS'strategy'
p7
aS'random forest'
p8
aS'direct marketing'
p9
aS'hadoop'
p10
aS'research'
p11
aS'community development'
p12
aS'computer science'
p13
aS'innovation'
p14
aS'advanced analytics'
p15
aS'mathematics'
p16
aS'operations research'
p17
aS'python'
p18
aS'marketing'
p19
aS'experimental design'
p20
aS'decision trees'
p21
aS'statistical modeling'
p22
aS'regression'
p23
aS'modeling'
p24
aS'credit risk'
p25
aS'data'
p26
aS'fraud'
p27
aS'solver'
p28
aS'science'
p29
aS'marketing analytics'
p30
aS'business strategy'
p31
aS'machine learning'
p32
aS'credit'
p33
aS'r'
aS'logistic regression'
p34
aS'data analytics'
p35
asS'working-year'
p36
(lp37
V(2, 5]
p38
asS'major'
p39
(lp40
S'science'
p41
aS'mathematics'
p42
aS'business'
p43
aS'marketing'
p44
aS'marketing analytics'
p45
aS'communication'
p46
aS'machine learning'
p47
aS'analytics'
p48
aS'design'
p49
aS'operations research'
p50
aS'statistic'
p51
aS'advanced analytics'
p52
aS'computer science'
p53
aS'phd'
p54
aS'computer science economics'
p55
aS'data analytics'
p56
aS'history'
p57
asS'education'
p58
(lp59
VBachelor
p60
aVMaster
p61
aVDoctor
p62
asS'responsibility'
p63
(lp64
S'development'
p65
aS'predict'
p66
aVinsight
p67
aS'communicate'
p68
aS'statistical model'
p69
aS'analytic'
p70
aS'design'
p71
aS'modeling'
p72
aS'understand'
p73
aS'model'
p74
as.