(dp1
S'skills'
p2
(lp3
S'intelligence'
p4
aS'microsoft excel'
p5
aS'testing'
p6
aS'analytics'
p7
aS'business intelligence'
p8
aS'hive'
p9
aS'regression'
p10
aS'content management'
p11
aS'visualization'
p12
aS'management'
p13
aS'big data'
p14
aS'sharepoint'
p15
aS'excel'
p16
aS'tableau'
p17
aS'big data analytics'
p18
aS'teradata'
p19
aS'data analysis'
p20
aS'visual analytics'
p21
aS'python'
p22
aS'collaboration'
p23
aS'processing'
p24
aS'data scientist'
p25
aS'facebook'
p26
aS'sql'
p27
aS'data'
p28
aS'engineering'
p29
aS'customer experience'
p30
aS'decision trees'
p31
aS'economics'
p32
aS'mapreduce'
p33
aS'analysis'
p34
aS'r'
aS'data analytics'
p35
aS'retail'
p36
aS'application development'
p37
asS'working-year'
p38
(lp39
V(2, 5]
p40
asS'major'
p41
(lp42
S'management'
p43
aS'business'
p44
aS'big data'
p45
aS'economics'
p46
aS'general'
p47
aS'big data analytics'
p48
aS'analytics'
p49
aS'engineering'
p50
aS'statistic'
p51
aS'data analytics'
p52
asS'education'
p53
(lp54
S'Bachelor'
p55
asS'responsibility'
p56
(lp57
S'development'
p58
aS'large data set'
p59
aS'product'
p60
aS'processing'
p61
aVinsight
p62
aS'analysis'
p63
aS'improvement'
p64
aS'statistical method'
p65
aS'data analysis'
p66
aS'report'
p67
aS'model'
p68
aS'statistical model'
p69
as.