(dp1
S'skills'
p2
(lp3
S'research design'
p4
aS'nosql'
p5
aS'intelligence'
p6
aS'data science'
p7
aS'feature extraction'
p8
aS'avro'
p9
aS'integration'
p10
aS'engineering'
p11
aS'data mining'
p12
aS'laboratory'
p13
aS'hbase'
p14
aS'continuous improvement'
p15
aS'translation'
p16
aS'management'
p17
aS'java'
p18
aS'healthcare industry'
p19
aS'big data'
p20
aS'predictive modeling'
p21
aS'education'
p22
aS'hadoop'
p23
aS'research'
p24
aS'access'
p25
aS'json'
p26
aS'biotechnology'
p27
aS'oracle sql'
p28
aS'matlab'
p29
aS'innovation'
p30
aS'model selection'
p31
aS'mathematics'
p32
aS'energy'
p33
aS'artificial intelligence'
p34
aS'computer science'
p35
aS'python'
p36
aS'marketing'
p37
aS'data scientist'
p38
aS'data quality'
p39
aS'water'
p40
aS'oracle'
p41
aS'bloomberg'
p42
aS'sql'
p43
aS'modeling'
p44
aS'spark'
p45
aS'data'
p46
aS'tensorflow'
p47
aS'information technology'
p48
aS'mysql'
p49
aS'science'
p50
aS'aws'
p51
aS'programming'
p52
aS'machine learning'
p53
aS'data cleaning'
p54
aS'h2o'
p55
aS'r'
aS'healthcare'
p56
aS'product management'
p57
aS'theano'
p58
aS'data integration'
p59
asS'working-year'
p60
(lp61
V(2, 5]
p62
asS'major'
p63
(lp64
S'data science'
p65
aS'general'
p66
aS'information technology'
p67
aS'engineering'
p68
aS'design'
p69
aS'machine learning artificial intelligence'
p70
aS'data mining'
p71
aS'information'
p72
aS'mathematics physics'
p73
aS'management'
p74
aS'big data'
p75
aS'machine learning data science'
p76
aS'computer science'
p77
aS'mathematics'
p78
aS'artificial intelligence'
p79
aS'business'
p80
aS'marketing'
p81
aS'phd'
p82
aVphysic
p83
aS'science'
p84
aS'machine learning'
p85
aS'physics computer science'
p86
aS'biotechnology'
p87
asS'education'
p88
(lp89
VMaster
p90
aVDoctor
p91
asS'responsibility'
p92
(lp93
S'information'
p94
aS'product'
p95
aVinsight
p96
aS'communicate'
p97
aS'modeling'
p98
aS'analytic'
p99
aS'statistical method'
p100
aS'model'
p101
aS'design'
p102
aS'key decision'
p103
aS'data mining'
p104
aS'report'
p105
aS'understand'
p106
aS'implement'
p107
aS'evaluation'
p108
aS'transformation'
p109
aS'data sourcing'
p110
as.